libcephfs.so.1 librbd1 #MINVER#
 CEPH_CONF_FILE_DEFAULT@Base 0.47.2
 _Z10env_to_vecRSt6vectorIPKcSaIS1_EES1_@Base 0.47.2
 _Z10get_randommm@Base 0.58
 _Z11argv_to_veciPPKcRSt6vectorIS0_SaIS0_EE@Base 0.47.2
 _Z11ccap_stringi@Base 0.47.2
 _Z11gcap_stringi@Base 0.47.2
 _Z11get_env_intPKc@Base 0.47.2
 _Z11get_str_setRKSsRSt3setISsSt4lessISsESaISsEE@Base 0.47.2
 _Z11vec_to_argvPKcRSt6vectorIS0_SaIS0_EEPiPPS0_@Base 0.58
 _Z12cpp_strerrori@Base 0.47.2
 _Z12get_env_boolPKc@Base 0.47.2
 _Z12get_str_listRKSsPKcRSt4listISsSaISsEE@Base 0.58
 _Z12get_str_listRKSsRSt4listISsSaISsEE@Base 0.47.2
 _Z13block_signalsPKiP10__sigset_t@Base 0.47.2
 _Z13ceph_str_hashiPKcj@Base 0.47.2
 _Z13decode_noheadI17ceph_mds_cap_itemEviRSt6vectorIT_SaIS2_EERN4ceph6buffer4list8iteratorE@Base 0.47.2
 _Z13decode_noheadI8snapid_t16pool_snap_info_tEviRSt3mapIT_T0_St4lessIS3_ESaISt4pairIKS3_S4_EEERN4ceph6buffer4list8iteratorE@Base 0.47.2
 _Z13decode_noheadI8snapid_tEviRSt6vectorIT_SaIS2_EERN4ceph6buffer4list8iteratorE@Base 0.47.2
 _Z13decode_noheadI8snapid_tS0_EviRSt3mapIT_T0_St4lessIS2_ESaISt4pairIKS2_S3_EEERN4ceph6buffer4list8iteratorE@Base 0.47.2
 _Z13decode_noheadIN14MClientRequest7ReleaseEEviRSt6vectorIT_SaIS3_EERN4ceph6buffer4list8iteratorE@Base 0.47.2
 _Z13decode_noheadiRSsRN4ceph6buffer4list8iteratorE@Base 0.47.2
 _Z13dump_open_fdsP11CephContext@Base 0.58
 _Z13encode_noheadI8snapid_t16pool_snap_info_tEvRKSt3mapIT_T0_St4lessIS3_ESaISt4pairIKS3_S4_EEERN4ceph6buffer4listEm@Base 0.58
 _Z13encode_noheadI8snapid_tEvRKSt6vectorIT_SaIS2_EERN4ceph6buffer4listE@Base 0.47.2
 _Z13encode_noheadI8snapid_tS0_EvRKSt3mapIT_T0_St4lessIS2_ESaISt4pairIKS2_S3_EEERN4ceph6buffer4listE@Base 0.47.2
 _Z13encode_noheadI9inodeno_tEvRKSt6vectorIT_SaIS2_EERN4ceph6buffer4listE@Base 0.47.2
 _Z13encode_noheadIN14MClientRequest7ReleaseEEvRKSt6vectorIT_SaIS3_EERN4ceph6buffer4listE@Base 0.47.2
 _Z13parse_networkPKcP8sockaddrPj@Base 0.47.2
 _Z13rwx_to_stringh@Base 0.47.2
 _Z13strict_strtodPKcPSs@Base 0.47.2
 _Z13strict_strtofPKcPSs@Base 0.47.2
 _Z13strict_strtolPKciPSs@Base 0.47.2
 _Z13string_to_vecRSt6vectorISsSaISsEESs@Base 0.58
 _Z14ceph_clock_nowP11CephContext@Base 0.47.2
 _Z14common_preinitRK18CephInitParameters18code_environment_ti@Base 0.47.2
 _Z14decode_decryptI14CephXAuthorizeEiP11CephContextRT_RK9CryptoKeyRN4ceph6buffer4list8iteratorERSs@Base 0.58
 _Z14decode_decryptI15RotatingSecretsEiP11CephContextRT_RK9CryptoKeyRN4ceph6buffer4list8iteratorERSs@Base 0.58
 _Z14decode_decryptI18CephXServiceTicketEiP11CephContextRT_RK9CryptoKeyRN4ceph6buffer4list8iteratorERSs@Base 0.58
 _Z14decode_decryptI19CephXAuthorizeReplyEiP11CephContextRT_RK9CryptoKeyRN4ceph6buffer4list8iteratorERSs@Base 0.58
 _Z14decode_decryptIN4ceph6buffer4listEEiP11CephContextRT_RK9CryptoKeyRNS2_8iteratorERSs@Base 0.58
 _Z14decode_messageP11CephContextR15ceph_msg_headerR15ceph_msg_footerRN4ceph6buffer4listES8_S8_@Base 0.47.2
 _Z14decode_messageP11CephContextRN4ceph6buffer4list8iteratorE@Base 0.47.2
 _Z14dout_emergencyPKc@Base 0.47.2
 _Z14dout_emergencyRKSs@Base 0.47.2
 _Z14encode_encryptI14CephXAuthorizeEiP11CephContextRKT_RK9CryptoKeyRN4ceph6buffer4listERSs@Base 0.58
 _Z14encode_encryptI18CephXChallengeBlobEiP11CephContextRKT_RK9CryptoKeyRN4ceph6buffer4listERSs@Base 0.58
 _Z14encode_encryptI19CephXAuthorizeReplyEiP11CephContextRKT_RK9CryptoKeyRN4ceph6buffer4listERSs@Base 0.58
 _Z14encode_encryptIN4ceph6buffer4listEEiP11CephContextRKT_RK9CryptoKeyRS2_RSs@Base 0.58
 _Z14encode_messageP7MessagemRN4ceph6buffer4listE@Base 0.47.2
 _Z14lockdep_lockedPKcib@Base 0.47.2
 _Z14pick_addressesP11CephContext@Base 0.47.2
 _Z14restore_sigsetPK10__sigset_t@Base 0.47.2
 _Z14strict_strtollPKciPSs@Base 0.47.2
 _Z15ceph_decode_cmsP11CephContextRN4ceph6buffer4listES4_@Base 0.58
 _Z15finish_contextsP11CephContextRSt4listIP7ContextSaIS3_EEi@Base 0.47.2
 _Z15have_local_addrP11CephContextRKSt4listI13entity_addr_tSaIS2_EEPS2_@Base 0.47.2
 _Z15pg_state_stringi@Base 0.47.2
 _Z16ceph_cap_op_namei@Base 0.47.2
 _Z16ceph_mds_op_namei@Base 0.47.2
 _Z16ceph_osd_op_namei@Base 0.47.2
 _Z16get_random_bytesPci@Base 0.47.2
 _Z16lockdep_registerPKc@Base 0.47.2
 _Z16simple_spin_lockPj@Base 0.47.2
 _Z17ceph_frag_comparejj@Base 0.47.2
 _Z17ceph_pool_op_namei@Base 0.47.2
 _Z17ceph_snap_op_namei@Base 0.47.2
 _Z17find_ip_in_subnetPK7ifaddrsPK8sockaddrj@Base 0.47.2
 _Z17lockdep_will_lockPKci@Base 0.47.2
 _Z17parse_ip_port_vecPKcRSt6vectorI13entity_addr_tSaIS2_EE@Base 0.47.2
 _Z18ceph_argparse_flagRSt6vectorIPKcSaIS1_EERN9__gnu_cxx17__normal_iteratorIPS1_S3_EEz@Base 0.47.2
 _Z18ceph_caps_for_modei@Base 0.47.2
 _Z18ceph_clock_gettimeP11CephContext@Base 0.47.2
 _Z18ceph_flags_to_modei@Base 0.47.2
 _Z18ceph_lease_op_namei@Base 0.47.2
 _Z18ceph_str_hash_namei@Base 0.47.2
 _Z18common_init_finishP11CephContext@Base 0.47.2
 _Z18git_version_to_strv@Base 0.47.2
 _Z18lockdep_dump_locksv@Base 0.47.2
 _Z18signal_mask_to_strv@Base 0.47.2
 _Z18simple_spin_unlockPj@Base 0.47.2
 _Z19ceph_mds_state_namei@Base 0.47.2
 _Z19ceph_osd_state_namei@Base 0.47.2
 _Z19ceph_str_hash_linuxPKcj@Base 0.47.2
 _Z19ceph_version_to_strv@Base 0.47.2
 _Z19cephx_decode_ticketP11CephContextP8KeyStorejR15CephXTicketBlobR22CephXServiceTicketInfo@Base 0.47.2
 _Z19find_ipv4_in_subnetPK7ifaddrsPK11sockaddr_inj@Base 0.47.2
 _Z19find_ipv6_in_subnetPK7ifaddrsPK12sockaddr_in6j@Base 0.47.2
 _Z19lockdep_will_unlockPKci@Base 0.47.2
 _Z19unblock_all_signalsP10__sigset_t@Base 0.47.2
 _Z20ceph_session_op_namei@Base 0.47.2
 _Z20generic_client_usagev@Base 0.47.2
 _Z20generic_server_usagev@Base 0.47.2
 _Z20get_process_name_cppv@Base 0.47.2
 _Z20get_rand_socket_pathv@Base 0.47.2
 _Z21ceph_argparse_withargRSt6vectorIPKcSaIS1_EERN9__gnu_cxx17__normal_iteratorIPS1_S3_EEPSsz@Base 0.47.2
 _Z21ceph_argparse_withintRSt6vectorIPKcSaIS1_EERN9__gnu_cxx17__normal_iteratorIPS1_S3_EEPiPSoz@Base 0.47.2
 _Z21ceph_entity_type_namei@Base 0.47.2
 _Z21decode_decrypt_enc_blI14CephXAuthorizeEvP11CephContextRT_9CryptoKeyRN4ceph6buffer4listERSs@Base 0.58
 _Z21decode_decrypt_enc_blI15RotatingSecretsEvP11CephContextRT_9CryptoKeyRN4ceph6buffer4listERSs@Base 0.58
 _Z21decode_decrypt_enc_blI18CephXServiceTicketEvP11CephContextRT_9CryptoKeyRN4ceph6buffer4listERSs@Base 0.58
 _Z21decode_decrypt_enc_blI19CephXAuthorizeReplyEvP11CephContextRT_9CryptoKeyRN4ceph6buffer4listERSs@Base 0.58
 _Z21decode_decrypt_enc_blI22CephXServiceTicketInfoEvP11CephContextRT_9CryptoKeyRN4ceph6buffer4listERSs@Base 0.58
 _Z21decode_decrypt_enc_blIN4ceph6buffer4listEEvP11CephContextRT_9CryptoKeyRS2_RSs@Base 0.58
 _Z21encode_encrypt_enc_blI14CephXAuthorizeEvP11CephContextRKT_RK9CryptoKeyRN4ceph6buffer4listERSs@Base 0.58
 _Z21encode_encrypt_enc_blI18CephXChallengeBlobEvP11CephContextRKT_RK9CryptoKeyRN4ceph6buffer4listERSs@Base 0.58
 _Z21encode_encrypt_enc_blI19CephXAuthorizeReplyEvP11CephContextRKT_RK9CryptoKeyRN4ceph6buffer4listERSs@Base 0.58
 _Z21encode_encrypt_enc_blI22CephXServiceTicketInfoEvP11CephContextRKT_RK9CryptoKeyRN4ceph6buffer4listERSs@Base 0.58
 _Z21encode_encrypt_enc_blIN4ceph6buffer4listEEvP11CephContextRKT_RK9CryptoKeyRS2_RSs@Base 0.58
 _Z21get_block_device_sizeiPl@Base 0.47.2
 _Z21get_mdsmap_compat_setv@Base 0.47.2
 _Z21intrusive_ptr_add_refP16RefCountedObject@Base 0.58
 _Z21intrusive_ptr_releaseP16RefCountedObject@Base 0.58
 _Z21pretty_version_to_strv@Base 0.47.2
 _Z22ceph_str_hash_rjenkinsPKcj@Base 0.47.2
 _Z22string_to_syslog_levelSs@Base 0.59
 _Z23ceph_argparse_withfloatRSt6vectorIPKcSaIS1_EERN9__gnu_cxx17__normal_iteratorIPS1_S3_EEPfPSoz@Base 0.48
 _Z23cephx_verify_authorizerP11CephContextP8KeyStoreRN4ceph6buffer4list8iteratorER22CephXServiceTicketInfoRS5_@Base 0.47.2
 _Z23get_auth_client_handlerP11CephContextiP15RotatingKeyRing@Base 0.47.2
 _Z23str_to_ceph_entity_typePKc@Base 0.47.2
 _Z24ceph_argparse_early_argsRSt6vectorIPKcSaIS1_EEjiPSsS5_@Base 0.47.2
 _Z24ceph_resolve_file_searchRKSsRSs@Base 0.47.2
 _Z24get_auth_session_handlerP11CephContexti9CryptoKeym@Base 0.58
 _Z25ceph_argparse_binary_flagRSt6vectorIPKcSaIS1_EERN9__gnu_cxx17__normal_iteratorIPS1_S3_EEPiPSoz@Base 0.47.2
 _Z25ceph_argparse_double_dashRSt6vectorIPKcSaIS1_EERN9__gnu_cxx17__normal_iteratorIPS1_S3_EE@Base 0.47.2
 _Z25ceph_file_layout_is_validPK16ceph_file_layout@Base 0.47.2
 _Z25client_flush_set_callbackPvPN12ObjectCacher9ObjectSetE@Base 0.47.2
 _Z25clog_type_to_syslog_level9clog_type@Base 0.59
 _Z25string_to_syslog_facilitySs@Base 0.59
 _Z26ceph_argparse_withlonglongRSt6vectorIPKcSaIS1_EERN9__gnu_cxx17__normal_iteratorIPS1_S3_EEPxPSoz@Base 0.47.2
 _Z26get_mdsmap_compat_set_basev@Base 0.47.2
 _Z27complain_about_parse_errorsP11CephContextPSt5dequeISsSaISsEE@Base 0.47.2
 _Z27cpu_profiler_handle_commandRKSt6vectorISsSaISsEERSo@Base 0.58
 _Z29lockdep_register_ceph_contextP11CephContext@Base 0.47.2
 _Z31cephx_build_service_ticket_blobP11CephContextR20CephXSessionAuthInfoR15CephXTicketBlob@Base 0.47.2
 _Z31lockdep_unregister_ceph_contextP11CephContext@Base 0.58
 _Z32cephx_build_service_ticket_replyP11CephContextR9CryptoKeySt6vectorI20CephXSessionAuthInfoSaIS4_EEbS2_RN4ceph6buffer4listE@Base 0.47.2
 _Z34cephx_calc_client_server_challengeP11CephContextR9CryptoKeymmPmRSs@Base 0.58
 _Z4dumpRK15ceph_dir_layoutPN4ceph9FormatterE@Base 0.58
 _Z4dumpRK16ceph_file_layoutPN4ceph9FormatterE@Base 0.58
 _Z6decodeI10EntityName10EntityAuthEvRSt3mapIT_T0_St4lessIS3_ESaISt4pairIKS3_S4_EEERN4ceph6buffer4list8iteratorE@Base 0.47.2
 _Z6decodeI10osd_info_tEvRSt6vectorIT_SaIS2_EERN4ceph6buffer4list8iteratorE@Base 0.47.2
 _Z6decodeI10vinodeno_tEvRSt3setIT_St4lessIS2_ESaIS2_EERN4ceph6buffer4list8iteratorE@Base 0.47.2
 _Z6decodeI10vinodeno_tN15MMDSCacheRejoin11slave_reqidEEvRSt3mapIT_T0_St4lessIS4_ESaISt4pairIKS4_S5_EEERN4ceph6buffer4list8iteratorE@Base 0.47.2
 _Z6decodeI10vinodeno_tN15MMDSCacheRejoin12inode_strongEEvRSt3mapIT_T0_St4lessIS4_ESaISt4pairIKS4_S5_EEERN4ceph6buffer4list8iteratorE@Base 0.47.2
 _Z6decodeI10vinodeno_tSt3mapIiN15MMDSCacheRejoin11slave_reqidESt4lessIiESaISt4pairIKiS3_EEEEvRS1_IT_T0_S4_ISB_ESaIS6_IKSB_SC_EEERN4ceph6buffer4list8iteratorE@Base 0.47.2
 _Z6decodeI11metareqid_tEvRSt6vectorIT_SaIS2_EERN4ceph6buffer4list8iteratorE@Base 0.47.2
 _Z6decodeI11osd_xinfo_tEvRSt6vectorIT_SaIS2_EERN4ceph6buffer4list8iteratorE@Base 0.58
 _Z6decodeI13entity_addr_t7utime_tEvRN9__gnu_cxx8hash_mapIT_T0_NS2_4hashIS4_EESt8equal_toIS4_ESaIS5_EEERN4ceph6buffer4list8iteratorE@Base 0.47.2
 _Z6decodeI13entity_addr_t7utime_tEvRSt3mapIT_T0_St4lessIS3_ESaISt4pairIKS3_S4_EEERN4ceph6buffer4list8iteratorE@Base 0.47.2
 _Z6decodeI13entity_addr_tEvRSt6vectorINSt3tr110shared_ptrIT_EESaIS5_EERN4ceph6buffer4list8iteratorE@Base 0.47.2
 _Z6decodeI13entity_addr_tEvRSt6vectorIT_SaIS2_EERN4ceph6buffer4list8iteratorE@Base 0.47.2
 _Z6decodeI13entity_inst_tdEvRSt3mapIT_T0_St4lessIS2_ESaISt4pairIKS2_S3_EEERN4ceph6buffer4list8iteratorE@Base 0.58
 _Z6decodeI13entity_name_t12watch_info_tEvRSt3mapIT_T0_St4lessIS3_ESaISt4pairIKS3_S4_EEERN4ceph6buffer4list8iteratorE@Base 0.47.2
 _Z6decodeI14pg_log_entry_tEvRSt4listIT_SaIS2_EERN4ceph6buffer4list8iteratorE@Base 0.47.2
 _Z6decodeI18MDSCacheObjectInfoEvRSt6vectorIT_SaIS2_EERN4ceph6buffer4list8iteratorE@Base 0.47.2
 _Z6decodeI4pg_t10eversion_tEvRSt3mapIT_T0_St4lessIS3_ESaISt4pairIKS3_S4_EEERN4ceph6buffer4list8iteratorE@Base 0.47.2
 _Z6decodeI4pg_t10pg_query_tEvRSt3mapIT_T0_St4lessIS3_ESaISt4pairIKS3_S4_EEERN4ceph6buffer4list8iteratorE@Base 0.47.2
 _Z6decodeI4pg_t11pg_create_tEvRSt3mapIT_T0_St4lessIS3_ESaISt4pairIKS3_S4_EEERN4ceph6buffer4list8iteratorE@Base 0.47.2
 _Z6decodeI4pg_t9pg_stat_tEvRSt3mapIT_T0_St4lessIS3_ESaISt4pairIKS3_S4_EEERN4ceph6buffer4list8iteratorE@Base 0.47.2
 _Z6decodeI4pg_tEvRSt6vectorIT_SaIS2_EERN4ceph6buffer4list8iteratorE@Base 0.47.2
 _Z6decodeI4pg_tSt6vectorIiSaIiEEEvRSt3mapIT_T0_St4lessIS5_ESaISt4pairIKS5_S6_EEERN4ceph6buffer4list8iteratorE@Base 0.47.2
 _Z6decodeI6uuid_dEvRSt6vectorIT_SaIS2_EERN4ceph6buffer4list8iteratorE@Base 0.47.2
 _Z6decodeI8LogEntryEvRSt5dequeIT_SaIS2_EERN4ceph6buffer4list8iteratorE@Base 0.47.2
 _Z6decodeI8client_t13entity_inst_tEvRSt3mapIT_T0_St4lessIS3_ESaISt4pairIKS3_S4_EEERN4ceph6buffer4list8iteratorE@Base 0.47.2
 _Z6decodeI8client_t24client_writeable_range_tEvRSt3mapIT_T0_St4lessIS3_ESaISt4pairIKS3_S4_EEERN4ceph6buffer4list8iteratorE@Base 0.58
 _Z6decodeI8client_tN24client_writeable_range_t12byte_range_tEEvRSt3mapIT_T0_St4lessIS4_ESaISt4pairIKS4_S5_EEERN4ceph6buffer4list8iteratorE@Base 0.58
 _Z6decodeI8snapid_t12interval_setImEEvRSt3mapIT_T0_St4lessIS4_ESaISt4pairIKS4_S5_EEERN4ceph6buffer4list8iteratorE@Base 0.47.2
 _Z6decodeI8snapid_t16pool_snap_info_tEvRSt3mapIT_T0_St4lessIS3_ESaISt4pairIKS3_S4_EEERN4ceph6buffer4list8iteratorE@Base 0.47.2
 _Z6decodeI8snapid_tEvRSt3setIT_St4lessIS2_ESaIS2_EERN4ceph6buffer4list8iteratorE@Base 0.47.2
 _Z6decodeI8snapid_tEvRSt6vectorIT_SaIS2_EERN4ceph6buffer4list8iteratorE@Base 0.47.2
 _Z6decodeI8snapid_tS0_EvRSt3mapIT_T0_St4lessIS2_ESaISt4pairIKS2_S3_EEERN4ceph6buffer4list8iteratorE@Base 0.47.2
 _Z6decodeI8snapid_tmEvRSt3mapIT_T0_St4lessIS2_ESaISt4pairIKS2_S3_EEERN4ceph6buffer4list8iteratorE@Base 0.47.2
 _Z6decodeI9dirfrag_tEvRSt3setIT_St4lessIS2_ESaIS2_EERN4ceph6buffer4list8iteratorE@Base 0.47.2
 _Z6decodeI9dirfrag_tEvRSt4listIT_SaIS2_EERN4ceph6buffer4list8iteratorE@Base 0.47.2
 _Z6decodeI9dirfrag_tEvRSt6vectorIT_SaIS2_EERN4ceph6buffer4list8iteratorE@Base 0.47.2
 _Z6decodeI9dirfrag_tN12MCacheExpire5realmEEvRSt3mapIT_T0_St4lessIS4_ESaISt4pairIKS4_S5_EEERN4ceph6buffer4list8iteratorE@Base 0.47.2
 _Z6decodeI9dirfrag_tN15MMDSCacheRejoin14dirfrag_strongEEvRSt3mapIT_T0_St4lessIS4_ESaISt4pairIKS4_S5_EEERN4ceph6buffer4list8iteratorE@Base 0.47.2
 _Z6decodeI9dirfrag_tSt3mapI13string_snap_tN15MMDSCacheRejoin11slave_reqidESt4lessIS2_ESaISt4pairIKS2_S4_EEEEvRS1_IT_T0_S5_ISC_ESaIS7_IKSC_SD_EEERN4ceph6buffer4list8iteratorE@Base 0.47.2
 _Z6decodeI9dirfrag_tSt3mapI13string_snap_tN15MMDSCacheRejoin9dn_strongESt4lessIS2_ESaISt4pairIKS2_S4_EEEEvRS1_IT_T0_S5_ISC_ESaIS7_IKSC_SD_EEERN4ceph6buffer4list8iteratorE@Base 0.47.2
 _Z6decodeI9dirfrag_tSt6vectorIS0_SaIS0_EEEvRSt3mapIT_T0_St4lessIS5_ESaISt4pairIKS5_S6_EEERN4ceph6buffer4list8iteratorE@Base 0.47.2
 _Z6decodeI9hobject_t12interval_setImEEvRSt3mapIT_T0_St4lessIS4_ESaISt4pairIKS4_S5_EEERN4ceph6buffer4list8iteratorE@Base 0.47.2
 _Z6decodeI9hobject_tN12pg_missing_t4itemEEvRSt3mapIT_T0_St4lessIS4_ESaISt4pairIKS4_S5_EEERN4ceph6buffer4list8iteratorE@Base 0.47.2
 _Z6decodeI9hobject_tN8ScrubMap6objectEEvRSt3mapIT_T0_St4lessIS4_ESaISt4pairIKS4_S5_EEERN4ceph6buffer4list8iteratorE@Base 0.47.2
 _Z6decodeI9inodeno_t15cap_reconnect_tEvRSt3mapIT_T0_St4lessIS3_ESaISt4pairIKS3_S4_EEERN4ceph6buffer4list8iteratorE@Base 0.47.2
 _Z6decodeI9inodeno_t19old_cap_reconnect_tEvRSt3mapIT_T0_St4lessIS3_ESaISt4pairIKS3_S4_EEERN4ceph6buffer4list8iteratorE@Base 0.47.2
 _Z6decodeI9inodeno_t8filepathEvRSt3mapIT_T0_St4lessIS3_ESaISt4pairIKS3_S4_EEERN4ceph6buffer4list8iteratorE@Base 0.47.2
 _Z6decodeI9inodeno_tEvRT_RN4ceph6buffer4listE@Base 0.58
 _Z6decodeI9inodeno_tN15MMDSCacheRejoin8lock_blsEEvRSt3mapIT_T0_St4lessIS4_ESaISt4pairIKS4_S5_EEERN4ceph6buffer4list8iteratorE@Base 0.47.2
 _Z6decodeI9inodeno_tS0_EvRSt3mapIT_T0_St4lessIS2_ESaISt4pairIKS2_S3_EEERN4ceph6buffer4list8iteratorE@Base 0.58
 _Z6decodeI9inodeno_tSt3mapI13string_snap_tN15MMDSCacheRejoin7dn_weakESt4lessIS2_ESaISt4pairIKS2_S4_EEEEvRS1_IT_T0_S5_ISC_ESaIS7_IKSC_SD_EEERN4ceph6buffer4list8iteratorE@Base 0.47.2
 _Z6decodeI9inodeno_tSt3mapI8client_t22ceph_mds_cap_reconnectSt4lessIS2_ESaISt4pairIKS2_S3_EEEEvRS1_IT_T0_S4_ISB_ESaIS6_IKSB_SC_EEERN4ceph6buffer4list8iteratorE@Base 0.47.2
 _Z6decodeIN4ceph6buffer4listEEvRSt4listIT_SaIS4_EERNS2_8iteratorE@Base 0.47.2
 _Z6decodeISs11pool_stat_tEvRSt3mapIT_T0_St4lessIS2_ESaISt4pairIKS2_S3_EEERN4ceph6buffer4list8iteratorE@Base 0.47.2
 _Z6decodeISs17object_stat_sum_tEvRSt3mapIT_T0_St4lessIS2_ESaISt4pairIKS2_S3_EEERN4ceph6buffer4list8iteratorE@Base 0.47.2
 _Z6decodeISs23ceph_mon_subscribe_itemEvRSt3mapIT_T0_St4lessIS2_ESaISt4pairIKS2_S3_EEERN4ceph6buffer4list8iteratorE@Base 0.47.2
 _Z6decodeISs27ceph_mon_subscribe_item_oldEvRSt3mapIT_T0_St4lessIS2_ESaISt4pairIKS2_S3_EEERN4ceph6buffer4list8iteratorE@Base 0.47.2
 _Z6decodeISsEvRSt4listIT_SaIS1_EERN4ceph6buffer4list8iteratorE@Base 0.47.2
 _Z6decodeISsEvRSt6vectorIT_SaIS1_EERN4ceph6buffer4list8iteratorE@Base 0.47.2
 _Z6decodeISsN4ceph6buffer3ptrEEvRSt3mapIT_T0_St4lessIS4_ESaISt4pairIKS4_S5_EEERNS1_4list8iteratorE@Base 0.47.2
 _Z6decodeISsN4ceph6buffer4listEEvRSt3mapIT_T0_St4lessIS4_ESaISt4pairIKS4_S5_EEERNS2_8iteratorE@Base 0.47.2
 _Z6decodeISsSt3mapImN4ceph6buffer4listESt4lessImESaISt4pairIKmS3_EEEEvRS0_IT_T0_S4_ISB_ESaIS6_IKSB_SC_EEERNS3_8iteratorE@Base 0.47.2
 _Z6decodeISt4pairI8object_tSsEEvRSt4listIT_SaIS4_EERN4ceph6buffer4list8iteratorE@Base 0.47.2
 _Z6decodeISt4pairIm13entity_name_tE12watch_info_tEvRSt3mapIT_T0_St4lessIS5_ESaIS0_IKS5_S6_EEERN4ceph6buffer4list8iteratorE@Base 0.59
 _Z6decodeIhEvRSt6vectorIT_SaIS1_EERN4ceph6buffer4list8iteratorE@Base 0.47.2
 _Z6decodeIi11osd_xinfo_tEvRSt3mapIT_T0_St4lessIS2_ESaISt4pairIKS2_S3_EEERN4ceph6buffer4list8iteratorE@Base 0.58
 _Z6decodeIi13entity_addr_tEvRSt3mapIT_T0_St4lessIS2_ESaISt4pairIKS2_S3_EEERN4ceph6buffer4list8iteratorE@Base 0.47.2
 _Z6decodeIi6uuid_dEvRSt3mapIT_T0_St4lessIS2_ESaISt4pairIKS2_S3_EEERN4ceph6buffer4list8iteratorE@Base 0.47.2
 _Z6decodeIiEvRSt3setIT_St4lessIS1_ESaIS1_EERN4ceph6buffer4list8iteratorE@Base 0.47.2
 _Z6decodeIiEvRSt6vectorIT_SaIS1_EERN4ceph6buffer4list8iteratorE@Base 0.47.2
 _Z6decodeIiSt4pairIjjEEvRSt3mapIT_T0_St4lessIS3_ESaIS0_IKS3_S4_EEERN4ceph6buffer4list8iteratorE@Base 0.47.2
 _Z6decodeIiSt6vectorI8snapid_tSaIS1_EEEvRSt3mapIT_T0_St4lessIS5_ESaISt4pairIKS5_S6_EEERN4ceph6buffer4list8iteratorE@Base 0.47.2
 _Z6decodeIifEvRSt3mapIT_T0_St4lessIS1_ESaISt4pairIKS1_S2_EEERN4ceph6buffer4list8iteratorE@Base 0.47.2
 _Z6decodeIihEvRSt3mapIT_T0_St4lessIS1_ESaISt4pairIKS1_S2_EEERN4ceph6buffer4list8iteratorE@Base 0.47.2
 _Z6decodeIijEvRSt3mapIT_T0_St4lessIS1_ESaISt4pairIKS1_S2_EEERN4ceph6buffer4list8iteratorE@Base 0.47.2
 _Z6decodeIj13pg_interval_tEvRSt3mapIT_T0_St4lessIS2_ESaISt4pairIKS2_S3_EEERN4ceph6buffer4list8iteratorE@Base 0.47.2
 _Z6decodeIjEvRSt6vectorIT_SaIS1_EERN4ceph6buffer4list8iteratorE@Base 0.47.2
 _Z6decodeIjN4ceph6buffer4listEEvRSt3mapIT_T0_St4lessIS4_ESaISt4pairIKS4_S5_EEERNS2_8iteratorE@Base 0.47.2
 _Z6decodeIl9pg_pool_tEvRSt3mapIT_T0_St4lessIS2_ESaISt4pairIKS2_S3_EEERN4ceph6buffer4list8iteratorE@Base 0.47.2
 _Z6decodeIlEvRSt3setIT_St4lessIS1_ESaIS1_EERN4ceph6buffer4list8iteratorE@Base 0.47.2
 _Z6decodeIlSsEvRSt3mapIT_T0_St4lessIS1_ESaISt4pairIKS1_S2_EEERN4ceph6buffer4list8iteratorE@Base 0.47.2
 _Z6decodeImN4ceph6buffer4listEEvRSt3mapIT_T0_St4lessIS4_ESaISt4pairIKS4_S5_EEERNS2_8iteratorE@Base 0.47.2
 _Z6decodeImN6MDSMap10mds_info_tEEvRSt3mapIT_T0_St4lessIS3_ESaISt4pairIKS3_S4_EEERN4ceph6buffer4list8iteratorE@Base 0.47.2
 _Z6decodeImSsEvRSt3mapIT_T0_St4lessIS1_ESaISt4pairIKS1_S2_EEERN4ceph6buffer4list8iteratorE@Base 0.47.2
 _Z6decodeImmEvRSt3mapIT_T0_St4lessIS1_ESaISt4pairIKS1_S2_EEERN4ceph6buffer4list8iteratorE@Base 0.47.2
 _Z6decodeRN4ceph6buffer4listERNS1_8iteratorE@Base 0.47.2
 _Z6decodeRSsRN4ceph6buffer4list8iteratorE@Base 0.47.2
 _Z6decodeRbRN4ceph6buffer4list8iteratorE@Base 0.47.2
 _Z6decodeRjRN4ceph6buffer4list8iteratorE@Base 0.47.2
 _Z6decodeRtRN4ceph6buffer4list8iteratorE@Base 0.58
 _Z6encodeI10osd_info_tEvRKSt6vectorIT_SaIS2_EERN4ceph6buffer4listE@Base 0.47.2
 _Z6encodeI10vinodeno_tEvRKSt3setIT_St4lessIS2_ESaIS2_EERN4ceph6buffer4listE@Base 0.47.2
 _Z6encodeI10vinodeno_tN15MMDSCacheRejoin11slave_reqidEEvRKSt3mapIT_T0_St4lessIS4_ESaISt4pairIKS4_S5_EEERN4ceph6buffer4listE@Base 0.47.2
 _Z6encodeI10vinodeno_tN15MMDSCacheRejoin12inode_strongEEvRKSt3mapIT_T0_St4lessIS4_ESaISt4pairIKS4_S5_EEERN4ceph6buffer4listE@Base 0.47.2
 _Z6encodeI10vinodeno_tSt3mapIiN15MMDSCacheRejoin11slave_reqidESt4lessIiESaISt4pairIKiS3_EEEEvRKS1_IT_T0_S4_ISB_ESaIS6_IKSB_SC_EEERN4ceph6buffer4listE@Base 0.47.2
 _Z6encodeI11metareqid_tEvRKSt6vectorIT_SaIS2_EERN4ceph6buffer4listE@Base 0.47.2
 _Z6encodeI11osd_xinfo_tEvRKSt6vectorIT_SaIS2_EERN4ceph6buffer4listE@Base 0.58
 _Z6encodeI13entity_addr_t7utime_tEvRKN9__gnu_cxx8hash_mapIT_T0_NS2_4hashIS4_EESt8equal_toIS4_ESaIS5_EEERN4ceph6buffer4listE@Base 0.47.2
 _Z6encodeI13entity_addr_t7utime_tEvRKSt3mapIT_T0_St4lessIS3_ESaISt4pairIKS3_S4_EEERN4ceph6buffer4listE@Base 0.47.2
 _Z6encodeI13entity_addr_tEvRKSt6vectorINSt3tr110shared_ptrIT_EESaIS5_EERN4ceph6buffer4listE@Base 0.47.2
 _Z6encodeI13entity_addr_tEvRKSt6vectorIT_SaIS2_EERN4ceph6buffer4listE@Base 0.47.2
 _Z6encodeI13entity_inst_tdEvRKSt3mapIT_T0_St4lessIS2_ESaISt4pairIKS2_S3_EEERN4ceph6buffer4listE@Base 0.58
 _Z6encodeI13entity_name_t12watch_info_tEvRKSt3mapIT_T0_St4lessIS3_ESaISt4pairIKS3_S4_EEERN4ceph6buffer4listE@Base 0.47.2
 _Z6encodeI14pg_log_entry_tEvRKSt4listIT_SaIS2_EERN4ceph6buffer4listE@Base 0.47.2
 _Z6encodeI18MDSCacheObjectInfoEvRKSt6vectorIT_SaIS2_EERN4ceph6buffer4listE@Base 0.47.2
 _Z6encodeI4pg_t10eversion_tEvRKSt3mapIT_T0_St4lessIS3_ESaISt4pairIKS3_S4_EEERN4ceph6buffer4listE@Base 0.47.2
 _Z6encodeI4pg_t10pg_query_tEvRKSt3mapIT_T0_St4lessIS3_ESaISt4pairIKS3_S4_EEERN4ceph6buffer4listEm@Base 0.58
 _Z6encodeI4pg_t11pg_create_tEvRKSt3mapIT_T0_St4lessIS3_ESaISt4pairIKS3_S4_EEERN4ceph6buffer4listE@Base 0.47.2
 _Z6encodeI4pg_t9pg_stat_tEvRKSt3mapIT_T0_St4lessIS3_ESaISt4pairIKS3_S4_EEERN4ceph6buffer4listE@Base 0.47.2
 _Z6encodeI4pg_tEvRKSt6vectorIT_SaIS2_EERN4ceph6buffer4listE@Base 0.47.2
 _Z6encodeI4pg_tSt6vectorIiSaIiEEEvRKSt3mapIT_T0_St4lessIS5_ESaISt4pairIKS5_S6_EEERN4ceph6buffer4listE@Base 0.47.2
 _Z6encodeI6uuid_dEvRKSt6vectorIT_SaIS2_EERN4ceph6buffer4listE@Base 0.47.2
 _Z6encodeI8LogEntryEvRKSt5dequeIT_SaIS2_EERN4ceph6buffer4listE@Base 0.47.2
 _Z6encodeI8client_t13entity_inst_tEvRKSt3mapIT_T0_St4lessIS3_ESaISt4pairIKS3_S4_EEERN4ceph6buffer4listE@Base 0.47.2
 _Z6encodeI8client_t24client_writeable_range_tEvRKSt3mapIT_T0_St4lessIS3_ESaISt4pairIKS3_S4_EEERN4ceph6buffer4listE@Base 0.58
 _Z6encodeI8snapid_t12interval_setImEEvRKSt3mapIT_T0_St4lessIS4_ESaISt4pairIKS4_S5_EEERN4ceph6buffer4listE@Base 0.47.2
 _Z6encodeI8snapid_t16pool_snap_info_tEvRKSt3mapIT_T0_St4lessIS3_ESaISt4pairIKS3_S4_EEERN4ceph6buffer4listEm@Base 0.58
 _Z6encodeI8snapid_tEvRKSt3setIT_St4lessIS2_ESaIS2_EERN4ceph6buffer4listE@Base 0.58
 _Z6encodeI8snapid_tEvRKSt6vectorIT_SaIS2_EERN4ceph6buffer4listE@Base 0.47.2
 _Z6encodeI8snapid_tS0_EvRKSt3mapIT_T0_St4lessIS2_ESaISt4pairIKS2_S3_EEERN4ceph6buffer4listE@Base 0.47.2
 _Z6encodeI8snapid_tmEvRKSt3mapIT_T0_St4lessIS2_ESaISt4pairIKS2_S3_EEERN4ceph6buffer4listE@Base 0.47.2
 _Z6encodeI9dirfrag_tEvRKSt3setIT_St4lessIS2_ESaIS2_EERN4ceph6buffer4listE@Base 0.47.2
 _Z6encodeI9dirfrag_tEvRKSt4listIT_SaIS2_EERN4ceph6buffer4listE@Base 0.47.2
 _Z6encodeI9dirfrag_tEvRKSt6vectorIT_SaIS2_EERN4ceph6buffer4listE@Base 0.47.2
 _Z6encodeI9dirfrag_tN12MCacheExpire5realmEEvRKSt3mapIT_T0_St4lessIS4_ESaISt4pairIKS4_S5_EEERN4ceph6buffer4listE@Base 0.47.2
 _Z6encodeI9dirfrag_tN15MMDSCacheRejoin14dirfrag_strongEEvRKSt3mapIT_T0_St4lessIS4_ESaISt4pairIKS4_S5_EEERN4ceph6buffer4listE@Base 0.47.2
 _Z6encodeI9dirfrag_tSt3mapI13string_snap_tN15MMDSCacheRejoin11slave_reqidESt4lessIS2_ESaISt4pairIKS2_S4_EEEEvRKS1_IT_T0_S5_ISC_ESaIS7_IKSC_SD_EEERN4ceph6buffer4listE@Base 0.47.2
 _Z6encodeI9dirfrag_tSt3mapI13string_snap_tN15MMDSCacheRejoin9dn_strongESt4lessIS2_ESaISt4pairIKS2_S4_EEEEvRKS1_IT_T0_S5_ISC_ESaIS7_IKSC_SD_EEERN4ceph6buffer4listE@Base 0.47.2
 _Z6encodeI9dirfrag_tSt6vectorIS0_SaIS0_EEEvRKSt3mapIT_T0_St4lessIS5_ESaISt4pairIKS5_S6_EEERN4ceph6buffer4listE@Base 0.47.2
 _Z6encodeI9hobject_t12interval_setImEEvRKSt3mapIT_T0_St4lessIS4_ESaISt4pairIKS4_S5_EEERN4ceph6buffer4listE@Base 0.47.2
 _Z6encodeI9hobject_tN12pg_missing_t4itemEEvRKSt3mapIT_T0_St4lessIS4_ESaISt4pairIKS4_S5_EEERN4ceph6buffer4listE@Base 0.47.2
 _Z6encodeI9hobject_tN8ScrubMap6objectEEvRKSt3mapIT_T0_St4lessIS4_ESaISt4pairIKS4_S5_EEERN4ceph6buffer4listE@Base 0.47.2
 _Z6encodeI9inodeno_t15cap_reconnect_tEvRKSt3mapIT_T0_St4lessIS3_ESaISt4pairIKS3_S4_EEERN4ceph6buffer4listE@Base 0.47.2
 _Z6encodeI9inodeno_t19old_cap_reconnect_tEvRKSt3mapIT_T0_St4lessIS3_ESaISt4pairIKS3_S4_EEERN4ceph6buffer4listE@Base 0.47.2
 _Z6encodeI9inodeno_tN15MMDSCacheRejoin8lock_blsEEvRKSt3mapIT_T0_St4lessIS4_ESaISt4pairIKS4_S5_EEERN4ceph6buffer4listE@Base 0.47.2
 _Z6encodeI9inodeno_tS0_EvRKSt3mapIT_T0_St4lessIS2_ESaISt4pairIKS2_S3_EEERN4ceph6buffer4listE@Base 0.58
 _Z6encodeI9inodeno_tSt3mapI13string_snap_tN15MMDSCacheRejoin7dn_weakESt4lessIS2_ESaISt4pairIKS2_S4_EEEEvRKS1_IT_T0_S5_ISC_ESaIS7_IKSC_SD_EEERN4ceph6buffer4listE@Base 0.47.2
 _Z6encodeIN4ceph6buffer4listEEvRKSt4listIT_SaIS4_EERS2_@Base 0.47.2
 _Z6encodeISs11pool_stat_tEvRKSt3mapIT_T0_St4lessIS2_ESaISt4pairIKS2_S3_EEERN4ceph6buffer4listEm@Base 0.58
 _Z6encodeISs17object_stat_sum_tEvRKSt3mapIT_T0_St4lessIS2_ESaISt4pairIKS2_S3_EEERN4ceph6buffer4listE@Base 0.47.2
 _Z6encodeISs23ceph_mon_subscribe_itemEvRKSt3mapIT_T0_St4lessIS2_ESaISt4pairIKS2_S3_EEERN4ceph6buffer4listE@Base 0.47.2
 _Z6encodeISs27ceph_mon_subscribe_item_oldEvRKSt3mapIT_T0_St4lessIS2_ESaISt4pairIKS2_S3_EEERN4ceph6buffer4listE@Base 0.47.2
 _Z6encodeISsEvRKSt4listIT_SaIS1_EERN4ceph6buffer4listE@Base 0.47.2
 _Z6encodeISsEvRKSt6vectorIT_SaIS1_EERN4ceph6buffer4listE@Base 0.47.2
 _Z6encodeISsN4ceph6buffer3ptrEEvRKSt3mapIT_T0_St4lessIS4_ESaISt4pairIKS4_S5_EEERNS1_4listE@Base 0.47.2
 _Z6encodeISsN4ceph6buffer4listEEvRKSt3mapIT_T0_St4lessIS4_ESaISt4pairIKS4_S5_EEERS2_@Base 0.47.2
 _Z6encodeISsSt3mapImN4ceph6buffer4listESt4lessImESaISt4pairIKmS3_EEEEvRKS0_IT_T0_S4_ISB_ESaIS6_IKSB_SC_EEERS3_@Base 0.47.2
 _Z6encodeISt4pairIm13entity_name_tE12watch_info_tEvRKSt3mapIT_T0_St4lessIS5_ESaIS0_IKS5_S6_EEERN4ceph6buffer4listE@Base 0.59
 _Z6encodeIhEvRKSt6vectorIT_SaIS1_EERN4ceph6buffer4listE@Base 0.47.2
 _Z6encodeIi11osd_xinfo_tEvRKSt3mapIT_T0_St4lessIS2_ESaISt4pairIKS2_S3_EEERN4ceph6buffer4listE@Base 0.58
 _Z6encodeIi13entity_addr_tEvRKSt3mapIT_T0_St4lessIS2_ESaISt4pairIKS2_S3_EEERN4ceph6buffer4listE@Base 0.47.2
 _Z6encodeIi6uuid_dEvRKSt3mapIT_T0_St4lessIS2_ESaISt4pairIKS2_S3_EEERN4ceph6buffer4listE@Base 0.47.2
 _Z6encodeIiEvRKSt3setIT_St4lessIS1_ESaIS1_EERN4ceph6buffer4listE@Base 0.47.2
 _Z6encodeIiEvRKSt6vectorIT_SaIS1_EERN4ceph6buffer4listE@Base 0.47.2
 _Z6encodeIiSt4pairIjjEEvRKSt3mapIT_T0_St4lessIS3_ESaIS0_IKS3_S4_EEERN4ceph6buffer4listE@Base 0.47.2
 _Z6encodeIiSt6vectorI8snapid_tSaIS1_EEEvRKSt3mapIT_T0_St4lessIS5_ESaISt4pairIKS5_S6_EEERN4ceph6buffer4listE@Base 0.47.2
 _Z6encodeIifEvRKSt3mapIT_T0_St4lessIS1_ESaISt4pairIKS1_S2_EEERN4ceph6buffer4listE@Base 0.47.2
 _Z6encodeIihEvRKSt3mapIT_T0_St4lessIS1_ESaISt4pairIKS1_S2_EEERN4ceph6buffer4listE@Base 0.47.2
 _Z6encodeIiiEvRKSt3mapIT_T0_St4lessIS1_ESaISt4pairIKS1_S2_EEERN4ceph6buffer4listE@Base 0.58
 _Z6encodeIijEvRKSt3mapIT_T0_St4lessIS1_ESaISt4pairIKS1_S2_EEERN4ceph6buffer4listE@Base 0.47.2
 _Z6encodeIimEvRKSt3mapIT_T0_St4lessIS1_ESaISt4pairIKS1_S2_EEERN4ceph6buffer4listE@Base 0.58
 _Z6encodeIj13pg_interval_tEvRKSt3mapIT_T0_St4lessIS2_ESaISt4pairIKS2_S3_EEERN4ceph6buffer4listE@Base 0.47.2
 _Z6encodeIjEvRKSt4listIT_SaIS1_EERN4ceph6buffer4listE@Base 0.58
 _Z6encodeIjEvRKSt6vectorIT_SaIS1_EERN4ceph6buffer4listE@Base 0.47.2
 _Z6encodeIjN4ceph6buffer4listEEvRKSt3mapIT_T0_St4lessIS4_ESaISt4pairIKS4_S5_EEERS2_@Base 0.47.2
 _Z6encodeIl9pg_pool_tEvRKSt3mapIT_T0_St4lessIS2_ESaISt4pairIKS2_S3_EEERN4ceph6buffer4listEm@Base 0.47.2
 _Z6encodeIlEvRKSt3setIT_St4lessIS1_ESaIS1_EERN4ceph6buffer4listE@Base 0.47.2
 _Z6encodeIlSsEvRKSt3mapIT_T0_St4lessIS1_ESaISt4pairIKS1_S2_EEERN4ceph6buffer4listE@Base 0.47.2
 _Z6encodeImEvRKSt3setIT_St4lessIS1_ESaIS1_EERN4ceph6buffer4listE@Base 0.58
 _Z6encodeImN4ceph6buffer4listEEvRKSt3mapIT_T0_St4lessIS4_ESaISt4pairIKS4_S5_EEERS2_@Base 0.47.2
 _Z6encodeImN6MDSMap10mds_info_tEEvRKSt3mapIT_T0_St4lessIS3_ESaISt4pairIKS3_S4_EEERN4ceph6buffer4listEm@Base 0.58
 _Z6encodeImSsEvRKSt3mapIT_T0_St4lessIS1_ESaISt4pairIKS1_S2_EEERN4ceph6buffer4listE@Base 0.47.2
 _Z6encodeImmEvRKSt3mapIT_T0_St4lessIS1_ESaISt4pairIKS1_S2_EEERN4ceph6buffer4listE@Base 0.47.2
 _Z6encodeRKN4ceph6buffer4listERS1_@Base 0.47.2
 _Z7hex2strPKciPci@Base 0.47.2
 _Z7hexdumpSsPKci@Base 0.47.2
 _Z7run_cmdPKcz@Base 0.47.2
 _Z8rjhash64m@Base 0.47.2
 _Z9stringifyI8LogEntryESsRKT_@Base 0.59
 _Z9stringifyIiESsRKT_@Base 0.58
 _ZGVN5boost6spirit7classic7static_INS_19thread_specific_ptrINS_8weak_ptrINS1_4impl14grammar_helperINS1_7grammarIN11json_spirit12Json_grammerINS8_10Value_implINS8_13Config_vectorISsEEEEN9__gnu_cxx17__normal_iteratorIPKcSsEEEENS1_14parser_contextINS1_5nil_tEEEEESJ_NS1_7scannerISI_NS1_16scanner_policiesINS1_24skipper_iteration_policyINS1_16iteration_policyEEENS1_12match_policyENS1_13action_policyEEEEEEEEEEENS5_30get_definition_static_data_tagEE5data_E@Base 0.58
 _ZGVN5boost6spirit7classic7static_INS_19thread_specific_ptrINS_8weak_ptrINS1_4impl14grammar_helperINS1_7grammarIN11json_spirit12Json_grammerINS8_10Value_implINS8_13Config_vectorISsEEEENS1_10multi_passISt16istream_iteratorIccSt11char_traitsIcElENS1_19multi_pass_policies14input_iteratorENSJ_11ref_countedENSJ_12buf_id_checkENSJ_9std_dequeEEEEENS1_14parser_contextINS1_5nil_tEEEEESP_NS1_7scannerISO_NS1_16scanner_policiesINS1_24skipper_iteration_policyINS1_16iteration_policyEEENS1_12match_policyENS1_13action_policyEEEEEEEEEEENS5_30get_definition_static_data_tagEE5data_E@Base 0.58
 _ZGVN5boost6spirit7classic7static_INS_19thread_specific_ptrINS_8weak_ptrINS1_4impl14grammar_helperINS1_7grammarIN11json_spirit12Json_grammerINS8_10Value_implINS8_13Config_vectorISsEEEENS1_17position_iteratorIN9__gnu_cxx17__normal_iteratorIPKcSsEENS1_18file_position_baseISsEENS1_5nil_tEEEEENS1_14parser_contextISM_EEEESO_NS1_7scannerISN_NS1_16scanner_policiesINS1_24skipper_iteration_policyINS1_16iteration_policyEEENS1_12match_policyENS1_13action_policyEEEEEEEEEEENS5_30get_definition_static_data_tagEE5data_E@Base 0.58
 _ZGVN5boost6spirit7classic7static_INS_19thread_specific_ptrINS_8weak_ptrINS1_4impl14grammar_helperINS1_7grammarIN11json_spirit12Json_grammerINS8_10Value_implINS8_13Config_vectorISsEEEENS1_17position_iteratorINS1_10multi_passISt16istream_iteratorIccSt11char_traitsIcElENS1_19multi_pass_policies14input_iteratorENSK_11ref_countedENSK_12buf_id_checkENSK_9std_dequeEEENS1_18file_position_baseISsEENS1_5nil_tEEEEENS1_14parser_contextISS_EEEESU_NS1_7scannerIST_NS1_16scanner_policiesINS1_24skipper_iteration_policyINS1_16iteration_policyEEENS1_12match_policyENS1_13action_policyEEEEEEEEEEENS5_30get_definition_static_data_tagEE5data_E@Base 0.58
 _ZGVZN5boost6spirit4impl14get_definitionI13crush_grammarNS0_14parser_contextINS0_5nil_tEEENS0_7scannerIPKcNS0_16scanner_policiesINS0_28skip_parser_iteration_policyINS0_12space_parserENS0_16iteration_policyEEENS0_16ast_match_policyIS9_NS0_21node_val_data_factoryIS5_EES5_EENS0_13action_policyEEEEEEERNT_10definitionIT1_EEPKNS0_7grammarISM_T0_EEE6helper@Base 0.47.2
 _ZGVZN5boost6spirit4impl19negative_accumulateIdLi10EE3addERddE13min_div_radix@Base 0.47.2
 _ZGVZN5boost6spirit4impl19negative_accumulateIdLi10EE3addERddE3min@Base 0.47.2
 _ZGVZN5boost6spirit4impl19object_with_id_baseINS1_11grammar_tagEmE17acquire_object_idEvE13static_supply@Base 0.47.2
 _ZGVZN5boost6spirit4impl19positive_accumulateIdLi10EE3addERddE13max_div_radix@Base 0.47.2
 _ZGVZN5boost6spirit4impl19positive_accumulateIdLi10EE3addERddE3max@Base 0.47.2
 _ZGVZN5boost6spirit7classic4impl17escape_char_parseIcE5parseINS1_7scannerIN9__gnu_cxx17__normal_iteratorIPKcSsEENS1_16scanner_policiesINS1_27no_skipper_iteration_policyINS1_24skipper_iteration_policyINS1_16iteration_policyEEEEENS1_12match_policyENS1_13action_policyEEEEENS1_18escape_char_parserILm2EcEEEENS1_13parser_resultIT0_T_E4typeERKSQ_RKSP_E1p@Base 0.47.2
 _ZGVZN5boost6spirit7classic4impl17escape_char_parseIcE5parseINS1_7scannerINS1_10multi_passISt16istream_iteratorIccSt11char_traitsIcElENS1_19multi_pass_policies14input_iteratorENSC_11ref_countedENSC_12buf_id_checkENSC_9std_dequeEEENS1_16scanner_policiesINS1_27no_skipper_iteration_policyINS1_24skipper_iteration_policyINS1_16iteration_policyEEEEENS1_12match_policyENS1_13action_policyEEEEENS1_18escape_char_parserILm2EcEEEENS1_13parser_resultIT0_T_E4typeERKSW_RKSV_E1p@Base 0.47.2
 _ZGVZN5boost6spirit7classic4impl17escape_char_parseIcE5parseINS1_7scannerINS1_17position_iteratorIN9__gnu_cxx17__normal_iteratorIPKcSsEENS1_18file_position_baseISsEENS1_5nil_tEEENS1_16scanner_policiesINS1_27no_skipper_iteration_policyINS1_24skipper_iteration_policyINS1_16iteration_policyEEEEENS1_12match_policyENS1_13action_policyEEEEENS1_18escape_char_parserILm2EcEEEENS1_13parser_resultIT0_T_E4typeERKSV_RKSU_E1p@Base 0.47.2
 _ZGVZN5boost6spirit7classic4impl17escape_char_parseIcE5parseINS1_7scannerINS1_17position_iteratorINS1_10multi_passISt16istream_iteratorIccSt11char_traitsIcElENS1_19multi_pass_policies14input_iteratorENSD_11ref_countedENSD_12buf_id_checkENSD_9std_dequeEEENS1_18file_position_baseISsEENS1_5nil_tEEENS1_16scanner_policiesINS1_27no_skipper_iteration_policyINS1_24skipper_iteration_policyINS1_16iteration_policyEEEEENS1_12match_policyENS1_13action_policyEEEEENS1_18escape_char_parserILm2EcEEEENS1_13parser_resultIT0_T_E4typeERKS11_RKS10_E1p@Base 0.47.2
 _ZGVZN5boost6spirit7classic4impl19negative_accumulateIdLi10EE3addERddE13min_div_radix@Base 0.47.2
 _ZGVZN5boost6spirit7classic4impl19negative_accumulateIdLi10EE3addERddE3min@Base 0.47.2
 _ZGVZN5boost6spirit7classic4impl19negative_accumulateIlLi10EE3addERllE13min_div_radix@Base 0.47.2
 _ZGVZN5boost6spirit7classic4impl19negative_accumulateIlLi10EE3addERllE3min@Base 0.47.2
 _ZGVZN5boost6spirit7classic4impl19object_with_id_baseINS2_11grammar_tagEmE14mutex_instanceEvE5mutex@Base 0.58
 _ZGVZN5boost6spirit7classic4impl19object_with_id_baseINS2_11grammar_tagEmE17acquire_object_idEvE13static_supply@Base 0.47.2
 _ZGVZN5boost6spirit7classic4impl19positive_accumulateIcLi16EE3addERccE13max_div_radix@Base 0.47.2
 _ZGVZN5boost6spirit7classic4impl19positive_accumulateIcLi16EE3addERccE3max@Base 0.47.2
 _ZGVZN5boost6spirit7classic4impl19positive_accumulateIcLi8EE3addERccE13max_div_radix@Base 0.47.2
 _ZGVZN5boost6spirit7classic4impl19positive_accumulateIcLi8EE3addERccE3max@Base 0.47.2
 _ZGVZN5boost6spirit7classic4impl19positive_accumulateIdLi10EE3addERddE13max_div_radix@Base 0.47.2
 _ZGVZN5boost6spirit7classic4impl19positive_accumulateIdLi10EE3addERddE3max@Base 0.47.2
 _ZGVZN5boost6spirit7classic4impl19positive_accumulateIlLi10EE3addERllE13max_div_radix@Base 0.47.2
 _ZGVZN5boost6spirit7classic4impl19positive_accumulateIlLi10EE3addERllE3max@Base 0.47.2
 _ZGVZN5boost6spirit7classic4impl19positive_accumulateImLi10EE3addERmmE13max_div_radix@Base 0.47.2
 _ZGVZN5boost6spirit7classic4impl19positive_accumulateImLi10EE3addERmmE3max@Base 0.47.2
 _ZGVZN5boost6spirit7classic7static_INS_19thread_specific_ptrINS_8weak_ptrINS1_4impl14grammar_helperINS1_7grammarIN11json_spirit12Json_grammerINS8_10Value_implINS8_13Config_vectorISsEEEEN9__gnu_cxx17__normal_iteratorIPKcSsEEEENS1_14parser_contextINS1_5nil_tEEEEESJ_NS1_7scannerISI_NS1_16scanner_policiesINS1_24skipper_iteration_policyINS1_16iteration_policyEEENS1_12match_policyENS1_13action_policyEEEEEEEEEEENS5_30get_definition_static_data_tagEE12default_ctor9constructEvE1d@Base 0.58
 _ZGVZN5boost6spirit7classic7static_INS_19thread_specific_ptrINS_8weak_ptrINS1_4impl14grammar_helperINS1_7grammarIN11json_spirit12Json_grammerINS8_10Value_implINS8_13Config_vectorISsEEEENS1_10multi_passISt16istream_iteratorIccSt11char_traitsIcElENS1_19multi_pass_policies14input_iteratorENSJ_11ref_countedENSJ_12buf_id_checkENSJ_9std_dequeEEEEENS1_14parser_contextINS1_5nil_tEEEEESP_NS1_7scannerISO_NS1_16scanner_policiesINS1_24skipper_iteration_policyINS1_16iteration_policyEEENS1_12match_policyENS1_13action_policyEEEEEEEEEEENS5_30get_definition_static_data_tagEE12default_ctor9constructEvE1d@Base 0.58
 _ZGVZN5boost6spirit7classic7static_INS_19thread_specific_ptrINS_8weak_ptrINS1_4impl14grammar_helperINS1_7grammarIN11json_spirit12Json_grammerINS8_10Value_implINS8_13Config_vectorISsEEEENS1_17position_iteratorIN9__gnu_cxx17__normal_iteratorIPKcSsEENS1_18file_position_baseISsEENS1_5nil_tEEEEENS1_14parser_contextISM_EEEESO_NS1_7scannerISN_NS1_16scanner_policiesINS1_24skipper_iteration_policyINS1_16iteration_policyEEENS1_12match_policyENS1_13action_policyEEEEEEEEEEENS5_30get_definition_static_data_tagEE12default_ctor9constructEvE1d@Base 0.58
 _ZGVZN5boost6spirit7classic7static_INS_19thread_specific_ptrINS_8weak_ptrINS1_4impl14grammar_helperINS1_7grammarIN11json_spirit12Json_grammerINS8_10Value_implINS8_13Config_vectorISsEEEENS1_17position_iteratorINS1_10multi_passISt16istream_iteratorIccSt11char_traitsIcElENS1_19multi_pass_policies14input_iteratorENSK_11ref_countedENSK_12buf_id_checkENSK_9std_dequeEEENS1_18file_position_baseISsEENS1_5nil_tEEEEENS1_14parser_contextISS_EEEESU_NS1_7scannerIST_NS1_16scanner_policiesINS1_24skipper_iteration_policyINS1_16iteration_policyEEENS1_12match_policyENS1_13action_policyEEEEEEEEEEENS5_30get_definition_static_data_tagEE12default_ctor9constructEvE1d@Base 0.58
 _ZN10AuthTicketD1Ev@Base 0.47.2
 _ZN10AuthTicketD2Ev@Base 0.47.2
 _ZN10C_SafeCond6finishEi@Base 0.47.2
 _ZN10C_SafeCondD0Ev@Base 0.47.2
 _ZN10C_SafeCondD1Ev@Base 0.47.2
 _ZN10C_SafeCondD2Ev@Base 0.47.2
 _ZN10Connection10clear_pipeEP16RefCountedObject@Base 0.58
 _ZN10Connection10reset_pipeEP16RefCountedObject@Base 0.47.2
 _ZN10Connection14post_rx_bufferEmRN4ceph6buffer4listE@Base 0.47.2
 _ZN10Connection16revoke_rx_bufferEm@Base 0.47.2
 _ZN10ConnectionC1Ev@Base 0.47.2
 _ZN10ConnectionC2Ev@Base 0.47.2
 _ZN10ConnectionD0Ev@Base 0.47.2
 _ZN10ConnectionD1Ev@Base 0.47.2
 _ZN10ConnectionD2Ev@Base 0.47.2
 _ZN10CryptoNone15validate_secretERN4ceph6buffer3ptrE@Base 0.47.2
 _ZN10CryptoNone6createERN4ceph6buffer3ptrE@Base 0.47.2
 _ZN10CryptoNoneD0Ev@Base 0.47.2
 _ZN10CryptoNoneD1Ev@Base 0.47.2
 _ZN10CryptoNoneD2Ev@Base 0.47.2
 _ZN10Dispatcher16ms_handle_acceptEP10Connection@Base 0.58
 _ZN10Dispatcher17ms_get_authorizerEiPP14AuthAuthorizerb@Base 0.47.2
 _ZN10Dispatcher17ms_handle_connectEP10Connection@Base 0.47.2
 _ZN10Dispatcher20ms_verify_authorizerEP10ConnectioniiRN4ceph6buffer4listES5_RbR9CryptoKey@Base 0.58
 _ZN10DispatcherD0Ev@Base 0.47.2
 _ZN10DispatcherD1Ev@Base 0.47.2
 _ZN10DispatcherD2Ev@Base 0.47.2
 _ZN10EntityAuthD1Ev@Base 0.47.2
 _ZN10EntityAuthD2Ev@Base 0.47.2
 _ZN10EntityName22get_valid_types_as_strEv@Base 0.47.2
 _ZN10EntityName3setERKSsS1_@Base 0.47.2
 _ZN10EntityName3setEjRKSs@Base 0.47.2
 _ZN10EntityName6set_idERKSs@Base 0.47.2
 _ZN10EntityName8from_strERKSs@Base 0.47.2
 _ZN10EntityName8set_nameE13entity_name_t@Base 0.47.2
 _ZN10EntityName8set_typeEPKc@Base 0.47.2
 _ZN10EntityName8set_typeEj@Base 0.47.2
 _ZN10EntityNameC1Ev@Base 0.47.2
 _ZN10EntityNameC2Ev@Base 0.47.2
 _ZN10EntityNameD1Ev@Base 0.47.2
 _ZN10EntityNameD2Ev@Base 0.47.2
 _ZN10EntityNameaSERKS_@Base 0.47.2
 _ZN10LogSummary23generate_test_instancesERSt4listIPS_SaIS1_EE@Base 0.47.2
 _ZN10LogSummary6decodeERN4ceph6buffer4list8iteratorE@Base 0.47.2
 _ZN10MAuthReply14decode_payloadEv@Base 0.47.2
 _ZN10MAuthReply14encode_payloadEm@Base 0.47.2
 _ZN10MAuthReplyC1Ev@Base 0.47.2
 _ZN10MAuthReplyC2Ev@Base 0.47.2
 _ZN10MAuthReplyD0Ev@Base 0.47.2
 _ZN10MAuthReplyD1Ev@Base 0.47.2
 _ZN10MAuthReplyD2Ev@Base 0.47.2
 _ZN10MDirUpdate14decode_payloadEv@Base 0.47.2
 _ZN10MDirUpdate14encode_payloadEm@Base 0.47.2
 _ZN10MDirUpdateC1Ev@Base 0.47.2
 _ZN10MDirUpdateC2Ev@Base 0.47.2
 _ZN10MDirUpdateD0Ev@Base 0.47.2
 _ZN10MDirUpdateD1Ev@Base 0.47.2
 _ZN10MDirUpdateD2Ev@Base 0.47.2
 _ZN10MExportDir14decode_payloadEv@Base 0.47.2
 _ZN10MExportDir14encode_payloadEm@Base 0.47.2
 _ZN10MExportDirC1Ev@Base 0.47.2
 _ZN10MExportDirC2Ev@Base 0.47.2
 _ZN10MExportDirD0Ev@Base 0.47.2
 _ZN10MExportDirD1Ev@Base 0.47.2
 _ZN10MExportDirD2Ev@Base 0.47.2
 _ZN10MHeartbeat14decode_payloadEv@Base 0.47.2
 _ZN10MHeartbeat14encode_payloadEm@Base 0.47.2
 _ZN10MHeartbeatC1Ev@Base 0.47.2
 _ZN10MHeartbeatC2Ev@Base 0.47.2
 _ZN10MHeartbeatD0Ev@Base 0.47.2
 _ZN10MHeartbeatD1Ev@Base 0.47.2
 _ZN10MHeartbeatD2Ev@Base 0.47.2
 _ZN10MMDSBeacon14decode_payloadEv@Base 0.47.2
 _ZN10MMDSBeacon14encode_payloadEm@Base 0.47.2
 _ZN10MMDSBeaconC1Ev@Base 0.47.2
 _ZN10MMDSBeaconC2Ev@Base 0.47.2
 _ZN10MMDSBeaconD0Ev@Base 0.47.2
 _ZN10MMDSBeaconD1Ev@Base 0.47.2
 _ZN10MMDSBeaconD2Ev@Base 0.47.2
 _ZN10MMonGetMap14decode_payloadEv@Base 0.47.2
 _ZN10MMonGetMap14encode_payloadEm@Base 0.47.2
 _ZN10MMonGetMapC1Ev@Base 0.47.2
 _ZN10MMonGetMapC2Ev@Base 0.47.2
 _ZN10MMonGetMapD0Ev@Base 0.47.2
 _ZN10MMonGetMapD1Ev@Base 0.47.2
 _ZN10MMonGetMapD2Ev@Base 0.47.2
 _ZN10MOSDPGInfo14decode_payloadEv@Base 0.47.2
 _ZN10MOSDPGInfo14encode_payloadEm@Base 0.47.2
 _ZN10MOSDPGInfoC1Ev@Base 0.47.2
 _ZN10MOSDPGInfoC2Ev@Base 0.47.2
 _ZN10MOSDPGInfoD0Ev@Base 0.47.2
 _ZN10MOSDPGInfoD1Ev@Base 0.47.2
 _ZN10MOSDPGInfoD2Ev@Base 0.47.2
 _ZN10MOSDPGScan14decode_payloadEv@Base 0.47.2
 _ZN10MOSDPGScan14encode_payloadEm@Base 0.47.2
 _ZN10MOSDPGScanC1Ev@Base 0.47.2
 _ZN10MOSDPGScanC2Ev@Base 0.47.2
 _ZN10MOSDPGScanD0Ev@Base 0.47.2
 _ZN10MOSDPGScanD1Ev@Base 0.47.2
 _ZN10MOSDPGScanD2Ev@Base 0.47.2
 _ZN10MOSDPGTemp14decode_payloadEv@Base 0.47.2
 _ZN10MOSDPGTemp14encode_payloadEm@Base 0.47.2
 _ZN10MOSDPGTempC1Ev@Base 0.47.2
 _ZN10MOSDPGTempC2Ev@Base 0.47.2
 _ZN10MOSDPGTempD0Ev@Base 0.47.2
 _ZN10MOSDPGTempD1Ev@Base 0.47.2
 _ZN10MOSDPGTempD2Ev@Base 0.47.2
 _ZN10MOSDPGTrim14decode_payloadEv@Base 0.47.2
 _ZN10MOSDPGTrim14encode_payloadEm@Base 0.47.2
 _ZN10MOSDPGTrimC1Ev@Base 0.47.2
 _ZN10MOSDPGTrimC2Ev@Base 0.47.2
 _ZN10MOSDPGTrimD0Ev@Base 0.47.2
 _ZN10MOSDPGTrimD1Ev@Base 0.47.2
 _ZN10MOSDPGTrimD2Ev@Base 0.47.2
 _ZN10MTimeCheck14decode_payloadEv@Base 0.58
 _ZN10MTimeCheck14encode_payloadEm@Base 0.58
 _ZN10MTimeCheckC1Ev@Base 0.58
 _ZN10MTimeCheckC2Ev@Base 0.58
 _ZN10MTimeCheckD0Ev@Base 0.58
 _ZN10MTimeCheckD1Ev@Base 0.58
 _ZN10MTimeCheckD2Ev@Base 0.58
 _ZN10PurgeRangeD1Ev@Base 0.47.2
 _ZN10PurgeRangeD2Ev@Base 0.47.2
 _ZN10ThreadPool10WorkThread5entryEv@Base 0.58
 _ZN10ThreadPool10WorkThreadD0Ev@Base 0.58
 _ZN10ThreadPool10WorkThreadD1Ev@Base 0.58
 _ZN10ThreadPool10WorkThreadD2Ev@Base 0.58
 _ZN10ThreadPool13start_threadsEv@Base 0.58
 _ZN10ThreadPool16join_old_threadsEv@Base 0.58
 _ZN10ThreadPool18handle_conf_changeEPK11md_config_tRKSt3setISsSt4lessISsESaISsEE@Base 0.58
 _ZN10ThreadPool4stopEb@Base 0.47.2
 _ZN10ThreadPool5drainEPNS_10WorkQueue_E@Base 0.47.2
 _ZN10ThreadPool5pauseEv@Base 0.47.2
 _ZN10ThreadPool5startEv@Base 0.47.2
 _ZN10ThreadPool6workerEPNS_10WorkThreadE@Base 0.58
 _ZN10ThreadPool7unpauseEv@Base 0.47.2
 _ZN10ThreadPool8TPHandle16reset_tp_timeoutEv@Base 0.58
 _ZN10ThreadPool9pause_newEv@Base 0.47.2
 _ZN10ThreadPoolC1EP11CephContextSsiPKc@Base 0.58
 _ZN10ThreadPoolC2EP11CephContextSsiPKc@Base 0.58
 _ZN10ThreadPoolD0Ev@Base 0.58
 _ZN10ThreadPoolD1Ev@Base 0.58
 _ZN10ThreadPoolD2Ev@Base 0.58
 _ZN10clone_info4HEADE@Base 0.59
 _ZN10eversion_t6decodeERN4ceph6buffer4list8iteratorE@Base 0.47.2
 _ZN10fragtree_tD1Ev@Base 0.47.2
 _ZN10fragtree_tD2Ev@Base 0.47.2
 _ZN10mds_load_t23generate_test_instancesERSt4listIPS_SaIS1_EE@Base 0.58
 _ZN10mds_load_t6decodeERK7utime_tRN4ceph6buffer4list8iteratorE@Base 0.58
 _ZN10osd_info_t23generate_test_instancesERSt4listIPS_SaIS1_EE@Base 0.47.2
 _ZN10osd_info_t6decodeERN4ceph6buffer4list8iteratorE@Base 0.47.2
 _ZN10osd_stat_t23generate_test_instancesERSt4listIPS_SaIS1_EE@Base 0.47.2
 _ZN10osd_stat_t6decodeERN4ceph6buffer4list8iteratorE@Base 0.47.2
 _ZN10pg_query_t23generate_test_instancesERSt4listIPS_SaIS1_EE@Base 0.47.2
 _ZN10pg_query_t6decodeERN4ceph6buffer4list8iteratorE@Base 0.58
 _ZN11AdminSocket15bind_and_listenERKSsPi@Base 0.47.2
 _ZN11AdminSocket16register_commandESsP15AdminSocketHookSs@Base 0.47.2
 _ZN11AdminSocket18unregister_commandESs@Base 0.47.2
 _ZN11AdminSocket20create_shutdown_pipeEPiS0_@Base 0.47.2
 _ZN11AdminSocket4initERKSs@Base 0.47.2
 _ZN11AdminSocket5entryEv@Base 0.47.2
 _ZN11AdminSocket8shutdownEv@Base 0.47.2
 _ZN11AdminSocket9do_acceptEv@Base 0.47.2
 _ZN11AdminSocketC1EP11CephContext@Base 0.47.2
 _ZN11AdminSocketC2EP11CephContext@Base 0.47.2
 _ZN11AdminSocketD0Ev@Base 0.47.2
 _ZN11AdminSocketD1Ev@Base 0.47.2
 _ZN11AdminSocketD2Ev@Base 0.47.2
 _ZN11CephContext10do_commandESsSsPN4ceph6buffer4listE@Base 0.48
 _ZN11CephContext11reopen_logsEv@Base 0.47.2
 _ZN11CephContext16get_admin_socketEv@Base 0.47.2
 _ZN11CephContext18get_crypto_handlerEi@Base 0.58
 _ZN11CephContext19join_service_threadEv@Base 0.47.2
 _ZN11CephContext20start_service_threadEv@Base 0.47.2
 _ZN11CephContext27get_perfcounters_collectionEv@Base 0.47.2
 _ZN11CephContextC1Ej@Base 0.47.2
 _ZN11CephContextC2Ej@Base 0.47.2
 _ZN11CephContextD1Ev@Base 0.47.2
 _ZN11CephContextD2Ev@Base 0.47.2
 _ZN11CrushTester14adjust_weightsERSt6vectorIjSaIjEE@Base 0.48
 _ZN11CrushTester15tester_data_setD1Ev@Base 0.58
 _ZN11CrushTester15tester_data_setD2Ev@Base 0.58
 _ZN11CrushTester16random_placementEiRSt6vectorIiSaIiEEiRS0_IjSaIjEE@Base 0.58
 _ZN11CrushTester17set_device_weightEif@Base 0.47.2
 _ZN11CrushTester21check_valid_placementEiSt6vectorIiSaIiEERKS0_IjSaIjEE@Base 0.58
 _ZN11CrushTester21get_collapsed_mappingEv@Base 0.58
 _ZN11CrushTester21write_data_set_to_csvESsRNS_15tester_data_setE@Base 0.58
 _ZN11CrushTester28get_maximum_affected_by_ruleEi@Base 0.58
 _ZN11CrushTester40write_integer_indexed_scalar_data_stringERSt6vectorISsSaISsEEif@Base 0.58
 _ZN11CrushTester40write_integer_indexed_scalar_data_stringERSt6vectorISsSaISsEEii@Base 0.58
 _ZN11CrushTester40write_integer_indexed_vector_data_stringERSt6vectorISsSaISsEEiS0_IfSaIfEE@Base 0.58
 _ZN11CrushTester40write_integer_indexed_vector_data_stringERSt6vectorISsSaISsEEiS0_IiSaIiEE@Base 0.58
 _ZN11CrushTester4testEv@Base 0.47.2
 _ZN11LogEntryKey23generate_test_instancesERSt4listIPS_SaIS1_EE@Base 0.47.2
 _ZN11LogEntryKey6decodeERN4ceph6buffer4list8iteratorE@Base 0.47.2
 _ZN11MClientCaps14decode_payloadEv@Base 0.47.2
 _ZN11MClientCaps14encode_payloadEm@Base 0.47.2
 _ZN11MClientCapsC1Ei9inodeno_tS0_mi@Base 0.47.2
 _ZN11MClientCapsC1Ei9inodeno_tS0_mliiii@Base 0.47.2
 _ZN11MClientCapsC1Ev@Base 0.47.2
 _ZN11MClientCapsC2Ei9inodeno_tS0_mi@Base 0.47.2
 _ZN11MClientCapsC2Ei9inodeno_tS0_mliiii@Base 0.47.2
 _ZN11MClientCapsC2Ev@Base 0.47.2
 _ZN11MClientCapsD0Ev@Base 0.47.2
 _ZN11MClientCapsD1Ev@Base 0.47.2
 _ZN11MClientCapsD2Ev@Base 0.47.2
 _ZN11MClientSnap14decode_payloadEv@Base 0.47.2
 _ZN11MClientSnap14encode_payloadEm@Base 0.47.2
 _ZN11MClientSnapC1Ei@Base 0.47.2
 _ZN11MClientSnapC2Ei@Base 0.47.2
 _ZN11MClientSnapD0Ev@Base 0.47.2
 _ZN11MClientSnapD1Ev@Base 0.47.2
 _ZN11MClientSnapD2Ev@Base 0.47.2
 _ZN11MDentryLink14decode_payloadEv@Base 0.47.2
 _ZN11MDentryLink14encode_payloadEm@Base 0.47.2
 _ZN11MDentryLinkC1Ev@Base 0.47.2
 _ZN11MDentryLinkC2Ev@Base 0.47.2
 _ZN11MDentryLinkD0Ev@Base 0.47.2
 _ZN11MDentryLinkD1Ev@Base 0.47.2
 _ZN11MDentryLinkD2Ev@Base 0.47.2
 _ZN11MExportCaps14decode_payloadEv@Base 0.47.2
 _ZN11MExportCaps14encode_payloadEm@Base 0.47.2
 _ZN11MExportCapsC1Ev@Base 0.47.2
 _ZN11MExportCapsC2Ev@Base 0.47.2
 _ZN11MExportCapsD0Ev@Base 0.47.2
 _ZN11MExportCapsD1Ev@Base 0.47.2
 _ZN11MExportCapsD2Ev@Base 0.47.2
 _ZN11MMDSFindIno14decode_payloadEv@Base 0.47.2
 _ZN11MMDSFindIno14encode_payloadEm@Base 0.47.2
 _ZN11MMDSFindInoC1Ev@Base 0.47.2
 _ZN11MMDSFindInoC2Ev@Base 0.47.2
 _ZN11MMDSFindInoD0Ev@Base 0.47.2
 _ZN11MMDSFindInoD1Ev@Base 0.47.2
 _ZN11MMDSFindInoD2Ev@Base 0.47.2
 _ZN11MMDSResolve14decode_payloadEv@Base 0.47.2
 _ZN11MMDSResolve14encode_payloadEm@Base 0.47.2
 _ZN11MMDSResolveC1Ev@Base 0.47.2
 _ZN11MMDSResolveC2Ev@Base 0.47.2
 _ZN11MMDSResolveD0Ev@Base 0.47.2
 _ZN11MMDSResolveD1Ev@Base 0.47.2
 _ZN11MMDSResolveD2Ev@Base 0.47.2
 _ZN11MMonCommand14decode_payloadEv@Base 0.47.2
 _ZN11MMonCommand14encode_payloadEm@Base 0.47.2
 _ZN11MMonCommandC1Ev@Base 0.47.2
 _ZN11MMonCommandC2Ev@Base 0.47.2
 _ZN11MMonCommandD0Ev@Base 0.47.2
 _ZN11MMonCommandD1Ev@Base 0.47.2
 _ZN11MMonCommandD2Ev@Base 0.47.2
 _ZN11MOSDFailure14decode_payloadEv@Base 0.47.2
 _ZN11MOSDFailure14encode_payloadEm@Base 0.47.2
 _ZN11MOSDFailureC1Ev@Base 0.47.2
 _ZN11MOSDFailureC2Ev@Base 0.47.2
 _ZN11MOSDFailureD0Ev@Base 0.47.2
 _ZN11MOSDFailureD1Ev@Base 0.47.2
 _ZN11MOSDFailureD2Ev@Base 0.47.2
 _ZN11MOSDOpReply14decode_payloadEv@Base 0.47.2
 _ZN11MOSDOpReply14encode_payloadEm@Base 0.47.2
 _ZN11MOSDOpReplyC1Ev@Base 0.47.2
 _ZN11MOSDOpReplyC2Ev@Base 0.47.2
 _ZN11MOSDOpReplyD0Ev@Base 0.47.2
 _ZN11MOSDOpReplyD1Ev@Base 0.47.2
 _ZN11MOSDOpReplyD2Ev@Base 0.47.2
 _ZN11MOSDPGQuery14decode_payloadEv@Base 0.47.2
 _ZN11MOSDPGQuery14encode_payloadEm@Base 0.47.2
 _ZN11MOSDPGQueryC1Ev@Base 0.47.2
 _ZN11MOSDPGQueryC2Ev@Base 0.47.2
 _ZN11MOSDPGQueryD0Ev@Base 0.47.2
 _ZN11MOSDPGQueryD1Ev@Base 0.47.2
 _ZN11MOSDPGQueryD2Ev@Base 0.47.2
 _ZN11MPGStatsAck14decode_payloadEv@Base 0.47.2
 _ZN11MPGStatsAck14encode_payloadEm@Base 0.47.2
 _ZN11MPGStatsAckC1Ev@Base 0.47.2
 _ZN11MPGStatsAckC2Ev@Base 0.47.2
 _ZN11MPGStatsAckD0Ev@Base 0.47.2
 _ZN11MPGStatsAckD1Ev@Base 0.47.2
 _ZN11MPGStatsAckD2Ev@Base 0.47.2
 _ZN11MemoryModel7_sampleEPNS_4snapE@Base 0.47.2
 _ZN11MemoryModelC1EP11CephContext@Base 0.47.2
 _ZN11MemoryModelC2EP11CephContext@Base 0.47.2
 _ZN11MetaRequest12auth_is_bestEv@Base 0.47.2
 _ZN11MetaRequest3putEv@Base 0.47.2
 _ZN11MetaRequestC1Ei@Base 0.47.2
 _ZN11MetaRequestC2Ei@Base 0.47.2
 _ZN11MetaRequestD1Ev@Base 0.47.2
 _ZN11MetaRequestD2Ev@Base 0.47.2
 _ZN11MetaSessionC1Ev@Base 0.47.2
 _ZN11MetaSessionC2Ev@Base 0.47.2
 _ZN11MetaSessionD1Ev@Base 0.47.2
 _ZN11MetaSessionD2Ev@Base 0.47.2
 _ZN11SnapContext23generate_test_instancesERSt4listIPS_SaIS1_EE@Base 0.47.2
 _ZN11SnapContextD1Ev@Base 0.47.2
 _ZN11SnapContextD2Ev@Base 0.47.2
 _ZN11VersionHook4callESsSsRN4ceph6buffer4listE@Base 0.48
 _ZN11VersionHookD0Ev@Base 0.47.2
 _ZN11VersionHookD1Ev@Base 0.47.2
 _ZN11VersionHookD2Ev@Base 0.47.2
 _ZN11frag_info_t23generate_test_instancesERSt4listIPS_SaIS1_EE@Base 0.58
 _ZN11frag_info_t6decodeERN4ceph6buffer4list8iteratorE@Base 0.58
 _ZN11json_spirit10Value_implINS_13Config_vectorISsEEE7get_objEv@Base 0.47.2
 _ZN11json_spirit10Value_implINS_13Config_vectorISsEEE9get_arrayEv@Base 0.47.2
 _ZN11json_spirit10Value_implINS_13Config_vectorISsEEEC1ERKS3_@Base 0.47.2
 _ZN11json_spirit10Value_implINS_13Config_vectorISsEEEC1ERKSt6vectorINS_9Pair_implIS2_EESaIS6_EE@Base 0.47.2
 _ZN11json_spirit10Value_implINS_13Config_vectorISsEEEC1ERKSt6vectorIS3_SaIS3_EE@Base 0.47.2
 _ZN11json_spirit10Value_implINS_13Config_vectorISsEEEC2ERKS3_@Base 0.47.2
 _ZN11json_spirit10Value_implINS_13Config_vectorISsEEEC2ERKSt6vectorINS_9Pair_implIS2_EESaIS6_EE@Base 0.47.2
 _ZN11json_spirit10Value_implINS_13Config_vectorISsEEEC2ERKSt6vectorIS3_SaIS3_EE@Base 0.47.2
 _ZN11json_spirit10Value_implINS_13Config_vectorISsEEED1Ev@Base 0.47.2
 _ZN11json_spirit10Value_implINS_13Config_vectorISsEEED2Ev@Base 0.47.2
 _ZN11json_spirit10Value_implINS_13Config_vectorISsEEEaSERKS3_@Base 0.47.2
 _ZN11json_spirit10read_rangeIN5boost6spirit7classic10multi_passISt16istream_iteratorIccSt11char_traitsIcElENS3_19multi_pass_policies14input_iteratorENS9_11ref_countedENS9_12buf_id_checkENS9_9std_dequeEEENS_10Value_implINS_13Config_vectorISsEEEEEEbRT_SJ_RT0_@Base 0.47.2
 _ZN11json_spirit10read_rangeIN9__gnu_cxx17__normal_iteratorIPKcSsEENS_10Value_implINS_13Config_vectorISsEEEEEEbRT_SA_RT0_@Base 0.47.2
 _ZN11json_spirit11read_streamISiNS_10Value_implINS_13Config_vectorISsEEEEEEbRT_RT0_@Base 0.47.2
 _ZN11json_spirit11throw_errorIN5boost6spirit7classic10multi_passISt16istream_iteratorIccSt11char_traitsIcElENS3_19multi_pass_policies14input_iteratorENS9_11ref_countedENS9_12buf_id_checkENS9_9std_dequeEEEEEvNS3_17position_iteratorIT_NS3_18file_position_baseISbINS1_6detail15iterator_traitsISG_E10value_typeES6_ISL_ESaISL_EEEENS3_5nil_tEEERKSs@Base 0.47.2
 _ZN11json_spirit11throw_errorIN9__gnu_cxx17__normal_iteratorIPKcSsEEEEvN5boost6spirit7classic17position_iteratorIT_NS8_18file_position_baseISbINS6_6detail15iterator_traitsISA_E10value_typeESt11char_traitsISF_ESaISF_EEEENS8_5nil_tEEERKSs@Base 0.47.2
 _ZN11json_spirit12Json_grammerINS_10Value_implINS_13Config_vectorISsEEEEN5boost6spirit7classic10multi_passISt16istream_iteratorIccSt11char_traitsIcElENS7_19multi_pass_policies14input_iteratorENSD_11ref_countedENSD_12buf_id_checkENSD_9std_dequeEEEE10definitionINS7_7scannerISI_NS7_16scanner_policiesINS7_24skipper_iteration_policyINS7_16iteration_policyEEENS7_12match_policyENS7_13action_policyEEEEEEC1ERKSJ_@Base 0.47.2
 _ZN11json_spirit12Json_grammerINS_10Value_implINS_13Config_vectorISsEEEEN5boost6spirit7classic10multi_passISt16istream_iteratorIccSt11char_traitsIcElENS7_19multi_pass_policies14input_iteratorENSD_11ref_countedENSD_12buf_id_checkENSD_9std_dequeEEEE10definitionINS7_7scannerISI_NS7_16scanner_policiesINS7_24skipper_iteration_policyINS7_16iteration_policyEEENS7_12match_policyENS7_13action_policyEEEEEEC2ERKSJ_@Base 0.47.2
 _ZN11json_spirit12Json_grammerINS_10Value_implINS_13Config_vectorISsEEEEN5boost6spirit7classic10multi_passISt16istream_iteratorIccSt11char_traitsIcElENS7_19multi_pass_policies14input_iteratorENSD_11ref_countedENSD_12buf_id_checkENSD_9std_dequeEEEE10definitionINS7_7scannerISI_NS7_16scanner_policiesINS7_24skipper_iteration_policyINS7_16iteration_policyEEENS7_12match_policyENS7_13action_policyEEEEEED1Ev@Base 0.47.2
 _ZN11json_spirit12Json_grammerINS_10Value_implINS_13Config_vectorISsEEEEN5boost6spirit7classic10multi_passISt16istream_iteratorIccSt11char_traitsIcElENS7_19multi_pass_policies14input_iteratorENSD_11ref_countedENSD_12buf_id_checkENSD_9std_dequeEEEE10definitionINS7_7scannerISI_NS7_16scanner_policiesINS7_24skipper_iteration_policyINS7_16iteration_policyEEENS7_12match_policyENS7_13action_policyEEEEEED2Ev@Base 0.47.2
 _ZN11json_spirit12Json_grammerINS_10Value_implINS_13Config_vectorISsEEEEN5boost6spirit7classic10multi_passISt16istream_iteratorIccSt11char_traitsIcElENS7_19multi_pass_policies14input_iteratorENSD_11ref_countedENSD_12buf_id_checkENSD_9std_dequeEEEE15throw_not_arrayESI_SI_@Base 0.47.2
 _ZN11json_spirit12Json_grammerINS_10Value_implINS_13Config_vectorISsEEEEN5boost6spirit7classic10multi_passISt16istream_iteratorIccSt11char_traitsIcElENS7_19multi_pass_policies14input_iteratorENSD_11ref_countedENSD_12buf_id_checkENSD_9std_dequeEEEE15throw_not_colonESI_SI_@Base 0.47.2
 _ZN11json_spirit12Json_grammerINS_10Value_implINS_13Config_vectorISsEEEEN5boost6spirit7classic10multi_passISt16istream_iteratorIccSt11char_traitsIcElENS7_19multi_pass_policies14input_iteratorENSD_11ref_countedENSD_12buf_id_checkENSD_9std_dequeEEEE15throw_not_valueESI_SI_@Base 0.47.2
 _ZN11json_spirit12Json_grammerINS_10Value_implINS_13Config_vectorISsEEEEN5boost6spirit7classic10multi_passISt16istream_iteratorIccSt11char_traitsIcElENS7_19multi_pass_policies14input_iteratorENSD_11ref_countedENSD_12buf_id_checkENSD_9std_dequeEEEE16throw_not_objectESI_SI_@Base 0.47.2
 _ZN11json_spirit12Json_grammerINS_10Value_implINS_13Config_vectorISsEEEEN5boost6spirit7classic17position_iteratorIN9__gnu_cxx17__normal_iteratorIPKcSsEENS7_18file_position_baseISsEENS7_5nil_tEEEE10definitionINS7_7scannerISH_NS7_16scanner_policiesINS7_24skipper_iteration_policyINS7_16iteration_policyEEENS7_12match_policyENS7_13action_policyEEEEEEC1ERKSI_@Base 0.47.2
 _ZN11json_spirit12Json_grammerINS_10Value_implINS_13Config_vectorISsEEEEN5boost6spirit7classic17position_iteratorIN9__gnu_cxx17__normal_iteratorIPKcSsEENS7_18file_position_baseISsEENS7_5nil_tEEEE10definitionINS7_7scannerISH_NS7_16scanner_policiesINS7_24skipper_iteration_policyINS7_16iteration_policyEEENS7_12match_policyENS7_13action_policyEEEEEEC2ERKSI_@Base 0.47.2
 _ZN11json_spirit12Json_grammerINS_10Value_implINS_13Config_vectorISsEEEEN5boost6spirit7classic17position_iteratorIN9__gnu_cxx17__normal_iteratorIPKcSsEENS7_18file_position_baseISsEENS7_5nil_tEEEE10definitionINS7_7scannerISH_NS7_16scanner_policiesINS7_24skipper_iteration_policyINS7_16iteration_policyEEENS7_12match_policyENS7_13action_policyEEEEEED1Ev@Base 0.47.2
 _ZN11json_spirit12Json_grammerINS_10Value_implINS_13Config_vectorISsEEEEN5boost6spirit7classic17position_iteratorIN9__gnu_cxx17__normal_iteratorIPKcSsEENS7_18file_position_baseISsEENS7_5nil_tEEEE10definitionINS7_7scannerISH_NS7_16scanner_policiesINS7_24skipper_iteration_policyINS7_16iteration_policyEEENS7_12match_policyENS7_13action_policyEEEEEED2Ev@Base 0.47.2
 _ZN11json_spirit12Json_grammerINS_10Value_implINS_13Config_vectorISsEEEEN5boost6spirit7classic17position_iteratorIN9__gnu_cxx17__normal_iteratorIPKcSsEENS7_18file_position_baseISsEENS7_5nil_tEEEE15throw_not_arrayESH_SH_@Base 0.47.2
 _ZN11json_spirit12Json_grammerINS_10Value_implINS_13Config_vectorISsEEEEN5boost6spirit7classic17position_iteratorIN9__gnu_cxx17__normal_iteratorIPKcSsEENS7_18file_position_baseISsEENS7_5nil_tEEEE15throw_not_colonESH_SH_@Base 0.47.2
 _ZN11json_spirit12Json_grammerINS_10Value_implINS_13Config_vectorISsEEEEN5boost6spirit7classic17position_iteratorIN9__gnu_cxx17__normal_iteratorIPKcSsEENS7_18file_position_baseISsEENS7_5nil_tEEEE15throw_not_valueESH_SH_@Base 0.47.2
 _ZN11json_spirit12Json_grammerINS_10Value_implINS_13Config_vectorISsEEEEN5boost6spirit7classic17position_iteratorIN9__gnu_cxx17__normal_iteratorIPKcSsEENS7_18file_position_baseISsEENS7_5nil_tEEEE16throw_not_objectESH_SH_@Base 0.47.2
 _ZN11json_spirit12Json_grammerINS_10Value_implINS_13Config_vectorISsEEEEN5boost6spirit7classic17position_iteratorINS7_10multi_passISt16istream_iteratorIccSt11char_traitsIcElENS7_19multi_pass_policies14input_iteratorENSE_11ref_countedENSE_12buf_id_checkENSE_9std_dequeEEENS7_18file_position_baseISsEENS7_5nil_tEEEE10definitionINS7_7scannerISN_NS7_16scanner_policiesINS7_24skipper_iteration_policyINS7_16iteration_policyEEENS7_12match_policyENS7_13action_policyEEEEEEC1ERKSO_@Base 0.47.2
 _ZN11json_spirit12Json_grammerINS_10Value_implINS_13Config_vectorISsEEEEN5boost6spirit7classic17position_iteratorINS7_10multi_passISt16istream_iteratorIccSt11char_traitsIcElENS7_19multi_pass_policies14input_iteratorENSE_11ref_countedENSE_12buf_id_checkENSE_9std_dequeEEENS7_18file_position_baseISsEENS7_5nil_tEEEE10definitionINS7_7scannerISN_NS7_16scanner_policiesINS7_24skipper_iteration_policyINS7_16iteration_policyEEENS7_12match_policyENS7_13action_policyEEEEEEC2ERKSO_@Base 0.47.2
 _ZN11json_spirit12Json_grammerINS_10Value_implINS_13Config_vectorISsEEEEN5boost6spirit7classic17position_iteratorINS7_10multi_passISt16istream_iteratorIccSt11char_traitsIcElENS7_19multi_pass_policies14input_iteratorENSE_11ref_countedENSE_12buf_id_checkENSE_9std_dequeEEENS7_18file_position_baseISsEENS7_5nil_tEEEE10definitionINS7_7scannerISN_NS7_16scanner_policiesINS7_24skipper_iteration_policyINS7_16iteration_policyEEENS7_12match_policyENS7_13action_policyEEEEEED1Ev@Base 0.47.2
 _ZN11json_spirit12Json_grammerINS_10Value_implINS_13Config_vectorISsEEEEN5boost6spirit7classic17position_iteratorINS7_10multi_passISt16istream_iteratorIccSt11char_traitsIcElENS7_19multi_pass_policies14input_iteratorENSE_11ref_countedENSE_12buf_id_checkENSE_9std_dequeEEENS7_18file_position_baseISsEENS7_5nil_tEEEE10definitionINS7_7scannerISN_NS7_16scanner_policiesINS7_24skipper_iteration_policyINS7_16iteration_policyEEENS7_12match_policyENS7_13action_policyEEEEEED2Ev@Base 0.47.2
 _ZN11json_spirit12Json_grammerINS_10Value_implINS_13Config_vectorISsEEEEN5boost6spirit7classic17position_iteratorINS7_10multi_passISt16istream_iteratorIccSt11char_traitsIcElENS7_19multi_pass_policies14input_iteratorENSE_11ref_countedENSE_12buf_id_checkENSE_9std_dequeEEENS7_18file_position_baseISsEENS7_5nil_tEEEE15throw_not_arrayESN_SN_@Base 0.47.2
 _ZN11json_spirit12Json_grammerINS_10Value_implINS_13Config_vectorISsEEEEN5boost6spirit7classic17position_iteratorINS7_10multi_passISt16istream_iteratorIccSt11char_traitsIcElENS7_19multi_pass_policies14input_iteratorENSE_11ref_countedENSE_12buf_id_checkENSE_9std_dequeEEENS7_18file_position_baseISsEENS7_5nil_tEEEE15throw_not_colonESN_SN_@Base 0.47.2
 _ZN11json_spirit12Json_grammerINS_10Value_implINS_13Config_vectorISsEEEEN5boost6spirit7classic17position_iteratorINS7_10multi_passISt16istream_iteratorIccSt11char_traitsIcElENS7_19multi_pass_policies14input_iteratorENSE_11ref_countedENSE_12buf_id_checkENSE_9std_dequeEEENS7_18file_position_baseISsEENS7_5nil_tEEEE15throw_not_valueESN_SN_@Base 0.47.2
 _ZN11json_spirit12Json_grammerINS_10Value_implINS_13Config_vectorISsEEEEN5boost6spirit7classic17position_iteratorINS7_10multi_passISt16istream_iteratorIccSt11char_traitsIcElENS7_19multi_pass_policies14input_iteratorENSE_11ref_countedENSE_12buf_id_checkENSE_9std_dequeEEENS7_18file_position_baseISsEENS7_5nil_tEEEE16throw_not_objectESN_SN_@Base 0.47.2
 _ZN11json_spirit12Json_grammerINS_10Value_implINS_13Config_vectorISsEEEEN9__gnu_cxx17__normal_iteratorIPKcSsEEE10definitionIN5boost6spirit7classic7scannerIS9_NSE_16scanner_policiesINSE_24skipper_iteration_policyINSE_16iteration_policyEEENSE_12match_policyENSE_13action_policyEEEEEEC1ERKSA_@Base 0.47.2
 _ZN11json_spirit12Json_grammerINS_10Value_implINS_13Config_vectorISsEEEEN9__gnu_cxx17__normal_iteratorIPKcSsEEE10definitionIN5boost6spirit7classic7scannerIS9_NSE_16scanner_policiesINSE_24skipper_iteration_policyINSE_16iteration_policyEEENSE_12match_policyENSE_13action_policyEEEEEEC2ERKSA_@Base 0.47.2
 _ZN11json_spirit12Json_grammerINS_10Value_implINS_13Config_vectorISsEEEEN9__gnu_cxx17__normal_iteratorIPKcSsEEE10definitionIN5boost6spirit7classic7scannerIS9_NSE_16scanner_policiesINSE_24skipper_iteration_policyINSE_16iteration_policyEEENSE_12match_policyENSE_13action_policyEEEEEED1Ev@Base 0.47.2
 _ZN11json_spirit12Json_grammerINS_10Value_implINS_13Config_vectorISsEEEEN9__gnu_cxx17__normal_iteratorIPKcSsEEE10definitionIN5boost6spirit7classic7scannerIS9_NSE_16scanner_policiesINSE_24skipper_iteration_policyINSE_16iteration_policyEEENSE_12match_policyENSE_13action_policyEEEEEED2Ev@Base 0.47.2
 _ZN11json_spirit12Json_grammerINS_10Value_implINS_13Config_vectorISsEEEEN9__gnu_cxx17__normal_iteratorIPKcSsEEE15throw_not_arrayES9_S9_@Base 0.47.2
 _ZN11json_spirit12Json_grammerINS_10Value_implINS_13Config_vectorISsEEEEN9__gnu_cxx17__normal_iteratorIPKcSsEEE15throw_not_colonES9_S9_@Base 0.47.2
 _ZN11json_spirit12Json_grammerINS_10Value_implINS_13Config_vectorISsEEEEN9__gnu_cxx17__normal_iteratorIPKcSsEEE15throw_not_valueES9_S9_@Base 0.47.2
 _ZN11json_spirit12Json_grammerINS_10Value_implINS_13Config_vectorISsEEEEN9__gnu_cxx17__normal_iteratorIPKcSsEEE16throw_not_objectES9_S9_@Base 0.47.2
 _ZN11json_spirit12add_esc_charIcSsEEbT_RT0_@Base 0.47.2
 _ZN11json_spirit12write_streamINS_10Value_implINS_13Config_vectorISsEEEESoEEvRKT_RT0_j@Base 0.47.2
 _ZN11json_spirit12write_stringINS_10Value_implINS_13Config_vectorISsEEEEEENT_11String_typeERKS5_j@Base 0.47.2
 _ZN11json_spirit13Config_vectorISsE3addERSt6vectorINS_9Pair_implIS1_EESaIS4_EERKSsRKNS_10Value_implIS1_EE@Base 0.47.2
 _ZN11json_spirit13add_esc_charsISsEET_RKS1_b@Base 0.47.2
 _ZN11json_spirit13append_doubleISt19basic_ostringstreamIcSt11char_traitsIcESaIcEEEEvRT_di@Base 0.47.2
 _ZN11json_spirit13read_or_throwERKSsRNS_10Value_implINS_13Config_vectorISsEEEE@Base 0.47.2
 _ZN11json_spirit13read_or_throwERN9__gnu_cxx17__normal_iteratorIPKcSsEES4_RNS_10Value_implINS_13Config_vectorISsEEEE@Base 0.47.2
 _ZN11json_spirit13read_or_throwERSiRNS_10Value_implINS_13Config_vectorISsEEEE@Base 0.47.2
 _ZN11json_spirit14Error_positionD1Ev@Base 0.47.2
 _ZN11json_spirit14Error_positionD2Ev@Base 0.47.2
 _ZN11json_spirit15hex_str_to_charIcN9__gnu_cxx17__normal_iteratorIPKcSsEEEET_RT0_@Base 0.47.2
 _ZN11json_spirit15remove_trailingISsEEvRT_@Base 0.47.2
 _ZN11json_spirit15write_formattedERKNS_10Value_implINS_13Config_vectorISsEEEE@Base 0.47.2
 _ZN11json_spirit15write_formattedERKNS_10Value_implINS_13Config_vectorISsEEEERSo@Base 0.47.2
 _ZN11json_spirit16Multi_pass_itersISiEC1ERSi@Base 0.47.2
 _ZN11json_spirit16Multi_pass_itersISiEC2ERSi@Base 0.47.2
 _ZN11json_spirit16Multi_pass_itersISiED1Ev@Base 0.47.2
 _ZN11json_spirit16Multi_pass_itersISiED2Ev@Base 0.47.2
 _ZN11json_spirit16Semantic_actionsINS_10Value_implINS_13Config_vectorISsEEEEN5boost6spirit7classic10multi_passISt16istream_iteratorIccSt11char_traitsIcElENS7_19multi_pass_policies14input_iteratorENSD_11ref_countedENSD_12buf_id_checkENSD_9std_dequeEEEE10new_uint64Em@Base 0.47.2
 _ZN11json_spirit16Semantic_actionsINS_10Value_implINS_13Config_vectorISsEEEEN5boost6spirit7classic10multi_passISt16istream_iteratorIccSt11char_traitsIcElENS7_19multi_pass_policies14input_iteratorENSD_11ref_countedENSD_12buf_id_checkENSD_9std_dequeEEEE11begin_arrayEc@Base 0.47.2
 _ZN11json_spirit16Semantic_actionsINS_10Value_implINS_13Config_vectorISsEEEEN5boost6spirit7classic10multi_passISt16istream_iteratorIccSt11char_traitsIcElENS7_19multi_pass_policies14input_iteratorENSD_11ref_countedENSD_12buf_id_checkENSD_9std_dequeEEEE14add_to_currentERKS4_@Base 0.47.2
 _ZN11json_spirit16Semantic_actionsINS_10Value_implINS_13Config_vectorISsEEEEN5boost6spirit7classic10multi_passISt16istream_iteratorIccSt11char_traitsIcElENS7_19multi_pass_policies14input_iteratorENSD_11ref_countedENSD_12buf_id_checkENSD_9std_dequeEEEE14begin_compoundISt6vectorINS_9Pair_implIS3_EESaISN_EEEEvv@Base 0.47.2
 _ZN11json_spirit16Semantic_actionsINS_10Value_implINS_13Config_vectorISsEEEEN5boost6spirit7classic10multi_passISt16istream_iteratorIccSt11char_traitsIcElENS7_19multi_pass_policies14input_iteratorENSD_11ref_countedENSD_12buf_id_checkENSD_9std_dequeEEEE14begin_compoundISt6vectorIS4_SaIS4_EEEEvv@Base 0.47.2
 _ZN11json_spirit16Semantic_actionsINS_10Value_implINS_13Config_vectorISsEEEEN5boost6spirit7classic10multi_passISt16istream_iteratorIccSt11char_traitsIcElENS7_19multi_pass_policies14input_iteratorENSD_11ref_countedENSD_12buf_id_checkENSD_9std_dequeEEEE7end_objEc@Base 0.47.2
 _ZN11json_spirit16Semantic_actionsINS_10Value_implINS_13Config_vectorISsEEEEN5boost6spirit7classic10multi_passISt16istream_iteratorIccSt11char_traitsIcElENS7_19multi_pass_policies14input_iteratorENSD_11ref_countedENSD_12buf_id_checkENSD_9std_dequeEEEE7new_intEl@Base 0.47.2
 _ZN11json_spirit16Semantic_actionsINS_10Value_implINS_13Config_vectorISsEEEEN5boost6spirit7classic10multi_passISt16istream_iteratorIccSt11char_traitsIcElENS7_19multi_pass_policies14input_iteratorENSD_11ref_countedENSD_12buf_id_checkENSD_9std_dequeEEEE7new_strESI_SI_@Base 0.47.2
 _ZN11json_spirit16Semantic_actionsINS_10Value_implINS_13Config_vectorISsEEEEN5boost6spirit7classic10multi_passISt16istream_iteratorIccSt11char_traitsIcElENS7_19multi_pass_policies14input_iteratorENSD_11ref_countedENSD_12buf_id_checkENSD_9std_dequeEEEE8new_nameESI_SI_@Base 0.47.2
 _ZN11json_spirit16Semantic_actionsINS_10Value_implINS_13Config_vectorISsEEEEN5boost6spirit7classic10multi_passISt16istream_iteratorIccSt11char_traitsIcElENS7_19multi_pass_policies14input_iteratorENSD_11ref_countedENSD_12buf_id_checkENSD_9std_dequeEEEE8new_nullESI_SI_@Base 0.47.2
 _ZN11json_spirit16Semantic_actionsINS_10Value_implINS_13Config_vectorISsEEEEN5boost6spirit7classic10multi_passISt16istream_iteratorIccSt11char_traitsIcElENS7_19multi_pass_policies14input_iteratorENSD_11ref_countedENSD_12buf_id_checkENSD_9std_dequeEEEE8new_realEd@Base 0.47.2
 _ZN11json_spirit16Semantic_actionsINS_10Value_implINS_13Config_vectorISsEEEEN5boost6spirit7classic10multi_passISt16istream_iteratorIccSt11char_traitsIcElENS7_19multi_pass_policies14input_iteratorENSD_11ref_countedENSD_12buf_id_checkENSD_9std_dequeEEEE8new_trueESI_SI_@Base 0.47.2
 _ZN11json_spirit16Semantic_actionsINS_10Value_implINS_13Config_vectorISsEEEEN5boost6spirit7classic10multi_passISt16istream_iteratorIccSt11char_traitsIcElENS7_19multi_pass_policies14input_iteratorENSD_11ref_countedENSD_12buf_id_checkENSD_9std_dequeEEEE9begin_objEc@Base 0.47.2
 _ZN11json_spirit16Semantic_actionsINS_10Value_implINS_13Config_vectorISsEEEEN5boost6spirit7classic10multi_passISt16istream_iteratorIccSt11char_traitsIcElENS7_19multi_pass_policies14input_iteratorENSD_11ref_countedENSD_12buf_id_checkENSD_9std_dequeEEEE9end_arrayEc@Base 0.47.2
 _ZN11json_spirit16Semantic_actionsINS_10Value_implINS_13Config_vectorISsEEEEN5boost6spirit7classic10multi_passISt16istream_iteratorIccSt11char_traitsIcElENS7_19multi_pass_policies14input_iteratorENSD_11ref_countedENSD_12buf_id_checkENSD_9std_dequeEEEE9new_falseESI_SI_@Base 0.47.2
 _ZN11json_spirit16Semantic_actionsINS_10Value_implINS_13Config_vectorISsEEEEN5boost6spirit7classic10multi_passISt16istream_iteratorIccSt11char_traitsIcElENS7_19multi_pass_policies14input_iteratorENSD_11ref_countedENSD_12buf_id_checkENSD_9std_dequeEEEED1Ev@Base 0.47.2
 _ZN11json_spirit16Semantic_actionsINS_10Value_implINS_13Config_vectorISsEEEEN5boost6spirit7classic10multi_passISt16istream_iteratorIccSt11char_traitsIcElENS7_19multi_pass_policies14input_iteratorENSD_11ref_countedENSD_12buf_id_checkENSD_9std_dequeEEEED2Ev@Base 0.47.2
 _ZN11json_spirit16Semantic_actionsINS_10Value_implINS_13Config_vectorISsEEEEN5boost6spirit7classic17position_iteratorIN9__gnu_cxx17__normal_iteratorIPKcSsEENS7_18file_position_baseISsEENS7_5nil_tEEEE10new_uint64Em@Base 0.47.2
 _ZN11json_spirit16Semantic_actionsINS_10Value_implINS_13Config_vectorISsEEEEN5boost6spirit7classic17position_iteratorIN9__gnu_cxx17__normal_iteratorIPKcSsEENS7_18file_position_baseISsEENS7_5nil_tEEEE11begin_arrayEc@Base 0.47.2
 _ZN11json_spirit16Semantic_actionsINS_10Value_implINS_13Config_vectorISsEEEEN5boost6spirit7classic17position_iteratorIN9__gnu_cxx17__normal_iteratorIPKcSsEENS7_18file_position_baseISsEENS7_5nil_tEEEE14add_to_currentERKS4_@Base 0.47.2
 _ZN11json_spirit16Semantic_actionsINS_10Value_implINS_13Config_vectorISsEEEEN5boost6spirit7classic17position_iteratorIN9__gnu_cxx17__normal_iteratorIPKcSsEENS7_18file_position_baseISsEENS7_5nil_tEEEE14begin_compoundISt6vectorINS_9Pair_implIS3_EESaISM_EEEEvv@Base 0.47.2
 _ZN11json_spirit16Semantic_actionsINS_10Value_implINS_13Config_vectorISsEEEEN5boost6spirit7classic17position_iteratorIN9__gnu_cxx17__normal_iteratorIPKcSsEENS7_18file_position_baseISsEENS7_5nil_tEEEE14begin_compoundISt6vectorIS4_SaIS4_EEEEvv@Base 0.47.2
 _ZN11json_spirit16Semantic_actionsINS_10Value_implINS_13Config_vectorISsEEEEN5boost6spirit7classic17position_iteratorIN9__gnu_cxx17__normal_iteratorIPKcSsEENS7_18file_position_baseISsEENS7_5nil_tEEEE7end_objEc@Base 0.47.2
 _ZN11json_spirit16Semantic_actionsINS_10Value_implINS_13Config_vectorISsEEEEN5boost6spirit7classic17position_iteratorIN9__gnu_cxx17__normal_iteratorIPKcSsEENS7_18file_position_baseISsEENS7_5nil_tEEEE7new_intEl@Base 0.47.2
 _ZN11json_spirit16Semantic_actionsINS_10Value_implINS_13Config_vectorISsEEEEN5boost6spirit7classic17position_iteratorIN9__gnu_cxx17__normal_iteratorIPKcSsEENS7_18file_position_baseISsEENS7_5nil_tEEEE7new_strESH_SH_@Base 0.47.2
 _ZN11json_spirit16Semantic_actionsINS_10Value_implINS_13Config_vectorISsEEEEN5boost6spirit7classic17position_iteratorIN9__gnu_cxx17__normal_iteratorIPKcSsEENS7_18file_position_baseISsEENS7_5nil_tEEEE8new_nameESH_SH_@Base 0.47.2
 _ZN11json_spirit16Semantic_actionsINS_10Value_implINS_13Config_vectorISsEEEEN5boost6spirit7classic17position_iteratorIN9__gnu_cxx17__normal_iteratorIPKcSsEENS7_18file_position_baseISsEENS7_5nil_tEEEE8new_nullESH_SH_@Base 0.47.2
 _ZN11json_spirit16Semantic_actionsINS_10Value_implINS_13Config_vectorISsEEEEN5boost6spirit7classic17position_iteratorIN9__gnu_cxx17__normal_iteratorIPKcSsEENS7_18file_position_baseISsEENS7_5nil_tEEEE8new_realEd@Base 0.47.2
 _ZN11json_spirit16Semantic_actionsINS_10Value_implINS_13Config_vectorISsEEEEN5boost6spirit7classic17position_iteratorIN9__gnu_cxx17__normal_iteratorIPKcSsEENS7_18file_position_baseISsEENS7_5nil_tEEEE8new_trueESH_SH_@Base 0.47.2
 _ZN11json_spirit16Semantic_actionsINS_10Value_implINS_13Config_vectorISsEEEEN5boost6spirit7classic17position_iteratorIN9__gnu_cxx17__normal_iteratorIPKcSsEENS7_18file_position_baseISsEENS7_5nil_tEEEE9begin_objEc@Base 0.47.2
 _ZN11json_spirit16Semantic_actionsINS_10Value_implINS_13Config_vectorISsEEEEN5boost6spirit7classic17position_iteratorIN9__gnu_cxx17__normal_iteratorIPKcSsEENS7_18file_position_baseISsEENS7_5nil_tEEEE9end_arrayEc@Base 0.47.2
 _ZN11json_spirit16Semantic_actionsINS_10Value_implINS_13Config_vectorISsEEEEN5boost6spirit7classic17position_iteratorIN9__gnu_cxx17__normal_iteratorIPKcSsEENS7_18file_position_baseISsEENS7_5nil_tEEEE9new_falseESH_SH_@Base 0.47.2
 _ZN11json_spirit16Semantic_actionsINS_10Value_implINS_13Config_vectorISsEEEEN5boost6spirit7classic17position_iteratorIN9__gnu_cxx17__normal_iteratorIPKcSsEENS7_18file_position_baseISsEENS7_5nil_tEEEED1Ev@Base 0.47.2
 _ZN11json_spirit16Semantic_actionsINS_10Value_implINS_13Config_vectorISsEEEEN5boost6spirit7classic17position_iteratorIN9__gnu_cxx17__normal_iteratorIPKcSsEENS7_18file_position_baseISsEENS7_5nil_tEEEED2Ev@Base 0.47.2
 _ZN11json_spirit16Semantic_actionsINS_10Value_implINS_13Config_vectorISsEEEEN5boost6spirit7classic17position_iteratorINS7_10multi_passISt16istream_iteratorIccSt11char_traitsIcElENS7_19multi_pass_policies14input_iteratorENSE_11ref_countedENSE_12buf_id_checkENSE_9std_dequeEEENS7_18file_position_baseISsEENS7_5nil_tEEEE10new_uint64Em@Base 0.47.2
 _ZN11json_spirit16Semantic_actionsINS_10Value_implINS_13Config_vectorISsEEEEN5boost6spirit7classic17position_iteratorINS7_10multi_passISt16istream_iteratorIccSt11char_traitsIcElENS7_19multi_pass_policies14input_iteratorENSE_11ref_countedENSE_12buf_id_checkENSE_9std_dequeEEENS7_18file_position_baseISsEENS7_5nil_tEEEE11begin_arrayEc@Base 0.47.2
 _ZN11json_spirit16Semantic_actionsINS_10Value_implINS_13Config_vectorISsEEEEN5boost6spirit7classic17position_iteratorINS7_10multi_passISt16istream_iteratorIccSt11char_traitsIcElENS7_19multi_pass_policies14input_iteratorENSE_11ref_countedENSE_12buf_id_checkENSE_9std_dequeEEENS7_18file_position_baseISsEENS7_5nil_tEEEE14add_to_currentERKS4_@Base 0.47.2
 _ZN11json_spirit16Semantic_actionsINS_10Value_implINS_13Config_vectorISsEEEEN5boost6spirit7classic17position_iteratorINS7_10multi_passISt16istream_iteratorIccSt11char_traitsIcElENS7_19multi_pass_policies14input_iteratorENSE_11ref_countedENSE_12buf_id_checkENSE_9std_dequeEEENS7_18file_position_baseISsEENS7_5nil_tEEEE14begin_compoundISt6vectorINS_9Pair_implIS3_EESaISS_EEEEvv@Base 0.47.2
 _ZN11json_spirit16Semantic_actionsINS_10Value_implINS_13Config_vectorISsEEEEN5boost6spirit7classic17position_iteratorINS7_10multi_passISt16istream_iteratorIccSt11char_traitsIcElENS7_19multi_pass_policies14input_iteratorENSE_11ref_countedENSE_12buf_id_checkENSE_9std_dequeEEENS7_18file_position_baseISsEENS7_5nil_tEEEE14begin_compoundISt6vectorIS4_SaIS4_EEEEvv@Base 0.47.2
 _ZN11json_spirit16Semantic_actionsINS_10Value_implINS_13Config_vectorISsEEEEN5boost6spirit7classic17position_iteratorINS7_10multi_passISt16istream_iteratorIccSt11char_traitsIcElENS7_19multi_pass_policies14input_iteratorENSE_11ref_countedENSE_12buf_id_checkENSE_9std_dequeEEENS7_18file_position_baseISsEENS7_5nil_tEEEE7end_objEc@Base 0.47.2
 _ZN11json_spirit16Semantic_actionsINS_10Value_implINS_13Config_vectorISsEEEEN5boost6spirit7classic17position_iteratorINS7_10multi_passISt16istream_iteratorIccSt11char_traitsIcElENS7_19multi_pass_policies14input_iteratorENSE_11ref_countedENSE_12buf_id_checkENSE_9std_dequeEEENS7_18file_position_baseISsEENS7_5nil_tEEEE7new_intEl@Base 0.47.2
 _ZN11json_spirit16Semantic_actionsINS_10Value_implINS_13Config_vectorISsEEEEN5boost6spirit7classic17position_iteratorINS7_10multi_passISt16istream_iteratorIccSt11char_traitsIcElENS7_19multi_pass_policies14input_iteratorENSE_11ref_countedENSE_12buf_id_checkENSE_9std_dequeEEENS7_18file_position_baseISsEENS7_5nil_tEEEE7new_strESN_SN_@Base 0.47.2
 _ZN11json_spirit16Semantic_actionsINS_10Value_implINS_13Config_vectorISsEEEEN5boost6spirit7classic17position_iteratorINS7_10multi_passISt16istream_iteratorIccSt11char_traitsIcElENS7_19multi_pass_policies14input_iteratorENSE_11ref_countedENSE_12buf_id_checkENSE_9std_dequeEEENS7_18file_position_baseISsEENS7_5nil_tEEEE8new_nameESN_SN_@Base 0.47.2
 _ZN11json_spirit16Semantic_actionsINS_10Value_implINS_13Config_vectorISsEEEEN5boost6spirit7classic17position_iteratorINS7_10multi_passISt16istream_iteratorIccSt11char_traitsIcElENS7_19multi_pass_policies14input_iteratorENSE_11ref_countedENSE_12buf_id_checkENSE_9std_dequeEEENS7_18file_position_baseISsEENS7_5nil_tEEEE8new_nullESN_SN_@Base 0.47.2
 _ZN11json_spirit16Semantic_actionsINS_10Value_implINS_13Config_vectorISsEEEEN5boost6spirit7classic17position_iteratorINS7_10multi_passISt16istream_iteratorIccSt11char_traitsIcElENS7_19multi_pass_policies14input_iteratorENSE_11ref_countedENSE_12buf_id_checkENSE_9std_dequeEEENS7_18file_position_baseISsEENS7_5nil_tEEEE8new_realEd@Base 0.47.2
 _ZN11json_spirit16Semantic_actionsINS_10Value_implINS_13Config_vectorISsEEEEN5boost6spirit7classic17position_iteratorINS7_10multi_passISt16istream_iteratorIccSt11char_traitsIcElENS7_19multi_pass_policies14input_iteratorENSE_11ref_countedENSE_12buf_id_checkENSE_9std_dequeEEENS7_18file_position_baseISsEENS7_5nil_tEEEE8new_trueESN_SN_@Base 0.47.2
 _ZN11json_spirit16Semantic_actionsINS_10Value_implINS_13Config_vectorISsEEEEN5boost6spirit7classic17position_iteratorINS7_10multi_passISt16istream_iteratorIccSt11char_traitsIcElENS7_19multi_pass_policies14input_iteratorENSE_11ref_countedENSE_12buf_id_checkENSE_9std_dequeEEENS7_18file_position_baseISsEENS7_5nil_tEEEE9begin_objEc@Base 0.47.2
 _ZN11json_spirit16Semantic_actionsINS_10Value_implINS_13Config_vectorISsEEEEN5boost6spirit7classic17position_iteratorINS7_10multi_passISt16istream_iteratorIccSt11char_traitsIcElENS7_19multi_pass_policies14input_iteratorENSE_11ref_countedENSE_12buf_id_checkENSE_9std_dequeEEENS7_18file_position_baseISsEENS7_5nil_tEEEE9end_arrayEc@Base 0.47.2
 _ZN11json_spirit16Semantic_actionsINS_10Value_implINS_13Config_vectorISsEEEEN5boost6spirit7classic17position_iteratorINS7_10multi_passISt16istream_iteratorIccSt11char_traitsIcElENS7_19multi_pass_policies14input_iteratorENSE_11ref_countedENSE_12buf_id_checkENSE_9std_dequeEEENS7_18file_position_baseISsEENS7_5nil_tEEEE9new_falseESN_SN_@Base 0.47.2
 _ZN11json_spirit16Semantic_actionsINS_10Value_implINS_13Config_vectorISsEEEEN5boost6spirit7classic17position_iteratorINS7_10multi_passISt16istream_iteratorIccSt11char_traitsIcElENS7_19multi_pass_policies14input_iteratorENSE_11ref_countedENSE_12buf_id_checkENSE_9std_dequeEEENS7_18file_position_baseISsEENS7_5nil_tEEEED1Ev@Base 0.47.2
 _ZN11json_spirit16Semantic_actionsINS_10Value_implINS_13Config_vectorISsEEEEN5boost6spirit7classic17position_iteratorINS7_10multi_passISt16istream_iteratorIccSt11char_traitsIcElENS7_19multi_pass_policies14input_iteratorENSE_11ref_countedENSE_12buf_id_checkENSE_9std_dequeEEENS7_18file_position_baseISsEENS7_5nil_tEEEED2Ev@Base 0.47.2
 _ZN11json_spirit16Semantic_actionsINS_10Value_implINS_13Config_vectorISsEEEEN9__gnu_cxx17__normal_iteratorIPKcSsEEE10new_uint64Em@Base 0.47.2
 _ZN11json_spirit16Semantic_actionsINS_10Value_implINS_13Config_vectorISsEEEEN9__gnu_cxx17__normal_iteratorIPKcSsEEE11begin_arrayEc@Base 0.47.2
 _ZN11json_spirit16Semantic_actionsINS_10Value_implINS_13Config_vectorISsEEEEN9__gnu_cxx17__normal_iteratorIPKcSsEEE14add_to_currentERKS4_@Base 0.47.2
 _ZN11json_spirit16Semantic_actionsINS_10Value_implINS_13Config_vectorISsEEEEN9__gnu_cxx17__normal_iteratorIPKcSsEEE14begin_compoundISt6vectorINS_9Pair_implIS3_EESaISE_EEEEvv@Base 0.47.2
 _ZN11json_spirit16Semantic_actionsINS_10Value_implINS_13Config_vectorISsEEEEN9__gnu_cxx17__normal_iteratorIPKcSsEEE14begin_compoundISt6vectorIS4_SaIS4_EEEEvv@Base 0.47.2
 _ZN11json_spirit16Semantic_actionsINS_10Value_implINS_13Config_vectorISsEEEEN9__gnu_cxx17__normal_iteratorIPKcSsEEE7end_objEc@Base 0.47.2
 _ZN11json_spirit16Semantic_actionsINS_10Value_implINS_13Config_vectorISsEEEEN9__gnu_cxx17__normal_iteratorIPKcSsEEE7new_intEl@Base 0.47.2
 _ZN11json_spirit16Semantic_actionsINS_10Value_implINS_13Config_vectorISsEEEEN9__gnu_cxx17__normal_iteratorIPKcSsEEE7new_strES9_S9_@Base 0.47.2
 _ZN11json_spirit16Semantic_actionsINS_10Value_implINS_13Config_vectorISsEEEEN9__gnu_cxx17__normal_iteratorIPKcSsEEE8new_nameES9_S9_@Base 0.47.2
 _ZN11json_spirit16Semantic_actionsINS_10Value_implINS_13Config_vectorISsEEEEN9__gnu_cxx17__normal_iteratorIPKcSsEEE8new_nullES9_S9_@Base 0.47.2
 _ZN11json_spirit16Semantic_actionsINS_10Value_implINS_13Config_vectorISsEEEEN9__gnu_cxx17__normal_iteratorIPKcSsEEE8new_realEd@Base 0.47.2
 _ZN11json_spirit16Semantic_actionsINS_10Value_implINS_13Config_vectorISsEEEEN9__gnu_cxx17__normal_iteratorIPKcSsEEE8new_trueES9_S9_@Base 0.47.2
 _ZN11json_spirit16Semantic_actionsINS_10Value_implINS_13Config_vectorISsEEEEN9__gnu_cxx17__normal_iteratorIPKcSsEEE9begin_objEc@Base 0.47.2
 _ZN11json_spirit16Semantic_actionsINS_10Value_implINS_13Config_vectorISsEEEEN9__gnu_cxx17__normal_iteratorIPKcSsEEE9end_arrayEc@Base 0.47.2
 _ZN11json_spirit16Semantic_actionsINS_10Value_implINS_13Config_vectorISsEEEEN9__gnu_cxx17__normal_iteratorIPKcSsEEE9new_falseES9_S9_@Base 0.47.2
 _ZN11json_spirit16Semantic_actionsINS_10Value_implINS_13Config_vectorISsEEEEN9__gnu_cxx17__normal_iteratorIPKcSsEEED1Ev@Base 0.47.2
 _ZN11json_spirit16Semantic_actionsINS_10Value_implINS_13Config_vectorISsEEEEN9__gnu_cxx17__normal_iteratorIPKcSsEEED2Ev@Base 0.47.2
 _ZN11json_spirit19read_range_or_throwIN5boost6spirit7classic10multi_passISt16istream_iteratorIccSt11char_traitsIcElENS3_19multi_pass_policies14input_iteratorENS9_11ref_countedENS9_12buf_id_checkENS9_9std_dequeEEENS_10Value_implINS_13Config_vectorISsEEEEEET_SJ_SJ_RT0_@Base 0.47.2
 _ZN11json_spirit19read_range_or_throwIN5boost6spirit7classic17position_iteratorIN9__gnu_cxx17__normal_iteratorIPKcSsEENS3_18file_position_baseISsEENS3_5nil_tEEENS_10Value_implINS_13Config_vectorISsEEEEEET_SI_SI_RT0_@Base 0.47.2
 _ZN11json_spirit19read_range_or_throwIN5boost6spirit7classic17position_iteratorINS3_10multi_passISt16istream_iteratorIccSt11char_traitsIcElENS3_19multi_pass_policies14input_iteratorENSA_11ref_countedENSA_12buf_id_checkENSA_9std_dequeEEENS3_18file_position_baseISsEENS3_5nil_tEEENS_10Value_implINS_13Config_vectorISsEEEEEET_SO_SO_RT0_@Base 0.47.2
 _ZN11json_spirit19read_range_or_throwIN9__gnu_cxx17__normal_iteratorIPKcSsEENS_10Value_implINS_13Config_vectorISsEEEEEET_SA_SA_RT0_@Base 0.47.2
 _ZN11json_spirit19unicode_str_to_charIcN9__gnu_cxx17__normal_iteratorIPKcSsEEEET_RT0_@Base 0.47.2
 _ZN11json_spirit20read_stream_or_throwISiNS_10Value_implINS_13Config_vectorISsEEEEEEvRT_RT0_@Base 0.47.2
 _ZN11json_spirit20substitute_esc_charsISsEET_NS1_14const_iteratorES2_@Base 0.47.2
 _ZN11json_spirit23non_printable_to_stringISsEET_j@Base 0.47.2
 _ZN11json_spirit26erase_and_extract_exponentISsEEvRT_S2_@Base 0.47.2
 _ZN11json_spirit29append_esc_char_and_incr_iterISsEEvRT_RNS1_14const_iteratorES3_@Base 0.47.2
 _ZN11json_spirit37add_posn_iter_and_read_range_or_throwIN5boost6spirit7classic10multi_passISt16istream_iteratorIccSt11char_traitsIcElENS3_19multi_pass_policies14input_iteratorENS9_11ref_countedENS9_12buf_id_checkENS9_9std_dequeEEENS_10Value_implINS_13Config_vectorISsEEEEEEvT_SJ_RT0_@Base 0.47.2
 _ZN11json_spirit37add_posn_iter_and_read_range_or_throwIN9__gnu_cxx17__normal_iteratorIPKcSsEENS_10Value_implINS_13Config_vectorISsEEEEEEvT_SA_RT0_@Base 0.47.2
 _ZN11json_spirit4readERKSsRNS_10Value_implINS_13Config_vectorISsEEEE@Base 0.47.2
 _ZN11json_spirit4readERN9__gnu_cxx17__normal_iteratorIPKcSsEES4_RNS_10Value_implINS_13Config_vectorISsEEEE@Base 0.47.2
 _ZN11json_spirit4readERSiRNS_10Value_implINS_13Config_vectorISsEEEE@Base 0.47.2
 _ZN11json_spirit5is_eqIN5boost6spirit7classic10multi_passISt16istream_iteratorIccSt11char_traitsIcElENS3_19multi_pass_policies14input_iteratorENS9_11ref_countedENS9_12buf_id_checkENS9_9std_dequeEEEEEbT_SF_PKc@Base 0.47.2
 _ZN11json_spirit5is_eqIN5boost6spirit7classic17position_iteratorIN9__gnu_cxx17__normal_iteratorIPKcSsEENS3_18file_position_baseISsEENS3_5nil_tEEEEEbT_SE_S8_@Base 0.47.2
 _ZN11json_spirit5is_eqIN5boost6spirit7classic17position_iteratorINS3_10multi_passISt16istream_iteratorIccSt11char_traitsIcElENS3_19multi_pass_policies14input_iteratorENSA_11ref_countedENSA_12buf_id_checkENSA_9std_dequeEEENS3_18file_position_baseISsEENS3_5nil_tEEEEEbT_SK_PKc@Base 0.47.2
 _ZN11json_spirit5writeERKNS_10Value_implINS_13Config_vectorISsEEEERSoj@Base 0.47.2
 _ZN11json_spirit5writeERKNS_10Value_implINS_13Config_vectorISsEEEEj@Base 0.47.2
 _ZN11json_spirit6to_strISsEET_PKc@Base 0.47.2
 _ZN11json_spirit7get_strISsN5boost6spirit7classic10multi_passISt16istream_iteratorIccSt11char_traitsIcElENS3_19multi_pass_policies14input_iteratorENS9_11ref_countedENS9_12buf_id_checkENS9_9std_dequeEEEEET_T0_SG_@Base 0.47.2
 _ZN11json_spirit7get_strISsN5boost6spirit7classic17position_iteratorIN9__gnu_cxx17__normal_iteratorIPKcSsEENS3_18file_position_baseISsEENS3_5nil_tEEEEET_T0_SF_@Base 0.47.2
 _ZN11json_spirit7get_strISsN5boost6spirit7classic17position_iteratorINS3_10multi_passISt16istream_iteratorIccSt11char_traitsIcElENS3_19multi_pass_policies14input_iteratorENSA_11ref_countedENSA_12buf_id_checkENSA_9std_dequeEEENS3_18file_position_baseISsEENS3_5nil_tEEEEET_T0_SL_@Base 0.47.2
 _ZN11json_spirit7get_strISsN9__gnu_cxx17__normal_iteratorIPKcSsEEEET_T0_S7_@Base 0.47.2
 _ZN11json_spirit8get_str_ISsEET_NS1_14const_iteratorES2_@Base 0.47.2
 _ZN11json_spirit9GeneratorINS_10Value_implINS_13Config_vectorISsEEEESoE19output_array_or_objISt6vectorINS_9Pair_implIS3_EESaIS9_EEEEvRKT_cc@Base 0.47.2
 _ZN11json_spirit9GeneratorINS_10Value_implINS_13Config_vectorISsEEEESoE19output_array_or_objISt6vectorIS4_SaIS4_EEEEvRKT_cc@Base 0.47.2
 _ZN11json_spirit9GeneratorINS_10Value_implINS_13Config_vectorISsEEEESoE6outputERKSt6vectorIS4_SaIS4_EE@Base 0.47.2
 _ZN11json_spirit9GeneratorINS_10Value_implINS_13Config_vectorISsEEEESoE6outputEd@Base 0.47.2
 _ZN11json_spirit9GeneratorINS_10Value_implINS_13Config_vectorISsEEEESt19basic_ostringstreamIcSt11char_traitsIcESaIcEEE19output_array_or_objISt6vectorINS_9Pair_implIS3_EESaISE_EEEEvRKT_cc@Base 0.47.2
 _ZN11json_spirit9GeneratorINS_10Value_implINS_13Config_vectorISsEEEESt19basic_ostringstreamIcSt11char_traitsIcESaIcEEE19output_array_or_objISt6vectorIS4_SaIS4_EEEEvRKT_cc@Base 0.47.2
 _ZN11json_spirit9GeneratorINS_10Value_implINS_13Config_vectorISsEEEESt19basic_ostringstreamIcSt11char_traitsIcESaIcEEE6outputERKSt6vectorIS4_SaIS4_EE@Base 0.47.2
 _ZN11json_spirit9GeneratorINS_10Value_implINS_13Config_vectorISsEEEESt19basic_ostringstreamIcSt11char_traitsIcESaIcEEE6outputEd@Base 0.47.2
 _ZN11json_spirit9Pair_implINS_13Config_vectorISsEEEC1ERKS3_@Base 0.47.2
 _ZN11json_spirit9Pair_implINS_13Config_vectorISsEEEC1ERKSsRKNS_10Value_implIS2_EE@Base 0.47.2
 _ZN11json_spirit9Pair_implINS_13Config_vectorISsEEEC2ERKS3_@Base 0.47.2
 _ZN11json_spirit9Pair_implINS_13Config_vectorISsEEEC2ERKSsRKNS_10Value_implIS2_EE@Base 0.47.2
 _ZN11json_spirit9Pair_implINS_13Config_vectorISsEEED1Ev@Base 0.47.2
 _ZN11json_spirit9Pair_implINS_13Config_vectorISsEEED2Ev@Base 0.47.2
 _ZN11json_spirit9Pair_implINS_13Config_vectorISsEEEaSERKS3_@Base 0.47.2
 _ZN11md_config_t10injectargsERKSsPSo@Base 0.47.2
 _ZN11md_config_t10parse_argvERSt6vectorIPKcSaIS2_EE@Base 0.47.2
 _ZN11md_config_t11init_subsysEv@Base 0.47.2
 _ZN11md_config_t11set_val_rawEPKcPK13config_option@Base 0.47.2
 _ZN11md_config_t11show_configEPN4ceph9FormatterE@Base 0.58
 _ZN11md_config_t11show_configERSo@Base 0.47.2
 _ZN11md_config_t12_show_configEPSoPN4ceph9FormatterE@Base 0.58
 _ZN11md_config_t12add_observerEP15md_config_obs_t@Base 0.47.2
 _ZN11md_config_t12parse_optionERSt6vectorIPKcSaIS2_EERN9__gnu_cxx17__normal_iteratorIPS2_S4_EEPSo@Base 0.47.2
 _ZN11md_config_t12set_val_implEPKcPK13config_option@Base 0.47.2
 _ZN11md_config_t13apply_changesEPSo@Base 0.47.2
 _ZN11md_config_t14_apply_changesEPSo@Base 0.47.2
 _ZN11md_config_t14set_val_or_dieEPKcS1_@Base 0.47.2
 _ZN11md_config_t15_internal_fieldERKSs@Base 0.58
 _ZN11md_config_t15expand_all_metaEv@Base 0.47.2
 _ZN11md_config_t15remove_observerEP15md_config_obs_t@Base 0.47.2
 _ZN11md_config_t16parse_injectargsERSt6vectorIPKcSaIS2_EEPSo@Base 0.47.2
 _ZN11md_config_t18call_all_observersEv@Base 0.47.2
 _ZN11md_config_t18parse_config_filesEPKcPSt5dequeISsSaISsEEPSoi@Base 0.58
 _ZN11md_config_t23parse_config_files_implERKSt4listISsSaISsEEPSt5dequeISsS1_EPSo@Base 0.58
 _ZN11md_config_t7set_valEPKcS1_b@Base 0.48
 _ZN11md_config_t9parse_envEv@Base 0.47.2
 _ZN11md_config_tC1Ev@Base 0.47.2
 _ZN11md_config_tC2Ev@Base 0.47.2
 _ZN11md_config_tD1Ev@Base 0.47.2
 _ZN11md_config_tD2Ev@Base 0.47.2
 _ZN11nest_info_t23generate_test_instancesERSt4listIPS_SaIS1_EE@Base 0.58
 _ZN11nest_info_t6decodeERN4ceph6buffer4list8iteratorE@Base 0.58
 _ZN11old_inode_t23generate_test_instancesERSt4listIPS_SaIS1_EE@Base 0.58
 _ZN11old_inode_t6decodeERN4ceph6buffer4list8iteratorE@Base 0.58
 _ZN11old_rstat_t23generate_test_instancesERSt4listIPS_SaIS1_EE@Base 0.58
 _ZN11old_rstat_t6decodeERN4ceph6buffer4list8iteratorE@Base 0.58
 _ZN11osd_reqid_t23generate_test_instancesERSt4listIPS_SaIS1_EE@Base 0.47.2
 _ZN11osd_reqid_t6decodeERN4ceph6buffer4list8iteratorE@Base 0.47.2
 _ZN11osd_xinfo_t23generate_test_instancesERSt4listIPS_SaIS1_EE@Base 0.58
 _ZN11osd_xinfo_t6decodeERN4ceph6buffer4list8iteratorE@Base 0.58
 _ZN11pg_create_t23generate_test_instancesERSt4listIPS_SaIS1_EE@Base 0.47.2
 _ZN11pg_create_t6decodeERN4ceph6buffer4list8iteratorE@Base 0.47.2
 _ZN11pg_notify_t23generate_test_instancesERSt4listIPS_SaIS1_EE@Base 0.58
 _ZN11pg_notify_t6decodeERN4ceph6buffer4list8iteratorE@Base 0.58
 _ZN11pool_stat_t23generate_test_instancesERSt4listIPS_SaIS1_EE@Base 0.47.2
 _ZN11pool_stat_t6decodeERN4ceph6buffer4list8iteratorE@Base 0.47.2
 _ZN11pool_stat_tD1Ev@Base 0.47.2
 _ZN11pool_stat_tD2Ev@Base 0.47.2
 _ZN12C_PurgeRange6finishEi@Base 0.47.2
 _ZN12C_PurgeRangeD0Ev@Base 0.47.2
 _ZN12C_PurgeRangeD1Ev@Base 0.47.2
 _ZN12C_PurgeRangeD2Ev@Base 0.47.2
 _ZN12CrushWrapper11get_item_idEPKc@Base 0.47.2
 _ZN12CrushWrapper11get_item_idERKSs@Base 0.58
 _ZN12CrushWrapper11get_type_idEPKc@Base 0.58
 _ZN12CrushWrapper11insert_itemEP11CephContextifSsRKSt3mapISsSsSt4lessISsESaISt4pairIKSsSsEEE@Base 0.58
 _ZN12CrushWrapper11move_bucketEP11CephContextiRKSt3mapISsSsSt4lessISsESaISt4pairIKSsSsEEE@Base 0.58
 _ZN12CrushWrapper11remove_itemEP11CephContexti@Base 0.47.2
 _ZN12CrushWrapper11remove_ruleEi@Base 0.58
 _ZN12CrushWrapper11update_itemEP11CephContextifSsRKSt3mapISsSsSt4lessISsESaISt4pairIKSsSsEEE@Base 0.58
 _ZN12CrushWrapper12get_childrenEiPSt4listIiSaIiEE@Base 0.58
 _ZN12CrushWrapper13detach_bucketEP11CephContexti@Base 0.58
 _ZN12CrushWrapper13set_item_nameEiPKc@Base 0.47.2
 _ZN12CrushWrapper13set_item_nameEiRKSs@Base 0.58
 _ZN12CrushWrapper13set_rule_nameEiPKc@Base 0.47.2
 _ZN12CrushWrapper13set_type_nameEiPKc@Base 0.47.2
 _ZN12CrushWrapper14check_item_locEP11CephContextiRKSt3mapISsSsSt4lessISsESaISt4pairIKSsSsEEEPi@Base 0.58
 _ZN12CrushWrapper15add_simple_ruleESsSsSs@Base 0.58
 _ZN12CrushWrapper15get_item_weightEi@Base 0.58
 _ZN12CrushWrapper17get_full_locationEi@Base 0.58
 _ZN12CrushWrapper18adjust_item_weightEP11CephContextii@Base 0.47.2
 _ZN12CrushWrapper18check_item_presentEi@Base 0.48
 _ZN12CrushWrapper19create_or_move_itemEP11CephContextifSsRKSt3mapISsSsSt4lessISsESaISt4pairIKSsSsEEE@Base 0.58
 _ZN12CrushWrapper19decode_crush_bucketEPP12crush_bucketRN4ceph6buffer4list8iteratorE@Base 0.47.2
 _ZN12CrushWrapper20get_immediate_parentEi@Base 0.58
 _ZN12CrushWrapper20get_parent_hierarchyEi@Base 0.58
 _ZN12CrushWrapper23generate_test_instancesERSt4listIPS_SaIS1_EE@Base 0.47.2
 _ZN12CrushWrapper23get_immediate_parent_idEiPi@Base 0.58
 _ZN12CrushWrapper26set_rule_step_choose_indepEjjii@Base 0.47.2
 _ZN12CrushWrapper27set_rule_step_choose_firstnEjjii@Base 0.47.2
 _ZN12CrushWrapper31set_rule_step_choose_leaf_indepEjjii@Base 0.47.2
 _ZN12CrushWrapper32set_rule_step_choose_leaf_firstnEjjii@Base 0.47.2
 _ZN12CrushWrapper6decodeERN4ceph6buffer4list8iteratorE@Base 0.47.2
 _ZN12CrushWrapper8reweightEP11CephContext@Base 0.47.2
 _ZN12CrushWrapperC1Ev@Base 0.47.2
 _ZN12CrushWrapperC2Ev@Base 0.47.2
 _ZN12CrushWrapperD1Ev@Base 0.47.2
 _ZN12CrushWrapperD2Ev@Base 0.47.2
 _ZN12DecayCounter23generate_test_instancesERSt4listIPS_SaIS1_EE@Base 0.58
 _ZN12DecayCounter5decayE7utime_tRK9DecayRate@Base 0.58
 _ZN12DecayCounter6decodeERK7utime_tRN4ceph6buffer4list8iteratorE@Base 0.58
 _ZN12MCacheExpire14decode_payloadEv@Base 0.47.2
 _ZN12MCacheExpire14encode_payloadEm@Base 0.47.2
 _ZN12MCacheExpire5realmC1ERKS0_@Base 0.47.2
 _ZN12MCacheExpire5realmC2ERKS0_@Base 0.47.2
 _ZN12MCacheExpire5realmD1Ev@Base 0.47.2
 _ZN12MCacheExpire5realmD2Ev@Base 0.47.2
 _ZN12MCacheExpireC1Ev@Base 0.47.2
 _ZN12MCacheExpireC2Ev@Base 0.47.2
 _ZN12MCacheExpireD0Ev@Base 0.47.2
 _ZN12MCacheExpireD1Ev@Base 0.47.2
 _ZN12MCacheExpireD2Ev@Base 0.47.2
 _ZN12MClientLease14decode_payloadEv@Base 0.47.2
 _ZN12MClientLease14encode_payloadEm@Base 0.47.2
 _ZN12MClientLeaseC1EijimmmRKSs@Base 0.47.2
 _ZN12MClientLeaseC1Ev@Base 0.47.2
 _ZN12MClientLeaseC2EijimmmRKSs@Base 0.47.2
 _ZN12MClientLeaseC2Ev@Base 0.47.2
 _ZN12MClientLeaseD0Ev@Base 0.47.2
 _ZN12MClientLeaseD1Ev@Base 0.47.2
 _ZN12MClientLeaseD2Ev@Base 0.47.2
 _ZN12MClientReply14decode_payloadEv@Base 0.47.2
 _ZN12MClientReply14encode_payloadEm@Base 0.47.2
 _ZN12MClientReplyC1Ev@Base 0.47.2
 _ZN12MClientReplyC2Ev@Base 0.47.2
 _ZN12MClientReplyD0Ev@Base 0.47.2
 _ZN12MClientReplyD1Ev@Base 0.47.2
 _ZN12MClientReplyD2Ev@Base 0.47.2
 _ZN12MMonElection14decode_payloadEv@Base 0.47.2
 _ZN12MMonElection14encode_payloadEm@Base 0.47.2
 _ZN12MMonElectionC1Ev@Base 0.47.2
 _ZN12MMonElectionC2Ev@Base 0.47.2
 _ZN12MMonElectionD0Ev@Base 0.47.2
 _ZN12MMonElectionD1Ev@Base 0.47.2
 _ZN12MMonElectionD2Ev@Base 0.47.2
 _ZN12MMonGlobalID14decode_payloadEv@Base 0.47.2
 _ZN12MMonGlobalID14encode_payloadEm@Base 0.47.2
 _ZN12MMonGlobalIDC1Ev@Base 0.47.2
 _ZN12MMonGlobalIDC2Ev@Base 0.47.2
 _ZN12MMonGlobalIDD0Ev@Base 0.47.2
 _ZN12MMonGlobalIDD1Ev@Base 0.47.2
 _ZN12MMonGlobalIDD2Ev@Base 0.47.2
 _ZN12MOSDPGCreate14decode_payloadEv@Base 0.47.2
 _ZN12MOSDPGCreate14encode_payloadEm@Base 0.47.2
 _ZN12MOSDPGCreateC1Ev@Base 0.47.2
 _ZN12MOSDPGCreateC2Ev@Base 0.47.2
 _ZN12MOSDPGCreateD0Ev@Base 0.47.2
 _ZN12MOSDPGCreateD1Ev@Base 0.47.2
 _ZN12MOSDPGCreateD2Ev@Base 0.47.2
 _ZN12MOSDPGNotify14decode_payloadEv@Base 0.47.2
 _ZN12MOSDPGNotify14encode_payloadEm@Base 0.47.2
 _ZN12MOSDPGNotifyC1Ev@Base 0.47.2
 _ZN12MOSDPGNotifyC2Ev@Base 0.47.2
 _ZN12MOSDPGNotifyD0Ev@Base 0.47.2
 _ZN12MOSDPGNotifyD1Ev@Base 0.47.2
 _ZN12MOSDPGNotifyD2Ev@Base 0.47.2
 _ZN12MOSDPGRemove14decode_payloadEv@Base 0.47.2
 _ZN12MOSDPGRemove14encode_payloadEm@Base 0.47.2
 _ZN12MOSDPGRemoveC1Ev@Base 0.47.2
 _ZN12MOSDPGRemoveC2Ev@Base 0.47.2
 _ZN12MOSDPGRemoveD0Ev@Base 0.47.2
 _ZN12MOSDPGRemoveD1Ev@Base 0.47.2
 _ZN12MOSDPGRemoveD2Ev@Base 0.47.2
 _ZN12MOSDRepScrub14decode_payloadEv@Base 0.47.2
 _ZN12MOSDRepScrub14encode_payloadEm@Base 0.47.2
 _ZN12MOSDRepScrubC1Ev@Base 0.47.2
 _ZN12MOSDRepScrubC2Ev@Base 0.47.2
 _ZN12MOSDRepScrubD0Ev@Base 0.47.2
 _ZN12MOSDRepScrubD1Ev@Base 0.47.2
 _ZN12MOSDRepScrubD2Ev@Base 0.47.2
 _ZN12MPoolOpReply14decode_payloadEv@Base 0.47.2
 _ZN12MPoolOpReply14encode_payloadEm@Base 0.47.2
 _ZN12MPoolOpReplyC1Ev@Base 0.47.2
 _ZN12MPoolOpReplyC2Ev@Base 0.47.2
 _ZN12MPoolOpReplyD0Ev@Base 0.47.2
 _ZN12MPoolOpReplyD1Ev@Base 0.47.2
 _ZN12MPoolOpReplyD2Ev@Base 0.47.2
 _ZN12MRemoveSnaps14decode_payloadEv@Base 0.47.2
 _ZN12MRemoveSnaps14encode_payloadEm@Base 0.47.2
 _ZN12MRemoveSnapsC1Ev@Base 0.47.2
 _ZN12MRemoveSnapsC2Ev@Base 0.47.2
 _ZN12MRemoveSnapsD0Ev@Base 0.47.2
 _ZN12MRemoveSnapsD1Ev@Base 0.47.2
 _ZN12MRemoveSnapsD2Ev@Base 0.47.2
 _ZN12MStatfsReply14decode_payloadEv@Base 0.47.2
 _ZN12MStatfsReply14encode_payloadEm@Base 0.47.2
 _ZN12MStatfsReplyC1Ev@Base 0.47.2
 _ZN12MStatfsReplyC2Ev@Base 0.47.2
 _ZN12MStatfsReplyD0Ev@Base 0.47.2
 _ZN12MStatfsReplyD1Ev@Base 0.47.2
 _ZN12MStatfsReplyD2Ev@Base 0.47.2
 _ZN12MWatchNotify14decode_payloadEv@Base 0.47.2
 _ZN12MWatchNotify14encode_payloadEm@Base 0.47.2
 _ZN12MWatchNotifyC1Ev@Base 0.47.2
 _ZN12MWatchNotifyC2Ev@Base 0.47.2
 _ZN12MWatchNotifyD0Ev@Base 0.47.2
 _ZN12MWatchNotifyD1Ev@Base 0.47.2
 _ZN12MWatchNotifyD2Ev@Base 0.47.2
 _ZN12ObjectCacher10BufferHead3getEv@Base 0.47.2
 _ZN12ObjectCacher10BufferHead3putEv@Base 0.47.2
 _ZN12ObjectCacher10BufferHeadC1EPNS_6ObjectE@Base 0.47.2
 _ZN12ObjectCacher10BufferHeadC2EPNS_6ObjectE@Base 0.47.2
 _ZN12ObjectCacher10BufferHeadD1Ev@Base 0.47.2
 _ZN12ObjectCacher10BufferHeadD2Ev@Base 0.47.2
 _ZN12ObjectCacher10file_writeEPNS_9ObjectSetEP16ceph_file_layoutRK11SnapContextlmRN4ceph6buffer4listE7utime_tiR5Mutex@Base 0.47.2
 _ZN12ObjectCacher10get_objectE9sobject_tPNS_9ObjectSetER16object_locator_t@Base 0.47.2
 _ZN12ObjectCacher10mark_dirtyEPNS_10BufferHeadE@Base 0.47.2
 _ZN12ObjectCacher10perf_startEv@Base 0.47.2
 _ZN12ObjectCacher11C_RetryRead6finishEi@Base 0.47.2
 _ZN12ObjectCacher11C_RetryReadD0Ev@Base 0.47.2
 _ZN12ObjectCacher11C_RetryReadD1Ev@Base 0.47.2
 _ZN12ObjectCacher11C_RetryReadD2Ev@Base 0.47.2
 _ZN12ObjectCacher11bh_stat_addEPNS_10BufferHeadE@Base 0.47.2
 _ZN12ObjectCacher11bh_stat_subEPNS_10BufferHeadE@Base 0.47.2
 _ZN12ObjectCacher11discard_setEPNS_9ObjectSetERSt6vectorI12ObjectExtentSaIS3_EE@Base 0.47.2
 _ZN12ObjectCacher11release_allEv@Base 0.47.2
 _ZN12ObjectCacher11release_setEPNS_9ObjectSetE@Base 0.47.2
 _ZN12ObjectCacher12C_ReadFinish6finishEi@Base 0.47.2
 _ZN12ObjectCacher12C_ReadFinishC1EPS_PNS_6ObjectElm@Base 0.59
 _ZN12ObjectCacher12C_ReadFinishC2EPS_PNS_6ObjectElm@Base 0.59
 _ZN12ObjectCacher12C_ReadFinishD0Ev@Base 0.47.2
 _ZN12ObjectCacher12C_ReadFinishD1Ev@Base 0.47.2
 _ZN12ObjectCacher12C_ReadFinishD2Ev@Base 0.47.2
 _ZN12ObjectCacher12bh_set_stateEPNS_10BufferHeadEi@Base 0.47.2
 _ZN12ObjectCacher12close_objectEPNS_6ObjectE@Base 0.47.2
 _ZN12ObjectCacher13C_WriteCommit6finishEi@Base 0.47.2
 _ZN12ObjectCacher13C_WriteCommitD0Ev@Base 0.47.2
 _ZN12ObjectCacher13C_WriteCommitD1Ev@Base 0.47.2
 _ZN12ObjectCacher13C_WriteCommitD2Ev@Base 0.47.2
 _ZN12ObjectCacher13FlusherThread5entryEv@Base 0.47.2
 _ZN12ObjectCacher13FlusherThreadD0Ev@Base 0.47.2
 _ZN12ObjectCacher13FlusherThreadD1Ev@Base 0.47.2
 _ZN12ObjectCacher13FlusherThreadD2Ev@Base 0.47.2
 _ZN12ObjectCacher13flusher_entryEv@Base 0.47.2
 _ZN12ObjectCacher13set_is_cachedEPNS_9ObjectSetE@Base 0.47.2
 _ZN12ObjectCacher14bh_read_finishEl9sobject_tlmRN4ceph6buffer4listEib@Base 0.59
 _ZN12ObjectCacher14file_is_cachedEPNS_9ObjectSetEP16ceph_file_layout8snapid_tlm@Base 0.47.2
 _ZN12ObjectCacher15_wait_for_writeEPNS_8OSDWriteEmPNS_9ObjectSetER5Mutex@Base 0.47.2
 _ZN12ObjectCacher15bh_write_commitEl9sobject_tlmmi@Base 0.47.2
 _ZN12ObjectCacher18clear_nonexistenceEPNS_9ObjectSetE@Base 0.59
 _ZN12ObjectCacher26set_is_dirty_or_committingEPNS_9ObjectSetE@Base 0.47.2
 _ZN12ObjectCacher4stopEv@Base 0.47.2
 _ZN12ObjectCacher4trimEll@Base 0.58
 _ZN12ObjectCacher5flushEPNS_6ObjectEll@Base 0.47.2
 _ZN12ObjectCacher5flushEl@Base 0.47.2
 _ZN12ObjectCacher5purgeEPNS_6ObjectE@Base 0.47.2
 _ZN12ObjectCacher5readxEPNS_7OSDReadEPNS_9ObjectSetEP7Context@Base 0.47.2
 _ZN12ObjectCacher6Object10merge_leftEPNS_10BufferHeadES2_@Base 0.47.2
 _ZN12ObjectCacher6Object12try_merge_bhEPNS_10BufferHeadE@Base 0.47.2
 _ZN12ObjectCacher6Object13audit_buffersEv@Base 0.58
 _ZN12ObjectCacher6Object16data_lower_boundEl@Base 0.47.2
 _ZN12ObjectCacher6Object3getEv@Base 0.58
 _ZN12ObjectCacher6Object3putEv@Base 0.58
 _ZN12ObjectCacher6Object5splitEPNS_10BufferHeadEl@Base 0.47.2
 _ZN12ObjectCacher6Object6add_bhEPNS_10BufferHeadE@Base 0.47.2
 _ZN12ObjectCacher6Object7discardEll@Base 0.47.2
 _ZN12ObjectCacher6Object7get_oidEv@Base 0.47.2
 _ZN12ObjectCacher6Object8map_readEPNS_7OSDReadERSt3mapIlPNS_10BufferHeadESt4lessIlESaISt4pairIKlS5_EEESD_SD_SD_@Base 0.47.2
 _ZN12ObjectCacher6Object8truncateEl@Base 0.47.2
 _ZN12ObjectCacher6Object9is_cachedEll@Base 0.47.2
 _ZN12ObjectCacher6Object9map_writeEPNS_8OSDWriteE@Base 0.47.2
 _ZN12ObjectCacher6Object9remove_bhEPNS_10BufferHeadE@Base 0.47.2
 _ZN12ObjectCacher6ObjectC1EPS_9sobject_tPNS_9ObjectSetER16object_locator_t@Base 0.47.2
 _ZN12ObjectCacher6ObjectC2EPS_9sobject_tPNS_9ObjectSetER16object_locator_t@Base 0.47.2
 _ZN12ObjectCacher6ObjectD1Ev@Base 0.47.2
 _ZN12ObjectCacher6ObjectD2Ev@Base 0.47.2
 _ZN12ObjectCacher6_readxEPNS_7OSDReadEPNS_9ObjectSetEP7Contextb@Base 0.47.2
 _ZN12ObjectCacher6bh_addEPNS_6ObjectEPNS_10BufferHeadE@Base 0.47.2
 _ZN12ObjectCacher6writexEPNS_8OSDWriteEPNS_9ObjectSetER5Mutex@Base 0.47.2
 _ZN12ObjectCacher7OSDReadD1Ev@Base 0.47.2
 _ZN12ObjectCacher7OSDReadD2Ev@Base 0.47.2
 _ZN12ObjectCacher7bh_readEPNS_10BufferHeadE@Base 0.47.2
 _ZN12ObjectCacher7releaseEPNS_6ObjectE@Base 0.47.2
 _ZN12ObjectCacher8OSDWriteD1Ev@Base 0.47.2
 _ZN12ObjectCacher8OSDWriteD2Ev@Base 0.47.2
 _ZN12ObjectCacher8bh_writeEPNS_10BufferHeadE@Base 0.47.2
 _ZN12ObjectCacher9bh_removeEPNS_6ObjectEPNS_10BufferHeadE@Base 0.47.2
 _ZN12ObjectCacher9file_readEPNS_9ObjectSetEP16ceph_file_layout8snapid_tlmPN4ceph6buffer4listEiP7Context@Base 0.47.2
 _ZN12ObjectCacher9flush_setEPNS_9ObjectSetEP7Context@Base 0.47.2
 _ZN12ObjectCacher9flush_setEPNS_9ObjectSetERSt6vectorI12ObjectExtentSaIS3_EEP7Context@Base 0.47.2
 _ZN12ObjectCacher9is_cachedEPNS_9ObjectSetERSt6vectorI12ObjectExtentSaIS3_EE8snapid_t@Base 0.47.2
 _ZN12ObjectCacher9perf_stopEv@Base 0.47.2
 _ZN12ObjectCacher9purge_setEPNS_9ObjectSetE@Base 0.47.2
 _ZN12ObjectCacherC1EP11CephContextSsR16WritebackHandlerR5MutexPFvPvPNS_9ObjectSetEES6_mmmmd@Base 0.58
 _ZN12ObjectCacherC2EP11CephContextSsR16WritebackHandlerR5MutexPFvPvPNS_9ObjectSetEES6_mmmmd@Base 0.58
 _ZN12ObjectCacherD1Ev@Base 0.47.2
 _ZN12ObjectCacherD2Ev@Base 0.47.2
 _ZN12ObjectExtentC1ERKS_@Base 0.47.2
 _ZN12ObjectExtentC2ERKS_@Base 0.47.2
 _ZN12ObjectExtentD1Ev@Base 0.47.2
 _ZN12ObjectExtentD2Ev@Base 0.47.2
 _ZN12ObjectExtentaSERKS_@Base 0.47.2
 _ZN12PerfCounters17write_json_to_bufERN4ceph6buffer4listEb@Base 0.48
 _ZN12PerfCounters23perf_counter_data_any_dC1Ev@Base 0.47.2
 _ZN12PerfCounters23perf_counter_data_any_dC2Ev@Base 0.47.2
 _ZN12PerfCounters3decEim@Base 0.58
 _ZN12PerfCounters3incEim@Base 0.47.2
 _ZN12PerfCounters3setEim@Base 0.47.2
 _ZN12PerfCounters4tincEi7utime_t@Base 0.58
 _ZN12PerfCounters4tsetEi7utime_t@Base 0.58
 _ZN12PerfCountersC1EP11CephContextRKSsii@Base 0.47.2
 _ZN12PerfCountersC2EP11CephContextRKSsii@Base 0.47.2
 _ZN12PerfCountersD1Ev@Base 0.47.2
 _ZN12PerfCountersD2Ev@Base 0.47.2
 _ZN12dir_result_t5resetEv@Base 0.47.2
 _ZN12dir_result_t9next_fragEv@Base 0.47.2
 _ZN12dir_result_tC1EP5Inode@Base 0.47.2
 _ZN12dir_result_tC2EP5Inode@Base 0.47.2
 _ZN12dir_result_tD1Ev@Base 0.47.2
 _ZN12dir_result_tD2Ev@Base 0.47.2
 _ZN12interval_setI8snapid_tE10find_adj_mES0_@Base 0.47.2
 _ZN12interval_setI8snapid_tE13decode_noheadEiRN4ceph6buffer4list8iteratorE@Base 0.47.2
 _ZN12interval_setI8snapid_tE6decodeERN4ceph6buffer4list8iteratorE@Base 0.47.2
 _ZN12interval_setI8snapid_tE6insertES0_S0_@Base 0.47.2
 _ZN12interval_setI8snapid_tED1Ev@Base 0.47.2
 _ZN12interval_setI8snapid_tED2Ev@Base 0.47.2
 _ZN12interval_setI9inodeno_tE10find_adj_mES0_@Base 0.58
 _ZN12interval_setI9inodeno_tE6decodeERN4ceph6buffer4list8iteratorE@Base 0.58
 _ZN12interval_setI9inodeno_tE6insertERKS1_@Base 0.58
 _ZN12interval_setI9inodeno_tE6insertES0_S0_@Base 0.58
 _ZN12interval_setIiE10find_adj_mEi@Base 0.47.2
 _ZN12interval_setIiE10find_inc_mEi@Base 0.47.2
 _ZN12interval_setIiE5eraseEii@Base 0.47.2
 _ZN12interval_setIiE6insertEii@Base 0.47.2
 _ZN12interval_setIiED1Ev@Base 0.47.2
 _ZN12interval_setIiED2Ev@Base 0.47.2
 _ZN12interval_setImE6decodeERN4ceph6buffer4list8iteratorE@Base 0.47.2
 _ZN12interval_setImED1Ev@Base 0.47.2
 _ZN12interval_setImED2Ev@Base 0.47.2
 _ZN12pg_history_t23generate_test_instancesERSt4listIPS_SaIS1_EE@Base 0.47.2
 _ZN12pg_history_t6decodeERN4ceph6buffer4list8iteratorE@Base 0.47.2
 _ZN12pg_missing_t10split_intoE4pg_tjPS_@Base 0.58
 _ZN12pg_missing_t11revise_haveE9hobject_t10eversion_t@Base 0.48
 _ZN12pg_missing_t11revise_needE9hobject_t10eversion_t@Base 0.47.2
 _ZN12pg_missing_t14add_next_eventERK14pg_log_entry_t@Base 0.47.2
 _ZN12pg_missing_t23generate_test_instancesERSt4listIPS_SaIS1_EE@Base 0.47.2
 _ZN12pg_missing_t2rmERK9hobject_t10eversion_t@Base 0.47.2
 _ZN12pg_missing_t2rmERKSt17_Rb_tree_iteratorISt4pairIK9hobject_tNS_4itemEEE@Base 0.47.2
 _ZN12pg_missing_t3addERK9hobject_t10eversion_tS3_@Base 0.47.2
 _ZN12pg_missing_t3gotERK9hobject_t10eversion_t@Base 0.47.2
 _ZN12pg_missing_t3gotERKSt17_Rb_tree_iteratorISt4pairIK9hobject_tNS_4itemEEE@Base 0.47.2
 _ZN12pg_missing_t4swapERS_@Base 0.47.2
 _ZN12pg_missing_t6decodeERN4ceph6buffer4list8iteratorEl@Base 0.48
 _ZN12watch_info_t23generate_test_instancesERSt4listIPS_SaIS1_EE@Base 0.47.2
 _ZN12watch_info_t6decodeERN4ceph6buffer4list8iteratorE@Base 0.47.2
 _ZN13CrushCompiler10float_nodeERN5boost6spirit9tree_nodeINS1_13node_val_dataIPKcNS1_5nil_tEEEEE@Base 0.47.2
 _ZN13CrushCompiler10parse_ruleERKN9__gnu_cxx17__normal_iteratorIPN5boost6spirit9tree_nodeINS3_13node_val_dataIPKcNS3_5nil_tEEEEESt6vectorISA_SaISA_EEEE@Base 0.47.2
 _ZN13CrushCompiler11parse_crushERKN9__gnu_cxx17__normal_iteratorIPN5boost6spirit9tree_nodeINS3_13node_val_dataIPKcNS3_5nil_tEEEEESt6vectorISA_SaISA_EEEE@Base 0.47.2
 _ZN13CrushCompiler11string_nodeERN5boost6spirit9tree_nodeINS1_13node_val_dataIPKcNS1_5nil_tEEEEE@Base 0.47.2
 _ZN13CrushCompiler12parse_bucketERKN9__gnu_cxx17__normal_iteratorIPN5boost6spirit9tree_nodeINS3_13node_val_dataIPKcNS3_5nil_tEEEEESt6vectorISA_SaISA_EEEE@Base 0.47.2
 _ZN13CrushCompiler12parse_deviceERKN9__gnu_cxx17__normal_iteratorIPN5boost6spirit9tree_nodeINS3_13node_val_dataIPKcNS3_5nil_tEEEEESt6vectorISA_SaISA_EEEE@Base 0.47.2
 _ZN13CrushCompiler13parse_tunableERKN9__gnu_cxx17__normal_iteratorIPN5boost6spirit9tree_nodeINS3_13node_val_dataIPKcNS3_5nil_tEEEEESt6vectorISA_SaISA_EEEE@Base 0.48
 _ZN13CrushCompiler16decompile_bucketEiRSt3mapIiNS_11dcb_state_tESt4lessIiESaISt4pairIKiS1_EEERSo@Base 0.47.2
 _ZN13CrushCompiler17parse_bucket_typeERKN9__gnu_cxx17__normal_iteratorIPN5boost6spirit9tree_nodeINS3_13node_val_dataIPKcNS3_5nil_tEEEEESt6vectorISA_SaISA_EEEE@Base 0.47.2
 _ZN13CrushCompiler20find_used_bucket_idsERKN9__gnu_cxx17__normal_iteratorIPN5boost6spirit9tree_nodeINS3_13node_val_dataIPKcNS3_5nil_tEEEEESt6vectorISA_SaISA_EEEE@Base 0.47.2
 _ZN13CrushCompiler21decompile_bucket_implEiRSo@Base 0.47.2
 _ZN13CrushCompiler22consolidate_whitespaceESs@Base 0.47.2
 _ZN13CrushCompiler4dumpERKN9__gnu_cxx17__normal_iteratorIPN5boost6spirit9tree_nodeINS3_13node_val_dataIPKcNS3_5nil_tEEEEESt6vectorISA_SaISA_EEEEi@Base 0.47.2
 _ZN13CrushCompiler7compileERSiPKc@Base 0.47.2
 _ZN13CrushCompiler8int_nodeERN5boost6spirit9tree_nodeINS1_13node_val_dataIPKcNS1_5nil_tEEEEE@Base 0.47.2
 _ZN13CrushCompiler9decompileERSo@Base 0.47.2
 _ZN13CryptoHandlerD0Ev@Base 0.47.2
 _ZN13CryptoHandlerD1Ev@Base 0.47.2
 _ZN13CryptoHandlerD2Ev@Base 0.47.2
 _ZN13DispatchQueue11queue_resetEP10Connection@Base 0.58
 _ZN13DispatchQueue12queue_acceptEP10Connection@Base 0.58
 _ZN13DispatchQueue13discard_queueEm@Base 0.58
 _ZN13DispatchQueue13queue_connectEP10Connection@Base 0.58
 _ZN13DispatchQueue14DispatchThread5entryEv@Base 0.58
 _ZN13DispatchQueue14DispatchThreadD0Ev@Base 0.58
 _ZN13DispatchQueue14DispatchThreadD1Ev@Base 0.58
 _ZN13DispatchQueue14DispatchThreadD2Ev@Base 0.58
 _ZN13DispatchQueue14local_deliveryEP7Messagei@Base 0.58
 _ZN13DispatchQueue18queue_remote_resetEP10Connection@Base 0.58
 _ZN13DispatchQueue4waitEv@Base 0.58
 _ZN13DispatchQueue5entryEv@Base 0.58
 _ZN13DispatchQueue5startEv@Base 0.58
 _ZN13DispatchQueue7enqueueEP7Messageim@Base 0.58
 _ZN13DispatchQueue8shutdownEv@Base 0.58
 _ZN13DispatchQueue9QueueItemD1Ev@Base 0.58
 _ZN13DispatchQueue9QueueItemD2Ev@Base 0.58
 _ZN13DispatchQueueC1EP11CephContextP15SimpleMessenger@Base 0.58
 _ZN13DispatchQueueC2EP11CephContextP15SimpleMessenger@Base 0.58
 _ZN13DispatchQueueD1Ev@Base 0.58
 _ZN13DispatchQueueD2Ev@Base 0.58
 _ZN13LogClientTempC1E9clog_typeR9LogClient@Base 0.47.2
 _ZN13LogClientTempC1ERKS_@Base 0.47.2
 _ZN13LogClientTempC2E9clog_typeR9LogClient@Base 0.47.2
 _ZN13LogClientTempC2ERKS_@Base 0.47.2
 _ZN13LogClientTempD1Ev@Base 0.47.2
 _ZN13LogClientTempD2Ev@Base 0.47.2
 _ZN13MCommandReply14decode_payloadEv@Base 0.47.2
 _ZN13MCommandReply14encode_payloadEm@Base 0.47.2
 _ZN13MCommandReplyC1Ev@Base 0.47.2
 _ZN13MCommandReplyC2Ev@Base 0.47.2
 _ZN13MCommandReplyD0Ev@Base 0.47.2
 _ZN13MCommandReplyD1Ev@Base 0.47.2
 _ZN13MCommandReplyD2Ev@Base 0.47.2
 _ZN13MDentryUnlink14decode_payloadEv@Base 0.47.2
 _ZN13MDentryUnlink14encode_payloadEm@Base 0.47.2
 _ZN13MDentryUnlinkC1Ev@Base 0.47.2
 _ZN13MDentryUnlinkC2Ev@Base 0.47.2
 _ZN13MDentryUnlinkD0Ev@Base 0.47.2
 _ZN13MDentryUnlinkD1Ev@Base 0.47.2
 _ZN13MDentryUnlinkD2Ev@Base 0.47.2
 _ZN13MExportDirAck14decode_payloadEv@Base 0.47.2
 _ZN13MExportDirAck14encode_payloadEm@Base 0.47.2
 _ZN13MExportDirAckC1Ev@Base 0.47.2
 _ZN13MExportDirAckC2Ev@Base 0.47.2
 _ZN13MExportDirAckD0Ev@Base 0.47.2
 _ZN13MExportDirAckD1Ev@Base 0.47.2
 _ZN13MExportDirAckD2Ev@Base 0.47.2
 _ZN13MGetPoolStats14decode_payloadEv@Base 0.47.2
 _ZN13MGetPoolStats14encode_payloadEm@Base 0.47.2
 _ZN13MGetPoolStatsC1ERK6uuid_dmRSt4listISsSaISsEEm@Base 0.47.2
 _ZN13MGetPoolStatsC1Ev@Base 0.47.2
 _ZN13MGetPoolStatsC2ERK6uuid_dmRSt4listISsSaISsEEm@Base 0.47.2
 _ZN13MGetPoolStatsC2Ev@Base 0.47.2
 _ZN13MGetPoolStatsD0Ev@Base 0.47.2
 _ZN13MGetPoolStatsD1Ev@Base 0.47.2
 _ZN13MGetPoolStatsD2Ev@Base 0.47.2
 _ZN13MMonSubscribe14decode_payloadEv@Base 0.47.2
 _ZN13MMonSubscribe14encode_payloadEm@Base 0.47.2
 _ZN13MMonSubscribeC1Ev@Base 0.47.2
 _ZN13MMonSubscribeC2Ev@Base 0.47.2
 _ZN13MMonSubscribeD0Ev@Base 0.47.2
 _ZN13MMonSubscribeD1Ev@Base 0.47.2
 _ZN13MMonSubscribeD2Ev@Base 0.47.2
 _ZN13MOSDPGMissing14decode_payloadEv@Base 0.47.2
 _ZN13MOSDPGMissing14encode_payloadEm@Base 0.47.2
 _ZN13MOSDPGMissingC1Ev@Base 0.47.2
 _ZN13MOSDPGMissingC2Ev@Base 0.47.2
 _ZN13MOSDPGMissingD0Ev@Base 0.47.2
 _ZN13MOSDPGMissingD1Ev@Base 0.47.2
 _ZN13MOSDPGMissingD2Ev@Base 0.47.2
 _ZN13OSDSuperblock23generate_test_instancesERSt4listIPS_SaIS1_EE@Base 0.47.2
 _ZN13OSDSuperblock6decodeERN4ceph6buffer4list8iteratorE@Base 0.47.2
 _ZN13OSDSuperblockC1Ev@Base 0.47.2
 _ZN13OSDSuperblockC2Ev@Base 0.47.2
 _ZN13SnapRealmInfo23generate_test_instancesERSt4listIPS_SaIS1_EE@Base 0.47.2
 _ZN13SnapRealmInfo6decodeERN4ceph6buffer4list8iteratorE@Base 0.47.2
 _ZN13SnapRealmInfoD1Ev@Base 0.47.2
 _ZN13SnapRealmInfoD2Ev@Base 0.47.2
 _ZN13crush_grammar10definitionIN5boost6spirit7scannerIPKcNS2_16scanner_policiesINS2_28skip_parser_iteration_policyINS2_12space_parserENS2_16iteration_policyEEENS2_16ast_match_policyIS5_NS2_21node_val_data_factoryINS2_5nil_tEEESD_EENS2_13action_policyEEEEEEC1ERKS_@Base 0.47.2
 _ZN13crush_grammar10definitionIN5boost6spirit7scannerIPKcNS2_16scanner_policiesINS2_28skip_parser_iteration_policyINS2_12space_parserENS2_16iteration_policyEEENS2_16ast_match_policyIS5_NS2_21node_val_data_factoryINS2_5nil_tEEESD_EENS2_13action_policyEEEEEEC2ERKS_@Base 0.47.2
 _ZN13crush_grammar10definitionIN5boost6spirit7scannerIPKcNS2_16scanner_policiesINS2_28skip_parser_iteration_policyINS2_12space_parserENS2_16iteration_policyEEENS2_16ast_match_policyIS5_NS2_21node_val_data_factoryINS2_5nil_tEEESD_EENS2_13action_policyEEEEEED1Ev@Base 0.47.2
 _ZN13crush_grammar10definitionIN5boost6spirit7scannerIPKcNS2_16scanner_policiesINS2_28skip_parser_iteration_policyINS2_12space_parserENS2_16iteration_policyEEENS2_16ast_match_policyIS5_NS2_21node_val_data_factoryINS2_5nil_tEEESD_EENS2_13action_policyEEEEEED2Ev@Base 0.47.2
 _ZN13entity_addr_t23generate_test_instancesERSt4listIPS_SaIS1_EE@Base 0.47.2
 _ZN13entity_addr_t5parseEPKcPS1_@Base 0.47.2
 _ZN13entity_addr_t6decodeERN4ceph6buffer4list8iteratorE@Base 0.47.2
 _ZN13entity_addr_tC1Ev@Base 0.47.2
 _ZN13entity_addr_tC2Ev@Base 0.47.2
 _ZN13entity_name_t23generate_test_instancesERSt4listIPS_SaIS1_EE@Base 0.47.2
 _ZN13file_object_tcv8object_tEv@Base 0.47.2
 _ZN13object_info_t14copy_user_bitsERKS_@Base 0.47.2
 _ZN13object_info_t23generate_test_instancesERSt4listIPS_SaIS1_EE@Base 0.47.2
 _ZN13object_info_t27legacy_object_locator_to_psERK8object_tRK16object_locator_t@Base 0.47.2
 _ZN13object_info_t6decodeERN4ceph6buffer4list8iteratorE@Base 0.47.2
 _ZN13object_info_tD1Ev@Base 0.47.2
 _ZN13object_info_tD2Ev@Base 0.47.2
 _ZN13pg_interval_t18check_new_intervalERKSt6vectorIiSaIiEES4_S4_S4_jjNSt3tr110shared_ptrIK6OSDMapEES9_l4pg_tPSt3mapIjS_St4lessIjESaISt4pairIKjS_EEEPSo@Base 0.58
 _ZN13pg_interval_t23generate_test_instancesERSt4listIPS_SaIS1_EE@Base 0.47.2
 _ZN13pg_interval_t6decodeERN4ceph6buffer4list8iteratorE@Base 0.47.2
 _ZN13pg_interval_tC1ERKS_@Base 0.47.2
 _ZN13pg_interval_tC2ERKS_@Base 0.47.2
 _ZN13pg_interval_tD1Ev@Base 0.47.2
 _ZN13pg_interval_tD2Ev@Base 0.47.2
 _ZN13string_snap_t23generate_test_instancesERSt4listIPS_SaIS1_EE@Base 0.58
 _ZN13string_snap_t6decodeERN4ceph6buffer4list8iteratorE@Base 0.58
 _ZN14AuthAuthorizerD0Ev@Base 0.47.2
 _ZN14AuthAuthorizerD1Ev@Base 0.47.2
 _ZN14AuthAuthorizerD2Ev@Base 0.47.2
 _ZN14AuthMethodList17is_supported_authEi@Base 0.58
 _ZN14AuthMethodList21remove_supported_authEi@Base 0.58
 _ZN14AuthMethodList4pickERKSt3setIjSt4lessIjESaIjEE@Base 0.58
 _ZN14AuthMethodListC1EP11CephContextSs@Base 0.58
 _ZN14AuthMethodListC2EP11CephContextSs@Base 0.58
 _ZN14MClientRequest14decode_payloadEv@Base 0.47.2
 _ZN14MClientRequest14encode_payloadEm@Base 0.47.2
 _ZN14MClientRequest7ReleaseC1ERKS0_@Base 0.47.2
 _ZN14MClientRequest7ReleaseC2ERKS0_@Base 0.47.2
 _ZN14MClientRequest7ReleaseD1Ev@Base 0.47.2
 _ZN14MClientRequest7ReleaseD2Ev@Base 0.47.2
 _ZN14MClientRequestC1Ei@Base 0.48
 _ZN14MClientRequestC1Ev@Base 0.47.2
 _ZN14MClientRequestC2Ei@Base 0.48
 _ZN14MClientRequestC2Ev@Base 0.47.2
 _ZN14MClientRequestD0Ev@Base 0.47.2
 _ZN14MClientRequestD1Ev@Base 0.47.2
 _ZN14MClientRequestD2Ev@Base 0.47.2
 _ZN14MClientSession14decode_payloadEv@Base 0.47.2
 _ZN14MClientSession14encode_payloadEm@Base 0.47.2
 _ZN14MClientSessionC1Eim@Base 0.47.2
 _ZN14MClientSessionC1Ev@Base 0.47.2
 _ZN14MClientSessionC2Eim@Base 0.47.2
 _ZN14MClientSessionC2Ev@Base 0.47.2
 _ZN14MClientSessionD0Ev@Base 0.47.2
 _ZN14MClientSessionD1Ev@Base 0.47.2
 _ZN14MClientSessionD2Ev@Base 0.47.2
 _ZN14MDiscoverReply14decode_payloadEv@Base 0.47.2
 _ZN14MDiscoverReply14encode_payloadEm@Base 0.47.2
 _ZN14MDiscoverReplyC1Ev@Base 0.47.2
 _ZN14MDiscoverReplyC2Ev@Base 0.47.2
 _ZN14MDiscoverReplyD0Ev@Base 0.47.2
 _ZN14MDiscoverReplyD1Ev@Base 0.47.2
 _ZN14MDiscoverReplyD2Ev@Base 0.47.2
 _ZN14MExportCapsAck14decode_payloadEv@Base 0.47.2
 _ZN14MExportCapsAck14encode_payloadEm@Base 0.47.2
 _ZN14MExportCapsAckC1Ev@Base 0.47.2
 _ZN14MExportCapsAckC2Ev@Base 0.47.2
 _ZN14MExportCapsAckD0Ev@Base 0.47.2
 _ZN14MExportCapsAckD1Ev@Base 0.47.2
 _ZN14MExportCapsAckD2Ev@Base 0.47.2
 _ZN14MExportDirPrep14decode_payloadEv@Base 0.47.2
 _ZN14MExportDirPrep14encode_payloadEm@Base 0.47.2
 _ZN14MExportDirPrepC1Ev@Base 0.47.2
 _ZN14MExportDirPrepC2Ev@Base 0.47.2
 _ZN14MExportDirPrepD0Ev@Base 0.47.2
 _ZN14MExportDirPrepD1Ev@Base 0.47.2
 _ZN14MExportDirPrepD2Ev@Base 0.47.2
 _ZN14MInodeFileCaps14decode_payloadEv@Base 0.47.2
 _ZN14MInodeFileCaps14encode_payloadEm@Base 0.47.2
 _ZN14MInodeFileCapsC1Ev@Base 0.47.2
 _ZN14MInodeFileCapsC2Ev@Base 0.47.2
 _ZN14MInodeFileCapsD0Ev@Base 0.47.2
 _ZN14MInodeFileCapsD1Ev@Base 0.47.2
 _ZN14MInodeFileCapsD2Ev@Base 0.47.2
 _ZN14MMDSResolveAck14decode_payloadEv@Base 0.47.2
 _ZN14MMDSResolveAck14encode_payloadEm@Base 0.47.2
 _ZN14MMDSResolveAckC1Ev@Base 0.47.2
 _ZN14MMDSResolveAckC2Ev@Base 0.47.2
 _ZN14MMDSResolveAckD0Ev@Base 0.47.2
 _ZN14MMDSResolveAckD1Ev@Base 0.47.2
 _ZN14MMDSResolveAckD2Ev@Base 0.47.2
 _ZN14MMonCommandAck14decode_payloadEv@Base 0.47.2
 _ZN14MMonCommandAck14encode_payloadEm@Base 0.47.2
 _ZN14MMonCommandAckC1Ev@Base 0.47.2
 _ZN14MMonCommandAckC2Ev@Base 0.47.2
 _ZN14MMonCommandAckD0Ev@Base 0.47.2
 _ZN14MMonCommandAckD1Ev@Base 0.47.2
 _ZN14MMonCommandAckD2Ev@Base 0.47.2
 _ZN14MMonGetVersion14decode_payloadEv@Base 0.47.2
 _ZN14MMonGetVersion14encode_payloadEm@Base 0.47.2
 _ZN14MMonGetVersionC1Ev@Base 0.47.2
 _ZN14MMonGetVersionC2Ev@Base 0.47.2
 _ZN14MMonGetVersionD0Ev@Base 0.47.2
 _ZN14MMonGetVersionD1Ev@Base 0.47.2
 _ZN14MMonGetVersionD2Ev@Base 0.47.2
 _ZN14MOSDPGBackfill14decode_payloadEv@Base 0.47.2
 _ZN14MOSDPGBackfill14encode_payloadEm@Base 0.47.2
 _ZN14MOSDPGBackfillC1Ev@Base 0.47.2
 _ZN14MOSDPGBackfillC2Ev@Base 0.47.2
 _ZN14MOSDPGBackfillD0Ev@Base 0.47.2
 _ZN14MOSDPGBackfillD1Ev@Base 0.47.2
 _ZN14MOSDPGBackfillD2Ev@Base 0.47.2
 _ZN14MOSDSubOpReply14decode_payloadEv@Base 0.47.2
 _ZN14MOSDSubOpReply14encode_payloadEm@Base 0.47.2
 _ZN14MOSDSubOpReplyC1Ev@Base 0.47.2
 _ZN14MOSDSubOpReplyC2Ev@Base 0.47.2
 _ZN14MOSDSubOpReplyD0Ev@Base 0.47.2
 _ZN14MOSDSubOpReplyD1Ev@Base 0.47.2
 _ZN14MOSDSubOpReplyD2Ev@Base 0.47.2
 _ZN14pg_log_entry_t20decode_with_checksumERN4ceph6buffer4list8iteratorE@Base 0.58
 _ZN14pg_log_entry_t23generate_test_instancesERSt4listIPS_SaIS1_EE@Base 0.47.2
 _ZN14pg_log_entry_t6decodeERN4ceph6buffer4list8iteratorE@Base 0.47.2
 _ZN14pg_log_entry_tD1Ev@Base 0.47.2
 _ZN14pg_log_entry_tD2Ev@Base 0.47.2
 _ZN14session_info_t23generate_test_instancesERSt4listIPS_SaIS1_EE@Base 0.58
 _ZN14session_info_t6decodeERN4ceph6buffer4list8iteratorE@Base 0.58
 _ZN15AdminSocketHookD0Ev@Base 0.47.2
 _ZN15AdminSocketHookD1Ev@Base 0.47.2
 _ZN15AdminSocketHookD2Ev@Base 0.47.2
 _ZN15C_GatherBuilder8activateEv@Base 0.47.2
 _ZN15C_GatherBuilderD1Ev@Base 0.47.2
 _ZN15C_GatherBuilderD2Ev@Base 0.47.2
 _ZN15CephContextHook4callESsSsRN4ceph6buffer4listE@Base 0.48
 _ZN15CephContextHookD0Ev@Base 0.48
 _ZN15CephContextHookD1Ev@Base 0.48
 _ZN15CephContextHookD2Ev@Base 0.48
 _ZN15CephXAuthorizer12verify_replyERN4ceph6buffer4list8iteratorE@Base 0.47.2
 _ZN15CephXAuthorizerD0Ev@Base 0.47.2
 _ZN15CephXAuthorizerD1Ev@Base 0.47.2
 _ZN15CephXAuthorizerD2Ev@Base 0.47.2
 _ZN15MGenericMessage14decode_payloadEv@Base 0.47.2
 _ZN15MGenericMessage14encode_payloadEm@Base 0.47.2
 _ZN15MGenericMessageC1Ei@Base 0.47.2
 _ZN15MGenericMessageC2Ei@Base 0.47.2
 _ZN15MGenericMessageD0Ev@Base 0.47.2
 _ZN15MGenericMessageD1Ev@Base 0.47.2
 _ZN15MGenericMessageD2Ev@Base 0.47.2
 _ZN15MMDSCacheRejoin14decode_payloadEv@Base 0.47.2
 _ZN15MMDSCacheRejoin14encode_payloadEm@Base 0.47.2
 _ZN15MMDSCacheRejoin8lock_blsC1ERKS0_@Base 0.47.2
 _ZN15MMDSCacheRejoin8lock_blsC1Ev@Base 0.47.2
 _ZN15MMDSCacheRejoin8lock_blsC2ERKS0_@Base 0.47.2
 _ZN15MMDSCacheRejoin8lock_blsC2Ev@Base 0.47.2
 _ZN15MMDSCacheRejoin8lock_blsD1Ev@Base 0.47.2
 _ZN15MMDSCacheRejoin8lock_blsD2Ev@Base 0.47.2
 _ZN15MMDSCacheRejoinC1Ev@Base 0.47.2
 _ZN15MMDSCacheRejoinC2Ev@Base 0.47.2
 _ZN15MMDSCacheRejoinD0Ev@Base 0.47.2
 _ZN15MMDSCacheRejoinD1Ev@Base 0.47.2
 _ZN15MMDSCacheRejoinD2Ev@Base 0.47.2
 _ZN15MMDSLoadTargets14decode_payloadEv@Base 0.47.2
 _ZN15MMDSLoadTargets14encode_payloadEm@Base 0.47.2
 _ZN15MMDSLoadTargetsC1Ev@Base 0.47.2
 _ZN15MMDSLoadTargetsC2Ev@Base 0.47.2
 _ZN15MMDSLoadTargetsD0Ev@Base 0.47.2
 _ZN15MMDSLoadTargetsD1Ev@Base 0.47.2
 _ZN15MMDSLoadTargetsD2Ev@Base 0.47.2
 _ZN15ObjectOperation15add_pgls_filterEimRN4ceph6buffer4listE9hobject_tj@Base 0.47.2
 _ZN15ObjectOperation5pg_lsEmRN4ceph6buffer4listE9hobject_tj@Base 0.47.2
 _ZN15ObjectOperation6add_opEi@Base 0.47.2
 _ZN15ObjectOperationD1Ev@Base 0.47.2
 _ZN15ObjectOperationD2Ev@Base 0.47.2
 _ZN15RotatingKeyRing11get_keyringEv@Base 0.47.2
 _ZN15RotatingKeyRing11set_secretsER15RotatingSecrets@Base 0.47.2
 _ZN15RotatingKeyRingD0Ev@Base 0.47.2
 _ZN15RotatingKeyRingD1Ev@Base 0.47.2
 _ZN15RotatingKeyRingD2Ev@Base 0.47.2
 _ZN15RotatingSecretsD1Ev@Base 0.47.2
 _ZN15RotatingSecretsD2Ev@Base 0.47.2
 _ZN15SafeTimerThread5entryEv@Base 0.47.2
 _ZN15SafeTimerThreadD0Ev@Base 0.47.2
 _ZN15SafeTimerThreadD1Ev@Base 0.47.2
 _ZN15SafeTimerThreadD2Ev@Base 0.47.2
 _ZN15SimpleMessenger10get_policyEi@Base 0.47.2
 _ZN15SimpleMessenger10queue_reapEP4Pipe@Base 0.58
 _ZN15SimpleMessenger10set_policyEiN9Messenger6PolicyE@Base 0.47.2
 _ZN15SimpleMessenger12ReaperThread5entryEv@Base 0.47.2
 _ZN15SimpleMessenger12ReaperThreadD0Ev@Base 0.47.2
 _ZN15SimpleMessenger12ReaperThreadD1Ev@Base 0.47.2
 _ZN15SimpleMessenger12ReaperThreadD2Ev@Base 0.47.2
 _ZN15SimpleMessenger12_lookup_pipeERK13entity_addr_t@Base 0.58
 _ZN15SimpleMessenger12connect_rankERK13entity_addr_tiP10ConnectionP7Message@Base 0.58
 _ZN15SimpleMessenger12learned_addrERK13entity_addr_t@Base 0.47.2
 _ZN15SimpleMessenger12reaper_entryEv@Base 0.47.2
 _ZN15SimpleMessenger12send_messageEP7MessageP10Connection@Base 0.47.2
 _ZN15SimpleMessenger12send_messageEP7MessageRK13entity_inst_t@Base 0.47.2
 _ZN15SimpleMessenger12unlearn_addrEv@Base 0.58
 _ZN15SimpleMessenger13_send_messageEP7MessageP10Connectionb@Base 0.48
 _ZN15SimpleMessenger13_send_messageEP7MessageRK13entity_inst_tb@Base 0.48
 _ZN15SimpleMessenger13mark_down_allEv@Base 0.47.2
 _ZN15SimpleMessenger14get_authorizerEib@Base 0.47.2
 _ZN15SimpleMessenger14get_connectionERK13entity_inst_t@Base 0.47.2
 _ZN15SimpleMessenger14send_keepaliveEP10Connection@Base 0.47.2
 _ZN15SimpleMessenger14send_keepaliveERK13entity_inst_t@Base 0.47.2
 _ZN15SimpleMessenger14submit_messageEP7MessageP10ConnectionRK13entity_addr_tib@Base 0.48
 _ZN15SimpleMessenger15add_accept_pipeEi@Base 0.58
 _ZN15SimpleMessenger15mark_disposableEP10Connection@Base 0.47.2
 _ZN15SimpleMessenger17get_proto_versionEib@Base 0.47.2
 _ZN15SimpleMessenger17lazy_send_messageEP7MessageP10Connection@Base 0.47.2
 _ZN15SimpleMessenger17lazy_send_messageEP7MessageRK13entity_inst_t@Base 0.47.2
 _ZN15SimpleMessenger17set_addr_unknownsER13entity_addr_t@Base 0.47.2
 _ZN15SimpleMessenger17verify_authorizerEP10ConnectioniiRN4ceph6buffer4listES5_RbR9CryptoKey@Base 0.58
 _ZN15SimpleMessenger18get_default_policyEv@Base 0.58
 _ZN15SimpleMessenger18mark_down_on_emptyEP10Connection@Base 0.47.2
 _ZN15SimpleMessenger18set_default_policyEN9Messenger6PolicyE@Base 0.47.2
 _ZN15SimpleMessenger20set_cluster_protocolEi@Base 0.47.2
 _ZN15SimpleMessenger20set_policy_throttlerEiP8Throttle@Base 0.47.2
 _ZN15SimpleMessenger21init_local_connectionEv@Base 0.58
 _ZN15SimpleMessenger22get_dispatch_queue_lenEv@Base 0.47.2
 _ZN15SimpleMessenger23get_loopback_connectionEv@Base 0.58
 _ZN15SimpleMessenger25dispatch_throttle_releaseEm@Base 0.47.2
 _ZN15SimpleMessenger4bindERK13entity_addr_t@Base 0.58
 _ZN15SimpleMessenger4waitEv@Base 0.47.2
 _ZN15SimpleMessenger5readyEv@Base 0.47.2
 _ZN15SimpleMessenger5startEv@Base 0.47.2
 _ZN15SimpleMessenger6reaperEv@Base 0.47.2
 _ZN15SimpleMessenger6rebindEi@Base 0.47.2
 _ZN15SimpleMessenger8shutdownEv@Base 0.47.2
 _ZN15SimpleMessenger9mark_downEP10Connection@Base 0.47.2
 _ZN15SimpleMessenger9mark_downERK13entity_addr_t@Base 0.47.2
 _ZN15SimpleMessengerC1EP11CephContext13entity_name_tSsm@Base 0.47.2
 _ZN15SimpleMessengerC2EP11CephContext13entity_name_tSsm@Base 0.47.2
 _ZN15SimpleMessengerD0Ev@Base 0.47.2
 _ZN15SimpleMessengerD1Ev@Base 0.47.2
 _ZN15SimpleMessengerD2Ev@Base 0.47.2
 _ZN15cap_reconnect_t10decode_oldERN4ceph6buffer4list8iteratorE@Base 0.58
 _ZN15cap_reconnect_t23generate_test_instancesERSt4listIPS_SaIS1_EE@Base 0.58
 _ZN15cap_reconnect_t6decodeERN4ceph6buffer4list8iteratorE@Base 0.58
 _ZN15cap_reconnect_tC1ERKS_@Base 0.47.2
 _ZN15cap_reconnect_tC1Ev@Base 0.58
 _ZN15cap_reconnect_tC2ERKS_@Base 0.47.2
 _ZN15cap_reconnect_tC2Ev@Base 0.58
 _ZN15cap_reconnect_tD1Ev@Base 0.47.2
 _ZN15cap_reconnect_tD2Ev@Base 0.47.2
 _ZN15ceph_mount_info5mountERKSs@Base 0.47.2
 _ZN15ceph_mount_info8shutdownEv@Base 0.47.2
 _ZN15ceph_mount_infoD1Ev@Base 0.58
 _ZN15ceph_mount_infoD2Ev@Base 0.58
 _ZN15md_config_obs_t20handle_subsys_changeEPK11md_config_tRKSt3setIiSt4lessIiESaIiEE@Base 0.47.2
 _ZN15md_config_obs_tD0Ev@Base 0.47.2
 _ZN15md_config_obs_tD1Ev@Base 0.47.2
 _ZN15md_config_obs_tD2Ev@Base 0.47.2
 _ZN15osd_peer_stat_t23generate_test_instancesERSt4listIPS_SaIS1_EE@Base 0.47.2
 _ZN15osd_peer_stat_t6decodeERN4ceph6buffer4list8iteratorE@Base 0.47.2
 _ZN16MBackfillReserve14decode_payloadEv@Base 0.58
 _ZN16MBackfillReserve14encode_payloadEm@Base 0.58
 _ZN16MBackfillReserveC1Ev@Base 0.58
 _ZN16MBackfillReserveC2Ev@Base 0.58
 _ZN16MBackfillReserveD0Ev@Base 0.58
 _ZN16MBackfillReserveD1Ev@Base 0.58
 _ZN16MBackfillReserveD2Ev@Base 0.58
 _ZN16MClientReconnect14decode_payloadEv@Base 0.47.2
 _ZN16MClientReconnect14encode_payloadEm@Base 0.47.2
 _ZN16MClientReconnectC1Ev@Base 0.47.2
 _ZN16MClientReconnectC2Ev@Base 0.47.2
 _ZN16MClientReconnectD0Ev@Base 0.47.2
 _ZN16MClientReconnectD1Ev@Base 0.47.2
 _ZN16MClientReconnectD2Ev@Base 0.47.2
 _ZN16MExportDirCancel14decode_payloadEv@Base 0.47.2
 _ZN16MExportDirCancel14encode_payloadEm@Base 0.47.2
 _ZN16MExportDirCancelC1Ev@Base 0.47.2
 _ZN16MExportDirCancelC2Ev@Base 0.47.2
 _ZN16MExportDirCancelD0Ev@Base 0.47.2
 _ZN16MExportDirCancelD1Ev@Base 0.47.2
 _ZN16MExportDirCancelD2Ev@Base 0.47.2
 _ZN16MExportDirFinish14decode_payloadEv@Base 0.47.2
 _ZN16MExportDirFinish14encode_payloadEm@Base 0.47.2
 _ZN16MExportDirFinishD0Ev@Base 0.47.2
 _ZN16MExportDirFinishD1Ev@Base 0.47.2
 _ZN16MExportDirFinishD2Ev@Base 0.47.2
 _ZN16MExportDirNotify14decode_payloadEv@Base 0.47.2
 _ZN16MExportDirNotify14encode_payloadEm@Base 0.47.2
 _ZN16MExportDirNotifyC1Ev@Base 0.47.2
 _ZN16MExportDirNotifyC2Ev@Base 0.47.2
 _ZN16MExportDirNotifyD0Ev@Base 0.47.2
 _ZN16MExportDirNotifyD1Ev@Base 0.47.2
 _ZN16MExportDirNotifyD2Ev@Base 0.47.2
 _ZN16MMDSFindInoReply14decode_payloadEv@Base 0.47.2
 _ZN16MMDSFindInoReply14encode_payloadEm@Base 0.47.2
 _ZN16MMDSFindInoReplyC1Ev@Base 0.47.2
 _ZN16MMDSFindInoReplyC2Ev@Base 0.47.2
 _ZN16MMDSFindInoReplyD0Ev@Base 0.47.2
 _ZN16MMDSFindInoReplyD1Ev@Base 0.47.2
 _ZN16MMDSFindInoReplyD2Ev@Base 0.47.2
 _ZN16MMDSSlaveRequest14decode_payloadEv@Base 0.47.2
 _ZN16MMDSSlaveRequest14encode_payloadEm@Base 0.47.2
 _ZN16MMDSSlaveRequestC1Ev@Base 0.47.2
 _ZN16MMDSSlaveRequestC2Ev@Base 0.47.2
 _ZN16MMDSSlaveRequestD0Ev@Base 0.47.2
 _ZN16MMDSSlaveRequestD1Ev@Base 0.47.2
 _ZN16MMDSSlaveRequestD2Ev@Base 0.47.2
 _ZN16MMDSTableRequest14decode_payloadEv@Base 0.47.2
 _ZN16MMDSTableRequest14encode_payloadEm@Base 0.47.2
 _ZN16MMDSTableRequestC1Ev@Base 0.47.2
 _ZN16MMDSTableRequestC2Ev@Base 0.47.2
 _ZN16MMDSTableRequestD0Ev@Base 0.47.2
 _ZN16MMDSTableRequestD1Ev@Base 0.47.2
 _ZN16MMDSTableRequestD2Ev@Base 0.47.2
 _ZN16MMonSubscribeAck14decode_payloadEv@Base 0.47.2
 _ZN16MMonSubscribeAck14encode_payloadEm@Base 0.47.2
 _ZN16MMonSubscribeAckC1Ev@Base 0.47.2
 _ZN16MMonSubscribeAckC2Ev@Base 0.47.2
 _ZN16MMonSubscribeAckD0Ev@Base 0.47.2
 _ZN16MMonSubscribeAckD1Ev@Base 0.47.2
 _ZN16MMonSubscribeAckD2Ev@Base 0.47.2
 _ZN16MRecoveryReserve14decode_payloadEv@Base 0.58
 _ZN16MRecoveryReserve14encode_payloadEm@Base 0.58
 _ZN16MRecoveryReserveC1Ev@Base 0.58
 _ZN16MRecoveryReserveC2Ev@Base 0.58
 _ZN16MRecoveryReserveD0Ev@Base 0.58
 _ZN16MRecoveryReserveD1Ev@Base 0.58
 _ZN16MRecoveryReserveD2Ev@Base 0.58
 _ZN16OutputDataSocket13append_outputERN4ceph6buffer4listE@Base 0.58
 _ZN16OutputDataSocket15bind_and_listenERKSsPi@Base 0.58
 _ZN16OutputDataSocket15init_connectionERN4ceph6buffer4listE@Base 0.58
 _ZN16OutputDataSocket16close_connectionEi@Base 0.58
 _ZN16OutputDataSocket17handle_connectionEi@Base 0.58
 _ZN16OutputDataSocket20create_shutdown_pipeEPiS0_@Base 0.58
 _ZN16OutputDataSocket4initERKSs@Base 0.58
 _ZN16OutputDataSocket5entryEv@Base 0.58
 _ZN16OutputDataSocket8shutdownEv@Base 0.58
 _ZN16OutputDataSocket9do_acceptEv@Base 0.58
 _ZN16OutputDataSocket9dump_dataEi@Base 0.58
 _ZN16OutputDataSocketC1EP11CephContextm@Base 0.58
 _ZN16OutputDataSocketC2EP11CephContextm@Base 0.58
 _ZN16OutputDataSocketD0Ev@Base 0.58
 _ZN16OutputDataSocketD1Ev@Base 0.58
 _ZN16OutputDataSocketD2Ev@Base 0.58
 _ZN16PrioritizedQueueIN13DispatchQueue9QueueItemEmE14enqueue_strictEmjS1_@Base 0.58
 _ZN16PrioritizedQueueIN13DispatchQueue9QueueItemEmE6lengthEv@Base 0.58
 _ZN16PrioritizedQueueIN13DispatchQueue9QueueItemEmE7dequeueEv@Base 0.58
 _ZN16PrioritizedQueueIN13DispatchQueue9QueueItemEmE7enqueueEmjjS1_@Base 0.58
 _ZN16PrioritizedQueueIN13DispatchQueue9QueueItemEmE8SubQueue7enqueueEmjS1_@Base 0.58
 _ZN16PrioritizedQueueIN13DispatchQueue9QueueItemEmED1Ev@Base 0.58
 _ZN16PrioritizedQueueIN13DispatchQueue9QueueItemEmED2Ev@Base 0.58
 _ZN16RefCountedObject3putEv@Base 0.47.2
 _ZN16RefCountedObjectD0Ev@Base 0.47.2
 _ZN16RefCountedObjectD1Ev@Base 0.47.2
 _ZN16RefCountedObjectD2Ev@Base 0.47.2
 _ZN16WritebackHandler4lockERK8object_tRK16object_locator_tiiP7ContextS7_@Base 0.47.2
 _ZN16WritebackHandlerD0Ev@Base 0.47.2
 _ZN16WritebackHandlerD1Ev@Base 0.47.2
 _ZN16WritebackHandlerD2Ev@Base 0.47.2
 _ZN16inode_load_vec_t23generate_test_instancesERSt4listIPS_SaIS1_EE@Base 0.58
 _ZN16inode_load_vec_t4dumpEPN4ceph9FormatterE@Base 0.58
 _ZN16inode_load_vec_t6decodeERK7utime_tRN4ceph6buffer4list8iteratorE@Base 0.58
 _ZN16object_locator_t23generate_test_instancesERSt4listIPS_SaIS1_EE@Base 0.47.2
 _ZN16object_locator_t6decodeERN4ceph6buffer4list8iteratorE@Base 0.47.2
 _ZN16object_locator_tD1Ev@Base 0.47.2
 _ZN16object_locator_tD2Ev@Base 0.47.2
 _ZN16pg_ls_response_tD1Ev@Base 0.47.2
 _ZN16pg_ls_response_tD2Ev@Base 0.47.2
 _ZN16pool_snap_info_t23generate_test_instancesERSt4listIPS_SaIS1_EE@Base 0.47.2
 _ZN16pool_snap_info_t6decodeERN4ceph6buffer4list8iteratorE@Base 0.47.2
 _ZN16pool_snap_info_tD1Ev@Base 0.47.2
 _ZN16pool_snap_info_tD2Ev@Base 0.47.2
 _ZN17AdminSocketClient10do_requestESsPSs@Base 0.47.2
 _ZN17AdminSocketClientC1ERKSs@Base 0.47.2
 _ZN17AdminSocketClientC2ERKSs@Base 0.47.2
 _ZN17AuthClientHandlerD0Ev@Base 0.47.2
 _ZN17AuthClientHandlerD1Ev@Base 0.47.2
 _ZN17AuthClientHandlerD2Ev@Base 0.47.2
 _ZN17C_Client_PutInode6finishEi@Base 0.47.2
 _ZN17C_Client_PutInodeC1EP6ClientP5Inode@Base 0.58
 _ZN17C_Client_PutInodeC2EP6ClientP5Inode@Base 0.58
 _ZN17C_Client_PutInodeD0Ev@Base 0.47.2
 _ZN17C_Client_PutInodeD1Ev@Base 0.47.2
 _ZN17C_Client_PutInodeD2Ev@Base 0.47.2
 _ZN17C_SelfmanagedSnap6finishEi@Base 0.47.2
 _ZN17C_SelfmanagedSnapD0Ev@Base 0.47.2
 _ZN17C_SelfmanagedSnapD1Ev@Base 0.47.2
 _ZN17C_SelfmanagedSnapD2Ev@Base 0.47.2
 _ZN17MClientCapRelease14decode_payloadEv@Base 0.47.2
 _ZN17MClientCapRelease14encode_payloadEm@Base 0.47.2
 _ZN17MClientCapReleaseC1Ev@Base 0.47.2
 _ZN17MClientCapReleaseC2Ev@Base 0.47.2
 _ZN17MClientCapReleaseD0Ev@Base 0.47.2
 _ZN17MClientCapReleaseD1Ev@Base 0.47.2
 _ZN17MClientCapReleaseD2Ev@Base 0.47.2
 _ZN17MExportDirPrepAck14decode_payloadEv@Base 0.47.2
 _ZN17MExportDirPrepAck14encode_payloadEm@Base 0.47.2
 _ZN17MExportDirPrepAckD0Ev@Base 0.47.2
 _ZN17MExportDirPrepAckD1Ev@Base 0.47.2
 _ZN17MExportDirPrepAckD2Ev@Base 0.47.2
 _ZN17ObjecterWriteback17may_copy_on_writeERK8object_tmm8snapid_t@Base 0.58
 _ZN17ObjecterWriteback4lockERK8object_tRK16object_locator_tiiP7ContextS7_@Base 0.47.2
 _ZN17ObjecterWriteback4readERK8object_tRK16object_locator_tmm8snapid_tPN4ceph6buffer4listEmjP7Context@Base 0.47.2
 _ZN17ObjecterWriteback5writeERK8object_tRK16object_locator_tmmRK11SnapContextRKN4ceph6buffer4listE7utime_tmjP7Context@Base 0.47.2
 _ZN17ObjecterWritebackD0Ev@Base 0.47.2
 _ZN17ObjecterWritebackD1Ev@Base 0.47.2
 _ZN17ObjecterWritebackD2Ev@Base 0.47.2
 _ZN17inode_backtrace_t23generate_test_instancesERSt4listIPS_SaIS1_EE@Base 0.58
 _ZN17inode_backtrace_t6decodeERN4ceph6buffer4list8iteratorE@Base 0.58
 _ZN17lockdep_stopper_tD1Ev@Base 0.47.2
 _ZN17lockdep_stopper_tD2Ev@Base 0.47.2
 _ZN17object_stat_sum_t23generate_test_instancesERSt4listIPS_SaIS1_EE@Base 0.47.2
 _ZN17object_stat_sum_t3addERKS_@Base 0.47.2
 _ZN17object_stat_sum_t3subERKS_@Base 0.47.2
 _ZN17object_stat_sum_t6decodeERN4ceph6buffer4list8iteratorE@Base 0.47.2
 _ZN18AuthNoneAuthorizer12verify_replyERN4ceph6buffer4list8iteratorE@Base 0.47.2
 _ZN18AuthNoneAuthorizerD0Ev@Base 0.47.2
 _ZN18AuthNoneAuthorizerD1Ev@Base 0.47.2
 _ZN18AuthNoneAuthorizerD2Ev@Base 0.47.2
 _ZN18AuthSessionHandler32print_auth_session_handler_statsEv@Base 0.58
 _ZN18AuthSessionHandlerD0Ev@Base 0.58
 _ZN18AuthSessionHandlerD1Ev@Base 0.58
 _ZN18AuthSessionHandlerD2Ev@Base 0.58
 _ZN18CephInitParametersC1Ej@Base 0.47.2
 _ZN18CephInitParametersC2Ej@Base 0.47.2
 _ZN18CephXTicketHandler16build_authorizerEm@Base 0.47.2
 _ZN18CephXTicketHandler27verify_service_ticket_replyER9CryptoKeyRN4ceph6buffer4list8iteratorE@Base 0.47.2
 _ZN18CephXTicketHandler8have_keyEv@Base 0.47.2
 _ZN18CephXTicketHandler8need_keyEv@Base 0.47.2
 _ZN18CephXTicketHandlerD1Ev@Base 0.47.2
 _ZN18CephXTicketHandlerD2Ev@Base 0.47.2
 _ZN18CephXTicketManager16build_authorizerEj@Base 0.47.2
 _ZN18CephXTicketManager16validate_ticketsEjRjS0_@Base 0.47.2
 _ZN18CephXTicketManager17invalidate_ticketEj@Base 0.47.2
 _ZN18CephXTicketManager17set_have_need_keyEjRjS0_@Base 0.47.2
 _ZN18CephXTicketManager27verify_service_ticket_replyER9CryptoKeyRN4ceph6buffer4list8iteratorE@Base 0.47.2
 _ZN18CephXTicketManager8have_keyEj@Base 0.47.2
 _ZN18CephXTicketManager8need_keyEj@Base 0.47.2
 _ZN18CephxClientHandler12get_protocolEv@Base 0.47.2
 _ZN18CephxClientHandler12need_ticketsEv@Base 0.47.2
 _ZN18CephxClientHandler13build_requestERN4ceph6buffer4listE@Base 0.47.2
 _ZN18CephxClientHandler13set_global_idEm@Base 0.47.2
 _ZN18CephxClientHandler15handle_responseEiRN4ceph6buffer4list8iteratorE@Base 0.47.2
 _ZN18CephxClientHandler16build_authorizerEj@Base 0.47.2
 _ZN18CephxClientHandler16validate_ticketsEv@Base 0.47.2
 _ZN18CephxClientHandler22build_rotating_requestERN4ceph6buffer4listE@Base 0.47.2
 _ZN18CephxClientHandler4tickEv@Base 0.47.2
 _ZN18CephxClientHandler5resetEv@Base 0.47.2
 _ZN18CephxClientHandlerD0Ev@Base 0.47.2
 _ZN18CephxClientHandlerD1Ev@Base 0.47.2
 _ZN18CephxClientHandlerD2Ev@Base 0.47.2
 _ZN18MDSCacheObjectInfo23generate_test_instancesERSt4listIPS_SaIS1_EE@Base 0.58
 _ZN18MDSCacheObjectInfo6decodeERN4ceph6buffer4list8iteratorE@Base 0.47.2
 _ZN18MDSCacheObjectInfoD1Ev@Base 0.47.2
 _ZN18MDSCacheObjectInfoD2Ev@Base 0.47.2
 _ZN18MExportDirDiscover14decode_payloadEv@Base 0.47.2
 _ZN18MExportDirDiscover14encode_payloadEm@Base 0.47.2
 _ZN18MExportDirDiscoverC1Ev@Base 0.47.2
 _ZN18MExportDirDiscoverC2Ev@Base 0.47.2
 _ZN18MExportDirDiscoverD0Ev@Base 0.47.2
 _ZN18MExportDirDiscoverD1Ev@Base 0.47.2
 _ZN18MExportDirDiscoverD2Ev@Base 0.47.2
 _ZN18MGetPoolStatsReply14decode_payloadEv@Base 0.47.2
 _ZN18MGetPoolStatsReply14encode_payloadEm@Base 0.47.2
 _ZN18MGetPoolStatsReplyC1Ev@Base 0.47.2
 _ZN18MGetPoolStatsReplyC2Ev@Base 0.47.2
 _ZN18MGetPoolStatsReplyD0Ev@Base 0.47.2
 _ZN18MGetPoolStatsReplyD1Ev@Base 0.47.2
 _ZN18MGetPoolStatsReplyD2Ev@Base 0.47.2
 _ZN18MMDSFragmentNotify14decode_payloadEv@Base 0.47.2
 _ZN18MMDSFragmentNotify14encode_payloadEm@Base 0.47.2
 _ZN18MMDSFragmentNotifyC1Ev@Base 0.47.2
 _ZN18MMDSFragmentNotifyC2Ev@Base 0.47.2
 _ZN18MMDSFragmentNotifyD0Ev@Base 0.47.2
 _ZN18MMDSFragmentNotifyD1Ev@Base 0.47.2
 _ZN18MMDSFragmentNotifyD2Ev@Base 0.47.2
 _ZN18ObjectRecoveryInfo23generate_test_instancesERSt4listIPS_SaIS1_EE@Base 0.47.2
 _ZN18ObjectRecoveryInfo6decodeERN4ceph6buffer4list8iteratorEl@Base 0.48
 _ZN18ObjectRecoveryInfoC1Ev@Base 0.47.2
 _ZN18ObjectRecoveryInfoC2Ev@Base 0.47.2
 _ZN18ObjectRecoveryInfoD1Ev@Base 0.47.2
 _ZN18ObjectRecoveryInfoD2Ev@Base 0.47.2
 _ZN18dirfrag_load_vec_t23generate_test_instancesERSt4listIPS_SaIS1_EE@Base 0.58
 _ZN18dirfrag_load_vec_t6decodeERK7utime_tRN4ceph6buffer4list8iteratorE@Base 0.58
 _ZN18dirfrag_load_vec_tD1Ev@Base 0.47.2
 _ZN18dirfrag_load_vec_tD2Ev@Base 0.47.2
 _ZN19C_Client_SyncCommit6finishEi@Base 0.47.2
 _ZN19C_Client_SyncCommitD0Ev@Base 0.47.2
 _ZN19C_Client_SyncCommitD1Ev@Base 0.47.2
 _ZN19C_Client_SyncCommitD2Ev@Base 0.47.2
 _ZN19CephxSessionHandler11no_securityEv@Base 0.58
 _ZN19CephxSessionHandler12sign_messageEP7Message@Base 0.58
 _ZN19CephxSessionHandler15decrypt_messageEP7Message@Base 0.58
 _ZN19CephxSessionHandler15encrypt_messageEP7Message@Base 0.58
 _ZN19CephxSessionHandler23check_message_signatureEP7Message@Base 0.58
 _ZN19CephxSessionHandlerD0Ev@Base 0.58
 _ZN19CephxSessionHandlerD1Ev@Base 0.58
 _ZN19CephxSessionHandlerD2Ev@Base 0.58
 _ZN19MExportDirNotifyAck14decode_payloadEv@Base 0.47.2
 _ZN19MExportDirNotifyAck14encode_payloadEm@Base 0.47.2
 _ZN19MExportDirNotifyAckD0Ev@Base 0.47.2
 _ZN19MExportDirNotifyAckD1Ev@Base 0.47.2
 _ZN19MExportDirNotifyAckD2Ev@Base 0.47.2
 _ZN19MMonGetVersionReply14decode_payloadEv@Base 0.47.2
 _ZN19MMonGetVersionReply14encode_payloadEm@Base 0.47.2
 _ZN19MMonGetVersionReplyC1Ev@Base 0.47.2
 _ZN19MMonGetVersionReplyC2Ev@Base 0.47.2
 _ZN19MMonGetVersionReplyD0Ev@Base 0.47.2
 _ZN19MMonGetVersionReplyD1Ev@Base 0.47.2
 _ZN19MMonGetVersionReplyD2Ev@Base 0.47.2
 _ZN19PaxosServiceMessage12paxos_decodeERN4ceph6buffer4list8iteratorE@Base 0.47.2
 _ZN19PaxosServiceMessage12paxos_encodeEv@Base 0.59
 _ZN19PaxosServiceMessage14decode_payloadEv@Base 0.47.2
 _ZN19PaxosServiceMessage14encode_payloadEm@Base 0.47.2
 _ZN19PaxosServiceMessageD0Ev@Base 0.47.2
 _ZN19PaxosServiceMessageD1Ev@Base 0.47.2
 _ZN19PaxosServiceMessageD2Ev@Base 0.47.2
 _ZN19PerfCountersBuilder11add_u64_avgEiPKc@Base 0.58
 _ZN19PerfCountersBuilder12add_time_avgEiPKc@Base 0.58
 _ZN19PerfCountersBuilder15add_u64_counterEiPKc@Base 0.47.2
 _ZN19PerfCountersBuilder20create_perf_countersEv@Base 0.47.2
 _ZN19PerfCountersBuilder7add_u64EiPKc@Base 0.47.2
 _ZN19PerfCountersBuilder8add_implEiPKci@Base 0.47.2
 _ZN19PerfCountersBuilder8add_timeEiPKc@Base 0.58
 _ZN19PerfCountersBuilderC1EP11CephContextRKSsii@Base 0.47.2
 _ZN19PerfCountersBuilderC2EP11CephContextRKSsii@Base 0.47.2
 _ZN19PerfCountersBuilderD1Ev@Base 0.47.2
 _ZN19PerfCountersBuilderD2Ev@Base 0.47.2
 _ZN19inode_backpointer_t10decode_oldERN4ceph6buffer4list8iteratorE@Base 0.58
 _ZN19inode_backpointer_t23generate_test_instancesERSt4listIPS_SaIS1_EE@Base 0.58
 _ZN19inode_backpointer_t6decodeERN4ceph6buffer4list8iteratorE@Base 0.58
 _ZN19inode_backpointer_tD1Ev@Base 0.58
 _ZN19inode_backpointer_tD2Ev@Base 0.58
 _ZN19mds_table_pending_t23generate_test_instancesERSt4listIPS_SaIS1_EE@Base 0.58
 _ZN19mds_table_pending_t6decodeERN4ceph6buffer4list8iteratorE@Base 0.58
 _ZN20AuthAuthorizeHandlerD0Ev@Base 0.47.2
 _ZN20AuthAuthorizeHandlerD1Ev@Base 0.47.2
 _ZN20AuthAuthorizeHandlerD2Ev@Base 0.47.2
 _ZN20PrebufferedStreambuf8overflowEi@Base 0.47.2
 _ZN20PrebufferedStreambuf9underflowEv@Base 0.47.2
 _ZN20PrebufferedStreambufC1EPcm@Base 0.47.2
 _ZN20PrebufferedStreambufC2EPcm@Base 0.47.2
 _ZN20PrebufferedStreambufD0Ev@Base 0.47.2
 _ZN20PrebufferedStreambufD1Ev@Base 0.47.2
 _ZN20PrebufferedStreambufD2Ev@Base 0.47.2
 _ZN21AuthNoneClientHandler12get_protocolEv@Base 0.47.2
 _ZN21AuthNoneClientHandler12need_ticketsEv@Base 0.47.2
 _ZN21AuthNoneClientHandler13build_requestERN4ceph6buffer4listE@Base 0.47.2
 _ZN21AuthNoneClientHandler13set_global_idEm@Base 0.47.2
 _ZN21AuthNoneClientHandler15handle_responseEiRN4ceph6buffer4list8iteratorE@Base 0.47.2
 _ZN21AuthNoneClientHandler16build_authorizerEj@Base 0.47.2
 _ZN21AuthNoneClientHandler16validate_ticketsEv@Base 0.47.2
 _ZN21AuthNoneClientHandler22build_rotating_requestERN4ceph6buffer4listE@Base 0.47.2
 _ZN21AuthNoneClientHandler4tickEv@Base 0.47.2
 _ZN21AuthNoneClientHandler5resetEv@Base 0.47.2
 _ZN21AuthNoneClientHandlerD0Ev@Base 0.47.2
 _ZN21AuthNoneClientHandlerD1Ev@Base 0.47.2
 _ZN21AuthNoneClientHandlerD2Ev@Base 0.47.2
 _ZN21CephxAuthorizeHandler17verify_authorizerEP11CephContextP8KeyStoreRN4ceph6buffer4listES7_R10EntityNameRmR12AuthCapsInfoR9CryptoKeyPm@Base 0.58
 _ZN21CephxAuthorizeHandler25authorizer_session_cryptoEv@Base 0.58
 _ZN21CephxAuthorizeHandlerD0Ev@Base 0.47.2
 _ZN21CephxAuthorizeHandlerD1Ev@Base 0.47.2
 _ZN21CephxAuthorizeHandlerD2Ev@Base 0.47.2
 _ZN21MClientRequestForward14decode_payloadEv@Base 0.47.2
 _ZN21MClientRequestForward14encode_payloadEm@Base 0.47.2
 _ZN21MClientRequestForwardC1Ev@Base 0.47.2
 _ZN21MClientRequestForwardC2Ev@Base 0.47.2
 _ZN21MClientRequestForwardD0Ev@Base 0.47.2
 _ZN21MClientRequestForwardD1Ev@Base 0.47.2
 _ZN21MClientRequestForwardD2Ev@Base 0.47.2
 _ZN21MExportDirDiscoverAck14decode_payloadEv@Base 0.47.2
 _ZN21MExportDirDiscoverAck14encode_payloadEm@Base 0.47.2
 _ZN21MExportDirDiscoverAckC1Ev@Base 0.47.2
 _ZN21MExportDirDiscoverAckC2Ev@Base 0.47.2
 _ZN21MExportDirDiscoverAckD0Ev@Base 0.47.2
 _ZN21MExportDirDiscoverAckD1Ev@Base 0.47.2
 _ZN21MExportDirDiscoverAckD2Ev@Base 0.47.2
 _ZN22AuthNoneSessionHandler11no_securityEv@Base 0.58
 _ZN22AuthNoneSessionHandler12sign_messageEP7Message@Base 0.58
 _ZN22AuthNoneSessionHandler15decrypt_messageEP7Message@Base 0.58
 _ZN22AuthNoneSessionHandler15encrypt_messageEP7Message@Base 0.58
 _ZN22AuthNoneSessionHandler23check_message_signatureEP7Message@Base 0.58
 _ZN22AuthNoneSessionHandlerD0Ev@Base 0.58
 _ZN22AuthNoneSessionHandlerD1Ev@Base 0.58
 _ZN22AuthNoneSessionHandlerD2Ev@Base 0.58
 _ZN22CephXServiceTicketInfoD1Ev@Base 0.47.2
 _ZN22CephXServiceTicketInfoD2Ev@Base 0.47.2
 _ZN22ObjectRecoveryProgress23generate_test_instancesERSt4listIPS_SaIS1_EE@Base 0.47.2
 _ZN22ObjectRecoveryProgress6decodeERN4ceph6buffer4list8iteratorE@Base 0.47.2
 _ZN22ObjectRecoveryProgressD1Ev@Base 0.47.2
 _ZN22ObjectRecoveryProgressD2Ev@Base 0.47.2
 _ZN22PerfCountersCollection17write_json_to_bufERN4ceph6buffer4listEb@Base 0.48
 _ZN22PerfCountersCollection3addEP12PerfCounters@Base 0.47.2
 _ZN22PerfCountersCollection5clearEv@Base 0.47.2
 _ZN22PerfCountersCollection6removeEP12PerfCounters@Base 0.47.2
 _ZN22PerfCountersCollectionC1EP11CephContext@Base 0.47.2
 _ZN22PerfCountersCollectionC2EP11CephContext@Base 0.47.2
 _ZN22PerfCountersCollectionD1Ev@Base 0.47.2
 _ZN22PerfCountersCollectionD2Ev@Base 0.47.2
 _ZN24AuthNoneAuthorizeHandler17verify_authorizerEP11CephContextP8KeyStoreRN4ceph6buffer4listES7_R10EntityNameRmR12AuthCapsInfoR9CryptoKeyPm@Base 0.58
 _ZN24AuthNoneAuthorizeHandler25authorizer_session_cryptoEv@Base 0.58
 _ZN24AuthNoneAuthorizeHandlerD0Ev@Base 0.47.2
 _ZN24AuthNoneAuthorizeHandlerD1Ev@Base 0.47.2
 _ZN24AuthNoneAuthorizeHandlerD2Ev@Base 0.47.2
 _ZN24C_Client_CacheInvalidate6finishEi@Base 0.58
 _ZN24C_Client_CacheInvalidateD0Ev@Base 0.58
 _ZN24C_Client_CacheInvalidateD1Ev@Base 0.58
 _ZN24C_Client_CacheInvalidateD2Ev@Base 0.58
 _ZN24CephContextServiceThread5entryEv@Base 0.47.2
 _ZN24CephContextServiceThreadD0Ev@Base 0.47.2
 _ZN24CephContextServiceThreadD1Ev@Base 0.47.2
 _ZN24CephContextServiceThreadD2Ev@Base 0.47.2
 _ZN24client_writeable_range_t23generate_test_instancesERSt4listIPS_SaIS1_EE@Base 0.58
 _ZN24client_writeable_range_t6decodeERN4ceph6buffer4list8iteratorE@Base 0.58
 _ZN24object_stat_collection_t23generate_test_instancesERSt4listIPS_SaIS1_EE@Base 0.47.2
 _ZN24object_stat_collection_t6decodeERN4ceph6buffer4list8iteratorE@Base 0.47.2
 _ZN24object_stat_collection_tD1Ev@Base 0.47.2
 _ZN24object_stat_collection_tD2Ev@Base 0.47.2
 _ZN25AuthUnknownSessionHandler11no_securityEv@Base 0.58
 _ZN25AuthUnknownSessionHandler12sign_messageEP7Message@Base 0.58
 _ZN25AuthUnknownSessionHandler15decrypt_messageEP7Message@Base 0.58
 _ZN25AuthUnknownSessionHandler15encrypt_messageEP7Message@Base 0.58
 _ZN25AuthUnknownSessionHandler23check_message_signatureEP7Message@Base 0.58
 _ZN25AuthUnknownSessionHandlerD0Ev@Base 0.58
 _ZN25AuthUnknownSessionHandlerD1Ev@Base 0.58
 _ZN25AuthUnknownSessionHandlerD2Ev@Base 0.58
 _ZN27AuthUnknownAuthorizeHandler17verify_authorizerEP11CephContextP8KeyStoreRN4ceph6buffer4listES7_R10EntityNameRmR12AuthCapsInfoR9CryptoKeyPm@Base 0.58
 _ZN27AuthUnknownAuthorizeHandler25authorizer_session_cryptoEv@Base 0.58
 _ZN27AuthUnknownAuthorizeHandlerD0Ev@Base 0.58
 _ZN27AuthUnknownAuthorizeHandlerD1Ev@Base 0.58
 _ZN27AuthUnknownAuthorizeHandlerD2Ev@Base 0.58
 _ZN28AuthAuthorizeHandlerRegistry11get_handlerEi@Base 0.47.2
 _ZN28AuthAuthorizeHandlerRegistryD1Ev@Base 0.47.2
 _ZN28AuthAuthorizeHandlerRegistryD2Ev@Base 0.47.2
 _ZN3DirC1EP5Inode@Base 0.47.2
 _ZN3DirC2EP5Inode@Base 0.47.2
 _ZN3DirD1Ev@Base 0.47.2
 _ZN3DirD2Ev@Base 0.47.2
 _ZN3LRU10lru_adjustEv@Base 0.47.2
 _ZN3LRU10lru_removeEP9LRUObject@Base 0.47.2
 _ZN3LRU14lru_insert_midEP9LRUObject@Base 0.47.2
 _ZN3LRU14lru_insert_topEP9LRUObject@Base 0.47.2
 _ZN4Cond12WaitIntervalEP11CephContextR5Mutex7utime_t@Base 0.47.2
 _ZN4Cond4WaitER5Mutex@Base 0.47.2
 _ZN4Cond6SignalEv@Base 0.58
 _ZN4Cond9SignalAllEv@Base 0.58
 _ZN4Cond9WaitUntilER5Mutex7utime_t@Base 0.58
 _ZN4CondC1Ev@Base 0.47.2
 _ZN4CondC2Ev@Base 0.47.2
 _ZN4CondD0Ev@Base 0.47.2
 _ZN4CondD1Ev@Base 0.47.2
 _ZN4CondD2Ev@Base 0.47.2
 _ZN4MLog14decode_payloadEv@Base 0.47.2
 _ZN4MLog14encode_payloadEm@Base 0.47.2
 _ZN4MLogC1Ev@Base 0.47.2
 _ZN4MLogC2Ev@Base 0.47.2
 _ZN4MLogD0Ev@Base 0.47.2
 _ZN4MLogD1Ev@Base 0.47.2
 _ZN4MLogD2Ev@Base 0.47.2
 _ZN4Pipe10do_sendmsgEP6msghdrib@Base 0.58
 _ZN4Pipe10handle_ackEm@Base 0.58
 _ZN4Pipe11join_readerEv@Base 0.58
 _ZN4Pipe12_pipe_prefixEPSo@Base 0.58
 _ZN4Pipe12read_messageEPP7Message@Base 0.58
 _ZN4Pipe12requeue_sentEm@Base 0.58
 _ZN4Pipe12start_readerEv@Base 0.58
 _ZN4Pipe12start_writerEv@Base 0.58
 _ZN4Pipe13register_pipeEv@Base 0.58
 _ZN4Pipe13set_peer_addrERK13entity_addr_t@Base 0.58
 _ZN4Pipe13tcp_read_waitEv@Base 0.58
 _ZN4Pipe13write_messageER15ceph_msg_headerR15ceph_msg_footerRN4ceph6buffer4listE@Base 0.58
 _ZN4Pipe14get_state_nameEi@Base 0.58
 _ZN4Pipe15DelayedDelivery5entryEv@Base 0.58
 _ZN4Pipe15DelayedDelivery5flushEv@Base 0.58
 _ZN4Pipe15DelayedDelivery5queueE7utime_tP7Message@Base 0.58
 _ZN4Pipe15DelayedDelivery7discardEv@Base 0.58
 _ZN4Pipe15DelayedDeliveryC1EPS_@Base 0.58
 _ZN4Pipe15DelayedDeliveryC2EPS_@Base 0.58
 _ZN4Pipe15DelayedDeliveryD0Ev@Base 0.58
 _ZN4Pipe15DelayedDeliveryD1Ev@Base 0.58
 _ZN4Pipe15DelayedDeliveryD2Ev@Base 0.58
 _ZN4Pipe15_send_keepaliveEv@Base 0.58
 _ZN4Pipe15unregister_pipeEv@Base 0.58
 _ZN4Pipe15write_keepaliveEv@Base 0.58
 _ZN4Pipe17discard_out_queueEv@Base 0.58
 _ZN4Pipe17randomize_out_seqEv@Base 0.58
 _ZN4Pipe17unlock_maybe_reapEv@Base 0.58
 _ZN4Pipe17was_session_resetEv@Base 0.58
 _ZN4Pipe18set_socket_optionsEv@Base 0.59
 _ZN4Pipe20tcp_read_nonblockingEPci@Base 0.58
 _ZN4Pipe24maybe_start_delay_threadEv@Base 0.58
 _ZN4Pipe4stopEv@Base 0.58
 _ZN4Pipe5_sendEP7Message@Base 0.58
 _ZN4Pipe5faultEb@Base 0.58
 _ZN4Pipe6Reader5entryEv@Base 0.58
 _ZN4Pipe6ReaderD0Ev@Base 0.58
 _ZN4Pipe6ReaderD1Ev@Base 0.58
 _ZN4Pipe6ReaderD2Ev@Base 0.58
 _ZN4Pipe6Writer5entryEv@Base 0.58
 _ZN4Pipe6WriterD0Ev@Base 0.58
 _ZN4Pipe6WriterD1Ev@Base 0.58
 _ZN4Pipe6WriterD2Ev@Base 0.58
 _ZN4Pipe6acceptEv@Base 0.58
 _ZN4Pipe6readerEv@Base 0.58
 _ZN4Pipe6writerEv@Base 0.58
 _ZN4Pipe7connectEv@Base 0.58
 _ZN4Pipe8tcp_readEPci@Base 0.58
 _ZN4Pipe9tcp_writeEPKci@Base 0.58
 _ZN4Pipe9write_ackEm@Base 0.58
 _ZN4PipeC1EP15SimpleMessengeriP10Connection@Base 0.58
 _ZN4PipeC2EP15SimpleMessengeriP10Connection@Base 0.58
 _ZN4PipeD0Ev@Base 0.58
 _ZN4PipeD1Ev@Base 0.58
 _ZN4PipeD2Ev@Base 0.58
 _ZN4ceph10_page_maskE@Base 0.47.2
 _ZN4ceph10_page_sizeE@Base 0.47.2
 _ZN4ceph11_page_shiftE@Base 0.47.2
 _ZN4ceph12HeartbeatMap10add_workerESs@Base 0.47.2
 _ZN4ceph12HeartbeatMap10is_healthyEv@Base 0.47.2
 _ZN4ceph12HeartbeatMap13clear_timeoutEPNS_18heartbeat_handle_dE@Base 0.47.2
 _ZN4ceph12HeartbeatMap13remove_workerEPNS_18heartbeat_handle_dE@Base 0.47.2
 _ZN4ceph12HeartbeatMap13reset_timeoutEPNS_18heartbeat_handle_dEll@Base 0.47.2
 _ZN4ceph12HeartbeatMap16check_touch_fileEv@Base 0.47.2
 _ZN4ceph12HeartbeatMap6_checkEPNS_18heartbeat_handle_dEPKcl@Base 0.47.2
 _ZN4ceph12HeartbeatMapC1EP11CephContext@Base 0.47.2
 _ZN4ceph12HeartbeatMapC2EP11CephContext@Base 0.47.2
 _ZN4ceph12HeartbeatMapD1Ev@Base 0.47.2
 _ZN4ceph12HeartbeatMapD2Ev@Base 0.47.2
 _ZN4ceph12XMLFormatter10dump_floatEPKcd@Base 0.47.2
 _ZN4ceph12XMLFormatter11dump_formatEPKcS2_z@Base 0.47.2
 _ZN4ceph12XMLFormatter11dump_streamEPKc@Base 0.47.2
 _ZN4ceph12XMLFormatter11dump_stringEPKcSs@Base 0.47.2
 _ZN4ceph12XMLFormatter12print_spacesEv@Base 0.58
 _ZN4ceph12XMLFormatter13close_sectionEv@Base 0.47.2
 _ZN4ceph12XMLFormatter13dump_unsignedEPKcm@Base 0.47.2
 _ZN4ceph12XMLFormatter13get_attrs_strEPKNS_14FormatterAttrsERSs@Base 0.59
 _ZN4ceph12XMLFormatter14escape_xml_strEPKc@Base 0.47.2
 _ZN4ceph12XMLFormatter14write_raw_dataEPKc@Base 0.47.2
 _ZN4ceph12XMLFormatter18open_array_sectionEPKc@Base 0.47.2
 _ZN4ceph12XMLFormatter18open_section_in_nsEPKcS2_PKNS_14FormatterAttrsE@Base 0.59
 _ZN4ceph12XMLFormatter19open_object_sectionEPKc@Base 0.47.2
 _ZN4ceph12XMLFormatter21finish_pending_stringEv@Base 0.47.2
 _ZN4ceph12XMLFormatter22dump_string_with_attrsEPKcSsRKNS_14FormatterAttrsE@Base 0.59
 _ZN4ceph12XMLFormatter24open_array_section_in_nsEPKcS2_@Base 0.47.2
 _ZN4ceph12XMLFormatter25open_object_section_in_nsEPKcS2_@Base 0.47.2
 _ZN4ceph12XMLFormatter29open_array_section_with_attrsEPKcRKNS_14FormatterAttrsE@Base 0.59
 _ZN4ceph12XMLFormatter30open_object_section_with_attrsEPKcRKNS_14FormatterAttrsE@Base 0.59
 _ZN4ceph12XMLFormatter5flushERSo@Base 0.47.2
 _ZN4ceph12XMLFormatter5resetEv@Base 0.47.2
 _ZN4ceph12XMLFormatter8dump_intEPKcl@Base 0.47.2
 _ZN4ceph12XMLFormatter9XML_1_DTDE@Base 0.47.2
 _ZN4ceph12XMLFormatterC1Eb@Base 0.47.2
 _ZN4ceph12XMLFormatterC2Eb@Base 0.47.2
 _ZN4ceph12XMLFormatterD0Ev@Base 0.47.2
 _ZN4ceph12XMLFormatterD1Ev@Base 0.47.2
 _ZN4ceph12XMLFormatterD2Ev@Base 0.47.2
 _ZN4ceph12_get_bits_ofEi@Base 0.47.2
 _ZN4ceph13JSONFormatter10dump_floatEPKcd@Base 0.47.2
 _ZN4ceph13JSONFormatter10print_nameEPKc@Base 0.47.2
 _ZN4ceph13JSONFormatter11dump_formatEPKcS2_z@Base 0.47.2
 _ZN4ceph13JSONFormatter11dump_streamEPKc@Base 0.47.2
 _ZN4ceph13JSONFormatter11dump_stringEPKcSs@Base 0.47.2
 _ZN4ceph13JSONFormatter11print_commaERNS0_28json_formatter_stack_entry_dE@Base 0.47.2
 _ZN4ceph13JSONFormatter12open_sectionEPKcb@Base 0.47.2
 _ZN4ceph13JSONFormatter13close_sectionEv@Base 0.47.2
 _ZN4ceph13JSONFormatter13dump_unsignedEPKcm@Base 0.47.2
 _ZN4ceph13JSONFormatter14write_raw_dataEPKc@Base 0.47.2
 _ZN4ceph13JSONFormatter18open_array_sectionEPKc@Base 0.47.2
 _ZN4ceph13JSONFormatter19open_object_sectionEPKc@Base 0.47.2
 _ZN4ceph13JSONFormatter19print_quoted_stringEPKc@Base 0.47.2
 _ZN4ceph13JSONFormatter21finish_pending_stringEv@Base 0.47.2
 _ZN4ceph13JSONFormatter24open_array_section_in_nsEPKcS2_@Base 0.47.2
 _ZN4ceph13JSONFormatter25open_object_section_in_nsEPKcS2_@Base 0.47.2
 _ZN4ceph13JSONFormatter5flushERSo@Base 0.47.2
 _ZN4ceph13JSONFormatter5resetEv@Base 0.47.2
 _ZN4ceph13JSONFormatter8dump_intEPKcl@Base 0.47.2
 _ZN4ceph13JSONFormatterC1Eb@Base 0.47.2
 _ZN4ceph13JSONFormatterC2Eb@Base 0.47.2
 _ZN4ceph13JSONFormatterD0Ev@Base 0.47.2
 _ZN4ceph13JSONFormatterD1Ev@Base 0.47.2
 _ZN4ceph13JSONFormatterD2Ev@Base 0.47.2
 _ZN4ceph14FormatterAttrsC1EPKcz@Base 0.59
 _ZN4ceph14FormatterAttrsC2EPKcz@Base 0.59
 _ZN4ceph18__ceph_assert_failEPKcS1_iS1_@Base 0.47.2
 _ZN4ceph18__ceph_assert_warnEPKcS1_iS1_@Base 0.47.2
 _ZN4ceph18buffer_total_allocE@Base 0.47.2
 _ZN4ceph18buffer_track_allocE@Base 0.47.2
 _ZN4ceph23register_assert_contextEP11CephContext@Base 0.47.2
 _ZN4ceph3log10EntryQueueD1Ev@Base 0.47.2
 _ZN4ceph3log10EntryQueueD2Ev@Base 0.47.2
 _ZN4ceph3log12SubsystemMap13set_log_levelEji@Base 0.48
 _ZN4ceph3log12SubsystemMap13should_gatherEji@Base 0.47.2
 _ZN4ceph3log12SubsystemMap16set_gather_levelEji@Base 0.48
 _ZN4ceph3log12SubsystemMap3addEjSsii@Base 0.47.2
 _ZN4ceph3log3Log11dump_recentEv@Base 0.47.2
 _ZN4ceph3log3Log11set_max_newEi@Base 0.47.2
 _ZN4ceph3log3Log12_log_messageEPKcb@Base 0.47.2
 _ZN4ceph3log3Log12create_entryEii@Base 0.47.2
 _ZN4ceph3log3Log12set_log_fileESs@Base 0.47.2
 _ZN4ceph3log3Log12submit_entryEPNS0_5EntryE@Base 0.47.2
 _ZN4ceph3log3Log14set_max_recentEi@Base 0.47.2
 _ZN4ceph3log3Log15reopen_log_fileEv@Base 0.47.2
 _ZN4ceph3log3Log16set_stderr_levelEii@Base 0.47.2
 _ZN4ceph3log3Log16set_syslog_levelEii@Base 0.47.2
 _ZN4ceph3log3Log17set_flush_on_exitEv@Base 0.47.2
 _ZN4ceph3log3Log4stopEv@Base 0.47.2
 _ZN4ceph3log3Log5entryEv@Base 0.47.2
 _ZN4ceph3log3Log5flushEv@Base 0.47.2
 _ZN4ceph3log3Log5startEv@Base 0.47.2
 _ZN4ceph3log3Log6_flushEPNS0_10EntryQueueES3_b@Base 0.47.2
 _ZN4ceph3log3LogC1EPNS0_12SubsystemMapE@Base 0.47.2
 _ZN4ceph3log3LogC2EPNS0_12SubsystemMapE@Base 0.47.2
 _ZN4ceph3log3LogD0Ev@Base 0.47.2
 _ZN4ceph3log3LogD1Ev@Base 0.47.2
 _ZN4ceph3log3LogD2Ev@Base 0.47.2
 _ZN4ceph3log5EntryC1E7utime_tmssPKc@Base 0.47.2
 _ZN4ceph3log5EntryC2E7utime_tmssPKc@Base 0.47.2
 _ZN4ceph3log9SubsystemD1Ev@Base 0.47.2
 _ZN4ceph3log9SubsystemD2Ev@Base 0.47.2
 _ZN4ceph6buffer10claim_charEjPc@Base 0.47.2
 _ZN4ceph6buffer10raw_malloc11clone_emptyEv@Base 0.47.2
 _ZN4ceph6buffer10raw_mallocD0Ev@Base 0.47.2
 _ZN4ceph6buffer10raw_mallocD1Ev@Base 0.47.2
 _ZN4ceph6buffer10raw_mallocD2Ev@Base 0.47.2
 _ZN4ceph6buffer10raw_static11clone_emptyEv@Base 0.47.2
 _ZN4ceph6buffer10raw_staticD0Ev@Base 0.47.2
 _ZN4ceph6buffer10raw_staticD1Ev@Base 0.47.2
 _ZN4ceph6buffer10raw_staticD2Ev@Base 0.47.2
 _ZN4ceph6buffer12claim_mallocEjPc@Base 0.47.2
 _ZN4ceph6buffer13create_mallocEj@Base 0.47.2
 _ZN4ceph6buffer13create_staticEjPc@Base 0.47.2
 _ZN4ceph6buffer13end_of_bufferD0Ev@Base 0.47.2
 _ZN4ceph6buffer13end_of_bufferD1Ev@Base 0.47.2
 _ZN4ceph6buffer13end_of_bufferD2Ev@Base 0.47.2
 _ZN4ceph6buffer15dec_total_allocEj@Base 0.47.2
 _ZN4ceph6buffer15get_total_allocEv@Base 0.47.2
 _ZN4ceph6buffer15inc_total_allocEj@Base 0.47.2
 _ZN4ceph6buffer15malformed_inputC1EPKc@Base 0.47.2
 _ZN4ceph6buffer15malformed_inputC2EPKc@Base 0.47.2
 _ZN4ceph6buffer15malformed_inputD0Ev@Base 0.47.2
 _ZN4ceph6buffer15malformed_inputD1Ev@Base 0.47.2
 _ZN4ceph6buffer15malformed_inputD2Ev@Base 0.47.2
 _ZN4ceph6buffer17raw_posix_aligned11clone_emptyEv@Base 0.47.2
 _ZN4ceph6buffer17raw_posix_alignedD0Ev@Base 0.47.2
 _ZN4ceph6buffer17raw_posix_alignedD1Ev@Base 0.47.2
 _ZN4ceph6buffer17raw_posix_alignedD2Ev@Base 0.47.2
 _ZN4ceph6buffer19create_page_alignedEj@Base 0.47.2
 _ZN4ceph6buffer3ptr3cmpERKS1_@Base 0.47.2
 _ZN4ceph6buffer3ptr4swapERS1_@Base 0.47.2
 _ZN4ceph6buffer3ptr4zeroEjj@Base 0.47.2
 _ZN4ceph6buffer3ptr4zeroEv@Base 0.47.2
 _ZN4ceph6buffer3ptr5c_strEv@Base 0.47.2
 _ZN4ceph6buffer3ptr5cloneEv@Base 0.47.2
 _ZN4ceph6buffer3ptr6appendEPKcj@Base 0.47.2
 _ZN4ceph6buffer3ptr6appendEc@Base 0.47.2
 _ZN4ceph6buffer3ptr6wastedEv@Base 0.47.2
 _ZN4ceph6buffer3ptr7copy_inEjjPKc@Base 0.47.2
 _ZN4ceph6buffer3ptr7releaseEv@Base 0.47.2
 _ZN4ceph6buffer3ptrC1EPKcj@Base 0.47.2
 _ZN4ceph6buffer3ptrC1EPNS0_3rawE@Base 0.47.2
 _ZN4ceph6buffer3ptrC1ERKS1_@Base 0.47.2
 _ZN4ceph6buffer3ptrC1ERKS1_jj@Base 0.47.2
 _ZN4ceph6buffer3ptrC1Ej@Base 0.47.2
 _ZN4ceph6buffer3ptrC2EPKcj@Base 0.47.2
 _ZN4ceph6buffer3ptrC2EPNS0_3rawE@Base 0.47.2
 _ZN4ceph6buffer3ptrC2ERKS1_@Base 0.47.2
 _ZN4ceph6buffer3ptrC2ERKS1_jj@Base 0.47.2
 _ZN4ceph6buffer3ptrC2Ej@Base 0.47.2
 _ZN4ceph6buffer3ptraSERKS1_@Base 0.47.2
 _ZN4ceph6buffer3ptrixEj@Base 0.47.2
 _ZN4ceph6buffer3rawD0Ev@Base 0.47.2
 _ZN4ceph6buffer3rawD1Ev@Base 0.47.2
 _ZN4ceph6buffer3rawD2Ev@Base 0.47.2
 _ZN4ceph6buffer4copyEPKcj@Base 0.47.2
 _ZN4ceph6buffer4list10write_fileEPKci@Base 0.47.2
 _ZN4ceph6buffer4list11append_zeroEj@Base 0.47.2
 _ZN4ceph6buffer4list12claim_appendERS1_@Base 0.47.2
 _ZN4ceph6buffer4list13claim_prependERS1_@Base 0.58
 _ZN4ceph6buffer4list13decode_base64ERS1_@Base 0.47.2
 _ZN4ceph6buffer4list13encode_base64ERS1_@Base 0.47.2
 _ZN4ceph6buffer4list13is_contiguousEv@Base 0.47.2
 _ZN4ceph6buffer4list14contents_equalERS1_@Base 0.47.2
 _ZN4ceph6buffer4list20rebuild_page_alignedEv@Base 0.47.2
 _ZN4ceph6buffer4list4swapERS1_@Base 0.47.2
 _ZN4ceph6buffer4list4zeroEjj@Base 0.47.2
 _ZN4ceph6buffer4list4zeroEv@Base 0.47.2
 _ZN4ceph6buffer4list5c_strEv@Base 0.47.2
 _ZN4ceph6buffer4list5claimERS1_@Base 0.47.2
 _ZN4ceph6buffer4list5clearEv@Base 0.47.2
 _ZN4ceph6buffer4list6appendEPKcj@Base 0.47.2
 _ZN4ceph6buffer4list6appendERKNS0_3ptrE@Base 0.47.2
 _ZN4ceph6buffer4list6appendERKNS0_3ptrEjj@Base 0.47.2
 _ZN4ceph6buffer4list6appendERKS1_@Base 0.47.2
 _ZN4ceph6buffer4list6appendERSi@Base 0.47.2
 _ZN4ceph6buffer4list6appendEc@Base 0.47.2
 _ZN4ceph6buffer4list6crc32cEj@Base 0.47.2
 _ZN4ceph6buffer4list6spliceEjjPS1_@Base 0.47.2
 _ZN4ceph6buffer4list7copy_inEjjPKc@Base 0.47.2
 _ZN4ceph6buffer4list7copy_inEjjRKS1_@Base 0.47.2
 _ZN4ceph6buffer4list7read_fdEim@Base 0.47.2
 _ZN4ceph6buffer4list7rebuildEv@Base 0.47.2
 _ZN4ceph6buffer4list8iterator15get_current_ptrEv@Base 0.47.2
 _ZN4ceph6buffer4list8iterator4copyEjPc@Base 0.47.2
 _ZN4ceph6buffer4list8iterator4copyEjRNS0_3ptrE@Base 0.47.2
 _ZN4ceph6buffer4list8iterator4copyEjRS1_@Base 0.47.2
 _ZN4ceph6buffer4list8iterator4copyEjRSs@Base 0.47.2
 _ZN4ceph6buffer4list8iterator4seekEj@Base 0.47.2
 _ZN4ceph6buffer4list8iterator7advanceEi@Base 0.47.2
 _ZN4ceph6buffer4list8iterator7copy_inEjPKc@Base 0.47.2
 _ZN4ceph6buffer4list8iterator7copy_inEjRKS1_@Base 0.47.2
 _ZN4ceph6buffer4list8iterator8copy_allERS1_@Base 0.47.2
 _ZN4ceph6buffer4list8iteratorC1EPS1_j@Base 0.47.2
 _ZN4ceph6buffer4list8iteratorC2EPS1_j@Base 0.47.2
 _ZN4ceph6buffer4list8iteratordeEv@Base 0.47.2
 _ZN4ceph6buffer4list8iteratorppEv@Base 0.47.2
 _ZN4ceph6buffer4list9push_backEPNS0_3rawE@Base 0.47.2
 _ZN4ceph6buffer4list9read_fileEPKcPSs@Base 0.47.2
 _ZN4ceph6buffer4list9substr_ofERKS1_jj@Base 0.47.2
 _ZN4ceph6buffer4listC1ERKS1_@Base 0.47.2
 _ZN4ceph6buffer4listC1Ej@Base 0.58
 _ZN4ceph6buffer4listC1Ev@Base 0.47.2
 _ZN4ceph6buffer4listC2ERKS1_@Base 0.47.2
 _ZN4ceph6buffer4listC2Ej@Base 0.58
 _ZN4ceph6buffer4listC2Ev@Base 0.47.2
 _ZN4ceph6buffer4listD1Ev@Base 0.47.2
 _ZN4ceph6buffer4listD2Ev@Base 0.47.2
 _ZN4ceph6buffer5errorD0Ev@Base 0.47.2
 _ZN4ceph6buffer5errorD1Ev@Base 0.47.2
 _ZN4ceph6buffer5errorD2Ev@Base 0.47.2
 _ZN4ceph6buffer6createEj@Base 0.47.2
 _ZN4ceph6buffer8raw_char11clone_emptyEv@Base 0.47.2
 _ZN4ceph6buffer8raw_charD0Ev@Base 0.47.2
 _ZN4ceph6buffer8raw_charD1Ev@Base 0.47.2
 _ZN4ceph6buffer8raw_charD2Ev@Base 0.47.2
 _ZN4ceph6buffer9bad_allocD0Ev@Base 0.47.2
 _ZN4ceph6buffer9bad_allocD1Ev@Base 0.47.2
 _ZN4ceph6buffer9bad_allocD2Ev@Base 0.47.2
 _ZN4ceph6crypto4initEP11CephContext@Base 0.58
 _ZN4ceph6crypto8HMACSHA1D1Ev@Base 0.47.2
 _ZN4ceph6crypto8HMACSHA1D2Ev@Base 0.47.2
 _ZN4ceph6crypto8shutdownEv@Base 0.47.2
 _ZN4ceph9BackTrace5printERSo@Base 0.47.2
 _ZN4ceph9Formatter22dump_string_with_attrsEPKcSsRKNS_14FormatterAttrsE@Base 0.59
 _ZN4ceph9Formatter29open_array_section_with_attrsEPKcRKNS_14FormatterAttrsE@Base 0.59
 _ZN4ceph9Formatter30open_object_section_with_attrsEPKcRKNS_14FormatterAttrsE@Base 0.59
 _ZN4ceph9FormatterC1Ev@Base 0.47.2
 _ZN4ceph9FormatterC2Ev@Base 0.47.2
 _ZN4ceph9FormatterD0Ev@Base 0.47.2
 _ZN4ceph9FormatterD1Ev@Base 0.47.2
 _ZN4ceph9FormatterD2Ev@Base 0.47.2
 _ZN4cephlsERSoRKNS_6buffer3rawE@Base 0.47.2
 _ZN4pg_t23generate_test_instancesERSt4listIPS_SaIS1_EE@Base 0.47.2
 _ZN4pg_t5parseEPKc@Base 0.47.2
 _ZN4pg_t6decodeERN4ceph6buffer4list8iteratorE@Base 0.47.2
 _ZN5Filer11purge_rangeE9inodeno_tP16ceph_file_layoutRK11SnapContextmm7utime_tiP7Context@Base 0.47.2
 _ZN5Filer11write_truncE9inodeno_tP16ceph_file_layoutRK11SnapContextmmRN4ceph6buffer4listE7utime_timjP7ContextSC_@Base 0.47.2
 _ZN5Filer15_do_purge_rangeEP10PurgeRangei@Base 0.47.2
 _ZN5Filer5ProbeD1Ev@Base 0.47.2
 _ZN5Filer5ProbeD2Ev@Base 0.47.2
 _ZN5Filer5probeE9inodeno_tP16ceph_file_layout8snapid_tmPmP7utime_tbiP7Context@Base 0.47.2
 _ZN5Filer6_probeEPNS_5ProbeE@Base 0.47.2
 _ZN5Filer7C_Probe6finishEi@Base 0.47.2
 _ZN5Filer7C_ProbeD0Ev@Base 0.47.2
 _ZN5Filer7C_ProbeD1Ev@Base 0.47.2
 _ZN5Filer7C_ProbeD2Ev@Base 0.47.2
 _ZN5Filer7_probedEPNS_5ProbeERK8object_tm7utime_t@Base 0.47.2
 _ZN5Inode10caps_dirtyEv@Base 0.47.2
 _ZN5Inode10check_modeEjjPjij@Base 0.58
 _ZN5Inode11caps_issuedEPi@Base 0.47.2
 _ZN5Inode11caps_wantedEv@Base 0.47.2
 _ZN5Inode11get_cap_refEi@Base 0.47.2
 _ZN5Inode11is_any_capsEv@Base 0.47.2
 _ZN5Inode11put_cap_refEi@Base 0.47.2
 _ZN5Inode12cap_is_validEP3Cap@Base 0.47.2
 _ZN5Inode12get_open_refEi@Base 0.47.2
 _ZN5Inode12put_open_refEi@Base 0.47.2
 _ZN5Inode13try_touch_capEi@Base 0.47.2
 _ZN5Inode14make_long_pathER8filepath@Base 0.47.2
 _ZN5Inode15have_valid_sizeEv@Base 0.47.2
 _ZN5Inode16caps_file_wantedEv@Base 0.47.2
 _ZN5Inode16caps_issued_maskEj@Base 0.47.2
 _ZN5Inode25make_nosnap_relative_pathER8filepath@Base 0.47.2
 _ZN5Inode3getEv@Base 0.47.2
 _ZN5Inode3putEi@Base 0.47.2
 _ZN5Inode8open_dirEv@Base 0.47.2
 _ZN5Inode9caps_usedEv@Base 0.47.2
 _ZN5Inode9touch_capEP3Cap@Base 0.47.2
 _ZN5InodeC1EP11CephContext10vinodeno_tP16ceph_file_layout@Base 0.47.2
 _ZN5InodeC2EP11CephContext10vinodeno_tP16ceph_file_layout@Base 0.47.2
 _ZN5InodeD1Ev@Base 0.47.2
 _ZN5InodeD2Ev@Base 0.47.2
 _ZN5MAuth14decode_payloadEv@Base 0.47.2
 _ZN5MAuth14encode_payloadEm@Base 0.47.2
 _ZN5MAuthC1Ev@Base 0.47.2
 _ZN5MAuthC2Ev@Base 0.47.2
 _ZN5MAuthD0Ev@Base 0.47.2
 _ZN5MAuthD1Ev@Base 0.47.2
 _ZN5MAuthD2Ev@Base 0.47.2
 _ZN5MLock14decode_payloadEv@Base 0.47.2
 _ZN5MLock14encode_payloadEm@Base 0.47.2
 _ZN5MLockC1Ev@Base 0.47.2
 _ZN5MLockC2Ev@Base 0.47.2
 _ZN5MLockD0Ev@Base 0.47.2
 _ZN5MLockD1Ev@Base 0.47.2
 _ZN5MLockD2Ev@Base 0.47.2
 _ZN5MPing14decode_payloadEv@Base 0.47.2
 _ZN5MPing14encode_payloadEm@Base 0.47.2
 _ZN5MPingC1Ev@Base 0.47.2
 _ZN5MPingC2Ev@Base 0.47.2
 _ZN5MPingD0Ev@Base 0.47.2
 _ZN5MPingD1Ev@Base 0.47.2
 _ZN5MPingD2Ev@Base 0.47.2
 _ZN5Mutex11_pre_unlockEv@Base 0.58
 _ZN5Mutex4LockEb@Base 0.47.2
 _ZN5Mutex6LockerD1Ev@Base 0.47.2
 _ZN5Mutex6LockerD2Ev@Base 0.47.2
 _ZN5Mutex6UnlockEv@Base 0.47.2
 _ZN5MutexC1EPKcbbbP11CephContext@Base 0.58
 _ZN5MutexC2EPKcbbbP11CephContext@Base 0.58
 _ZN5MutexD1Ev@Base 0.47.2
 _ZN5MutexD2Ev@Base 0.47.2
 _ZN5OSDOp27merge_osd_op_vector_in_dataERSt6vectorIS_SaIS_EERN4ceph6buffer4listE@Base 0.47.2
 _ZN5OSDOp27split_osd_op_vector_in_dataERSt6vectorIS_SaIS_EERN4ceph6buffer4listE@Base 0.47.2
 _ZN5OSDOp28merge_osd_op_vector_out_dataERSt6vectorIS_SaIS_EERN4ceph6buffer4listE@Base 0.47.2
 _ZN5OSDOp28split_osd_op_vector_out_dataERSt6vectorIS_SaIS_EERN4ceph6buffer4listE@Base 0.47.2
 _ZN5OSDOpC1ERKS_@Base 0.47.2
 _ZN5OSDOpC1Ev@Base 0.47.2
 _ZN5OSDOpC2ERKS_@Base 0.47.2
 _ZN5OSDOpC2Ev@Base 0.47.2
 _ZN5OSDOpD1Ev@Base 0.47.2
 _ZN5OSDOpD2Ev@Base 0.47.2
 _ZN5Trace10get_stringEPcPKc@Base 0.58
 _ZN5Trace11peek_stringEPcPKc@Base 0.58
 _ZN5Trace5startEv@Base 0.58
 _ZN5boost10lock_errorC1EiPKc@Base 0.58
 _ZN5boost10lock_errorC2EiPKc@Base 0.58
 _ZN5boost10lock_errorD0Ev@Base 0.58
 _ZN5boost10lock_errorD1Ev@Base 0.58
 _ZN5boost10lock_errorD2Ev@Base 0.58
 _ZN5boost10scoped_ptrINS_6spirit7classic4impl15abstract_parserINS2_7scannerIN9__gnu_cxx17__normal_iteratorIPKcSsEENS2_16scanner_policiesINS2_24skipper_iteration_policyINS2_16iteration_policyEEENS2_12match_policyENS2_13action_policyEEEEENS2_5nil_tEEEE5resetEPSK_@Base 0.47.2
 _ZN5boost10scoped_ptrINS_6spirit7classic4impl15abstract_parserINS2_7scannerINS2_10multi_passISt16istream_iteratorIccSt11char_traitsIcElENS2_19multi_pass_policies14input_iteratorENSB_11ref_countedENSB_12buf_id_checkENSB_9std_dequeEEENS2_16scanner_policiesINS2_24skipper_iteration_policyINS2_16iteration_policyEEENS2_12match_policyENS2_13action_policyEEEEENS2_5nil_tEEEE5resetEPSQ_@Base 0.47.2
 _ZN5boost10scoped_ptrINS_6spirit7classic4impl15abstract_parserINS2_7scannerINS2_17position_iteratorIN9__gnu_cxx17__normal_iteratorIPKcSsEENS2_18file_position_baseISsEENS2_5nil_tEEENS2_16scanner_policiesINS2_24skipper_iteration_policyINS2_16iteration_policyEEENS2_12match_policyENS2_13action_policyEEEEESE_EEE5resetEPSO_@Base 0.47.2
 _ZN5boost10scoped_ptrINS_6spirit7classic4impl15abstract_parserINS2_7scannerINS2_17position_iteratorINS2_10multi_passISt16istream_iteratorIccSt11char_traitsIcElENS2_19multi_pass_policies14input_iteratorENSC_11ref_countedENSC_12buf_id_checkENSC_9std_dequeEEENS2_18file_position_baseISsEENS2_5nil_tEEENS2_16scanner_policiesINS2_24skipper_iteration_policyINS2_16iteration_policyEEENS2_12match_policyENS2_13action_policyEEEEESK_EEE5resetEPSU_@Base 0.47.2
 _ZN5boost10shared_ptrINS_6detail20tss_cleanup_functionEED1Ev@Base 0.58
 _ZN5boost10shared_ptrINS_6detail20tss_cleanup_functionEED2Ev@Base 0.58
 _ZN5boost10shared_ptrINS_6spirit4impl14grammar_helperINS1_7grammarI13crush_grammarNS1_14parser_contextINS1_5nil_tEEEEES5_NS1_7scannerIPKcNS1_16scanner_policiesINS1_28skip_parser_iteration_policyINS1_12space_parserENS1_16iteration_policyEEENS1_16ast_match_policyISC_NS1_21node_val_data_factoryIS7_EES7_EENS1_13action_policyEEEEEEEE5resetEv@Base 0.47.2
 _ZN5boost10shared_ptrINS_6spirit4impl14grammar_helperINS1_7grammarI13crush_grammarNS1_14parser_contextINS1_5nil_tEEEEES5_NS1_7scannerIPKcNS1_16scanner_policiesINS1_28skip_parser_iteration_policyINS1_12space_parserENS1_16iteration_policyEEENS1_16ast_match_policyISC_NS1_21node_val_data_factoryIS7_EES7_EENS1_13action_policyEEEEEEEED1Ev@Base 0.47.2
 _ZN5boost10shared_ptrINS_6spirit4impl14grammar_helperINS1_7grammarI13crush_grammarNS1_14parser_contextINS1_5nil_tEEEEES5_NS1_7scannerIPKcNS1_16scanner_policiesINS1_28skip_parser_iteration_policyINS1_12space_parserENS1_16iteration_policyEEENS1_16ast_match_policyISC_NS1_21node_val_data_factoryIS7_EES7_EENS1_13action_policyEEEEEEEED2Ev@Base 0.47.2
 _ZN5boost10shared_ptrINS_6spirit4impl26object_with_id_base_supplyImEEE5resetIS4_EEvPT_@Base 0.47.2
 _ZN5boost10shared_ptrINS_6spirit4impl26object_with_id_base_supplyImEEED1Ev@Base 0.47.2
 _ZN5boost10shared_ptrINS_6spirit4impl26object_with_id_base_supplyImEEED2Ev@Base 0.47.2
 _ZN5boost10shared_ptrINS_6spirit4impl26object_with_id_base_supplyImEEEaSERKS5_@Base 0.47.2
 _ZN5boost10shared_ptrINS_6spirit7classic4impl14grammar_helperINS2_7grammarIN11json_spirit12Json_grammerINS6_10Value_implINS6_13Config_vectorISsEEEEN9__gnu_cxx17__normal_iteratorIPKcSsEEEENS2_14parser_contextINS2_5nil_tEEEEESH_NS2_7scannerISG_NS2_16scanner_policiesINS2_24skipper_iteration_policyINS2_16iteration_policyEEENS2_12match_policyENS2_13action_policyEEEEEEEE5resetEv@Base 0.47.2
 _ZN5boost10shared_ptrINS_6spirit7classic4impl14grammar_helperINS2_7grammarIN11json_spirit12Json_grammerINS6_10Value_implINS6_13Config_vectorISsEEEEN9__gnu_cxx17__normal_iteratorIPKcSsEEEENS2_14parser_contextINS2_5nil_tEEEEESH_NS2_7scannerISG_NS2_16scanner_policiesINS2_24skipper_iteration_policyINS2_16iteration_policyEEENS2_12match_policyENS2_13action_policyEEEEEEEED1Ev@Base 0.47.2
 _ZN5boost10shared_ptrINS_6spirit7classic4impl14grammar_helperINS2_7grammarIN11json_spirit12Json_grammerINS6_10Value_implINS6_13Config_vectorISsEEEEN9__gnu_cxx17__normal_iteratorIPKcSsEEEENS2_14parser_contextINS2_5nil_tEEEEESH_NS2_7scannerISG_NS2_16scanner_policiesINS2_24skipper_iteration_policyINS2_16iteration_policyEEENS2_12match_policyENS2_13action_policyEEEEEEEED2Ev@Base 0.47.2
 _ZN5boost10shared_ptrINS_6spirit7classic4impl14grammar_helperINS2_7grammarIN11json_spirit12Json_grammerINS6_10Value_implINS6_13Config_vectorISsEEEENS2_10multi_passISt16istream_iteratorIccSt11char_traitsIcElENS2_19multi_pass_policies14input_iteratorENSH_11ref_countedENSH_12buf_id_checkENSH_9std_dequeEEEEENS2_14parser_contextINS2_5nil_tEEEEESN_NS2_7scannerISM_NS2_16scanner_policiesINS2_24skipper_iteration_policyINS2_16iteration_policyEEENS2_12match_policyENS2_13action_policyEEEEEEEE5resetEv@Base 0.47.2
 _ZN5boost10shared_ptrINS_6spirit7classic4impl14grammar_helperINS2_7grammarIN11json_spirit12Json_grammerINS6_10Value_implINS6_13Config_vectorISsEEEENS2_10multi_passISt16istream_iteratorIccSt11char_traitsIcElENS2_19multi_pass_policies14input_iteratorENSH_11ref_countedENSH_12buf_id_checkENSH_9std_dequeEEEEENS2_14parser_contextINS2_5nil_tEEEEESN_NS2_7scannerISM_NS2_16scanner_policiesINS2_24skipper_iteration_policyINS2_16iteration_policyEEENS2_12match_policyENS2_13action_policyEEEEEEEED1Ev@Base 0.47.2
 _ZN5boost10shared_ptrINS_6spirit7classic4impl14grammar_helperINS2_7grammarIN11json_spirit12Json_grammerINS6_10Value_implINS6_13Config_vectorISsEEEENS2_10multi_passISt16istream_iteratorIccSt11char_traitsIcElENS2_19multi_pass_policies14input_iteratorENSH_11ref_countedENSH_12buf_id_checkENSH_9std_dequeEEEEENS2_14parser_contextINS2_5nil_tEEEEESN_NS2_7scannerISM_NS2_16scanner_policiesINS2_24skipper_iteration_policyINS2_16iteration_policyEEENS2_12match_policyENS2_13action_policyEEEEEEEED2Ev@Base 0.47.2
 _ZN5boost10shared_ptrINS_6spirit7classic4impl14grammar_helperINS2_7grammarIN11json_spirit12Json_grammerINS6_10Value_implINS6_13Config_vectorISsEEEENS2_17position_iteratorIN9__gnu_cxx17__normal_iteratorIPKcSsEENS2_18file_position_baseISsEENS2_5nil_tEEEEENS2_14parser_contextISK_EEEESM_NS2_7scannerISL_NS2_16scanner_policiesINS2_24skipper_iteration_policyINS2_16iteration_policyEEENS2_12match_policyENS2_13action_policyEEEEEEEE5resetEv@Base 0.47.2
 _ZN5boost10shared_ptrINS_6spirit7classic4impl14grammar_helperINS2_7grammarIN11json_spirit12Json_grammerINS6_10Value_implINS6_13Config_vectorISsEEEENS2_17position_iteratorIN9__gnu_cxx17__normal_iteratorIPKcSsEENS2_18file_position_baseISsEENS2_5nil_tEEEEENS2_14parser_contextISK_EEEESM_NS2_7scannerISL_NS2_16scanner_policiesINS2_24skipper_iteration_policyINS2_16iteration_policyEEENS2_12match_policyENS2_13action_policyEEEEEEEED1Ev@Base 0.47.2
 _ZN5boost10shared_ptrINS_6spirit7classic4impl14grammar_helperINS2_7grammarIN11json_spirit12Json_grammerINS6_10Value_implINS6_13Config_vectorISsEEEENS2_17position_iteratorIN9__gnu_cxx17__normal_iteratorIPKcSsEENS2_18file_position_baseISsEENS2_5nil_tEEEEENS2_14parser_contextISK_EEEESM_NS2_7scannerISL_NS2_16scanner_policiesINS2_24skipper_iteration_policyINS2_16iteration_policyEEENS2_12match_policyENS2_13action_policyEEEEEEEED2Ev@Base 0.47.2
 _ZN5boost10shared_ptrINS_6spirit7classic4impl14grammar_helperINS2_7grammarIN11json_spirit12Json_grammerINS6_10Value_implINS6_13Config_vectorISsEEEENS2_17position_iteratorINS2_10multi_passISt16istream_iteratorIccSt11char_traitsIcElENS2_19multi_pass_policies14input_iteratorENSI_11ref_countedENSI_12buf_id_checkENSI_9std_dequeEEENS2_18file_position_baseISsEENS2_5nil_tEEEEENS2_14parser_contextISQ_EEEESS_NS2_7scannerISR_NS2_16scanner_policiesINS2_24skipper_iteration_policyINS2_16iteration_policyEEENS2_12match_policyENS2_13action_policyEEEEEEEE5resetEv@Base 0.47.2
 _ZN5boost10shared_ptrINS_6spirit7classic4impl14grammar_helperINS2_7grammarIN11json_spirit12Json_grammerINS6_10Value_implINS6_13Config_vectorISsEEEENS2_17position_iteratorINS2_10multi_passISt16istream_iteratorIccSt11char_traitsIcElENS2_19multi_pass_policies14input_iteratorENSI_11ref_countedENSI_12buf_id_checkENSI_9std_dequeEEENS2_18file_position_baseISsEENS2_5nil_tEEEEENS2_14parser_contextISQ_EEEESS_NS2_7scannerISR_NS2_16scanner_policiesINS2_24skipper_iteration_policyINS2_16iteration_policyEEENS2_12match_policyENS2_13action_policyEEEEEEEED1Ev@Base 0.47.2
 _ZN5boost10shared_ptrINS_6spirit7classic4impl14grammar_helperINS2_7grammarIN11json_spirit12Json_grammerINS6_10Value_implINS6_13Config_vectorISsEEEENS2_17position_iteratorINS2_10multi_passISt16istream_iteratorIccSt11char_traitsIcElENS2_19multi_pass_policies14input_iteratorENSI_11ref_countedENSI_12buf_id_checkENSI_9std_dequeEEENS2_18file_position_baseISsEENS2_5nil_tEEEEENS2_14parser_contextISQ_EEEESS_NS2_7scannerISR_NS2_16scanner_policiesINS2_24skipper_iteration_policyINS2_16iteration_policyEEENS2_12match_policyENS2_13action_policyEEEEEEEED2Ev@Base 0.47.2
 _ZN5boost10shared_ptrINS_6spirit7classic4impl26object_with_id_base_supplyImEEE5resetIS5_EEvPT_@Base 0.47.2
 _ZN5boost10shared_ptrINS_6spirit7classic4impl26object_with_id_base_supplyImEEED1Ev@Base 0.47.2
 _ZN5boost10shared_ptrINS_6spirit7classic4impl26object_with_id_base_supplyImEEED2Ev@Base 0.47.2
 _ZN5boost10shared_ptrINS_6spirit7classic4impl26object_with_id_base_supplyImEEEaSERKS6_@Base 0.47.2
 _ZN5boost11unique_lockINS_5mutexEE4lockEv@Base 0.58
 _ZN5boost11unique_lockINS_5mutexEED1Ev@Base 0.58
 _ZN5boost11unique_lockINS_5mutexEED2Ev@Base 0.58
 _ZN5boost13intrusive_ptrI10ConnectionED1Ev@Base 0.58
 _ZN5boost13intrusive_ptrI10ConnectionED2Ev@Base 0.58
 _ZN5boost14checked_deleteINS_6spirit4impl26object_with_id_base_supplyImEEEEvPT_@Base 0.47.2
 _ZN5boost14checked_deleteINS_6spirit7classic4impl26object_with_id_base_supplyImEEEEvPT_@Base 0.47.2
 _ZN5boost15aligned_storageILm16ELm8EED1Ev@Base 0.58
 _ZN5boost15aligned_storageILm16ELm8EED2Ev@Base 0.58
 _ZN5boost15compressed_pairINS_6spirit7classic11alternativeINS2_6actionINS2_4ruleINS2_7scannerINS2_10multi_passISt16istream_iteratorIccSt11char_traitsIcElENS2_19multi_pass_policies14input_iteratorENSC_11ref_countedENSC_12buf_id_checkENSC_9std_dequeEEENS2_16scanner_policiesINS2_24skipper_iteration_policyINS2_16iteration_policyEEENS2_12match_policyENS2_13action_policyEEEEENS2_5nil_tESQ_EENS_8functionIFvSH_SH_EEEEESR_EERKSR_ED1Ev@Base 0.58
 _ZN5boost15compressed_pairINS_6spirit7classic11alternativeINS2_6actionINS2_4ruleINS2_7scannerINS2_10multi_passISt16istream_iteratorIccSt11char_traitsIcElENS2_19multi_pass_policies14input_iteratorENSC_11ref_countedENSC_12buf_id_checkENSC_9std_dequeEEENS2_16scanner_policiesINS2_24skipper_iteration_policyINS2_16iteration_policyEEENS2_12match_policyENS2_13action_policyEEEEENS2_5nil_tESQ_EENS_8functionIFvSH_SH_EEEEESR_EERKSR_ED2Ev@Base 0.58
 _ZN5boost15compressed_pairINS_6spirit7classic11alternativeINS2_6actionINS2_4ruleINS2_7scannerINS2_17position_iteratorINS2_10multi_passISt16istream_iteratorIccSt11char_traitsIcElENS2_19multi_pass_policies14input_iteratorENSD_11ref_countedENSD_12buf_id_checkENSD_9std_dequeEEENS2_18file_position_baseISsEENS2_5nil_tEEENS2_16scanner_policiesINS2_24skipper_iteration_policyINS2_16iteration_policyEEENS2_12match_policyENS2_13action_policyEEEEESL_SL_EENS_8functionIFvSM_SM_EEEEESV_EERKSV_ED1Ev@Base 0.59
 _ZN5boost15compressed_pairINS_6spirit7classic11alternativeINS2_6actionINS2_4ruleINS2_7scannerINS2_17position_iteratorINS2_10multi_passISt16istream_iteratorIccSt11char_traitsIcElENS2_19multi_pass_policies14input_iteratorENSD_11ref_countedENSD_12buf_id_checkENSD_9std_dequeEEENS2_18file_position_baseISsEENS2_5nil_tEEENS2_16scanner_policiesINS2_24skipper_iteration_policyINS2_16iteration_policyEEENS2_12match_policyENS2_13action_policyEEEEESL_SL_EENS_8functionIFvSM_SM_EEEEESV_EERKSV_ED2Ev@Base 0.59
 _ZN5boost15compressed_pairINS_6spirit7classic11alternativeINS3_INS2_6actionINS2_4ruleINS2_7scannerINS2_10multi_passISt16istream_iteratorIccSt11char_traitsIcElENS2_19multi_pass_policies14input_iteratorENSC_11ref_countedENSC_12buf_id_checkENSC_9std_dequeEEENS2_16scanner_policiesINS2_24skipper_iteration_policyINS2_16iteration_policyEEENS2_12match_policyENS2_13action_policyEEEEENS2_5nil_tESQ_EENS_8functionIFvSH_SH_EEEEESR_EESR_EERKSR_ED1Ev@Base 0.59
 _ZN5boost15compressed_pairINS_6spirit7classic11alternativeINS3_INS2_6actionINS2_4ruleINS2_7scannerINS2_10multi_passISt16istream_iteratorIccSt11char_traitsIcElENS2_19multi_pass_policies14input_iteratorENSC_11ref_countedENSC_12buf_id_checkENSC_9std_dequeEEENS2_16scanner_policiesINS2_24skipper_iteration_policyINS2_16iteration_policyEEENS2_12match_policyENS2_13action_policyEEEEENS2_5nil_tESQ_EENS_8functionIFvSH_SH_EEEEESR_EESR_EERKSR_ED2Ev@Base 0.59
 _ZN5boost15compressed_pairINS_6spirit7classic11alternativeINS3_INS2_6actionINS2_4ruleINS2_7scannerINS2_17position_iteratorIN9__gnu_cxx17__normal_iteratorIPKcSsEENS2_18file_position_baseISsEENS2_5nil_tEEENS2_16scanner_policiesINS2_24skipper_iteration_policyINS2_16iteration_policyEEENS2_12match_policyENS2_13action_policyEEEEESF_SF_EENS_8functionIFvSG_SG_EEEEESP_EESP_EERKSP_ED1Ev@Base 0.59
 _ZN5boost15compressed_pairINS_6spirit7classic11alternativeINS3_INS2_6actionINS2_4ruleINS2_7scannerINS2_17position_iteratorIN9__gnu_cxx17__normal_iteratorIPKcSsEENS2_18file_position_baseISsEENS2_5nil_tEEENS2_16scanner_policiesINS2_24skipper_iteration_policyINS2_16iteration_policyEEENS2_12match_policyENS2_13action_policyEEEEESF_SF_EENS_8functionIFvSG_SG_EEEEESP_EESP_EERKSP_ED2Ev@Base 0.59
 _ZN5boost15compressed_pairINS_6spirit7classic8sequenceINS2_6actionINS2_4ruleINS2_7scannerIN9__gnu_cxx17__normal_iteratorIPKcSsEENS2_16scanner_policiesINS2_24skipper_iteration_policyINS2_16iteration_policyEEENS2_12match_policyENS2_13action_policyEEEEENS2_5nil_tESK_EENS_8functionIFvSB_SB_EEEEENS2_11alternativeINS2_5chlitIcEENS4_INS2_14epsilon_parserEPSN_EEEEEENSQ_ISL_SV_EEED1Ev@Base 0.58
 _ZN5boost15compressed_pairINS_6spirit7classic8sequenceINS2_6actionINS2_4ruleINS2_7scannerIN9__gnu_cxx17__normal_iteratorIPKcSsEENS2_16scanner_policiesINS2_24skipper_iteration_policyINS2_16iteration_policyEEENS2_12match_policyENS2_13action_policyEEEEENS2_5nil_tESK_EENS_8functionIFvSB_SB_EEEEENS2_11alternativeINS2_5chlitIcEENS4_INS2_14epsilon_parserEPSN_EEEEEENSQ_ISL_SV_EEED2Ev@Base 0.58
 _ZN5boost15optional_detail13optional_baseIcE6assignERKS2_@Base 0.58
 _ZN5boost15throw_exceptionINS_10lock_errorEEEvRKT_@Base 0.58
 _ZN5boost15throw_exceptionINS_17bad_function_callEEEvRKT_@Base 0.47.2
 _ZN5boost15throw_exceptionINS_21thread_resource_errorEEEvRKT_@Base 0.58
 _ZN5boost16exception_detail10clone_baseD0Ev@Base 0.47.2
 _ZN5boost16exception_detail10clone_baseD1Ev@Base 0.47.2
 _ZN5boost16exception_detail10clone_baseD2Ev@Base 0.47.2
 _ZN5boost16exception_detail10clone_implINS0_19error_info_injectorINS_10lock_errorEEEEC1ERKS4_@Base 0.58
 _ZN5boost16exception_detail10clone_implINS0_19error_info_injectorINS_10lock_errorEEEED0Ev@Base 0.58
 _ZN5boost16exception_detail10clone_implINS0_19error_info_injectorINS_10lock_errorEEEED1Ev@Base 0.58
 _ZN5boost16exception_detail10clone_implINS0_19error_info_injectorINS_17bad_function_callEEEEC1ERKS4_@Base 0.47.2
 _ZN5boost16exception_detail10clone_implINS0_19error_info_injectorINS_17bad_function_callEEEED0Ev@Base 0.47.2
 _ZN5boost16exception_detail10clone_implINS0_19error_info_injectorINS_17bad_function_callEEEED1Ev@Base 0.47.2
 _ZN5boost16exception_detail10clone_implINS0_19error_info_injectorINS_21thread_resource_errorEEEEC1ERKS4_@Base 0.58
 _ZN5boost16exception_detail10clone_implINS0_19error_info_injectorINS_21thread_resource_errorEEEED0Ev@Base 0.58
 _ZN5boost16exception_detail10clone_implINS0_19error_info_injectorINS_21thread_resource_errorEEEED1Ev@Base 0.58
 _ZN5boost16exception_detail10clone_implINS0_19error_info_injectorINS_6spirit7classic19multi_pass_policies20illegal_backtrackingEEEEC1ERKS7_@Base 0.47.2
 _ZN5boost16exception_detail10clone_implINS0_19error_info_injectorINS_6spirit7classic19multi_pass_policies20illegal_backtrackingEEEED0Ev@Base 0.47.2
 _ZN5boost16exception_detail10clone_implINS0_19error_info_injectorINS_6spirit7classic19multi_pass_policies20illegal_backtrackingEEEED1Ev@Base 0.47.2
 _ZN5boost16exception_detail12refcount_ptrINS0_20error_info_containerEE5adoptEPS2_@Base 0.47.2
 _ZN5boost16exception_detail12refcount_ptrINS0_20error_info_containerEE7releaseEv@Base 0.47.2
 _ZN5boost16exception_detail19error_info_injectorINS_10lock_errorEEC1ERKS2_@Base 0.59
 _ZN5boost16exception_detail19error_info_injectorINS_10lock_errorEEC1ERKS3_@Base 0.58
 _ZN5boost16exception_detail19error_info_injectorINS_10lock_errorEEC2ERKS2_@Base 0.59
 _ZN5boost16exception_detail19error_info_injectorINS_10lock_errorEEC2ERKS3_@Base 0.58
 _ZN5boost16exception_detail19error_info_injectorINS_10lock_errorEED0Ev@Base 0.58
 _ZN5boost16exception_detail19error_info_injectorINS_10lock_errorEED1Ev@Base 0.58
 _ZN5boost16exception_detail19error_info_injectorINS_10lock_errorEED2Ev@Base 0.58
 _ZN5boost16exception_detail19error_info_injectorINS_17bad_function_callEEC1ERKS3_@Base 0.47.2
 _ZN5boost16exception_detail19error_info_injectorINS_17bad_function_callEEC2ERKS3_@Base 0.47.2
 _ZN5boost16exception_detail19error_info_injectorINS_17bad_function_callEED0Ev@Base 0.47.2
 _ZN5boost16exception_detail19error_info_injectorINS_17bad_function_callEED1Ev@Base 0.47.2
 _ZN5boost16exception_detail19error_info_injectorINS_17bad_function_callEED2Ev@Base 0.47.2
 _ZN5boost16exception_detail19error_info_injectorINS_21thread_resource_errorEEC1ERKS3_@Base 0.58
 _ZN5boost16exception_detail19error_info_injectorINS_21thread_resource_errorEEC2ERKS3_@Base 0.58
 _ZN5boost16exception_detail19error_info_injectorINS_21thread_resource_errorEED0Ev@Base 0.58
 _ZN5boost16exception_detail19error_info_injectorINS_21thread_resource_errorEED1Ev@Base 0.58
 _ZN5boost16exception_detail19error_info_injectorINS_21thread_resource_errorEED2Ev@Base 0.58
 _ZN5boost16exception_detail19error_info_injectorINS_6spirit7classic19multi_pass_policies20illegal_backtrackingEEC1ERKS6_@Base 0.47.2
 _ZN5boost16exception_detail19error_info_injectorINS_6spirit7classic19multi_pass_policies20illegal_backtrackingEEC2ERKS6_@Base 0.47.2
 _ZN5boost16exception_detail19error_info_injectorINS_6spirit7classic19multi_pass_policies20illegal_backtrackingEED0Ev@Base 0.47.2
 _ZN5boost16exception_detail19error_info_injectorINS_6spirit7classic19multi_pass_policies20illegal_backtrackingEED1Ev@Base 0.47.2
 _ZN5boost16exception_detail19error_info_injectorINS_6spirit7classic19multi_pass_policies20illegal_backtrackingEED2Ev@Base 0.47.2
 _ZN5boost16exception_detail20copy_boost_exceptionEPNS_9exceptionEPKS1_@Base 0.47.2
 _ZN5boost16iterator_adaptorINS_6spirit7classic17position_iteratorINS2_10multi_passISt16istream_iteratorIccSt11char_traitsIcElENS2_19multi_pass_policies14input_iteratorENS9_11ref_countedENS9_12buf_id_checkENS9_9std_dequeEEENS2_18file_position_baseISsEENS2_5nil_tEEESE_KcNS_21forward_traversal_tagENS_11use_defaultESL_ED1Ev@Base 0.47.2
 _ZN5boost16iterator_adaptorINS_6spirit7classic17position_iteratorINS2_10multi_passISt16istream_iteratorIccSt11char_traitsIcElENS2_19multi_pass_policies14input_iteratorENS9_11ref_countedENS9_12buf_id_checkENS9_9std_dequeEEENS2_18file_position_baseISsEENS2_5nil_tEEESE_KcNS_21forward_traversal_tagENS_11use_defaultESL_ED2Ev@Base 0.47.2
 _ZN5boost16thread_exceptionC1EiPKc@Base 0.58
 _ZN5boost16thread_exceptionC2EiPKc@Base 0.58
 _ZN5boost16thread_exceptionD0Ev@Base 0.58
 _ZN5boost16thread_exceptionD1Ev@Base 0.58
 _ZN5boost16thread_exceptionD2Ev@Base 0.58
 _ZN5boost17bad_function_callC1Ev@Base 0.47.2
 _ZN5boost17bad_function_callC2Ev@Base 0.47.2
 _ZN5boost17bad_function_callD0Ev@Base 0.47.2
 _ZN5boost17bad_function_callD1Ev@Base 0.47.2
 _ZN5boost17bad_function_callD2Ev@Base 0.47.2
 _ZN5boost17recursive_wrapperISt6vectorIN11json_spirit10Value_implINS2_13Config_vectorISsEEEESaIS6_EEEC1ERKS8_@Base 0.47.2
 _ZN5boost17recursive_wrapperISt6vectorIN11json_spirit10Value_implINS2_13Config_vectorISsEEEESaIS6_EEEC1ERKS9_@Base 0.47.2
 _ZN5boost17recursive_wrapperISt6vectorIN11json_spirit10Value_implINS2_13Config_vectorISsEEEESaIS6_EEEC2ERKS8_@Base 0.47.2
 _ZN5boost17recursive_wrapperISt6vectorIN11json_spirit10Value_implINS2_13Config_vectorISsEEEESaIS6_EEEC2ERKS9_@Base 0.47.2
 _ZN5boost17recursive_wrapperISt6vectorIN11json_spirit10Value_implINS2_13Config_vectorISsEEEESaIS6_EEED1Ev@Base 0.47.2
 _ZN5boost17recursive_wrapperISt6vectorIN11json_spirit10Value_implINS2_13Config_vectorISsEEEESaIS6_EEED2Ev@Base 0.47.2
 _ZN5boost17recursive_wrapperISt6vectorIN11json_spirit9Pair_implINS2_13Config_vectorISsEEEESaIS6_EEEC1ERKS8_@Base 0.47.2
 _ZN5boost17recursive_wrapperISt6vectorIN11json_spirit9Pair_implINS2_13Config_vectorISsEEEESaIS6_EEEC1ERKS9_@Base 0.47.2
 _ZN5boost17recursive_wrapperISt6vectorIN11json_spirit9Pair_implINS2_13Config_vectorISsEEEESaIS6_EEEC2ERKS8_@Base 0.47.2
 _ZN5boost17recursive_wrapperISt6vectorIN11json_spirit9Pair_implINS2_13Config_vectorISsEEEESaIS6_EEEC2ERKS9_@Base 0.47.2
 _ZN5boost17recursive_wrapperISt6vectorIN11json_spirit9Pair_implINS2_13Config_vectorISsEEEESaIS6_EEED1Ev@Base 0.47.2
 _ZN5boost17recursive_wrapperISt6vectorIN11json_spirit9Pair_implINS2_13Config_vectorISsEEEESaIS6_EEED2Ev@Base 0.47.2
 _ZN5boost19thread_specific_ptrINS_8weak_ptrINS_6spirit7classic4impl14grammar_helperINS3_7grammarIN11json_spirit12Json_grammerINS7_10Value_implINS7_13Config_vectorISsEEEEN9__gnu_cxx17__normal_iteratorIPKcSsEEEENS3_14parser_contextINS3_5nil_tEEEEESI_NS3_7scannerISH_NS3_16scanner_policiesINS3_24skipper_iteration_policyINS3_16iteration_policyEEENS3_12match_policyENS3_13action_policyEEEEEEEEEE11delete_dataD0Ev@Base 0.58
 _ZN5boost19thread_specific_ptrINS_8weak_ptrINS_6spirit7classic4impl14grammar_helperINS3_7grammarIN11json_spirit12Json_grammerINS7_10Value_implINS7_13Config_vectorISsEEEEN9__gnu_cxx17__normal_iteratorIPKcSsEEEENS3_14parser_contextINS3_5nil_tEEEEESI_NS3_7scannerISH_NS3_16scanner_policiesINS3_24skipper_iteration_policyINS3_16iteration_policyEEENS3_12match_policyENS3_13action_policyEEEEEEEEEE11delete_dataD1Ev@Base 0.58
 _ZN5boost19thread_specific_ptrINS_8weak_ptrINS_6spirit7classic4impl14grammar_helperINS3_7grammarIN11json_spirit12Json_grammerINS7_10Value_implINS7_13Config_vectorISsEEEEN9__gnu_cxx17__normal_iteratorIPKcSsEEEENS3_14parser_contextINS3_5nil_tEEEEESI_NS3_7scannerISH_NS3_16scanner_policiesINS3_24skipper_iteration_policyINS3_16iteration_policyEEENS3_12match_policyENS3_13action_policyEEEEEEEEEE11delete_dataD2Ev@Base 0.58
 _ZN5boost19thread_specific_ptrINS_8weak_ptrINS_6spirit7classic4impl14grammar_helperINS3_7grammarIN11json_spirit12Json_grammerINS7_10Value_implINS7_13Config_vectorISsEEEEN9__gnu_cxx17__normal_iteratorIPKcSsEEEENS3_14parser_contextINS3_5nil_tEEEEESI_NS3_7scannerISH_NS3_16scanner_policiesINS3_24skipper_iteration_policyINS3_16iteration_policyEEENS3_12match_policyENS3_13action_policyEEEEEEEEEE11delete_dataclEPv@Base 0.58
 _ZN5boost19thread_specific_ptrINS_8weak_ptrINS_6spirit7classic4impl14grammar_helperINS3_7grammarIN11json_spirit12Json_grammerINS7_10Value_implINS7_13Config_vectorISsEEEEN9__gnu_cxx17__normal_iteratorIPKcSsEEEENS3_14parser_contextINS3_5nil_tEEEEESI_NS3_7scannerISH_NS3_16scanner_policiesINS3_24skipper_iteration_policyINS3_16iteration_policyEEENS3_12match_policyENS3_13action_policyEEEEEEEEEE5resetEPSX_@Base 0.58
 _ZN5boost19thread_specific_ptrINS_8weak_ptrINS_6spirit7classic4impl14grammar_helperINS3_7grammarIN11json_spirit12Json_grammerINS7_10Value_implINS7_13Config_vectorISsEEEEN9__gnu_cxx17__normal_iteratorIPKcSsEEEENS3_14parser_contextINS3_5nil_tEEEEESI_NS3_7scannerISH_NS3_16scanner_policiesINS3_24skipper_iteration_policyINS3_16iteration_policyEEENS3_12match_policyENS3_13action_policyEEEEEEEEEEC1Ev@Base 0.58
 _ZN5boost19thread_specific_ptrINS_8weak_ptrINS_6spirit7classic4impl14grammar_helperINS3_7grammarIN11json_spirit12Json_grammerINS7_10Value_implINS7_13Config_vectorISsEEEEN9__gnu_cxx17__normal_iteratorIPKcSsEEEENS3_14parser_contextINS3_5nil_tEEEEESI_NS3_7scannerISH_NS3_16scanner_policiesINS3_24skipper_iteration_policyINS3_16iteration_policyEEENS3_12match_policyENS3_13action_policyEEEEEEEEEEC2Ev@Base 0.58
 _ZN5boost19thread_specific_ptrINS_8weak_ptrINS_6spirit7classic4impl14grammar_helperINS3_7grammarIN11json_spirit12Json_grammerINS7_10Value_implINS7_13Config_vectorISsEEEEN9__gnu_cxx17__normal_iteratorIPKcSsEEEENS3_14parser_contextINS3_5nil_tEEEEESI_NS3_7scannerISH_NS3_16scanner_policiesINS3_24skipper_iteration_policyINS3_16iteration_policyEEENS3_12match_policyENS3_13action_policyEEEEEEEEEED1Ev@Base 0.58
 _ZN5boost19thread_specific_ptrINS_8weak_ptrINS_6spirit7classic4impl14grammar_helperINS3_7grammarIN11json_spirit12Json_grammerINS7_10Value_implINS7_13Config_vectorISsEEEEN9__gnu_cxx17__normal_iteratorIPKcSsEEEENS3_14parser_contextINS3_5nil_tEEEEESI_NS3_7scannerISH_NS3_16scanner_policiesINS3_24skipper_iteration_policyINS3_16iteration_policyEEENS3_12match_policyENS3_13action_policyEEEEEEEEEED2Ev@Base 0.58
 _ZN5boost19thread_specific_ptrINS_8weak_ptrINS_6spirit7classic4impl14grammar_helperINS3_7grammarIN11json_spirit12Json_grammerINS7_10Value_implINS7_13Config_vectorISsEEEENS3_10multi_passISt16istream_iteratorIccSt11char_traitsIcElENS3_19multi_pass_policies14input_iteratorENSI_11ref_countedENSI_12buf_id_checkENSI_9std_dequeEEEEENS3_14parser_contextINS3_5nil_tEEEEESO_NS3_7scannerISN_NS3_16scanner_policiesINS3_24skipper_iteration_policyINS3_16iteration_policyEEENS3_12match_policyENS3_13action_policyEEEEEEEEEE11delete_dataD0Ev@Base 0.58
 _ZN5boost19thread_specific_ptrINS_8weak_ptrINS_6spirit7classic4impl14grammar_helperINS3_7grammarIN11json_spirit12Json_grammerINS7_10Value_implINS7_13Config_vectorISsEEEENS3_10multi_passISt16istream_iteratorIccSt11char_traitsIcElENS3_19multi_pass_policies14input_iteratorENSI_11ref_countedENSI_12buf_id_checkENSI_9std_dequeEEEEENS3_14parser_contextINS3_5nil_tEEEEESO_NS3_7scannerISN_NS3_16scanner_policiesINS3_24skipper_iteration_policyINS3_16iteration_policyEEENS3_12match_policyENS3_13action_policyEEEEEEEEEE11delete_dataD1Ev@Base 0.58
 _ZN5boost19thread_specific_ptrINS_8weak_ptrINS_6spirit7classic4impl14grammar_helperINS3_7grammarIN11json_spirit12Json_grammerINS7_10Value_implINS7_13Config_vectorISsEEEENS3_10multi_passISt16istream_iteratorIccSt11char_traitsIcElENS3_19multi_pass_policies14input_iteratorENSI_11ref_countedENSI_12buf_id_checkENSI_9std_dequeEEEEENS3_14parser_contextINS3_5nil_tEEEEESO_NS3_7scannerISN_NS3_16scanner_policiesINS3_24skipper_iteration_policyINS3_16iteration_policyEEENS3_12match_policyENS3_13action_policyEEEEEEEEEE11delete_dataD2Ev@Base 0.58
 _ZN5boost19thread_specific_ptrINS_8weak_ptrINS_6spirit7classic4impl14grammar_helperINS3_7grammarIN11json_spirit12Json_grammerINS7_10Value_implINS7_13Config_vectorISsEEEENS3_10multi_passISt16istream_iteratorIccSt11char_traitsIcElENS3_19multi_pass_policies14input_iteratorENSI_11ref_countedENSI_12buf_id_checkENSI_9std_dequeEEEEENS3_14parser_contextINS3_5nil_tEEEEESO_NS3_7scannerISN_NS3_16scanner_policiesINS3_24skipper_iteration_policyINS3_16iteration_policyEEENS3_12match_policyENS3_13action_policyEEEEEEEEEE11delete_dataclEPv@Base 0.58
 _ZN5boost19thread_specific_ptrINS_8weak_ptrINS_6spirit7classic4impl14grammar_helperINS3_7grammarIN11json_spirit12Json_grammerINS7_10Value_implINS7_13Config_vectorISsEEEENS3_10multi_passISt16istream_iteratorIccSt11char_traitsIcElENS3_19multi_pass_policies14input_iteratorENSI_11ref_countedENSI_12buf_id_checkENSI_9std_dequeEEEEENS3_14parser_contextINS3_5nil_tEEEEESO_NS3_7scannerISN_NS3_16scanner_policiesINS3_24skipper_iteration_policyINS3_16iteration_policyEEENS3_12match_policyENS3_13action_policyEEEEEEEEEE5resetEPS13_@Base 0.58
 _ZN5boost19thread_specific_ptrINS_8weak_ptrINS_6spirit7classic4impl14grammar_helperINS3_7grammarIN11json_spirit12Json_grammerINS7_10Value_implINS7_13Config_vectorISsEEEENS3_10multi_passISt16istream_iteratorIccSt11char_traitsIcElENS3_19multi_pass_policies14input_iteratorENSI_11ref_countedENSI_12buf_id_checkENSI_9std_dequeEEEEENS3_14parser_contextINS3_5nil_tEEEEESO_NS3_7scannerISN_NS3_16scanner_policiesINS3_24skipper_iteration_policyINS3_16iteration_policyEEENS3_12match_policyENS3_13action_policyEEEEEEEEEEC1Ev@Base 0.58
 _ZN5boost19thread_specific_ptrINS_8weak_ptrINS_6spirit7classic4impl14grammar_helperINS3_7grammarIN11json_spirit12Json_grammerINS7_10Value_implINS7_13Config_vectorISsEEEENS3_10multi_passISt16istream_iteratorIccSt11char_traitsIcElENS3_19multi_pass_policies14input_iteratorENSI_11ref_countedENSI_12buf_id_checkENSI_9std_dequeEEEEENS3_14parser_contextINS3_5nil_tEEEEESO_NS3_7scannerISN_NS3_16scanner_policiesINS3_24skipper_iteration_policyINS3_16iteration_policyEEENS3_12match_policyENS3_13action_policyEEEEEEEEEEC2Ev@Base 0.58
 _ZN5boost19thread_specific_ptrINS_8weak_ptrINS_6spirit7classic4impl14grammar_helperINS3_7grammarIN11json_spirit12Json_grammerINS7_10Value_implINS7_13Config_vectorISsEEEENS3_10multi_passISt16istream_iteratorIccSt11char_traitsIcElENS3_19multi_pass_policies14input_iteratorENSI_11ref_countedENSI_12buf_id_checkENSI_9std_dequeEEEEENS3_14parser_contextINS3_5nil_tEEEEESO_NS3_7scannerISN_NS3_16scanner_policiesINS3_24skipper_iteration_policyINS3_16iteration_policyEEENS3_12match_policyENS3_13action_policyEEEEEEEEEED1Ev@Base 0.58
 _ZN5boost19thread_specific_ptrINS_8weak_ptrINS_6spirit7classic4impl14grammar_helperINS3_7grammarIN11json_spirit12Json_grammerINS7_10Value_implINS7_13Config_vectorISsEEEENS3_10multi_passISt16istream_iteratorIccSt11char_traitsIcElENS3_19multi_pass_policies14input_iteratorENSI_11ref_countedENSI_12buf_id_checkENSI_9std_dequeEEEEENS3_14parser_contextINS3_5nil_tEEEEESO_NS3_7scannerISN_NS3_16scanner_policiesINS3_24skipper_iteration_policyINS3_16iteration_policyEEENS3_12match_policyENS3_13action_policyEEEEEEEEEED2Ev@Base 0.58
 _ZN5boost19thread_specific_ptrINS_8weak_ptrINS_6spirit7classic4impl14grammar_helperINS3_7grammarIN11json_spirit12Json_grammerINS7_10Value_implINS7_13Config_vectorISsEEEENS3_17position_iteratorIN9__gnu_cxx17__normal_iteratorIPKcSsEENS3_18file_position_baseISsEENS3_5nil_tEEEEENS3_14parser_contextISL_EEEESN_NS3_7scannerISM_NS3_16scanner_policiesINS3_24skipper_iteration_policyINS3_16iteration_policyEEENS3_12match_policyENS3_13action_policyEEEEEEEEEE11delete_dataD0Ev@Base 0.58
 _ZN5boost19thread_specific_ptrINS_8weak_ptrINS_6spirit7classic4impl14grammar_helperINS3_7grammarIN11json_spirit12Json_grammerINS7_10Value_implINS7_13Config_vectorISsEEEENS3_17position_iteratorIN9__gnu_cxx17__normal_iteratorIPKcSsEENS3_18file_position_baseISsEENS3_5nil_tEEEEENS3_14parser_contextISL_EEEESN_NS3_7scannerISM_NS3_16scanner_policiesINS3_24skipper_iteration_policyINS3_16iteration_policyEEENS3_12match_policyENS3_13action_policyEEEEEEEEEE11delete_dataD1Ev@Base 0.58
 _ZN5boost19thread_specific_ptrINS_8weak_ptrINS_6spirit7classic4impl14grammar_helperINS3_7grammarIN11json_spirit12Json_grammerINS7_10Value_implINS7_13Config_vectorISsEEEENS3_17position_iteratorIN9__gnu_cxx17__normal_iteratorIPKcSsEENS3_18file_position_baseISsEENS3_5nil_tEEEEENS3_14parser_contextISL_EEEESN_NS3_7scannerISM_NS3_16scanner_policiesINS3_24skipper_iteration_policyINS3_16iteration_policyEEENS3_12match_policyENS3_13action_policyEEEEEEEEEE11delete_dataD2Ev@Base 0.58
 _ZN5boost19thread_specific_ptrINS_8weak_ptrINS_6spirit7classic4impl14grammar_helperINS3_7grammarIN11json_spirit12Json_grammerINS7_10Value_implINS7_13Config_vectorISsEEEENS3_17position_iteratorIN9__gnu_cxx17__normal_iteratorIPKcSsEENS3_18file_position_baseISsEENS3_5nil_tEEEEENS3_14parser_contextISL_EEEESN_NS3_7scannerISM_NS3_16scanner_policiesINS3_24skipper_iteration_policyINS3_16iteration_policyEEENS3_12match_policyENS3_13action_policyEEEEEEEEEE11delete_dataclEPv@Base 0.58
 _ZN5boost19thread_specific_ptrINS_8weak_ptrINS_6spirit7classic4impl14grammar_helperINS3_7grammarIN11json_spirit12Json_grammerINS7_10Value_implINS7_13Config_vectorISsEEEENS3_17position_iteratorIN9__gnu_cxx17__normal_iteratorIPKcSsEENS3_18file_position_baseISsEENS3_5nil_tEEEEENS3_14parser_contextISL_EEEESN_NS3_7scannerISM_NS3_16scanner_policiesINS3_24skipper_iteration_policyINS3_16iteration_policyEEENS3_12match_policyENS3_13action_policyEEEEEEEEEE5resetEPS11_@Base 0.58
 _ZN5boost19thread_specific_ptrINS_8weak_ptrINS_6spirit7classic4impl14grammar_helperINS3_7grammarIN11json_spirit12Json_grammerINS7_10Value_implINS7_13Config_vectorISsEEEENS3_17position_iteratorIN9__gnu_cxx17__normal_iteratorIPKcSsEENS3_18file_position_baseISsEENS3_5nil_tEEEEENS3_14parser_contextISL_EEEESN_NS3_7scannerISM_NS3_16scanner_policiesINS3_24skipper_iteration_policyINS3_16iteration_policyEEENS3_12match_policyENS3_13action_policyEEEEEEEEEEC1Ev@Base 0.58
 _ZN5boost19thread_specific_ptrINS_8weak_ptrINS_6spirit7classic4impl14grammar_helperINS3_7grammarIN11json_spirit12Json_grammerINS7_10Value_implINS7_13Config_vectorISsEEEENS3_17position_iteratorIN9__gnu_cxx17__normal_iteratorIPKcSsEENS3_18file_position_baseISsEENS3_5nil_tEEEEENS3_14parser_contextISL_EEEESN_NS3_7scannerISM_NS3_16scanner_policiesINS3_24skipper_iteration_policyINS3_16iteration_policyEEENS3_12match_policyENS3_13action_policyEEEEEEEEEEC2Ev@Base 0.58
 _ZN5boost19thread_specific_ptrINS_8weak_ptrINS_6spirit7classic4impl14grammar_helperINS3_7grammarIN11json_spirit12Json_grammerINS7_10Value_implINS7_13Config_vectorISsEEEENS3_17position_iteratorIN9__gnu_cxx17__normal_iteratorIPKcSsEENS3_18file_position_baseISsEENS3_5nil_tEEEEENS3_14parser_contextISL_EEEESN_NS3_7scannerISM_NS3_16scanner_policiesINS3_24skipper_iteration_policyINS3_16iteration_policyEEENS3_12match_policyENS3_13action_policyEEEEEEEEEED1Ev@Base 0.58
 _ZN5boost19thread_specific_ptrINS_8weak_ptrINS_6spirit7classic4impl14grammar_helperINS3_7grammarIN11json_spirit12Json_grammerINS7_10Value_implINS7_13Config_vectorISsEEEENS3_17position_iteratorIN9__gnu_cxx17__normal_iteratorIPKcSsEENS3_18file_position_baseISsEENS3_5nil_tEEEEENS3_14parser_contextISL_EEEESN_NS3_7scannerISM_NS3_16scanner_policiesINS3_24skipper_iteration_policyINS3_16iteration_policyEEENS3_12match_policyENS3_13action_policyEEEEEEEEEED2Ev@Base 0.58
 _ZN5boost19thread_specific_ptrINS_8weak_ptrINS_6spirit7classic4impl14grammar_helperINS3_7grammarIN11json_spirit12Json_grammerINS7_10Value_implINS7_13Config_vectorISsEEEENS3_17position_iteratorINS3_10multi_passISt16istream_iteratorIccSt11char_traitsIcElENS3_19multi_pass_policies14input_iteratorENSJ_11ref_countedENSJ_12buf_id_checkENSJ_9std_dequeEEENS3_18file_position_baseISsEENS3_5nil_tEEEEENS3_14parser_contextISR_EEEEST_NS3_7scannerISS_NS3_16scanner_policiesINS3_24skipper_iteration_policyINS3_16iteration_policyEEENS3_12match_policyENS3_13action_policyEEEEEEEEEE11delete_dataD0Ev@Base 0.58
 _ZN5boost19thread_specific_ptrINS_8weak_ptrINS_6spirit7classic4impl14grammar_helperINS3_7grammarIN11json_spirit12Json_grammerINS7_10Value_implINS7_13Config_vectorISsEEEENS3_17position_iteratorINS3_10multi_passISt16istream_iteratorIccSt11char_traitsIcElENS3_19multi_pass_policies14input_iteratorENSJ_11ref_countedENSJ_12buf_id_checkENSJ_9std_dequeEEENS3_18file_position_baseISsEENS3_5nil_tEEEEENS3_14parser_contextISR_EEEEST_NS3_7scannerISS_NS3_16scanner_policiesINS3_24skipper_iteration_policyINS3_16iteration_policyEEENS3_12match_policyENS3_13action_policyEEEEEEEEEE11delete_dataD1Ev@Base 0.58
 _ZN5boost19thread_specific_ptrINS_8weak_ptrINS_6spirit7classic4impl14grammar_helperINS3_7grammarIN11json_spirit12Json_grammerINS7_10Value_implINS7_13Config_vectorISsEEEENS3_17position_iteratorINS3_10multi_passISt16istream_iteratorIccSt11char_traitsIcElENS3_19multi_pass_policies14input_iteratorENSJ_11ref_countedENSJ_12buf_id_checkENSJ_9std_dequeEEENS3_18file_position_baseISsEENS3_5nil_tEEEEENS3_14parser_contextISR_EEEEST_NS3_7scannerISS_NS3_16scanner_policiesINS3_24skipper_iteration_policyINS3_16iteration_policyEEENS3_12match_policyENS3_13action_policyEEEEEEEEEE11delete_dataD2Ev@Base 0.58
 _ZN5boost19thread_specific_ptrINS_8weak_ptrINS_6spirit7classic4impl14grammar_helperINS3_7grammarIN11json_spirit12Json_grammerINS7_10Value_implINS7_13Config_vectorISsEEEENS3_17position_iteratorINS3_10multi_passISt16istream_iteratorIccSt11char_traitsIcElENS3_19multi_pass_policies14input_iteratorENSJ_11ref_countedENSJ_12buf_id_checkENSJ_9std_dequeEEENS3_18file_position_baseISsEENS3_5nil_tEEEEENS3_14parser_contextISR_EEEEST_NS3_7scannerISS_NS3_16scanner_policiesINS3_24skipper_iteration_policyINS3_16iteration_policyEEENS3_12match_policyENS3_13action_policyEEEEEEEEEE11delete_dataclEPv@Base 0.58
 _ZN5boost19thread_specific_ptrINS_8weak_ptrINS_6spirit7classic4impl14grammar_helperINS3_7grammarIN11json_spirit12Json_grammerINS7_10Value_implINS7_13Config_vectorISsEEEENS3_17position_iteratorINS3_10multi_passISt16istream_iteratorIccSt11char_traitsIcElENS3_19multi_pass_policies14input_iteratorENSJ_11ref_countedENSJ_12buf_id_checkENSJ_9std_dequeEEENS3_18file_position_baseISsEENS3_5nil_tEEEEENS3_14parser_contextISR_EEEEST_NS3_7scannerISS_NS3_16scanner_policiesINS3_24skipper_iteration_policyINS3_16iteration_policyEEENS3_12match_policyENS3_13action_policyEEEEEEEEEE5resetEPS17_@Base 0.58
 _ZN5boost19thread_specific_ptrINS_8weak_ptrINS_6spirit7classic4impl14grammar_helperINS3_7grammarIN11json_spirit12Json_grammerINS7_10Value_implINS7_13Config_vectorISsEEEENS3_17position_iteratorINS3_10multi_passISt16istream_iteratorIccSt11char_traitsIcElENS3_19multi_pass_policies14input_iteratorENSJ_11ref_countedENSJ_12buf_id_checkENSJ_9std_dequeEEENS3_18file_position_baseISsEENS3_5nil_tEEEEENS3_14parser_contextISR_EEEEST_NS3_7scannerISS_NS3_16scanner_policiesINS3_24skipper_iteration_policyINS3_16iteration_policyEEENS3_12match_policyENS3_13action_policyEEEEEEEEEEC1Ev@Base 0.58
 _ZN5boost19thread_specific_ptrINS_8weak_ptrINS_6spirit7classic4impl14grammar_helperINS3_7grammarIN11json_spirit12Json_grammerINS7_10Value_implINS7_13Config_vectorISsEEEENS3_17position_iteratorINS3_10multi_passISt16istream_iteratorIccSt11char_traitsIcElENS3_19multi_pass_policies14input_iteratorENSJ_11ref_countedENSJ_12buf_id_checkENSJ_9std_dequeEEENS3_18file_position_baseISsEENS3_5nil_tEEEEENS3_14parser_contextISR_EEEEST_NS3_7scannerISS_NS3_16scanner_policiesINS3_24skipper_iteration_policyINS3_16iteration_policyEEENS3_12match_policyENS3_13action_policyEEEEEEEEEEC2Ev@Base 0.58
 _ZN5boost19thread_specific_ptrINS_8weak_ptrINS_6spirit7classic4impl14grammar_helperINS3_7grammarIN11json_spirit12Json_grammerINS7_10Value_implINS7_13Config_vectorISsEEEENS3_17position_iteratorINS3_10multi_passISt16istream_iteratorIccSt11char_traitsIcElENS3_19multi_pass_policies14input_iteratorENSJ_11ref_countedENSJ_12buf_id_checkENSJ_9std_dequeEEENS3_18file_position_baseISsEENS3_5nil_tEEEEENS3_14parser_contextISR_EEEEST_NS3_7scannerISS_NS3_16scanner_policiesINS3_24skipper_iteration_policyINS3_16iteration_policyEEENS3_12match_policyENS3_13action_policyEEEEEEEEEED1Ev@Base 0.58
 _ZN5boost19thread_specific_ptrINS_8weak_ptrINS_6spirit7classic4impl14grammar_helperINS3_7grammarIN11json_spirit12Json_grammerINS7_10Value_implINS7_13Config_vectorISsEEEENS3_17position_iteratorINS3_10multi_passISt16istream_iteratorIccSt11char_traitsIcElENS3_19multi_pass_policies14input_iteratorENSJ_11ref_countedENSJ_12buf_id_checkENSJ_9std_dequeEEENS3_18file_position_baseISsEENS3_5nil_tEEEEENS3_14parser_contextISR_EEEEST_NS3_7scannerISS_NS3_16scanner_policiesINS3_24skipper_iteration_policyINS3_16iteration_policyEEENS3_12match_policyENS3_13action_policyEEEEEEEEEED2Ev@Base 0.58
 _ZN5boost21thread_resource_errorC1EiPKc@Base 0.58
 _ZN5boost21thread_resource_errorC2EiPKc@Base 0.58
 _ZN5boost21thread_resource_errorD0Ev@Base 0.58
 _ZN5boost21thread_resource_errorD1Ev@Base 0.58
 _ZN5boost21thread_resource_errorD2Ev@Base 0.58
 _ZN5boost2io19basic_ios_all_saverIcSt11char_traitsIcEED1Ev@Base 0.47.2
 _ZN5boost2io19basic_ios_all_saverIcSt11char_traitsIcEED2Ev@Base 0.47.2
 _ZN5boost3_bi5list3INS0_5valueIPN11json_spirit16Semantic_actionsINS3_10Value_implINS3_13Config_vectorISsEEEENS_6spirit7classic10multi_passISt16istream_iteratorIccSt11char_traitsIcElENSA_19multi_pass_policies14input_iteratorENSG_11ref_countedENSG_12buf_id_checkENSG_9std_dequeEEEEEEENS_3argILi1EEENSP_ILi2EEEEclINS_4_mfi3mf2IvSM_SL_SL_EENS0_5list2IRSL_SY_EEEEvNS0_4typeIvEERT_RT0_i@Base 0.47.2
 _ZN5boost4bindIvN11json_spirit16Semantic_actionsINS1_10Value_implINS1_13Config_vectorISsEEEEN9__gnu_cxx17__normal_iteratorIPKcSsEEEEcPSC_NS_3argILi1EEEEENS_3_bi6bind_tIT_NS_4_mfi3mf1ISI_T0_T1_EENSG_9list_av_2IT2_T3_E4typeEEEMSL_FSI_SM_ESP_SQ_@Base 0.47.2
 _ZN5boost4bindIvN11json_spirit16Semantic_actionsINS1_10Value_implINS1_13Config_vectorISsEEEEN9__gnu_cxx17__normal_iteratorIPKcSsEEEElPSC_NS_3argILi1EEEEENS_3_bi6bind_tIT_NS_4_mfi3mf1ISI_T0_T1_EENSG_9list_av_2IT2_T3_E4typeEEEMSL_FSI_SM_ESP_SQ_@Base 0.47.2
 _ZN5boost4bindIvN11json_spirit16Semantic_actionsINS1_10Value_implINS1_13Config_vectorISsEEEEN9__gnu_cxx17__normal_iteratorIPKcSsEEEEmPSC_NS_3argILi1EEEEENS_3_bi6bind_tIT_NS_4_mfi3mf1ISI_T0_T1_EENSG_9list_av_2IT2_T3_E4typeEEEMSL_FSI_SM_ESP_SQ_@Base 0.47.2
 _ZN5boost4bindIvN11json_spirit16Semantic_actionsINS1_10Value_implINS1_13Config_vectorISsEEEENS_6spirit7classic10multi_passISt16istream_iteratorIccSt11char_traitsIcElENS8_19multi_pass_policies14input_iteratorENSE_11ref_countedENSE_12buf_id_checkENSE_9std_dequeEEEEEcPSK_NS_3argILi1EEEEENS_3_bi6bind_tIT_NS_4_mfi3mf1ISQ_T0_T1_EENSO_9list_av_2IT2_T3_E4typeEEEMST_FSQ_SU_ESX_SY_@Base 0.47.2
 _ZN5boost4bindIvN11json_spirit16Semantic_actionsINS1_10Value_implINS1_13Config_vectorISsEEEENS_6spirit7classic10multi_passISt16istream_iteratorIccSt11char_traitsIcElENS8_19multi_pass_policies14input_iteratorENSE_11ref_countedENSE_12buf_id_checkENSE_9std_dequeEEEEElPSK_NS_3argILi1EEEEENS_3_bi6bind_tIT_NS_4_mfi3mf1ISQ_T0_T1_EENSO_9list_av_2IT2_T3_E4typeEEEMST_FSQ_SU_ESX_SY_@Base 0.47.2
 _ZN5boost4bindIvN11json_spirit16Semantic_actionsINS1_10Value_implINS1_13Config_vectorISsEEEENS_6spirit7classic10multi_passISt16istream_iteratorIccSt11char_traitsIcElENS8_19multi_pass_policies14input_iteratorENSE_11ref_countedENSE_12buf_id_checkENSE_9std_dequeEEEEEmPSK_NS_3argILi1EEEEENS_3_bi6bind_tIT_NS_4_mfi3mf1ISQ_T0_T1_EENSO_9list_av_2IT2_T3_E4typeEEEMST_FSQ_SU_ESX_SY_@Base 0.47.2
 _ZN5boost4bindIvN11json_spirit16Semantic_actionsINS1_10Value_implINS1_13Config_vectorISsEEEENS_6spirit7classic17position_iteratorIN9__gnu_cxx17__normal_iteratorIPKcSsEENS8_18file_position_baseISsEENS8_5nil_tEEEEEcPSJ_NS_3argILi1EEEEENS_3_bi6bind_tIT_NS_4_mfi3mf1ISP_T0_T1_EENSN_9list_av_2IT2_T3_E4typeEEEMSS_FSP_ST_ESW_SX_@Base 0.47.2
 _ZN5boost4bindIvN11json_spirit16Semantic_actionsINS1_10Value_implINS1_13Config_vectorISsEEEENS_6spirit7classic17position_iteratorIN9__gnu_cxx17__normal_iteratorIPKcSsEENS8_18file_position_baseISsEENS8_5nil_tEEEEElPSJ_NS_3argILi1EEEEENS_3_bi6bind_tIT_NS_4_mfi3mf1ISP_T0_T1_EENSN_9list_av_2IT2_T3_E4typeEEEMSS_FSP_ST_ESW_SX_@Base 0.47.2
 _ZN5boost4bindIvN11json_spirit16Semantic_actionsINS1_10Value_implINS1_13Config_vectorISsEEEENS_6spirit7classic17position_iteratorIN9__gnu_cxx17__normal_iteratorIPKcSsEENS8_18file_position_baseISsEENS8_5nil_tEEEEEmPSJ_NS_3argILi1EEEEENS_3_bi6bind_tIT_NS_4_mfi3mf1ISP_T0_T1_EENSN_9list_av_2IT2_T3_E4typeEEEMSS_FSP_ST_ESW_SX_@Base 0.47.2
 _ZN5boost4bindIvN11json_spirit16Semantic_actionsINS1_10Value_implINS1_13Config_vectorISsEEEENS_6spirit7classic17position_iteratorINS8_10multi_passISt16istream_iteratorIccSt11char_traitsIcElENS8_19multi_pass_policies14input_iteratorENSF_11ref_countedENSF_12buf_id_checkENSF_9std_dequeEEENS8_18file_position_baseISsEENS8_5nil_tEEEEEcPSP_NS_3argILi1EEEEENS_3_bi6bind_tIT_NS_4_mfi3mf1ISV_T0_T1_EENST_9list_av_2IT2_T3_E4typeEEEMSY_FSV_SZ_ES12_S13_@Base 0.47.2
 _ZN5boost4bindIvN11json_spirit16Semantic_actionsINS1_10Value_implINS1_13Config_vectorISsEEEENS_6spirit7classic17position_iteratorINS8_10multi_passISt16istream_iteratorIccSt11char_traitsIcElENS8_19multi_pass_policies14input_iteratorENSF_11ref_countedENSF_12buf_id_checkENSF_9std_dequeEEENS8_18file_position_baseISsEENS8_5nil_tEEEEElPSP_NS_3argILi1EEEEENS_3_bi6bind_tIT_NS_4_mfi3mf1ISV_T0_T1_EENST_9list_av_2IT2_T3_E4typeEEEMSY_FSV_SZ_ES12_S13_@Base 0.47.2
 _ZN5boost4bindIvN11json_spirit16Semantic_actionsINS1_10Value_implINS1_13Config_vectorISsEEEENS_6spirit7classic17position_iteratorINS8_10multi_passISt16istream_iteratorIccSt11char_traitsIcElENS8_19multi_pass_policies14input_iteratorENSF_11ref_countedENSF_12buf_id_checkENSF_9std_dequeEEENS8_18file_position_baseISsEENS8_5nil_tEEEEEmPSP_NS_3argILi1EEEEENS_3_bi6bind_tIT_NS_4_mfi3mf1ISV_T0_T1_EENST_9list_av_2IT2_T3_E4typeEEEMSY_FSV_SZ_ES12_S13_@Base 0.47.2
 _ZN5boost5mutex4lockEv@Base 0.58
 _ZN5boost5mutex6unlockEv@Base 0.58
 _ZN5boost5mutexC1Ev@Base 0.58
 _ZN5boost5mutexC2Ev@Base 0.58
 _ZN5boost5mutexD1Ev@Base 0.58
 _ZN5boost5mutexD2Ev@Base 0.58
 _ZN5boost6detail10weak_countaSERKNS0_12shared_countE@Base 0.47.2
 _ZN5boost6detail12shared_countC1ERKNS0_10weak_countENS0_14sp_nothrow_tagE@Base 0.47.2
 _ZN5boost6detail12shared_countC1INS_6spirit4impl14grammar_helperINS3_7grammarI13crush_grammarNS3_14parser_contextINS3_5nil_tEEEEES7_NS3_7scannerIPKcNS3_16scanner_policiesINS3_28skip_parser_iteration_policyINS3_12space_parserENS3_16iteration_policyEEENS3_16ast_match_policyISE_NS3_21node_val_data_factoryIS9_EES9_EENS3_13action_policyEEEEEEEEEPT_@Base 0.47.2
 _ZN5boost6detail12shared_countC1INS_6spirit4impl26object_with_id_base_supplyImEEEEPT_@Base 0.47.2
 _ZN5boost6detail12shared_countC1INS_6spirit7classic4impl14grammar_helperINS4_7grammarIN11json_spirit12Json_grammerINS8_10Value_implINS8_13Config_vectorISsEEEEN9__gnu_cxx17__normal_iteratorIPKcSsEEEENS4_14parser_contextINS4_5nil_tEEEEESJ_NS4_7scannerISI_NS4_16scanner_policiesINS4_24skipper_iteration_policyINS4_16iteration_policyEEENS4_12match_policyENS4_13action_policyEEEEEEEEEPT_@Base 0.47.2
 _ZN5boost6detail12shared_countC1INS_6spirit7classic4impl14grammar_helperINS4_7grammarIN11json_spirit12Json_grammerINS8_10Value_implINS8_13Config_vectorISsEEEENS4_10multi_passISt16istream_iteratorIccSt11char_traitsIcElENS4_19multi_pass_policies14input_iteratorENSJ_11ref_countedENSJ_12buf_id_checkENSJ_9std_dequeEEEEENS4_14parser_contextINS4_5nil_tEEEEESP_NS4_7scannerISO_NS4_16scanner_policiesINS4_24skipper_iteration_policyINS4_16iteration_policyEEENS4_12match_policyENS4_13action_policyEEEEEEEEEPT_@Base 0.47.2
 _ZN5boost6detail12shared_countC1INS_6spirit7classic4impl14grammar_helperINS4_7grammarIN11json_spirit12Json_grammerINS8_10Value_implINS8_13Config_vectorISsEEEENS4_17position_iteratorIN9__gnu_cxx17__normal_iteratorIPKcSsEENS4_18file_position_baseISsEENS4_5nil_tEEEEENS4_14parser_contextISM_EEEESO_NS4_7scannerISN_NS4_16scanner_policiesINS4_24skipper_iteration_policyINS4_16iteration_policyEEENS4_12match_policyENS4_13action_policyEEEEEEEEEPT_@Base 0.47.2
 _ZN5boost6detail12shared_countC1INS_6spirit7classic4impl14grammar_helperINS4_7grammarIN11json_spirit12Json_grammerINS8_10Value_implINS8_13Config_vectorISsEEEENS4_17position_iteratorINS4_10multi_passISt16istream_iteratorIccSt11char_traitsIcElENS4_19multi_pass_policies14input_iteratorENSK_11ref_countedENSK_12buf_id_checkENSK_9std_dequeEEENS4_18file_position_baseISsEENS4_5nil_tEEEEENS4_14parser_contextISS_EEEESU_NS4_7scannerIST_NS4_16scanner_policiesINS4_24skipper_iteration_policyINS4_16iteration_policyEEENS4_12match_policyENS4_13action_policyEEEEEEEEEPT_@Base 0.47.2
 _ZN5boost6detail12shared_countC1INS_6spirit7classic4impl26object_with_id_base_supplyImEEEEPT_@Base 0.47.2
 _ZN5boost6detail12shared_countC1IPNS_19thread_specific_ptrINS_8weak_ptrINS_6spirit7classic4impl14grammar_helperINS6_7grammarIN11json_spirit12Json_grammerINSA_10Value_implINSA_13Config_vectorISsEEEEN9__gnu_cxx17__normal_iteratorIPKcSsEEEENS6_14parser_contextINS6_5nil_tEEEEESL_NS6_7scannerISK_NS6_16scanner_policiesINS6_24skipper_iteration_policyINS6_16iteration_policyEEENS6_12match_policyENS6_13action_policyEEEEEEEEEE11delete_dataENS0_14do_heap_deleteIS12_EEEET_T0_@Base 0.58
 _ZN5boost6detail12shared_countC1IPNS_19thread_specific_ptrINS_8weak_ptrINS_6spirit7classic4impl14grammar_helperINS6_7grammarIN11json_spirit12Json_grammerINSA_10Value_implINSA_13Config_vectorISsEEEENS6_10multi_passISt16istream_iteratorIccSt11char_traitsIcElENS6_19multi_pass_policies14input_iteratorENSL_11ref_countedENSL_12buf_id_checkENSL_9std_dequeEEEEENS6_14parser_contextINS6_5nil_tEEEEESR_NS6_7scannerISQ_NS6_16scanner_policiesINS6_24skipper_iteration_policyINS6_16iteration_policyEEENS6_12match_policyENS6_13action_policyEEEEEEEEEE11delete_dataENS0_14do_heap_deleteIS18_EEEET_T0_@Base 0.58
 _ZN5boost6detail12shared_countC1IPNS_19thread_specific_ptrINS_8weak_ptrINS_6spirit7classic4impl14grammar_helperINS6_7grammarIN11json_spirit12Json_grammerINSA_10Value_implINSA_13Config_vectorISsEEEENS6_17position_iteratorIN9__gnu_cxx17__normal_iteratorIPKcSsEENS6_18file_position_baseISsEENS6_5nil_tEEEEENS6_14parser_contextISO_EEEESQ_NS6_7scannerISP_NS6_16scanner_policiesINS6_24skipper_iteration_policyINS6_16iteration_policyEEENS6_12match_policyENS6_13action_policyEEEEEEEEEE11delete_dataENS0_14do_heap_deleteIS16_EEEET_T0_@Base 0.58
 _ZN5boost6detail12shared_countC1IPNS_19thread_specific_ptrINS_8weak_ptrINS_6spirit7classic4impl14grammar_helperINS6_7grammarIN11json_spirit12Json_grammerINSA_10Value_implINSA_13Config_vectorISsEEEENS6_17position_iteratorINS6_10multi_passISt16istream_iteratorIccSt11char_traitsIcElENS6_19multi_pass_policies14input_iteratorENSM_11ref_countedENSM_12buf_id_checkENSM_9std_dequeEEENS6_18file_position_baseISsEENS6_5nil_tEEEEENS6_14parser_contextISU_EEEESW_NS6_7scannerISV_NS6_16scanner_policiesINS6_24skipper_iteration_policyINS6_16iteration_policyEEENS6_12match_policyENS6_13action_policyEEEEEEEEEE11delete_dataENS0_14do_heap_deleteIS1C_EEEET_T0_@Base 0.58
 _ZN5boost6detail12shared_countC2ERKNS0_10weak_countENS0_14sp_nothrow_tagE@Base 0.47.2
 _ZN5boost6detail12shared_countC2INS_6spirit4impl14grammar_helperINS3_7grammarI13crush_grammarNS3_14parser_contextINS3_5nil_tEEEEES7_NS3_7scannerIPKcNS3_16scanner_policiesINS3_28skip_parser_iteration_policyINS3_12space_parserENS3_16iteration_policyEEENS3_16ast_match_policyISE_NS3_21node_val_data_factoryIS9_EES9_EENS3_13action_policyEEEEEEEEEPT_@Base 0.47.2
 _ZN5boost6detail12shared_countC2INS_6spirit4impl26object_with_id_base_supplyImEEEEPT_@Base 0.47.2
 _ZN5boost6detail12shared_countC2INS_6spirit7classic4impl14grammar_helperINS4_7grammarIN11json_spirit12Json_grammerINS8_10Value_implINS8_13Config_vectorISsEEEEN9__gnu_cxx17__normal_iteratorIPKcSsEEEENS4_14parser_contextINS4_5nil_tEEEEESJ_NS4_7scannerISI_NS4_16scanner_policiesINS4_24skipper_iteration_policyINS4_16iteration_policyEEENS4_12match_policyENS4_13action_policyEEEEEEEEEPT_@Base 0.47.2
 _ZN5boost6detail12shared_countC2INS_6spirit7classic4impl14grammar_helperINS4_7grammarIN11json_spirit12Json_grammerINS8_10Value_implINS8_13Config_vectorISsEEEENS4_10multi_passISt16istream_iteratorIccSt11char_traitsIcElENS4_19multi_pass_policies14input_iteratorENSJ_11ref_countedENSJ_12buf_id_checkENSJ_9std_dequeEEEEENS4_14parser_contextINS4_5nil_tEEEEESP_NS4_7scannerISO_NS4_16scanner_policiesINS4_24skipper_iteration_policyINS4_16iteration_policyEEENS4_12match_policyENS4_13action_policyEEEEEEEEEPT_@Base 0.47.2
 _ZN5boost6detail12shared_countC2INS_6spirit7classic4impl14grammar_helperINS4_7grammarIN11json_spirit12Json_grammerINS8_10Value_implINS8_13Config_vectorISsEEEENS4_17position_iteratorIN9__gnu_cxx17__normal_iteratorIPKcSsEENS4_18file_position_baseISsEENS4_5nil_tEEEEENS4_14parser_contextISM_EEEESO_NS4_7scannerISN_NS4_16scanner_policiesINS4_24skipper_iteration_policyINS4_16iteration_policyEEENS4_12match_policyENS4_13action_policyEEEEEEEEEPT_@Base 0.47.2
 _ZN5boost6detail12shared_countC2INS_6spirit7classic4impl14grammar_helperINS4_7grammarIN11json_spirit12Json_grammerINS8_10Value_implINS8_13Config_vectorISsEEEENS4_17position_iteratorINS4_10multi_passISt16istream_iteratorIccSt11char_traitsIcElENS4_19multi_pass_policies14input_iteratorENSK_11ref_countedENSK_12buf_id_checkENSK_9std_dequeEEENS4_18file_position_baseISsEENS4_5nil_tEEEEENS4_14parser_contextISS_EEEESU_NS4_7scannerIST_NS4_16scanner_policiesINS4_24skipper_iteration_policyINS4_16iteration_policyEEENS4_12match_policyENS4_13action_policyEEEEEEEEEPT_@Base 0.47.2
 _ZN5boost6detail12shared_countC2INS_6spirit7classic4impl26object_with_id_base_supplyImEEEEPT_@Base 0.47.2
 _ZN5boost6detail12shared_countC2IPNS_19thread_specific_ptrINS_8weak_ptrINS_6spirit7classic4impl14grammar_helperINS6_7grammarIN11json_spirit12Json_grammerINSA_10Value_implINSA_13Config_vectorISsEEEEN9__gnu_cxx17__normal_iteratorIPKcSsEEEENS6_14parser_contextINS6_5nil_tEEEEESL_NS6_7scannerISK_NS6_16scanner_policiesINS6_24skipper_iteration_policyINS6_16iteration_policyEEENS6_12match_policyENS6_13action_policyEEEEEEEEEE11delete_dataENS0_14do_heap_deleteIS12_EEEET_T0_@Base 0.58
 _ZN5boost6detail12shared_countC2IPNS_19thread_specific_ptrINS_8weak_ptrINS_6spirit7classic4impl14grammar_helperINS6_7grammarIN11json_spirit12Json_grammerINSA_10Value_implINSA_13Config_vectorISsEEEENS6_10multi_passISt16istream_iteratorIccSt11char_traitsIcElENS6_19multi_pass_policies14input_iteratorENSL_11ref_countedENSL_12buf_id_checkENSL_9std_dequeEEEEENS6_14parser_contextINS6_5nil_tEEEEESR_NS6_7scannerISQ_NS6_16scanner_policiesINS6_24skipper_iteration_policyINS6_16iteration_policyEEENS6_12match_policyENS6_13action_policyEEEEEEEEEE11delete_dataENS0_14do_heap_deleteIS18_EEEET_T0_@Base 0.58
 _ZN5boost6detail12shared_countC2IPNS_19thread_specific_ptrINS_8weak_ptrINS_6spirit7classic4impl14grammar_helperINS6_7grammarIN11json_spirit12Json_grammerINSA_10Value_implINSA_13Config_vectorISsEEEENS6_17position_iteratorIN9__gnu_cxx17__normal_iteratorIPKcSsEENS6_18file_position_baseISsEENS6_5nil_tEEEEENS6_14parser_contextISO_EEEESQ_NS6_7scannerISP_NS6_16scanner_policiesINS6_24skipper_iteration_policyINS6_16iteration_policyEEENS6_12match_policyENS6_13action_policyEEEEEEEEEE11delete_dataENS0_14do_heap_deleteIS16_EEEET_T0_@Base 0.58
 _ZN5boost6detail12shared_countC2IPNS_19thread_specific_ptrINS_8weak_ptrINS_6spirit7classic4impl14grammar_helperINS6_7grammarIN11json_spirit12Json_grammerINSA_10Value_implINSA_13Config_vectorISsEEEENS6_17position_iteratorINS6_10multi_passISt16istream_iteratorIccSt11char_traitsIcElENS6_19multi_pass_policies14input_iteratorENSM_11ref_countedENSM_12buf_id_checkENSM_9std_dequeEEENS6_18file_position_baseISsEENS6_5nil_tEEEEENS6_14parser_contextISU_EEEESW_NS6_7scannerISV_NS6_16scanner_policiesINS6_24skipper_iteration_policyINS6_16iteration_policyEEENS6_12match_policyENS6_13action_policyEEEEEEEEEE11delete_dataENS0_14do_heap_deleteIS1C_EEEET_T0_@Base 0.58
 _ZN5boost6detail12shared_countD1Ev@Base 0.58
 _ZN5boost6detail12shared_countD2Ev@Base 0.58
 _ZN5boost6detail15sp_counted_base12weak_releaseEv@Base 0.47.2
 _ZN5boost6detail15sp_counted_base7destroyEv@Base 0.47.2
 _ZN5boost6detail15sp_counted_base7releaseEv@Base 0.47.2
 _ZN5boost6detail15sp_counted_baseD0Ev@Base 0.47.2
 _ZN5boost6detail15sp_counted_baseD1Ev@Base 0.47.2
 _ZN5boost6detail15sp_counted_baseD2Ev@Base 0.47.2
 _ZN5boost6detail17sp_counted_impl_pINS_6spirit4impl14grammar_helperINS2_7grammarI13crush_grammarNS2_14parser_contextINS2_5nil_tEEEEES6_NS2_7scannerIPKcNS2_16scanner_policiesINS2_28skip_parser_iteration_policyINS2_12space_parserENS2_16iteration_policyEEENS2_16ast_match_policyISD_NS2_21node_val_data_factoryIS8_EES8_EENS2_13action_policyEEEEEEEE11get_deleterERKSt9type_info@Base 0.47.2
 _ZN5boost6detail17sp_counted_impl_pINS_6spirit4impl14grammar_helperINS2_7grammarI13crush_grammarNS2_14parser_contextINS2_5nil_tEEEEES6_NS2_7scannerIPKcNS2_16scanner_policiesINS2_28skip_parser_iteration_policyINS2_12space_parserENS2_16iteration_policyEEENS2_16ast_match_policyISD_NS2_21node_val_data_factoryIS8_EES8_EENS2_13action_policyEEEEEEEE19get_untyped_deleterEv@Base 0.59
 _ZN5boost6detail17sp_counted_impl_pINS_6spirit4impl14grammar_helperINS2_7grammarI13crush_grammarNS2_14parser_contextINS2_5nil_tEEEEES6_NS2_7scannerIPKcNS2_16scanner_policiesINS2_28skip_parser_iteration_policyINS2_12space_parserENS2_16iteration_policyEEENS2_16ast_match_policyISD_NS2_21node_val_data_factoryIS8_EES8_EENS2_13action_policyEEEEEEEE7disposeEv@Base 0.47.2
 _ZN5boost6detail17sp_counted_impl_pINS_6spirit4impl14grammar_helperINS2_7grammarI13crush_grammarNS2_14parser_contextINS2_5nil_tEEEEES6_NS2_7scannerIPKcNS2_16scanner_policiesINS2_28skip_parser_iteration_policyINS2_12space_parserENS2_16iteration_policyEEENS2_16ast_match_policyISD_NS2_21node_val_data_factoryIS8_EES8_EENS2_13action_policyEEEEEEEED0Ev@Base 0.47.2
 _ZN5boost6detail17sp_counted_impl_pINS_6spirit4impl14grammar_helperINS2_7grammarI13crush_grammarNS2_14parser_contextINS2_5nil_tEEEEES6_NS2_7scannerIPKcNS2_16scanner_policiesINS2_28skip_parser_iteration_policyINS2_12space_parserENS2_16iteration_policyEEENS2_16ast_match_policyISD_NS2_21node_val_data_factoryIS8_EES8_EENS2_13action_policyEEEEEEEED1Ev@Base 0.47.2
 _ZN5boost6detail17sp_counted_impl_pINS_6spirit4impl14grammar_helperINS2_7grammarI13crush_grammarNS2_14parser_contextINS2_5nil_tEEEEES6_NS2_7scannerIPKcNS2_16scanner_policiesINS2_28skip_parser_iteration_policyINS2_12space_parserENS2_16iteration_policyEEENS2_16ast_match_policyISD_NS2_21node_val_data_factoryIS8_EES8_EENS2_13action_policyEEEEEEEED2Ev@Base 0.47.2
 _ZN5boost6detail17sp_counted_impl_pINS_6spirit4impl26object_with_id_base_supplyImEEE11get_deleterERKSt9type_info@Base 0.47.2
 _ZN5boost6detail17sp_counted_impl_pINS_6spirit4impl26object_with_id_base_supplyImEEE19get_untyped_deleterEv@Base 0.59
 _ZN5boost6detail17sp_counted_impl_pINS_6spirit4impl26object_with_id_base_supplyImEEE7disposeEv@Base 0.47.2
 _ZN5boost6detail17sp_counted_impl_pINS_6spirit4impl26object_with_id_base_supplyImEEED0Ev@Base 0.47.2
 _ZN5boost6detail17sp_counted_impl_pINS_6spirit4impl26object_with_id_base_supplyImEEED1Ev@Base 0.47.2
 _ZN5boost6detail17sp_counted_impl_pINS_6spirit4impl26object_with_id_base_supplyImEEED2Ev@Base 0.47.2
 _ZN5boost6detail17sp_counted_impl_pINS_6spirit7classic4impl14grammar_helperINS3_7grammarIN11json_spirit12Json_grammerINS7_10Value_implINS7_13Config_vectorISsEEEEN9__gnu_cxx17__normal_iteratorIPKcSsEEEENS3_14parser_contextINS3_5nil_tEEEEESI_NS3_7scannerISH_NS3_16scanner_policiesINS3_24skipper_iteration_policyINS3_16iteration_policyEEENS3_12match_policyENS3_13action_policyEEEEEEEE11get_deleterERKSt9type_info@Base 0.47.2
 _ZN5boost6detail17sp_counted_impl_pINS_6spirit7classic4impl14grammar_helperINS3_7grammarIN11json_spirit12Json_grammerINS7_10Value_implINS7_13Config_vectorISsEEEEN9__gnu_cxx17__normal_iteratorIPKcSsEEEENS3_14parser_contextINS3_5nil_tEEEEESI_NS3_7scannerISH_NS3_16scanner_policiesINS3_24skipper_iteration_policyINS3_16iteration_policyEEENS3_12match_policyENS3_13action_policyEEEEEEEE19get_untyped_deleterEv@Base 0.59
 _ZN5boost6detail17sp_counted_impl_pINS_6spirit7classic4impl14grammar_helperINS3_7grammarIN11json_spirit12Json_grammerINS7_10Value_implINS7_13Config_vectorISsEEEEN9__gnu_cxx17__normal_iteratorIPKcSsEEEENS3_14parser_contextINS3_5nil_tEEEEESI_NS3_7scannerISH_NS3_16scanner_policiesINS3_24skipper_iteration_policyINS3_16iteration_policyEEENS3_12match_policyENS3_13action_policyEEEEEEEE7disposeEv@Base 0.47.2
 _ZN5boost6detail17sp_counted_impl_pINS_6spirit7classic4impl14grammar_helperINS3_7grammarIN11json_spirit12Json_grammerINS7_10Value_implINS7_13Config_vectorISsEEEEN9__gnu_cxx17__normal_iteratorIPKcSsEEEENS3_14parser_contextINS3_5nil_tEEEEESI_NS3_7scannerISH_NS3_16scanner_policiesINS3_24skipper_iteration_policyINS3_16iteration_policyEEENS3_12match_policyENS3_13action_policyEEEEEEEED0Ev@Base 0.47.2
 _ZN5boost6detail17sp_counted_impl_pINS_6spirit7classic4impl14grammar_helperINS3_7grammarIN11json_spirit12Json_grammerINS7_10Value_implINS7_13Config_vectorISsEEEEN9__gnu_cxx17__normal_iteratorIPKcSsEEEENS3_14parser_contextINS3_5nil_tEEEEESI_NS3_7scannerISH_NS3_16scanner_policiesINS3_24skipper_iteration_policyINS3_16iteration_policyEEENS3_12match_policyENS3_13action_policyEEEEEEEED1Ev@Base 0.47.2
 _ZN5boost6detail17sp_counted_impl_pINS_6spirit7classic4impl14grammar_helperINS3_7grammarIN11json_spirit12Json_grammerINS7_10Value_implINS7_13Config_vectorISsEEEEN9__gnu_cxx17__normal_iteratorIPKcSsEEEENS3_14parser_contextINS3_5nil_tEEEEESI_NS3_7scannerISH_NS3_16scanner_policiesINS3_24skipper_iteration_policyINS3_16iteration_policyEEENS3_12match_policyENS3_13action_policyEEEEEEEED2Ev@Base 0.47.2
 _ZN5boost6detail17sp_counted_impl_pINS_6spirit7classic4impl14grammar_helperINS3_7grammarIN11json_spirit12Json_grammerINS7_10Value_implINS7_13Config_vectorISsEEEENS3_10multi_passISt16istream_iteratorIccSt11char_traitsIcElENS3_19multi_pass_policies14input_iteratorENSI_11ref_countedENSI_12buf_id_checkENSI_9std_dequeEEEEENS3_14parser_contextINS3_5nil_tEEEEESO_NS3_7scannerISN_NS3_16scanner_policiesINS3_24skipper_iteration_policyINS3_16iteration_policyEEENS3_12match_policyENS3_13action_policyEEEEEEEE11get_deleterERKSt9type_info@Base 0.47.2
 _ZN5boost6detail17sp_counted_impl_pINS_6spirit7classic4impl14grammar_helperINS3_7grammarIN11json_spirit12Json_grammerINS7_10Value_implINS7_13Config_vectorISsEEEENS3_10multi_passISt16istream_iteratorIccSt11char_traitsIcElENS3_19multi_pass_policies14input_iteratorENSI_11ref_countedENSI_12buf_id_checkENSI_9std_dequeEEEEENS3_14parser_contextINS3_5nil_tEEEEESO_NS3_7scannerISN_NS3_16scanner_policiesINS3_24skipper_iteration_policyINS3_16iteration_policyEEENS3_12match_policyENS3_13action_policyEEEEEEEE19get_untyped_deleterEv@Base 0.59
 _ZN5boost6detail17sp_counted_impl_pINS_6spirit7classic4impl14grammar_helperINS3_7grammarIN11json_spirit12Json_grammerINS7_10Value_implINS7_13Config_vectorISsEEEENS3_10multi_passISt16istream_iteratorIccSt11char_traitsIcElENS3_19multi_pass_policies14input_iteratorENSI_11ref_countedENSI_12buf_id_checkENSI_9std_dequeEEEEENS3_14parser_contextINS3_5nil_tEEEEESO_NS3_7scannerISN_NS3_16scanner_policiesINS3_24skipper_iteration_policyINS3_16iteration_policyEEENS3_12match_policyENS3_13action_policyEEEEEEEE7disposeEv@Base 0.47.2
 _ZN5boost6detail17sp_counted_impl_pINS_6spirit7classic4impl14grammar_helperINS3_7grammarIN11json_spirit12Json_grammerINS7_10Value_implINS7_13Config_vectorISsEEEENS3_10multi_passISt16istream_iteratorIccSt11char_traitsIcElENS3_19multi_pass_policies14input_iteratorENSI_11ref_countedENSI_12buf_id_checkENSI_9std_dequeEEEEENS3_14parser_contextINS3_5nil_tEEEEESO_NS3_7scannerISN_NS3_16scanner_policiesINS3_24skipper_iteration_policyINS3_16iteration_policyEEENS3_12match_policyENS3_13action_policyEEEEEEEED0Ev@Base 0.47.2
 _ZN5boost6detail17sp_counted_impl_pINS_6spirit7classic4impl14grammar_helperINS3_7grammarIN11json_spirit12Json_grammerINS7_10Value_implINS7_13Config_vectorISsEEEENS3_10multi_passISt16istream_iteratorIccSt11char_traitsIcElENS3_19multi_pass_policies14input_iteratorENSI_11ref_countedENSI_12buf_id_checkENSI_9std_dequeEEEEENS3_14parser_contextINS3_5nil_tEEEEESO_NS3_7scannerISN_NS3_16scanner_policiesINS3_24skipper_iteration_policyINS3_16iteration_policyEEENS3_12match_policyENS3_13action_policyEEEEEEEED1Ev@Base 0.47.2
 _ZN5boost6detail17sp_counted_impl_pINS_6spirit7classic4impl14grammar_helperINS3_7grammarIN11json_spirit12Json_grammerINS7_10Value_implINS7_13Config_vectorISsEEEENS3_10multi_passISt16istream_iteratorIccSt11char_traitsIcElENS3_19multi_pass_policies14input_iteratorENSI_11ref_countedENSI_12buf_id_checkENSI_9std_dequeEEEEENS3_14parser_contextINS3_5nil_tEEEEESO_NS3_7scannerISN_NS3_16scanner_policiesINS3_24skipper_iteration_policyINS3_16iteration_policyEEENS3_12match_policyENS3_13action_policyEEEEEEEED2Ev@Base 0.47.2
 _ZN5boost6detail17sp_counted_impl_pINS_6spirit7classic4impl14grammar_helperINS3_7grammarIN11json_spirit12Json_grammerINS7_10Value_implINS7_13Config_vectorISsEEEENS3_17position_iteratorIN9__gnu_cxx17__normal_iteratorIPKcSsEENS3_18file_position_baseISsEENS3_5nil_tEEEEENS3_14parser_contextISL_EEEESN_NS3_7scannerISM_NS3_16scanner_policiesINS3_24skipper_iteration_policyINS3_16iteration_policyEEENS3_12match_policyENS3_13action_policyEEEEEEEE11get_deleterERKSt9type_info@Base 0.47.2
 _ZN5boost6detail17sp_counted_impl_pINS_6spirit7classic4impl14grammar_helperINS3_7grammarIN11json_spirit12Json_grammerINS7_10Value_implINS7_13Config_vectorISsEEEENS3_17position_iteratorIN9__gnu_cxx17__normal_iteratorIPKcSsEENS3_18file_position_baseISsEENS3_5nil_tEEEEENS3_14parser_contextISL_EEEESN_NS3_7scannerISM_NS3_16scanner_policiesINS3_24skipper_iteration_policyINS3_16iteration_policyEEENS3_12match_policyENS3_13action_policyEEEEEEEE19get_untyped_deleterEv@Base 0.59
 _ZN5boost6detail17sp_counted_impl_pINS_6spirit7classic4impl14grammar_helperINS3_7grammarIN11json_spirit12Json_grammerINS7_10Value_implINS7_13Config_vectorISsEEEENS3_17position_iteratorIN9__gnu_cxx17__normal_iteratorIPKcSsEENS3_18file_position_baseISsEENS3_5nil_tEEEEENS3_14parser_contextISL_EEEESN_NS3_7scannerISM_NS3_16scanner_policiesINS3_24skipper_iteration_policyINS3_16iteration_policyEEENS3_12match_policyENS3_13action_policyEEEEEEEE7disposeEv@Base 0.47.2
 _ZN5boost6detail17sp_counted_impl_pINS_6spirit7classic4impl14grammar_helperINS3_7grammarIN11json_spirit12Json_grammerINS7_10Value_implINS7_13Config_vectorISsEEEENS3_17position_iteratorIN9__gnu_cxx17__normal_iteratorIPKcSsEENS3_18file_position_baseISsEENS3_5nil_tEEEEENS3_14parser_contextISL_EEEESN_NS3_7scannerISM_NS3_16scanner_policiesINS3_24skipper_iteration_policyINS3_16iteration_policyEEENS3_12match_policyENS3_13action_policyEEEEEEEED0Ev@Base 0.47.2
 _ZN5boost6detail17sp_counted_impl_pINS_6spirit7classic4impl14grammar_helperINS3_7grammarIN11json_spirit12Json_grammerINS7_10Value_implINS7_13Config_vectorISsEEEENS3_17position_iteratorIN9__gnu_cxx17__normal_iteratorIPKcSsEENS3_18file_position_baseISsEENS3_5nil_tEEEEENS3_14parser_contextISL_EEEESN_NS3_7scannerISM_NS3_16scanner_policiesINS3_24skipper_iteration_policyINS3_16iteration_policyEEENS3_12match_policyENS3_13action_policyEEEEEEEED1Ev@Base 0.47.2
 _ZN5boost6detail17sp_counted_impl_pINS_6spirit7classic4impl14grammar_helperINS3_7grammarIN11json_spirit12Json_grammerINS7_10Value_implINS7_13Config_vectorISsEEEENS3_17position_iteratorIN9__gnu_cxx17__normal_iteratorIPKcSsEENS3_18file_position_baseISsEENS3_5nil_tEEEEENS3_14parser_contextISL_EEEESN_NS3_7scannerISM_NS3_16scanner_policiesINS3_24skipper_iteration_policyINS3_16iteration_policyEEENS3_12match_policyENS3_13action_policyEEEEEEEED2Ev@Base 0.47.2
 _ZN5boost6detail17sp_counted_impl_pINS_6spirit7classic4impl14grammar_helperINS3_7grammarIN11json_spirit12Json_grammerINS7_10Value_implINS7_13Config_vectorISsEEEENS3_17position_iteratorINS3_10multi_passISt16istream_iteratorIccSt11char_traitsIcElENS3_19multi_pass_policies14input_iteratorENSJ_11ref_countedENSJ_12buf_id_checkENSJ_9std_dequeEEENS3_18file_position_baseISsEENS3_5nil_tEEEEENS3_14parser_contextISR_EEEEST_NS3_7scannerISS_NS3_16scanner_policiesINS3_24skipper_iteration_policyINS3_16iteration_policyEEENS3_12match_policyENS3_13action_policyEEEEEEEE11get_deleterERKSt9type_info@Base 0.47.2
 _ZN5boost6detail17sp_counted_impl_pINS_6spirit7classic4impl14grammar_helperINS3_7grammarIN11json_spirit12Json_grammerINS7_10Value_implINS7_13Config_vectorISsEEEENS3_17position_iteratorINS3_10multi_passISt16istream_iteratorIccSt11char_traitsIcElENS3_19multi_pass_policies14input_iteratorENSJ_11ref_countedENSJ_12buf_id_checkENSJ_9std_dequeEEENS3_18file_position_baseISsEENS3_5nil_tEEEEENS3_14parser_contextISR_EEEEST_NS3_7scannerISS_NS3_16scanner_policiesINS3_24skipper_iteration_policyINS3_16iteration_policyEEENS3_12match_policyENS3_13action_policyEEEEEEEE19get_untyped_deleterEv@Base 0.59
 _ZN5boost6detail17sp_counted_impl_pINS_6spirit7classic4impl14grammar_helperINS3_7grammarIN11json_spirit12Json_grammerINS7_10Value_implINS7_13Config_vectorISsEEEENS3_17position_iteratorINS3_10multi_passISt16istream_iteratorIccSt11char_traitsIcElENS3_19multi_pass_policies14input_iteratorENSJ_11ref_countedENSJ_12buf_id_checkENSJ_9std_dequeEEENS3_18file_position_baseISsEENS3_5nil_tEEEEENS3_14parser_contextISR_EEEEST_NS3_7scannerISS_NS3_16scanner_policiesINS3_24skipper_iteration_policyINS3_16iteration_policyEEENS3_12match_policyENS3_13action_policyEEEEEEEE7disposeEv@Base 0.47.2
 _ZN5boost6detail17sp_counted_impl_pINS_6spirit7classic4impl14grammar_helperINS3_7grammarIN11json_spirit12Json_grammerINS7_10Value_implINS7_13Config_vectorISsEEEENS3_17position_iteratorINS3_10multi_passISt16istream_iteratorIccSt11char_traitsIcElENS3_19multi_pass_policies14input_iteratorENSJ_11ref_countedENSJ_12buf_id_checkENSJ_9std_dequeEEENS3_18file_position_baseISsEENS3_5nil_tEEEEENS3_14parser_contextISR_EEEEST_NS3_7scannerISS_NS3_16scanner_policiesINS3_24skipper_iteration_policyINS3_16iteration_policyEEENS3_12match_policyENS3_13action_policyEEEEEEEED0Ev@Base 0.47.2
 _ZN5boost6detail17sp_counted_impl_pINS_6spirit7classic4impl14grammar_helperINS3_7grammarIN11json_spirit12Json_grammerINS7_10Value_implINS7_13Config_vectorISsEEEENS3_17position_iteratorINS3_10multi_passISt16istream_iteratorIccSt11char_traitsIcElENS3_19multi_pass_policies14input_iteratorENSJ_11ref_countedENSJ_12buf_id_checkENSJ_9std_dequeEEENS3_18file_position_baseISsEENS3_5nil_tEEEEENS3_14parser_contextISR_EEEEST_NS3_7scannerISS_NS3_16scanner_policiesINS3_24skipper_iteration_policyINS3_16iteration_policyEEENS3_12match_policyENS3_13action_policyEEEEEEEED1Ev@Base 0.47.2
 _ZN5boost6detail17sp_counted_impl_pINS_6spirit7classic4impl14grammar_helperINS3_7grammarIN11json_spirit12Json_grammerINS7_10Value_implINS7_13Config_vectorISsEEEENS3_17position_iteratorINS3_10multi_passISt16istream_iteratorIccSt11char_traitsIcElENS3_19multi_pass_policies14input_iteratorENSJ_11ref_countedENSJ_12buf_id_checkENSJ_9std_dequeEEENS3_18file_position_baseISsEENS3_5nil_tEEEEENS3_14parser_contextISR_EEEEST_NS3_7scannerISS_NS3_16scanner_policiesINS3_24skipper_iteration_policyINS3_16iteration_policyEEENS3_12match_policyENS3_13action_policyEEEEEEEED2Ev@Base 0.47.2
 _ZN5boost6detail17sp_counted_impl_pINS_6spirit7classic4impl26object_with_id_base_supplyImEEE11get_deleterERKSt9type_info@Base 0.47.2
 _ZN5boost6detail17sp_counted_impl_pINS_6spirit7classic4impl26object_with_id_base_supplyImEEE19get_untyped_deleterEv@Base 0.59
 _ZN5boost6detail17sp_counted_impl_pINS_6spirit7classic4impl26object_with_id_base_supplyImEEE7disposeEv@Base 0.47.2
 _ZN5boost6detail17sp_counted_impl_pINS_6spirit7classic4impl26object_with_id_base_supplyImEEED0Ev@Base 0.47.2
 _ZN5boost6detail17sp_counted_impl_pINS_6spirit7classic4impl26object_with_id_base_supplyImEEED1Ev@Base 0.47.2
 _ZN5boost6detail17sp_counted_impl_pINS_6spirit7classic4impl26object_with_id_base_supplyImEEED2Ev@Base 0.47.2
 _ZN5boost6detail18sp_counted_impl_pdIPNS_19thread_specific_ptrINS_8weak_ptrINS_6spirit7classic4impl14grammar_helperINS5_7grammarIN11json_spirit12Json_grammerINS9_10Value_implINS9_13Config_vectorISsEEEEN9__gnu_cxx17__normal_iteratorIPKcSsEEEENS5_14parser_contextINS5_5nil_tEEEEESK_NS5_7scannerISJ_NS5_16scanner_policiesINS5_24skipper_iteration_policyINS5_16iteration_policyEEENS5_12match_policyENS5_13action_policyEEEEEEEEEE11delete_dataENS0_14do_heap_deleteIS11_EEE11get_deleterERKSt9type_info@Base 0.58
 _ZN5boost6detail18sp_counted_impl_pdIPNS_19thread_specific_ptrINS_8weak_ptrINS_6spirit7classic4impl14grammar_helperINS5_7grammarIN11json_spirit12Json_grammerINS9_10Value_implINS9_13Config_vectorISsEEEEN9__gnu_cxx17__normal_iteratorIPKcSsEEEENS5_14parser_contextINS5_5nil_tEEEEESK_NS5_7scannerISJ_NS5_16scanner_policiesINS5_24skipper_iteration_policyINS5_16iteration_policyEEENS5_12match_policyENS5_13action_policyEEEEEEEEEE11delete_dataENS0_14do_heap_deleteIS11_EEE19get_untyped_deleterEv@Base 0.59
 _ZN5boost6detail18sp_counted_impl_pdIPNS_19thread_specific_ptrINS_8weak_ptrINS_6spirit7classic4impl14grammar_helperINS5_7grammarIN11json_spirit12Json_grammerINS9_10Value_implINS9_13Config_vectorISsEEEEN9__gnu_cxx17__normal_iteratorIPKcSsEEEENS5_14parser_contextINS5_5nil_tEEEEESK_NS5_7scannerISJ_NS5_16scanner_policiesINS5_24skipper_iteration_policyINS5_16iteration_policyEEENS5_12match_policyENS5_13action_policyEEEEEEEEEE11delete_dataENS0_14do_heap_deleteIS11_EEE7disposeEv@Base 0.58
 _ZN5boost6detail18sp_counted_impl_pdIPNS_19thread_specific_ptrINS_8weak_ptrINS_6spirit7classic4impl14grammar_helperINS5_7grammarIN11json_spirit12Json_grammerINS9_10Value_implINS9_13Config_vectorISsEEEEN9__gnu_cxx17__normal_iteratorIPKcSsEEEENS5_14parser_contextINS5_5nil_tEEEEESK_NS5_7scannerISJ_NS5_16scanner_policiesINS5_24skipper_iteration_policyINS5_16iteration_policyEEENS5_12match_policyENS5_13action_policyEEEEEEEEEE11delete_dataENS0_14do_heap_deleteIS11_EEED0Ev@Base 0.58
 _ZN5boost6detail18sp_counted_impl_pdIPNS_19thread_specific_ptrINS_8weak_ptrINS_6spirit7classic4impl14grammar_helperINS5_7grammarIN11json_spirit12Json_grammerINS9_10Value_implINS9_13Config_vectorISsEEEEN9__gnu_cxx17__normal_iteratorIPKcSsEEEENS5_14parser_contextINS5_5nil_tEEEEESK_NS5_7scannerISJ_NS5_16scanner_policiesINS5_24skipper_iteration_policyINS5_16iteration_policyEEENS5_12match_policyENS5_13action_policyEEEEEEEEEE11delete_dataENS0_14do_heap_deleteIS11_EEED1Ev@Base 0.58
 _ZN5boost6detail18sp_counted_impl_pdIPNS_19thread_specific_ptrINS_8weak_ptrINS_6spirit7classic4impl14grammar_helperINS5_7grammarIN11json_spirit12Json_grammerINS9_10Value_implINS9_13Config_vectorISsEEEEN9__gnu_cxx17__normal_iteratorIPKcSsEEEENS5_14parser_contextINS5_5nil_tEEEEESK_NS5_7scannerISJ_NS5_16scanner_policiesINS5_24skipper_iteration_policyINS5_16iteration_policyEEENS5_12match_policyENS5_13action_policyEEEEEEEEEE11delete_dataENS0_14do_heap_deleteIS11_EEED2Ev@Base 0.58
 _ZN5boost6detail18sp_counted_impl_pdIPNS_19thread_specific_ptrINS_8weak_ptrINS_6spirit7classic4impl14grammar_helperINS5_7grammarIN11json_spirit12Json_grammerINS9_10Value_implINS9_13Config_vectorISsEEEENS5_10multi_passISt16istream_iteratorIccSt11char_traitsIcElENS5_19multi_pass_policies14input_iteratorENSK_11ref_countedENSK_12buf_id_checkENSK_9std_dequeEEEEENS5_14parser_contextINS5_5nil_tEEEEESQ_NS5_7scannerISP_NS5_16scanner_policiesINS5_24skipper_iteration_policyINS5_16iteration_policyEEENS5_12match_policyENS5_13action_policyEEEEEEEEEE11delete_dataENS0_14do_heap_deleteIS17_EEE11get_deleterERKSt9type_info@Base 0.58
 _ZN5boost6detail18sp_counted_impl_pdIPNS_19thread_specific_ptrINS_8weak_ptrINS_6spirit7classic4impl14grammar_helperINS5_7grammarIN11json_spirit12Json_grammerINS9_10Value_implINS9_13Config_vectorISsEEEENS5_10multi_passISt16istream_iteratorIccSt11char_traitsIcElENS5_19multi_pass_policies14input_iteratorENSK_11ref_countedENSK_12buf_id_checkENSK_9std_dequeEEEEENS5_14parser_contextINS5_5nil_tEEEEESQ_NS5_7scannerISP_NS5_16scanner_policiesINS5_24skipper_iteration_policyINS5_16iteration_policyEEENS5_12match_policyENS5_13action_policyEEEEEEEEEE11delete_dataENS0_14do_heap_deleteIS17_EEE19get_untyped_deleterEv@Base 0.59
 _ZN5boost6detail18sp_counted_impl_pdIPNS_19thread_specific_ptrINS_8weak_ptrINS_6spirit7classic4impl14grammar_helperINS5_7grammarIN11json_spirit12Json_grammerINS9_10Value_implINS9_13Config_vectorISsEEEENS5_10multi_passISt16istream_iteratorIccSt11char_traitsIcElENS5_19multi_pass_policies14input_iteratorENSK_11ref_countedENSK_12buf_id_checkENSK_9std_dequeEEEEENS5_14parser_contextINS5_5nil_tEEEEESQ_NS5_7scannerISP_NS5_16scanner_policiesINS5_24skipper_iteration_policyINS5_16iteration_policyEEENS5_12match_policyENS5_13action_policyEEEEEEEEEE11delete_dataENS0_14do_heap_deleteIS17_EEE7disposeEv@Base 0.58
 _ZN5boost6detail18sp_counted_impl_pdIPNS_19thread_specific_ptrINS_8weak_ptrINS_6spirit7classic4impl14grammar_helperINS5_7grammarIN11json_spirit12Json_grammerINS9_10Value_implINS9_13Config_vectorISsEEEENS5_10multi_passISt16istream_iteratorIccSt11char_traitsIcElENS5_19multi_pass_policies14input_iteratorENSK_11ref_countedENSK_12buf_id_checkENSK_9std_dequeEEEEENS5_14parser_contextINS5_5nil_tEEEEESQ_NS5_7scannerISP_NS5_16scanner_policiesINS5_24skipper_iteration_policyINS5_16iteration_policyEEENS5_12match_policyENS5_13action_policyEEEEEEEEEE11delete_dataENS0_14do_heap_deleteIS17_EEED0Ev@Base 0.58
 _ZN5boost6detail18sp_counted_impl_pdIPNS_19thread_specific_ptrINS_8weak_ptrINS_6spirit7classic4impl14grammar_helperINS5_7grammarIN11json_spirit12Json_grammerINS9_10Value_implINS9_13Config_vectorISsEEEENS5_10multi_passISt16istream_iteratorIccSt11char_traitsIcElENS5_19multi_pass_policies14input_iteratorENSK_11ref_countedENSK_12buf_id_checkENSK_9std_dequeEEEEENS5_14parser_contextINS5_5nil_tEEEEESQ_NS5_7scannerISP_NS5_16scanner_policiesINS5_24skipper_iteration_policyINS5_16iteration_policyEEENS5_12match_policyENS5_13action_policyEEEEEEEEEE11delete_dataENS0_14do_heap_deleteIS17_EEED1Ev@Base 0.58
 _ZN5boost6detail18sp_counted_impl_pdIPNS_19thread_specific_ptrINS_8weak_ptrINS_6spirit7classic4impl14grammar_helperINS5_7grammarIN11json_spirit12Json_grammerINS9_10Value_implINS9_13Config_vectorISsEEEENS5_10multi_passISt16istream_iteratorIccSt11char_traitsIcElENS5_19multi_pass_policies14input_iteratorENSK_11ref_countedENSK_12buf_id_checkENSK_9std_dequeEEEEENS5_14parser_contextINS5_5nil_tEEEEESQ_NS5_7scannerISP_NS5_16scanner_policiesINS5_24skipper_iteration_policyINS5_16iteration_policyEEENS5_12match_policyENS5_13action_policyEEEEEEEEEE11delete_dataENS0_14do_heap_deleteIS17_EEED2Ev@Base 0.58
 _ZN5boost6detail18sp_counted_impl_pdIPNS_19thread_specific_ptrINS_8weak_ptrINS_6spirit7classic4impl14grammar_helperINS5_7grammarIN11json_spirit12Json_grammerINS9_10Value_implINS9_13Config_vectorISsEEEENS5_17position_iteratorIN9__gnu_cxx17__normal_iteratorIPKcSsEENS5_18file_position_baseISsEENS5_5nil_tEEEEENS5_14parser_contextISN_EEEESP_NS5_7scannerISO_NS5_16scanner_policiesINS5_24skipper_iteration_policyINS5_16iteration_policyEEENS5_12match_policyENS5_13action_policyEEEEEEEEEE11delete_dataENS0_14do_heap_deleteIS15_EEE11get_deleterERKSt9type_info@Base 0.58
 _ZN5boost6detail18sp_counted_impl_pdIPNS_19thread_specific_ptrINS_8weak_ptrINS_6spirit7classic4impl14grammar_helperINS5_7grammarIN11json_spirit12Json_grammerINS9_10Value_implINS9_13Config_vectorISsEEEENS5_17position_iteratorIN9__gnu_cxx17__normal_iteratorIPKcSsEENS5_18file_position_baseISsEENS5_5nil_tEEEEENS5_14parser_contextISN_EEEESP_NS5_7scannerISO_NS5_16scanner_policiesINS5_24skipper_iteration_policyINS5_16iteration_policyEEENS5_12match_policyENS5_13action_policyEEEEEEEEEE11delete_dataENS0_14do_heap_deleteIS15_EEE19get_untyped_deleterEv@Base 0.59
 _ZN5boost6detail18sp_counted_impl_pdIPNS_19thread_specific_ptrINS_8weak_ptrINS_6spirit7classic4impl14grammar_helperINS5_7grammarIN11json_spirit12Json_grammerINS9_10Value_implINS9_13Config_vectorISsEEEENS5_17position_iteratorIN9__gnu_cxx17__normal_iteratorIPKcSsEENS5_18file_position_baseISsEENS5_5nil_tEEEEENS5_14parser_contextISN_EEEESP_NS5_7scannerISO_NS5_16scanner_policiesINS5_24skipper_iteration_policyINS5_16iteration_policyEEENS5_12match_policyENS5_13action_policyEEEEEEEEEE11delete_dataENS0_14do_heap_deleteIS15_EEE7disposeEv@Base 0.58
 _ZN5boost6detail18sp_counted_impl_pdIPNS_19thread_specific_ptrINS_8weak_ptrINS_6spirit7classic4impl14grammar_helperINS5_7grammarIN11json_spirit12Json_grammerINS9_10Value_implINS9_13Config_vectorISsEEEENS5_17position_iteratorIN9__gnu_cxx17__normal_iteratorIPKcSsEENS5_18file_position_baseISsEENS5_5nil_tEEEEENS5_14parser_contextISN_EEEESP_NS5_7scannerISO_NS5_16scanner_policiesINS5_24skipper_iteration_policyINS5_16iteration_policyEEENS5_12match_policyENS5_13action_policyEEEEEEEEEE11delete_dataENS0_14do_heap_deleteIS15_EEED0Ev@Base 0.58
 _ZN5boost6detail18sp_counted_impl_pdIPNS_19thread_specific_ptrINS_8weak_ptrINS_6spirit7classic4impl14grammar_helperINS5_7grammarIN11json_spirit12Json_grammerINS9_10Value_implINS9_13Config_vectorISsEEEENS5_17position_iteratorIN9__gnu_cxx17__normal_iteratorIPKcSsEENS5_18file_position_baseISsEENS5_5nil_tEEEEENS5_14parser_contextISN_EEEESP_NS5_7scannerISO_NS5_16scanner_policiesINS5_24skipper_iteration_policyINS5_16iteration_policyEEENS5_12match_policyENS5_13action_policyEEEEEEEEEE11delete_dataENS0_14do_heap_deleteIS15_EEED1Ev@Base 0.58
 _ZN5boost6detail18sp_counted_impl_pdIPNS_19thread_specific_ptrINS_8weak_ptrINS_6spirit7classic4impl14grammar_helperINS5_7grammarIN11json_spirit12Json_grammerINS9_10Value_implINS9_13Config_vectorISsEEEENS5_17position_iteratorIN9__gnu_cxx17__normal_iteratorIPKcSsEENS5_18file_position_baseISsEENS5_5nil_tEEEEENS5_14parser_contextISN_EEEESP_NS5_7scannerISO_NS5_16scanner_policiesINS5_24skipper_iteration_policyINS5_16iteration_policyEEENS5_12match_policyENS5_13action_policyEEEEEEEEEE11delete_dataENS0_14do_heap_deleteIS15_EEED2Ev@Base 0.58
 _ZN5boost6detail18sp_counted_impl_pdIPNS_19thread_specific_ptrINS_8weak_ptrINS_6spirit7classic4impl14grammar_helperINS5_7grammarIN11json_spirit12Json_grammerINS9_10Value_implINS9_13Config_vectorISsEEEENS5_17position_iteratorINS5_10multi_passISt16istream_iteratorIccSt11char_traitsIcElENS5_19multi_pass_policies14input_iteratorENSL_11ref_countedENSL_12buf_id_checkENSL_9std_dequeEEENS5_18file_position_baseISsEENS5_5nil_tEEEEENS5_14parser_contextIST_EEEESV_NS5_7scannerISU_NS5_16scanner_policiesINS5_24skipper_iteration_policyINS5_16iteration_policyEEENS5_12match_policyENS5_13action_policyEEEEEEEEEE11delete_dataENS0_14do_heap_deleteIS1B_EEE11get_deleterERKSt9type_info@Base 0.58
 _ZN5boost6detail18sp_counted_impl_pdIPNS_19thread_specific_ptrINS_8weak_ptrINS_6spirit7classic4impl14grammar_helperINS5_7grammarIN11json_spirit12Json_grammerINS9_10Value_implINS9_13Config_vectorISsEEEENS5_17position_iteratorINS5_10multi_passISt16istream_iteratorIccSt11char_traitsIcElENS5_19multi_pass_policies14input_iteratorENSL_11ref_countedENSL_12buf_id_checkENSL_9std_dequeEEENS5_18file_position_baseISsEENS5_5nil_tEEEEENS5_14parser_contextIST_EEEESV_NS5_7scannerISU_NS5_16scanner_policiesINS5_24skipper_iteration_policyINS5_16iteration_policyEEENS5_12match_policyENS5_13action_policyEEEEEEEEEE11delete_dataENS0_14do_heap_deleteIS1B_EEE19get_untyped_deleterEv@Base 0.59
 _ZN5boost6detail18sp_counted_impl_pdIPNS_19thread_specific_ptrINS_8weak_ptrINS_6spirit7classic4impl14grammar_helperINS5_7grammarIN11json_spirit12Json_grammerINS9_10Value_implINS9_13Config_vectorISsEEEENS5_17position_iteratorINS5_10multi_passISt16istream_iteratorIccSt11char_traitsIcElENS5_19multi_pass_policies14input_iteratorENSL_11ref_countedENSL_12buf_id_checkENSL_9std_dequeEEENS5_18file_position_baseISsEENS5_5nil_tEEEEENS5_14parser_contextIST_EEEESV_NS5_7scannerISU_NS5_16scanner_policiesINS5_24skipper_iteration_policyINS5_16iteration_policyEEENS5_12match_policyENS5_13action_policyEEEEEEEEEE11delete_dataENS0_14do_heap_deleteIS1B_EEE7disposeEv@Base 0.58
 _ZN5boost6detail18sp_counted_impl_pdIPNS_19thread_specific_ptrINS_8weak_ptrINS_6spirit7classic4impl14grammar_helperINS5_7grammarIN11json_spirit12Json_grammerINS9_10Value_implINS9_13Config_vectorISsEEEENS5_17position_iteratorINS5_10multi_passISt16istream_iteratorIccSt11char_traitsIcElENS5_19multi_pass_policies14input_iteratorENSL_11ref_countedENSL_12buf_id_checkENSL_9std_dequeEEENS5_18file_position_baseISsEENS5_5nil_tEEEEENS5_14parser_contextIST_EEEESV_NS5_7scannerISU_NS5_16scanner_policiesINS5_24skipper_iteration_policyINS5_16iteration_policyEEENS5_12match_policyENS5_13action_policyEEEEEEEEEE11delete_dataENS0_14do_heap_deleteIS1B_EEED0Ev@Base 0.58
 _ZN5boost6detail18sp_counted_impl_pdIPNS_19thread_specific_ptrINS_8weak_ptrINS_6spirit7classic4impl14grammar_helperINS5_7grammarIN11json_spirit12Json_grammerINS9_10Value_implINS9_13Config_vectorISsEEEENS5_17position_iteratorINS5_10multi_passISt16istream_iteratorIccSt11char_traitsIcElENS5_19multi_pass_policies14input_iteratorENSL_11ref_countedENSL_12buf_id_checkENSL_9std_dequeEEENS5_18file_position_baseISsEENS5_5nil_tEEEEENS5_14parser_contextIST_EEEESV_NS5_7scannerISU_NS5_16scanner_policiesINS5_24skipper_iteration_policyINS5_16iteration_policyEEENS5_12match_policyENS5_13action_policyEEEEEEEEEE11delete_dataENS0_14do_heap_deleteIS1B_EEED1Ev@Base 0.58
 _ZN5boost6detail18sp_counted_impl_pdIPNS_19thread_specific_ptrINS_8weak_ptrINS_6spirit7classic4impl14grammar_helperINS5_7grammarIN11json_spirit12Json_grammerINS9_10Value_implINS9_13Config_vectorISsEEEENS5_17position_iteratorINS5_10multi_passISt16istream_iteratorIccSt11char_traitsIcElENS5_19multi_pass_policies14input_iteratorENSL_11ref_countedENSL_12buf_id_checkENSL_9std_dequeEEENS5_18file_position_baseISsEENS5_5nil_tEEEEENS5_14parser_contextIST_EEEESV_NS5_7scannerISU_NS5_16scanner_policiesINS5_24skipper_iteration_policyINS5_16iteration_policyEEENS5_12match_policyENS5_13action_policyEEEEEEEEEE11delete_dataENS0_14do_heap_deleteIS1B_EEED2Ev@Base 0.58
 _ZN5boost6detail20tss_cleanup_functionD0Ev@Base 0.58
 _ZN5boost6detail20tss_cleanup_functionD1Ev@Base 0.58
 _ZN5boost6detail20tss_cleanup_functionD2Ev@Base 0.58
 _ZN5boost6detail7variant15visitation_implIN4mpl_4int_ILi0EEENS1_20visitation_impl_stepINS_3mpl6l_iterINS7_6l_itemINS3_5long_ILl8EEENS_17recursive_wrapperISt6vectorIN11json_spirit9Pair_implINSE_13Config_vectorISsEEEESaISI_EEEENS9_INSA_ILl7EEENSC_ISD_INSE_10Value_implISH_EESaISO_EEEENS9_INSA_ILl6EEESsNS9_INSA_ILl5EEEbNS9_INSA_ILl4EEElNS9_INSA_ILl3EEEdNS9_INSA_ILl2EEENSE_4NullENS9_INSA_ILl1EEEmNS7_5l_endEEEEEEEEEEEEEEEEEEENS8_ISZ_EEEENS1_14assign_storageEPvNS_7variantISL_SR_SsbldSX_mNS1_5void_ES1E_S1E_S1E_S1E_S1E_S1E_S1E_S1E_S1E_S1E_S1E_E18has_fallback_type_EEENT1_11result_typeEiiRS1H_T2_NS3_5bool_ILb0EEET3_PT_PT0_@Base 0.47.2
 _ZN5boost6detail7variant15visitation_implIN4mpl_4int_ILi0EEENS1_20visitation_impl_stepINS_3mpl6l_iterINS7_6l_itemINS3_5long_ILl8EEENS_17recursive_wrapperISt6vectorIN11json_spirit9Pair_implINSE_13Config_vectorISsEEEESaISI_EEEENS9_INSA_ILl7EEENSC_ISD_INSE_10Value_implISH_EESaISO_EEEENS9_INSA_ILl6EEESsNS9_INSA_ILl5EEEbNS9_INSA_ILl4EEElNS9_INSA_ILl3EEEdNS9_INSA_ILl2EEENSE_4NullENS9_INSA_ILl1EEEmNS7_5l_endEEEEEEEEEEEEEEEEEEENS8_ISZ_EEEENS1_14invoke_visitorINS1_11get_visitorISK_EEEEPvNS_7variantISL_SR_SsbldSX_mNS1_5void_ES1H_S1H_S1H_S1H_S1H_S1H_S1H_S1H_S1H_S1H_S1H_E18has_fallback_type_EEENT1_11result_typeEiiRS1K_T2_NS3_5bool_ILb0EEET3_PT_PT0_@Base 0.47.2
 _ZN5boost6detail7variant15visitation_implIN4mpl_4int_ILi0EEENS1_20visitation_impl_stepINS_3mpl6l_iterINS7_6l_itemINS3_5long_ILl8EEENS_17recursive_wrapperISt6vectorIN11json_spirit9Pair_implINSE_13Config_vectorISsEEEESaISI_EEEENS9_INSA_ILl7EEENSC_ISD_INSE_10Value_implISH_EESaISO_EEEENS9_INSA_ILl6EEESsNS9_INSA_ILl5EEEbNS9_INSA_ILl4EEElNS9_INSA_ILl3EEEdNS9_INSA_ILl2EEENSE_4NullENS9_INSA_ILl1EEEmNS7_5l_endEEEEEEEEEEEEEEEEEEENS8_ISZ_EEEENS1_14invoke_visitorINS1_11get_visitorISQ_EEEEPvNS_7variantISL_SR_SsbldSX_mNS1_5void_ES1H_S1H_S1H_S1H_S1H_S1H_S1H_S1H_S1H_S1H_S1H_E18has_fallback_type_EEENT1_11result_typeEiiRS1K_T2_NS3_5bool_ILb0EEET3_PT_PT0_@Base 0.47.2
 _ZN5boost6detail7variant15visitation_implIN4mpl_4int_ILi0EEENS1_20visitation_impl_stepINS_3mpl6l_iterINS7_6l_itemINS3_5long_ILl8EEENS_17recursive_wrapperISt6vectorIN11json_spirit9Pair_implINSE_13Config_vectorISsEEEESaISI_EEEENS9_INSA_ILl7EEENSC_ISD_INSE_10Value_implISH_EESaISO_EEEENS9_INSA_ILl6EEESsNS9_INSA_ILl5EEEbNS9_INSA_ILl4EEElNS9_INSA_ILl3EEEdNS9_INSA_ILl2EEENSE_4NullENS9_INSA_ILl1EEEmNS7_5l_endEEEEEEEEEEEEEEEEEEENS8_ISZ_EEEENS1_9copy_intoEPKvNS_7variantISL_SR_SsbldSX_mNS1_5void_ES1F_S1F_S1F_S1F_S1F_S1F_S1F_S1F_S1F_S1F_S1F_E18has_fallback_type_EEENT1_11result_typeEiiRS1I_T2_NS3_5bool_ILb0EEET3_PT_PT0_@Base 0.47.2
 _ZN5boost6detail7variant15visitation_implIN4mpl_4int_ILi0EEENS1_20visitation_impl_stepINS_3mpl6l_iterINS7_6l_itemINS3_5long_ILl8EEENS_17recursive_wrapperISt6vectorIN11json_spirit9Pair_implINSE_13Config_vectorISsEEEESaISI_EEEENS9_INSA_ILl7EEENSC_ISD_INSE_10Value_implISH_EESaISO_EEEENS9_INSA_ILl6EEESsNS9_INSA_ILl5EEEbNS9_INSA_ILl4EEElNS9_INSA_ILl3EEEdNS9_INSA_ILl2EEENSE_4NullENS9_INSA_ILl1EEEmNS7_5l_endEEEEEEEEEEEEEEEEEEENS8_ISZ_EEEENS1_9destroyerEPvNS_7variantISL_SR_SsbldSX_mNS1_5void_ES1E_S1E_S1E_S1E_S1E_S1E_S1E_S1E_S1E_S1E_S1E_E18has_fallback_type_EEENT1_11result_typeEiiRS1H_T2_NS3_5bool_ILb0EEET3_PT_PT0_@Base 0.47.2
 _ZN5boost6detail7variant15visitation_implIN4mpl_4int_ILi0EEENS1_20visitation_impl_stepINS_3mpl6l_iterINS7_6l_itemINS3_5long_ILl8EEENS_17recursive_wrapperISt6vectorIN11json_spirit9Pair_implINSE_13Config_vectorISsEEEESaISI_EEEENS9_INSA_ILl7EEENSC_ISD_INSE_10Value_implISH_EESaISO_EEEENS9_INSA_ILl6EEESsNS9_INSA_ILl5EEEbNS9_INSA_ILl4EEElNS9_INSA_ILl3EEEdNS9_INSA_ILl2EEENSE_4NullENS9_INSA_ILl1EEEmNS7_5l_endEEEEEEEEEEEEEEEEEEENS8_ISZ_EEEENS_7variantISL_SR_SsbldSX_mNS1_5void_ES1C_S1C_S1C_S1C_S1C_S1C_S1C_S1C_S1C_S1C_S1C_E17convert_copy_intoEPvNS1D_18has_fallback_type_EEENT1_11result_typeEiiRS1H_T2_NS3_5bool_ILb0EEET3_PT_PT0_@Base 0.47.2
 _ZN5boost6detail7variant15visitation_implIN4mpl_4int_ILi0EEENS1_20visitation_impl_stepINS_3mpl6l_iterINS7_6l_itemINS3_5long_ILl8EEENS_17recursive_wrapperISt6vectorIN11json_spirit9Pair_implINSE_13Config_vectorISsEEEESaISI_EEEENS9_INSA_ILl7EEENSC_ISD_INSE_10Value_implISH_EESaISO_EEEENS9_INSA_ILl6EEESsNS9_INSA_ILl5EEEbNS9_INSA_ILl4EEElNS9_INSA_ILl3EEEdNS9_INSA_ILl2EEENSE_4NullENS9_INSA_ILl1EEEmNS7_5l_endEEEEEEEEEEEEEEEEEEENS8_ISZ_EEEENS_7variantISL_SR_SsbldSX_mNS1_5void_ES1C_S1C_S1C_S1C_S1C_S1C_S1C_S1C_S1C_S1C_S1C_E8assignerEPKvNS1D_18has_fallback_type_EEENT1_11result_typeEiiRS1I_T2_NS3_5bool_ILb0EEET3_PT_PT0_@Base 0.47.2
 _ZN5boost6detail8function15functor_managerINS_3_bi6bind_tIvNS_4_mfi3mf1IvN11json_spirit16Semantic_actionsINS7_10Value_implINS7_13Config_vectorISsEEEEN9__gnu_cxx17__normal_iteratorIPKcSsEEEEcEENS3_5list2INS3_5valueIPSI_EENS_3argILi1EEEEEEEE6manageERKNS1_15function_bufferERST_NS1_30functor_manager_operation_typeE@Base 0.47.2
 _ZN5boost6detail8function15functor_managerINS_3_bi6bind_tIvNS_4_mfi3mf1IvN11json_spirit16Semantic_actionsINS7_10Value_implINS7_13Config_vectorISsEEEEN9__gnu_cxx17__normal_iteratorIPKcSsEEEEdEENS3_5list2INS3_5valueIPSI_EENS_3argILi1EEEEEEEE6manageERKNS1_15function_bufferERST_NS1_30functor_manager_operation_typeE@Base 0.47.2
 _ZN5boost6detail8function15functor_managerINS_3_bi6bind_tIvNS_4_mfi3mf1IvN11json_spirit16Semantic_actionsINS7_10Value_implINS7_13Config_vectorISsEEEEN9__gnu_cxx17__normal_iteratorIPKcSsEEEElEENS3_5list2INS3_5valueIPSI_EENS_3argILi1EEEEEEEE6manageERKNS1_15function_bufferERST_NS1_30functor_manager_operation_typeE@Base 0.47.2
 _ZN5boost6detail8function15functor_managerINS_3_bi6bind_tIvNS_4_mfi3mf1IvN11json_spirit16Semantic_actionsINS7_10Value_implINS7_13Config_vectorISsEEEEN9__gnu_cxx17__normal_iteratorIPKcSsEEEEmEENS3_5list2INS3_5valueIPSI_EENS_3argILi1EEEEEEEE6manageERKNS1_15function_bufferERST_NS1_30functor_manager_operation_typeE@Base 0.47.2
 _ZN5boost6detail8function15functor_managerINS_3_bi6bind_tIvNS_4_mfi3mf1IvN11json_spirit16Semantic_actionsINS7_10Value_implINS7_13Config_vectorISsEEEENS_6spirit7classic10multi_passISt16istream_iteratorIccSt11char_traitsIcElENSE_19multi_pass_policies14input_iteratorENSK_11ref_countedENSK_12buf_id_checkENSK_9std_dequeEEEEEcEENS3_5list2INS3_5valueIPSQ_EENS_3argILi1EEEEEEEE6manageERKNS1_15function_bufferERS11_NS1_30functor_manager_operation_typeE@Base 0.47.2
 _ZN5boost6detail8function15functor_managerINS_3_bi6bind_tIvNS_4_mfi3mf1IvN11json_spirit16Semantic_actionsINS7_10Value_implINS7_13Config_vectorISsEEEENS_6spirit7classic10multi_passISt16istream_iteratorIccSt11char_traitsIcElENSE_19multi_pass_policies14input_iteratorENSK_11ref_countedENSK_12buf_id_checkENSK_9std_dequeEEEEEdEENS3_5list2INS3_5valueIPSQ_EENS_3argILi1EEEEEEEE6manageERKNS1_15function_bufferERS11_NS1_30functor_manager_operation_typeE@Base 0.47.2
 _ZN5boost6detail8function15functor_managerINS_3_bi6bind_tIvNS_4_mfi3mf1IvN11json_spirit16Semantic_actionsINS7_10Value_implINS7_13Config_vectorISsEEEENS_6spirit7classic10multi_passISt16istream_iteratorIccSt11char_traitsIcElENSE_19multi_pass_policies14input_iteratorENSK_11ref_countedENSK_12buf_id_checkENSK_9std_dequeEEEEElEENS3_5list2INS3_5valueIPSQ_EENS_3argILi1EEEEEEEE6manageERKNS1_15function_bufferERS11_NS1_30functor_manager_operation_typeE@Base 0.47.2
 _ZN5boost6detail8function15functor_managerINS_3_bi6bind_tIvNS_4_mfi3mf1IvN11json_spirit16Semantic_actionsINS7_10Value_implINS7_13Config_vectorISsEEEENS_6spirit7classic10multi_passISt16istream_iteratorIccSt11char_traitsIcElENSE_19multi_pass_policies14input_iteratorENSK_11ref_countedENSK_12buf_id_checkENSK_9std_dequeEEEEEmEENS3_5list2INS3_5valueIPSQ_EENS_3argILi1EEEEEEEE6manageERKNS1_15function_bufferERS11_NS1_30functor_manager_operation_typeE@Base 0.47.2
 _ZN5boost6detail8function15functor_managerINS_3_bi6bind_tIvNS_4_mfi3mf1IvN11json_spirit16Semantic_actionsINS7_10Value_implINS7_13Config_vectorISsEEEENS_6spirit7classic17position_iteratorIN9__gnu_cxx17__normal_iteratorIPKcSsEENSE_18file_position_baseISsEENSE_5nil_tEEEEEcEENS3_5list2INS3_5valueIPSP_EENS_3argILi1EEEEEEEE6manageERKNS1_15function_bufferERS10_NS1_30functor_manager_operation_typeE@Base 0.47.2
 _ZN5boost6detail8function15functor_managerINS_3_bi6bind_tIvNS_4_mfi3mf1IvN11json_spirit16Semantic_actionsINS7_10Value_implINS7_13Config_vectorISsEEEENS_6spirit7classic17position_iteratorIN9__gnu_cxx17__normal_iteratorIPKcSsEENSE_18file_position_baseISsEENSE_5nil_tEEEEEdEENS3_5list2INS3_5valueIPSP_EENS_3argILi1EEEEEEEE6manageERKNS1_15function_bufferERS10_NS1_30functor_manager_operation_typeE@Base 0.47.2
 _ZN5boost6detail8function15functor_managerINS_3_bi6bind_tIvNS_4_mfi3mf1IvN11json_spirit16Semantic_actionsINS7_10Value_implINS7_13Config_vectorISsEEEENS_6spirit7classic17position_iteratorIN9__gnu_cxx17__normal_iteratorIPKcSsEENSE_18file_position_baseISsEENSE_5nil_tEEEEElEENS3_5list2INS3_5valueIPSP_EENS_3argILi1EEEEEEEE6manageERKNS1_15function_bufferERS10_NS1_30functor_manager_operation_typeE@Base 0.47.2
 _ZN5boost6detail8function15functor_managerINS_3_bi6bind_tIvNS_4_mfi3mf1IvN11json_spirit16Semantic_actionsINS7_10Value_implINS7_13Config_vectorISsEEEENS_6spirit7classic17position_iteratorIN9__gnu_cxx17__normal_iteratorIPKcSsEENSE_18file_position_baseISsEENSE_5nil_tEEEEEmEENS3_5list2INS3_5valueIPSP_EENS_3argILi1EEEEEEEE6manageERKNS1_15function_bufferERS10_NS1_30functor_manager_operation_typeE@Base 0.47.2
 _ZN5boost6detail8function15functor_managerINS_3_bi6bind_tIvNS_4_mfi3mf1IvN11json_spirit16Semantic_actionsINS7_10Value_implINS7_13Config_vectorISsEEEENS_6spirit7classic17position_iteratorINSE_10multi_passISt16istream_iteratorIccSt11char_traitsIcElENSE_19multi_pass_policies14input_iteratorENSL_11ref_countedENSL_12buf_id_checkENSL_9std_dequeEEENSE_18file_position_baseISsEENSE_5nil_tEEEEEcEENS3_5list2INS3_5valueIPSV_EENS_3argILi1EEEEEEEE6manageERKNS1_15function_bufferERS16_NS1_30functor_manager_operation_typeE@Base 0.47.2
 _ZN5boost6detail8function15functor_managerINS_3_bi6bind_tIvNS_4_mfi3mf1IvN11json_spirit16Semantic_actionsINS7_10Value_implINS7_13Config_vectorISsEEEENS_6spirit7classic17position_iteratorINSE_10multi_passISt16istream_iteratorIccSt11char_traitsIcElENSE_19multi_pass_policies14input_iteratorENSL_11ref_countedENSL_12buf_id_checkENSL_9std_dequeEEENSE_18file_position_baseISsEENSE_5nil_tEEEEEdEENS3_5list2INS3_5valueIPSV_EENS_3argILi1EEEEEEEE6manageERKNS1_15function_bufferERS16_NS1_30functor_manager_operation_typeE@Base 0.47.2
 _ZN5boost6detail8function15functor_managerINS_3_bi6bind_tIvNS_4_mfi3mf1IvN11json_spirit16Semantic_actionsINS7_10Value_implINS7_13Config_vectorISsEEEENS_6spirit7classic17position_iteratorINSE_10multi_passISt16istream_iteratorIccSt11char_traitsIcElENSE_19multi_pass_policies14input_iteratorENSL_11ref_countedENSL_12buf_id_checkENSL_9std_dequeEEENSE_18file_position_baseISsEENSE_5nil_tEEEEElEENS3_5list2INS3_5valueIPSV_EENS_3argILi1EEEEEEEE6manageERKNS1_15function_bufferERS16_NS1_30functor_manager_operation_typeE@Base 0.47.2
 _ZN5boost6detail8function15functor_managerINS_3_bi6bind_tIvNS_4_mfi3mf1IvN11json_spirit16Semantic_actionsINS7_10Value_implINS7_13Config_vectorISsEEEENS_6spirit7classic17position_iteratorINSE_10multi_passISt16istream_iteratorIccSt11char_traitsIcElENSE_19multi_pass_policies14input_iteratorENSL_11ref_countedENSL_12buf_id_checkENSL_9std_dequeEEENSE_18file_position_baseISsEENSE_5nil_tEEEEEmEENS3_5list2INS3_5valueIPSV_EENS_3argILi1EEEEEEEE6manageERKNS1_15function_bufferERS16_NS1_30functor_manager_operation_typeE@Base 0.47.2
 _ZN5boost6detail8function15functor_managerINS_3_bi6bind_tIvNS_4_mfi3mf2IvN11json_spirit16Semantic_actionsINS7_10Value_implINS7_13Config_vectorISsEEEEN9__gnu_cxx17__normal_iteratorIPKcSsEEEESH_SH_EENS3_5list3INS3_5valueIPSI_EENS_3argILi1EEENSO_ILi2EEEEEEEE6manageERKNS1_15function_bufferERSU_NS1_30functor_manager_operation_typeE@Base 0.47.2
 _ZN5boost6detail8function15functor_managerINS_3_bi6bind_tIvNS_4_mfi3mf2IvN11json_spirit16Semantic_actionsINS7_10Value_implINS7_13Config_vectorISsEEEENS_6spirit7classic10multi_passISt16istream_iteratorIccSt11char_traitsIcElENSE_19multi_pass_policies14input_iteratorENSK_11ref_countedENSK_12buf_id_checkENSK_9std_dequeEEEEESP_SP_EENS3_5list3INS3_5valueIPSQ_EENS_3argILi1EEENSW_ILi2EEEEEEEE6manageERKNS1_15function_bufferERS12_NS1_30functor_manager_operation_typeE@Base 0.47.2
 _ZN5boost6detail8function15functor_managerINS_3_bi6bind_tIvNS_4_mfi3mf2IvN11json_spirit16Semantic_actionsINS7_10Value_implINS7_13Config_vectorISsEEEENS_6spirit7classic17position_iteratorIN9__gnu_cxx17__normal_iteratorIPKcSsEENSE_18file_position_baseISsEENSE_5nil_tEEEEESO_SO_EENS3_5list3INS3_5valueIPSP_EENS_3argILi1EEENSV_ILi2EEEEEEEE6manageERKNS1_15function_bufferERS11_NS1_30functor_manager_operation_typeE@Base 0.47.2
 _ZN5boost6detail8function15functor_managerINS_3_bi6bind_tIvNS_4_mfi3mf2IvN11json_spirit16Semantic_actionsINS7_10Value_implINS7_13Config_vectorISsEEEENS_6spirit7classic17position_iteratorINSE_10multi_passISt16istream_iteratorIccSt11char_traitsIcElENSE_19multi_pass_policies14input_iteratorENSL_11ref_countedENSL_12buf_id_checkENSL_9std_dequeEEENSE_18file_position_baseISsEENSE_5nil_tEEEEESU_SU_EENS3_5list3INS3_5valueIPSV_EENS_3argILi1EEENS11_ILi2EEEEEEEE6manageERKNS1_15function_bufferERS17_NS1_30functor_manager_operation_typeE@Base 0.47.2
 _ZN5boost6detail8function16has_empty_targetEz@Base 0.47.2
 _ZN5boost6detail8function22functor_manager_commonINS_3_bi6bind_tIvNS_4_mfi3mf1IvN11json_spirit16Semantic_actionsINS7_10Value_implINS7_13Config_vectorISsEEEEN9__gnu_cxx17__normal_iteratorIPKcSsEEEEcEENS3_5list2INS3_5valueIPSI_EENS_3argILi1EEEEEEEE12manage_smallERKNS1_15function_bufferERST_NS1_30functor_manager_operation_typeE@Base 0.47.2
 _ZN5boost6detail8function22functor_manager_commonINS_3_bi6bind_tIvNS_4_mfi3mf1IvN11json_spirit16Semantic_actionsINS7_10Value_implINS7_13Config_vectorISsEEEEN9__gnu_cxx17__normal_iteratorIPKcSsEEEEdEENS3_5list2INS3_5valueIPSI_EENS_3argILi1EEEEEEEE12manage_smallERKNS1_15function_bufferERST_NS1_30functor_manager_operation_typeE@Base 0.47.2
 _ZN5boost6detail8function22functor_manager_commonINS_3_bi6bind_tIvNS_4_mfi3mf1IvN11json_spirit16Semantic_actionsINS7_10Value_implINS7_13Config_vectorISsEEEEN9__gnu_cxx17__normal_iteratorIPKcSsEEEElEENS3_5list2INS3_5valueIPSI_EENS_3argILi1EEEEEEEE12manage_smallERKNS1_15function_bufferERST_NS1_30functor_manager_operation_typeE@Base 0.47.2
 _ZN5boost6detail8function22functor_manager_commonINS_3_bi6bind_tIvNS_4_mfi3mf1IvN11json_spirit16Semantic_actionsINS7_10Value_implINS7_13Config_vectorISsEEEEN9__gnu_cxx17__normal_iteratorIPKcSsEEEEmEENS3_5list2INS3_5valueIPSI_EENS_3argILi1EEEEEEEE12manage_smallERKNS1_15function_bufferERST_NS1_30functor_manager_operation_typeE@Base 0.47.2
 _ZN5boost6detail8function22functor_manager_commonINS_3_bi6bind_tIvNS_4_mfi3mf1IvN11json_spirit16Semantic_actionsINS7_10Value_implINS7_13Config_vectorISsEEEENS_6spirit7classic10multi_passISt16istream_iteratorIccSt11char_traitsIcElENSE_19multi_pass_policies14input_iteratorENSK_11ref_countedENSK_12buf_id_checkENSK_9std_dequeEEEEEcEENS3_5list2INS3_5valueIPSQ_EENS_3argILi1EEEEEEEE12manage_smallERKNS1_15function_bufferERS11_NS1_30functor_manager_operation_typeE@Base 0.47.2
 _ZN5boost6detail8function22functor_manager_commonINS_3_bi6bind_tIvNS_4_mfi3mf1IvN11json_spirit16Semantic_actionsINS7_10Value_implINS7_13Config_vectorISsEEEENS_6spirit7classic10multi_passISt16istream_iteratorIccSt11char_traitsIcElENSE_19multi_pass_policies14input_iteratorENSK_11ref_countedENSK_12buf_id_checkENSK_9std_dequeEEEEEdEENS3_5list2INS3_5valueIPSQ_EENS_3argILi1EEEEEEEE12manage_smallERKNS1_15function_bufferERS11_NS1_30functor_manager_operation_typeE@Base 0.47.2
 _ZN5boost6detail8function22functor_manager_commonINS_3_bi6bind_tIvNS_4_mfi3mf1IvN11json_spirit16Semantic_actionsINS7_10Value_implINS7_13Config_vectorISsEEEENS_6spirit7classic10multi_passISt16istream_iteratorIccSt11char_traitsIcElENSE_19multi_pass_policies14input_iteratorENSK_11ref_countedENSK_12buf_id_checkENSK_9std_dequeEEEEElEENS3_5list2INS3_5valueIPSQ_EENS_3argILi1EEEEEEEE12manage_smallERKNS1_15function_bufferERS11_NS1_30functor_manager_operation_typeE@Base 0.47.2
 _ZN5boost6detail8function22functor_manager_commonINS_3_bi6bind_tIvNS_4_mfi3mf1IvN11json_spirit16Semantic_actionsINS7_10Value_implINS7_13Config_vectorISsEEEENS_6spirit7classic10multi_passISt16istream_iteratorIccSt11char_traitsIcElENSE_19multi_pass_policies14input_iteratorENSK_11ref_countedENSK_12buf_id_checkENSK_9std_dequeEEEEEmEENS3_5list2INS3_5valueIPSQ_EENS_3argILi1EEEEEEEE12manage_smallERKNS1_15function_bufferERS11_NS1_30functor_manager_operation_typeE@Base 0.47.2
 _ZN5boost6detail8function22functor_manager_commonINS_3_bi6bind_tIvNS_4_mfi3mf1IvN11json_spirit16Semantic_actionsINS7_10Value_implINS7_13Config_vectorISsEEEENS_6spirit7classic17position_iteratorIN9__gnu_cxx17__normal_iteratorIPKcSsEENSE_18file_position_baseISsEENSE_5nil_tEEEEEcEENS3_5list2INS3_5valueIPSP_EENS_3argILi1EEEEEEEE12manage_smallERKNS1_15function_bufferERS10_NS1_30functor_manager_operation_typeE@Base 0.47.2
 _ZN5boost6detail8function22functor_manager_commonINS_3_bi6bind_tIvNS_4_mfi3mf1IvN11json_spirit16Semantic_actionsINS7_10Value_implINS7_13Config_vectorISsEEEENS_6spirit7classic17position_iteratorIN9__gnu_cxx17__normal_iteratorIPKcSsEENSE_18file_position_baseISsEENSE_5nil_tEEEEEdEENS3_5list2INS3_5valueIPSP_EENS_3argILi1EEEEEEEE12manage_smallERKNS1_15function_bufferERS10_NS1_30functor_manager_operation_typeE@Base 0.47.2
 _ZN5boost6detail8function22functor_manager_commonINS_3_bi6bind_tIvNS_4_mfi3mf1IvN11json_spirit16Semantic_actionsINS7_10Value_implINS7_13Config_vectorISsEEEENS_6spirit7classic17position_iteratorIN9__gnu_cxx17__normal_iteratorIPKcSsEENSE_18file_position_baseISsEENSE_5nil_tEEEEElEENS3_5list2INS3_5valueIPSP_EENS_3argILi1EEEEEEEE12manage_smallERKNS1_15function_bufferERS10_NS1_30functor_manager_operation_typeE@Base 0.47.2
 _ZN5boost6detail8function22functor_manager_commonINS_3_bi6bind_tIvNS_4_mfi3mf1IvN11json_spirit16Semantic_actionsINS7_10Value_implINS7_13Config_vectorISsEEEENS_6spirit7classic17position_iteratorIN9__gnu_cxx17__normal_iteratorIPKcSsEENSE_18file_position_baseISsEENSE_5nil_tEEEEEmEENS3_5list2INS3_5valueIPSP_EENS_3argILi1EEEEEEEE12manage_smallERKNS1_15function_bufferERS10_NS1_30functor_manager_operation_typeE@Base 0.47.2
 _ZN5boost6detail8function22functor_manager_commonINS_3_bi6bind_tIvNS_4_mfi3mf1IvN11json_spirit16Semantic_actionsINS7_10Value_implINS7_13Config_vectorISsEEEENS_6spirit7classic17position_iteratorINSE_10multi_passISt16istream_iteratorIccSt11char_traitsIcElENSE_19multi_pass_policies14input_iteratorENSL_11ref_countedENSL_12buf_id_checkENSL_9std_dequeEEENSE_18file_position_baseISsEENSE_5nil_tEEEEEcEENS3_5list2INS3_5valueIPSV_EENS_3argILi1EEEEEEEE12manage_smallERKNS1_15function_bufferERS16_NS1_30functor_manager_operation_typeE@Base 0.47.2
 _ZN5boost6detail8function22functor_manager_commonINS_3_bi6bind_tIvNS_4_mfi3mf1IvN11json_spirit16Semantic_actionsINS7_10Value_implINS7_13Config_vectorISsEEEENS_6spirit7classic17position_iteratorINSE_10multi_passISt16istream_iteratorIccSt11char_traitsIcElENSE_19multi_pass_policies14input_iteratorENSL_11ref_countedENSL_12buf_id_checkENSL_9std_dequeEEENSE_18file_position_baseISsEENSE_5nil_tEEEEEdEENS3_5list2INS3_5valueIPSV_EENS_3argILi1EEEEEEEE12manage_smallERKNS1_15function_bufferERS16_NS1_30functor_manager_operation_typeE@Base 0.47.2
 _ZN5boost6detail8function22functor_manager_commonINS_3_bi6bind_tIvNS_4_mfi3mf1IvN11json_spirit16Semantic_actionsINS7_10Value_implINS7_13Config_vectorISsEEEENS_6spirit7classic17position_iteratorINSE_10multi_passISt16istream_iteratorIccSt11char_traitsIcElENSE_19multi_pass_policies14input_iteratorENSL_11ref_countedENSL_12buf_id_checkENSL_9std_dequeEEENSE_18file_position_baseISsEENSE_5nil_tEEEEElEENS3_5list2INS3_5valueIPSV_EENS_3argILi1EEEEEEEE12manage_smallERKNS1_15function_bufferERS16_NS1_30functor_manager_operation_typeE@Base 0.47.2
 _ZN5boost6detail8function22functor_manager_commonINS_3_bi6bind_tIvNS_4_mfi3mf1IvN11json_spirit16Semantic_actionsINS7_10Value_implINS7_13Config_vectorISsEEEENS_6spirit7classic17position_iteratorINSE_10multi_passISt16istream_iteratorIccSt11char_traitsIcElENSE_19multi_pass_policies14input_iteratorENSL_11ref_countedENSL_12buf_id_checkENSL_9std_dequeEEENSE_18file_position_baseISsEENSE_5nil_tEEEEEmEENS3_5list2INS3_5valueIPSV_EENS_3argILi1EEEEEEEE12manage_smallERKNS1_15function_bufferERS16_NS1_30functor_manager_operation_typeE@Base 0.47.2
 _ZN5boost6detail8function22functor_manager_commonINS_3_bi6bind_tIvNS_4_mfi3mf2IvN11json_spirit16Semantic_actionsINS7_10Value_implINS7_13Config_vectorISsEEEEN9__gnu_cxx17__normal_iteratorIPKcSsEEEESH_SH_EENS3_5list3INS3_5valueIPSI_EENS_3argILi1EEENSO_ILi2EEEEEEEE12manage_smallERKNS1_15function_bufferERSU_NS1_30functor_manager_operation_typeE@Base 0.47.2
 _ZN5boost6detail8function22functor_manager_commonINS_3_bi6bind_tIvNS_4_mfi3mf2IvN11json_spirit16Semantic_actionsINS7_10Value_implINS7_13Config_vectorISsEEEENS_6spirit7classic10multi_passISt16istream_iteratorIccSt11char_traitsIcElENSE_19multi_pass_policies14input_iteratorENSK_11ref_countedENSK_12buf_id_checkENSK_9std_dequeEEEEESP_SP_EENS3_5list3INS3_5valueIPSQ_EENS_3argILi1EEENSW_ILi2EEEEEEEE12manage_smallERKNS1_15function_bufferERS12_NS1_30functor_manager_operation_typeE@Base 0.47.2
 _ZN5boost6detail8function22functor_manager_commonINS_3_bi6bind_tIvNS_4_mfi3mf2IvN11json_spirit16Semantic_actionsINS7_10Value_implINS7_13Config_vectorISsEEEENS_6spirit7classic17position_iteratorIN9__gnu_cxx17__normal_iteratorIPKcSsEENSE_18file_position_baseISsEENSE_5nil_tEEEEESO_SO_EENS3_5list3INS3_5valueIPSP_EENS_3argILi1EEENSV_ILi2EEEEEEEE12manage_smallERKNS1_15function_bufferERS11_NS1_30functor_manager_operation_typeE@Base 0.47.2
 _ZN5boost6detail8function22functor_manager_commonINS_3_bi6bind_tIvNS_4_mfi3mf2IvN11json_spirit16Semantic_actionsINS7_10Value_implINS7_13Config_vectorISsEEEENS_6spirit7classic17position_iteratorINSE_10multi_passISt16istream_iteratorIccSt11char_traitsIcElENSE_19multi_pass_policies14input_iteratorENSL_11ref_countedENSL_12buf_id_checkENSL_9std_dequeEEENSE_18file_position_baseISsEENSE_5nil_tEEEEESU_SU_EENS3_5list3INS3_5valueIPSV_EENS_3argILi1EEENS11_ILi2EEEEEEEE12manage_smallERKNS1_15function_bufferERS17_NS1_30functor_manager_operation_typeE@Base 0.47.2
 _ZN5boost6detail8function26void_function_obj_invoker1INS_3_bi6bind_tIvNS_4_mfi3mf1IvN11json_spirit16Semantic_actionsINS7_10Value_implINS7_13Config_vectorISsEEEEN9__gnu_cxx17__normal_iteratorIPKcSsEEEEcEENS3_5list2INS3_5valueIPSI_EENS_3argILi1EEEEEEEvcE6invokeERNS1_15function_bufferEc@Base 0.47.2
 _ZN5boost6detail8function26void_function_obj_invoker1INS_3_bi6bind_tIvNS_4_mfi3mf1IvN11json_spirit16Semantic_actionsINS7_10Value_implINS7_13Config_vectorISsEEEEN9__gnu_cxx17__normal_iteratorIPKcSsEEEEdEENS3_5list2INS3_5valueIPSI_EENS_3argILi1EEEEEEEvdE6invokeERNS1_15function_bufferEd@Base 0.47.2
 _ZN5boost6detail8function26void_function_obj_invoker1INS_3_bi6bind_tIvNS_4_mfi3mf1IvN11json_spirit16Semantic_actionsINS7_10Value_implINS7_13Config_vectorISsEEEEN9__gnu_cxx17__normal_iteratorIPKcSsEEEElEENS3_5list2INS3_5valueIPSI_EENS_3argILi1EEEEEEEvlE6invokeERNS1_15function_bufferEl@Base 0.47.2
 _ZN5boost6detail8function26void_function_obj_invoker1INS_3_bi6bind_tIvNS_4_mfi3mf1IvN11json_spirit16Semantic_actionsINS7_10Value_implINS7_13Config_vectorISsEEEEN9__gnu_cxx17__normal_iteratorIPKcSsEEEEmEENS3_5list2INS3_5valueIPSI_EENS_3argILi1EEEEEEEvmE6invokeERNS1_15function_bufferEm@Base 0.47.2
 _ZN5boost6detail8function26void_function_obj_invoker1INS_3_bi6bind_tIvNS_4_mfi3mf1IvN11json_spirit16Semantic_actionsINS7_10Value_implINS7_13Config_vectorISsEEEENS_6spirit7classic10multi_passISt16istream_iteratorIccSt11char_traitsIcElENSE_19multi_pass_policies14input_iteratorENSK_11ref_countedENSK_12buf_id_checkENSK_9std_dequeEEEEEcEENS3_5list2INS3_5valueIPSQ_EENS_3argILi1EEEEEEEvcE6invokeERNS1_15function_bufferEc@Base 0.47.2
 _ZN5boost6detail8function26void_function_obj_invoker1INS_3_bi6bind_tIvNS_4_mfi3mf1IvN11json_spirit16Semantic_actionsINS7_10Value_implINS7_13Config_vectorISsEEEENS_6spirit7classic10multi_passISt16istream_iteratorIccSt11char_traitsIcElENSE_19multi_pass_policies14input_iteratorENSK_11ref_countedENSK_12buf_id_checkENSK_9std_dequeEEEEEdEENS3_5list2INS3_5valueIPSQ_EENS_3argILi1EEEEEEEvdE6invokeERNS1_15function_bufferEd@Base 0.47.2
 _ZN5boost6detail8function26void_function_obj_invoker1INS_3_bi6bind_tIvNS_4_mfi3mf1IvN11json_spirit16Semantic_actionsINS7_10Value_implINS7_13Config_vectorISsEEEENS_6spirit7classic10multi_passISt16istream_iteratorIccSt11char_traitsIcElENSE_19multi_pass_policies14input_iteratorENSK_11ref_countedENSK_12buf_id_checkENSK_9std_dequeEEEEElEENS3_5list2INS3_5valueIPSQ_EENS_3argILi1EEEEEEEvlE6invokeERNS1_15function_bufferEl@Base 0.47.2
 _ZN5boost6detail8function26void_function_obj_invoker1INS_3_bi6bind_tIvNS_4_mfi3mf1IvN11json_spirit16Semantic_actionsINS7_10Value_implINS7_13Config_vectorISsEEEENS_6spirit7classic10multi_passISt16istream_iteratorIccSt11char_traitsIcElENSE_19multi_pass_policies14input_iteratorENSK_11ref_countedENSK_12buf_id_checkENSK_9std_dequeEEEEEmEENS3_5list2INS3_5valueIPSQ_EENS_3argILi1EEEEEEEvmE6invokeERNS1_15function_bufferEm@Base 0.47.2
 _ZN5boost6detail8function26void_function_obj_invoker1INS_3_bi6bind_tIvNS_4_mfi3mf1IvN11json_spirit16Semantic_actionsINS7_10Value_implINS7_13Config_vectorISsEEEENS_6spirit7classic17position_iteratorIN9__gnu_cxx17__normal_iteratorIPKcSsEENSE_18file_position_baseISsEENSE_5nil_tEEEEEcEENS3_5list2INS3_5valueIPSP_EENS_3argILi1EEEEEEEvcE6invokeERNS1_15function_bufferEc@Base 0.47.2
 _ZN5boost6detail8function26void_function_obj_invoker1INS_3_bi6bind_tIvNS_4_mfi3mf1IvN11json_spirit16Semantic_actionsINS7_10Value_implINS7_13Config_vectorISsEEEENS_6spirit7classic17position_iteratorIN9__gnu_cxx17__normal_iteratorIPKcSsEENSE_18file_position_baseISsEENSE_5nil_tEEEEEdEENS3_5list2INS3_5valueIPSP_EENS_3argILi1EEEEEEEvdE6invokeERNS1_15function_bufferEd@Base 0.47.2
 _ZN5boost6detail8function26void_function_obj_invoker1INS_3_bi6bind_tIvNS_4_mfi3mf1IvN11json_spirit16Semantic_actionsINS7_10Value_implINS7_13Config_vectorISsEEEENS_6spirit7classic17position_iteratorIN9__gnu_cxx17__normal_iteratorIPKcSsEENSE_18file_position_baseISsEENSE_5nil_tEEEEElEENS3_5list2INS3_5valueIPSP_EENS_3argILi1EEEEEEEvlE6invokeERNS1_15function_bufferEl@Base 0.47.2
 _ZN5boost6detail8function26void_function_obj_invoker1INS_3_bi6bind_tIvNS_4_mfi3mf1IvN11json_spirit16Semantic_actionsINS7_10Value_implINS7_13Config_vectorISsEEEENS_6spirit7classic17position_iteratorIN9__gnu_cxx17__normal_iteratorIPKcSsEENSE_18file_position_baseISsEENSE_5nil_tEEEEEmEENS3_5list2INS3_5valueIPSP_EENS_3argILi1EEEEEEEvmE6invokeERNS1_15function_bufferEm@Base 0.47.2
 _ZN5boost6detail8function26void_function_obj_invoker1INS_3_bi6bind_tIvNS_4_mfi3mf1IvN11json_spirit16Semantic_actionsINS7_10Value_implINS7_13Config_vectorISsEEEENS_6spirit7classic17position_iteratorINSE_10multi_passISt16istream_iteratorIccSt11char_traitsIcElENSE_19multi_pass_policies14input_iteratorENSL_11ref_countedENSL_12buf_id_checkENSL_9std_dequeEEENSE_18file_position_baseISsEENSE_5nil_tEEEEEcEENS3_5list2INS3_5valueIPSV_EENS_3argILi1EEEEEEEvcE6invokeERNS1_15function_bufferEc@Base 0.47.2
 _ZN5boost6detail8function26void_function_obj_invoker1INS_3_bi6bind_tIvNS_4_mfi3mf1IvN11json_spirit16Semantic_actionsINS7_10Value_implINS7_13Config_vectorISsEEEENS_6spirit7classic17position_iteratorINSE_10multi_passISt16istream_iteratorIccSt11char_traitsIcElENSE_19multi_pass_policies14input_iteratorENSL_11ref_countedENSL_12buf_id_checkENSL_9std_dequeEEENSE_18file_position_baseISsEENSE_5nil_tEEEEEdEENS3_5list2INS3_5valueIPSV_EENS_3argILi1EEEEEEEvdE6invokeERNS1_15function_bufferEd@Base 0.47.2
 _ZN5boost6detail8function26void_function_obj_invoker1INS_3_bi6bind_tIvNS_4_mfi3mf1IvN11json_spirit16Semantic_actionsINS7_10Value_implINS7_13Config_vectorISsEEEENS_6spirit7classic17position_iteratorINSE_10multi_passISt16istream_iteratorIccSt11char_traitsIcElENSE_19multi_pass_policies14input_iteratorENSL_11ref_countedENSL_12buf_id_checkENSL_9std_dequeEEENSE_18file_position_baseISsEENSE_5nil_tEEEEElEENS3_5list2INS3_5valueIPSV_EENS_3argILi1EEEEEEEvlE6invokeERNS1_15function_bufferEl@Base 0.47.2
 _ZN5boost6detail8function26void_function_obj_invoker1INS_3_bi6bind_tIvNS_4_mfi3mf1IvN11json_spirit16Semantic_actionsINS7_10Value_implINS7_13Config_vectorISsEEEENS_6spirit7classic17position_iteratorINSE_10multi_passISt16istream_iteratorIccSt11char_traitsIcElENSE_19multi_pass_policies14input_iteratorENSL_11ref_countedENSL_12buf_id_checkENSL_9std_dequeEEENSE_18file_position_baseISsEENSE_5nil_tEEEEEmEENS3_5list2INS3_5valueIPSV_EENS_3argILi1EEEEEEEvmE6invokeERNS1_15function_bufferEm@Base 0.47.2
 _ZN5boost6detail8function26void_function_obj_invoker2INS_3_bi6bind_tIvNS_4_mfi3mf2IvN11json_spirit16Semantic_actionsINS7_10Value_implINS7_13Config_vectorISsEEEEN9__gnu_cxx17__normal_iteratorIPKcSsEEEESH_SH_EENS3_5list3INS3_5valueIPSI_EENS_3argILi1EEENSO_ILi2EEEEEEEvSH_SH_E6invokeERNS1_15function_bufferESH_SH_@Base 0.47.2
 _ZN5boost6detail8function26void_function_obj_invoker2INS_3_bi6bind_tIvNS_4_mfi3mf2IvN11json_spirit16Semantic_actionsINS7_10Value_implINS7_13Config_vectorISsEEEENS_6spirit7classic10multi_passISt16istream_iteratorIccSt11char_traitsIcElENSE_19multi_pass_policies14input_iteratorENSK_11ref_countedENSK_12buf_id_checkENSK_9std_dequeEEEEESP_SP_EENS3_5list3INS3_5valueIPSQ_EENS_3argILi1EEENSW_ILi2EEEEEEEvSP_SP_E6invokeERNS1_15function_bufferESP_SP_@Base 0.47.2
 _ZN5boost6detail8function26void_function_obj_invoker2INS_3_bi6bind_tIvNS_4_mfi3mf2IvN11json_spirit16Semantic_actionsINS7_10Value_implINS7_13Config_vectorISsEEEENS_6spirit7classic17position_iteratorIN9__gnu_cxx17__normal_iteratorIPKcSsEENSE_18file_position_baseISsEENSE_5nil_tEEEEESO_SO_EENS3_5list3INS3_5valueIPSP_EENS_3argILi1EEENSV_ILi2EEEEEEEvSO_SO_E6invokeERNS1_15function_bufferESO_SO_@Base 0.47.2
 _ZN5boost6detail8function26void_function_obj_invoker2INS_3_bi6bind_tIvNS_4_mfi3mf2IvN11json_spirit16Semantic_actionsINS7_10Value_implINS7_13Config_vectorISsEEEENS_6spirit7classic17position_iteratorINSE_10multi_passISt16istream_iteratorIccSt11char_traitsIcElENSE_19multi_pass_policies14input_iteratorENSL_11ref_countedENSL_12buf_id_checkENSL_9std_dequeEEENSE_18file_position_baseISsEENSE_5nil_tEEEEESU_SU_EENS3_5list3INS3_5valueIPSV_EENS_3argILi1EEENS11_ILi2EEEEEEEvSU_SU_E6invokeERNS1_15function_bufferESU_SU_@Base 0.47.2
 _ZN5boost6spirit10tree_matchIPKcNS0_21node_val_data_factoryINS0_5nil_tEEES5_EC1EmRKNS0_13node_val_dataIS3_S5_EE@Base 0.47.2
 _ZN5boost6spirit10tree_matchIPKcNS0_21node_val_data_factoryINS0_5nil_tEEES5_EC1EmRKS5_RKNS0_13node_val_dataIS3_S5_EE@Base 0.47.2
 _ZN5boost6spirit10tree_matchIPKcNS0_21node_val_data_factoryINS0_5nil_tEEES5_EC2EmRKNS0_13node_val_dataIS3_S5_EE@Base 0.47.2
 _ZN5boost6spirit10tree_matchIPKcNS0_21node_val_data_factoryINS0_5nil_tEEES5_EC2EmRKS5_RKNS0_13node_val_dataIS3_S5_EE@Base 0.47.2
 _ZN5boost6spirit10tree_matchIPKcNS0_21node_val_data_factoryINS0_5nil_tEEES5_ED1Ev@Base 0.47.2
 _ZN5boost6spirit10tree_matchIPKcNS0_21node_val_data_factoryINS0_5nil_tEEES5_ED2Ev@Base 0.47.2
 _ZN5boost6spirit10tree_matchIPKcNS0_21node_val_data_factoryINS0_5nil_tEEES5_EaSERKS7_@Base 0.47.2
 _ZN5boost6spirit10tree_matchIPKcNS0_21node_val_data_factoryINS0_5nil_tEEEbEC1EmbRKNS0_13node_val_dataIS3_S5_EE@Base 0.47.2
 _ZN5boost6spirit10tree_matchIPKcNS0_21node_val_data_factoryINS0_5nil_tEEEbEC2EmbRKNS0_13node_val_dataIS3_S5_EE@Base 0.47.2
 _ZN5boost6spirit10tree_matchIPKcNS0_21node_val_data_factoryINS0_5nil_tEEEbED1Ev@Base 0.47.2
 _ZN5boost6spirit10tree_matchIPKcNS0_21node_val_data_factoryINS0_5nil_tEEEbED2Ev@Base 0.47.2
 _ZN5boost6spirit10tree_matchIPKcNS0_21node_val_data_factoryINS0_5nil_tEEEcEC1EmcRKNS0_13node_val_dataIS3_S5_EE@Base 0.47.2
 _ZN5boost6spirit10tree_matchIPKcNS0_21node_val_data_factoryINS0_5nil_tEEEcEC2EmcRKNS0_13node_val_dataIS3_S5_EE@Base 0.47.2
 _ZN5boost6spirit10tree_matchIPKcNS0_21node_val_data_factoryINS0_5nil_tEEEcED1Ev@Base 0.47.2
 _ZN5boost6spirit10tree_matchIPKcNS0_21node_val_data_factoryINS0_5nil_tEEEcED2Ev@Base 0.47.2
 _ZN5boost6spirit10tree_matchIPKcNS0_21node_val_data_factoryINS0_5nil_tEEEcEaSERKS7_@Base 0.47.2
 _ZN5boost6spirit10tree_matchIPKcNS0_21node_val_data_factoryINS0_5nil_tEEEdEC1EmdRKNS0_13node_val_dataIS3_S5_EE@Base 0.47.2
 _ZN5boost6spirit10tree_matchIPKcNS0_21node_val_data_factoryINS0_5nil_tEEEdEC2EmdRKNS0_13node_val_dataIS3_S5_EE@Base 0.47.2
 _ZN5boost6spirit10tree_matchIPKcNS0_21node_val_data_factoryINS0_5nil_tEEEdED1Ev@Base 0.47.2
 _ZN5boost6spirit10tree_matchIPKcNS0_21node_val_data_factoryINS0_5nil_tEEEdED2Ev@Base 0.47.2
 _ZN5boost6spirit13node_val_dataIPKcNS0_5nil_tEEC1ERKS3_S7_@Base 0.47.2
 _ZN5boost6spirit13node_val_dataIPKcNS0_5nil_tEEC2ERKS3_S7_@Base 0.47.2
 _ZN5boost6spirit13node_val_dataIPKcNS0_5nil_tEED1Ev@Base 0.47.2
 _ZN5boost6spirit13node_val_dataIPKcNS0_5nil_tEED2Ev@Base 0.47.2
 _ZN5boost6spirit15ast_tree_policyINS0_16ast_match_policyIPKcNS0_21node_val_data_factoryINS0_5nil_tEEES6_EES7_S6_E11group_matchINS0_10tree_matchIS4_S7_S6_EES4_S4_EEvRT_RKNS0_9parser_idERKT0_RKT1_@Base 0.47.2
 _ZN5boost6spirit15ast_tree_policyINS0_16ast_match_policyIPKcNS0_21node_val_data_factoryINS0_5nil_tEEES6_EES7_S6_E6concatINS0_10tree_matchIS4_S7_S6_EESC_EEvRT_RKT0_@Base 0.47.2
 _ZN5boost6spirit21ureal_parser_policiesIdE9parse_expIKNS0_7scannerIPKcNS0_16scanner_policiesINS0_27no_skipper_iteration_policyINS0_28skip_parser_iteration_policyINS0_12space_parserENS0_16iteration_policyEEEEENS0_16ast_match_policyIS6_NS0_21node_val_data_factoryINS0_5nil_tEEESG_EENS0_13action_policyEEEEEEENS0_13parser_resultINS0_5chlitIcEET_E4typeERSQ_@Base 0.47.2
 _ZN5boost6spirit24common_tree_match_policyINS0_16ast_match_policyIPKcNS0_21node_val_data_factoryINS0_5nil_tEEES6_EES4_S7_NS0_15ast_tree_policyIS8_S7_S6_EES6_E11empty_matchEv@Base 0.47.2
 _ZN5boost6spirit24common_tree_match_policyINS0_16ast_match_policyIPKcNS0_21node_val_data_factoryINS0_5nil_tEEES6_EES4_S7_NS0_15ast_tree_policyIS8_S7_S6_EES6_E12concat_matchINS0_10tree_matchIS4_S7_S6_EESE_EEvRT_RKT0_@Base 0.47.2
 _ZN5boost6spirit24common_tree_match_policyINS0_16ast_match_policyIPKcNS0_21node_val_data_factoryINS0_5nil_tEEES6_EES4_S7_NS0_15ast_tree_policyIS8_S7_S6_EES6_E12create_matchIS6_S4_S4_EENS0_10tree_matchIS4_S7_T_EEmRKSE_RKT0_RKT1_@Base 0.47.2
 _ZN5boost6spirit24common_tree_match_policyINS0_16ast_match_policyIPKcNS0_21node_val_data_factoryINS0_5nil_tEEES6_EES4_S7_NS0_15ast_tree_policyIS8_S7_S6_EES6_E12create_matchIbS4_S4_EENS0_10tree_matchIS4_S7_T_EEmRKSE_RKT0_RKT1_@Base 0.47.2
 _ZN5boost6spirit24common_tree_match_policyINS0_16ast_match_policyIPKcNS0_21node_val_data_factoryINS0_5nil_tEEES6_EES4_S7_NS0_15ast_tree_policyIS8_S7_S6_EES6_E12create_matchIcS4_S4_EENS0_10tree_matchIS4_S7_T_EEmRKSE_RKT0_RKT1_@Base 0.47.2
 _ZN5boost6spirit24common_tree_match_policyINS0_16ast_match_policyIPKcNS0_21node_val_data_factoryINS0_5nil_tEEES6_EES4_S7_NS0_15ast_tree_policyIS8_S7_S6_EES6_E12create_matchIdS4_S4_EENS0_10tree_matchIS4_S7_T_EEmRKSE_RKT0_RKT1_@Base 0.47.2
 _ZN5boost6spirit4impl11call_helperILi0EE3do_INS0_10tree_matchIPKcNS0_21node_val_data_factoryINS0_5nil_tEEES9_EEN13crush_grammar10definitionINS0_7scannerIS7_NS0_16scanner_policiesINS0_28skip_parser_iteration_policyINS0_12space_parserENS0_16iteration_policyEEENS0_16ast_match_policyIS7_SA_S9_EENS0_13action_policyEEEEEEESO_EEvRT_RT0_RKT1_@Base 0.47.2
 _ZN5boost6spirit4impl11extract_intILi10ELj1ELin1ENS1_19negative_accumulateIdLi10EEEE1fIKNS0_7scannerIPKcNS0_16scanner_policiesINS0_27no_skipper_iteration_policyINS0_28skip_parser_iteration_policyINS0_12space_parserENS0_16iteration_policyEEEEENS0_16ast_match_policyIS9_NS0_21node_val_data_factoryINS0_5nil_tEEESJ_EENS0_13action_policyEEEEEdEEbRT_RT0_Rm@Base 0.47.2
 _ZN5boost6spirit4impl11extract_intILi10ELj1ELin1ENS1_19positive_accumulateIdLi10EEEE1fIKNS0_7scannerIPKcNS0_16scanner_policiesINS0_27no_skipper_iteration_policyINS0_28skip_parser_iteration_policyINS0_12space_parserENS0_16iteration_policyEEEEENS0_16ast_match_policyIS9_NS0_21node_val_data_factoryINS0_5nil_tEEESJ_EENS0_13action_policyEEEEEdEEbRT_RT0_Rm@Base 0.47.2
 _ZN5boost6spirit4impl14get_definitionI13crush_grammarNS0_14parser_contextINS0_5nil_tEEENS0_7scannerIPKcNS0_16scanner_policiesINS0_28skip_parser_iteration_policyINS0_12space_parserENS0_16iteration_policyEEENS0_16ast_match_policyIS9_NS0_21node_val_data_factoryIS5_EES5_EENS0_13action_policyEEEEEEERNT_10definitionIT1_EEPKNS0_7grammarISM_T0_EE@Base 0.47.2
 _ZN5boost6spirit4impl14grammar_helperINS0_7grammarI13crush_grammarNS0_14parser_contextINS0_5nil_tEEEEES4_NS0_7scannerIPKcNS0_16scanner_policiesINS0_28skip_parser_iteration_policyINS0_12space_parserENS0_16iteration_policyEEENS0_16ast_match_policyISB_NS0_21node_val_data_factoryIS6_EES6_EENS0_13action_policyEEEEEE6defineEPKS8_@Base 0.47.2
 _ZN5boost6spirit4impl14grammar_helperINS0_7grammarI13crush_grammarNS0_14parser_contextINS0_5nil_tEEEEES4_NS0_7scannerIPKcNS0_16scanner_policiesINS0_28skip_parser_iteration_policyINS0_12space_parserENS0_16iteration_policyEEENS0_16ast_match_policyISB_NS0_21node_val_data_factoryIS6_EES6_EENS0_13action_policyEEEEEE8undefineEPS8_@Base 0.47.2
 _ZN5boost6spirit4impl14grammar_helperINS0_7grammarI13crush_grammarNS0_14parser_contextINS0_5nil_tEEEEES4_NS0_7scannerIPKcNS0_16scanner_policiesINS0_28skip_parser_iteration_policyINS0_12space_parserENS0_16iteration_policyEEENS0_16ast_match_policyISB_NS0_21node_val_data_factoryIS6_EES6_EENS0_13action_policyEEEEEEC1ERNS_8weak_ptrISO_EE@Base 0.47.2
 _ZN5boost6spirit4impl14grammar_helperINS0_7grammarI13crush_grammarNS0_14parser_contextINS0_5nil_tEEEEES4_NS0_7scannerIPKcNS0_16scanner_policiesINS0_28skip_parser_iteration_policyINS0_12space_parserENS0_16iteration_policyEEENS0_16ast_match_policyISB_NS0_21node_val_data_factoryIS6_EES6_EENS0_13action_policyEEEEEEC2ERNS_8weak_ptrISO_EE@Base 0.47.2
 _ZN5boost6spirit4impl14grammar_helperINS0_7grammarI13crush_grammarNS0_14parser_contextINS0_5nil_tEEEEES4_NS0_7scannerIPKcNS0_16scanner_policiesINS0_28skip_parser_iteration_policyINS0_12space_parserENS0_16iteration_policyEEENS0_16ast_match_policyISB_NS0_21node_val_data_factoryIS6_EES6_EENS0_13action_policyEEEEEED0Ev@Base 0.47.2
 _ZN5boost6spirit4impl14grammar_helperINS0_7grammarI13crush_grammarNS0_14parser_contextINS0_5nil_tEEEEES4_NS0_7scannerIPKcNS0_16scanner_policiesINS0_28skip_parser_iteration_policyINS0_12space_parserENS0_16iteration_policyEEENS0_16ast_match_policyISB_NS0_21node_val_data_factoryIS6_EES6_EENS0_13action_policyEEEEEED1Ev@Base 0.47.2
 _ZN5boost6spirit4impl14grammar_helperINS0_7grammarI13crush_grammarNS0_14parser_contextINS0_5nil_tEEEEES4_NS0_7scannerIPKcNS0_16scanner_policiesINS0_28skip_parser_iteration_policyINS0_12space_parserENS0_16iteration_policyEEENS0_16ast_match_policyISB_NS0_21node_val_data_factoryIS6_EES6_EENS0_13action_policyEEEEEED2Ev@Base 0.47.2
 _ZN5boost6spirit4impl14object_with_idINS1_11grammar_tagEmED1Ev@Base 0.47.2
 _ZN5boost6spirit4impl14object_with_idINS1_11grammar_tagEmED2Ev@Base 0.47.2
 _ZN5boost6spirit4impl15abstract_parserINS0_7scannerIPKcNS0_16scanner_policiesINS0_28skip_parser_iteration_policyINS0_12space_parserENS0_16iteration_policyEEENS0_16ast_match_policyIS5_NS0_21node_val_data_factoryINS0_5nil_tEEESD_EENS0_13action_policyEEEEESD_ED0Ev@Base 0.47.2
 _ZN5boost6spirit4impl15abstract_parserINS0_7scannerIPKcNS0_16scanner_policiesINS0_28skip_parser_iteration_policyINS0_12space_parserENS0_16iteration_policyEEENS0_16ast_match_policyIS5_NS0_21node_val_data_factoryINS0_5nil_tEEESD_EENS0_13action_policyEEEEESD_ED1Ev@Base 0.47.2
 _ZN5boost6spirit4impl15abstract_parserINS0_7scannerIPKcNS0_16scanner_policiesINS0_28skip_parser_iteration_policyINS0_12space_parserENS0_16iteration_policyEEENS0_16ast_match_policyIS5_NS0_21node_val_data_factoryINS0_5nil_tEEESD_EENS0_13action_policyEEEEESD_ED2Ev@Base 0.47.2
 _ZN5boost6spirit4impl15concrete_parserINS0_16leaf_node_parserINS0_10contiguousINS0_8positiveINS0_12digit_parserEEEEEEENS0_7scannerIPKcNS0_16scanner_policiesINS0_28skip_parser_iteration_policyINS0_12space_parserENS0_16iteration_policyEEENS0_16ast_match_policyISC_NS0_21node_val_data_factoryINS0_5nil_tEEESK_EENS0_13action_policyEEEEESK_ED0Ev@Base 0.47.2
 _ZN5boost6spirit4impl15concrete_parserINS0_16leaf_node_parserINS0_10contiguousINS0_8positiveINS0_12digit_parserEEEEEEENS0_7scannerIPKcNS0_16scanner_policiesINS0_28skip_parser_iteration_policyINS0_12space_parserENS0_16iteration_policyEEENS0_16ast_match_policyISC_NS0_21node_val_data_factoryINS0_5nil_tEEESK_EENS0_13action_policyEEEEESK_ED1Ev@Base 0.47.2
 _ZN5boost6spirit4impl15concrete_parserINS0_16leaf_node_parserINS0_10contiguousINS0_8positiveINS0_12digit_parserEEEEEEENS0_7scannerIPKcNS0_16scanner_policiesINS0_28skip_parser_iteration_policyINS0_12space_parserENS0_16iteration_policyEEENS0_16ast_match_policyISC_NS0_21node_val_data_factoryINS0_5nil_tEEESK_EENS0_13action_policyEEEEESK_ED2Ev@Base 0.47.2
 _ZN5boost6spirit4impl15concrete_parserINS0_16leaf_node_parserINS0_10contiguousINS0_8positiveINS0_13sequential_orINS6_INS6_INS0_12alnum_parserENS0_5chlitIcEEEES9_EES9_EEEEEEEENS0_7scannerIPKcNS0_16scanner_policiesINS0_28skip_parser_iteration_policyINS0_12space_parserENS0_16iteration_policyEEENS0_16ast_match_policyISI_NS0_21node_val_data_factoryINS0_5nil_tEEESQ_EENS0_13action_policyEEEEESQ_ED0Ev@Base 0.47.2
 _ZN5boost6spirit4impl15concrete_parserINS0_16leaf_node_parserINS0_10contiguousINS0_8positiveINS0_13sequential_orINS6_INS6_INS0_12alnum_parserENS0_5chlitIcEEEES9_EES9_EEEEEEEENS0_7scannerIPKcNS0_16scanner_policiesINS0_28skip_parser_iteration_policyINS0_12space_parserENS0_16iteration_policyEEENS0_16ast_match_policyISI_NS0_21node_val_data_factoryINS0_5nil_tEEESQ_EENS0_13action_policyEEEEESQ_ED1Ev@Base 0.47.2
 _ZN5boost6spirit4impl15concrete_parserINS0_16leaf_node_parserINS0_10contiguousINS0_8positiveINS0_13sequential_orINS6_INS6_INS0_12alnum_parserENS0_5chlitIcEEEES9_EES9_EEEEEEEENS0_7scannerIPKcNS0_16scanner_policiesINS0_28skip_parser_iteration_policyINS0_12space_parserENS0_16iteration_policyEEENS0_16ast_match_policyISI_NS0_21node_val_data_factoryINS0_5nil_tEEESQ_EENS0_13action_policyEEEEESQ_ED2Ev@Base 0.47.2
 _ZN5boost6spirit4impl15concrete_parserINS0_16leaf_node_parserINS0_10contiguousINS0_8sequenceINS0_5chlitIcEENS0_8positiveINS0_12digit_parserEEEEEEEEENS0_7scannerIPKcNS0_16scanner_policiesINS0_28skip_parser_iteration_policyINS0_12space_parserENS0_16iteration_policyEEENS0_16ast_match_policyISG_NS0_21node_val_data_factoryINS0_5nil_tEEESO_EENS0_13action_policyEEEEESO_ED0Ev@Base 0.47.2
 _ZN5boost6spirit4impl15concrete_parserINS0_16leaf_node_parserINS0_10contiguousINS0_8sequenceINS0_5chlitIcEENS0_8positiveINS0_12digit_parserEEEEEEEEENS0_7scannerIPKcNS0_16scanner_policiesINS0_28skip_parser_iteration_policyINS0_12space_parserENS0_16iteration_policyEEENS0_16ast_match_policyISG_NS0_21node_val_data_factoryINS0_5nil_tEEESO_EENS0_13action_policyEEEEESO_ED1Ev@Base 0.47.2
 _ZN5boost6spirit4impl15concrete_parserINS0_16leaf_node_parserINS0_10contiguousINS0_8sequenceINS0_5chlitIcEENS0_8positiveINS0_12digit_parserEEEEEEEEENS0_7scannerIPKcNS0_16scanner_policiesINS0_28skip_parser_iteration_policyINS0_12space_parserENS0_16iteration_policyEEENS0_16ast_match_policyISG_NS0_21node_val_data_factoryINS0_5nil_tEEESO_EENS0_13action_policyEEEEESO_ED2Ev@Base 0.47.2
 _ZN5boost6spirit4impl15concrete_parserINS0_16leaf_node_parserINS0_10contiguousINS0_8sequenceINS0_8optionalINS0_5chlitIcEEEENS0_8positiveINS0_12digit_parserEEEEEEEEENS0_7scannerIPKcNS0_16scanner_policiesINS0_28skip_parser_iteration_policyINS0_12space_parserENS0_16iteration_policyEEENS0_16ast_match_policyISI_NS0_21node_val_data_factoryINS0_5nil_tEEESQ_EENS0_13action_policyEEEEESQ_ED0Ev@Base 0.47.2
 _ZN5boost6spirit4impl15concrete_parserINS0_16leaf_node_parserINS0_10contiguousINS0_8sequenceINS0_8optionalINS0_5chlitIcEEEENS0_8positiveINS0_12digit_parserEEEEEEEEENS0_7scannerIPKcNS0_16scanner_policiesINS0_28skip_parser_iteration_policyINS0_12space_parserENS0_16iteration_policyEEENS0_16ast_match_policyISI_NS0_21node_val_data_factoryINS0_5nil_tEEESQ_EENS0_13action_policyEEEEESQ_ED1Ev@Base 0.47.2
 _ZN5boost6spirit4impl15concrete_parserINS0_16leaf_node_parserINS0_10contiguousINS0_8sequenceINS0_8optionalINS0_5chlitIcEEEENS0_8positiveINS0_12digit_parserEEEEEEEEENS0_7scannerIPKcNS0_16scanner_policiesINS0_28skip_parser_iteration_policyINS0_12space_parserENS0_16iteration_policyEEENS0_16ast_match_policyISI_NS0_21node_val_data_factoryINS0_5nil_tEEESQ_EENS0_13action_policyEEEEESQ_ED2Ev@Base 0.47.2
 _ZN5boost6spirit4impl15concrete_parserINS0_6strlitIPKcEENS0_7scannerIS5_NS0_16scanner_policiesINS0_28skip_parser_iteration_policyINS0_12space_parserENS0_16iteration_policyEEENS0_16ast_match_policyIS5_NS0_21node_val_data_factoryINS0_5nil_tEEESF_EENS0_13action_policyEEEEESF_ED0Ev@Base 0.47.2
 _ZN5boost6spirit4impl15concrete_parserINS0_6strlitIPKcEENS0_7scannerIS5_NS0_16scanner_policiesINS0_28skip_parser_iteration_policyINS0_12space_parserENS0_16iteration_policyEEENS0_16ast_match_policyIS5_NS0_21node_val_data_factoryINS0_5nil_tEEESF_EENS0_13action_policyEEEEESF_ED1Ev@Base 0.47.2
 _ZN5boost6spirit4impl15concrete_parserINS0_6strlitIPKcEENS0_7scannerIS5_NS0_16scanner_policiesINS0_28skip_parser_iteration_policyINS0_12space_parserENS0_16iteration_policyEEENS0_16ast_match_policyIS5_NS0_21node_val_data_factoryINS0_5nil_tEEESF_EENS0_13action_policyEEEEESF_ED2Ev@Base 0.47.2
 _ZN5boost6spirit4impl15concrete_parserINS0_8sequenceINS0_11kleene_starINS0_11alternativeINS5_INS0_4ruleINS0_7scannerIPKcNS0_16scanner_policiesINS0_28skip_parser_iteration_policyINS0_12space_parserENS0_16iteration_policyEEENS0_16ast_match_policyIS9_NS0_21node_val_data_factoryINS0_5nil_tEEESH_EENS0_13action_policyEEEEENS0_14parser_contextISH_EENS0_10parser_tagILi19EEEEENS6_ISM_SO_NSP_ILi5EEEEEEENS6_ISM_SO_NSP_ILi6EEEEEEEEENS4_INS5_INS6_ISM_SO_NSP_ILi11EEEEENS6_ISM_SO_NSP_ILi17EEEEEEEEEEESM_SH_ED0Ev@Base 0.58
 _ZN5boost6spirit4impl15concrete_parserINS0_8sequenceINS0_11kleene_starINS0_11alternativeINS5_INS0_4ruleINS0_7scannerIPKcNS0_16scanner_policiesINS0_28skip_parser_iteration_policyINS0_12space_parserENS0_16iteration_policyEEENS0_16ast_match_policyIS9_NS0_21node_val_data_factoryINS0_5nil_tEEESH_EENS0_13action_policyEEEEENS0_14parser_contextISH_EENS0_10parser_tagILi19EEEEENS6_ISM_SO_NSP_ILi5EEEEEEENS6_ISM_SO_NSP_ILi6EEEEEEEEENS4_INS5_INS6_ISM_SO_NSP_ILi11EEEEENS6_ISM_SO_NSP_ILi17EEEEEEEEEEESM_SH_ED1Ev@Base 0.58
 _ZN5boost6spirit4impl15concrete_parserINS0_8sequenceINS0_11kleene_starINS0_11alternativeINS5_INS0_4ruleINS0_7scannerIPKcNS0_16scanner_policiesINS0_28skip_parser_iteration_policyINS0_12space_parserENS0_16iteration_policyEEENS0_16ast_match_policyIS9_NS0_21node_val_data_factoryINS0_5nil_tEEESH_EENS0_13action_policyEEEEENS0_14parser_contextISH_EENS0_10parser_tagILi19EEEEENS6_ISM_SO_NSP_ILi5EEEEEEENS6_ISM_SO_NSP_ILi6EEEEEEEEENS4_INS5_INS6_ISM_SO_NSP_ILi11EEEEENS6_ISM_SO_NSP_ILi17EEEEEEEEEEESM_SH_ED2Ev@Base 0.58
 _ZN5boost6spirit4impl15concrete_parserINS0_8sequenceINS0_6strlitIPKcEENS0_11alternativeINS0_4ruleINS0_7scannerIS6_NS0_16scanner_policiesINS0_28skip_parser_iteration_policyINS0_12space_parserENS0_16iteration_policyEEENS0_16ast_match_policyIS6_NS0_21node_val_data_factoryINS0_5nil_tEEESI_EENS0_13action_policyEEEEENS0_14parser_contextISI_EENS0_10parser_tagILi1EEEEES7_EEEESN_SI_ED0Ev@Base 0.47.2
 _ZN5boost6spirit4impl15concrete_parserINS0_8sequenceINS0_6strlitIPKcEENS0_11alternativeINS0_4ruleINS0_7scannerIS6_NS0_16scanner_policiesINS0_28skip_parser_iteration_policyINS0_12space_parserENS0_16iteration_policyEEENS0_16ast_match_policyIS6_NS0_21node_val_data_factoryINS0_5nil_tEEESI_EENS0_13action_policyEEEEENS0_14parser_contextISI_EENS0_10parser_tagILi1EEEEES7_EEEESN_SI_ED1Ev@Base 0.47.2
 _ZN5boost6spirit4impl15concrete_parserINS0_8sequenceINS0_6strlitIPKcEENS0_11alternativeINS0_4ruleINS0_7scannerIS6_NS0_16scanner_policiesINS0_28skip_parser_iteration_policyINS0_12space_parserENS0_16iteration_policyEEENS0_16ast_match_policyIS6_NS0_21node_val_data_factoryINS0_5nil_tEEESI_EENS0_13action_policyEEEEENS0_14parser_contextISI_EENS0_10parser_tagILi1EEEEES7_EEEESN_SI_ED2Ev@Base 0.47.2
 _ZN5boost6spirit4impl15concrete_parserINS0_8sequenceINS0_6strlitIPKcEENS0_11alternativeINS8_INS8_INS0_4ruleINS0_7scannerIS6_NS0_16scanner_policiesINS0_28skip_parser_iteration_policyINS0_12space_parserENS0_16iteration_policyEEENS0_16ast_match_policyIS6_NS0_21node_val_data_factoryINS0_5nil_tEEESI_EENS0_13action_policyEEEEENS0_14parser_contextISI_EENS0_10parser_tagILi12EEEEENS9_ISN_SP_NSQ_ILi13EEEEEEENS9_ISN_SP_NSQ_ILi14EEEEEEENS9_ISN_SP_NSQ_ILi15EEEEEEEEESN_SI_ED0Ev@Base 0.47.2
 _ZN5boost6spirit4impl15concrete_parserINS0_8sequenceINS0_6strlitIPKcEENS0_11alternativeINS8_INS8_INS0_4ruleINS0_7scannerIS6_NS0_16scanner_policiesINS0_28skip_parser_iteration_policyINS0_12space_parserENS0_16iteration_policyEEENS0_16ast_match_policyIS6_NS0_21node_val_data_factoryINS0_5nil_tEEESI_EENS0_13action_policyEEEEENS0_14parser_contextISI_EENS0_10parser_tagILi12EEEEENS9_ISN_SP_NSQ_ILi13EEEEEEENS9_ISN_SP_NSQ_ILi14EEEEEEENS9_ISN_SP_NSQ_ILi15EEEEEEEEESN_SI_ED1Ev@Base 0.47.2
 _ZN5boost6spirit4impl15concrete_parserINS0_8sequenceINS0_6strlitIPKcEENS0_11alternativeINS8_INS8_INS0_4ruleINS0_7scannerIS6_NS0_16scanner_policiesINS0_28skip_parser_iteration_policyINS0_12space_parserENS0_16iteration_policyEEENS0_16ast_match_policyIS6_NS0_21node_val_data_factoryINS0_5nil_tEEESI_EENS0_13action_policyEEEEENS0_14parser_contextISI_EENS0_10parser_tagILi12EEEEENS9_ISN_SP_NSQ_ILi13EEEEEEENS9_ISN_SP_NSQ_ILi14EEEEEEENS9_ISN_SP_NSQ_ILi15EEEEEEEEESN_SI_ED2Ev@Base 0.47.2
 _ZN5boost6spirit4impl15concrete_parserINS0_8sequenceINS0_6strlitIPKcEENS0_11alternativeINS8_INS8_IS7_S7_EES7_EES7_EEEENS0_7scannerIS6_NS0_16scanner_policiesINS0_28skip_parser_iteration_policyINS0_12space_parserENS0_16iteration_policyEEENS0_16ast_match_policyIS6_NS0_21node_val_data_factoryINS0_5nil_tEEESL_EENS0_13action_policyEEEEESL_ED0Ev@Base 0.47.2
 _ZN5boost6spirit4impl15concrete_parserINS0_8sequenceINS0_6strlitIPKcEENS0_11alternativeINS8_INS8_IS7_S7_EES7_EES7_EEEENS0_7scannerIS6_NS0_16scanner_policiesINS0_28skip_parser_iteration_policyINS0_12space_parserENS0_16iteration_policyEEENS0_16ast_match_policyIS6_NS0_21node_val_data_factoryINS0_5nil_tEEESL_EENS0_13action_policyEEEEESL_ED1Ev@Base 0.47.2
 _ZN5boost6spirit4impl15concrete_parserINS0_8sequenceINS0_6strlitIPKcEENS0_11alternativeINS8_INS8_IS7_S7_EES7_EES7_EEEENS0_7scannerIS6_NS0_16scanner_policiesINS0_28skip_parser_iteration_policyINS0_12space_parserENS0_16iteration_policyEEENS0_16ast_match_policyIS6_NS0_21node_val_data_factoryINS0_5nil_tEEESL_EENS0_13action_policyEEEEESL_ED2Ev@Base 0.47.2
 _ZN5boost6spirit4impl15concrete_parserINS0_8sequenceINS0_6strlitIPKcEENS0_4ruleINS0_7scannerIS6_NS0_16scanner_policiesINS0_28skip_parser_iteration_policyINS0_12space_parserENS0_16iteration_policyEEENS0_16ast_match_policyIS6_NS0_21node_val_data_factoryINS0_5nil_tEEESH_EENS0_13action_policyEEEEENS0_14parser_contextISH_EENS0_10parser_tagILi3EEEEEEESM_SH_ED0Ev@Base 0.47.2
 _ZN5boost6spirit4impl15concrete_parserINS0_8sequenceINS0_6strlitIPKcEENS0_4ruleINS0_7scannerIS6_NS0_16scanner_policiesINS0_28skip_parser_iteration_policyINS0_12space_parserENS0_16iteration_policyEEENS0_16ast_match_policyIS6_NS0_21node_val_data_factoryINS0_5nil_tEEESH_EENS0_13action_policyEEEEENS0_14parser_contextISH_EENS0_10parser_tagILi3EEEEEEESM_SH_ED1Ev@Base 0.47.2
 _ZN5boost6spirit4impl15concrete_parserINS0_8sequenceINS0_6strlitIPKcEENS0_4ruleINS0_7scannerIS6_NS0_16scanner_policiesINS0_28skip_parser_iteration_policyINS0_12space_parserENS0_16iteration_policyEEENS0_16ast_match_policyIS6_NS0_21node_val_data_factoryINS0_5nil_tEEESH_EENS0_13action_policyEEEEENS0_14parser_contextISH_EENS0_10parser_tagILi3EEEEEEESM_SH_ED2Ev@Base 0.47.2
 _ZN5boost6spirit4impl15concrete_parserINS0_8sequenceINS0_6strlitIPKcEENS0_4ruleINS0_7scannerIS6_NS0_16scanner_policiesINS0_28skip_parser_iteration_policyINS0_12space_parserENS0_16iteration_policyEEENS0_16ast_match_policyIS6_NS0_21node_val_data_factoryINS0_5nil_tEEESH_EENS0_13action_policyEEEEENS0_14parser_contextISH_EENS0_10parser_tagILi4EEEEEEESM_SH_ED0Ev@Base 0.47.2
 _ZN5boost6spirit4impl15concrete_parserINS0_8sequenceINS0_6strlitIPKcEENS0_4ruleINS0_7scannerIS6_NS0_16scanner_policiesINS0_28skip_parser_iteration_policyINS0_12space_parserENS0_16iteration_policyEEENS0_16ast_match_policyIS6_NS0_21node_val_data_factoryINS0_5nil_tEEESH_EENS0_13action_policyEEEEENS0_14parser_contextISH_EENS0_10parser_tagILi4EEEEEEESM_SH_ED1Ev@Base 0.47.2
 _ZN5boost6spirit4impl15concrete_parserINS0_8sequenceINS0_6strlitIPKcEENS0_4ruleINS0_7scannerIS6_NS0_16scanner_policiesINS0_28skip_parser_iteration_policyINS0_12space_parserENS0_16iteration_policyEEENS0_16ast_match_policyIS6_NS0_21node_val_data_factoryINS0_5nil_tEEESH_EENS0_13action_policyEEEEENS0_14parser_contextISH_EENS0_10parser_tagILi4EEEEEEESM_SH_ED2Ev@Base 0.47.2
 _ZN5boost6spirit4impl15concrete_parserINS0_8sequenceINS3_INS0_6strlitIPKcEENS0_4ruleINS0_7scannerIS6_NS0_16scanner_policiesINS0_28skip_parser_iteration_policyINS0_12space_parserENS0_16iteration_policyEEENS0_16ast_match_policyIS6_NS0_21node_val_data_factoryINS0_5nil_tEEESH_EENS0_13action_policyEEEEENS0_14parser_contextISH_EENS0_10parser_tagILi2EEEEEEENS8_ISM_SO_NSP_ILi4EEEEEEESM_SH_ED0Ev@Base 0.47.2
 _ZN5boost6spirit4impl15concrete_parserINS0_8sequenceINS3_INS0_6strlitIPKcEENS0_4ruleINS0_7scannerIS6_NS0_16scanner_policiesINS0_28skip_parser_iteration_policyINS0_12space_parserENS0_16iteration_policyEEENS0_16ast_match_policyIS6_NS0_21node_val_data_factoryINS0_5nil_tEEESH_EENS0_13action_policyEEEEENS0_14parser_contextISH_EENS0_10parser_tagILi2EEEEEEENS8_ISM_SO_NSP_ILi4EEEEEEESM_SH_ED1Ev@Base 0.47.2
 _ZN5boost6spirit4impl15concrete_parserINS0_8sequenceINS3_INS0_6strlitIPKcEENS0_4ruleINS0_7scannerIS6_NS0_16scanner_policiesINS0_28skip_parser_iteration_policyINS0_12space_parserENS0_16iteration_policyEEENS0_16ast_match_policyIS6_NS0_21node_val_data_factoryINS0_5nil_tEEESH_EENS0_13action_policyEEEEENS0_14parser_contextISH_EENS0_10parser_tagILi2EEEEEEENS8_ISM_SO_NSP_ILi4EEEEEEESM_SH_ED2Ev@Base 0.47.2
 _ZN5boost6spirit4impl15concrete_parserINS0_8sequenceINS3_INS0_6strlitIPKcEENS0_4ruleINS0_7scannerIS6_NS0_16scanner_policiesINS0_28skip_parser_iteration_policyINS0_12space_parserENS0_16iteration_policyEEENS0_16ast_match_policyIS6_NS0_21node_val_data_factoryINS0_5nil_tEEESH_EENS0_13action_policyEEEEENS0_14parser_contextISH_EENS0_10parser_tagILi4EEEEEEENS8_ISM_SO_NSP_ILi2EEEEEEESM_SH_ED0Ev@Base 0.48
 _ZN5boost6spirit4impl15concrete_parserINS0_8sequenceINS3_INS0_6strlitIPKcEENS0_4ruleINS0_7scannerIS6_NS0_16scanner_policiesINS0_28skip_parser_iteration_policyINS0_12space_parserENS0_16iteration_policyEEENS0_16ast_match_policyIS6_NS0_21node_val_data_factoryINS0_5nil_tEEESH_EENS0_13action_policyEEEEENS0_14parser_contextISH_EENS0_10parser_tagILi4EEEEEEENS8_ISM_SO_NSP_ILi2EEEEEEESM_SH_ED1Ev@Base 0.48
 _ZN5boost6spirit4impl15concrete_parserINS0_8sequenceINS3_INS0_6strlitIPKcEENS0_4ruleINS0_7scannerIS6_NS0_16scanner_policiesINS0_28skip_parser_iteration_policyINS0_12space_parserENS0_16iteration_policyEEENS0_16ast_match_policyIS6_NS0_21node_val_data_factoryINS0_5nil_tEEESH_EENS0_13action_policyEEEEENS0_14parser_contextISH_EENS0_10parser_tagILi4EEEEEEENS8_ISM_SO_NSP_ILi2EEEEEEESM_SH_ED2Ev@Base 0.48
 _ZN5boost6spirit4impl15concrete_parserINS0_8sequenceINS3_INS3_INS0_6strlitIPKcEENS0_4ruleINS0_7scannerIS6_NS0_16scanner_policiesINS0_28skip_parser_iteration_policyINS0_12space_parserENS0_16iteration_policyEEENS0_16ast_match_policyIS6_NS0_21node_val_data_factoryINS0_5nil_tEEESH_EENS0_13action_policyEEEEENS0_14parser_contextISH_EENS0_10parser_tagILi4EEEEEEENS0_8optionalINS3_IS7_NS0_11real_parserIdNS0_20real_parser_policiesIdEEEEEEEEEENST_INS3_IS7_NS8_ISM_SO_NSP_ILi2EEEEEEEEEEESM_SH_ED0Ev@Base 0.47.2
 _ZN5boost6spirit4impl15concrete_parserINS0_8sequenceINS3_INS3_INS0_6strlitIPKcEENS0_4ruleINS0_7scannerIS6_NS0_16scanner_policiesINS0_28skip_parser_iteration_policyINS0_12space_parserENS0_16iteration_policyEEENS0_16ast_match_policyIS6_NS0_21node_val_data_factoryINS0_5nil_tEEESH_EENS0_13action_policyEEEEENS0_14parser_contextISH_EENS0_10parser_tagILi4EEEEEEENS0_8optionalINS3_IS7_NS0_11real_parserIdNS0_20real_parser_policiesIdEEEEEEEEEENST_INS3_IS7_NS8_ISM_SO_NSP_ILi2EEEEEEEEEEESM_SH_ED1Ev@Base 0.47.2
 _ZN5boost6spirit4impl15concrete_parserINS0_8sequenceINS3_INS3_INS0_6strlitIPKcEENS0_4ruleINS0_7scannerIS6_NS0_16scanner_policiesINS0_28skip_parser_iteration_policyINS0_12space_parserENS0_16iteration_policyEEENS0_16ast_match_policyIS6_NS0_21node_val_data_factoryINS0_5nil_tEEESH_EENS0_13action_policyEEEEENS0_14parser_contextISH_EENS0_10parser_tagILi4EEEEEEENS0_8optionalINS3_IS7_NS0_11real_parserIdNS0_20real_parser_policiesIdEEEEEEEEEENST_INS3_IS7_NS8_ISM_SO_NSP_ILi2EEEEEEEEEEESM_SH_ED2Ev@Base 0.47.2
 _ZN5boost6spirit4impl15concrete_parserINS0_8sequenceINS3_INS3_INS3_INS0_6strlitIPKcEENS0_11alternativeIS7_S7_EEEENS0_4ruleINS0_7scannerIS6_NS0_16scanner_policiesINS0_28skip_parser_iteration_policyINS0_12space_parserENS0_16iteration_policyEEENS0_16ast_match_policyIS6_NS0_21node_val_data_factoryINS0_5nil_tEEESK_EENS0_13action_policyEEEEENS0_14parser_contextISK_EENS0_10parser_tagILi1EEEEEEES7_EENSB_ISP_SR_NSS_ILi4EEEEEEESP_SK_ED0Ev@Base 0.47.2
 _ZN5boost6spirit4impl15concrete_parserINS0_8sequenceINS3_INS3_INS3_INS0_6strlitIPKcEENS0_11alternativeIS7_S7_EEEENS0_4ruleINS0_7scannerIS6_NS0_16scanner_policiesINS0_28skip_parser_iteration_policyINS0_12space_parserENS0_16iteration_policyEEENS0_16ast_match_policyIS6_NS0_21node_val_data_factoryINS0_5nil_tEEESK_EENS0_13action_policyEEEEENS0_14parser_contextISK_EENS0_10parser_tagILi1EEEEEEES7_EENSB_ISP_SR_NSS_ILi4EEEEEEESP_SK_ED1Ev@Base 0.47.2
 _ZN5boost6spirit4impl15concrete_parserINS0_8sequenceINS3_INS3_INS3_INS0_6strlitIPKcEENS0_11alternativeIS7_S7_EEEENS0_4ruleINS0_7scannerIS6_NS0_16scanner_policiesINS0_28skip_parser_iteration_policyINS0_12space_parserENS0_16iteration_policyEEENS0_16ast_match_policyIS6_NS0_21node_val_data_factoryINS0_5nil_tEEESK_EENS0_13action_policyEEEEENS0_14parser_contextISK_EENS0_10parser_tagILi1EEEEEEES7_EENSB_ISP_SR_NSS_ILi4EEEEEEESP_SK_ED2Ev@Base 0.47.2
 _ZN5boost6spirit4impl15concrete_parserINS0_8sequenceINS3_INS3_INS3_INS3_INS3_INS3_INS0_4ruleINS0_7scannerIPKcNS0_16scanner_policiesINS0_28skip_parser_iteration_policyINS0_12space_parserENS0_16iteration_policyEEENS0_16ast_match_policyIS7_NS0_21node_val_data_factoryINS0_5nil_tEEESF_EENS0_13action_policyEEEEENS0_14parser_contextISF_EENS0_10parser_tagILi4EEEEESP_EENS0_5chlitIcEEEENS0_8optionalINS4_ISK_SM_NSN_ILi7EEEEEEEEENS4_ISK_SM_NSN_ILi8EEEEEEENS0_11kleene_starINS4_ISK_SM_NSN_ILi9EEEEEEEEENS12_INS4_ISK_SM_NSN_ILi10EEEEEEEEESS_EESK_SF_ED0Ev@Base 0.47.2
 _ZN5boost6spirit4impl15concrete_parserINS0_8sequenceINS3_INS3_INS3_INS3_INS3_INS3_INS0_4ruleINS0_7scannerIPKcNS0_16scanner_policiesINS0_28skip_parser_iteration_policyINS0_12space_parserENS0_16iteration_policyEEENS0_16ast_match_policyIS7_NS0_21node_val_data_factoryINS0_5nil_tEEESF_EENS0_13action_policyEEEEENS0_14parser_contextISF_EENS0_10parser_tagILi4EEEEESP_EENS0_5chlitIcEEEENS0_8optionalINS4_ISK_SM_NSN_ILi7EEEEEEEEENS4_ISK_SM_NSN_ILi8EEEEEEENS0_11kleene_starINS4_ISK_SM_NSN_ILi9EEEEEEEEENS12_INS4_ISK_SM_NSN_ILi10EEEEEEEEESS_EESK_SF_ED1Ev@Base 0.47.2
 _ZN5boost6spirit4impl15concrete_parserINS0_8sequenceINS3_INS3_INS3_INS3_INS3_INS3_INS0_4ruleINS0_7scannerIPKcNS0_16scanner_policiesINS0_28skip_parser_iteration_policyINS0_12space_parserENS0_16iteration_policyEEENS0_16ast_match_policyIS7_NS0_21node_val_data_factoryINS0_5nil_tEEESF_EENS0_13action_policyEEEEENS0_14parser_contextISF_EENS0_10parser_tagILi4EEEEESP_EENS0_5chlitIcEEEENS0_8optionalINS4_ISK_SM_NSN_ILi7EEEEEEEEENS4_ISK_SM_NSN_ILi8EEEEEEENS0_11kleene_starINS4_ISK_SM_NSN_ILi9EEEEEEEEENS12_INS4_ISK_SM_NSN_ILi10EEEEEEEEESS_EESK_SF_ED2Ev@Base 0.47.2
 _ZN5boost6spirit4impl15concrete_parserINS0_8sequenceINS3_INS3_INS3_INS3_INS3_INS3_INS3_INS3_INS3_INS3_INS3_INS0_6strlitIPKcEENS0_8optionalINS0_4ruleINS0_7scannerIS6_NS0_16scanner_policiesINS0_28skip_parser_iteration_policyINS0_12space_parserENS0_16iteration_policyEEENS0_16ast_match_policyIS6_NS0_21node_val_data_factoryINS0_5nil_tEEESI_EENS0_13action_policyEEEEENS0_14parser_contextISI_EENS0_10parser_tagILi4EEEEEEEEENS0_5chlitIcEEEES7_EENS9_ISN_SP_NSQ_ILi2EEEEEEES7_EENS0_11alternativeIS7_S7_EEEES7_EES10_EES7_EES10_EENS0_8positiveINS9_ISN_SP_NSQ_ILi16EEEEEEEEESW_EESN_SI_ED0Ev@Base 0.47.2
 _ZN5boost6spirit4impl15concrete_parserINS0_8sequenceINS3_INS3_INS3_INS3_INS3_INS3_INS3_INS3_INS3_INS3_INS3_INS0_6strlitIPKcEENS0_8optionalINS0_4ruleINS0_7scannerIS6_NS0_16scanner_policiesINS0_28skip_parser_iteration_policyINS0_12space_parserENS0_16iteration_policyEEENS0_16ast_match_policyIS6_NS0_21node_val_data_factoryINS0_5nil_tEEESI_EENS0_13action_policyEEEEENS0_14parser_contextISI_EENS0_10parser_tagILi4EEEEEEEEENS0_5chlitIcEEEES7_EENS9_ISN_SP_NSQ_ILi2EEEEEEES7_EENS0_11alternativeIS7_S7_EEEES7_EES10_EES7_EES10_EENS0_8positiveINS9_ISN_SP_NSQ_ILi16EEEEEEEEESW_EESN_SI_ED1Ev@Base 0.47.2
 _ZN5boost6spirit4impl15concrete_parserINS0_8sequenceINS3_INS3_INS3_INS3_INS3_INS3_INS3_INS3_INS3_INS3_INS3_INS0_6strlitIPKcEENS0_8optionalINS0_4ruleINS0_7scannerIS6_NS0_16scanner_policiesINS0_28skip_parser_iteration_policyINS0_12space_parserENS0_16iteration_policyEEENS0_16ast_match_policyIS6_NS0_21node_val_data_factoryINS0_5nil_tEEESI_EENS0_13action_policyEEEEENS0_14parser_contextISI_EENS0_10parser_tagILi4EEEEEEEEENS0_5chlitIcEEEES7_EENS9_ISN_SP_NSQ_ILi2EEEEEEES7_EENS0_11alternativeIS7_S7_EEEES7_EES10_EES7_EES10_EENS0_8positiveINS9_ISN_SP_NSQ_ILi16EEEEEEEEESW_EESN_SI_ED2Ev@Base 0.47.2
 _ZN5boost6spirit4impl16grammar_destructINS0_7grammarI13crush_grammarNS0_14parser_contextINS0_5nil_tEEEEEEEvPT_@Base 0.48
 _ZN5boost6spirit4impl19grammar_helper_baseINS0_7grammarI13crush_grammarNS0_14parser_contextINS0_5nil_tEEEEEED0Ev@Base 0.47.2
 _ZN5boost6spirit4impl19grammar_helper_baseINS0_7grammarI13crush_grammarNS0_14parser_contextINS0_5nil_tEEEEEED1Ev@Base 0.47.2
 _ZN5boost6spirit4impl19grammar_helper_baseINS0_7grammarI13crush_grammarNS0_14parser_contextINS0_5nil_tEEEEEED2Ev@Base 0.47.2
 _ZN5boost6spirit4impl19grammar_helper_listINS0_7grammarI13crush_grammarNS0_14parser_contextINS0_5nil_tEEEEEED1Ev@Base 0.47.2
 _ZN5boost6spirit4impl19grammar_helper_listINS0_7grammarI13crush_grammarNS0_14parser_contextINS0_5nil_tEEEEEED2Ev@Base 0.47.2
 _ZN5boost6spirit4impl19object_with_id_baseINS1_11grammar_tagEmE17acquire_object_idEv@Base 0.47.2
 _ZN5boost6spirit4impl19object_with_id_baseINS1_11grammar_tagEmED1Ev@Base 0.47.2
 _ZN5boost6spirit4impl19object_with_id_baseINS1_11grammar_tagEmED2Ev@Base 0.47.2
 _ZN5boost6spirit4impl19string_parser_parseINS0_10tree_matchIPKcNS0_21node_val_data_factoryINS0_5nil_tEEES7_EES5_KNS0_7scannerIS5_NS0_16scanner_policiesINS0_27no_skipper_iteration_policyINS0_28skip_parser_iteration_policyINS0_12space_parserENS0_16iteration_policyEEEEENS0_16ast_match_policyIS5_S8_S7_EENS0_13action_policyEEEEEEET_T0_SP_RT1_@Base 0.48
 _ZN5boost6spirit4impl26object_with_id_base_supplyImE7acquireEv@Base 0.48
 _ZN5boost6spirit4ruleINS0_7scannerIPKcNS0_16scanner_policiesINS0_28skip_parser_iteration_policyINS0_12space_parserENS0_16iteration_policyEEENS0_16ast_match_policyIS4_NS0_21node_val_data_factoryINS0_5nil_tEEESC_EENS0_13action_policyEEEEENS0_14parser_contextISC_EENS0_10parser_tagILi10EEEEaSINS0_8sequenceINSO_INSO_INS0_6strlitIS4_EENS1_ISH_SJ_NSK_ILi4EEEEEEENS0_8optionalINSO_ISQ_NS0_11real_parserIdNS0_20real_parser_policiesIdEEEEEEEEEENSU_INSO_ISQ_NS1_ISH_SJ_NSK_ILi2EEEEEEEEEEEEERSM_RKT_@Base 0.47.2
 _ZN5boost6spirit4ruleINS0_7scannerIPKcNS0_16scanner_policiesINS0_28skip_parser_iteration_policyINS0_12space_parserENS0_16iteration_policyEEENS0_16ast_match_policyIS4_NS0_21node_val_data_factoryINS0_5nil_tEEESC_EENS0_13action_policyEEEEENS0_14parser_contextISC_EENS0_10parser_tagILi11EEEEaSINS0_8sequenceINSO_INSO_INSO_INSO_INSO_INSO_INS1_ISH_SJ_NSK_ILi4EEEEESQ_EENS0_5chlitIcEEEENS0_8optionalINS1_ISH_SJ_NSK_ILi7EEEEEEEEENS1_ISH_SJ_NSK_ILi8EEEEEEENS0_11kleene_starINS1_ISH_SJ_NSK_ILi9EEEEEEEEENS13_INS1_ISH_SJ_NSK_ILi10EEEEEEEEEST_EEEERSM_RKT_@Base 0.47.2
 _ZN5boost6spirit4ruleINS0_7scannerIPKcNS0_16scanner_policiesINS0_28skip_parser_iteration_policyINS0_12space_parserENS0_16iteration_policyEEENS0_16ast_match_policyIS4_NS0_21node_val_data_factoryINS0_5nil_tEEESC_EENS0_13action_policyEEEEENS0_14parser_contextISC_EENS0_10parser_tagILi12EEEEaSINS0_8sequenceINS0_6strlitIS4_EENS1_ISH_SJ_NSK_ILi4EEEEEEEEERSM_RKT_@Base 0.47.2
 _ZN5boost6spirit4ruleINS0_7scannerIPKcNS0_16scanner_policiesINS0_28skip_parser_iteration_policyINS0_12space_parserENS0_16iteration_policyEEENS0_16ast_match_policyIS4_NS0_21node_val_data_factoryINS0_5nil_tEEESC_EENS0_13action_policyEEEEENS0_14parser_contextISC_EENS0_10parser_tagILi13EEEEaSINS0_8sequenceINSO_INSO_INSO_INS0_6strlitIS4_EENS0_11alternativeISQ_SQ_EEEENS1_ISH_SJ_NSK_ILi1EEEEEEESQ_EENS1_ISH_SJ_NSK_ILi4EEEEEEEEERSM_RKT_@Base 0.47.2
 _ZN5boost6spirit4ruleINS0_7scannerIPKcNS0_16scanner_policiesINS0_28skip_parser_iteration_policyINS0_12space_parserENS0_16iteration_policyEEENS0_16ast_match_policyIS4_NS0_21node_val_data_factoryINS0_5nil_tEEESC_EENS0_13action_policyEEEEENS0_14parser_contextISC_EENS0_10parser_tagILi14EEEEaSINS0_8sequenceINSO_INSO_INSO_INS0_6strlitIS4_EENS0_11alternativeISQ_SQ_EEEENS1_ISH_SJ_NSK_ILi1EEEEEEESQ_EENS1_ISH_SJ_NSK_ILi4EEEEEEEEERSM_RKT_@Base 0.47.2
 _ZN5boost6spirit4ruleINS0_7scannerIPKcNS0_16scanner_policiesINS0_28skip_parser_iteration_policyINS0_12space_parserENS0_16iteration_policyEEENS0_16ast_match_policyIS4_NS0_21node_val_data_factoryINS0_5nil_tEEESC_EENS0_13action_policyEEEEENS0_14parser_contextISC_EENS0_10parser_tagILi15EEEEaSINS0_6strlitIS4_EEEERSM_RKT_@Base 0.47.2
 _ZN5boost6spirit4ruleINS0_7scannerIPKcNS0_16scanner_policiesINS0_28skip_parser_iteration_policyINS0_12space_parserENS0_16iteration_policyEEENS0_16ast_match_policyIS4_NS0_21node_val_data_factoryINS0_5nil_tEEESC_EENS0_13action_policyEEEEENS0_14parser_contextISC_EENS0_10parser_tagILi16EEEEaSINS0_8sequenceINS0_6strlitIS4_EENS0_11alternativeINSR_INSR_INS1_ISH_SJ_NSK_ILi12EEEEENS1_ISH_SJ_NSK_ILi13EEEEEEENS1_ISH_SJ_NSK_ILi14EEEEEEENS1_ISH_SJ_NSK_ILi15EEEEEEEEEEERSM_RKT_@Base 0.47.2
 _ZN5boost6spirit4ruleINS0_7scannerIPKcNS0_16scanner_policiesINS0_28skip_parser_iteration_policyINS0_12space_parserENS0_16iteration_policyEEENS0_16ast_match_policyIS4_NS0_21node_val_data_factoryINS0_5nil_tEEESC_EENS0_13action_policyEEEEENS0_14parser_contextISC_EENS0_10parser_tagILi17EEEEaSINS0_8sequenceINSO_INSO_INSO_INSO_INSO_INSO_INSO_INSO_INSO_INSO_INSO_INS0_6strlitIS4_EENS0_8optionalINS1_ISH_SJ_NSK_ILi4EEEEEEEEENS0_5chlitIcEEEESQ_EENS1_ISH_SJ_NSK_ILi2EEEEEEESQ_EENS0_11alternativeISQ_SQ_EEEESQ_EES11_EESQ_EES11_EENS0_8positiveINS1_ISH_SJ_NSK_ILi16EEEEEEEEESX_EEEERSM_RKT_@Base 0.47.2
 _ZN5boost6spirit4ruleINS0_7scannerIPKcNS0_16scanner_policiesINS0_28skip_parser_iteration_policyINS0_12space_parserENS0_16iteration_policyEEENS0_16ast_match_policyIS4_NS0_21node_val_data_factoryINS0_5nil_tEEESC_EENS0_13action_policyEEEEENS0_14parser_contextISC_EENS0_10parser_tagILi18EEEEaSINS0_8sequenceINS0_11kleene_starINS0_11alternativeINSQ_INS1_ISH_SJ_NSK_ILi19EEEEENS1_ISH_SJ_NSK_ILi5EEEEEEENS1_ISH_SJ_NSK_ILi6EEEEEEEEENSP_INSQ_INS1_ISH_SJ_NSK_ILi11EEEEENS1_ISH_SJ_NSK_ILi17EEEEEEEEEEEEERSM_RKT_@Base 0.58
 _ZN5boost6spirit4ruleINS0_7scannerIPKcNS0_16scanner_policiesINS0_28skip_parser_iteration_policyINS0_12space_parserENS0_16iteration_policyEEENS0_16ast_match_policyIS4_NS0_21node_val_data_factoryINS0_5nil_tEEESC_EENS0_13action_policyEEEEENS0_14parser_contextISC_EENS0_10parser_tagILi19EEEEaSINS0_8sequenceINSO_INS0_6strlitIS4_EENS1_ISH_SJ_NSK_ILi4EEEEEEENS1_ISH_SJ_NSK_ILi2EEEEEEEEERSM_RKT_@Base 0.48
 _ZN5boost6spirit4ruleINS0_7scannerIPKcNS0_16scanner_policiesINS0_28skip_parser_iteration_policyINS0_12space_parserENS0_16iteration_policyEEENS0_16ast_match_policyIS4_NS0_21node_val_data_factoryINS0_5nil_tEEESC_EENS0_13action_policyEEEEENS0_14parser_contextISC_EENS0_10parser_tagILi5EEEEaSINS0_8sequenceINSO_INS0_6strlitIS4_EENS1_ISH_SJ_NSK_ILi2EEEEEEENS1_ISH_SJ_NSK_ILi4EEEEEEEEERSM_RKT_@Base 0.47.2
 _ZN5boost6spirit4ruleINS0_7scannerIPKcNS0_16scanner_policiesINS0_28skip_parser_iteration_policyINS0_12space_parserENS0_16iteration_policyEEENS0_16ast_match_policyIS4_NS0_21node_val_data_factoryINS0_5nil_tEEESC_EENS0_13action_policyEEEEENS0_14parser_contextISC_EENS0_10parser_tagILi6EEEEaSINS0_8sequenceINSO_INS0_6strlitIS4_EENS1_ISH_SJ_NSK_ILi2EEEEEEENS1_ISH_SJ_NSK_ILi4EEEEEEEEERSM_RKT_@Base 0.47.2
 _ZN5boost6spirit4ruleINS0_7scannerIPKcNS0_16scanner_policiesINS0_28skip_parser_iteration_policyINS0_12space_parserENS0_16iteration_policyEEENS0_16ast_match_policyIS4_NS0_21node_val_data_factoryINS0_5nil_tEEESC_EENS0_13action_policyEEEEENS0_14parser_contextISC_EENS0_10parser_tagILi7EEEEaSINS0_8sequenceINS0_6strlitIS4_EENS1_ISH_SJ_NSK_ILi3EEEEEEEEERSM_RKT_@Base 0.47.2
 _ZN5boost6spirit4ruleINS0_7scannerIPKcNS0_16scanner_policiesINS0_28skip_parser_iteration_policyINS0_12space_parserENS0_16iteration_policyEEENS0_16ast_match_policyIS4_NS0_21node_val_data_factoryINS0_5nil_tEEESC_EENS0_13action_policyEEEEENS0_14parser_contextISC_EENS0_10parser_tagILi8EEEEaSINS0_8sequenceINS0_6strlitIS4_EENS0_11alternativeINSR_INSR_ISQ_SQ_EESQ_EESQ_EEEEEERSM_RKT_@Base 0.47.2
 _ZN5boost6spirit4ruleINS0_7scannerIPKcNS0_16scanner_policiesINS0_28skip_parser_iteration_policyINS0_12space_parserENS0_16iteration_policyEEENS0_16ast_match_policyIS4_NS0_21node_val_data_factoryINS0_5nil_tEEESC_EENS0_13action_policyEEEEENS0_14parser_contextISC_EENS0_10parser_tagILi9EEEEaSINS0_8sequenceINS0_6strlitIS4_EENS0_11alternativeINS1_ISH_SJ_NSK_ILi1EEEEESQ_EEEEEERSM_RKT_@Base 0.47.2
 _ZN5boost6spirit5matchINS0_5nil_tEE6concatIS2_EEvRKNS1_IT_EE@Base 0.47.2
 _ZN5boost6spirit7classic10multi_passISt16istream_iteratorIccSt11char_traitsIcElENS1_19multi_pass_policies14input_iteratorENS7_11ref_countedENS7_12buf_id_checkENS7_9std_dequeEEC1ES6_@Base 0.47.2
 _ZN5boost6spirit7classic10multi_passISt16istream_iteratorIccSt11char_traitsIcElENS1_19multi_pass_policies14input_iteratorENS7_11ref_countedENS7_12buf_id_checkENS7_9std_dequeEEC1Ev@Base 0.47.2
 _ZN5boost6spirit7classic10multi_passISt16istream_iteratorIccSt11char_traitsIcElENS1_19multi_pass_policies14input_iteratorENS7_11ref_countedENS7_12buf_id_checkENS7_9std_dequeEEC2ES6_@Base 0.47.2
 _ZN5boost6spirit7classic10multi_passISt16istream_iteratorIccSt11char_traitsIcElENS1_19multi_pass_policies14input_iteratorENS7_11ref_countedENS7_12buf_id_checkENS7_9std_dequeEEC2Ev@Base 0.47.2
 _ZN5boost6spirit7classic10multi_passISt16istream_iteratorIccSt11char_traitsIcElENS1_19multi_pass_policies14input_iteratorENS7_11ref_countedENS7_12buf_id_checkENS7_9std_dequeEED1Ev@Base 0.47.2
 _ZN5boost6spirit7classic10multi_passISt16istream_iteratorIccSt11char_traitsIcElENS1_19multi_pass_policies14input_iteratorENS7_11ref_countedENS7_12buf_id_checkENS7_9std_dequeEED2Ev@Base 0.47.2
 _ZN5boost6spirit7classic10multi_passISt16istream_iteratorIccSt11char_traitsIcElENS1_19multi_pass_policies14input_iteratorENS7_11ref_countedENS7_12buf_id_checkENS7_9std_dequeEEaSERKSC_@Base 0.47.2
 _ZN5boost6spirit7classic10multi_passISt16istream_iteratorIccSt11char_traitsIcElENS1_19multi_pass_policies14input_iteratorENS7_11ref_countedENS7_12buf_id_checkENS7_9std_dequeEEppEv@Base 0.47.2
 _ZN5boost6spirit7classic10parse_infoINS1_17position_iteratorIN9__gnu_cxx17__normal_iteratorIPKcSsEENS1_18file_position_baseISsEENS1_5nil_tEEEED1Ev@Base 0.58
 _ZN5boost6spirit7classic10parse_infoINS1_17position_iteratorIN9__gnu_cxx17__normal_iteratorIPKcSsEENS1_18file_position_baseISsEENS1_5nil_tEEEED2Ev@Base 0.58
 _ZN5boost6spirit7classic11alternativeINS1_6actionINS1_11real_parserIdNS1_27strict_real_parser_policiesIdEEEENS_8functionIFvdEEEEENS3_INS1_10int_parserIlLi10ELj1ELin1EEENS8_IFvlEEEEEED1Ev@Base 0.47.2
 _ZN5boost6spirit7classic11alternativeINS1_6actionINS1_11real_parserIdNS1_27strict_real_parser_policiesIdEEEENS_8functionIFvdEEEEENS3_INS1_10int_parserIlLi10ELj1ELin1EEENS8_IFvlEEEEEED2Ev@Base 0.47.2
 _ZN5boost6spirit7classic11alternativeINS1_6actionINS1_4ruleINS1_7scannerIN9__gnu_cxx17__normal_iteratorIPKcSsEENS1_16scanner_policiesINS1_24skipper_iteration_policyINS1_16iteration_policyEEENS1_12match_policyENS1_13action_policyEEEEENS1_5nil_tESJ_EENS_8functionIFvSA_SA_EEEEESK_ED1Ev@Base 0.47.2
 _ZN5boost6spirit7classic11alternativeINS1_6actionINS1_4ruleINS1_7scannerIN9__gnu_cxx17__normal_iteratorIPKcSsEENS1_16scanner_policiesINS1_24skipper_iteration_policyINS1_16iteration_policyEEENS1_12match_policyENS1_13action_policyEEEEENS1_5nil_tESJ_EENS_8functionIFvSA_SA_EEEEESK_ED2Ev@Base 0.47.2
 _ZN5boost6spirit7classic11alternativeINS1_6actionINS1_4ruleINS1_7scannerINS1_10multi_passISt16istream_iteratorIccSt11char_traitsIcElENS1_19multi_pass_policies14input_iteratorENSB_11ref_countedENSB_12buf_id_checkENSB_9std_dequeEEENS1_16scanner_policiesINS1_24skipper_iteration_policyINS1_16iteration_policyEEENS1_12match_policyENS1_13action_policyEEEEENS1_5nil_tESP_EENS_8functionIFvSG_SG_EEEEESQ_ED1Ev@Base 0.47.2
 _ZN5boost6spirit7classic11alternativeINS1_6actionINS1_4ruleINS1_7scannerINS1_10multi_passISt16istream_iteratorIccSt11char_traitsIcElENS1_19multi_pass_policies14input_iteratorENSB_11ref_countedENSB_12buf_id_checkENSB_9std_dequeEEENS1_16scanner_policiesINS1_24skipper_iteration_policyINS1_16iteration_policyEEENS1_12match_policyENS1_13action_policyEEEEENS1_5nil_tESP_EENS_8functionIFvSG_SG_EEEEESQ_ED2Ev@Base 0.47.2
 _ZN5boost6spirit7classic11alternativeINS1_6actionINS1_4ruleINS1_7scannerINS1_17position_iteratorIN9__gnu_cxx17__normal_iteratorIPKcSsEENS1_18file_position_baseISsEENS1_5nil_tEEENS1_16scanner_policiesINS1_24skipper_iteration_policyINS1_16iteration_policyEEENS1_12match_policyENS1_13action_policyEEEEESE_SE_EENS_8functionIFvSF_SF_EEEEESO_ED1Ev@Base 0.47.2
 _ZN5boost6spirit7classic11alternativeINS1_6actionINS1_4ruleINS1_7scannerINS1_17position_iteratorIN9__gnu_cxx17__normal_iteratorIPKcSsEENS1_18file_position_baseISsEENS1_5nil_tEEENS1_16scanner_policiesINS1_24skipper_iteration_policyINS1_16iteration_policyEEENS1_12match_policyENS1_13action_policyEEEEESE_SE_EENS_8functionIFvSF_SF_EEEEESO_ED2Ev@Base 0.47.2
 _ZN5boost6spirit7classic11alternativeINS1_6actionINS1_4ruleINS1_7scannerINS1_17position_iteratorINS1_10multi_passISt16istream_iteratorIccSt11char_traitsIcElENS1_19multi_pass_policies14input_iteratorENSC_11ref_countedENSC_12buf_id_checkENSC_9std_dequeEEENS1_18file_position_baseISsEENS1_5nil_tEEENS1_16scanner_policiesINS1_24skipper_iteration_policyINS1_16iteration_policyEEENS1_12match_policyENS1_13action_policyEEEEESK_SK_EENS_8functionIFvSL_SL_EEEEESU_ED1Ev@Base 0.47.2
 _ZN5boost6spirit7classic11alternativeINS1_6actionINS1_4ruleINS1_7scannerINS1_17position_iteratorINS1_10multi_passISt16istream_iteratorIccSt11char_traitsIcElENS1_19multi_pass_policies14input_iteratorENSC_11ref_countedENSC_12buf_id_checkENSC_9std_dequeEEENS1_18file_position_baseISsEENS1_5nil_tEEENS1_16scanner_policiesINS1_24skipper_iteration_policyINS1_16iteration_policyEEENS1_12match_policyENS1_13action_policyEEEEESK_SK_EENS_8functionIFvSL_SL_EEEEESU_ED2Ev@Base 0.47.2
 _ZN5boost6spirit7classic11alternativeINS1_6actionINS1_5chlitIcEENS_8functionIFvcEEEEENS3_INS1_14epsilon_parserEPFvN9__gnu_cxx17__normal_iteratorIPKcSsEESF_EEEED1Ev@Base 0.47.2
 _ZN5boost6spirit7classic11alternativeINS1_6actionINS1_5chlitIcEENS_8functionIFvcEEEEENS3_INS1_14epsilon_parserEPFvN9__gnu_cxx17__normal_iteratorIPKcSsEESF_EEEED2Ev@Base 0.47.2
 _ZN5boost6spirit7classic11alternativeINS1_6actionINS1_5chlitIcEENS_8functionIFvcEEEEENS3_INS1_14epsilon_parserEPFvNS1_10multi_passISt16istream_iteratorIccSt11char_traitsIcElENS1_19multi_pass_policies14input_iteratorENSG_11ref_countedENSG_12buf_id_checkENSG_9std_dequeEEESL_EEEED1Ev@Base 0.47.2
 _ZN5boost6spirit7classic11alternativeINS1_6actionINS1_5chlitIcEENS_8functionIFvcEEEEENS3_INS1_14epsilon_parserEPFvNS1_10multi_passISt16istream_iteratorIccSt11char_traitsIcElENS1_19multi_pass_policies14input_iteratorENSG_11ref_countedENSG_12buf_id_checkENSG_9std_dequeEEESL_EEEED2Ev@Base 0.47.2
 _ZN5boost6spirit7classic11alternativeINS1_6actionINS1_5chlitIcEENS_8functionIFvcEEEEENS3_INS1_14epsilon_parserEPFvNS1_17position_iteratorIN9__gnu_cxx17__normal_iteratorIPKcSsEENS1_18file_position_baseISsEENS1_5nil_tEEESK_EEEED1Ev@Base 0.47.2
 _ZN5boost6spirit7classic11alternativeINS1_6actionINS1_5chlitIcEENS_8functionIFvcEEEEENS3_INS1_14epsilon_parserEPFvNS1_17position_iteratorIN9__gnu_cxx17__normal_iteratorIPKcSsEENS1_18file_position_baseISsEENS1_5nil_tEEESK_EEEED2Ev@Base 0.47.2
 _ZN5boost6spirit7classic11alternativeINS1_6actionINS1_5chlitIcEENS_8functionIFvcEEEEENS3_INS1_14epsilon_parserEPFvNS1_17position_iteratorINS1_10multi_passISt16istream_iteratorIccSt11char_traitsIcElENS1_19multi_pass_policies14input_iteratorENSH_11ref_countedENSH_12buf_id_checkENSH_9std_dequeEEENS1_18file_position_baseISsEENS1_5nil_tEEESQ_EEEED1Ev@Base 0.47.2
 _ZN5boost6spirit7classic11alternativeINS1_6actionINS1_5chlitIcEENS_8functionIFvcEEEEENS3_INS1_14epsilon_parserEPFvNS1_17position_iteratorINS1_10multi_passISt16istream_iteratorIccSt11char_traitsIcElENS1_19multi_pass_policies14input_iteratorENSH_11ref_countedENSH_12buf_id_checkENSH_9std_dequeEEENS1_18file_position_baseISsEENS1_5nil_tEEESQ_EEEED2Ev@Base 0.47.2
 _ZN5boost6spirit7classic11alternativeINS2_INS1_6actionINS1_11real_parserIdNS1_27strict_real_parser_policiesIdEEEENS_8functionIFvdEEEEENS3_INS1_10int_parserIlLi10ELj1ELin1EEENS8_IFvlEEEEEEENS3_INS1_11uint_parserImLi10ELj1ELin1EEENS8_IFvmEEEEEED1Ev@Base 0.47.2
 _ZN5boost6spirit7classic11alternativeINS2_INS1_6actionINS1_11real_parserIdNS1_27strict_real_parser_policiesIdEEEENS_8functionIFvdEEEEENS3_INS1_10int_parserIlLi10ELj1ELin1EEENS8_IFvlEEEEEEENS3_INS1_11uint_parserImLi10ELj1ELin1EEENS8_IFvmEEEEEED2Ev@Base 0.47.2
 _ZN5boost6spirit7classic11alternativeINS2_INS1_6actionINS1_4ruleINS1_7scannerIN9__gnu_cxx17__normal_iteratorIPKcSsEENS1_16scanner_policiesINS1_24skipper_iteration_policyINS1_16iteration_policyEEENS1_12match_policyENS1_13action_policyEEEEENS1_5nil_tESJ_EENS_8functionIFvSA_SA_EEEEESK_EESK_ED1Ev@Base 0.47.2
 _ZN5boost6spirit7classic11alternativeINS2_INS1_6actionINS1_4ruleINS1_7scannerIN9__gnu_cxx17__normal_iteratorIPKcSsEENS1_16scanner_policiesINS1_24skipper_iteration_policyINS1_16iteration_policyEEENS1_12match_policyENS1_13action_policyEEEEENS1_5nil_tESJ_EENS_8functionIFvSA_SA_EEEEESK_EESK_ED2Ev@Base 0.47.2
 _ZN5boost6spirit7classic11alternativeINS2_INS1_6actionINS1_4ruleINS1_7scannerINS1_10multi_passISt16istream_iteratorIccSt11char_traitsIcElENS1_19multi_pass_policies14input_iteratorENSB_11ref_countedENSB_12buf_id_checkENSB_9std_dequeEEENS1_16scanner_policiesINS1_24skipper_iteration_policyINS1_16iteration_policyEEENS1_12match_policyENS1_13action_policyEEEEENS1_5nil_tESP_EENS_8functionIFvSG_SG_EEEEESQ_EESQ_ED1Ev@Base 0.47.2
 _ZN5boost6spirit7classic11alternativeINS2_INS1_6actionINS1_4ruleINS1_7scannerINS1_10multi_passISt16istream_iteratorIccSt11char_traitsIcElENS1_19multi_pass_policies14input_iteratorENSB_11ref_countedENSB_12buf_id_checkENSB_9std_dequeEEENS1_16scanner_policiesINS1_24skipper_iteration_policyINS1_16iteration_policyEEENS1_12match_policyENS1_13action_policyEEEEENS1_5nil_tESP_EENS_8functionIFvSG_SG_EEEEESQ_EESQ_ED2Ev@Base 0.47.2
 _ZN5boost6spirit7classic11alternativeINS2_INS1_6actionINS1_4ruleINS1_7scannerINS1_17position_iteratorIN9__gnu_cxx17__normal_iteratorIPKcSsEENS1_18file_position_baseISsEENS1_5nil_tEEENS1_16scanner_policiesINS1_24skipper_iteration_policyINS1_16iteration_policyEEENS1_12match_policyENS1_13action_policyEEEEESE_SE_EENS_8functionIFvSF_SF_EEEEESO_EESO_ED1Ev@Base 0.47.2
 _ZN5boost6spirit7classic11alternativeINS2_INS1_6actionINS1_4ruleINS1_7scannerINS1_17position_iteratorIN9__gnu_cxx17__normal_iteratorIPKcSsEENS1_18file_position_baseISsEENS1_5nil_tEEENS1_16scanner_policiesINS1_24skipper_iteration_policyINS1_16iteration_policyEEENS1_12match_policyENS1_13action_policyEEEEESE_SE_EENS_8functionIFvSF_SF_EEEEESO_EESO_ED2Ev@Base 0.47.2
 _ZN5boost6spirit7classic11alternativeINS2_INS1_6actionINS1_4ruleINS1_7scannerINS1_17position_iteratorINS1_10multi_passISt16istream_iteratorIccSt11char_traitsIcElENS1_19multi_pass_policies14input_iteratorENSC_11ref_countedENSC_12buf_id_checkENSC_9std_dequeEEENS1_18file_position_baseISsEENS1_5nil_tEEENS1_16scanner_policiesINS1_24skipper_iteration_policyINS1_16iteration_policyEEENS1_12match_policyENS1_13action_policyEEEEESK_SK_EENS_8functionIFvSL_SL_EEEEESU_EESU_ED1Ev@Base 0.47.2
 _ZN5boost6spirit7classic11alternativeINS2_INS1_6actionINS1_4ruleINS1_7scannerINS1_17position_iteratorINS1_10multi_passISt16istream_iteratorIccSt11char_traitsIcElENS1_19multi_pass_policies14input_iteratorENSC_11ref_countedENSC_12buf_id_checkENSC_9std_dequeEEENS1_18file_position_baseISsEENS1_5nil_tEEENS1_16scanner_policiesINS1_24skipper_iteration_policyINS1_16iteration_policyEEENS1_12match_policyENS1_13action_policyEEEEESK_SK_EENS_8functionIFvSL_SL_EEEEESU_EESU_ED2Ev@Base 0.47.2
 _ZN5boost6spirit7classic11alternativeINS2_INS2_INS1_6actionINS1_4ruleINS1_7scannerIN9__gnu_cxx17__normal_iteratorIPKcSsEENS1_16scanner_policiesINS1_24skipper_iteration_policyINS1_16iteration_policyEEENS1_12match_policyENS1_13action_policyEEEEENS1_5nil_tESJ_EENS_8functionIFvSA_SA_EEEEESK_EESK_EESK_ED1Ev@Base 0.47.2
 _ZN5boost6spirit7classic11alternativeINS2_INS2_INS1_6actionINS1_4ruleINS1_7scannerIN9__gnu_cxx17__normal_iteratorIPKcSsEENS1_16scanner_policiesINS1_24skipper_iteration_policyINS1_16iteration_policyEEENS1_12match_policyENS1_13action_policyEEEEENS1_5nil_tESJ_EENS_8functionIFvSA_SA_EEEEESK_EESK_EESK_ED2Ev@Base 0.47.2
 _ZN5boost6spirit7classic11alternativeINS2_INS2_INS1_6actionINS1_4ruleINS1_7scannerINS1_10multi_passISt16istream_iteratorIccSt11char_traitsIcElENS1_19multi_pass_policies14input_iteratorENSB_11ref_countedENSB_12buf_id_checkENSB_9std_dequeEEENS1_16scanner_policiesINS1_24skipper_iteration_policyINS1_16iteration_policyEEENS1_12match_policyENS1_13action_policyEEEEENS1_5nil_tESP_EENS_8functionIFvSG_SG_EEEEESQ_EESQ_EESQ_ED1Ev@Base 0.47.2
 _ZN5boost6spirit7classic11alternativeINS2_INS2_INS1_6actionINS1_4ruleINS1_7scannerINS1_10multi_passISt16istream_iteratorIccSt11char_traitsIcElENS1_19multi_pass_policies14input_iteratorENSB_11ref_countedENSB_12buf_id_checkENSB_9std_dequeEEENS1_16scanner_policiesINS1_24skipper_iteration_policyINS1_16iteration_policyEEENS1_12match_policyENS1_13action_policyEEEEENS1_5nil_tESP_EENS_8functionIFvSG_SG_EEEEESQ_EESQ_EESQ_ED2Ev@Base 0.47.2
 _ZN5boost6spirit7classic11alternativeINS2_INS2_INS1_6actionINS1_4ruleINS1_7scannerINS1_17position_iteratorIN9__gnu_cxx17__normal_iteratorIPKcSsEENS1_18file_position_baseISsEENS1_5nil_tEEENS1_16scanner_policiesINS1_24skipper_iteration_policyINS1_16iteration_policyEEENS1_12match_policyENS1_13action_policyEEEEESE_SE_EENS_8functionIFvSF_SF_EEEEESO_EESO_EESO_ED1Ev@Base 0.47.2
 _ZN5boost6spirit7classic11alternativeINS2_INS2_INS1_6actionINS1_4ruleINS1_7scannerINS1_17position_iteratorIN9__gnu_cxx17__normal_iteratorIPKcSsEENS1_18file_position_baseISsEENS1_5nil_tEEENS1_16scanner_policiesINS1_24skipper_iteration_policyINS1_16iteration_policyEEENS1_12match_policyENS1_13action_policyEEEEESE_SE_EENS_8functionIFvSF_SF_EEEEESO_EESO_EESO_ED2Ev@Base 0.47.2
 _ZN5boost6spirit7classic11alternativeINS2_INS2_INS1_6actionINS1_4ruleINS1_7scannerINS1_17position_iteratorINS1_10multi_passISt16istream_iteratorIccSt11char_traitsIcElENS1_19multi_pass_policies14input_iteratorENSC_11ref_countedENSC_12buf_id_checkENSC_9std_dequeEEENS1_18file_position_baseISsEENS1_5nil_tEEENS1_16scanner_policiesINS1_24skipper_iteration_policyINS1_16iteration_policyEEENS1_12match_policyENS1_13action_policyEEEEESK_SK_EENS_8functionIFvSL_SL_EEEEESU_EESU_EESU_ED1Ev@Base 0.47.2
 _ZN5boost6spirit7classic11alternativeINS2_INS2_INS1_6actionINS1_4ruleINS1_7scannerINS1_17position_iteratorINS1_10multi_passISt16istream_iteratorIccSt11char_traitsIcElENS1_19multi_pass_policies14input_iteratorENSC_11ref_countedENSC_12buf_id_checkENSC_9std_dequeEEENS1_18file_position_baseISsEENS1_5nil_tEEENS1_16scanner_policiesINS1_24skipper_iteration_policyINS1_16iteration_policyEEENS1_12match_policyENS1_13action_policyEEEEESK_SK_EENS_8functionIFvSL_SL_EEEEESU_EESU_EESU_ED2Ev@Base 0.47.2
 _ZN5boost6spirit7classic11alternativeINS2_INS2_INS2_INS1_6actionINS1_4ruleINS1_7scannerIN9__gnu_cxx17__normal_iteratorIPKcSsEENS1_16scanner_policiesINS1_24skipper_iteration_policyINS1_16iteration_policyEEENS1_12match_policyENS1_13action_policyEEEEENS1_5nil_tESJ_EENS_8functionIFvSA_SA_EEEEESK_EESK_EESK_EENS3_INS1_6strlitIS9_EESN_EEED1Ev@Base 0.47.2
 _ZN5boost6spirit7classic11alternativeINS2_INS2_INS2_INS1_6actionINS1_4ruleINS1_7scannerIN9__gnu_cxx17__normal_iteratorIPKcSsEENS1_16scanner_policiesINS1_24skipper_iteration_policyINS1_16iteration_policyEEENS1_12match_policyENS1_13action_policyEEEEENS1_5nil_tESJ_EENS_8functionIFvSA_SA_EEEEESK_EESK_EESK_EENS3_INS1_6strlitIS9_EESN_EEED2Ev@Base 0.47.2
 _ZN5boost6spirit7classic11alternativeINS2_INS2_INS2_INS1_6actionINS1_4ruleINS1_7scannerINS1_10multi_passISt16istream_iteratorIccSt11char_traitsIcElENS1_19multi_pass_policies14input_iteratorENSB_11ref_countedENSB_12buf_id_checkENSB_9std_dequeEEENS1_16scanner_policiesINS1_24skipper_iteration_policyINS1_16iteration_policyEEENS1_12match_policyENS1_13action_policyEEEEENS1_5nil_tESP_EENS_8functionIFvSG_SG_EEEEESQ_EESQ_EESQ_EENS3_INS1_6strlitIPKcEEST_EEED1Ev@Base 0.47.2
 _ZN5boost6spirit7classic11alternativeINS2_INS2_INS2_INS1_6actionINS1_4ruleINS1_7scannerINS1_10multi_passISt16istream_iteratorIccSt11char_traitsIcElENS1_19multi_pass_policies14input_iteratorENSB_11ref_countedENSB_12buf_id_checkENSB_9std_dequeEEENS1_16scanner_policiesINS1_24skipper_iteration_policyINS1_16iteration_policyEEENS1_12match_policyENS1_13action_policyEEEEENS1_5nil_tESP_EENS_8functionIFvSG_SG_EEEEESQ_EESQ_EESQ_EENS3_INS1_6strlitIPKcEEST_EEED2Ev@Base 0.47.2
 _ZN5boost6spirit7classic11alternativeINS2_INS2_INS2_INS1_6actionINS1_4ruleINS1_7scannerINS1_17position_iteratorIN9__gnu_cxx17__normal_iteratorIPKcSsEENS1_18file_position_baseISsEENS1_5nil_tEEENS1_16scanner_policiesINS1_24skipper_iteration_policyINS1_16iteration_policyEEENS1_12match_policyENS1_13action_policyEEEEESE_SE_EENS_8functionIFvSF_SF_EEEEESO_EESO_EESO_EENS3_INS1_6strlitISA_EESR_EEED1Ev@Base 0.47.2
 _ZN5boost6spirit7classic11alternativeINS2_INS2_INS2_INS1_6actionINS1_4ruleINS1_7scannerINS1_17position_iteratorIN9__gnu_cxx17__normal_iteratorIPKcSsEENS1_18file_position_baseISsEENS1_5nil_tEEENS1_16scanner_policiesINS1_24skipper_iteration_policyINS1_16iteration_policyEEENS1_12match_policyENS1_13action_policyEEEEESE_SE_EENS_8functionIFvSF_SF_EEEEESO_EESO_EESO_EENS3_INS1_6strlitISA_EESR_EEED2Ev@Base 0.47.2
 _ZN5boost6spirit7classic11alternativeINS2_INS2_INS2_INS1_6actionINS1_4ruleINS1_7scannerINS1_17position_iteratorINS1_10multi_passISt16istream_iteratorIccSt11char_traitsIcElENS1_19multi_pass_policies14input_iteratorENSC_11ref_countedENSC_12buf_id_checkENSC_9std_dequeEEENS1_18file_position_baseISsEENS1_5nil_tEEENS1_16scanner_policiesINS1_24skipper_iteration_policyINS1_16iteration_policyEEENS1_12match_policyENS1_13action_policyEEEEESK_SK_EENS_8functionIFvSL_SL_EEEEESU_EESU_EESU_EENS3_INS1_6strlitIPKcEESX_EEED1Ev@Base 0.47.2
 _ZN5boost6spirit7classic11alternativeINS2_INS2_INS2_INS1_6actionINS1_4ruleINS1_7scannerINS1_17position_iteratorINS1_10multi_passISt16istream_iteratorIccSt11char_traitsIcElENS1_19multi_pass_policies14input_iteratorENSC_11ref_countedENSC_12buf_id_checkENSC_9std_dequeEEENS1_18file_position_baseISsEENS1_5nil_tEEENS1_16scanner_policiesINS1_24skipper_iteration_policyINS1_16iteration_policyEEENS1_12match_policyENS1_13action_policyEEEEESK_SK_EENS_8functionIFvSL_SL_EEEEESU_EESU_EESU_EENS3_INS1_6strlitIPKcEESX_EEED2Ev@Base 0.47.2
 _ZN5boost6spirit7classic11alternativeINS2_INS2_INS2_INS2_INS1_6actionINS1_4ruleINS1_7scannerIN9__gnu_cxx17__normal_iteratorIPKcSsEENS1_16scanner_policiesINS1_24skipper_iteration_policyINS1_16iteration_policyEEENS1_12match_policyENS1_13action_policyEEEEENS1_5nil_tESJ_EENS_8functionIFvSA_SA_EEEEESK_EESK_EESK_EENS3_INS1_6strlitIS9_EESN_EEEESU_ED1Ev@Base 0.47.2
 _ZN5boost6spirit7classic11alternativeINS2_INS2_INS2_INS2_INS1_6actionINS1_4ruleINS1_7scannerIN9__gnu_cxx17__normal_iteratorIPKcSsEENS1_16scanner_policiesINS1_24skipper_iteration_policyINS1_16iteration_policyEEENS1_12match_policyENS1_13action_policyEEEEENS1_5nil_tESJ_EENS_8functionIFvSA_SA_EEEEESK_EESK_EESK_EENS3_INS1_6strlitIS9_EESN_EEEESU_ED2Ev@Base 0.47.2
 _ZN5boost6spirit7classic11alternativeINS2_INS2_INS2_INS2_INS1_6actionINS1_4ruleINS1_7scannerINS1_10multi_passISt16istream_iteratorIccSt11char_traitsIcElENS1_19multi_pass_policies14input_iteratorENSB_11ref_countedENSB_12buf_id_checkENSB_9std_dequeEEENS1_16scanner_policiesINS1_24skipper_iteration_policyINS1_16iteration_policyEEENS1_12match_policyENS1_13action_policyEEEEENS1_5nil_tESP_EENS_8functionIFvSG_SG_EEEEESQ_EESQ_EESQ_EENS3_INS1_6strlitIPKcEEST_EEEES12_ED1Ev@Base 0.47.2
 _ZN5boost6spirit7classic11alternativeINS2_INS2_INS2_INS2_INS1_6actionINS1_4ruleINS1_7scannerINS1_10multi_passISt16istream_iteratorIccSt11char_traitsIcElENS1_19multi_pass_policies14input_iteratorENSB_11ref_countedENSB_12buf_id_checkENSB_9std_dequeEEENS1_16scanner_policiesINS1_24skipper_iteration_policyINS1_16iteration_policyEEENS1_12match_policyENS1_13action_policyEEEEENS1_5nil_tESP_EENS_8functionIFvSG_SG_EEEEESQ_EESQ_EESQ_EENS3_INS1_6strlitIPKcEEST_EEEES12_ED2Ev@Base 0.47.2
 _ZN5boost6spirit7classic11alternativeINS2_INS2_INS2_INS2_INS1_6actionINS1_4ruleINS1_7scannerINS1_17position_iteratorIN9__gnu_cxx17__normal_iteratorIPKcSsEENS1_18file_position_baseISsEENS1_5nil_tEEENS1_16scanner_policiesINS1_24skipper_iteration_policyINS1_16iteration_policyEEENS1_12match_policyENS1_13action_policyEEEEESE_SE_EENS_8functionIFvSF_SF_EEEEESO_EESO_EESO_EENS3_INS1_6strlitISA_EESR_EEEESY_ED1Ev@Base 0.47.2
 _ZN5boost6spirit7classic11alternativeINS2_INS2_INS2_INS2_INS1_6actionINS1_4ruleINS1_7scannerINS1_17position_iteratorIN9__gnu_cxx17__normal_iteratorIPKcSsEENS1_18file_position_baseISsEENS1_5nil_tEEENS1_16scanner_policiesINS1_24skipper_iteration_policyINS1_16iteration_policyEEENS1_12match_policyENS1_13action_policyEEEEESE_SE_EENS_8functionIFvSF_SF_EEEEESO_EESO_EESO_EENS3_INS1_6strlitISA_EESR_EEEESY_ED2Ev@Base 0.47.2
 _ZN5boost6spirit7classic11alternativeINS2_INS2_INS2_INS2_INS1_6actionINS1_4ruleINS1_7scannerINS1_17position_iteratorINS1_10multi_passISt16istream_iteratorIccSt11char_traitsIcElENS1_19multi_pass_policies14input_iteratorENSC_11ref_countedENSC_12buf_id_checkENSC_9std_dequeEEENS1_18file_position_baseISsEENS1_5nil_tEEENS1_16scanner_policiesINS1_24skipper_iteration_policyINS1_16iteration_policyEEENS1_12match_policyENS1_13action_policyEEEEESK_SK_EENS_8functionIFvSL_SL_EEEEESU_EESU_EESU_EENS3_INS1_6strlitIPKcEESX_EEEES16_ED1Ev@Base 0.47.2
 _ZN5boost6spirit7classic11alternativeINS2_INS2_INS2_INS2_INS1_6actionINS1_4ruleINS1_7scannerINS1_17position_iteratorINS1_10multi_passISt16istream_iteratorIccSt11char_traitsIcElENS1_19multi_pass_policies14input_iteratorENSC_11ref_countedENSC_12buf_id_checkENSC_9std_dequeEEENS1_18file_position_baseISsEENS1_5nil_tEEENS1_16scanner_policiesINS1_24skipper_iteration_policyINS1_16iteration_policyEEENS1_12match_policyENS1_13action_policyEEEEESK_SK_EENS_8functionIFvSL_SL_EEEEESU_EESU_EESU_EENS3_INS1_6strlitIPKcEESX_EEEES16_ED2Ev@Base 0.47.2
 _ZN5boost6spirit7classic11alternativeINS2_INS2_INS2_INS2_INS2_INS1_6actionINS1_4ruleINS1_7scannerIN9__gnu_cxx17__normal_iteratorIPKcSsEENS1_16scanner_policiesINS1_24skipper_iteration_policyINS1_16iteration_policyEEENS1_12match_policyENS1_13action_policyEEEEENS1_5nil_tESJ_EENS_8functionIFvSA_SA_EEEEESK_EESK_EESK_EENS3_INS1_6strlitIS9_EESN_EEEESU_EESU_ED1Ev@Base 0.47.2
 _ZN5boost6spirit7classic11alternativeINS2_INS2_INS2_INS2_INS2_INS1_6actionINS1_4ruleINS1_7scannerIN9__gnu_cxx17__normal_iteratorIPKcSsEENS1_16scanner_policiesINS1_24skipper_iteration_policyINS1_16iteration_policyEEENS1_12match_policyENS1_13action_policyEEEEENS1_5nil_tESJ_EENS_8functionIFvSA_SA_EEEEESK_EESK_EESK_EENS3_INS1_6strlitIS9_EESN_EEEESU_EESU_ED2Ev@Base 0.47.2
 _ZN5boost6spirit7classic11alternativeINS2_INS2_INS2_INS2_INS2_INS1_6actionINS1_4ruleINS1_7scannerINS1_10multi_passISt16istream_iteratorIccSt11char_traitsIcElENS1_19multi_pass_policies14input_iteratorENSB_11ref_countedENSB_12buf_id_checkENSB_9std_dequeEEENS1_16scanner_policiesINS1_24skipper_iteration_policyINS1_16iteration_policyEEENS1_12match_policyENS1_13action_policyEEEEENS1_5nil_tESP_EENS_8functionIFvSG_SG_EEEEESQ_EESQ_EESQ_EENS3_INS1_6strlitIPKcEEST_EEEES12_EES12_ED1Ev@Base 0.47.2
 _ZN5boost6spirit7classic11alternativeINS2_INS2_INS2_INS2_INS2_INS1_6actionINS1_4ruleINS1_7scannerINS1_10multi_passISt16istream_iteratorIccSt11char_traitsIcElENS1_19multi_pass_policies14input_iteratorENSB_11ref_countedENSB_12buf_id_checkENSB_9std_dequeEEENS1_16scanner_policiesINS1_24skipper_iteration_policyINS1_16iteration_policyEEENS1_12match_policyENS1_13action_policyEEEEENS1_5nil_tESP_EENS_8functionIFvSG_SG_EEEEESQ_EESQ_EESQ_EENS3_INS1_6strlitIPKcEEST_EEEES12_EES12_ED2Ev@Base 0.47.2
 _ZN5boost6spirit7classic11alternativeINS2_INS2_INS2_INS2_INS2_INS1_6actionINS1_4ruleINS1_7scannerINS1_17position_iteratorIN9__gnu_cxx17__normal_iteratorIPKcSsEENS1_18file_position_baseISsEENS1_5nil_tEEENS1_16scanner_policiesINS1_24skipper_iteration_policyINS1_16iteration_policyEEENS1_12match_policyENS1_13action_policyEEEEESE_SE_EENS_8functionIFvSF_SF_EEEEESO_EESO_EESO_EENS3_INS1_6strlitISA_EESR_EEEESY_EESY_ED1Ev@Base 0.47.2
 _ZN5boost6spirit7classic11alternativeINS2_INS2_INS2_INS2_INS2_INS1_6actionINS1_4ruleINS1_7scannerINS1_17position_iteratorIN9__gnu_cxx17__normal_iteratorIPKcSsEENS1_18file_position_baseISsEENS1_5nil_tEEENS1_16scanner_policiesINS1_24skipper_iteration_policyINS1_16iteration_policyEEENS1_12match_policyENS1_13action_policyEEEEESE_SE_EENS_8functionIFvSF_SF_EEEEESO_EESO_EESO_EENS3_INS1_6strlitISA_EESR_EEEESY_EESY_ED2Ev@Base 0.47.2
 _ZN5boost6spirit7classic11alternativeINS2_INS2_INS2_INS2_INS2_INS1_6actionINS1_4ruleINS1_7scannerINS1_17position_iteratorINS1_10multi_passISt16istream_iteratorIccSt11char_traitsIcElENS1_19multi_pass_policies14input_iteratorENSC_11ref_countedENSC_12buf_id_checkENSC_9std_dequeEEENS1_18file_position_baseISsEENS1_5nil_tEEENS1_16scanner_policiesINS1_24skipper_iteration_policyINS1_16iteration_policyEEENS1_12match_policyENS1_13action_policyEEEEESK_SK_EENS_8functionIFvSL_SL_EEEEESU_EESU_EESU_EENS3_INS1_6strlitIPKcEESX_EEEES16_EES16_ED1Ev@Base 0.47.2
 _ZN5boost6spirit7classic11alternativeINS2_INS2_INS2_INS2_INS2_INS1_6actionINS1_4ruleINS1_7scannerINS1_17position_iteratorINS1_10multi_passISt16istream_iteratorIccSt11char_traitsIcElENS1_19multi_pass_policies14input_iteratorENSC_11ref_countedENSC_12buf_id_checkENSC_9std_dequeEEENS1_18file_position_baseISsEENS1_5nil_tEEENS1_16scanner_policiesINS1_24skipper_iteration_policyINS1_16iteration_policyEEENS1_12match_policyENS1_13action_policyEEEEESK_SK_EENS_8functionIFvSL_SL_EEEEESU_EESU_EESU_EENS3_INS1_6strlitIPKcEESX_EEEES16_EES16_ED2Ev@Base 0.47.2
 _ZN5boost6spirit7classic17position_iteratorIN9__gnu_cxx17__normal_iteratorIPKcSsEENS1_18file_position_baseISsEENS1_5nil_tEE9incrementEv@Base 0.47.2
 _ZN5boost6spirit7classic17position_iteratorIN9__gnu_cxx17__normal_iteratorIPKcSsEENS1_18file_position_baseISsEENS1_5nil_tEEC1ERKS7_SD_@Base 0.47.2
 _ZN5boost6spirit7classic17position_iteratorIN9__gnu_cxx17__normal_iteratorIPKcSsEENS1_18file_position_baseISsEENS1_5nil_tEEC1ERKSB_@Base 0.47.2
 _ZN5boost6spirit7classic17position_iteratorIN9__gnu_cxx17__normal_iteratorIPKcSsEENS1_18file_position_baseISsEENS1_5nil_tEEC2ERKS7_SD_@Base 0.47.2
 _ZN5boost6spirit7classic17position_iteratorIN9__gnu_cxx17__normal_iteratorIPKcSsEENS1_18file_position_baseISsEENS1_5nil_tEEC2ERKSB_@Base 0.47.2
 _ZN5boost6spirit7classic17position_iteratorIN9__gnu_cxx17__normal_iteratorIPKcSsEENS1_18file_position_baseISsEENS1_5nil_tEED1Ev@Base 0.47.2
 _ZN5boost6spirit7classic17position_iteratorIN9__gnu_cxx17__normal_iteratorIPKcSsEENS1_18file_position_baseISsEENS1_5nil_tEED2Ev@Base 0.47.2
 _ZN5boost6spirit7classic17position_iteratorIN9__gnu_cxx17__normal_iteratorIPKcSsEENS1_18file_position_baseISsEENS1_5nil_tEEaSERKSB_@Base 0.47.2
 _ZN5boost6spirit7classic17position_iteratorINS1_10multi_passISt16istream_iteratorIccSt11char_traitsIcElENS1_19multi_pass_policies14input_iteratorENS8_11ref_countedENS8_12buf_id_checkENS8_9std_dequeEEENS1_18file_position_baseISsEENS1_5nil_tEE9incrementEv@Base 0.47.2
 _ZN5boost6spirit7classic17position_iteratorINS1_10multi_passISt16istream_iteratorIccSt11char_traitsIcElENS1_19multi_pass_policies14input_iteratorENS8_11ref_countedENS8_12buf_id_checkENS8_9std_dequeEEENS1_18file_position_baseISsEENS1_5nil_tEEC1ERKSD_SJ_@Base 0.47.2
 _ZN5boost6spirit7classic17position_iteratorINS1_10multi_passISt16istream_iteratorIccSt11char_traitsIcElENS1_19multi_pass_policies14input_iteratorENS8_11ref_countedENS8_12buf_id_checkENS8_9std_dequeEEENS1_18file_position_baseISsEENS1_5nil_tEEC1ERKSH_@Base 0.47.2
 _ZN5boost6spirit7classic17position_iteratorINS1_10multi_passISt16istream_iteratorIccSt11char_traitsIcElENS1_19multi_pass_policies14input_iteratorENS8_11ref_countedENS8_12buf_id_checkENS8_9std_dequeEEENS1_18file_position_baseISsEENS1_5nil_tEEC2ERKSD_SJ_@Base 0.47.2
 _ZN5boost6spirit7classic17position_iteratorINS1_10multi_passISt16istream_iteratorIccSt11char_traitsIcElENS1_19multi_pass_policies14input_iteratorENS8_11ref_countedENS8_12buf_id_checkENS8_9std_dequeEEENS1_18file_position_baseISsEENS1_5nil_tEEC2ERKSH_@Base 0.47.2
 _ZN5boost6spirit7classic17position_iteratorINS1_10multi_passISt16istream_iteratorIccSt11char_traitsIcElENS1_19multi_pass_policies14input_iteratorENS8_11ref_countedENS8_12buf_id_checkENS8_9std_dequeEEENS1_18file_position_baseISsEENS1_5nil_tEED1Ev@Base 0.47.2
 _ZN5boost6spirit7classic17position_iteratorINS1_10multi_passISt16istream_iteratorIccSt11char_traitsIcElENS1_19multi_pass_policies14input_iteratorENS8_11ref_countedENS8_12buf_id_checkENS8_9std_dequeEEENS1_18file_position_baseISsEENS1_5nil_tEED2Ev@Base 0.47.2
 _ZN5boost6spirit7classic17position_iteratorINS1_10multi_passISt16istream_iteratorIccSt11char_traitsIcElENS1_19multi_pass_policies14input_iteratorENS8_11ref_countedENS8_12buf_id_checkENS8_9std_dequeEEENS1_18file_position_baseISsEENS1_5nil_tEEaSERKSH_@Base 0.47.2
 _ZN5boost6spirit7classic18file_position_baseISsED1Ev@Base 0.47.2
 _ZN5boost6spirit7classic18file_position_baseISsED2Ev@Base 0.47.2
 _ZN5boost6spirit7classic19multi_pass_policies14input_iterator5innerISt16istream_iteratorIccSt11char_traitsIcElEE13advance_inputEv@Base 0.47.2
 _ZN5boost6spirit7classic19multi_pass_policies20illegal_backtrackingD0Ev@Base 0.47.2
 _ZN5boost6spirit7classic19multi_pass_policies20illegal_backtrackingD1Ev@Base 0.47.2
 _ZN5boost6spirit7classic19multi_pass_policies20illegal_backtrackingD2Ev@Base 0.47.2
 _ZN5boost6spirit7classic19multi_pass_policies9std_deque5innerIcE11dereferenceINS1_10multi_passISt16istream_iteratorIccSt11char_traitsIcElENS2_14input_iteratorENS2_11ref_countedENS2_12buf_id_checkES3_EEEENT_9referenceERKSG_@Base 0.47.2
 _ZN5boost6spirit7classic19multi_pass_policies9std_deque5innerIcE6is_eofINS1_10multi_passISt16istream_iteratorIccSt11char_traitsIcElENS2_14input_iteratorENS2_11ref_countedENS2_12buf_id_checkES3_EEEEbRKT_@Base 0.47.2
 _ZN5boost6spirit7classic19multi_pass_policies9std_deque5innerIcE9incrementINS1_10multi_passISt16istream_iteratorIccSt11char_traitsIcElENS2_14input_iteratorENS2_11ref_countedENS2_12buf_id_checkES3_EEEEvRT_@Base 0.47.2
 _ZN5boost6spirit7classic19multi_pass_policies9std_deque5innerIcEC1Ev@Base 0.47.2
 _ZN5boost6spirit7classic19multi_pass_policies9std_deque5innerIcEC2Ev@Base 0.47.2
 _ZN5boost6spirit7classic21parser_scanner_linkerINS1_7scannerINS1_17position_iteratorIN9__gnu_cxx17__normal_iteratorIPKcSsEENS1_18file_position_baseISsEENS1_5nil_tEEENS1_16scanner_policiesINS1_24skipper_iteration_policyINS1_16iteration_policyEEENS1_12match_policyENS1_13action_policyEEEEEED1Ev@Base 0.47.2
 _ZN5boost6spirit7classic21parser_scanner_linkerINS1_7scannerINS1_17position_iteratorIN9__gnu_cxx17__normal_iteratorIPKcSsEENS1_18file_position_baseISsEENS1_5nil_tEEENS1_16scanner_policiesINS1_24skipper_iteration_policyINS1_16iteration_policyEEENS1_12match_policyENS1_13action_policyEEEEEED2Ev@Base 0.47.2
 _ZN5boost6spirit7classic21parser_scanner_linkerINS1_7scannerINS1_17position_iteratorINS1_10multi_passISt16istream_iteratorIccSt11char_traitsIcElENS1_19multi_pass_policies14input_iteratorENSA_11ref_countedENSA_12buf_id_checkENSA_9std_dequeEEENS1_18file_position_baseISsEENS1_5nil_tEEENS1_16scanner_policiesINS1_24skipper_iteration_policyINS1_16iteration_policyEEENS1_12match_policyENS1_13action_policyEEEEEED1Ev@Base 0.47.2
 _ZN5boost6spirit7classic21parser_scanner_linkerINS1_7scannerINS1_17position_iteratorINS1_10multi_passISt16istream_iteratorIccSt11char_traitsIcElENS1_19multi_pass_policies14input_iteratorENSA_11ref_countedENSA_12buf_id_checkENSA_9std_dequeEEENS1_18file_position_baseISsEENS1_5nil_tEEENS1_16scanner_policiesINS1_24skipper_iteration_policyINS1_16iteration_policyEEENS1_12match_policyENS1_13action_policyEEEEEED2Ev@Base 0.47.2
 _ZN5boost6spirit7classic21ureal_parser_policiesIdE9parse_expIKNS1_7scannerIN9__gnu_cxx17__normal_iteratorIPKcSsEENS1_16scanner_policiesINS1_27no_skipper_iteration_policyINS1_24skipper_iteration_policyINS1_16iteration_policyEEEEENS1_12match_policyENS1_13action_policyEEEEEEENS1_13parser_resultINS1_5chlitIcEET_E4typeERSP_@Base 0.47.2
 _ZN5boost6spirit7classic21ureal_parser_policiesIdE9parse_expIKNS1_7scannerINS1_10multi_passISt16istream_iteratorIccSt11char_traitsIcElENS1_19multi_pass_policies14input_iteratorENSB_11ref_countedENSB_12buf_id_checkENSB_9std_dequeEEENS1_16scanner_policiesINS1_27no_skipper_iteration_policyINS1_24skipper_iteration_policyINS1_16iteration_policyEEEEENS1_12match_policyENS1_13action_policyEEEEEEENS1_13parser_resultINS1_5chlitIcEET_E4typeERSV_@Base 0.47.2
 _ZN5boost6spirit7classic21ureal_parser_policiesIdE9parse_expIKNS1_7scannerINS1_17position_iteratorIN9__gnu_cxx17__normal_iteratorIPKcSsEENS1_18file_position_baseISsEENS1_5nil_tEEENS1_16scanner_policiesINS1_27no_skipper_iteration_policyINS1_24skipper_iteration_policyINS1_16iteration_policyEEEEENS1_12match_policyENS1_13action_policyEEEEEEENS1_13parser_resultINS1_5chlitIcEET_E4typeERSU_@Base 0.47.2
 _ZN5boost6spirit7classic21ureal_parser_policiesIdE9parse_expIKNS1_7scannerINS1_17position_iteratorINS1_10multi_passISt16istream_iteratorIccSt11char_traitsIcElENS1_19multi_pass_policies14input_iteratorENSC_11ref_countedENSC_12buf_id_checkENSC_9std_dequeEEENS1_18file_position_baseISsEENS1_5nil_tEEENS1_16scanner_policiesINS1_27no_skipper_iteration_policyINS1_24skipper_iteration_policyINS1_16iteration_policyEEEEENS1_12match_policyENS1_13action_policyEEEEEEENS1_13parser_resultINS1_5chlitIcEET_E4typeERS10_@Base 0.47.2
 _ZN5boost6spirit7classic4impl11extract_intILi10ELj1ELin1ENS2_19negative_accumulateIdLi10EEEE1fIKNS1_7scannerIN9__gnu_cxx17__normal_iteratorIPKcSsEENS1_16scanner_policiesINS1_27no_skipper_iteration_policyINS1_24skipper_iteration_policyINS1_16iteration_policyEEEEENS1_12match_policyENS1_13action_policyEEEEEdEEbRT_RT0_Rm@Base 0.47.2
 _ZN5boost6spirit7classic4impl11extract_intILi10ELj1ELin1ENS2_19negative_accumulateIdLi10EEEE1fIKNS1_7scannerINS1_10multi_passISt16istream_iteratorIccSt11char_traitsIcElENS1_19multi_pass_policies14input_iteratorENSE_11ref_countedENSE_12buf_id_checkENSE_9std_dequeEEENS1_16scanner_policiesINS1_27no_skipper_iteration_policyINS1_24skipper_iteration_policyINS1_16iteration_policyEEEEENS1_12match_policyENS1_13action_policyEEEEEdEEbRT_RT0_Rm@Base 0.47.2
 _ZN5boost6spirit7classic4impl11extract_intILi10ELj1ELin1ENS2_19negative_accumulateIdLi10EEEE1fIKNS1_7scannerINS1_17position_iteratorIN9__gnu_cxx17__normal_iteratorIPKcSsEENS1_18file_position_baseISsEENS1_5nil_tEEENS1_16scanner_policiesINS1_27no_skipper_iteration_policyINS1_24skipper_iteration_policyINS1_16iteration_policyEEEEENS1_12match_policyENS1_13action_policyEEEEEdEEbRT_RT0_Rm@Base 0.47.2
 _ZN5boost6spirit7classic4impl11extract_intILi10ELj1ELin1ENS2_19negative_accumulateIdLi10EEEE1fIKNS1_7scannerINS1_17position_iteratorINS1_10multi_passISt16istream_iteratorIccSt11char_traitsIcElENS1_19multi_pass_policies14input_iteratorENSF_11ref_countedENSF_12buf_id_checkENSF_9std_dequeEEENS1_18file_position_baseISsEENS1_5nil_tEEENS1_16scanner_policiesINS1_27no_skipper_iteration_policyINS1_24skipper_iteration_policyINS1_16iteration_policyEEEEENS1_12match_policyENS1_13action_policyEEEEEdEEbRT_RT0_Rm@Base 0.47.2
 _ZN5boost6spirit7classic4impl11extract_intILi10ELj1ELin1ENS2_19negative_accumulateIlLi10EEEE1fIKNS1_7scannerIN9__gnu_cxx17__normal_iteratorIPKcSsEENS1_16scanner_policiesINS1_27no_skipper_iteration_policyINS1_24skipper_iteration_policyINS1_16iteration_policyEEEEENS1_12match_policyENS1_13action_policyEEEEElEEbRT_RT0_Rm@Base 0.47.2
 _ZN5boost6spirit7classic4impl11extract_intILi10ELj1ELin1ENS2_19negative_accumulateIlLi10EEEE1fIKNS1_7scannerINS1_10multi_passISt16istream_iteratorIccSt11char_traitsIcElENS1_19multi_pass_policies14input_iteratorENSE_11ref_countedENSE_12buf_id_checkENSE_9std_dequeEEENS1_16scanner_policiesINS1_27no_skipper_iteration_policyINS1_24skipper_iteration_policyINS1_16iteration_policyEEEEENS1_12match_policyENS1_13action_policyEEEEElEEbRT_RT0_Rm@Base 0.47.2
 _ZN5boost6spirit7classic4impl11extract_intILi10ELj1ELin1ENS2_19negative_accumulateIlLi10EEEE1fIKNS1_7scannerINS1_17position_iteratorIN9__gnu_cxx17__normal_iteratorIPKcSsEENS1_18file_position_baseISsEENS1_5nil_tEEENS1_16scanner_policiesINS1_27no_skipper_iteration_policyINS1_24skipper_iteration_policyINS1_16iteration_policyEEEEENS1_12match_policyENS1_13action_policyEEEEElEEbRT_RT0_Rm@Base 0.47.2
 _ZN5boost6spirit7classic4impl11extract_intILi10ELj1ELin1ENS2_19negative_accumulateIlLi10EEEE1fIKNS1_7scannerINS1_17position_iteratorINS1_10multi_passISt16istream_iteratorIccSt11char_traitsIcElENS1_19multi_pass_policies14input_iteratorENSF_11ref_countedENSF_12buf_id_checkENSF_9std_dequeEEENS1_18file_position_baseISsEENS1_5nil_tEEENS1_16scanner_policiesINS1_27no_skipper_iteration_policyINS1_24skipper_iteration_policyINS1_16iteration_policyEEEEENS1_12match_policyENS1_13action_policyEEEEElEEbRT_RT0_Rm@Base 0.47.2
 _ZN5boost6spirit7classic4impl11extract_intILi10ELj1ELin1ENS2_19positive_accumulateIdLi10EEEE1fIKNS1_7scannerIN9__gnu_cxx17__normal_iteratorIPKcSsEENS1_16scanner_policiesINS1_27no_skipper_iteration_policyINS1_24skipper_iteration_policyINS1_16iteration_policyEEEEENS1_12match_policyENS1_13action_policyEEEEEdEEbRT_RT0_Rm@Base 0.47.2
 _ZN5boost6spirit7classic4impl11extract_intILi10ELj1ELin1ENS2_19positive_accumulateIdLi10EEEE1fIKNS1_7scannerINS1_10multi_passISt16istream_iteratorIccSt11char_traitsIcElENS1_19multi_pass_policies14input_iteratorENSE_11ref_countedENSE_12buf_id_checkENSE_9std_dequeEEENS1_16scanner_policiesINS1_27no_skipper_iteration_policyINS1_24skipper_iteration_policyINS1_16iteration_policyEEEEENS1_12match_policyENS1_13action_policyEEEEEdEEbRT_RT0_Rm@Base 0.47.2
 _ZN5boost6spirit7classic4impl11extract_intILi10ELj1ELin1ENS2_19positive_accumulateIdLi10EEEE1fIKNS1_7scannerINS1_17position_iteratorIN9__gnu_cxx17__normal_iteratorIPKcSsEENS1_18file_position_baseISsEENS1_5nil_tEEENS1_16scanner_policiesINS1_27no_skipper_iteration_policyINS1_24skipper_iteration_policyINS1_16iteration_policyEEEEENS1_12match_policyENS1_13action_policyEEEEEdEEbRT_RT0_Rm@Base 0.47.2
 _ZN5boost6spirit7classic4impl11extract_intILi10ELj1ELin1ENS2_19positive_accumulateIdLi10EEEE1fIKNS1_7scannerINS1_17position_iteratorINS1_10multi_passISt16istream_iteratorIccSt11char_traitsIcElENS1_19multi_pass_policies14input_iteratorENSF_11ref_countedENSF_12buf_id_checkENSF_9std_dequeEEENS1_18file_position_baseISsEENS1_5nil_tEEENS1_16scanner_policiesINS1_27no_skipper_iteration_policyINS1_24skipper_iteration_policyINS1_16iteration_policyEEEEENS1_12match_policyENS1_13action_policyEEEEEdEEbRT_RT0_Rm@Base 0.47.2
 _ZN5boost6spirit7classic4impl11extract_intILi10ELj1ELin1ENS2_19positive_accumulateIlLi10EEEE1fIKNS1_7scannerIN9__gnu_cxx17__normal_iteratorIPKcSsEENS1_16scanner_policiesINS1_27no_skipper_iteration_policyINS1_24skipper_iteration_policyINS1_16iteration_policyEEEEENS1_12match_policyENS1_13action_policyEEEEElEEbRT_RT0_Rm@Base 0.47.2
 _ZN5boost6spirit7classic4impl11extract_intILi10ELj1ELin1ENS2_19positive_accumulateIlLi10EEEE1fIKNS1_7scannerINS1_10multi_passISt16istream_iteratorIccSt11char_traitsIcElENS1_19multi_pass_policies14input_iteratorENSE_11ref_countedENSE_12buf_id_checkENSE_9std_dequeEEENS1_16scanner_policiesINS1_27no_skipper_iteration_policyINS1_24skipper_iteration_policyINS1_16iteration_policyEEEEENS1_12match_policyENS1_13action_policyEEEEElEEbRT_RT0_Rm@Base 0.47.2
 _ZN5boost6spirit7classic4impl11extract_intILi10ELj1ELin1ENS2_19positive_accumulateIlLi10EEEE1fIKNS1_7scannerINS1_17position_iteratorIN9__gnu_cxx17__normal_iteratorIPKcSsEENS1_18file_position_baseISsEENS1_5nil_tEEENS1_16scanner_policiesINS1_27no_skipper_iteration_policyINS1_24skipper_iteration_policyINS1_16iteration_policyEEEEENS1_12match_policyENS1_13action_policyEEEEElEEbRT_RT0_Rm@Base 0.47.2
 _ZN5boost6spirit7classic4impl11extract_intILi10ELj1ELin1ENS2_19positive_accumulateIlLi10EEEE1fIKNS1_7scannerINS1_17position_iteratorINS1_10multi_passISt16istream_iteratorIccSt11char_traitsIcElENS1_19multi_pass_policies14input_iteratorENSF_11ref_countedENSF_12buf_id_checkENSF_9std_dequeEEENS1_18file_position_baseISsEENS1_5nil_tEEENS1_16scanner_policiesINS1_27no_skipper_iteration_policyINS1_24skipper_iteration_policyINS1_16iteration_policyEEEEENS1_12match_policyENS1_13action_policyEEEEElEEbRT_RT0_Rm@Base 0.47.2
 _ZN5boost6spirit7classic4impl11extract_intILi10ELj1ELin1ENS2_19positive_accumulateImLi10EEEE1fIKNS1_7scannerIN9__gnu_cxx17__normal_iteratorIPKcSsEENS1_16scanner_policiesINS1_27no_skipper_iteration_policyINS1_24skipper_iteration_policyINS1_16iteration_policyEEEEENS1_12match_policyENS1_13action_policyEEEEEmEEbRT_RT0_Rm@Base 0.47.2
 _ZN5boost6spirit7classic4impl11extract_intILi10ELj1ELin1ENS2_19positive_accumulateImLi10EEEE1fIKNS1_7scannerINS1_10multi_passISt16istream_iteratorIccSt11char_traitsIcElENS1_19multi_pass_policies14input_iteratorENSE_11ref_countedENSE_12buf_id_checkENSE_9std_dequeEEENS1_16scanner_policiesINS1_27no_skipper_iteration_policyINS1_24skipper_iteration_policyINS1_16iteration_policyEEEEENS1_12match_policyENS1_13action_policyEEEEEmEEbRT_RT0_Rm@Base 0.47.2
 _ZN5boost6spirit7classic4impl11extract_intILi10ELj1ELin1ENS2_19positive_accumulateImLi10EEEE1fIKNS1_7scannerINS1_17position_iteratorIN9__gnu_cxx17__normal_iteratorIPKcSsEENS1_18file_position_baseISsEENS1_5nil_tEEENS1_16scanner_policiesINS1_27no_skipper_iteration_policyINS1_24skipper_iteration_policyINS1_16iteration_policyEEEEENS1_12match_policyENS1_13action_policyEEEEEmEEbRT_RT0_Rm@Base 0.47.2
 _ZN5boost6spirit7classic4impl11extract_intILi10ELj1ELin1ENS2_19positive_accumulateImLi10EEEE1fIKNS1_7scannerINS1_17position_iteratorINS1_10multi_passISt16istream_iteratorIccSt11char_traitsIcElENS1_19multi_pass_policies14input_iteratorENSF_11ref_countedENSF_12buf_id_checkENSF_9std_dequeEEENS1_18file_position_baseISsEENS1_5nil_tEEENS1_16scanner_policiesINS1_27no_skipper_iteration_policyINS1_24skipper_iteration_policyINS1_16iteration_policyEEEEENS1_12match_policyENS1_13action_policyEEEEEmEEbRT_RT0_Rm@Base 0.47.2
 _ZN5boost6spirit7classic4impl11extract_intILi16ELj1ELi2ENS2_19positive_accumulateIcLi16EEEE1fIKNS1_7scannerIN9__gnu_cxx17__normal_iteratorIPKcSsEENS1_16scanner_policiesINS1_27no_skipper_iteration_policyINS1_24skipper_iteration_policyINS1_16iteration_policyEEEEENS1_12match_policyENS1_13action_policyEEEEEcEEbRT_RT0_Rm@Base 0.47.2
 _ZN5boost6spirit7classic4impl11extract_intILi16ELj1ELi2ENS2_19positive_accumulateIcLi16EEEE1fIKNS1_7scannerINS1_10multi_passISt16istream_iteratorIccSt11char_traitsIcElENS1_19multi_pass_policies14input_iteratorENSE_11ref_countedENSE_12buf_id_checkENSE_9std_dequeEEENS1_16scanner_policiesINS1_27no_skipper_iteration_policyINS1_24skipper_iteration_policyINS1_16iteration_policyEEEEENS1_12match_policyENS1_13action_policyEEEEEcEEbRT_RT0_Rm@Base 0.47.2
 _ZN5boost6spirit7classic4impl11extract_intILi16ELj1ELi2ENS2_19positive_accumulateIcLi16EEEE1fIKNS1_7scannerINS1_17position_iteratorIN9__gnu_cxx17__normal_iteratorIPKcSsEENS1_18file_position_baseISsEENS1_5nil_tEEENS1_16scanner_policiesINS1_27no_skipper_iteration_policyINS1_24skipper_iteration_policyINS1_16iteration_policyEEEEENS1_12match_policyENS1_13action_policyEEEEEcEEbRT_RT0_Rm@Base 0.47.2
 _ZN5boost6spirit7classic4impl11extract_intILi16ELj1ELi2ENS2_19positive_accumulateIcLi16EEEE1fIKNS1_7scannerINS1_17position_iteratorINS1_10multi_passISt16istream_iteratorIccSt11char_traitsIcElENS1_19multi_pass_policies14input_iteratorENSF_11ref_countedENSF_12buf_id_checkENSF_9std_dequeEEENS1_18file_position_baseISsEENS1_5nil_tEEENS1_16scanner_policiesINS1_27no_skipper_iteration_policyINS1_24skipper_iteration_policyINS1_16iteration_policyEEEEENS1_12match_policyENS1_13action_policyEEEEEcEEbRT_RT0_Rm@Base 0.47.2
 _ZN5boost6spirit7classic4impl11extract_intILi8ELj1ELi3ENS2_19positive_accumulateIcLi8EEEE1fIKNS1_7scannerIN9__gnu_cxx17__normal_iteratorIPKcSsEENS1_16scanner_policiesINS1_27no_skipper_iteration_policyINS1_24skipper_iteration_policyINS1_16iteration_policyEEEEENS1_12match_policyENS1_13action_policyEEEEEcEEbRT_RT0_Rm@Base 0.47.2
 _ZN5boost6spirit7classic4impl11extract_intILi8ELj1ELi3ENS2_19positive_accumulateIcLi8EEEE1fIKNS1_7scannerINS1_10multi_passISt16istream_iteratorIccSt11char_traitsIcElENS1_19multi_pass_policies14input_iteratorENSE_11ref_countedENSE_12buf_id_checkENSE_9std_dequeEEENS1_16scanner_policiesINS1_27no_skipper_iteration_policyINS1_24skipper_iteration_policyINS1_16iteration_policyEEEEENS1_12match_policyENS1_13action_policyEEEEEcEEbRT_RT0_Rm@Base 0.47.2
 _ZN5boost6spirit7classic4impl11extract_intILi8ELj1ELi3ENS2_19positive_accumulateIcLi8EEEE1fIKNS1_7scannerINS1_17position_iteratorIN9__gnu_cxx17__normal_iteratorIPKcSsEENS1_18file_position_baseISsEENS1_5nil_tEEENS1_16scanner_policiesINS1_27no_skipper_iteration_policyINS1_24skipper_iteration_policyINS1_16iteration_policyEEEEENS1_12match_policyENS1_13action_policyEEEEEcEEbRT_RT0_Rm@Base 0.47.2
 _ZN5boost6spirit7classic4impl11extract_intILi8ELj1ELi3ENS2_19positive_accumulateIcLi8EEEE1fIKNS1_7scannerINS1_17position_iteratorINS1_10multi_passISt16istream_iteratorIccSt11char_traitsIcElENS1_19multi_pass_policies14input_iteratorENSF_11ref_countedENSF_12buf_id_checkENSF_9std_dequeEEENS1_18file_position_baseISsEENS1_5nil_tEEENS1_16scanner_policiesINS1_27no_skipper_iteration_policyINS1_24skipper_iteration_policyINS1_16iteration_policyEEEEENS1_12match_policyENS1_13action_policyEEEEEcEEbRT_RT0_Rm@Base 0.47.2
 _ZN5boost6spirit7classic4impl12extract_signINS1_7scannerINS1_10multi_passISt16istream_iteratorIccSt11char_traitsIcElENS1_19multi_pass_policies14input_iteratorENSA_11ref_countedENSA_12buf_id_checkENSA_9std_dequeEEENS1_16scanner_policiesINS1_27no_skipper_iteration_policyINS1_24skipper_iteration_policyINS1_16iteration_policyEEEEENS1_12match_policyENS1_13action_policyEEEEEEEbRKT_Rm@Base 0.47.2
 _ZN5boost6spirit7classic4impl12extract_signINS1_7scannerINS1_17position_iteratorIN9__gnu_cxx17__normal_iteratorIPKcSsEENS1_18file_position_baseISsEENS1_5nil_tEEENS1_16scanner_policiesINS1_27no_skipper_iteration_policyINS1_24skipper_iteration_policyINS1_16iteration_policyEEEEENS1_12match_policyENS1_13action_policyEEEEEEEbRKT_Rm@Base 0.47.2
 _ZN5boost6spirit7classic4impl12extract_signINS1_7scannerINS1_17position_iteratorINS1_10multi_passISt16istream_iteratorIccSt11char_traitsIcElENS1_19multi_pass_policies14input_iteratorENSB_11ref_countedENSB_12buf_id_checkENSB_9std_dequeEEENS1_18file_position_baseISsEENS1_5nil_tEEENS1_16scanner_policiesINS1_27no_skipper_iteration_policyINS1_24skipper_iteration_policyINS1_16iteration_policyEEEEENS1_12match_policyENS1_13action_policyEEEEEEEbRKT_Rm@Base 0.47.2
 _ZN5boost6spirit7classic4impl13phrase_parserINS1_12space_parserEE5parseINS1_10multi_passISt16istream_iteratorIccSt11char_traitsIcElENS1_19multi_pass_policies14input_iteratorENSC_11ref_countedENSC_12buf_id_checkENSC_9std_dequeEEEN11json_spirit12Json_grammerINSI_10Value_implINSI_13Config_vectorISsEEEESH_EEEENS1_10parse_infoIT_EERKSQ_ST_RKT0_RKS4_@Base 0.47.2
 _ZN5boost6spirit7classic4impl13phrase_parserINS1_12space_parserEE5parseINS1_17position_iteratorIN9__gnu_cxx17__normal_iteratorIPKcSsEENS1_18file_position_baseISsEENS1_5nil_tEEEN11json_spirit12Json_grammerINSH_10Value_implINSH_13Config_vectorISsEEEESG_EEEENS1_10parse_infoIT_EERKSP_SS_RKT0_RKS4_@Base 0.47.2
 _ZN5boost6spirit7classic4impl13phrase_parserINS1_12space_parserEE5parseINS1_17position_iteratorINS1_10multi_passISt16istream_iteratorIccSt11char_traitsIcElENS1_19multi_pass_policies14input_iteratorENSD_11ref_countedENSD_12buf_id_checkENSD_9std_dequeEEENS1_18file_position_baseISsEENS1_5nil_tEEEN11json_spirit12Json_grammerINSN_10Value_implINSN_13Config_vectorISsEEEESM_EEEENS1_10parse_infoIT_EERKSV_SY_RKT0_RKS4_@Base 0.47.2
 _ZN5boost6spirit7classic4impl14get_definitionIN11json_spirit12Json_grammerINS4_10Value_implINS4_13Config_vectorISsEEEEN9__gnu_cxx17__normal_iteratorIPKcSsEEEENS1_14parser_contextINS1_5nil_tEEENS1_7scannerISE_NS1_16scanner_policiesINS1_24skipper_iteration_policyINS1_16iteration_policyEEENS1_12match_policyENS1_13action_policyEEEEEEERNT_10definitionIT1_EEPKNS1_7grammarISS_T0_EE@Base 0.47.2
 _ZN5boost6spirit7classic4impl14get_definitionIN11json_spirit12Json_grammerINS4_10Value_implINS4_13Config_vectorISsEEEENS1_10multi_passISt16istream_iteratorIccSt11char_traitsIcElENS1_19multi_pass_policies14input_iteratorENSF_11ref_countedENSF_12buf_id_checkENSF_9std_dequeEEEEENS1_14parser_contextINS1_5nil_tEEENS1_7scannerISK_NS1_16scanner_policiesINS1_24skipper_iteration_policyINS1_16iteration_policyEEENS1_12match_policyENS1_13action_policyEEEEEEERNT_10definitionIT1_EEPKNS1_7grammarISY_T0_EE@Base 0.47.2
 _ZN5boost6spirit7classic4impl14get_definitionIN11json_spirit12Json_grammerINS4_10Value_implINS4_13Config_vectorISsEEEENS1_17position_iteratorIN9__gnu_cxx17__normal_iteratorIPKcSsEENS1_18file_position_baseISsEENS1_5nil_tEEEEENS1_14parser_contextISI_EENS1_7scannerISJ_NS1_16scanner_policiesINS1_24skipper_iteration_policyINS1_16iteration_policyEEENS1_12match_policyENS1_13action_policyEEEEEEERNT_10definitionIT1_EEPKNS1_7grammarISW_T0_EE@Base 0.47.2
 _ZN5boost6spirit7classic4impl14get_definitionIN11json_spirit12Json_grammerINS4_10Value_implINS4_13Config_vectorISsEEEENS1_17position_iteratorINS1_10multi_passISt16istream_iteratorIccSt11char_traitsIcElENS1_19multi_pass_policies14input_iteratorENSG_11ref_countedENSG_12buf_id_checkENSG_9std_dequeEEENS1_18file_position_baseISsEENS1_5nil_tEEEEENS1_14parser_contextISO_EENS1_7scannerISP_NS1_16scanner_policiesINS1_24skipper_iteration_policyINS1_16iteration_policyEEENS1_12match_policyENS1_13action_policyEEEEEEERNT_10definitionIT1_EEPKNS1_7grammarIS12_T0_EE@Base 0.47.2
 _ZN5boost6spirit7classic4impl14grammar_helperINS1_7grammarIN11json_spirit12Json_grammerINS5_10Value_implINS5_13Config_vectorISsEEEEN9__gnu_cxx17__normal_iteratorIPKcSsEEEENS1_14parser_contextINS1_5nil_tEEEEESG_NS1_7scannerISF_NS1_16scanner_policiesINS1_24skipper_iteration_policyINS1_16iteration_policyEEENS1_12match_policyENS1_13action_policyEEEEEE6defineEPKSK_@Base 0.47.2
 _ZN5boost6spirit7classic4impl14grammar_helperINS1_7grammarIN11json_spirit12Json_grammerINS5_10Value_implINS5_13Config_vectorISsEEEEN9__gnu_cxx17__normal_iteratorIPKcSsEEEENS1_14parser_contextINS1_5nil_tEEEEESG_NS1_7scannerISF_NS1_16scanner_policiesINS1_24skipper_iteration_policyINS1_16iteration_policyEEENS1_12match_policyENS1_13action_policyEEEEEE8undefineEPSK_@Base 0.47.2
 _ZN5boost6spirit7classic4impl14grammar_helperINS1_7grammarIN11json_spirit12Json_grammerINS5_10Value_implINS5_13Config_vectorISsEEEEN9__gnu_cxx17__normal_iteratorIPKcSsEEEENS1_14parser_contextINS1_5nil_tEEEEESG_NS1_7scannerISF_NS1_16scanner_policiesINS1_24skipper_iteration_policyINS1_16iteration_policyEEENS1_12match_policyENS1_13action_policyEEEEEEC1ERNS_8weak_ptrISU_EE@Base 0.47.2
 _ZN5boost6spirit7classic4impl14grammar_helperINS1_7grammarIN11json_spirit12Json_grammerINS5_10Value_implINS5_13Config_vectorISsEEEEN9__gnu_cxx17__normal_iteratorIPKcSsEEEENS1_14parser_contextINS1_5nil_tEEEEESG_NS1_7scannerISF_NS1_16scanner_policiesINS1_24skipper_iteration_policyINS1_16iteration_policyEEENS1_12match_policyENS1_13action_policyEEEEEEC2ERNS_8weak_ptrISU_EE@Base 0.47.2
 _ZN5boost6spirit7classic4impl14grammar_helperINS1_7grammarIN11json_spirit12Json_grammerINS5_10Value_implINS5_13Config_vectorISsEEEEN9__gnu_cxx17__normal_iteratorIPKcSsEEEENS1_14parser_contextINS1_5nil_tEEEEESG_NS1_7scannerISF_NS1_16scanner_policiesINS1_24skipper_iteration_policyINS1_16iteration_policyEEENS1_12match_policyENS1_13action_policyEEEEEED0Ev@Base 0.47.2
 _ZN5boost6spirit7classic4impl14grammar_helperINS1_7grammarIN11json_spirit12Json_grammerINS5_10Value_implINS5_13Config_vectorISsEEEEN9__gnu_cxx17__normal_iteratorIPKcSsEEEENS1_14parser_contextINS1_5nil_tEEEEESG_NS1_7scannerISF_NS1_16scanner_policiesINS1_24skipper_iteration_policyINS1_16iteration_policyEEENS1_12match_policyENS1_13action_policyEEEEEED1Ev@Base 0.47.2
 _ZN5boost6spirit7classic4impl14grammar_helperINS1_7grammarIN11json_spirit12Json_grammerINS5_10Value_implINS5_13Config_vectorISsEEEEN9__gnu_cxx17__normal_iteratorIPKcSsEEEENS1_14parser_contextINS1_5nil_tEEEEESG_NS1_7scannerISF_NS1_16scanner_policiesINS1_24skipper_iteration_policyINS1_16iteration_policyEEENS1_12match_policyENS1_13action_policyEEEEEED2Ev@Base 0.47.2
 _ZN5boost6spirit7classic4impl14grammar_helperINS1_7grammarIN11json_spirit12Json_grammerINS5_10Value_implINS5_13Config_vectorISsEEEENS1_10multi_passISt16istream_iteratorIccSt11char_traitsIcElENS1_19multi_pass_policies14input_iteratorENSG_11ref_countedENSG_12buf_id_checkENSG_9std_dequeEEEEENS1_14parser_contextINS1_5nil_tEEEEESM_NS1_7scannerISL_NS1_16scanner_policiesINS1_24skipper_iteration_policyINS1_16iteration_policyEEENS1_12match_policyENS1_13action_policyEEEEEE6defineEPKSQ_@Base 0.47.2
 _ZN5boost6spirit7classic4impl14grammar_helperINS1_7grammarIN11json_spirit12Json_grammerINS5_10Value_implINS5_13Config_vectorISsEEEENS1_10multi_passISt16istream_iteratorIccSt11char_traitsIcElENS1_19multi_pass_policies14input_iteratorENSG_11ref_countedENSG_12buf_id_checkENSG_9std_dequeEEEEENS1_14parser_contextINS1_5nil_tEEEEESM_NS1_7scannerISL_NS1_16scanner_policiesINS1_24skipper_iteration_policyINS1_16iteration_policyEEENS1_12match_policyENS1_13action_policyEEEEEE8undefineEPSQ_@Base 0.47.2
 _ZN5boost6spirit7classic4impl14grammar_helperINS1_7grammarIN11json_spirit12Json_grammerINS5_10Value_implINS5_13Config_vectorISsEEEENS1_10multi_passISt16istream_iteratorIccSt11char_traitsIcElENS1_19multi_pass_policies14input_iteratorENSG_11ref_countedENSG_12buf_id_checkENSG_9std_dequeEEEEENS1_14parser_contextINS1_5nil_tEEEEESM_NS1_7scannerISL_NS1_16scanner_policiesINS1_24skipper_iteration_policyINS1_16iteration_policyEEENS1_12match_policyENS1_13action_policyEEEEEEC1ERNS_8weak_ptrIS10_EE@Base 0.47.2
 _ZN5boost6spirit7classic4impl14grammar_helperINS1_7grammarIN11json_spirit12Json_grammerINS5_10Value_implINS5_13Config_vectorISsEEEENS1_10multi_passISt16istream_iteratorIccSt11char_traitsIcElENS1_19multi_pass_policies14input_iteratorENSG_11ref_countedENSG_12buf_id_checkENSG_9std_dequeEEEEENS1_14parser_contextINS1_5nil_tEEEEESM_NS1_7scannerISL_NS1_16scanner_policiesINS1_24skipper_iteration_policyINS1_16iteration_policyEEENS1_12match_policyENS1_13action_policyEEEEEEC2ERNS_8weak_ptrIS10_EE@Base 0.47.2
 _ZN5boost6spirit7classic4impl14grammar_helperINS1_7grammarIN11json_spirit12Json_grammerINS5_10Value_implINS5_13Config_vectorISsEEEENS1_10multi_passISt16istream_iteratorIccSt11char_traitsIcElENS1_19multi_pass_policies14input_iteratorENSG_11ref_countedENSG_12buf_id_checkENSG_9std_dequeEEEEENS1_14parser_contextINS1_5nil_tEEEEESM_NS1_7scannerISL_NS1_16scanner_policiesINS1_24skipper_iteration_policyINS1_16iteration_policyEEENS1_12match_policyENS1_13action_policyEEEEEED0Ev@Base 0.47.2
 _ZN5boost6spirit7classic4impl14grammar_helperINS1_7grammarIN11json_spirit12Json_grammerINS5_10Value_implINS5_13Config_vectorISsEEEENS1_10multi_passISt16istream_iteratorIccSt11char_traitsIcElENS1_19multi_pass_policies14input_iteratorENSG_11ref_countedENSG_12buf_id_checkENSG_9std_dequeEEEEENS1_14parser_contextINS1_5nil_tEEEEESM_NS1_7scannerISL_NS1_16scanner_policiesINS1_24skipper_iteration_policyINS1_16iteration_policyEEENS1_12match_policyENS1_13action_policyEEEEEED1Ev@Base 0.47.2
 _ZN5boost6spirit7classic4impl14grammar_helperINS1_7grammarIN11json_spirit12Json_grammerINS5_10Value_implINS5_13Config_vectorISsEEEENS1_10multi_passISt16istream_iteratorIccSt11char_traitsIcElENS1_19multi_pass_policies14input_iteratorENSG_11ref_countedENSG_12buf_id_checkENSG_9std_dequeEEEEENS1_14parser_contextINS1_5nil_tEEEEESM_NS1_7scannerISL_NS1_16scanner_policiesINS1_24skipper_iteration_policyINS1_16iteration_policyEEENS1_12match_policyENS1_13action_policyEEEEEED2Ev@Base 0.47.2
 _ZN5boost6spirit7classic4impl14grammar_helperINS1_7grammarIN11json_spirit12Json_grammerINS5_10Value_implINS5_13Config_vectorISsEEEENS1_17position_iteratorIN9__gnu_cxx17__normal_iteratorIPKcSsEENS1_18file_position_baseISsEENS1_5nil_tEEEEENS1_14parser_contextISJ_EEEESL_NS1_7scannerISK_NS1_16scanner_policiesINS1_24skipper_iteration_policyINS1_16iteration_policyEEENS1_12match_policyENS1_13action_policyEEEEEE6defineEPKSO_@Base 0.47.2
 _ZN5boost6spirit7classic4impl14grammar_helperINS1_7grammarIN11json_spirit12Json_grammerINS5_10Value_implINS5_13Config_vectorISsEEEENS1_17position_iteratorIN9__gnu_cxx17__normal_iteratorIPKcSsEENS1_18file_position_baseISsEENS1_5nil_tEEEEENS1_14parser_contextISJ_EEEESL_NS1_7scannerISK_NS1_16scanner_policiesINS1_24skipper_iteration_policyINS1_16iteration_policyEEENS1_12match_policyENS1_13action_policyEEEEEE8undefineEPSO_@Base 0.47.2
 _ZN5boost6spirit7classic4impl14grammar_helperINS1_7grammarIN11json_spirit12Json_grammerINS5_10Value_implINS5_13Config_vectorISsEEEENS1_17position_iteratorIN9__gnu_cxx17__normal_iteratorIPKcSsEENS1_18file_position_baseISsEENS1_5nil_tEEEEENS1_14parser_contextISJ_EEEESL_NS1_7scannerISK_NS1_16scanner_policiesINS1_24skipper_iteration_policyINS1_16iteration_policyEEENS1_12match_policyENS1_13action_policyEEEEEEC1ERNS_8weak_ptrISY_EE@Base 0.47.2
 _ZN5boost6spirit7classic4impl14grammar_helperINS1_7grammarIN11json_spirit12Json_grammerINS5_10Value_implINS5_13Config_vectorISsEEEENS1_17position_iteratorIN9__gnu_cxx17__normal_iteratorIPKcSsEENS1_18file_position_baseISsEENS1_5nil_tEEEEENS1_14parser_contextISJ_EEEESL_NS1_7scannerISK_NS1_16scanner_policiesINS1_24skipper_iteration_policyINS1_16iteration_policyEEENS1_12match_policyENS1_13action_policyEEEEEEC2ERNS_8weak_ptrISY_EE@Base 0.47.2
 _ZN5boost6spirit7classic4impl14grammar_helperINS1_7grammarIN11json_spirit12Json_grammerINS5_10Value_implINS5_13Config_vectorISsEEEENS1_17position_iteratorIN9__gnu_cxx17__normal_iteratorIPKcSsEENS1_18file_position_baseISsEENS1_5nil_tEEEEENS1_14parser_contextISJ_EEEESL_NS1_7scannerISK_NS1_16scanner_policiesINS1_24skipper_iteration_policyINS1_16iteration_policyEEENS1_12match_policyENS1_13action_policyEEEEEED0Ev@Base 0.47.2
 _ZN5boost6spirit7classic4impl14grammar_helperINS1_7grammarIN11json_spirit12Json_grammerINS5_10Value_implINS5_13Config_vectorISsEEEENS1_17position_iteratorIN9__gnu_cxx17__normal_iteratorIPKcSsEENS1_18file_position_baseISsEENS1_5nil_tEEEEENS1_14parser_contextISJ_EEEESL_NS1_7scannerISK_NS1_16scanner_policiesINS1_24skipper_iteration_policyINS1_16iteration_policyEEENS1_12match_policyENS1_13action_policyEEEEEED1Ev@Base 0.47.2
 _ZN5boost6spirit7classic4impl14grammar_helperINS1_7grammarIN11json_spirit12Json_grammerINS5_10Value_implINS5_13Config_vectorISsEEEENS1_17position_iteratorIN9__gnu_cxx17__normal_iteratorIPKcSsEENS1_18file_position_baseISsEENS1_5nil_tEEEEENS1_14parser_contextISJ_EEEESL_NS1_7scannerISK_NS1_16scanner_policiesINS1_24skipper_iteration_policyINS1_16iteration_policyEEENS1_12match_policyENS1_13action_policyEEEEEED2Ev@Base 0.47.2
 _ZN5boost6spirit7classic4impl14grammar_helperINS1_7grammarIN11json_spirit12Json_grammerINS5_10Value_implINS5_13Config_vectorISsEEEENS1_17position_iteratorINS1_10multi_passISt16istream_iteratorIccSt11char_traitsIcElENS1_19multi_pass_policies14input_iteratorENSH_11ref_countedENSH_12buf_id_checkENSH_9std_dequeEEENS1_18file_position_baseISsEENS1_5nil_tEEEEENS1_14parser_contextISP_EEEESR_NS1_7scannerISQ_NS1_16scanner_policiesINS1_24skipper_iteration_policyINS1_16iteration_policyEEENS1_12match_policyENS1_13action_policyEEEEEE6defineEPKSU_@Base 0.47.2
 _ZN5boost6spirit7classic4impl14grammar_helperINS1_7grammarIN11json_spirit12Json_grammerINS5_10Value_implINS5_13Config_vectorISsEEEENS1_17position_iteratorINS1_10multi_passISt16istream_iteratorIccSt11char_traitsIcElENS1_19multi_pass_policies14input_iteratorENSH_11ref_countedENSH_12buf_id_checkENSH_9std_dequeEEENS1_18file_position_baseISsEENS1_5nil_tEEEEENS1_14parser_contextISP_EEEESR_NS1_7scannerISQ_NS1_16scanner_policiesINS1_24skipper_iteration_policyINS1_16iteration_policyEEENS1_12match_policyENS1_13action_policyEEEEEE8undefineEPSU_@Base 0.47.2
 _ZN5boost6spirit7classic4impl14grammar_helperINS1_7grammarIN11json_spirit12Json_grammerINS5_10Value_implINS5_13Config_vectorISsEEEENS1_17position_iteratorINS1_10multi_passISt16istream_iteratorIccSt11char_traitsIcElENS1_19multi_pass_policies14input_iteratorENSH_11ref_countedENSH_12buf_id_checkENSH_9std_dequeEEENS1_18file_position_baseISsEENS1_5nil_tEEEEENS1_14parser_contextISP_EEEESR_NS1_7scannerISQ_NS1_16scanner_policiesINS1_24skipper_iteration_policyINS1_16iteration_policyEEENS1_12match_policyENS1_13action_policyEEEEEEC1ERNS_8weak_ptrIS14_EE@Base 0.47.2
 _ZN5boost6spirit7classic4impl14grammar_helperINS1_7grammarIN11json_spirit12Json_grammerINS5_10Value_implINS5_13Config_vectorISsEEEENS1_17position_iteratorINS1_10multi_passISt16istream_iteratorIccSt11char_traitsIcElENS1_19multi_pass_policies14input_iteratorENSH_11ref_countedENSH_12buf_id_checkENSH_9std_dequeEEENS1_18file_position_baseISsEENS1_5nil_tEEEEENS1_14parser_contextISP_EEEESR_NS1_7scannerISQ_NS1_16scanner_policiesINS1_24skipper_iteration_policyINS1_16iteration_policyEEENS1_12match_policyENS1_13action_policyEEEEEEC2ERNS_8weak_ptrIS14_EE@Base 0.47.2
 _ZN5boost6spirit7classic4impl14grammar_helperINS1_7grammarIN11json_spirit12Json_grammerINS5_10Value_implINS5_13Config_vectorISsEEEENS1_17position_iteratorINS1_10multi_passISt16istream_iteratorIccSt11char_traitsIcElENS1_19multi_pass_policies14input_iteratorENSH_11ref_countedENSH_12buf_id_checkENSH_9std_dequeEEENS1_18file_position_baseISsEENS1_5nil_tEEEEENS1_14parser_contextISP_EEEESR_NS1_7scannerISQ_NS1_16scanner_policiesINS1_24skipper_iteration_policyINS1_16iteration_policyEEENS1_12match_policyENS1_13action_policyEEEEEED0Ev@Base 0.47.2
 _ZN5boost6spirit7classic4impl14grammar_helperINS1_7grammarIN11json_spirit12Json_grammerINS5_10Value_implINS5_13Config_vectorISsEEEENS1_17position_iteratorINS1_10multi_passISt16istream_iteratorIccSt11char_traitsIcElENS1_19multi_pass_policies14input_iteratorENSH_11ref_countedENSH_12buf_id_checkENSH_9std_dequeEEENS1_18file_position_baseISsEENS1_5nil_tEEEEENS1_14parser_contextISP_EEEESR_NS1_7scannerISQ_NS1_16scanner_policiesINS1_24skipper_iteration_policyINS1_16iteration_policyEEENS1_12match_policyENS1_13action_policyEEEEEED1Ev@Base 0.47.2
 _ZN5boost6spirit7classic4impl14grammar_helperINS1_7grammarIN11json_spirit12Json_grammerINS5_10Value_implINS5_13Config_vectorISsEEEENS1_17position_iteratorINS1_10multi_passISt16istream_iteratorIccSt11char_traitsIcElENS1_19multi_pass_policies14input_iteratorENSH_11ref_countedENSH_12buf_id_checkENSH_9std_dequeEEENS1_18file_position_baseISsEENS1_5nil_tEEEEENS1_14parser_contextISP_EEEESR_NS1_7scannerISQ_NS1_16scanner_policiesINS1_24skipper_iteration_policyINS1_16iteration_policyEEENS1_12match_policyENS1_13action_policyEEEEEED2Ev@Base 0.47.2
 _ZN5boost6spirit7classic4impl14object_with_idINS2_11grammar_tagEmED1Ev@Base 0.47.2
 _ZN5boost6spirit7classic4impl14object_with_idINS2_11grammar_tagEmED2Ev@Base 0.47.2
 _ZN5boost6spirit7classic4impl15abstract_parserINS1_7scannerIN9__gnu_cxx17__normal_iteratorIPKcSsEENS1_16scanner_policiesINS1_24skipper_iteration_policyINS1_16iteration_policyEEENS1_12match_policyENS1_13action_policyEEEEENS1_5nil_tEED0Ev@Base 0.47.2
 _ZN5boost6spirit7classic4impl15abstract_parserINS1_7scannerIN9__gnu_cxx17__normal_iteratorIPKcSsEENS1_16scanner_policiesINS1_24skipper_iteration_policyINS1_16iteration_policyEEENS1_12match_policyENS1_13action_policyEEEEENS1_5nil_tEED1Ev@Base 0.47.2
 _ZN5boost6spirit7classic4impl15abstract_parserINS1_7scannerIN9__gnu_cxx17__normal_iteratorIPKcSsEENS1_16scanner_policiesINS1_24skipper_iteration_policyINS1_16iteration_policyEEENS1_12match_policyENS1_13action_policyEEEEENS1_5nil_tEED2Ev@Base 0.47.2
 _ZN5boost6spirit7classic4impl15abstract_parserINS1_7scannerINS1_10multi_passISt16istream_iteratorIccSt11char_traitsIcElENS1_19multi_pass_policies14input_iteratorENSA_11ref_countedENSA_12buf_id_checkENSA_9std_dequeEEENS1_16scanner_policiesINS1_24skipper_iteration_policyINS1_16iteration_policyEEENS1_12match_policyENS1_13action_policyEEEEENS1_5nil_tEED0Ev@Base 0.47.2
 _ZN5boost6spirit7classic4impl15abstract_parserINS1_7scannerINS1_10multi_passISt16istream_iteratorIccSt11char_traitsIcElENS1_19multi_pass_policies14input_iteratorENSA_11ref_countedENSA_12buf_id_checkENSA_9std_dequeEEENS1_16scanner_policiesINS1_24skipper_iteration_policyINS1_16iteration_policyEEENS1_12match_policyENS1_13action_policyEEEEENS1_5nil_tEED1Ev@Base 0.47.2
 _ZN5boost6spirit7classic4impl15abstract_parserINS1_7scannerINS1_10multi_passISt16istream_iteratorIccSt11char_traitsIcElENS1_19multi_pass_policies14input_iteratorENSA_11ref_countedENSA_12buf_id_checkENSA_9std_dequeEEENS1_16scanner_policiesINS1_24skipper_iteration_policyINS1_16iteration_policyEEENS1_12match_policyENS1_13action_policyEEEEENS1_5nil_tEED2Ev@Base 0.47.2
 _ZN5boost6spirit7classic4impl15abstract_parserINS1_7scannerINS1_17position_iteratorIN9__gnu_cxx17__normal_iteratorIPKcSsEENS1_18file_position_baseISsEENS1_5nil_tEEENS1_16scanner_policiesINS1_24skipper_iteration_policyINS1_16iteration_policyEEENS1_12match_policyENS1_13action_policyEEEEESD_ED0Ev@Base 0.47.2
 _ZN5boost6spirit7classic4impl15abstract_parserINS1_7scannerINS1_17position_iteratorIN9__gnu_cxx17__normal_iteratorIPKcSsEENS1_18file_position_baseISsEENS1_5nil_tEEENS1_16scanner_policiesINS1_24skipper_iteration_policyINS1_16iteration_policyEEENS1_12match_policyENS1_13action_policyEEEEESD_ED1Ev@Base 0.47.2
 _ZN5boost6spirit7classic4impl15abstract_parserINS1_7scannerINS1_17position_iteratorIN9__gnu_cxx17__normal_iteratorIPKcSsEENS1_18file_position_baseISsEENS1_5nil_tEEENS1_16scanner_policiesINS1_24skipper_iteration_policyINS1_16iteration_policyEEENS1_12match_policyENS1_13action_policyEEEEESD_ED2Ev@Base 0.47.2
 _ZN5boost6spirit7classic4impl15abstract_parserINS1_7scannerINS1_17position_iteratorINS1_10multi_passISt16istream_iteratorIccSt11char_traitsIcElENS1_19multi_pass_policies14input_iteratorENSB_11ref_countedENSB_12buf_id_checkENSB_9std_dequeEEENS1_18file_position_baseISsEENS1_5nil_tEEENS1_16scanner_policiesINS1_24skipper_iteration_policyINS1_16iteration_policyEEENS1_12match_policyENS1_13action_policyEEEEESJ_ED0Ev@Base 0.47.2
 _ZN5boost6spirit7classic4impl15abstract_parserINS1_7scannerINS1_17position_iteratorINS1_10multi_passISt16istream_iteratorIccSt11char_traitsIcElENS1_19multi_pass_policies14input_iteratorENSB_11ref_countedENSB_12buf_id_checkENSB_9std_dequeEEENS1_18file_position_baseISsEENS1_5nil_tEEENS1_16scanner_policiesINS1_24skipper_iteration_policyINS1_16iteration_policyEEENS1_12match_policyENS1_13action_policyEEEEESJ_ED1Ev@Base 0.47.2
 _ZN5boost6spirit7classic4impl15abstract_parserINS1_7scannerINS1_17position_iteratorINS1_10multi_passISt16istream_iteratorIccSt11char_traitsIcElENS1_19multi_pass_policies14input_iteratorENSB_11ref_countedENSB_12buf_id_checkENSB_9std_dequeEEENS1_18file_position_baseISsEENS1_5nil_tEEENS1_16scanner_policiesINS1_24skipper_iteration_policyINS1_16iteration_policyEEENS1_12match_policyENS1_13action_policyEEEEESJ_ED2Ev@Base 0.47.2
 _ZN5boost6spirit7classic4impl15concrete_parserINS1_10contiguousINS1_13confix_parserINS1_5chlitIcEENS1_11kleene_starINS1_18escape_char_parserILm2EcEEEES7_NS1_21unary_parser_categoryENS1_10non_nestedENS1_10non_lexemeEEEEENS1_7scannerIN9__gnu_cxx17__normal_iteratorIPKcSsEENS1_16scanner_policiesINS1_24skipper_iteration_policyINS1_16iteration_policyEEENS1_12match_policyENS1_13action_policyEEEEENS1_5nil_tEED0Ev@Base 0.47.2
 _ZN5boost6spirit7classic4impl15concrete_parserINS1_10contiguousINS1_13confix_parserINS1_5chlitIcEENS1_11kleene_starINS1_18escape_char_parserILm2EcEEEES7_NS1_21unary_parser_categoryENS1_10non_nestedENS1_10non_lexemeEEEEENS1_7scannerIN9__gnu_cxx17__normal_iteratorIPKcSsEENS1_16scanner_policiesINS1_24skipper_iteration_policyINS1_16iteration_policyEEENS1_12match_policyENS1_13action_policyEEEEENS1_5nil_tEED1Ev@Base 0.47.2
 _ZN5boost6spirit7classic4impl15concrete_parserINS1_10contiguousINS1_13confix_parserINS1_5chlitIcEENS1_11kleene_starINS1_18escape_char_parserILm2EcEEEES7_NS1_21unary_parser_categoryENS1_10non_nestedENS1_10non_lexemeEEEEENS1_7scannerIN9__gnu_cxx17__normal_iteratorIPKcSsEENS1_16scanner_policiesINS1_24skipper_iteration_policyINS1_16iteration_policyEEENS1_12match_policyENS1_13action_policyEEEEENS1_5nil_tEED2Ev@Base 0.47.2
 _ZN5boost6spirit7classic4impl15concrete_parserINS1_10contiguousINS1_13confix_parserINS1_5chlitIcEENS1_11kleene_starINS1_18escape_char_parserILm2EcEEEES7_NS1_21unary_parser_categoryENS1_10non_nestedENS1_10non_lexemeEEEEENS1_7scannerINS1_10multi_passISt16istream_iteratorIccSt11char_traitsIcElENS1_19multi_pass_policies14input_iteratorENSN_11ref_countedENSN_12buf_id_checkENSN_9std_dequeEEENS1_16scanner_policiesINS1_24skipper_iteration_policyINS1_16iteration_policyEEENS1_12match_policyENS1_13action_policyEEEEENS1_5nil_tEED0Ev@Base 0.47.2
 _ZN5boost6spirit7classic4impl15concrete_parserINS1_10contiguousINS1_13confix_parserINS1_5chlitIcEENS1_11kleene_starINS1_18escape_char_parserILm2EcEEEES7_NS1_21unary_parser_categoryENS1_10non_nestedENS1_10non_lexemeEEEEENS1_7scannerINS1_10multi_passISt16istream_iteratorIccSt11char_traitsIcElENS1_19multi_pass_policies14input_iteratorENSN_11ref_countedENSN_12buf_id_checkENSN_9std_dequeEEENS1_16scanner_policiesINS1_24skipper_iteration_policyINS1_16iteration_policyEEENS1_12match_policyENS1_13action_policyEEEEENS1_5nil_tEED1Ev@Base 0.47.2
 _ZN5boost6spirit7classic4impl15concrete_parserINS1_10contiguousINS1_13confix_parserINS1_5chlitIcEENS1_11kleene_starINS1_18escape_char_parserILm2EcEEEES7_NS1_21unary_parser_categoryENS1_10non_nestedENS1_10non_lexemeEEEEENS1_7scannerINS1_10multi_passISt16istream_iteratorIccSt11char_traitsIcElENS1_19multi_pass_policies14input_iteratorENSN_11ref_countedENSN_12buf_id_checkENSN_9std_dequeEEENS1_16scanner_policiesINS1_24skipper_iteration_policyINS1_16iteration_policyEEENS1_12match_policyENS1_13action_policyEEEEENS1_5nil_tEED2Ev@Base 0.47.2
 _ZN5boost6spirit7classic4impl15concrete_parserINS1_10contiguousINS1_13confix_parserINS1_5chlitIcEENS1_11kleene_starINS1_18escape_char_parserILm2EcEEEES7_NS1_21unary_parser_categoryENS1_10non_nestedENS1_10non_lexemeEEEEENS1_7scannerINS1_17position_iteratorIN9__gnu_cxx17__normal_iteratorIPKcSsEENS1_18file_position_baseISsEENS1_5nil_tEEENS1_16scanner_policiesINS1_24skipper_iteration_policyINS1_16iteration_policyEEENS1_12match_policyENS1_13action_policyEEEEESQ_ED0Ev@Base 0.47.2
 _ZN5boost6spirit7classic4impl15concrete_parserINS1_10contiguousINS1_13confix_parserINS1_5chlitIcEENS1_11kleene_starINS1_18escape_char_parserILm2EcEEEES7_NS1_21unary_parser_categoryENS1_10non_nestedENS1_10non_lexemeEEEEENS1_7scannerINS1_17position_iteratorIN9__gnu_cxx17__normal_iteratorIPKcSsEENS1_18file_position_baseISsEENS1_5nil_tEEENS1_16scanner_policiesINS1_24skipper_iteration_policyINS1_16iteration_policyEEENS1_12match_policyENS1_13action_policyEEEEESQ_ED1Ev@Base 0.47.2
 _ZN5boost6spirit7classic4impl15concrete_parserINS1_10contiguousINS1_13confix_parserINS1_5chlitIcEENS1_11kleene_starINS1_18escape_char_parserILm2EcEEEES7_NS1_21unary_parser_categoryENS1_10non_nestedENS1_10non_lexemeEEEEENS1_7scannerINS1_17position_iteratorIN9__gnu_cxx17__normal_iteratorIPKcSsEENS1_18file_position_baseISsEENS1_5nil_tEEENS1_16scanner_policiesINS1_24skipper_iteration_policyINS1_16iteration_policyEEENS1_12match_policyENS1_13action_policyEEEEESQ_ED2Ev@Base 0.47.2
 _ZN5boost6spirit7classic4impl15concrete_parserINS1_10contiguousINS1_13confix_parserINS1_5chlitIcEENS1_11kleene_starINS1_18escape_char_parserILm2EcEEEES7_NS1_21unary_parser_categoryENS1_10non_nestedENS1_10non_lexemeEEEEENS1_7scannerINS1_17position_iteratorINS1_10multi_passISt16istream_iteratorIccSt11char_traitsIcElENS1_19multi_pass_policies14input_iteratorENSO_11ref_countedENSO_12buf_id_checkENSO_9std_dequeEEENS1_18file_position_baseISsEENS1_5nil_tEEENS1_16scanner_policiesINS1_24skipper_iteration_policyINS1_16iteration_policyEEENS1_12match_policyENS1_13action_policyEEEEESW_ED0Ev@Base 0.47.2
 _ZN5boost6spirit7classic4impl15concrete_parserINS1_10contiguousINS1_13confix_parserINS1_5chlitIcEENS1_11kleene_starINS1_18escape_char_parserILm2EcEEEES7_NS1_21unary_parser_categoryENS1_10non_nestedENS1_10non_lexemeEEEEENS1_7scannerINS1_17position_iteratorINS1_10multi_passISt16istream_iteratorIccSt11char_traitsIcElENS1_19multi_pass_policies14input_iteratorENSO_11ref_countedENSO_12buf_id_checkENSO_9std_dequeEEENS1_18file_position_baseISsEENS1_5nil_tEEENS1_16scanner_policiesINS1_24skipper_iteration_policyINS1_16iteration_policyEEENS1_12match_policyENS1_13action_policyEEEEESW_ED1Ev@Base 0.47.2
 _ZN5boost6spirit7classic4impl15concrete_parserINS1_10contiguousINS1_13confix_parserINS1_5chlitIcEENS1_11kleene_starINS1_18escape_char_parserILm2EcEEEES7_NS1_21unary_parser_categoryENS1_10non_nestedENS1_10non_lexemeEEEEENS1_7scannerINS1_17position_iteratorINS1_10multi_passISt16istream_iteratorIccSt11char_traitsIcElENS1_19multi_pass_policies14input_iteratorENSO_11ref_countedENSO_12buf_id_checkENSO_9std_dequeEEENS1_18file_position_baseISsEENS1_5nil_tEEENS1_16scanner_policiesINS1_24skipper_iteration_policyINS1_16iteration_policyEEENS1_12match_policyENS1_13action_policyEEEEESW_ED2Ev@Base 0.47.2
 _ZN5boost6spirit7classic4impl15concrete_parserINS1_11alternativeINS1_4ruleINS1_7scannerIN9__gnu_cxx17__normal_iteratorIPKcSsEENS1_16scanner_policiesINS1_24skipper_iteration_policyINS1_16iteration_policyEEENS1_12match_policyENS1_13action_policyEEEEENS1_5nil_tESK_EENS1_6actionINS1_14epsilon_parserEPFvSB_SB_EEEEESJ_SK_ED0Ev@Base 0.47.2
 _ZN5boost6spirit7classic4impl15concrete_parserINS1_11alternativeINS1_4ruleINS1_7scannerIN9__gnu_cxx17__normal_iteratorIPKcSsEENS1_16scanner_policiesINS1_24skipper_iteration_policyINS1_16iteration_policyEEENS1_12match_policyENS1_13action_policyEEEEENS1_5nil_tESK_EENS1_6actionINS1_14epsilon_parserEPFvSB_SB_EEEEESJ_SK_ED1Ev@Base 0.47.2
 _ZN5boost6spirit7classic4impl15concrete_parserINS1_11alternativeINS1_4ruleINS1_7scannerIN9__gnu_cxx17__normal_iteratorIPKcSsEENS1_16scanner_policiesINS1_24skipper_iteration_policyINS1_16iteration_policyEEENS1_12match_policyENS1_13action_policyEEEEENS1_5nil_tESK_EENS1_6actionINS1_14epsilon_parserEPFvSB_SB_EEEEESJ_SK_ED2Ev@Base 0.47.2
 _ZN5boost6spirit7classic4impl15concrete_parserINS1_11alternativeINS1_4ruleINS1_7scannerINS1_10multi_passISt16istream_iteratorIccSt11char_traitsIcElENS1_19multi_pass_policies14input_iteratorENSC_11ref_countedENSC_12buf_id_checkENSC_9std_dequeEEENS1_16scanner_policiesINS1_24skipper_iteration_policyINS1_16iteration_policyEEENS1_12match_policyENS1_13action_policyEEEEENS1_5nil_tESQ_EENS1_6actionINS1_14epsilon_parserEPFvSH_SH_EEEEESP_SQ_ED0Ev@Base 0.47.2
 _ZN5boost6spirit7classic4impl15concrete_parserINS1_11alternativeINS1_4ruleINS1_7scannerINS1_10multi_passISt16istream_iteratorIccSt11char_traitsIcElENS1_19multi_pass_policies14input_iteratorENSC_11ref_countedENSC_12buf_id_checkENSC_9std_dequeEEENS1_16scanner_policiesINS1_24skipper_iteration_policyINS1_16iteration_policyEEENS1_12match_policyENS1_13action_policyEEEEENS1_5nil_tESQ_EENS1_6actionINS1_14epsilon_parserEPFvSH_SH_EEEEESP_SQ_ED1Ev@Base 0.47.2
 _ZN5boost6spirit7classic4impl15concrete_parserINS1_11alternativeINS1_4ruleINS1_7scannerINS1_10multi_passISt16istream_iteratorIccSt11char_traitsIcElENS1_19multi_pass_policies14input_iteratorENSC_11ref_countedENSC_12buf_id_checkENSC_9std_dequeEEENS1_16scanner_policiesINS1_24skipper_iteration_policyINS1_16iteration_policyEEENS1_12match_policyENS1_13action_policyEEEEENS1_5nil_tESQ_EENS1_6actionINS1_14epsilon_parserEPFvSH_SH_EEEEESP_SQ_ED2Ev@Base 0.47.2
 _ZN5boost6spirit7classic4impl15concrete_parserINS1_11alternativeINS1_4ruleINS1_7scannerINS1_17position_iteratorIN9__gnu_cxx17__normal_iteratorIPKcSsEENS1_18file_position_baseISsEENS1_5nil_tEEENS1_16scanner_policiesINS1_24skipper_iteration_policyINS1_16iteration_policyEEENS1_12match_policyENS1_13action_policyEEEEESF_SF_EENS1_6actionINS1_14epsilon_parserEPFvSG_SG_EEEEESO_SF_ED0Ev@Base 0.47.2
 _ZN5boost6spirit7classic4impl15concrete_parserINS1_11alternativeINS1_4ruleINS1_7scannerINS1_17position_iteratorIN9__gnu_cxx17__normal_iteratorIPKcSsEENS1_18file_position_baseISsEENS1_5nil_tEEENS1_16scanner_policiesINS1_24skipper_iteration_policyINS1_16iteration_policyEEENS1_12match_policyENS1_13action_policyEEEEESF_SF_EENS1_6actionINS1_14epsilon_parserEPFvSG_SG_EEEEESO_SF_ED1Ev@Base 0.47.2
 _ZN5boost6spirit7classic4impl15concrete_parserINS1_11alternativeINS1_4ruleINS1_7scannerINS1_17position_iteratorIN9__gnu_cxx17__normal_iteratorIPKcSsEENS1_18file_position_baseISsEENS1_5nil_tEEENS1_16scanner_policiesINS1_24skipper_iteration_policyINS1_16iteration_policyEEENS1_12match_policyENS1_13action_policyEEEEESF_SF_EENS1_6actionINS1_14epsilon_parserEPFvSG_SG_EEEEESO_SF_ED2Ev@Base 0.47.2
 _ZN5boost6spirit7classic4impl15concrete_parserINS1_11alternativeINS1_4ruleINS1_7scannerINS1_17position_iteratorINS1_10multi_passISt16istream_iteratorIccSt11char_traitsIcElENS1_19multi_pass_policies14input_iteratorENSD_11ref_countedENSD_12buf_id_checkENSD_9std_dequeEEENS1_18file_position_baseISsEENS1_5nil_tEEENS1_16scanner_policiesINS1_24skipper_iteration_policyINS1_16iteration_policyEEENS1_12match_policyENS1_13action_policyEEEEESL_SL_EENS1_6actionINS1_14epsilon_parserEPFvSM_SM_EEEEESU_SL_ED0Ev@Base 0.47.2
 _ZN5boost6spirit7classic4impl15concrete_parserINS1_11alternativeINS1_4ruleINS1_7scannerINS1_17position_iteratorINS1_10multi_passISt16istream_iteratorIccSt11char_traitsIcElENS1_19multi_pass_policies14input_iteratorENSD_11ref_countedENSD_12buf_id_checkENSD_9std_dequeEEENS1_18file_position_baseISsEENS1_5nil_tEEENS1_16scanner_policiesINS1_24skipper_iteration_policyINS1_16iteration_policyEEENS1_12match_policyENS1_13action_policyEEEEESL_SL_EENS1_6actionINS1_14epsilon_parserEPFvSM_SM_EEEEESU_SL_ED1Ev@Base 0.47.2
 _ZN5boost6spirit7classic4impl15concrete_parserINS1_11alternativeINS1_4ruleINS1_7scannerINS1_17position_iteratorINS1_10multi_passISt16istream_iteratorIccSt11char_traitsIcElENS1_19multi_pass_policies14input_iteratorENSD_11ref_countedENSD_12buf_id_checkENSD_9std_dequeEEENS1_18file_position_baseISsEENS1_5nil_tEEENS1_16scanner_policiesINS1_24skipper_iteration_policyINS1_16iteration_policyEEENS1_12match_policyENS1_13action_policyEEEEESL_SL_EENS1_6actionINS1_14epsilon_parserEPFvSM_SM_EEEEESU_SL_ED2Ev@Base 0.47.2
 _ZN5boost6spirit7classic4impl15concrete_parserINS1_11alternativeINS4_INS1_6actionINS1_11real_parserIdNS1_27strict_real_parser_policiesIdEEEENS_8functionIFvdEEEEENS5_INS1_10int_parserIlLi10ELj1ELin1EEENSA_IFvlEEEEEEENS5_INS1_11uint_parserImLi10ELj1ELin1EEENSA_IFvmEEEEEEENS1_7scannerIN9__gnu_cxx17__normal_iteratorIPKcSsEENS1_16scanner_policiesINS1_24skipper_iteration_policyINS1_16iteration_policyEEENS1_12match_policyENS1_13action_policyEEEEENS1_5nil_tEEC1ERKSP_@Base 0.47.2
 _ZN5boost6spirit7classic4impl15concrete_parserINS1_11alternativeINS4_INS1_6actionINS1_11real_parserIdNS1_27strict_real_parser_policiesIdEEEENS_8functionIFvdEEEEENS5_INS1_10int_parserIlLi10ELj1ELin1EEENSA_IFvlEEEEEEENS5_INS1_11uint_parserImLi10ELj1ELin1EEENSA_IFvmEEEEEEENS1_7scannerIN9__gnu_cxx17__normal_iteratorIPKcSsEENS1_16scanner_policiesINS1_24skipper_iteration_policyINS1_16iteration_policyEEENS1_12match_policyENS1_13action_policyEEEEENS1_5nil_tEEC2ERKSP_@Base 0.47.2
 _ZN5boost6spirit7classic4impl15concrete_parserINS1_11alternativeINS4_INS1_6actionINS1_11real_parserIdNS1_27strict_real_parser_policiesIdEEEENS_8functionIFvdEEEEENS5_INS1_10int_parserIlLi10ELj1ELin1EEENSA_IFvlEEEEEEENS5_INS1_11uint_parserImLi10ELj1ELin1EEENSA_IFvmEEEEEEENS1_7scannerIN9__gnu_cxx17__normal_iteratorIPKcSsEENS1_16scanner_policiesINS1_24skipper_iteration_policyINS1_16iteration_policyEEENS1_12match_policyENS1_13action_policyEEEEENS1_5nil_tEED0Ev@Base 0.47.2
 _ZN5boost6spirit7classic4impl15concrete_parserINS1_11alternativeINS4_INS1_6actionINS1_11real_parserIdNS1_27strict_real_parser_policiesIdEEEENS_8functionIFvdEEEEENS5_INS1_10int_parserIlLi10ELj1ELin1EEENSA_IFvlEEEEEEENS5_INS1_11uint_parserImLi10ELj1ELin1EEENSA_IFvmEEEEEEENS1_7scannerIN9__gnu_cxx17__normal_iteratorIPKcSsEENS1_16scanner_policiesINS1_24skipper_iteration_policyINS1_16iteration_policyEEENS1_12match_policyENS1_13action_policyEEEEENS1_5nil_tEED1Ev@Base 0.47.2
 _ZN5boost6spirit7classic4impl15concrete_parserINS1_11alternativeINS4_INS1_6actionINS1_11real_parserIdNS1_27strict_real_parser_policiesIdEEEENS_8functionIFvdEEEEENS5_INS1_10int_parserIlLi10ELj1ELin1EEENSA_IFvlEEEEEEENS5_INS1_11uint_parserImLi10ELj1ELin1EEENSA_IFvmEEEEEEENS1_7scannerIN9__gnu_cxx17__normal_iteratorIPKcSsEENS1_16scanner_policiesINS1_24skipper_iteration_policyINS1_16iteration_policyEEENS1_12match_policyENS1_13action_policyEEEEENS1_5nil_tEED2Ev@Base 0.47.2
 _ZN5boost6spirit7classic4impl15concrete_parserINS1_11alternativeINS4_INS1_6actionINS1_11real_parserIdNS1_27strict_real_parser_policiesIdEEEENS_8functionIFvdEEEEENS5_INS1_10int_parserIlLi10ELj1ELin1EEENSA_IFvlEEEEEEENS5_INS1_11uint_parserImLi10ELj1ELin1EEENSA_IFvmEEEEEEENS1_7scannerINS1_10multi_passISt16istream_iteratorIccSt11char_traitsIcElENS1_19multi_pass_policies14input_iteratorENSW_11ref_countedENSW_12buf_id_checkENSW_9std_dequeEEENS1_16scanner_policiesINS1_24skipper_iteration_policyINS1_16iteration_policyEEENS1_12match_policyENS1_13action_policyEEEEENS1_5nil_tEEC1ERKSP_@Base 0.47.2
 _ZN5boost6spirit7classic4impl15concrete_parserINS1_11alternativeINS4_INS1_6actionINS1_11real_parserIdNS1_27strict_real_parser_policiesIdEEEENS_8functionIFvdEEEEENS5_INS1_10int_parserIlLi10ELj1ELin1EEENSA_IFvlEEEEEEENS5_INS1_11uint_parserImLi10ELj1ELin1EEENSA_IFvmEEEEEEENS1_7scannerINS1_10multi_passISt16istream_iteratorIccSt11char_traitsIcElENS1_19multi_pass_policies14input_iteratorENSW_11ref_countedENSW_12buf_id_checkENSW_9std_dequeEEENS1_16scanner_policiesINS1_24skipper_iteration_policyINS1_16iteration_policyEEENS1_12match_policyENS1_13action_policyEEEEENS1_5nil_tEEC2ERKSP_@Base 0.47.2
 _ZN5boost6spirit7classic4impl15concrete_parserINS1_11alternativeINS4_INS1_6actionINS1_11real_parserIdNS1_27strict_real_parser_policiesIdEEEENS_8functionIFvdEEEEENS5_INS1_10int_parserIlLi10ELj1ELin1EEENSA_IFvlEEEEEEENS5_INS1_11uint_parserImLi10ELj1ELin1EEENSA_IFvmEEEEEEENS1_7scannerINS1_10multi_passISt16istream_iteratorIccSt11char_traitsIcElENS1_19multi_pass_policies14input_iteratorENSW_11ref_countedENSW_12buf_id_checkENSW_9std_dequeEEENS1_16scanner_policiesINS1_24skipper_iteration_policyINS1_16iteration_policyEEENS1_12match_policyENS1_13action_policyEEEEENS1_5nil_tEED0Ev@Base 0.47.2
 _ZN5boost6spirit7classic4impl15concrete_parserINS1_11alternativeINS4_INS1_6actionINS1_11real_parserIdNS1_27strict_real_parser_policiesIdEEEENS_8functionIFvdEEEEENS5_INS1_10int_parserIlLi10ELj1ELin1EEENSA_IFvlEEEEEEENS5_INS1_11uint_parserImLi10ELj1ELin1EEENSA_IFvmEEEEEEENS1_7scannerINS1_10multi_passISt16istream_iteratorIccSt11char_traitsIcElENS1_19multi_pass_policies14input_iteratorENSW_11ref_countedENSW_12buf_id_checkENSW_9std_dequeEEENS1_16scanner_policiesINS1_24skipper_iteration_policyINS1_16iteration_policyEEENS1_12match_policyENS1_13action_policyEEEEENS1_5nil_tEED1Ev@Base 0.47.2
 _ZN5boost6spirit7classic4impl15concrete_parserINS1_11alternativeINS4_INS1_6actionINS1_11real_parserIdNS1_27strict_real_parser_policiesIdEEEENS_8functionIFvdEEEEENS5_INS1_10int_parserIlLi10ELj1ELin1EEENSA_IFvlEEEEEEENS5_INS1_11uint_parserImLi10ELj1ELin1EEENSA_IFvmEEEEEEENS1_7scannerINS1_10multi_passISt16istream_iteratorIccSt11char_traitsIcElENS1_19multi_pass_policies14input_iteratorENSW_11ref_countedENSW_12buf_id_checkENSW_9std_dequeEEENS1_16scanner_policiesINS1_24skipper_iteration_policyINS1_16iteration_policyEEENS1_12match_policyENS1_13action_policyEEEEENS1_5nil_tEED2Ev@Base 0.47.2
 _ZN5boost6spirit7classic4impl15concrete_parserINS1_11alternativeINS4_INS1_6actionINS1_11real_parserIdNS1_27strict_real_parser_policiesIdEEEENS_8functionIFvdEEEEENS5_INS1_10int_parserIlLi10ELj1ELin1EEENSA_IFvlEEEEEEENS5_INS1_11uint_parserImLi10ELj1ELin1EEENSA_IFvmEEEEEEENS1_7scannerINS1_17position_iteratorIN9__gnu_cxx17__normal_iteratorIPKcSsEENS1_18file_position_baseISsEENS1_5nil_tEEENS1_16scanner_policiesINS1_24skipper_iteration_policyINS1_16iteration_policyEEENS1_12match_policyENS1_13action_policyEEEEESZ_EC1ERKSP_@Base 0.47.2
 _ZN5boost6spirit7classic4impl15concrete_parserINS1_11alternativeINS4_INS1_6actionINS1_11real_parserIdNS1_27strict_real_parser_policiesIdEEEENS_8functionIFvdEEEEENS5_INS1_10int_parserIlLi10ELj1ELin1EEENSA_IFvlEEEEEEENS5_INS1_11uint_parserImLi10ELj1ELin1EEENSA_IFvmEEEEEEENS1_7scannerINS1_17position_iteratorIN9__gnu_cxx17__normal_iteratorIPKcSsEENS1_18file_position_baseISsEENS1_5nil_tEEENS1_16scanner_policiesINS1_24skipper_iteration_policyINS1_16iteration_policyEEENS1_12match_policyENS1_13action_policyEEEEESZ_EC2ERKSP_@Base 0.47.2
 _ZN5boost6spirit7classic4impl15concrete_parserINS1_11alternativeINS4_INS1_6actionINS1_11real_parserIdNS1_27strict_real_parser_policiesIdEEEENS_8functionIFvdEEEEENS5_INS1_10int_parserIlLi10ELj1ELin1EEENSA_IFvlEEEEEEENS5_INS1_11uint_parserImLi10ELj1ELin1EEENSA_IFvmEEEEEEENS1_7scannerINS1_17position_iteratorIN9__gnu_cxx17__normal_iteratorIPKcSsEENS1_18file_position_baseISsEENS1_5nil_tEEENS1_16scanner_policiesINS1_24skipper_iteration_policyINS1_16iteration_policyEEENS1_12match_policyENS1_13action_policyEEEEESZ_ED0Ev@Base 0.47.2
 _ZN5boost6spirit7classic4impl15concrete_parserINS1_11alternativeINS4_INS1_6actionINS1_11real_parserIdNS1_27strict_real_parser_policiesIdEEEENS_8functionIFvdEEEEENS5_INS1_10int_parserIlLi10ELj1ELin1EEENSA_IFvlEEEEEEENS5_INS1_11uint_parserImLi10ELj1ELin1EEENSA_IFvmEEEEEEENS1_7scannerINS1_17position_iteratorIN9__gnu_cxx17__normal_iteratorIPKcSsEENS1_18file_position_baseISsEENS1_5nil_tEEENS1_16scanner_policiesINS1_24skipper_iteration_policyINS1_16iteration_policyEEENS1_12match_policyENS1_13action_policyEEEEESZ_ED1Ev@Base 0.47.2
 _ZN5boost6spirit7classic4impl15concrete_parserINS1_11alternativeINS4_INS1_6actionINS1_11real_parserIdNS1_27strict_real_parser_policiesIdEEEENS_8functionIFvdEEEEENS5_INS1_10int_parserIlLi10ELj1ELin1EEENSA_IFvlEEEEEEENS5_INS1_11uint_parserImLi10ELj1ELin1EEENSA_IFvmEEEEEEENS1_7scannerINS1_17position_iteratorIN9__gnu_cxx17__normal_iteratorIPKcSsEENS1_18file_position_baseISsEENS1_5nil_tEEENS1_16scanner_policiesINS1_24skipper_iteration_policyINS1_16iteration_policyEEENS1_12match_policyENS1_13action_policyEEEEESZ_ED2Ev@Base 0.47.2
 _ZN5boost6spirit7classic4impl15concrete_parserINS1_11alternativeINS4_INS1_6actionINS1_11real_parserIdNS1_27strict_real_parser_policiesIdEEEENS_8functionIFvdEEEEENS5_INS1_10int_parserIlLi10ELj1ELin1EEENSA_IFvlEEEEEEENS5_INS1_11uint_parserImLi10ELj1ELin1EEENSA_IFvmEEEEEEENS1_7scannerINS1_17position_iteratorINS1_10multi_passISt16istream_iteratorIccSt11char_traitsIcElENS1_19multi_pass_policies14input_iteratorENSX_11ref_countedENSX_12buf_id_checkENSX_9std_dequeEEENS1_18file_position_baseISsEENS1_5nil_tEEENS1_16scanner_policiesINS1_24skipper_iteration_policyINS1_16iteration_policyEEENS1_12match_policyENS1_13action_policyEEEEES15_EC1ERKSP_@Base 0.47.2
 _ZN5boost6spirit7classic4impl15concrete_parserINS1_11alternativeINS4_INS1_6actionINS1_11real_parserIdNS1_27strict_real_parser_policiesIdEEEENS_8functionIFvdEEEEENS5_INS1_10int_parserIlLi10ELj1ELin1EEENSA_IFvlEEEEEEENS5_INS1_11uint_parserImLi10ELj1ELin1EEENSA_IFvmEEEEEEENS1_7scannerINS1_17position_iteratorINS1_10multi_passISt16istream_iteratorIccSt11char_traitsIcElENS1_19multi_pass_policies14input_iteratorENSX_11ref_countedENSX_12buf_id_checkENSX_9std_dequeEEENS1_18file_position_baseISsEENS1_5nil_tEEENS1_16scanner_policiesINS1_24skipper_iteration_policyINS1_16iteration_policyEEENS1_12match_policyENS1_13action_policyEEEEES15_EC2ERKSP_@Base 0.47.2
 _ZN5boost6spirit7classic4impl15concrete_parserINS1_11alternativeINS4_INS1_6actionINS1_11real_parserIdNS1_27strict_real_parser_policiesIdEEEENS_8functionIFvdEEEEENS5_INS1_10int_parserIlLi10ELj1ELin1EEENSA_IFvlEEEEEEENS5_INS1_11uint_parserImLi10ELj1ELin1EEENSA_IFvmEEEEEEENS1_7scannerINS1_17position_iteratorINS1_10multi_passISt16istream_iteratorIccSt11char_traitsIcElENS1_19multi_pass_policies14input_iteratorENSX_11ref_countedENSX_12buf_id_checkENSX_9std_dequeEEENS1_18file_position_baseISsEENS1_5nil_tEEENS1_16scanner_policiesINS1_24skipper_iteration_policyINS1_16iteration_policyEEENS1_12match_policyENS1_13action_policyEEEEES15_ED0Ev@Base 0.47.2
 _ZN5boost6spirit7classic4impl15concrete_parserINS1_11alternativeINS4_INS1_6actionINS1_11real_parserIdNS1_27strict_real_parser_policiesIdEEEENS_8functionIFvdEEEEENS5_INS1_10int_parserIlLi10ELj1ELin1EEENSA_IFvlEEEEEEENS5_INS1_11uint_parserImLi10ELj1ELin1EEENSA_IFvmEEEEEEENS1_7scannerINS1_17position_iteratorINS1_10multi_passISt16istream_iteratorIccSt11char_traitsIcElENS1_19multi_pass_policies14input_iteratorENSX_11ref_countedENSX_12buf_id_checkENSX_9std_dequeEEENS1_18file_position_baseISsEENS1_5nil_tEEENS1_16scanner_policiesINS1_24skipper_iteration_policyINS1_16iteration_policyEEENS1_12match_policyENS1_13action_policyEEEEES15_ED1Ev@Base 0.47.2
 _ZN5boost6spirit7classic4impl15concrete_parserINS1_11alternativeINS4_INS1_6actionINS1_11real_parserIdNS1_27strict_real_parser_policiesIdEEEENS_8functionIFvdEEEEENS5_INS1_10int_parserIlLi10ELj1ELin1EEENSA_IFvlEEEEEEENS5_INS1_11uint_parserImLi10ELj1ELin1EEENSA_IFvmEEEEEEENS1_7scannerINS1_17position_iteratorINS1_10multi_passISt16istream_iteratorIccSt11char_traitsIcElENS1_19multi_pass_policies14input_iteratorENSX_11ref_countedENSX_12buf_id_checkENSX_9std_dequeEEENS1_18file_position_baseISsEENS1_5nil_tEEENS1_16scanner_policiesINS1_24skipper_iteration_policyINS1_16iteration_policyEEENS1_12match_policyENS1_13action_policyEEEEES15_ED2Ev@Base 0.47.2
 _ZN5boost6spirit7classic4impl15concrete_parserINS1_11alternativeINS4_INS4_INS4_INS4_INS4_INS1_6actionINS1_4ruleINS1_7scannerIN9__gnu_cxx17__normal_iteratorIPKcSsEENS1_16scanner_policiesINS1_24skipper_iteration_policyINS1_16iteration_policyEEENS1_12match_policyENS1_13action_policyEEEEENS1_5nil_tESL_EENS_8functionIFvSC_SC_EEEEESM_EESM_EESM_EENS5_INS1_6strlitISB_EESP_EEEESW_EESW_EESK_SL_EC1ERKSZ_@Base 0.47.2
 _ZN5boost6spirit7classic4impl15concrete_parserINS1_11alternativeINS4_INS4_INS4_INS4_INS4_INS1_6actionINS1_4ruleINS1_7scannerIN9__gnu_cxx17__normal_iteratorIPKcSsEENS1_16scanner_policiesINS1_24skipper_iteration_policyINS1_16iteration_policyEEENS1_12match_policyENS1_13action_policyEEEEENS1_5nil_tESL_EENS_8functionIFvSC_SC_EEEEESM_EESM_EESM_EENS5_INS1_6strlitISB_EESP_EEEESW_EESW_EESK_SL_EC2ERKSZ_@Base 0.47.2
 _ZN5boost6spirit7classic4impl15concrete_parserINS1_11alternativeINS4_INS4_INS4_INS4_INS4_INS1_6actionINS1_4ruleINS1_7scannerIN9__gnu_cxx17__normal_iteratorIPKcSsEENS1_16scanner_policiesINS1_24skipper_iteration_policyINS1_16iteration_policyEEENS1_12match_policyENS1_13action_policyEEEEENS1_5nil_tESL_EENS_8functionIFvSC_SC_EEEEESM_EESM_EESM_EENS5_INS1_6strlitISB_EESP_EEEESW_EESW_EESK_SL_ED0Ev@Base 0.47.2
 _ZN5boost6spirit7classic4impl15concrete_parserINS1_11alternativeINS4_INS4_INS4_INS4_INS4_INS1_6actionINS1_4ruleINS1_7scannerIN9__gnu_cxx17__normal_iteratorIPKcSsEENS1_16scanner_policiesINS1_24skipper_iteration_policyINS1_16iteration_policyEEENS1_12match_policyENS1_13action_policyEEEEENS1_5nil_tESL_EENS_8functionIFvSC_SC_EEEEESM_EESM_EESM_EENS5_INS1_6strlitISB_EESP_EEEESW_EESW_EESK_SL_ED1Ev@Base 0.47.2
 _ZN5boost6spirit7classic4impl15concrete_parserINS1_11alternativeINS4_INS4_INS4_INS4_INS4_INS1_6actionINS1_4ruleINS1_7scannerIN9__gnu_cxx17__normal_iteratorIPKcSsEENS1_16scanner_policiesINS1_24skipper_iteration_policyINS1_16iteration_policyEEENS1_12match_policyENS1_13action_policyEEEEENS1_5nil_tESL_EENS_8functionIFvSC_SC_EEEEESM_EESM_EESM_EENS5_INS1_6strlitISB_EESP_EEEESW_EESW_EESK_SL_ED2Ev@Base 0.47.2
 _ZN5boost6spirit7classic4impl15concrete_parserINS1_11alternativeINS4_INS4_INS4_INS4_INS4_INS1_6actionINS1_4ruleINS1_7scannerINS1_10multi_passISt16istream_iteratorIccSt11char_traitsIcElENS1_19multi_pass_policies14input_iteratorENSD_11ref_countedENSD_12buf_id_checkENSD_9std_dequeEEENS1_16scanner_policiesINS1_24skipper_iteration_policyINS1_16iteration_policyEEENS1_12match_policyENS1_13action_policyEEEEENS1_5nil_tESR_EENS_8functionIFvSI_SI_EEEEESS_EESS_EESS_EENS5_INS1_6strlitIPKcEESV_EEEES14_EES14_EESQ_SR_EC1ERKS17_@Base 0.47.2
 _ZN5boost6spirit7classic4impl15concrete_parserINS1_11alternativeINS4_INS4_INS4_INS4_INS4_INS1_6actionINS1_4ruleINS1_7scannerINS1_10multi_passISt16istream_iteratorIccSt11char_traitsIcElENS1_19multi_pass_policies14input_iteratorENSD_11ref_countedENSD_12buf_id_checkENSD_9std_dequeEEENS1_16scanner_policiesINS1_24skipper_iteration_policyINS1_16iteration_policyEEENS1_12match_policyENS1_13action_policyEEEEENS1_5nil_tESR_EENS_8functionIFvSI_SI_EEEEESS_EESS_EESS_EENS5_INS1_6strlitIPKcEESV_EEEES14_EES14_EESQ_SR_EC2ERKS17_@Base 0.47.2
 _ZN5boost6spirit7classic4impl15concrete_parserINS1_11alternativeINS4_INS4_INS4_INS4_INS4_INS1_6actionINS1_4ruleINS1_7scannerINS1_10multi_passISt16istream_iteratorIccSt11char_traitsIcElENS1_19multi_pass_policies14input_iteratorENSD_11ref_countedENSD_12buf_id_checkENSD_9std_dequeEEENS1_16scanner_policiesINS1_24skipper_iteration_policyINS1_16iteration_policyEEENS1_12match_policyENS1_13action_policyEEEEENS1_5nil_tESR_EENS_8functionIFvSI_SI_EEEEESS_EESS_EESS_EENS5_INS1_6strlitIPKcEESV_EEEES14_EES14_EESQ_SR_ED0Ev@Base 0.47.2
 _ZN5boost6spirit7classic4impl15concrete_parserINS1_11alternativeINS4_INS4_INS4_INS4_INS4_INS1_6actionINS1_4ruleINS1_7scannerINS1_10multi_passISt16istream_iteratorIccSt11char_traitsIcElENS1_19multi_pass_policies14input_iteratorENSD_11ref_countedENSD_12buf_id_checkENSD_9std_dequeEEENS1_16scanner_policiesINS1_24skipper_iteration_policyINS1_16iteration_policyEEENS1_12match_policyENS1_13action_policyEEEEENS1_5nil_tESR_EENS_8functionIFvSI_SI_EEEEESS_EESS_EESS_EENS5_INS1_6strlitIPKcEESV_EEEES14_EES14_EESQ_SR_ED1Ev@Base 0.47.2
 _ZN5boost6spirit7classic4impl15concrete_parserINS1_11alternativeINS4_INS4_INS4_INS4_INS4_INS1_6actionINS1_4ruleINS1_7scannerINS1_10multi_passISt16istream_iteratorIccSt11char_traitsIcElENS1_19multi_pass_policies14input_iteratorENSD_11ref_countedENSD_12buf_id_checkENSD_9std_dequeEEENS1_16scanner_policiesINS1_24skipper_iteration_policyINS1_16iteration_policyEEENS1_12match_policyENS1_13action_policyEEEEENS1_5nil_tESR_EENS_8functionIFvSI_SI_EEEEESS_EESS_EESS_EENS5_INS1_6strlitIPKcEESV_EEEES14_EES14_EESQ_SR_ED2Ev@Base 0.47.2
 _ZN5boost6spirit7classic4impl15concrete_parserINS1_11alternativeINS4_INS4_INS4_INS4_INS4_INS1_6actionINS1_4ruleINS1_7scannerINS1_17position_iteratorIN9__gnu_cxx17__normal_iteratorIPKcSsEENS1_18file_position_baseISsEENS1_5nil_tEEENS1_16scanner_policiesINS1_24skipper_iteration_policyINS1_16iteration_policyEEENS1_12match_policyENS1_13action_policyEEEEESG_SG_EENS_8functionIFvSH_SH_EEEEESQ_EESQ_EESQ_EENS5_INS1_6strlitISC_EEST_EEEES10_EES10_EESP_SG_EC1ERKS13_@Base 0.58
 _ZN5boost6spirit7classic4impl15concrete_parserINS1_11alternativeINS4_INS4_INS4_INS4_INS4_INS1_6actionINS1_4ruleINS1_7scannerINS1_17position_iteratorIN9__gnu_cxx17__normal_iteratorIPKcSsEENS1_18file_position_baseISsEENS1_5nil_tEEENS1_16scanner_policiesINS1_24skipper_iteration_policyINS1_16iteration_policyEEENS1_12match_policyENS1_13action_policyEEEEESG_SG_EENS_8functionIFvSH_SH_EEEEESQ_EESQ_EESQ_EENS5_INS1_6strlitISC_EEST_EEEES10_EES10_EESP_SG_EC2ERKS13_@Base 0.58
 _ZN5boost6spirit7classic4impl15concrete_parserINS1_11alternativeINS4_INS4_INS4_INS4_INS4_INS1_6actionINS1_4ruleINS1_7scannerINS1_17position_iteratorIN9__gnu_cxx17__normal_iteratorIPKcSsEENS1_18file_position_baseISsEENS1_5nil_tEEENS1_16scanner_policiesINS1_24skipper_iteration_policyINS1_16iteration_policyEEENS1_12match_policyENS1_13action_policyEEEEESG_SG_EENS_8functionIFvSH_SH_EEEEESQ_EESQ_EESQ_EENS5_INS1_6strlitISC_EEST_EEEES10_EES10_EESP_SG_ED0Ev@Base 0.47.2
 _ZN5boost6spirit7classic4impl15concrete_parserINS1_11alternativeINS4_INS4_INS4_INS4_INS4_INS1_6actionINS1_4ruleINS1_7scannerINS1_17position_iteratorIN9__gnu_cxx17__normal_iteratorIPKcSsEENS1_18file_position_baseISsEENS1_5nil_tEEENS1_16scanner_policiesINS1_24skipper_iteration_policyINS1_16iteration_policyEEENS1_12match_policyENS1_13action_policyEEEEESG_SG_EENS_8functionIFvSH_SH_EEEEESQ_EESQ_EESQ_EENS5_INS1_6strlitISC_EEST_EEEES10_EES10_EESP_SG_ED1Ev@Base 0.47.2
 _ZN5boost6spirit7classic4impl15concrete_parserINS1_11alternativeINS4_INS4_INS4_INS4_INS4_INS1_6actionINS1_4ruleINS1_7scannerINS1_17position_iteratorIN9__gnu_cxx17__normal_iteratorIPKcSsEENS1_18file_position_baseISsEENS1_5nil_tEEENS1_16scanner_policiesINS1_24skipper_iteration_policyINS1_16iteration_policyEEENS1_12match_policyENS1_13action_policyEEEEESG_SG_EENS_8functionIFvSH_SH_EEEEESQ_EESQ_EESQ_EENS5_INS1_6strlitISC_EEST_EEEES10_EES10_EESP_SG_ED2Ev@Base 0.47.2
 _ZN5boost6spirit7classic4impl15concrete_parserINS1_11alternativeINS4_INS4_INS4_INS4_INS4_INS1_6actionINS1_4ruleINS1_7scannerINS1_17position_iteratorINS1_10multi_passISt16istream_iteratorIccSt11char_traitsIcElENS1_19multi_pass_policies14input_iteratorENSE_11ref_countedENSE_12buf_id_checkENSE_9std_dequeEEENS1_18file_position_baseISsEENS1_5nil_tEEENS1_16scanner_policiesINS1_24skipper_iteration_policyINS1_16iteration_policyEEENS1_12match_policyENS1_13action_policyEEEEESM_SM_EENS_8functionIFvSN_SN_EEEEESW_EESW_EESW_EENS5_INS1_6strlitIPKcEESZ_EEEES18_EES18_EESV_SM_EC1ERKS1B_@Base 0.58
 _ZN5boost6spirit7classic4impl15concrete_parserINS1_11alternativeINS4_INS4_INS4_INS4_INS4_INS1_6actionINS1_4ruleINS1_7scannerINS1_17position_iteratorINS1_10multi_passISt16istream_iteratorIccSt11char_traitsIcElENS1_19multi_pass_policies14input_iteratorENSE_11ref_countedENSE_12buf_id_checkENSE_9std_dequeEEENS1_18file_position_baseISsEENS1_5nil_tEEENS1_16scanner_policiesINS1_24skipper_iteration_policyINS1_16iteration_policyEEENS1_12match_policyENS1_13action_policyEEEEESM_SM_EENS_8functionIFvSN_SN_EEEEESW_EESW_EESW_EENS5_INS1_6strlitIPKcEESZ_EEEES18_EES18_EESV_SM_EC2ERKS1B_@Base 0.58
 _ZN5boost6spirit7classic4impl15concrete_parserINS1_11alternativeINS4_INS4_INS4_INS4_INS4_INS1_6actionINS1_4ruleINS1_7scannerINS1_17position_iteratorINS1_10multi_passISt16istream_iteratorIccSt11char_traitsIcElENS1_19multi_pass_policies14input_iteratorENSE_11ref_countedENSE_12buf_id_checkENSE_9std_dequeEEENS1_18file_position_baseISsEENS1_5nil_tEEENS1_16scanner_policiesINS1_24skipper_iteration_policyINS1_16iteration_policyEEENS1_12match_policyENS1_13action_policyEEEEESM_SM_EENS_8functionIFvSN_SN_EEEEESW_EESW_EESW_EENS5_INS1_6strlitIPKcEESZ_EEEES18_EES18_EESV_SM_ED0Ev@Base 0.47.2
 _ZN5boost6spirit7classic4impl15concrete_parserINS1_11alternativeINS4_INS4_INS4_INS4_INS4_INS1_6actionINS1_4ruleINS1_7scannerINS1_17position_iteratorINS1_10multi_passISt16istream_iteratorIccSt11char_traitsIcElENS1_19multi_pass_policies14input_iteratorENSE_11ref_countedENSE_12buf_id_checkENSE_9std_dequeEEENS1_18file_position_baseISsEENS1_5nil_tEEENS1_16scanner_policiesINS1_24skipper_iteration_policyINS1_16iteration_policyEEENS1_12match_policyENS1_13action_policyEEEEESM_SM_EENS_8functionIFvSN_SN_EEEEESW_EESW_EESW_EENS5_INS1_6strlitIPKcEESZ_EEEES18_EES18_EESV_SM_ED1Ev@Base 0.47.2
 _ZN5boost6spirit7classic4impl15concrete_parserINS1_11alternativeINS4_INS4_INS4_INS4_INS4_INS1_6actionINS1_4ruleINS1_7scannerINS1_17position_iteratorINS1_10multi_passISt16istream_iteratorIccSt11char_traitsIcElENS1_19multi_pass_policies14input_iteratorENSE_11ref_countedENSE_12buf_id_checkENSE_9std_dequeEEENS1_18file_position_baseISsEENS1_5nil_tEEENS1_16scanner_policiesINS1_24skipper_iteration_policyINS1_16iteration_policyEEENS1_12match_policyENS1_13action_policyEEEEESM_SM_EENS_8functionIFvSN_SN_EEEEESW_EESW_EESW_EENS5_INS1_6strlitIPKcEESZ_EEEES18_EES18_EESV_SM_ED2Ev@Base 0.47.2
 _ZN5boost6spirit7classic4impl15concrete_parserINS1_8sequenceINS1_4ruleINS1_7scannerIN9__gnu_cxx17__normal_iteratorIPKcSsEENS1_16scanner_policiesINS1_24skipper_iteration_policyINS1_16iteration_policyEEENS1_12match_policyENS1_13action_policyEEEEENS1_5nil_tESK_EENS1_11kleene_starINS1_11alternativeINS4_INS1_5chlitIcEESL_EESP_EEEEEESJ_SK_ED0Ev@Base 0.58
 _ZN5boost6spirit7classic4impl15concrete_parserINS1_8sequenceINS1_4ruleINS1_7scannerIN9__gnu_cxx17__normal_iteratorIPKcSsEENS1_16scanner_policiesINS1_24skipper_iteration_policyINS1_16iteration_policyEEENS1_12match_policyENS1_13action_policyEEEEENS1_5nil_tESK_EENS1_11kleene_starINS1_11alternativeINS4_INS1_5chlitIcEESL_EESP_EEEEEESJ_SK_ED1Ev@Base 0.58
 _ZN5boost6spirit7classic4impl15concrete_parserINS1_8sequenceINS1_4ruleINS1_7scannerIN9__gnu_cxx17__normal_iteratorIPKcSsEENS1_16scanner_policiesINS1_24skipper_iteration_policyINS1_16iteration_policyEEENS1_12match_policyENS1_13action_policyEEEEENS1_5nil_tESK_EENS1_11kleene_starINS1_11alternativeINS4_INS1_5chlitIcEESL_EESP_EEEEEESJ_SK_ED2Ev@Base 0.58
 _ZN5boost6spirit7classic4impl15concrete_parserINS1_8sequenceINS1_4ruleINS1_7scannerINS1_10multi_passISt16istream_iteratorIccSt11char_traitsIcElENS1_19multi_pass_policies14input_iteratorENSC_11ref_countedENSC_12buf_id_checkENSC_9std_dequeEEENS1_16scanner_policiesINS1_24skipper_iteration_policyINS1_16iteration_policyEEENS1_12match_policyENS1_13action_policyEEEEENS1_5nil_tESQ_EENS1_11kleene_starINS1_11alternativeINS4_INS1_5chlitIcEESR_EESV_EEEEEESP_SQ_ED0Ev@Base 0.58
 _ZN5boost6spirit7classic4impl15concrete_parserINS1_8sequenceINS1_4ruleINS1_7scannerINS1_10multi_passISt16istream_iteratorIccSt11char_traitsIcElENS1_19multi_pass_policies14input_iteratorENSC_11ref_countedENSC_12buf_id_checkENSC_9std_dequeEEENS1_16scanner_policiesINS1_24skipper_iteration_policyINS1_16iteration_policyEEENS1_12match_policyENS1_13action_policyEEEEENS1_5nil_tESQ_EENS1_11kleene_starINS1_11alternativeINS4_INS1_5chlitIcEESR_EESV_EEEEEESP_SQ_ED1Ev@Base 0.58
 _ZN5boost6spirit7classic4impl15concrete_parserINS1_8sequenceINS1_4ruleINS1_7scannerINS1_10multi_passISt16istream_iteratorIccSt11char_traitsIcElENS1_19multi_pass_policies14input_iteratorENSC_11ref_countedENSC_12buf_id_checkENSC_9std_dequeEEENS1_16scanner_policiesINS1_24skipper_iteration_policyINS1_16iteration_policyEEENS1_12match_policyENS1_13action_policyEEEEENS1_5nil_tESQ_EENS1_11kleene_starINS1_11alternativeINS4_INS1_5chlitIcEESR_EESV_EEEEEESP_SQ_ED2Ev@Base 0.58
 _ZN5boost6spirit7classic4impl15concrete_parserINS1_8sequenceINS1_4ruleINS1_7scannerINS1_17position_iteratorIN9__gnu_cxx17__normal_iteratorIPKcSsEENS1_18file_position_baseISsEENS1_5nil_tEEENS1_16scanner_policiesINS1_24skipper_iteration_policyINS1_16iteration_policyEEENS1_12match_policyENS1_13action_policyEEEEESF_SF_EENS1_11kleene_starINS1_11alternativeINS4_INS1_5chlitIcEESP_EEST_EEEEEESO_SF_ED0Ev@Base 0.58
 _ZN5boost6spirit7classic4impl15concrete_parserINS1_8sequenceINS1_4ruleINS1_7scannerINS1_17position_iteratorIN9__gnu_cxx17__normal_iteratorIPKcSsEENS1_18file_position_baseISsEENS1_5nil_tEEENS1_16scanner_policiesINS1_24skipper_iteration_policyINS1_16iteration_policyEEENS1_12match_policyENS1_13action_policyEEEEESF_SF_EENS1_11kleene_starINS1_11alternativeINS4_INS1_5chlitIcEESP_EEST_EEEEEESO_SF_ED1Ev@Base 0.58
 _ZN5boost6spirit7classic4impl15concrete_parserINS1_8sequenceINS1_4ruleINS1_7scannerINS1_17position_iteratorIN9__gnu_cxx17__normal_iteratorIPKcSsEENS1_18file_position_baseISsEENS1_5nil_tEEENS1_16scanner_policiesINS1_24skipper_iteration_policyINS1_16iteration_policyEEENS1_12match_policyENS1_13action_policyEEEEESF_SF_EENS1_11kleene_starINS1_11alternativeINS4_INS1_5chlitIcEESP_EEST_EEEEEESO_SF_ED2Ev@Base 0.58
 _ZN5boost6spirit7classic4impl15concrete_parserINS1_8sequenceINS1_4ruleINS1_7scannerINS1_17position_iteratorINS1_10multi_passISt16istream_iteratorIccSt11char_traitsIcElENS1_19multi_pass_policies14input_iteratorENSD_11ref_countedENSD_12buf_id_checkENSD_9std_dequeEEENS1_18file_position_baseISsEENS1_5nil_tEEENS1_16scanner_policiesINS1_24skipper_iteration_policyINS1_16iteration_policyEEENS1_12match_policyENS1_13action_policyEEEEESL_SL_EENS1_11kleene_starINS1_11alternativeINS4_INS1_5chlitIcEESV_EESZ_EEEEEESU_SL_ED0Ev@Base 0.58
 _ZN5boost6spirit7classic4impl15concrete_parserINS1_8sequenceINS1_4ruleINS1_7scannerINS1_17position_iteratorINS1_10multi_passISt16istream_iteratorIccSt11char_traitsIcElENS1_19multi_pass_policies14input_iteratorENSD_11ref_countedENSD_12buf_id_checkENSD_9std_dequeEEENS1_18file_position_baseISsEENS1_5nil_tEEENS1_16scanner_policiesINS1_24skipper_iteration_policyINS1_16iteration_policyEEENS1_12match_policyENS1_13action_policyEEEEESL_SL_EENS1_11kleene_starINS1_11alternativeINS4_INS1_5chlitIcEESV_EESZ_EEEEEESU_SL_ED1Ev@Base 0.58
 _ZN5boost6spirit7classic4impl15concrete_parserINS1_8sequenceINS1_4ruleINS1_7scannerINS1_17position_iteratorINS1_10multi_passISt16istream_iteratorIccSt11char_traitsIcElENS1_19multi_pass_policies14input_iteratorENSD_11ref_countedENSD_12buf_id_checkENSD_9std_dequeEEENS1_18file_position_baseISsEENS1_5nil_tEEENS1_16scanner_policiesINS1_24skipper_iteration_policyINS1_16iteration_policyEEENS1_12match_policyENS1_13action_policyEEEEESL_SL_EENS1_11kleene_starINS1_11alternativeINS4_INS1_5chlitIcEESV_EESZ_EEEEEESU_SL_ED2Ev@Base 0.58
 _ZN5boost6spirit7classic4impl15concrete_parserINS1_8sequenceINS4_INS1_6actionINS1_4ruleINS1_7scannerIN9__gnu_cxx17__normal_iteratorIPKcSsEENS1_16scanner_policiesINS1_24skipper_iteration_policyINS1_16iteration_policyEEENS1_12match_policyENS1_13action_policyEEEEENS1_5nil_tESL_EENS_8functionIFvSC_SC_EEEEENS1_11alternativeINS1_5chlitIcEENS5_INS1_14epsilon_parserEPSO_EEEEEENSR_ISM_SW_EEEESK_SL_ED0Ev@Base 0.47.2
 _ZN5boost6spirit7classic4impl15concrete_parserINS1_8sequenceINS4_INS1_6actionINS1_4ruleINS1_7scannerIN9__gnu_cxx17__normal_iteratorIPKcSsEENS1_16scanner_policiesINS1_24skipper_iteration_policyINS1_16iteration_policyEEENS1_12match_policyENS1_13action_policyEEEEENS1_5nil_tESL_EENS_8functionIFvSC_SC_EEEEENS1_11alternativeINS1_5chlitIcEENS5_INS1_14epsilon_parserEPSO_EEEEEENSR_ISM_SW_EEEESK_SL_ED1Ev@Base 0.47.2
 _ZN5boost6spirit7classic4impl15concrete_parserINS1_8sequenceINS4_INS1_6actionINS1_4ruleINS1_7scannerIN9__gnu_cxx17__normal_iteratorIPKcSsEENS1_16scanner_policiesINS1_24skipper_iteration_policyINS1_16iteration_policyEEENS1_12match_policyENS1_13action_policyEEEEENS1_5nil_tESL_EENS_8functionIFvSC_SC_EEEEENS1_11alternativeINS1_5chlitIcEENS5_INS1_14epsilon_parserEPSO_EEEEEENSR_ISM_SW_EEEESK_SL_ED2Ev@Base 0.47.2
 _ZN5boost6spirit7classic4impl15concrete_parserINS1_8sequenceINS4_INS1_6actionINS1_4ruleINS1_7scannerINS1_10multi_passISt16istream_iteratorIccSt11char_traitsIcElENS1_19multi_pass_policies14input_iteratorENSD_11ref_countedENSD_12buf_id_checkENSD_9std_dequeEEENS1_16scanner_policiesINS1_24skipper_iteration_policyINS1_16iteration_policyEEENS1_12match_policyENS1_13action_policyEEEEENS1_5nil_tESR_EENS_8functionIFvSI_SI_EEEEENS1_11alternativeINS1_5chlitIcEENS5_INS1_14epsilon_parserEPSU_EEEEEENSX_ISS_S12_EEEESQ_SR_EC1ERKS16_@Base 0.58
 _ZN5boost6spirit7classic4impl15concrete_parserINS1_8sequenceINS4_INS1_6actionINS1_4ruleINS1_7scannerINS1_10multi_passISt16istream_iteratorIccSt11char_traitsIcElENS1_19multi_pass_policies14input_iteratorENSD_11ref_countedENSD_12buf_id_checkENSD_9std_dequeEEENS1_16scanner_policiesINS1_24skipper_iteration_policyINS1_16iteration_policyEEENS1_12match_policyENS1_13action_policyEEEEENS1_5nil_tESR_EENS_8functionIFvSI_SI_EEEEENS1_11alternativeINS1_5chlitIcEENS5_INS1_14epsilon_parserEPSU_EEEEEENSX_ISS_S12_EEEESQ_SR_EC2ERKS16_@Base 0.58
 _ZN5boost6spirit7classic4impl15concrete_parserINS1_8sequenceINS4_INS1_6actionINS1_4ruleINS1_7scannerINS1_10multi_passISt16istream_iteratorIccSt11char_traitsIcElENS1_19multi_pass_policies14input_iteratorENSD_11ref_countedENSD_12buf_id_checkENSD_9std_dequeEEENS1_16scanner_policiesINS1_24skipper_iteration_policyINS1_16iteration_policyEEENS1_12match_policyENS1_13action_policyEEEEENS1_5nil_tESR_EENS_8functionIFvSI_SI_EEEEENS1_11alternativeINS1_5chlitIcEENS5_INS1_14epsilon_parserEPSU_EEEEEENSX_ISS_S12_EEEESQ_SR_ED0Ev@Base 0.47.2
 _ZN5boost6spirit7classic4impl15concrete_parserINS1_8sequenceINS4_INS1_6actionINS1_4ruleINS1_7scannerINS1_10multi_passISt16istream_iteratorIccSt11char_traitsIcElENS1_19multi_pass_policies14input_iteratorENSD_11ref_countedENSD_12buf_id_checkENSD_9std_dequeEEENS1_16scanner_policiesINS1_24skipper_iteration_policyINS1_16iteration_policyEEENS1_12match_policyENS1_13action_policyEEEEENS1_5nil_tESR_EENS_8functionIFvSI_SI_EEEEENS1_11alternativeINS1_5chlitIcEENS5_INS1_14epsilon_parserEPSU_EEEEEENSX_ISS_S12_EEEESQ_SR_ED1Ev@Base 0.47.2
 _ZN5boost6spirit7classic4impl15concrete_parserINS1_8sequenceINS4_INS1_6actionINS1_4ruleINS1_7scannerINS1_10multi_passISt16istream_iteratorIccSt11char_traitsIcElENS1_19multi_pass_policies14input_iteratorENSD_11ref_countedENSD_12buf_id_checkENSD_9std_dequeEEENS1_16scanner_policiesINS1_24skipper_iteration_policyINS1_16iteration_policyEEENS1_12match_policyENS1_13action_policyEEEEENS1_5nil_tESR_EENS_8functionIFvSI_SI_EEEEENS1_11alternativeINS1_5chlitIcEENS5_INS1_14epsilon_parserEPSU_EEEEEENSX_ISS_S12_EEEESQ_SR_ED2Ev@Base 0.47.2
 _ZN5boost6spirit7classic4impl15concrete_parserINS1_8sequenceINS4_INS1_6actionINS1_4ruleINS1_7scannerINS1_17position_iteratorIN9__gnu_cxx17__normal_iteratorIPKcSsEENS1_18file_position_baseISsEENS1_5nil_tEEENS1_16scanner_policiesINS1_24skipper_iteration_policyINS1_16iteration_policyEEENS1_12match_policyENS1_13action_policyEEEEESG_SG_EENS_8functionIFvSH_SH_EEEEENS1_11alternativeINS1_5chlitIcEENS5_INS1_14epsilon_parserEPSS_EEEEEENSV_ISQ_S10_EEEESP_SG_EC1ERKS14_@Base 0.59
 _ZN5boost6spirit7classic4impl15concrete_parserINS1_8sequenceINS4_INS1_6actionINS1_4ruleINS1_7scannerINS1_17position_iteratorIN9__gnu_cxx17__normal_iteratorIPKcSsEENS1_18file_position_baseISsEENS1_5nil_tEEENS1_16scanner_policiesINS1_24skipper_iteration_policyINS1_16iteration_policyEEENS1_12match_policyENS1_13action_policyEEEEESG_SG_EENS_8functionIFvSH_SH_EEEEENS1_11alternativeINS1_5chlitIcEENS5_INS1_14epsilon_parserEPSS_EEEEEENSV_ISQ_S10_EEEESP_SG_EC2ERKS14_@Base 0.59
 _ZN5boost6spirit7classic4impl15concrete_parserINS1_8sequenceINS4_INS1_6actionINS1_4ruleINS1_7scannerINS1_17position_iteratorIN9__gnu_cxx17__normal_iteratorIPKcSsEENS1_18file_position_baseISsEENS1_5nil_tEEENS1_16scanner_policiesINS1_24skipper_iteration_policyINS1_16iteration_policyEEENS1_12match_policyENS1_13action_policyEEEEESG_SG_EENS_8functionIFvSH_SH_EEEEENS1_11alternativeINS1_5chlitIcEENS5_INS1_14epsilon_parserEPSS_EEEEEENSV_ISQ_S10_EEEESP_SG_ED0Ev@Base 0.47.2
 _ZN5boost6spirit7classic4impl15concrete_parserINS1_8sequenceINS4_INS1_6actionINS1_4ruleINS1_7scannerINS1_17position_iteratorIN9__gnu_cxx17__normal_iteratorIPKcSsEENS1_18file_position_baseISsEENS1_5nil_tEEENS1_16scanner_policiesINS1_24skipper_iteration_policyINS1_16iteration_policyEEENS1_12match_policyENS1_13action_policyEEEEESG_SG_EENS_8functionIFvSH_SH_EEEEENS1_11alternativeINS1_5chlitIcEENS5_INS1_14epsilon_parserEPSS_EEEEEENSV_ISQ_S10_EEEESP_SG_ED1Ev@Base 0.47.2
 _ZN5boost6spirit7classic4impl15concrete_parserINS1_8sequenceINS4_INS1_6actionINS1_4ruleINS1_7scannerINS1_17position_iteratorIN9__gnu_cxx17__normal_iteratorIPKcSsEENS1_18file_position_baseISsEENS1_5nil_tEEENS1_16scanner_policiesINS1_24skipper_iteration_policyINS1_16iteration_policyEEENS1_12match_policyENS1_13action_policyEEEEESG_SG_EENS_8functionIFvSH_SH_EEEEENS1_11alternativeINS1_5chlitIcEENS5_INS1_14epsilon_parserEPSS_EEEEEENSV_ISQ_S10_EEEESP_SG_ED2Ev@Base 0.47.2
 _ZN5boost6spirit7classic4impl15concrete_parserINS1_8sequenceINS4_INS1_6actionINS1_4ruleINS1_7scannerINS1_17position_iteratorINS1_10multi_passISt16istream_iteratorIccSt11char_traitsIcElENS1_19multi_pass_policies14input_iteratorENSE_11ref_countedENSE_12buf_id_checkENSE_9std_dequeEEENS1_18file_position_baseISsEENS1_5nil_tEEENS1_16scanner_policiesINS1_24skipper_iteration_policyINS1_16iteration_policyEEENS1_12match_policyENS1_13action_policyEEEEESM_SM_EENS_8functionIFvSN_SN_EEEEENS1_11alternativeINS1_5chlitIcEENS5_INS1_14epsilon_parserEPSY_EEEEEENS11_ISW_S16_EEEESV_SM_EC1ERKS1A_@Base 0.58
 _ZN5boost6spirit7classic4impl15concrete_parserINS1_8sequenceINS4_INS1_6actionINS1_4ruleINS1_7scannerINS1_17position_iteratorINS1_10multi_passISt16istream_iteratorIccSt11char_traitsIcElENS1_19multi_pass_policies14input_iteratorENSE_11ref_countedENSE_12buf_id_checkENSE_9std_dequeEEENS1_18file_position_baseISsEENS1_5nil_tEEENS1_16scanner_policiesINS1_24skipper_iteration_policyINS1_16iteration_policyEEENS1_12match_policyENS1_13action_policyEEEEESM_SM_EENS_8functionIFvSN_SN_EEEEENS1_11alternativeINS1_5chlitIcEENS5_INS1_14epsilon_parserEPSY_EEEEEENS11_ISW_S16_EEEESV_SM_EC2ERKS1A_@Base 0.58
 _ZN5boost6spirit7classic4impl15concrete_parserINS1_8sequenceINS4_INS1_6actionINS1_4ruleINS1_7scannerINS1_17position_iteratorINS1_10multi_passISt16istream_iteratorIccSt11char_traitsIcElENS1_19multi_pass_policies14input_iteratorENSE_11ref_countedENSE_12buf_id_checkENSE_9std_dequeEEENS1_18file_position_baseISsEENS1_5nil_tEEENS1_16scanner_policiesINS1_24skipper_iteration_policyINS1_16iteration_policyEEENS1_12match_policyENS1_13action_policyEEEEESM_SM_EENS_8functionIFvSN_SN_EEEEENS1_11alternativeINS1_5chlitIcEENS5_INS1_14epsilon_parserEPSY_EEEEEENS11_ISW_S16_EEEESV_SM_ED0Ev@Base 0.47.2
 _ZN5boost6spirit7classic4impl15concrete_parserINS1_8sequenceINS4_INS1_6actionINS1_4ruleINS1_7scannerINS1_17position_iteratorINS1_10multi_passISt16istream_iteratorIccSt11char_traitsIcElENS1_19multi_pass_policies14input_iteratorENSE_11ref_countedENSE_12buf_id_checkENSE_9std_dequeEEENS1_18file_position_baseISsEENS1_5nil_tEEENS1_16scanner_policiesINS1_24skipper_iteration_policyINS1_16iteration_policyEEENS1_12match_policyENS1_13action_policyEEEEESM_SM_EENS_8functionIFvSN_SN_EEEEENS1_11alternativeINS1_5chlitIcEENS5_INS1_14epsilon_parserEPSY_EEEEEENS11_ISW_S16_EEEESV_SM_ED1Ev@Base 0.47.2
 _ZN5boost6spirit7classic4impl15concrete_parserINS1_8sequenceINS4_INS1_6actionINS1_4ruleINS1_7scannerINS1_17position_iteratorINS1_10multi_passISt16istream_iteratorIccSt11char_traitsIcElENS1_19multi_pass_policies14input_iteratorENSE_11ref_countedENSE_12buf_id_checkENSE_9std_dequeEEENS1_18file_position_baseISsEENS1_5nil_tEEENS1_16scanner_policiesINS1_24skipper_iteration_policyINS1_16iteration_policyEEENS1_12match_policyENS1_13action_policyEEEEESM_SM_EENS_8functionIFvSN_SN_EEEEENS1_11alternativeINS1_5chlitIcEENS5_INS1_14epsilon_parserEPSY_EEEEEENS11_ISW_S16_EEEESV_SM_ED2Ev@Base 0.47.2
 _ZN5boost6spirit7classic4impl15concrete_parserINS1_8sequenceINS4_INS1_6actionINS1_5chlitIcEENS_8functionIFvcEEEEENS1_8optionalINS1_4ruleINS1_7scannerIN9__gnu_cxx17__normal_iteratorIPKcSsEENS1_16scanner_policiesINS1_24skipper_iteration_policyINS1_16iteration_policyEEENS1_12match_policyENS1_13action_policyEEEEENS1_5nil_tESS_EEEEEENS1_11alternativeISB_NS5_INS1_14epsilon_parserEPFvSJ_SJ_EEEEEEESR_SS_EC1ERKS12_@Base 0.47.2
 _ZN5boost6spirit7classic4impl15concrete_parserINS1_8sequenceINS4_INS1_6actionINS1_5chlitIcEENS_8functionIFvcEEEEENS1_8optionalINS1_4ruleINS1_7scannerIN9__gnu_cxx17__normal_iteratorIPKcSsEENS1_16scanner_policiesINS1_24skipper_iteration_policyINS1_16iteration_policyEEENS1_12match_policyENS1_13action_policyEEEEENS1_5nil_tESS_EEEEEENS1_11alternativeISB_NS5_INS1_14epsilon_parserEPFvSJ_SJ_EEEEEEESR_SS_EC2ERKS12_@Base 0.47.2
 _ZN5boost6spirit7classic4impl15concrete_parserINS1_8sequenceINS4_INS1_6actionINS1_5chlitIcEENS_8functionIFvcEEEEENS1_8optionalINS1_4ruleINS1_7scannerIN9__gnu_cxx17__normal_iteratorIPKcSsEENS1_16scanner_policiesINS1_24skipper_iteration_policyINS1_16iteration_policyEEENS1_12match_policyENS1_13action_policyEEEEENS1_5nil_tESS_EEEEEENS1_11alternativeISB_NS5_INS1_14epsilon_parserEPFvSJ_SJ_EEEEEEESR_SS_ED0Ev@Base 0.47.2
 _ZN5boost6spirit7classic4impl15concrete_parserINS1_8sequenceINS4_INS1_6actionINS1_5chlitIcEENS_8functionIFvcEEEEENS1_8optionalINS1_4ruleINS1_7scannerIN9__gnu_cxx17__normal_iteratorIPKcSsEENS1_16scanner_policiesINS1_24skipper_iteration_policyINS1_16iteration_policyEEENS1_12match_policyENS1_13action_policyEEEEENS1_5nil_tESS_EEEEEENS1_11alternativeISB_NS5_INS1_14epsilon_parserEPFvSJ_SJ_EEEEEEESR_SS_ED1Ev@Base 0.47.2
 _ZN5boost6spirit7classic4impl15concrete_parserINS1_8sequenceINS4_INS1_6actionINS1_5chlitIcEENS_8functionIFvcEEEEENS1_8optionalINS1_4ruleINS1_7scannerIN9__gnu_cxx17__normal_iteratorIPKcSsEENS1_16scanner_policiesINS1_24skipper_iteration_policyINS1_16iteration_policyEEENS1_12match_policyENS1_13action_policyEEEEENS1_5nil_tESS_EEEEEENS1_11alternativeISB_NS5_INS1_14epsilon_parserEPFvSJ_SJ_EEEEEEESR_SS_ED2Ev@Base 0.47.2
 _ZN5boost6spirit7classic4impl15concrete_parserINS1_8sequenceINS4_INS1_6actionINS1_5chlitIcEENS_8functionIFvcEEEEENS1_8optionalINS1_4ruleINS1_7scannerINS1_10multi_passISt16istream_iteratorIccSt11char_traitsIcElENS1_19multi_pass_policies14input_iteratorENSK_11ref_countedENSK_12buf_id_checkENSK_9std_dequeEEENS1_16scanner_policiesINS1_24skipper_iteration_policyINS1_16iteration_policyEEENS1_12match_policyENS1_13action_policyEEEEENS1_5nil_tESY_EEEEEENS1_11alternativeISB_NS5_INS1_14epsilon_parserEPFvSP_SP_EEEEEEESX_SY_ED0Ev@Base 0.47.2
 _ZN5boost6spirit7classic4impl15concrete_parserINS1_8sequenceINS4_INS1_6actionINS1_5chlitIcEENS_8functionIFvcEEEEENS1_8optionalINS1_4ruleINS1_7scannerINS1_10multi_passISt16istream_iteratorIccSt11char_traitsIcElENS1_19multi_pass_policies14input_iteratorENSK_11ref_countedENSK_12buf_id_checkENSK_9std_dequeEEENS1_16scanner_policiesINS1_24skipper_iteration_policyINS1_16iteration_policyEEENS1_12match_policyENS1_13action_policyEEEEENS1_5nil_tESY_EEEEEENS1_11alternativeISB_NS5_INS1_14epsilon_parserEPFvSP_SP_EEEEEEESX_SY_ED1Ev@Base 0.47.2
 _ZN5boost6spirit7classic4impl15concrete_parserINS1_8sequenceINS4_INS1_6actionINS1_5chlitIcEENS_8functionIFvcEEEEENS1_8optionalINS1_4ruleINS1_7scannerINS1_10multi_passISt16istream_iteratorIccSt11char_traitsIcElENS1_19multi_pass_policies14input_iteratorENSK_11ref_countedENSK_12buf_id_checkENSK_9std_dequeEEENS1_16scanner_policiesINS1_24skipper_iteration_policyINS1_16iteration_policyEEENS1_12match_policyENS1_13action_policyEEEEENS1_5nil_tESY_EEEEEENS1_11alternativeISB_NS5_INS1_14epsilon_parserEPFvSP_SP_EEEEEEESX_SY_ED2Ev@Base 0.47.2
 _ZN5boost6spirit7classic4impl15concrete_parserINS1_8sequenceINS4_INS1_6actionINS1_5chlitIcEENS_8functionIFvcEEEEENS1_8optionalINS1_4ruleINS1_7scannerINS1_17position_iteratorIN9__gnu_cxx17__normal_iteratorIPKcSsEENS1_18file_position_baseISsEENS1_5nil_tEEENS1_16scanner_policiesINS1_24skipper_iteration_policyINS1_16iteration_policyEEENS1_12match_policyENS1_13action_policyEEEEESN_SN_EEEEEENS1_11alternativeISB_NS5_INS1_14epsilon_parserEPFvSO_SO_EEEEEEESW_SN_EC1ERKS16_@Base 0.47.2
 _ZN5boost6spirit7classic4impl15concrete_parserINS1_8sequenceINS4_INS1_6actionINS1_5chlitIcEENS_8functionIFvcEEEEENS1_8optionalINS1_4ruleINS1_7scannerINS1_17position_iteratorIN9__gnu_cxx17__normal_iteratorIPKcSsEENS1_18file_position_baseISsEENS1_5nil_tEEENS1_16scanner_policiesINS1_24skipper_iteration_policyINS1_16iteration_policyEEENS1_12match_policyENS1_13action_policyEEEEESN_SN_EEEEEENS1_11alternativeISB_NS5_INS1_14epsilon_parserEPFvSO_SO_EEEEEEESW_SN_EC2ERKS16_@Base 0.47.2
 _ZN5boost6spirit7classic4impl15concrete_parserINS1_8sequenceINS4_INS1_6actionINS1_5chlitIcEENS_8functionIFvcEEEEENS1_8optionalINS1_4ruleINS1_7scannerINS1_17position_iteratorIN9__gnu_cxx17__normal_iteratorIPKcSsEENS1_18file_position_baseISsEENS1_5nil_tEEENS1_16scanner_policiesINS1_24skipper_iteration_policyINS1_16iteration_policyEEENS1_12match_policyENS1_13action_policyEEEEESN_SN_EEEEEENS1_11alternativeISB_NS5_INS1_14epsilon_parserEPFvSO_SO_EEEEEEESW_SN_ED0Ev@Base 0.47.2
 _ZN5boost6spirit7classic4impl15concrete_parserINS1_8sequenceINS4_INS1_6actionINS1_5chlitIcEENS_8functionIFvcEEEEENS1_8optionalINS1_4ruleINS1_7scannerINS1_17position_iteratorIN9__gnu_cxx17__normal_iteratorIPKcSsEENS1_18file_position_baseISsEENS1_5nil_tEEENS1_16scanner_policiesINS1_24skipper_iteration_policyINS1_16iteration_policyEEENS1_12match_policyENS1_13action_policyEEEEESN_SN_EEEEEENS1_11alternativeISB_NS5_INS1_14epsilon_parserEPFvSO_SO_EEEEEEESW_SN_ED1Ev@Base 0.47.2
 _ZN5boost6spirit7classic4impl15concrete_parserINS1_8sequenceINS4_INS1_6actionINS1_5chlitIcEENS_8functionIFvcEEEEENS1_8optionalINS1_4ruleINS1_7scannerINS1_17position_iteratorIN9__gnu_cxx17__normal_iteratorIPKcSsEENS1_18file_position_baseISsEENS1_5nil_tEEENS1_16scanner_policiesINS1_24skipper_iteration_policyINS1_16iteration_policyEEENS1_12match_policyENS1_13action_policyEEEEESN_SN_EEEEEENS1_11alternativeISB_NS5_INS1_14epsilon_parserEPFvSO_SO_EEEEEEESW_SN_ED2Ev@Base 0.47.2
 _ZN5boost6spirit7classic4impl15concrete_parserINS1_8sequenceINS4_INS1_6actionINS1_5chlitIcEENS_8functionIFvcEEEEENS1_8optionalINS1_4ruleINS1_7scannerINS1_17position_iteratorINS1_10multi_passISt16istream_iteratorIccSt11char_traitsIcElENS1_19multi_pass_policies14input_iteratorENSL_11ref_countedENSL_12buf_id_checkENSL_9std_dequeEEENS1_18file_position_baseISsEENS1_5nil_tEEENS1_16scanner_policiesINS1_24skipper_iteration_policyINS1_16iteration_policyEEENS1_12match_policyENS1_13action_policyEEEEEST_ST_EEEEEENS1_11alternativeISB_NS5_INS1_14epsilon_parserEPFvSU_SU_EEEEEEES12_ST_ED0Ev@Base 0.47.2
 _ZN5boost6spirit7classic4impl15concrete_parserINS1_8sequenceINS4_INS1_6actionINS1_5chlitIcEENS_8functionIFvcEEEEENS1_8optionalINS1_4ruleINS1_7scannerINS1_17position_iteratorINS1_10multi_passISt16istream_iteratorIccSt11char_traitsIcElENS1_19multi_pass_policies14input_iteratorENSL_11ref_countedENSL_12buf_id_checkENSL_9std_dequeEEENS1_18file_position_baseISsEENS1_5nil_tEEENS1_16scanner_policiesINS1_24skipper_iteration_policyINS1_16iteration_policyEEENS1_12match_policyENS1_13action_policyEEEEEST_ST_EEEEEENS1_11alternativeISB_NS5_INS1_14epsilon_parserEPFvSU_SU_EEEEEEES12_ST_ED1Ev@Base 0.47.2
 _ZN5boost6spirit7classic4impl15concrete_parserINS1_8sequenceINS4_INS1_6actionINS1_5chlitIcEENS_8functionIFvcEEEEENS1_8optionalINS1_4ruleINS1_7scannerINS1_17position_iteratorINS1_10multi_passISt16istream_iteratorIccSt11char_traitsIcElENS1_19multi_pass_policies14input_iteratorENSL_11ref_countedENSL_12buf_id_checkENSL_9std_dequeEEENS1_18file_position_baseISsEENS1_5nil_tEEENS1_16scanner_policiesINS1_24skipper_iteration_policyINS1_16iteration_policyEEENS1_12match_policyENS1_13action_policyEEEEEST_ST_EEEEEENS1_11alternativeISB_NS5_INS1_14epsilon_parserEPFvSU_SU_EEEEEEES12_ST_ED2Ev@Base 0.47.2
 _ZN5boost6spirit7classic4impl16grammar_destructINS1_7grammarIN11json_spirit12Json_grammerINS5_10Value_implINS5_13Config_vectorISsEEEEN9__gnu_cxx17__normal_iteratorIPKcSsEEEENS1_14parser_contextINS1_5nil_tEEEEEEEvPT_@Base 0.47.2
 _ZN5boost6spirit7classic4impl16grammar_destructINS1_7grammarIN11json_spirit12Json_grammerINS5_10Value_implINS5_13Config_vectorISsEEEENS1_10multi_passISt16istream_iteratorIccSt11char_traitsIcElENS1_19multi_pass_policies14input_iteratorENSG_11ref_countedENSG_12buf_id_checkENSG_9std_dequeEEEEENS1_14parser_contextINS1_5nil_tEEEEEEEvPT_@Base 0.47.2
 _ZN5boost6spirit7classic4impl16grammar_destructINS1_7grammarIN11json_spirit12Json_grammerINS5_10Value_implINS5_13Config_vectorISsEEEENS1_17position_iteratorIN9__gnu_cxx17__normal_iteratorIPKcSsEENS1_18file_position_baseISsEENS1_5nil_tEEEEENS1_14parser_contextISJ_EEEEEEvPT_@Base 0.47.2
 _ZN5boost6spirit7classic4impl16grammar_destructINS1_7grammarIN11json_spirit12Json_grammerINS5_10Value_implINS5_13Config_vectorISsEEEENS1_17position_iteratorINS1_10multi_passISt16istream_iteratorIccSt11char_traitsIcElENS1_19multi_pass_policies14input_iteratorENSH_11ref_countedENSH_12buf_id_checkENSH_9std_dequeEEENS1_18file_position_baseISsEENS1_5nil_tEEEEENS1_14parser_contextISP_EEEEEEvPT_@Base 0.47.2
 _ZN5boost6spirit7classic4impl17escape_char_parseIcE5parseINS1_7scannerINS1_17position_iteratorIN9__gnu_cxx17__normal_iteratorIPKcSsEENS1_18file_position_baseISsEENS1_5nil_tEEENS1_16scanner_policiesINS1_27no_skipper_iteration_policyINS1_24skipper_iteration_policyINS1_16iteration_policyEEEEENS1_12match_policyENS1_13action_policyEEEEENS1_18escape_char_parserILm2EcEEEENS1_13parser_resultIT0_T_E4typeERKSV_RKSU_@Base 0.47.2
 _ZN5boost6spirit7classic4impl19grammar_helper_baseINS1_7grammarIN11json_spirit12Json_grammerINS5_10Value_implINS5_13Config_vectorISsEEEEN9__gnu_cxx17__normal_iteratorIPKcSsEEEENS1_14parser_contextINS1_5nil_tEEEEEED0Ev@Base 0.47.2
 _ZN5boost6spirit7classic4impl19grammar_helper_baseINS1_7grammarIN11json_spirit12Json_grammerINS5_10Value_implINS5_13Config_vectorISsEEEEN9__gnu_cxx17__normal_iteratorIPKcSsEEEENS1_14parser_contextINS1_5nil_tEEEEEED1Ev@Base 0.47.2
 _ZN5boost6spirit7classic4impl19grammar_helper_baseINS1_7grammarIN11json_spirit12Json_grammerINS5_10Value_implINS5_13Config_vectorISsEEEEN9__gnu_cxx17__normal_iteratorIPKcSsEEEENS1_14parser_contextINS1_5nil_tEEEEEED2Ev@Base 0.47.2
 _ZN5boost6spirit7classic4impl19grammar_helper_baseINS1_7grammarIN11json_spirit12Json_grammerINS5_10Value_implINS5_13Config_vectorISsEEEENS1_10multi_passISt16istream_iteratorIccSt11char_traitsIcElENS1_19multi_pass_policies14input_iteratorENSG_11ref_countedENSG_12buf_id_checkENSG_9std_dequeEEEEENS1_14parser_contextINS1_5nil_tEEEEEED0Ev@Base 0.47.2
 _ZN5boost6spirit7classic4impl19grammar_helper_baseINS1_7grammarIN11json_spirit12Json_grammerINS5_10Value_implINS5_13Config_vectorISsEEEENS1_10multi_passISt16istream_iteratorIccSt11char_traitsIcElENS1_19multi_pass_policies14input_iteratorENSG_11ref_countedENSG_12buf_id_checkENSG_9std_dequeEEEEENS1_14parser_contextINS1_5nil_tEEEEEED1Ev@Base 0.47.2
 _ZN5boost6spirit7classic4impl19grammar_helper_baseINS1_7grammarIN11json_spirit12Json_grammerINS5_10Value_implINS5_13Config_vectorISsEEEENS1_10multi_passISt16istream_iteratorIccSt11char_traitsIcElENS1_19multi_pass_policies14input_iteratorENSG_11ref_countedENSG_12buf_id_checkENSG_9std_dequeEEEEENS1_14parser_contextINS1_5nil_tEEEEEED2Ev@Base 0.47.2
 _ZN5boost6spirit7classic4impl19grammar_helper_baseINS1_7grammarIN11json_spirit12Json_grammerINS5_10Value_implINS5_13Config_vectorISsEEEENS1_17position_iteratorIN9__gnu_cxx17__normal_iteratorIPKcSsEENS1_18file_position_baseISsEENS1_5nil_tEEEEENS1_14parser_contextISJ_EEEEED0Ev@Base 0.47.2
 _ZN5boost6spirit7classic4impl19grammar_helper_baseINS1_7grammarIN11json_spirit12Json_grammerINS5_10Value_implINS5_13Config_vectorISsEEEENS1_17position_iteratorIN9__gnu_cxx17__normal_iteratorIPKcSsEENS1_18file_position_baseISsEENS1_5nil_tEEEEENS1_14parser_contextISJ_EEEEED1Ev@Base 0.47.2
 _ZN5boost6spirit7classic4impl19grammar_helper_baseINS1_7grammarIN11json_spirit12Json_grammerINS5_10Value_implINS5_13Config_vectorISsEEEENS1_17position_iteratorIN9__gnu_cxx17__normal_iteratorIPKcSsEENS1_18file_position_baseISsEENS1_5nil_tEEEEENS1_14parser_contextISJ_EEEEED2Ev@Base 0.47.2
 _ZN5boost6spirit7classic4impl19grammar_helper_baseINS1_7grammarIN11json_spirit12Json_grammerINS5_10Value_implINS5_13Config_vectorISsEEEENS1_17position_iteratorINS1_10multi_passISt16istream_iteratorIccSt11char_traitsIcElENS1_19multi_pass_policies14input_iteratorENSH_11ref_countedENSH_12buf_id_checkENSH_9std_dequeEEENS1_18file_position_baseISsEENS1_5nil_tEEEEENS1_14parser_contextISP_EEEEED0Ev@Base 0.47.2
 _ZN5boost6spirit7classic4impl19grammar_helper_baseINS1_7grammarIN11json_spirit12Json_grammerINS5_10Value_implINS5_13Config_vectorISsEEEENS1_17position_iteratorINS1_10multi_passISt16istream_iteratorIccSt11char_traitsIcElENS1_19multi_pass_policies14input_iteratorENSH_11ref_countedENSH_12buf_id_checkENSH_9std_dequeEEENS1_18file_position_baseISsEENS1_5nil_tEEEEENS1_14parser_contextISP_EEEEED1Ev@Base 0.47.2
 _ZN5boost6spirit7classic4impl19grammar_helper_baseINS1_7grammarIN11json_spirit12Json_grammerINS5_10Value_implINS5_13Config_vectorISsEEEENS1_17position_iteratorINS1_10multi_passISt16istream_iteratorIccSt11char_traitsIcElENS1_19multi_pass_policies14input_iteratorENSH_11ref_countedENSH_12buf_id_checkENSH_9std_dequeEEENS1_18file_position_baseISsEENS1_5nil_tEEEEENS1_14parser_contextISP_EEEEED2Ev@Base 0.47.2
 _ZN5boost6spirit7classic4impl19grammar_helper_listINS1_7grammarIN11json_spirit12Json_grammerINS5_10Value_implINS5_13Config_vectorISsEEEEN9__gnu_cxx17__normal_iteratorIPKcSsEEEENS1_14parser_contextINS1_5nil_tEEEEEED1Ev@Base 0.47.2
 _ZN5boost6spirit7classic4impl19grammar_helper_listINS1_7grammarIN11json_spirit12Json_grammerINS5_10Value_implINS5_13Config_vectorISsEEEEN9__gnu_cxx17__normal_iteratorIPKcSsEEEENS1_14parser_contextINS1_5nil_tEEEEEED2Ev@Base 0.47.2
 _ZN5boost6spirit7classic4impl19grammar_helper_listINS1_7grammarIN11json_spirit12Json_grammerINS5_10Value_implINS5_13Config_vectorISsEEEENS1_10multi_passISt16istream_iteratorIccSt11char_traitsIcElENS1_19multi_pass_policies14input_iteratorENSG_11ref_countedENSG_12buf_id_checkENSG_9std_dequeEEEEENS1_14parser_contextINS1_5nil_tEEEEEED1Ev@Base 0.47.2
 _ZN5boost6spirit7classic4impl19grammar_helper_listINS1_7grammarIN11json_spirit12Json_grammerINS5_10Value_implINS5_13Config_vectorISsEEEENS1_10multi_passISt16istream_iteratorIccSt11char_traitsIcElENS1_19multi_pass_policies14input_iteratorENSG_11ref_countedENSG_12buf_id_checkENSG_9std_dequeEEEEENS1_14parser_contextINS1_5nil_tEEEEEED2Ev@Base 0.47.2
 _ZN5boost6spirit7classic4impl19grammar_helper_listINS1_7grammarIN11json_spirit12Json_grammerINS5_10Value_implINS5_13Config_vectorISsEEEENS1_17position_iteratorIN9__gnu_cxx17__normal_iteratorIPKcSsEENS1_18file_position_baseISsEENS1_5nil_tEEEEENS1_14parser_contextISJ_EEEEED1Ev@Base 0.47.2
 _ZN5boost6spirit7classic4impl19grammar_helper_listINS1_7grammarIN11json_spirit12Json_grammerINS5_10Value_implINS5_13Config_vectorISsEEEENS1_17position_iteratorIN9__gnu_cxx17__normal_iteratorIPKcSsEENS1_18file_position_baseISsEENS1_5nil_tEEEEENS1_14parser_contextISJ_EEEEED2Ev@Base 0.47.2
 _ZN5boost6spirit7classic4impl19grammar_helper_listINS1_7grammarIN11json_spirit12Json_grammerINS5_10Value_implINS5_13Config_vectorISsEEEENS1_17position_iteratorINS1_10multi_passISt16istream_iteratorIccSt11char_traitsIcElENS1_19multi_pass_policies14input_iteratorENSH_11ref_countedENSH_12buf_id_checkENSH_9std_dequeEEENS1_18file_position_baseISsEENS1_5nil_tEEEEENS1_14parser_contextISP_EEEEED1Ev@Base 0.47.2
 _ZN5boost6spirit7classic4impl19grammar_helper_listINS1_7grammarIN11json_spirit12Json_grammerINS5_10Value_implINS5_13Config_vectorISsEEEENS1_17position_iteratorINS1_10multi_passISt16istream_iteratorIccSt11char_traitsIcElENS1_19multi_pass_policies14input_iteratorENSH_11ref_countedENSH_12buf_id_checkENSH_9std_dequeEEENS1_18file_position_baseISsEENS1_5nil_tEEEEENS1_14parser_contextISP_EEEEED2Ev@Base 0.47.2
 _ZN5boost6spirit7classic4impl19object_with_id_baseINS2_11grammar_tagEmE10mutex_initEv@Base 0.58
 _ZN5boost6spirit7classic4impl19object_with_id_baseINS2_11grammar_tagEmE14mutex_instanceEv@Base 0.58
 _ZN5boost6spirit7classic4impl19object_with_id_baseINS2_11grammar_tagEmE17acquire_object_idEv@Base 0.47.2
 _ZN5boost6spirit7classic4impl19object_with_id_baseINS2_11grammar_tagEmED1Ev@Base 0.47.2
 _ZN5boost6spirit7classic4impl19object_with_id_baseINS2_11grammar_tagEmED2Ev@Base 0.47.2
 _ZN5boost6spirit7classic4impl19string_parser_parseINS1_5matchINS1_5nil_tEEEPKcKNS1_7scannerINS1_10multi_passISt16istream_iteratorIccSt11char_traitsIcElENS1_19multi_pass_policies14input_iteratorENSF_11ref_countedENSF_12buf_id_checkENSF_9std_dequeEEENS1_16scanner_policiesINS1_27no_skipper_iteration_policyINS1_24skipper_iteration_policyINS1_16iteration_policyEEEEENS1_12match_policyENS1_13action_policyEEEEEEET_T0_SX_RT1_@Base 0.47.2
 _ZN5boost6spirit7classic4impl19string_parser_parseINS1_5matchINS1_5nil_tEEEPKcKNS1_7scannerINS1_17position_iteratorIN9__gnu_cxx17__normal_iteratorIS8_SsEENS1_18file_position_baseISsEES5_EENS1_16scanner_policiesINS1_27no_skipper_iteration_policyINS1_24skipper_iteration_policyINS1_16iteration_policyEEEEENS1_12match_policyENS1_13action_policyEEEEEEET_T0_ST_RT1_@Base 0.47.2
 _ZN5boost6spirit7classic4impl19string_parser_parseINS1_5matchINS1_5nil_tEEEPKcKNS1_7scannerINS1_17position_iteratorINS1_10multi_passISt16istream_iteratorIccSt11char_traitsIcElENS1_19multi_pass_policies14input_iteratorENSG_11ref_countedENSG_12buf_id_checkENSG_9std_dequeEEENS1_18file_position_baseISsEES5_EENS1_16scanner_policiesINS1_27no_skipper_iteration_policyINS1_24skipper_iteration_policyINS1_16iteration_policyEEEEENS1_12match_policyENS1_13action_policyEEEEEEET_T0_S11_RT1_@Base 0.47.2
 _ZN5boost6spirit7classic4impl20grammar_parser_parseILi0EN11json_spirit12Json_grammerINS4_10Value_implINS4_13Config_vectorISsEEEEN9__gnu_cxx17__normal_iteratorIPKcSsEEEENS1_14parser_contextINS1_5nil_tEEENS1_7scannerISE_NS1_16scanner_policiesINS1_24skipper_iteration_policyINS1_16iteration_policyEEENS1_12match_policyENS1_13action_policyEEEEEEENS1_13parser_resultINS1_7grammarIT0_T1_EET2_E4typeEPKSW_RKSX_@Base 0.47.2
 _ZN5boost6spirit7classic4impl20grammar_parser_parseILi0EN11json_spirit12Json_grammerINS4_10Value_implINS4_13Config_vectorISsEEEENS1_10multi_passISt16istream_iteratorIccSt11char_traitsIcElENS1_19multi_pass_policies14input_iteratorENSF_11ref_countedENSF_12buf_id_checkENSF_9std_dequeEEEEENS1_14parser_contextINS1_5nil_tEEENS1_7scannerISK_NS1_16scanner_policiesINS1_24skipper_iteration_policyINS1_16iteration_policyEEENS1_12match_policyENS1_13action_policyEEEEEEENS1_13parser_resultINS1_7grammarIT0_T1_EET2_E4typeEPKS12_RKS13_@Base 0.58
 _ZN5boost6spirit7classic4impl20grammar_parser_parseILi0EN11json_spirit12Json_grammerINS4_10Value_implINS4_13Config_vectorISsEEEENS1_17position_iteratorIN9__gnu_cxx17__normal_iteratorIPKcSsEENS1_18file_position_baseISsEENS1_5nil_tEEEEENS1_14parser_contextISI_EENS1_7scannerISJ_NS1_16scanner_policiesINS1_24skipper_iteration_policyINS1_16iteration_policyEEENS1_12match_policyENS1_13action_policyEEEEEEENS1_13parser_resultINS1_7grammarIT0_T1_EET2_E4typeEPKS10_RKS11_@Base 0.58
 _ZN5boost6spirit7classic4impl20grammar_parser_parseILi0EN11json_spirit12Json_grammerINS4_10Value_implINS4_13Config_vectorISsEEEENS1_17position_iteratorINS1_10multi_passISt16istream_iteratorIccSt11char_traitsIcElENS1_19multi_pass_policies14input_iteratorENSG_11ref_countedENSG_12buf_id_checkENSG_9std_dequeEEENS1_18file_position_baseISsEENS1_5nil_tEEEEENS1_14parser_contextISO_EENS1_7scannerISP_NS1_16scanner_policiesINS1_24skipper_iteration_policyINS1_16iteration_policyEEENS1_12match_policyENS1_13action_policyEEEEEEENS1_13parser_resultINS1_7grammarIT0_T1_EET2_E4typeEPKS16_RKS17_@Base 0.58
 _ZN5boost6spirit7classic4impl26object_with_id_base_supplyImE7acquireEv@Base 0.47.2
 _ZN5boost6spirit7classic4impl26object_with_id_base_supplyImE7releaseEm@Base 0.58
 _ZN5boost6spirit7classic4impl26object_with_id_base_supplyImEC1Ev@Base 0.58
 _ZN5boost6spirit7classic4impl26object_with_id_base_supplyImEC2Ev@Base 0.58
 _ZN5boost6spirit7classic4impl26object_with_id_base_supplyImED1Ev@Base 0.58
 _ZN5boost6spirit7classic4impl26object_with_id_base_supplyImED2Ev@Base 0.58
 _ZN5boost6spirit7classic4ruleINS1_7scannerIN9__gnu_cxx17__normal_iteratorIPKcSsEENS1_16scanner_policiesINS1_24skipper_iteration_policyINS1_16iteration_policyEEENS1_12match_policyENS1_13action_policyEEEEENS1_5nil_tESH_EaSINS1_10contiguousINS1_13confix_parserINS1_5chlitIcEENS1_11kleene_starINS1_18escape_char_parserILm2EcEEEESN_NS1_21unary_parser_categoryENS1_10non_nestedENS1_10non_lexemeEEEEEEERSI_RKT_@Base 0.47.2
 _ZN5boost6spirit7classic4ruleINS1_7scannerIN9__gnu_cxx17__normal_iteratorIPKcSsEENS1_16scanner_policiesINS1_24skipper_iteration_policyINS1_16iteration_policyEEENS1_12match_policyENS1_13action_policyEEEEENS1_5nil_tESH_EaSINS1_11alternativeINSK_INS1_6actionINS1_11real_parserIdNS1_27strict_real_parser_policiesIdEEEENS_8functionIFvdEEEEENSL_INS1_10int_parserIlLi10ELj1ELin1EEENSQ_IFvlEEEEEEENSL_INS1_11uint_parserImLi10ELj1ELin1EEENSQ_IFvmEEEEEEEEERSI_RKT_@Base 0.47.2
 _ZN5boost6spirit7classic4ruleINS1_7scannerIN9__gnu_cxx17__normal_iteratorIPKcSsEENS1_16scanner_policiesINS1_24skipper_iteration_policyINS1_16iteration_policyEEENS1_12match_policyENS1_13action_policyEEEEENS1_5nil_tESH_EaSINS1_11alternativeINSK_INSK_INSK_INSK_INSK_INS1_6actionISI_NS_8functionIFvS8_S8_EEEEESI_EESI_EESI_EENSL_INS1_6strlitIS7_EESO_EEEESV_EESV_EEEERSI_RKT_@Base 0.47.2
 _ZN5boost6spirit7classic4ruleINS1_7scannerIN9__gnu_cxx17__normal_iteratorIPKcSsEENS1_16scanner_policiesINS1_24skipper_iteration_policyINS1_16iteration_policyEEENS1_12match_policyENS1_13action_policyEEEEENS1_5nil_tESH_EaSINS1_11alternativeISI_NS1_6actionINS1_14epsilon_parserEPFvS8_S8_EEEEEEERSI_RKT_@Base 0.47.2
 _ZN5boost6spirit7classic4ruleINS1_7scannerIN9__gnu_cxx17__normal_iteratorIPKcSsEENS1_16scanner_policiesINS1_24skipper_iteration_policyINS1_16iteration_policyEEENS1_12match_policyENS1_13action_policyEEEEENS1_5nil_tESH_EaSINS1_8sequenceINSK_INS1_6actionINS1_5chlitIcEENS_8functionIFvcEEEEENS1_8optionalISI_EEEENS1_11alternativeISR_NSL_INS1_14epsilon_parserEPFvS8_S8_EEEEEEEEERSI_RKT_@Base 0.47.2
 _ZN5boost6spirit7classic4ruleINS1_7scannerIN9__gnu_cxx17__normal_iteratorIPKcSsEENS1_16scanner_policiesINS1_24skipper_iteration_policyINS1_16iteration_policyEEENS1_12match_policyENS1_13action_policyEEEEENS1_5nil_tESH_EaSINS1_8sequenceINSK_INS1_6actionISI_NS_8functionIFvS8_S8_EEEEENS1_11alternativeINS1_5chlitIcEENSL_INS1_14epsilon_parserEPSN_EEEEEENSQ_ISI_SV_EEEEEERSI_RKT_@Base 0.47.2
 _ZN5boost6spirit7classic4ruleINS1_7scannerIN9__gnu_cxx17__normal_iteratorIPKcSsEENS1_16scanner_policiesINS1_24skipper_iteration_policyINS1_16iteration_policyEEENS1_12match_policyENS1_13action_policyEEEEENS1_5nil_tESH_EaSINS1_8sequenceISI_NS1_11kleene_starINS1_11alternativeINSK_INS1_5chlitIcEESI_EESO_EEEEEEEERSI_RKT_@Base 0.58
 _ZN5boost6spirit7classic4ruleINS1_7scannerINS1_10multi_passISt16istream_iteratorIccSt11char_traitsIcElENS1_19multi_pass_policies14input_iteratorENS9_11ref_countedENS9_12buf_id_checkENS9_9std_dequeEEENS1_16scanner_policiesINS1_24skipper_iteration_policyINS1_16iteration_policyEEENS1_12match_policyENS1_13action_policyEEEEENS1_5nil_tESN_EaSINS1_10contiguousINS1_13confix_parserINS1_5chlitIcEENS1_11kleene_starINS1_18escape_char_parserILm2EcEEEEST_NS1_21unary_parser_categoryENS1_10non_nestedENS1_10non_lexemeEEEEEEERSO_RKT_@Base 0.47.2
 _ZN5boost6spirit7classic4ruleINS1_7scannerINS1_10multi_passISt16istream_iteratorIccSt11char_traitsIcElENS1_19multi_pass_policies14input_iteratorENS9_11ref_countedENS9_12buf_id_checkENS9_9std_dequeEEENS1_16scanner_policiesINS1_24skipper_iteration_policyINS1_16iteration_policyEEENS1_12match_policyENS1_13action_policyEEEEENS1_5nil_tESN_EaSINS1_11alternativeINSQ_INS1_6actionINS1_11real_parserIdNS1_27strict_real_parser_policiesIdEEEENS_8functionIFvdEEEEENSR_INS1_10int_parserIlLi10ELj1ELin1EEENSW_IFvlEEEEEEENSR_INS1_11uint_parserImLi10ELj1ELin1EEENSW_IFvmEEEEEEEEERSO_RKT_@Base 0.47.2
 _ZN5boost6spirit7classic4ruleINS1_7scannerINS1_10multi_passISt16istream_iteratorIccSt11char_traitsIcElENS1_19multi_pass_policies14input_iteratorENS9_11ref_countedENS9_12buf_id_checkENS9_9std_dequeEEENS1_16scanner_policiesINS1_24skipper_iteration_policyINS1_16iteration_policyEEENS1_12match_policyENS1_13action_policyEEEEENS1_5nil_tESN_EaSINS1_11alternativeINSQ_INSQ_INSQ_INSQ_INSQ_INS1_6actionISO_NS_8functionIFvSE_SE_EEEEESO_EESO_EESO_EENSR_INS1_6strlitIPKcEESU_EEEES13_EES13_EEEERSO_RKT_@Base 0.47.2
 _ZN5boost6spirit7classic4ruleINS1_7scannerINS1_10multi_passISt16istream_iteratorIccSt11char_traitsIcElENS1_19multi_pass_policies14input_iteratorENS9_11ref_countedENS9_12buf_id_checkENS9_9std_dequeEEENS1_16scanner_policiesINS1_24skipper_iteration_policyINS1_16iteration_policyEEENS1_12match_policyENS1_13action_policyEEEEENS1_5nil_tESN_EaSINS1_11alternativeISO_NS1_6actionINS1_14epsilon_parserEPFvSE_SE_EEEEEEERSO_RKT_@Base 0.47.2
 _ZN5boost6spirit7classic4ruleINS1_7scannerINS1_10multi_passISt16istream_iteratorIccSt11char_traitsIcElENS1_19multi_pass_policies14input_iteratorENS9_11ref_countedENS9_12buf_id_checkENS9_9std_dequeEEENS1_16scanner_policiesINS1_24skipper_iteration_policyINS1_16iteration_policyEEENS1_12match_policyENS1_13action_policyEEEEENS1_5nil_tESN_EaSINS1_8sequenceINSQ_INS1_6actionINS1_5chlitIcEENS_8functionIFvcEEEEENS1_8optionalISO_EEEENS1_11alternativeISX_NSR_INS1_14epsilon_parserEPFvSE_SE_EEEEEEEEERSO_RKT_@Base 0.47.2
 _ZN5boost6spirit7classic4ruleINS1_7scannerINS1_10multi_passISt16istream_iteratorIccSt11char_traitsIcElENS1_19multi_pass_policies14input_iteratorENS9_11ref_countedENS9_12buf_id_checkENS9_9std_dequeEEENS1_16scanner_policiesINS1_24skipper_iteration_policyINS1_16iteration_policyEEENS1_12match_policyENS1_13action_policyEEEEENS1_5nil_tESN_EaSINS1_8sequenceINSQ_INS1_6actionISO_NS_8functionIFvSE_SE_EEEEENS1_11alternativeINS1_5chlitIcEENSR_INS1_14epsilon_parserEPST_EEEEEENSW_ISO_S11_EEEEEERSO_RKT_@Base 0.47.2
 _ZN5boost6spirit7classic4ruleINS1_7scannerINS1_10multi_passISt16istream_iteratorIccSt11char_traitsIcElENS1_19multi_pass_policies14input_iteratorENS9_11ref_countedENS9_12buf_id_checkENS9_9std_dequeEEENS1_16scanner_policiesINS1_24skipper_iteration_policyINS1_16iteration_policyEEENS1_12match_policyENS1_13action_policyEEEEENS1_5nil_tESN_EaSINS1_8sequenceISO_NS1_11kleene_starINS1_11alternativeINSQ_INS1_5chlitIcEESO_EESU_EEEEEEEERSO_RKT_@Base 0.58
 _ZN5boost6spirit7classic4ruleINS1_7scannerINS1_17position_iteratorIN9__gnu_cxx17__normal_iteratorIPKcSsEENS1_18file_position_baseISsEENS1_5nil_tEEENS1_16scanner_policiesINS1_24skipper_iteration_policyINS1_16iteration_policyEEENS1_12match_policyENS1_13action_policyEEEEESC_SC_EaSINS1_10contiguousINS1_13confix_parserINS1_5chlitIcEENS1_11kleene_starINS1_18escape_char_parserILm2EcEEEESR_NS1_21unary_parser_categoryENS1_10non_nestedENS1_10non_lexemeEEEEEEERSM_RKT_@Base 0.47.2
 _ZN5boost6spirit7classic4ruleINS1_7scannerINS1_17position_iteratorIN9__gnu_cxx17__normal_iteratorIPKcSsEENS1_18file_position_baseISsEENS1_5nil_tEEENS1_16scanner_policiesINS1_24skipper_iteration_policyINS1_16iteration_policyEEENS1_12match_policyENS1_13action_policyEEEEESC_SC_EaSINS1_11alternativeINSO_INS1_6actionINS1_11real_parserIdNS1_27strict_real_parser_policiesIdEEEENS_8functionIFvdEEEEENSP_INS1_10int_parserIlLi10ELj1ELin1EEENSU_IFvlEEEEEEENSP_INS1_11uint_parserImLi10ELj1ELin1EEENSU_IFvmEEEEEEEEERSM_RKT_@Base 0.47.2
 _ZN5boost6spirit7classic4ruleINS1_7scannerINS1_17position_iteratorIN9__gnu_cxx17__normal_iteratorIPKcSsEENS1_18file_position_baseISsEENS1_5nil_tEEENS1_16scanner_policiesINS1_24skipper_iteration_policyINS1_16iteration_policyEEENS1_12match_policyENS1_13action_policyEEEEESC_SC_EaSINS1_11alternativeINSO_INSO_INSO_INSO_INSO_INS1_6actionISM_NS_8functionIFvSD_SD_EEEEESM_EESM_EESM_EENSP_INS1_6strlitIS8_EESS_EEEESZ_EESZ_EEEERSM_RKT_@Base 0.47.2
 _ZN5boost6spirit7classic4ruleINS1_7scannerINS1_17position_iteratorIN9__gnu_cxx17__normal_iteratorIPKcSsEENS1_18file_position_baseISsEENS1_5nil_tEEENS1_16scanner_policiesINS1_24skipper_iteration_policyINS1_16iteration_policyEEENS1_12match_policyENS1_13action_policyEEEEESC_SC_EaSINS1_11alternativeISM_NS1_6actionINS1_14epsilon_parserEPFvSD_SD_EEEEEEERSM_RKT_@Base 0.47.2
 _ZN5boost6spirit7classic4ruleINS1_7scannerINS1_17position_iteratorIN9__gnu_cxx17__normal_iteratorIPKcSsEENS1_18file_position_baseISsEENS1_5nil_tEEENS1_16scanner_policiesINS1_24skipper_iteration_policyINS1_16iteration_policyEEENS1_12match_policyENS1_13action_policyEEEEESC_SC_EaSINS1_8sequenceINSO_INS1_6actionINS1_5chlitIcEENS_8functionIFvcEEEEENS1_8optionalISM_EEEENS1_11alternativeISV_NSP_INS1_14epsilon_parserEPFvSD_SD_EEEEEEEEERSM_RKT_@Base 0.47.2
 _ZN5boost6spirit7classic4ruleINS1_7scannerINS1_17position_iteratorIN9__gnu_cxx17__normal_iteratorIPKcSsEENS1_18file_position_baseISsEENS1_5nil_tEEENS1_16scanner_policiesINS1_24skipper_iteration_policyINS1_16iteration_policyEEENS1_12match_policyENS1_13action_policyEEEEESC_SC_EaSINS1_8sequenceINSO_INS1_6actionISM_NS_8functionIFvSD_SD_EEEEENS1_11alternativeINS1_5chlitIcEENSP_INS1_14epsilon_parserEPSR_EEEEEENSU_ISM_SZ_EEEEEERSM_RKT_@Base 0.47.2
 _ZN5boost6spirit7classic4ruleINS1_7scannerINS1_17position_iteratorIN9__gnu_cxx17__normal_iteratorIPKcSsEENS1_18file_position_baseISsEENS1_5nil_tEEENS1_16scanner_policiesINS1_24skipper_iteration_policyINS1_16iteration_policyEEENS1_12match_policyENS1_13action_policyEEEEESC_SC_EaSINS1_8sequenceISM_NS1_11kleene_starINS1_11alternativeINSO_INS1_5chlitIcEESM_EESS_EEEEEEEERSM_RKT_@Base 0.58
 _ZN5boost6spirit7classic4ruleINS1_7scannerINS1_17position_iteratorINS1_10multi_passISt16istream_iteratorIccSt11char_traitsIcElENS1_19multi_pass_policies14input_iteratorENSA_11ref_countedENSA_12buf_id_checkENSA_9std_dequeEEENS1_18file_position_baseISsEENS1_5nil_tEEENS1_16scanner_policiesINS1_24skipper_iteration_policyINS1_16iteration_policyEEENS1_12match_policyENS1_13action_policyEEEEESI_SI_EaSINS1_10contiguousINS1_13confix_parserINS1_5chlitIcEENS1_11kleene_starINS1_18escape_char_parserILm2EcEEEESX_NS1_21unary_parser_categoryENS1_10non_nestedENS1_10non_lexemeEEEEEEERSS_RKT_@Base 0.47.2
 _ZN5boost6spirit7classic4ruleINS1_7scannerINS1_17position_iteratorINS1_10multi_passISt16istream_iteratorIccSt11char_traitsIcElENS1_19multi_pass_policies14input_iteratorENSA_11ref_countedENSA_12buf_id_checkENSA_9std_dequeEEENS1_18file_position_baseISsEENS1_5nil_tEEENS1_16scanner_policiesINS1_24skipper_iteration_policyINS1_16iteration_policyEEENS1_12match_policyENS1_13action_policyEEEEESI_SI_EaSINS1_11alternativeINSU_INS1_6actionINS1_11real_parserIdNS1_27strict_real_parser_policiesIdEEEENS_8functionIFvdEEEEENSV_INS1_10int_parserIlLi10ELj1ELin1EEENS10_IFvlEEEEEEENSV_INS1_11uint_parserImLi10ELj1ELin1EEENS10_IFvmEEEEEEEEERSS_RKT_@Base 0.47.2
 _ZN5boost6spirit7classic4ruleINS1_7scannerINS1_17position_iteratorINS1_10multi_passISt16istream_iteratorIccSt11char_traitsIcElENS1_19multi_pass_policies14input_iteratorENSA_11ref_countedENSA_12buf_id_checkENSA_9std_dequeEEENS1_18file_position_baseISsEENS1_5nil_tEEENS1_16scanner_policiesINS1_24skipper_iteration_policyINS1_16iteration_policyEEENS1_12match_policyENS1_13action_policyEEEEESI_SI_EaSINS1_11alternativeINSU_INSU_INSU_INSU_INSU_INS1_6actionISS_NS_8functionIFvSJ_SJ_EEEEESS_EESS_EESS_EENSV_INS1_6strlitIPKcEESY_EEEES17_EES17_EEEERSS_RKT_@Base 0.47.2
 _ZN5boost6spirit7classic4ruleINS1_7scannerINS1_17position_iteratorINS1_10multi_passISt16istream_iteratorIccSt11char_traitsIcElENS1_19multi_pass_policies14input_iteratorENSA_11ref_countedENSA_12buf_id_checkENSA_9std_dequeEEENS1_18file_position_baseISsEENS1_5nil_tEEENS1_16scanner_policiesINS1_24skipper_iteration_policyINS1_16iteration_policyEEENS1_12match_policyENS1_13action_policyEEEEESI_SI_EaSINS1_11alternativeISS_NS1_6actionINS1_14epsilon_parserEPFvSJ_SJ_EEEEEEERSS_RKT_@Base 0.47.2
 _ZN5boost6spirit7classic4ruleINS1_7scannerINS1_17position_iteratorINS1_10multi_passISt16istream_iteratorIccSt11char_traitsIcElENS1_19multi_pass_policies14input_iteratorENSA_11ref_countedENSA_12buf_id_checkENSA_9std_dequeEEENS1_18file_position_baseISsEENS1_5nil_tEEENS1_16scanner_policiesINS1_24skipper_iteration_policyINS1_16iteration_policyEEENS1_12match_policyENS1_13action_policyEEEEESI_SI_EaSINS1_8sequenceINSU_INS1_6actionINS1_5chlitIcEENS_8functionIFvcEEEEENS1_8optionalISS_EEEENS1_11alternativeIS11_NSV_INS1_14epsilon_parserEPFvSJ_SJ_EEEEEEEEERSS_RKT_@Base 0.47.2
 _ZN5boost6spirit7classic4ruleINS1_7scannerINS1_17position_iteratorINS1_10multi_passISt16istream_iteratorIccSt11char_traitsIcElENS1_19multi_pass_policies14input_iteratorENSA_11ref_countedENSA_12buf_id_checkENSA_9std_dequeEEENS1_18file_position_baseISsEENS1_5nil_tEEENS1_16scanner_policiesINS1_24skipper_iteration_policyINS1_16iteration_policyEEENS1_12match_policyENS1_13action_policyEEEEESI_SI_EaSINS1_8sequenceINSU_INS1_6actionISS_NS_8functionIFvSJ_SJ_EEEEENS1_11alternativeINS1_5chlitIcEENSV_INS1_14epsilon_parserEPSX_EEEEEENS10_ISS_S15_EEEEEERSS_RKT_@Base 0.47.2
 _ZN5boost6spirit7classic4ruleINS1_7scannerINS1_17position_iteratorINS1_10multi_passISt16istream_iteratorIccSt11char_traitsIcElENS1_19multi_pass_policies14input_iteratorENSA_11ref_countedENSA_12buf_id_checkENSA_9std_dequeEEENS1_18file_position_baseISsEENS1_5nil_tEEENS1_16scanner_policiesINS1_24skipper_iteration_policyINS1_16iteration_policyEEENS1_12match_policyENS1_13action_policyEEEEESI_SI_EaSINS1_8sequenceISS_NS1_11kleene_starINS1_11alternativeINSU_INS1_5chlitIcEESS_EESY_EEEEEEEERSS_RKT_@Base 0.58
 _ZN5boost6spirit7classic5matchINS1_5nil_tEE6concatIS3_EEvRKNS2_IT_EE@Base 0.47.2
 _ZN5boost6spirit7classic5matchIcEaSERKS3_@Base 0.47.2
 _ZN5boost6spirit7classic5matchIdE5valueIdEEvRKT_@Base 0.47.2
 _ZN5boost6spirit7classic6actionINS1_10int_parserIlLi10ELj1ELin1EEENS_8functionIFvlEEEED1Ev@Base 0.47.2
 _ZN5boost6spirit7classic6actionINS1_10int_parserIlLi10ELj1ELin1EEENS_8functionIFvlEEEED2Ev@Base 0.47.2
 _ZN5boost6spirit7classic6actionINS1_11real_parserIdNS1_27strict_real_parser_policiesIdEEEENS_8functionIFvdEEEED1Ev@Base 0.47.2
 _ZN5boost6spirit7classic6actionINS1_11real_parserIdNS1_27strict_real_parser_policiesIdEEEENS_8functionIFvdEEEED2Ev@Base 0.47.2
 _ZN5boost6spirit7classic6actionINS1_11uint_parserImLi10ELj1ELin1EEENS_8functionIFvmEEEED1Ev@Base 0.47.2
 _ZN5boost6spirit7classic6actionINS1_11uint_parserImLi10ELj1ELin1EEENS_8functionIFvmEEEED2Ev@Base 0.47.2
 _ZN5boost6spirit7classic6actionINS1_4ruleINS1_7scannerIN9__gnu_cxx17__normal_iteratorIPKcSsEENS1_16scanner_policiesINS1_24skipper_iteration_policyINS1_16iteration_policyEEENS1_12match_policyENS1_13action_policyEEEEENS1_5nil_tESI_EENS_8functionIFvS9_S9_EEEED1Ev@Base 0.47.2
 _ZN5boost6spirit7classic6actionINS1_4ruleINS1_7scannerIN9__gnu_cxx17__normal_iteratorIPKcSsEENS1_16scanner_policiesINS1_24skipper_iteration_policyINS1_16iteration_policyEEENS1_12match_policyENS1_13action_policyEEEEENS1_5nil_tESI_EENS_8functionIFvS9_S9_EEEED2Ev@Base 0.47.2
 _ZN5boost6spirit7classic6actionINS1_4ruleINS1_7scannerINS1_10multi_passISt16istream_iteratorIccSt11char_traitsIcElENS1_19multi_pass_policies14input_iteratorENSA_11ref_countedENSA_12buf_id_checkENSA_9std_dequeEEENS1_16scanner_policiesINS1_24skipper_iteration_policyINS1_16iteration_policyEEENS1_12match_policyENS1_13action_policyEEEEENS1_5nil_tESO_EENS_8functionIFvSF_SF_EEEED1Ev@Base 0.47.2
 _ZN5boost6spirit7classic6actionINS1_4ruleINS1_7scannerINS1_10multi_passISt16istream_iteratorIccSt11char_traitsIcElENS1_19multi_pass_policies14input_iteratorENSA_11ref_countedENSA_12buf_id_checkENSA_9std_dequeEEENS1_16scanner_policiesINS1_24skipper_iteration_policyINS1_16iteration_policyEEENS1_12match_policyENS1_13action_policyEEEEENS1_5nil_tESO_EENS_8functionIFvSF_SF_EEEED2Ev@Base 0.47.2
 _ZN5boost6spirit7classic6actionINS1_4ruleINS1_7scannerINS1_17position_iteratorIN9__gnu_cxx17__normal_iteratorIPKcSsEENS1_18file_position_baseISsEENS1_5nil_tEEENS1_16scanner_policiesINS1_24skipper_iteration_policyINS1_16iteration_policyEEENS1_12match_policyENS1_13action_policyEEEEESD_SD_EENS_8functionIFvSE_SE_EEEED1Ev@Base 0.47.2
 _ZN5boost6spirit7classic6actionINS1_4ruleINS1_7scannerINS1_17position_iteratorIN9__gnu_cxx17__normal_iteratorIPKcSsEENS1_18file_position_baseISsEENS1_5nil_tEEENS1_16scanner_policiesINS1_24skipper_iteration_policyINS1_16iteration_policyEEENS1_12match_policyENS1_13action_policyEEEEESD_SD_EENS_8functionIFvSE_SE_EEEED2Ev@Base 0.47.2
 _ZN5boost6spirit7classic6actionINS1_4ruleINS1_7scannerINS1_17position_iteratorINS1_10multi_passISt16istream_iteratorIccSt11char_traitsIcElENS1_19multi_pass_policies14input_iteratorENSB_11ref_countedENSB_12buf_id_checkENSB_9std_dequeEEENS1_18file_position_baseISsEENS1_5nil_tEEENS1_16scanner_policiesINS1_24skipper_iteration_policyINS1_16iteration_policyEEENS1_12match_policyENS1_13action_policyEEEEESJ_SJ_EENS_8functionIFvSK_SK_EEEED1Ev@Base 0.47.2
 _ZN5boost6spirit7classic6actionINS1_4ruleINS1_7scannerINS1_17position_iteratorINS1_10multi_passISt16istream_iteratorIccSt11char_traitsIcElENS1_19multi_pass_policies14input_iteratorENSB_11ref_countedENSB_12buf_id_checkENSB_9std_dequeEEENS1_18file_position_baseISsEENS1_5nil_tEEENS1_16scanner_policiesINS1_24skipper_iteration_policyINS1_16iteration_policyEEENS1_12match_policyENS1_13action_policyEEEEESJ_SJ_EENS_8functionIFvSK_SK_EEEED2Ev@Base 0.47.2
 _ZN5boost6spirit7classic6actionINS1_5chlitIcEENS_8functionIFvcEEEED1Ev@Base 0.47.2
 _ZN5boost6spirit7classic6actionINS1_5chlitIcEENS_8functionIFvcEEEED2Ev@Base 0.47.2
 _ZN5boost6spirit7classic6actionINS1_6strlitIPKcEENS_8functionIFvN9__gnu_cxx17__normal_iteratorIS5_SsEESA_EEEED1Ev@Base 0.47.2
 _ZN5boost6spirit7classic6actionINS1_6strlitIPKcEENS_8functionIFvN9__gnu_cxx17__normal_iteratorIS5_SsEESA_EEEED2Ev@Base 0.47.2
 _ZN5boost6spirit7classic6actionINS1_6strlitIPKcEENS_8functionIFvNS1_10multi_passISt16istream_iteratorIccSt11char_traitsIcElENS1_19multi_pass_policies14input_iteratorENSD_11ref_countedENSD_12buf_id_checkENSD_9std_dequeEEESI_EEEED1Ev@Base 0.47.2
 _ZN5boost6spirit7classic6actionINS1_6strlitIPKcEENS_8functionIFvNS1_10multi_passISt16istream_iteratorIccSt11char_traitsIcElENS1_19multi_pass_policies14input_iteratorENSD_11ref_countedENSD_12buf_id_checkENSD_9std_dequeEEESI_EEEED2Ev@Base 0.47.2
 _ZN5boost6spirit7classic6actionINS1_6strlitIPKcEENS_8functionIFvNS1_17position_iteratorIN9__gnu_cxx17__normal_iteratorIS5_SsEENS1_18file_position_baseISsEENS1_5nil_tEEESF_EEEED1Ev@Base 0.47.2
 _ZN5boost6spirit7classic6actionINS1_6strlitIPKcEENS_8functionIFvNS1_17position_iteratorIN9__gnu_cxx17__normal_iteratorIS5_SsEENS1_18file_position_baseISsEENS1_5nil_tEEESF_EEEED2Ev@Base 0.47.2
 _ZN5boost6spirit7classic6actionINS1_6strlitIPKcEENS_8functionIFvNS1_17position_iteratorINS1_10multi_passISt16istream_iteratorIccSt11char_traitsIcElENS1_19multi_pass_policies14input_iteratorENSE_11ref_countedENSE_12buf_id_checkENSE_9std_dequeEEENS1_18file_position_baseISsEENS1_5nil_tEEESN_EEEED1Ev@Base 0.47.2
 _ZN5boost6spirit7classic6actionINS1_6strlitIPKcEENS_8functionIFvNS1_17position_iteratorINS1_10multi_passISt16istream_iteratorIccSt11char_traitsIcElENS1_19multi_pass_policies14input_iteratorENSE_11ref_countedENSE_12buf_id_checkENSE_9std_dequeEEENS1_18file_position_baseISsEENS1_5nil_tEEESN_EEEED2Ev@Base 0.47.2
 _ZN5boost6spirit7classic6binaryINS1_11alternativeINS1_6actionINS1_4ruleINS1_7scannerINS1_17position_iteratorINS1_10multi_passISt16istream_iteratorIccSt11char_traitsIcElENS1_19multi_pass_policies14input_iteratorENSD_11ref_countedENSD_12buf_id_checkENSD_9std_dequeEEENS1_18file_position_baseISsEENS1_5nil_tEEENS1_16scanner_policiesINS1_24skipper_iteration_policyINS1_16iteration_policyEEENS1_12match_policyENS1_13action_policyEEEEESL_SL_EENS_8functionIFvSM_SM_EEEEESV_EESV_NS1_6parserINS3_IS10_SV_EEEEEC1ERKS10_RKSV_@Base 0.59
 _ZN5boost6spirit7classic6binaryINS1_11alternativeINS1_6actionINS1_4ruleINS1_7scannerINS1_17position_iteratorINS1_10multi_passISt16istream_iteratorIccSt11char_traitsIcElENS1_19multi_pass_policies14input_iteratorENSD_11ref_countedENSD_12buf_id_checkENSD_9std_dequeEEENS1_18file_position_baseISsEENS1_5nil_tEEENS1_16scanner_policiesINS1_24skipper_iteration_policyINS1_16iteration_policyEEENS1_12match_policyENS1_13action_policyEEEEESL_SL_EENS_8functionIFvSM_SM_EEEEESV_EESV_NS1_6parserINS3_IS10_SV_EEEEEC2ERKS10_RKSV_@Base 0.59
 _ZN5boost6spirit7classic6binaryINS1_11alternativeINS3_INS1_6actionINS1_4ruleINS1_7scannerIN9__gnu_cxx17__normal_iteratorIPKcSsEENS1_16scanner_policiesINS1_24skipper_iteration_policyINS1_16iteration_policyEEENS1_12match_policyENS1_13action_policyEEEEENS1_5nil_tESK_EENS_8functionIFvSB_SB_EEEEESL_EESL_EESL_NS1_6parserINS3_ISR_SL_EEEEEC1ERKSV_@Base 0.59
 _ZN5boost6spirit7classic6binaryINS1_11alternativeINS3_INS1_6actionINS1_4ruleINS1_7scannerIN9__gnu_cxx17__normal_iteratorIPKcSsEENS1_16scanner_policiesINS1_24skipper_iteration_policyINS1_16iteration_policyEEENS1_12match_policyENS1_13action_policyEEEEENS1_5nil_tESK_EENS_8functionIFvSB_SB_EEEEESL_EESL_EESL_NS1_6parserINS3_ISR_SL_EEEEEC2ERKSV_@Base 0.59
 _ZN5boost6spirit7classic6binaryINS1_11alternativeINS3_INS1_6actionINS1_4ruleINS1_7scannerINS1_17position_iteratorINS1_10multi_passISt16istream_iteratorIccSt11char_traitsIcElENS1_19multi_pass_policies14input_iteratorENSD_11ref_countedENSD_12buf_id_checkENSD_9std_dequeEEENS1_18file_position_baseISsEENS1_5nil_tEEENS1_16scanner_policiesINS1_24skipper_iteration_policyINS1_16iteration_policyEEENS1_12match_policyENS1_13action_policyEEEEESL_SL_EENS_8functionIFvSM_SM_EEEEESV_EESV_EESV_NS1_6parserINS3_IS11_SV_EEEEEC1ERKS11_RKSV_@Base 0.59
 _ZN5boost6spirit7classic6binaryINS1_11alternativeINS3_INS1_6actionINS1_4ruleINS1_7scannerINS1_17position_iteratorINS1_10multi_passISt16istream_iteratorIccSt11char_traitsIcElENS1_19multi_pass_policies14input_iteratorENSD_11ref_countedENSD_12buf_id_checkENSD_9std_dequeEEENS1_18file_position_baseISsEENS1_5nil_tEEENS1_16scanner_policiesINS1_24skipper_iteration_policyINS1_16iteration_policyEEENS1_12match_policyENS1_13action_policyEEEEESL_SL_EENS_8functionIFvSM_SM_EEEEESV_EESV_EESV_NS1_6parserINS3_IS11_SV_EEEEEC2ERKS11_RKSV_@Base 0.59
 _ZN5boost6spirit7classic6binaryINS1_6actionINS1_5chlitIcEENS_8functionIFvcEEEEENS1_8optionalINS1_4ruleINS1_7scannerIN9__gnu_cxx17__normal_iteratorIPKcSsEENS1_16scanner_policiesINS1_24skipper_iteration_policyINS1_16iteration_policyEEENS1_12match_policyENS1_13action_policyEEEEENS1_5nil_tESQ_EEEENS1_6parserINS1_8sequenceIS9_SS_EEEEEC1ERKSX_@Base 0.59
 _ZN5boost6spirit7classic6binaryINS1_6actionINS1_5chlitIcEENS_8functionIFvcEEEEENS1_8optionalINS1_4ruleINS1_7scannerIN9__gnu_cxx17__normal_iteratorIPKcSsEENS1_16scanner_policiesINS1_24skipper_iteration_policyINS1_16iteration_policyEEENS1_12match_policyENS1_13action_policyEEEEENS1_5nil_tESQ_EEEENS1_6parserINS1_8sequenceIS9_SS_EEEEEC2ERKSX_@Base 0.59
 _ZN5boost6spirit7classic6binaryINS1_6actionINS1_5chlitIcEENS_8functionIFvcEEEEENS1_8optionalINS1_4ruleINS1_7scannerINS1_10multi_passISt16istream_iteratorIccSt11char_traitsIcElENS1_19multi_pass_policies14input_iteratorENSI_11ref_countedENSI_12buf_id_checkENSI_9std_dequeEEENS1_16scanner_policiesINS1_24skipper_iteration_policyINS1_16iteration_policyEEENS1_12match_policyENS1_13action_policyEEEEENS1_5nil_tESW_EEEENS1_6parserINS1_8sequenceIS9_SY_EEEEEC1ERKS13_@Base 0.58
 _ZN5boost6spirit7classic6binaryINS1_6actionINS1_5chlitIcEENS_8functionIFvcEEEEENS1_8optionalINS1_4ruleINS1_7scannerINS1_10multi_passISt16istream_iteratorIccSt11char_traitsIcElENS1_19multi_pass_policies14input_iteratorENSI_11ref_countedENSI_12buf_id_checkENSI_9std_dequeEEENS1_16scanner_policiesINS1_24skipper_iteration_policyINS1_16iteration_policyEEENS1_12match_policyENS1_13action_policyEEEEENS1_5nil_tESW_EEEENS1_6parserINS1_8sequenceIS9_SY_EEEEEC2ERKS13_@Base 0.58
 _ZN5boost6spirit7classic6binaryINS1_6actionINS1_5chlitIcEENS_8functionIFvcEEEEENS1_8optionalINS1_4ruleINS1_7scannerINS1_17position_iteratorIN9__gnu_cxx17__normal_iteratorIPKcSsEENS1_18file_position_baseISsEENS1_5nil_tEEENS1_16scanner_policiesINS1_24skipper_iteration_policyINS1_16iteration_policyEEENS1_12match_policyENS1_13action_policyEEEEESL_SL_EEEENS1_6parserINS1_8sequenceIS9_SW_EEEEEC1ERKS11_@Base 0.59
 _ZN5boost6spirit7classic6binaryINS1_6actionINS1_5chlitIcEENS_8functionIFvcEEEEENS1_8optionalINS1_4ruleINS1_7scannerINS1_17position_iteratorIN9__gnu_cxx17__normal_iteratorIPKcSsEENS1_18file_position_baseISsEENS1_5nil_tEEENS1_16scanner_policiesINS1_24skipper_iteration_policyINS1_16iteration_policyEEENS1_12match_policyENS1_13action_policyEEEEESL_SL_EEEENS1_6parserINS1_8sequenceIS9_SW_EEEEEC2ERKS11_@Base 0.59
 _ZN5boost6spirit7classic6binaryINS1_6actionINS1_5chlitIcEENS_8functionIFvcEEEEENS1_8optionalINS1_4ruleINS1_7scannerINS1_17position_iteratorINS1_10multi_passISt16istream_iteratorIccSt11char_traitsIcElENS1_19multi_pass_policies14input_iteratorENSJ_11ref_countedENSJ_12buf_id_checkENSJ_9std_dequeEEENS1_18file_position_baseISsEENS1_5nil_tEEENS1_16scanner_policiesINS1_24skipper_iteration_policyINS1_16iteration_policyEEENS1_12match_policyENS1_13action_policyEEEEESR_SR_EEEENS1_6parserINS1_8sequenceIS9_S12_EEEEEC1ERKS17_@Base 0.59
 _ZN5boost6spirit7classic6binaryINS1_6actionINS1_5chlitIcEENS_8functionIFvcEEEEENS1_8optionalINS1_4ruleINS1_7scannerINS1_17position_iteratorINS1_10multi_passISt16istream_iteratorIccSt11char_traitsIcElENS1_19multi_pass_policies14input_iteratorENSJ_11ref_countedENSJ_12buf_id_checkENSJ_9std_dequeEEENS1_18file_position_baseISsEENS1_5nil_tEEENS1_16scanner_policiesINS1_24skipper_iteration_policyINS1_16iteration_policyEEENS1_12match_policyENS1_13action_policyEEEEESR_SR_EEEENS1_6parserINS1_8sequenceIS9_S12_EEEEEC2ERKS17_@Base 0.59
 _ZN5boost6spirit7classic6binaryINS1_6actionINS1_5chlitIcEENS_8functionIFvcEEEEENS3_INS1_14epsilon_parserEPFvNS1_10multi_passISt16istream_iteratorIccSt11char_traitsIcElENS1_19multi_pass_policies14input_iteratorENSG_11ref_countedENSG_12buf_id_checkENSG_9std_dequeEEESL_EEENS1_6parserINS1_11alternativeIS9_SO_EEEEEC1ERKS9_RKSO_@Base 0.58
 _ZN5boost6spirit7classic6binaryINS1_6actionINS1_5chlitIcEENS_8functionIFvcEEEEENS3_INS1_14epsilon_parserEPFvNS1_10multi_passISt16istream_iteratorIccSt11char_traitsIcElENS1_19multi_pass_policies14input_iteratorENSG_11ref_countedENSG_12buf_id_checkENSG_9std_dequeEEESL_EEENS1_6parserINS1_11alternativeIS9_SO_EEEEEC2ERKS9_RKSO_@Base 0.58
 _ZN5boost6spirit7classic6binaryINS1_6actionINS1_5chlitIcEENS_8functionIFvcEEEEENS3_INS1_14epsilon_parserEPFvNS1_17position_iteratorINS1_10multi_passISt16istream_iteratorIccSt11char_traitsIcElENS1_19multi_pass_policies14input_iteratorENSH_11ref_countedENSH_12buf_id_checkENSH_9std_dequeEEENS1_18file_position_baseISsEENS1_5nil_tEEESQ_EEENS1_6parserINS1_11alternativeIS9_ST_EEEEEC1ERKS9_RKST_@Base 0.59
 _ZN5boost6spirit7classic6binaryINS1_6actionINS1_5chlitIcEENS_8functionIFvcEEEEENS3_INS1_14epsilon_parserEPFvNS1_17position_iteratorINS1_10multi_passISt16istream_iteratorIccSt11char_traitsIcElENS1_19multi_pass_policies14input_iteratorENSH_11ref_countedENSH_12buf_id_checkENSH_9std_dequeEEENS1_18file_position_baseISsEENS1_5nil_tEEESQ_EEENS1_6parserINS1_11alternativeIS9_ST_EEEEEC2ERKS9_RKST_@Base 0.59
 _ZN5boost6spirit7classic6binaryINS1_8sequenceINS1_6actionINS1_4ruleINS1_7scannerINS1_10multi_passISt16istream_iteratorIccSt11char_traitsIcElENS1_19multi_pass_policies14input_iteratorENSC_11ref_countedENSC_12buf_id_checkENSC_9std_dequeEEENS1_16scanner_policiesINS1_24skipper_iteration_policyINS1_16iteration_policyEEENS1_12match_policyENS1_13action_policyEEEEENS1_5nil_tESQ_EENS_8functionIFvSH_SH_EEEEENS1_11alternativeINS1_5chlitIcEENS4_INS1_14epsilon_parserEPST_EEEEEENSW_ISR_S11_EENS1_6parserINS3_IS13_S14_EEEEED1Ev@Base 0.59
 _ZN5boost6spirit7classic6binaryINS1_8sequenceINS1_6actionINS1_4ruleINS1_7scannerINS1_10multi_passISt16istream_iteratorIccSt11char_traitsIcElENS1_19multi_pass_policies14input_iteratorENSC_11ref_countedENSC_12buf_id_checkENSC_9std_dequeEEENS1_16scanner_policiesINS1_24skipper_iteration_policyINS1_16iteration_policyEEENS1_12match_policyENS1_13action_policyEEEEENS1_5nil_tESQ_EENS_8functionIFvSH_SH_EEEEENS1_11alternativeINS1_5chlitIcEENS4_INS1_14epsilon_parserEPST_EEEEEENSW_ISR_S11_EENS1_6parserINS3_IS13_S14_EEEEED2Ev@Base 0.59
 _ZN5boost6spirit7classic7grammarIN11json_spirit12Json_grammerINS3_10Value_implINS3_13Config_vectorISsEEEEN9__gnu_cxx17__normal_iteratorIPKcSsEEEENS1_14parser_contextINS1_5nil_tEEEEC1Ev@Base 0.58
 _ZN5boost6spirit7classic7grammarIN11json_spirit12Json_grammerINS3_10Value_implINS3_13Config_vectorISsEEEEN9__gnu_cxx17__normal_iteratorIPKcSsEEEENS1_14parser_contextINS1_5nil_tEEEEC2Ev@Base 0.58
 _ZN5boost6spirit7classic7grammarIN11json_spirit12Json_grammerINS3_10Value_implINS3_13Config_vectorISsEEEEN9__gnu_cxx17__normal_iteratorIPKcSsEEEENS1_14parser_contextINS1_5nil_tEEEED1Ev@Base 0.47.2
 _ZN5boost6spirit7classic7grammarIN11json_spirit12Json_grammerINS3_10Value_implINS3_13Config_vectorISsEEEEN9__gnu_cxx17__normal_iteratorIPKcSsEEEENS1_14parser_contextINS1_5nil_tEEEED2Ev@Base 0.47.2
 _ZN5boost6spirit7classic7grammarIN11json_spirit12Json_grammerINS3_10Value_implINS3_13Config_vectorISsEEEENS1_10multi_passISt16istream_iteratorIccSt11char_traitsIcElENS1_19multi_pass_policies14input_iteratorENSE_11ref_countedENSE_12buf_id_checkENSE_9std_dequeEEEEENS1_14parser_contextINS1_5nil_tEEEEC1Ev@Base 0.58
 _ZN5boost6spirit7classic7grammarIN11json_spirit12Json_grammerINS3_10Value_implINS3_13Config_vectorISsEEEENS1_10multi_passISt16istream_iteratorIccSt11char_traitsIcElENS1_19multi_pass_policies14input_iteratorENSE_11ref_countedENSE_12buf_id_checkENSE_9std_dequeEEEEENS1_14parser_contextINS1_5nil_tEEEEC2Ev@Base 0.58
 _ZN5boost6spirit7classic7grammarIN11json_spirit12Json_grammerINS3_10Value_implINS3_13Config_vectorISsEEEENS1_10multi_passISt16istream_iteratorIccSt11char_traitsIcElENS1_19multi_pass_policies14input_iteratorENSE_11ref_countedENSE_12buf_id_checkENSE_9std_dequeEEEEENS1_14parser_contextINS1_5nil_tEEEED1Ev@Base 0.47.2
 _ZN5boost6spirit7classic7grammarIN11json_spirit12Json_grammerINS3_10Value_implINS3_13Config_vectorISsEEEENS1_10multi_passISt16istream_iteratorIccSt11char_traitsIcElENS1_19multi_pass_policies14input_iteratorENSE_11ref_countedENSE_12buf_id_checkENSE_9std_dequeEEEEENS1_14parser_contextINS1_5nil_tEEEED2Ev@Base 0.47.2
 _ZN5boost6spirit7classic7grammarIN11json_spirit12Json_grammerINS3_10Value_implINS3_13Config_vectorISsEEEENS1_17position_iteratorIN9__gnu_cxx17__normal_iteratorIPKcSsEENS1_18file_position_baseISsEENS1_5nil_tEEEEENS1_14parser_contextISH_EEEC1Ev@Base 0.58
 _ZN5boost6spirit7classic7grammarIN11json_spirit12Json_grammerINS3_10Value_implINS3_13Config_vectorISsEEEENS1_17position_iteratorIN9__gnu_cxx17__normal_iteratorIPKcSsEENS1_18file_position_baseISsEENS1_5nil_tEEEEENS1_14parser_contextISH_EEEC2Ev@Base 0.58
 _ZN5boost6spirit7classic7grammarIN11json_spirit12Json_grammerINS3_10Value_implINS3_13Config_vectorISsEEEENS1_17position_iteratorIN9__gnu_cxx17__normal_iteratorIPKcSsEENS1_18file_position_baseISsEENS1_5nil_tEEEEENS1_14parser_contextISH_EEED1Ev@Base 0.47.2
 _ZN5boost6spirit7classic7grammarIN11json_spirit12Json_grammerINS3_10Value_implINS3_13Config_vectorISsEEEENS1_17position_iteratorIN9__gnu_cxx17__normal_iteratorIPKcSsEENS1_18file_position_baseISsEENS1_5nil_tEEEEENS1_14parser_contextISH_EEED2Ev@Base 0.47.2
 _ZN5boost6spirit7classic7grammarIN11json_spirit12Json_grammerINS3_10Value_implINS3_13Config_vectorISsEEEENS1_17position_iteratorINS1_10multi_passISt16istream_iteratorIccSt11char_traitsIcElENS1_19multi_pass_policies14input_iteratorENSF_11ref_countedENSF_12buf_id_checkENSF_9std_dequeEEENS1_18file_position_baseISsEENS1_5nil_tEEEEENS1_14parser_contextISN_EEEC1Ev@Base 0.58
 _ZN5boost6spirit7classic7grammarIN11json_spirit12Json_grammerINS3_10Value_implINS3_13Config_vectorISsEEEENS1_17position_iteratorINS1_10multi_passISt16istream_iteratorIccSt11char_traitsIcElENS1_19multi_pass_policies14input_iteratorENSF_11ref_countedENSF_12buf_id_checkENSF_9std_dequeEEENS1_18file_position_baseISsEENS1_5nil_tEEEEENS1_14parser_contextISN_EEEC2Ev@Base 0.58
 _ZN5boost6spirit7classic7grammarIN11json_spirit12Json_grammerINS3_10Value_implINS3_13Config_vectorISsEEEENS1_17position_iteratorINS1_10multi_passISt16istream_iteratorIccSt11char_traitsIcElENS1_19multi_pass_policies14input_iteratorENSF_11ref_countedENSF_12buf_id_checkENSF_9std_dequeEEENS1_18file_position_baseISsEENS1_5nil_tEEEEENS1_14parser_contextISN_EEED1Ev@Base 0.47.2
 _ZN5boost6spirit7classic7grammarIN11json_spirit12Json_grammerINS3_10Value_implINS3_13Config_vectorISsEEEENS1_17position_iteratorINS1_10multi_passISt16istream_iteratorIccSt11char_traitsIcElENS1_19multi_pass_policies14input_iteratorENSF_11ref_countedENSF_12buf_id_checkENSF_9std_dequeEEENS1_18file_position_baseISsEENS1_5nil_tEEEEENS1_14parser_contextISN_EEED2Ev@Base 0.47.2
 _ZN5boost6spirit7classic7scannerINS1_10multi_passISt16istream_iteratorIccSt11char_traitsIcElENS1_19multi_pass_policies14input_iteratorENS8_11ref_countedENS8_12buf_id_checkENS8_9std_dequeEEENS1_16scanner_policiesINS1_24skipper_iteration_policyINS1_16iteration_policyEEENS1_12match_policyENS1_13action_policyEEEEC1ERSD_RKSD_RKSK_@Base 0.47.2
 _ZN5boost6spirit7classic7scannerINS1_10multi_passISt16istream_iteratorIccSt11char_traitsIcElENS1_19multi_pass_policies14input_iteratorENS8_11ref_countedENS8_12buf_id_checkENS8_9std_dequeEEENS1_16scanner_policiesINS1_24skipper_iteration_policyINS1_16iteration_policyEEENS1_12match_policyENS1_13action_policyEEEEC2ERSD_RKSD_RKSK_@Base 0.47.2
 _ZN5boost6spirit7classic7scannerINS1_17position_iteratorIN9__gnu_cxx17__normal_iteratorIPKcSsEENS1_18file_position_baseISsEENS1_5nil_tEEENS1_16scanner_policiesINS1_24skipper_iteration_policyINS1_16iteration_policyEEENS1_12match_policyENS1_13action_policyEEEED1Ev@Base 0.58
 _ZN5boost6spirit7classic7scannerINS1_17position_iteratorIN9__gnu_cxx17__normal_iteratorIPKcSsEENS1_18file_position_baseISsEENS1_5nil_tEEENS1_16scanner_policiesINS1_24skipper_iteration_policyINS1_16iteration_policyEEENS1_12match_policyENS1_13action_policyEEEED2Ev@Base 0.58
 _ZN5boost6spirit7classic7scannerINS1_17position_iteratorIN9__gnu_cxx17__normal_iteratorIPKcSsEENS1_18file_position_baseISsEENS1_5nil_tEEENS1_16scanner_policiesINS1_27no_skipper_iteration_policyINS1_24skipper_iteration_policyINS1_16iteration_policyEEEEENS1_12match_policyENS1_13action_policyEEEED1Ev@Base 0.58
 _ZN5boost6spirit7classic7scannerINS1_17position_iteratorIN9__gnu_cxx17__normal_iteratorIPKcSsEENS1_18file_position_baseISsEENS1_5nil_tEEENS1_16scanner_policiesINS1_27no_skipper_iteration_policyINS1_24skipper_iteration_policyINS1_16iteration_policyEEEEENS1_12match_policyENS1_13action_policyEEEED2Ev@Base 0.58
 _ZN5boost6spirit7classic7scannerINS1_17position_iteratorIN9__gnu_cxx17__normal_iteratorIPKcSsEENS1_18file_position_baseISsEENS1_5nil_tEEENS1_16scanner_policiesINS1_29inhibit_case_iteration_policyINS1_27no_skipper_iteration_policyINS1_24skipper_iteration_policyINS1_16iteration_policyEEEEEEENS1_12match_policyENS1_13action_policyEEEED1Ev@Base 0.47.2
 _ZN5boost6spirit7classic7scannerINS1_17position_iteratorIN9__gnu_cxx17__normal_iteratorIPKcSsEENS1_18file_position_baseISsEENS1_5nil_tEEENS1_16scanner_policiesINS1_29inhibit_case_iteration_policyINS1_27no_skipper_iteration_policyINS1_24skipper_iteration_policyINS1_16iteration_policyEEEEEEENS1_12match_policyENS1_13action_policyEEEED2Ev@Base 0.47.2
 _ZN5boost6spirit7classic7scannerINS1_17position_iteratorINS1_10multi_passISt16istream_iteratorIccSt11char_traitsIcElENS1_19multi_pass_policies14input_iteratorENS9_11ref_countedENS9_12buf_id_checkENS9_9std_dequeEEENS1_18file_position_baseISsEENS1_5nil_tEEENS1_16scanner_policiesINS1_24skipper_iteration_policyINS1_16iteration_policyEEENS1_12match_policyENS1_13action_policyEEEEC1ERSI_RKSI_RKSP_@Base 0.47.2
 _ZN5boost6spirit7classic7scannerINS1_17position_iteratorINS1_10multi_passISt16istream_iteratorIccSt11char_traitsIcElENS1_19multi_pass_policies14input_iteratorENS9_11ref_countedENS9_12buf_id_checkENS9_9std_dequeEEENS1_18file_position_baseISsEENS1_5nil_tEEENS1_16scanner_policiesINS1_24skipper_iteration_policyINS1_16iteration_policyEEENS1_12match_policyENS1_13action_policyEEEEC2ERSI_RKSI_RKSP_@Base 0.47.2
 _ZN5boost6spirit7classic7static_INS_19thread_specific_ptrINS_8weak_ptrINS1_4impl14grammar_helperINS1_7grammarIN11json_spirit12Json_grammerINS8_10Value_implINS8_13Config_vectorISsEEEEN9__gnu_cxx17__normal_iteratorIPKcSsEEEENS1_14parser_contextINS1_5nil_tEEEEESJ_NS1_7scannerISI_NS1_16scanner_policiesINS1_24skipper_iteration_policyINS1_16iteration_policyEEENS1_12match_policyENS1_13action_policyEEEEEEEEEEENS5_30get_definition_static_data_tagEE10destructorD1Ev@Base 0.58
 _ZN5boost6spirit7classic7static_INS_19thread_specific_ptrINS_8weak_ptrINS1_4impl14grammar_helperINS1_7grammarIN11json_spirit12Json_grammerINS8_10Value_implINS8_13Config_vectorISsEEEEN9__gnu_cxx17__normal_iteratorIPKcSsEEEENS1_14parser_contextINS1_5nil_tEEEEESJ_NS1_7scannerISI_NS1_16scanner_policiesINS1_24skipper_iteration_policyINS1_16iteration_policyEEENS1_12match_policyENS1_13action_policyEEEEEEEEEEENS5_30get_definition_static_data_tagEE10destructorD2Ev@Base 0.58
 _ZN5boost6spirit7classic7static_INS_19thread_specific_ptrINS_8weak_ptrINS1_4impl14grammar_helperINS1_7grammarIN11json_spirit12Json_grammerINS8_10Value_implINS8_13Config_vectorISsEEEEN9__gnu_cxx17__normal_iteratorIPKcSsEEEENS1_14parser_contextINS1_5nil_tEEEEESJ_NS1_7scannerISI_NS1_16scanner_policiesINS1_24skipper_iteration_policyINS1_16iteration_policyEEENS1_12match_policyENS1_13action_policyEEEEEEEEEEENS5_30get_definition_static_data_tagEE12constructed_E@Base 0.58
 _ZN5boost6spirit7classic7static_INS_19thread_specific_ptrINS_8weak_ptrINS1_4impl14grammar_helperINS1_7grammarIN11json_spirit12Json_grammerINS8_10Value_implINS8_13Config_vectorISsEEEEN9__gnu_cxx17__normal_iteratorIPKcSsEEEENS1_14parser_contextINS1_5nil_tEEEEESJ_NS1_7scannerISI_NS1_16scanner_policiesINS1_24skipper_iteration_policyINS1_16iteration_policyEEENS1_12match_policyENS1_13action_policyEEEEEEEEEEENS5_30get_definition_static_data_tagEE12default_ctor9constructEv@Base 0.58
 _ZN5boost6spirit7classic7static_INS_19thread_specific_ptrINS_8weak_ptrINS1_4impl14grammar_helperINS1_7grammarIN11json_spirit12Json_grammerINS8_10Value_implINS8_13Config_vectorISsEEEEN9__gnu_cxx17__normal_iteratorIPKcSsEEEENS1_14parser_contextINS1_5nil_tEEEEESJ_NS1_7scannerISI_NS1_16scanner_policiesINS1_24skipper_iteration_policyINS1_16iteration_policyEEENS1_12match_policyENS1_13action_policyEEEEEEEEEEENS5_30get_definition_static_data_tagEE5data_E@Base 0.58
 _ZN5boost6spirit7classic7static_INS_19thread_specific_ptrINS_8weak_ptrINS1_4impl14grammar_helperINS1_7grammarIN11json_spirit12Json_grammerINS8_10Value_implINS8_13Config_vectorISsEEEENS1_10multi_passISt16istream_iteratorIccSt11char_traitsIcElENS1_19multi_pass_policies14input_iteratorENSJ_11ref_countedENSJ_12buf_id_checkENSJ_9std_dequeEEEEENS1_14parser_contextINS1_5nil_tEEEEESP_NS1_7scannerISO_NS1_16scanner_policiesINS1_24skipper_iteration_policyINS1_16iteration_policyEEENS1_12match_policyENS1_13action_policyEEEEEEEEEEENS5_30get_definition_static_data_tagEE10destructorD1Ev@Base 0.58
 _ZN5boost6spirit7classic7static_INS_19thread_specific_ptrINS_8weak_ptrINS1_4impl14grammar_helperINS1_7grammarIN11json_spirit12Json_grammerINS8_10Value_implINS8_13Config_vectorISsEEEENS1_10multi_passISt16istream_iteratorIccSt11char_traitsIcElENS1_19multi_pass_policies14input_iteratorENSJ_11ref_countedENSJ_12buf_id_checkENSJ_9std_dequeEEEEENS1_14parser_contextINS1_5nil_tEEEEESP_NS1_7scannerISO_NS1_16scanner_policiesINS1_24skipper_iteration_policyINS1_16iteration_policyEEENS1_12match_policyENS1_13action_policyEEEEEEEEEEENS5_30get_definition_static_data_tagEE10destructorD2Ev@Base 0.58
 _ZN5boost6spirit7classic7static_INS_19thread_specific_ptrINS_8weak_ptrINS1_4impl14grammar_helperINS1_7grammarIN11json_spirit12Json_grammerINS8_10Value_implINS8_13Config_vectorISsEEEENS1_10multi_passISt16istream_iteratorIccSt11char_traitsIcElENS1_19multi_pass_policies14input_iteratorENSJ_11ref_countedENSJ_12buf_id_checkENSJ_9std_dequeEEEEENS1_14parser_contextINS1_5nil_tEEEEESP_NS1_7scannerISO_NS1_16scanner_policiesINS1_24skipper_iteration_policyINS1_16iteration_policyEEENS1_12match_policyENS1_13action_policyEEEEEEEEEEENS5_30get_definition_static_data_tagEE12constructed_E@Base 0.58
 _ZN5boost6spirit7classic7static_INS_19thread_specific_ptrINS_8weak_ptrINS1_4impl14grammar_helperINS1_7grammarIN11json_spirit12Json_grammerINS8_10Value_implINS8_13Config_vectorISsEEEENS1_10multi_passISt16istream_iteratorIccSt11char_traitsIcElENS1_19multi_pass_policies14input_iteratorENSJ_11ref_countedENSJ_12buf_id_checkENSJ_9std_dequeEEEEENS1_14parser_contextINS1_5nil_tEEEEESP_NS1_7scannerISO_NS1_16scanner_policiesINS1_24skipper_iteration_policyINS1_16iteration_policyEEENS1_12match_policyENS1_13action_policyEEEEEEEEEEENS5_30get_definition_static_data_tagEE12default_ctor9constructEv@Base 0.58
 _ZN5boost6spirit7classic7static_INS_19thread_specific_ptrINS_8weak_ptrINS1_4impl14grammar_helperINS1_7grammarIN11json_spirit12Json_grammerINS8_10Value_implINS8_13Config_vectorISsEEEENS1_10multi_passISt16istream_iteratorIccSt11char_traitsIcElENS1_19multi_pass_policies14input_iteratorENSJ_11ref_countedENSJ_12buf_id_checkENSJ_9std_dequeEEEEENS1_14parser_contextINS1_5nil_tEEEEESP_NS1_7scannerISO_NS1_16scanner_policiesINS1_24skipper_iteration_policyINS1_16iteration_policyEEENS1_12match_policyENS1_13action_policyEEEEEEEEEEENS5_30get_definition_static_data_tagEE5data_E@Base 0.58
 _ZN5boost6spirit7classic7static_INS_19thread_specific_ptrINS_8weak_ptrINS1_4impl14grammar_helperINS1_7grammarIN11json_spirit12Json_grammerINS8_10Value_implINS8_13Config_vectorISsEEEENS1_17position_iteratorIN9__gnu_cxx17__normal_iteratorIPKcSsEENS1_18file_position_baseISsEENS1_5nil_tEEEEENS1_14parser_contextISM_EEEESO_NS1_7scannerISN_NS1_16scanner_policiesINS1_24skipper_iteration_policyINS1_16iteration_policyEEENS1_12match_policyENS1_13action_policyEEEEEEEEEEENS5_30get_definition_static_data_tagEE10destructorD1Ev@Base 0.58
 _ZN5boost6spirit7classic7static_INS_19thread_specific_ptrINS_8weak_ptrINS1_4impl14grammar_helperINS1_7grammarIN11json_spirit12Json_grammerINS8_10Value_implINS8_13Config_vectorISsEEEENS1_17position_iteratorIN9__gnu_cxx17__normal_iteratorIPKcSsEENS1_18file_position_baseISsEENS1_5nil_tEEEEENS1_14parser_contextISM_EEEESO_NS1_7scannerISN_NS1_16scanner_policiesINS1_24skipper_iteration_policyINS1_16iteration_policyEEENS1_12match_policyENS1_13action_policyEEEEEEEEEEENS5_30get_definition_static_data_tagEE10destructorD2Ev@Base 0.58
 _ZN5boost6spirit7classic7static_INS_19thread_specific_ptrINS_8weak_ptrINS1_4impl14grammar_helperINS1_7grammarIN11json_spirit12Json_grammerINS8_10Value_implINS8_13Config_vectorISsEEEENS1_17position_iteratorIN9__gnu_cxx17__normal_iteratorIPKcSsEENS1_18file_position_baseISsEENS1_5nil_tEEEEENS1_14parser_contextISM_EEEESO_NS1_7scannerISN_NS1_16scanner_policiesINS1_24skipper_iteration_policyINS1_16iteration_policyEEENS1_12match_policyENS1_13action_policyEEEEEEEEEEENS5_30get_definition_static_data_tagEE12constructed_E@Base 0.58
 _ZN5boost6spirit7classic7static_INS_19thread_specific_ptrINS_8weak_ptrINS1_4impl14grammar_helperINS1_7grammarIN11json_spirit12Json_grammerINS8_10Value_implINS8_13Config_vectorISsEEEENS1_17position_iteratorIN9__gnu_cxx17__normal_iteratorIPKcSsEENS1_18file_position_baseISsEENS1_5nil_tEEEEENS1_14parser_contextISM_EEEESO_NS1_7scannerISN_NS1_16scanner_policiesINS1_24skipper_iteration_policyINS1_16iteration_policyEEENS1_12match_policyENS1_13action_policyEEEEEEEEEEENS5_30get_definition_static_data_tagEE12default_ctor9constructEv@Base 0.58
 _ZN5boost6spirit7classic7static_INS_19thread_specific_ptrINS_8weak_ptrINS1_4impl14grammar_helperINS1_7grammarIN11json_spirit12Json_grammerINS8_10Value_implINS8_13Config_vectorISsEEEENS1_17position_iteratorIN9__gnu_cxx17__normal_iteratorIPKcSsEENS1_18file_position_baseISsEENS1_5nil_tEEEEENS1_14parser_contextISM_EEEESO_NS1_7scannerISN_NS1_16scanner_policiesINS1_24skipper_iteration_policyINS1_16iteration_policyEEENS1_12match_policyENS1_13action_policyEEEEEEEEEEENS5_30get_definition_static_data_tagEE5data_E@Base 0.58
 _ZN5boost6spirit7classic7static_INS_19thread_specific_ptrINS_8weak_ptrINS1_4impl14grammar_helperINS1_7grammarIN11json_spirit12Json_grammerINS8_10Value_implINS8_13Config_vectorISsEEEENS1_17position_iteratorINS1_10multi_passISt16istream_iteratorIccSt11char_traitsIcElENS1_19multi_pass_policies14input_iteratorENSK_11ref_countedENSK_12buf_id_checkENSK_9std_dequeEEENS1_18file_position_baseISsEENS1_5nil_tEEEEENS1_14parser_contextISS_EEEESU_NS1_7scannerIST_NS1_16scanner_policiesINS1_24skipper_iteration_policyINS1_16iteration_policyEEENS1_12match_policyENS1_13action_policyEEEEEEEEEEENS5_30get_definition_static_data_tagEE10destructorD1Ev@Base 0.58
 _ZN5boost6spirit7classic7static_INS_19thread_specific_ptrINS_8weak_ptrINS1_4impl14grammar_helperINS1_7grammarIN11json_spirit12Json_grammerINS8_10Value_implINS8_13Config_vectorISsEEEENS1_17position_iteratorINS1_10multi_passISt16istream_iteratorIccSt11char_traitsIcElENS1_19multi_pass_policies14input_iteratorENSK_11ref_countedENSK_12buf_id_checkENSK_9std_dequeEEENS1_18file_position_baseISsEENS1_5nil_tEEEEENS1_14parser_contextISS_EEEESU_NS1_7scannerIST_NS1_16scanner_policiesINS1_24skipper_iteration_policyINS1_16iteration_policyEEENS1_12match_policyENS1_13action_policyEEEEEEEEEEENS5_30get_definition_static_data_tagEE10destructorD2Ev@Base 0.58
 _ZN5boost6spirit7classic7static_INS_19thread_specific_ptrINS_8weak_ptrINS1_4impl14grammar_helperINS1_7grammarIN11json_spirit12Json_grammerINS8_10Value_implINS8_13Config_vectorISsEEEENS1_17position_iteratorINS1_10multi_passISt16istream_iteratorIccSt11char_traitsIcElENS1_19multi_pass_policies14input_iteratorENSK_11ref_countedENSK_12buf_id_checkENSK_9std_dequeEEENS1_18file_position_baseISsEENS1_5nil_tEEEEENS1_14parser_contextISS_EEEESU_NS1_7scannerIST_NS1_16scanner_policiesINS1_24skipper_iteration_policyINS1_16iteration_policyEEENS1_12match_policyENS1_13action_policyEEEEEEEEEEENS5_30get_definition_static_data_tagEE12constructed_E@Base 0.58
 _ZN5boost6spirit7classic7static_INS_19thread_specific_ptrINS_8weak_ptrINS1_4impl14grammar_helperINS1_7grammarIN11json_spirit12Json_grammerINS8_10Value_implINS8_13Config_vectorISsEEEENS1_17position_iteratorINS1_10multi_passISt16istream_iteratorIccSt11char_traitsIcElENS1_19multi_pass_policies14input_iteratorENSK_11ref_countedENSK_12buf_id_checkENSK_9std_dequeEEENS1_18file_position_baseISsEENS1_5nil_tEEEEENS1_14parser_contextISS_EEEESU_NS1_7scannerIST_NS1_16scanner_policiesINS1_24skipper_iteration_policyINS1_16iteration_policyEEENS1_12match_policyENS1_13action_policyEEEEEEEEEEENS5_30get_definition_static_data_tagEE12default_ctor9constructEv@Base 0.58
 _ZN5boost6spirit7classic7static_INS_19thread_specific_ptrINS_8weak_ptrINS1_4impl14grammar_helperINS1_7grammarIN11json_spirit12Json_grammerINS8_10Value_implINS8_13Config_vectorISsEEEENS1_17position_iteratorINS1_10multi_passISt16istream_iteratorIccSt11char_traitsIcElENS1_19multi_pass_policies14input_iteratorENSK_11ref_countedENSK_12buf_id_checkENSK_9std_dequeEEENS1_18file_position_baseISsEENS1_5nil_tEEEEENS1_14parser_contextISS_EEEESU_NS1_7scannerIST_NS1_16scanner_policiesINS1_24skipper_iteration_policyINS1_16iteration_policyEEENS1_12match_policyENS1_13action_policyEEEEEEEEEEENS5_30get_definition_static_data_tagEE5data_E@Base 0.58
 _ZN5boost6spirit7classic8sequenceINS1_6actionINS1_4ruleINS1_7scannerIN9__gnu_cxx17__normal_iteratorIPKcSsEENS1_16scanner_policiesINS1_24skipper_iteration_policyINS1_16iteration_policyEEENS1_12match_policyENS1_13action_policyEEEEENS1_5nil_tESJ_EENS_8functionIFvSA_SA_EEEEENS1_11alternativeINS1_5chlitIcEENS3_INS1_14epsilon_parserEPSM_EEEEED1Ev@Base 0.47.2
 _ZN5boost6spirit7classic8sequenceINS1_6actionINS1_4ruleINS1_7scannerIN9__gnu_cxx17__normal_iteratorIPKcSsEENS1_16scanner_policiesINS1_24skipper_iteration_policyINS1_16iteration_policyEEENS1_12match_policyENS1_13action_policyEEEEENS1_5nil_tESJ_EENS_8functionIFvSA_SA_EEEEENS1_11alternativeINS1_5chlitIcEENS3_INS1_14epsilon_parserEPSM_EEEEED2Ev@Base 0.47.2
 _ZN5boost6spirit7classic8sequenceINS1_6actionINS1_4ruleINS1_7scannerINS1_10multi_passISt16istream_iteratorIccSt11char_traitsIcElENS1_19multi_pass_policies14input_iteratorENSB_11ref_countedENSB_12buf_id_checkENSB_9std_dequeEEENS1_16scanner_policiesINS1_24skipper_iteration_policyINS1_16iteration_policyEEENS1_12match_policyENS1_13action_policyEEEEENS1_5nil_tESP_EENS_8functionIFvSG_SG_EEEEENS1_11alternativeINS1_5chlitIcEENS3_INS1_14epsilon_parserEPSS_EEEEED1Ev@Base 0.47.2
 _ZN5boost6spirit7classic8sequenceINS1_6actionINS1_4ruleINS1_7scannerINS1_10multi_passISt16istream_iteratorIccSt11char_traitsIcElENS1_19multi_pass_policies14input_iteratorENSB_11ref_countedENSB_12buf_id_checkENSB_9std_dequeEEENS1_16scanner_policiesINS1_24skipper_iteration_policyINS1_16iteration_policyEEENS1_12match_policyENS1_13action_policyEEEEENS1_5nil_tESP_EENS_8functionIFvSG_SG_EEEEENS1_11alternativeINS1_5chlitIcEENS3_INS1_14epsilon_parserEPSS_EEEEED2Ev@Base 0.47.2
 _ZN5boost6spirit7classic8sequenceINS1_6actionINS1_4ruleINS1_7scannerINS1_17position_iteratorIN9__gnu_cxx17__normal_iteratorIPKcSsEENS1_18file_position_baseISsEENS1_5nil_tEEENS1_16scanner_policiesINS1_24skipper_iteration_policyINS1_16iteration_policyEEENS1_12match_policyENS1_13action_policyEEEEESE_SE_EENS_8functionIFvSF_SF_EEEEENS1_11alternativeINS1_5chlitIcEENS3_INS1_14epsilon_parserEPSQ_EEEEED1Ev@Base 0.47.2
 _ZN5boost6spirit7classic8sequenceINS1_6actionINS1_4ruleINS1_7scannerINS1_17position_iteratorIN9__gnu_cxx17__normal_iteratorIPKcSsEENS1_18file_position_baseISsEENS1_5nil_tEEENS1_16scanner_policiesINS1_24skipper_iteration_policyINS1_16iteration_policyEEENS1_12match_policyENS1_13action_policyEEEEESE_SE_EENS_8functionIFvSF_SF_EEEEENS1_11alternativeINS1_5chlitIcEENS3_INS1_14epsilon_parserEPSQ_EEEEED2Ev@Base 0.47.2
 _ZN5boost6spirit7classic8sequenceINS1_6actionINS1_4ruleINS1_7scannerINS1_17position_iteratorINS1_10multi_passISt16istream_iteratorIccSt11char_traitsIcElENS1_19multi_pass_policies14input_iteratorENSC_11ref_countedENSC_12buf_id_checkENSC_9std_dequeEEENS1_18file_position_baseISsEENS1_5nil_tEEENS1_16scanner_policiesINS1_24skipper_iteration_policyINS1_16iteration_policyEEENS1_12match_policyENS1_13action_policyEEEEESK_SK_EENS_8functionIFvSL_SL_EEEEENS1_11alternativeINS1_5chlitIcEENS3_INS1_14epsilon_parserEPSW_EEEEED1Ev@Base 0.47.2
 _ZN5boost6spirit7classic8sequenceINS1_6actionINS1_4ruleINS1_7scannerINS1_17position_iteratorINS1_10multi_passISt16istream_iteratorIccSt11char_traitsIcElENS1_19multi_pass_policies14input_iteratorENSC_11ref_countedENSC_12buf_id_checkENSC_9std_dequeEEENS1_18file_position_baseISsEENS1_5nil_tEEENS1_16scanner_policiesINS1_24skipper_iteration_policyINS1_16iteration_policyEEENS1_12match_policyENS1_13action_policyEEEEESK_SK_EENS_8functionIFvSL_SL_EEEEENS1_11alternativeINS1_5chlitIcEENS3_INS1_14epsilon_parserEPSW_EEEEED2Ev@Base 0.47.2
 _ZN5boost6spirit7classic8sequenceINS1_6actionINS1_5chlitIcEENS_8functionIFvcEEEEENS1_8optionalINS1_4ruleINS1_7scannerIN9__gnu_cxx17__normal_iteratorIPKcSsEENS1_16scanner_policiesINS1_24skipper_iteration_policyINS1_16iteration_policyEEENS1_12match_policyENS1_13action_policyEEEEENS1_5nil_tESQ_EEEEED1Ev@Base 0.47.2
 _ZN5boost6spirit7classic8sequenceINS1_6actionINS1_5chlitIcEENS_8functionIFvcEEEEENS1_8optionalINS1_4ruleINS1_7scannerIN9__gnu_cxx17__normal_iteratorIPKcSsEENS1_16scanner_policiesINS1_24skipper_iteration_policyINS1_16iteration_policyEEENS1_12match_policyENS1_13action_policyEEEEENS1_5nil_tESQ_EEEEED2Ev@Base 0.47.2
 _ZN5boost6spirit7classic8sequenceINS1_6actionINS1_5chlitIcEENS_8functionIFvcEEEEENS1_8optionalINS1_4ruleINS1_7scannerINS1_10multi_passISt16istream_iteratorIccSt11char_traitsIcElENS1_19multi_pass_policies14input_iteratorENSI_11ref_countedENSI_12buf_id_checkENSI_9std_dequeEEENS1_16scanner_policiesINS1_24skipper_iteration_policyINS1_16iteration_policyEEENS1_12match_policyENS1_13action_policyEEEEENS1_5nil_tESW_EEEEED1Ev@Base 0.47.2
 _ZN5boost6spirit7classic8sequenceINS1_6actionINS1_5chlitIcEENS_8functionIFvcEEEEENS1_8optionalINS1_4ruleINS1_7scannerINS1_10multi_passISt16istream_iteratorIccSt11char_traitsIcElENS1_19multi_pass_policies14input_iteratorENSI_11ref_countedENSI_12buf_id_checkENSI_9std_dequeEEENS1_16scanner_policiesINS1_24skipper_iteration_policyINS1_16iteration_policyEEENS1_12match_policyENS1_13action_policyEEEEENS1_5nil_tESW_EEEEED2Ev@Base 0.47.2
 _ZN5boost6spirit7classic8sequenceINS1_6actionINS1_5chlitIcEENS_8functionIFvcEEEEENS1_8optionalINS1_4ruleINS1_7scannerINS1_17position_iteratorIN9__gnu_cxx17__normal_iteratorIPKcSsEENS1_18file_position_baseISsEENS1_5nil_tEEENS1_16scanner_policiesINS1_24skipper_iteration_policyINS1_16iteration_policyEEENS1_12match_policyENS1_13action_policyEEEEESL_SL_EEEEED1Ev@Base 0.47.2
