librbd.so.1 librbd1 #MINVER#
 _Z15finish_contextsP11CephContextRSt4listIP7ContextSaIS3_EEi@Base 0.47.2
 _Z6decodeISsN4ceph6buffer4listEEvRSt3mapIT_T0_St4lessIS4_ESaISt4pairIKS4_S5_EEERNS2_8iteratorE@Base 0.47.2
 _Z8rjhash64m@Base 0.47.2
 _ZN10C_SafeCond6finishEi@Base 0.47.2
 _ZN10C_SafeCondD0Ev@Base 0.47.2
 _ZN10C_SafeCondD1Ev@Base 0.47.2
 _ZN10C_SafeCondD2Ev@Base 0.47.2
 _ZN11SnapContextD1Ev@Base 0.47.2
 _ZN11SnapContextD2Ev@Base 0.47.2
 _ZN12ObjectCacher10BufferHead3getEv@Base 0.47.2
 _ZN12ObjectCacher10BufferHead3putEv@Base 0.47.2
 _ZN12ObjectCacher10BufferHeadC1EPNS_6ObjectE@Base 0.47.2
 _ZN12ObjectCacher10BufferHeadC2EPNS_6ObjectE@Base 0.47.2
 _ZN12ObjectCacher10BufferHeadD1Ev@Base 0.47.2
 _ZN12ObjectCacher10BufferHeadD2Ev@Base 0.47.2
 _ZN12ObjectCacher10commit_setEPNS_9ObjectSetEP7Context@Base 0.47.2
 _ZN12ObjectCacher10get_objectE9sobject_tPNS_9ObjectSetER16object_locator_t@Base 0.47.2
 _ZN12ObjectCacher10mark_dirtyEPNS_10BufferHeadE@Base 0.47.2
 _ZN12ObjectCacher10perf_startEv@Base 0.47.2
 _ZN12ObjectCacher11C_RetryRead6finishEi@Base 0.47.2
 _ZN12ObjectCacher11C_RetryReadD0Ev@Base 0.47.2
 _ZN12ObjectCacher11C_RetryReadD1Ev@Base 0.47.2
 _ZN12ObjectCacher11C_RetryReadD2Ev@Base 0.47.2
 _ZN12ObjectCacher11bh_stat_addEPNS_10BufferHeadE@Base 0.47.2
 _ZN12ObjectCacher11bh_stat_subEPNS_10BufferHeadE@Base 0.47.2
 _ZN12ObjectCacher11discard_setEPNS_9ObjectSetERSt6vectorI12ObjectExtentSaIS3_EE@Base 0.47.2
 _ZN12ObjectCacher11release_allEv@Base 0.47.2
 _ZN12ObjectCacher11release_setEPNS_9ObjectSetE@Base 0.47.2
 _ZN12ObjectCacher12C_ReadFinish6finishEi@Base 0.47.2
 _ZN12ObjectCacher12C_ReadFinishC1EPS_i9sobject_tlm@Base 0.47.2
 _ZN12ObjectCacher12C_ReadFinishC2EPS_i9sobject_tlm@Base 0.47.2
 _ZN12ObjectCacher12C_ReadFinishD0Ev@Base 0.47.2
 _ZN12ObjectCacher12C_ReadFinishD1Ev@Base 0.47.2
 _ZN12ObjectCacher12C_ReadFinishD2Ev@Base 0.47.2
 _ZN12ObjectCacher12bh_set_stateEPNS_10BufferHeadEi@Base 0.47.2
 _ZN12ObjectCacher12close_objectEPNS_6ObjectE@Base 0.47.2
 _ZN12ObjectCacher13C_WriteCommit6finishEi@Base 0.47.2
 _ZN12ObjectCacher13C_WriteCommitC1EPS_l9sobject_tlm@Base 0.47.2
 _ZN12ObjectCacher13C_WriteCommitC2EPS_l9sobject_tlm@Base 0.47.2
 _ZN12ObjectCacher13C_WriteCommitD0Ev@Base 0.47.2
 _ZN12ObjectCacher13C_WriteCommitD1Ev@Base 0.47.2
 _ZN12ObjectCacher13C_WriteCommitD2Ev@Base 0.47.2
 _ZN12ObjectCacher13FlusherThread5entryEv@Base 0.47.2
 _ZN12ObjectCacher13FlusherThreadD0Ev@Base 0.47.2
 _ZN12ObjectCacher13FlusherThreadD1Ev@Base 0.47.2
 _ZN12ObjectCacher13FlusherThreadD2Ev@Base 0.47.2
 _ZN12ObjectCacher13flusher_entryEv@Base 0.47.2
 _ZN12ObjectCacher13set_is_cachedEPNS_9ObjectSetE@Base 0.47.2
 _ZN12ObjectCacher14bh_read_finishEl9sobject_tlmRN4ceph6buffer4listEi@Base 0.47.2
 _ZN12ObjectCacher15_wait_for_writeEPNS_8OSDWriteEmPNS_9ObjectSetER5Mutex@Base 0.47.2
 _ZN12ObjectCacher15bh_write_commitEl9sobject_tlmmi@Base 0.47.2
 _ZN12ObjectCacher26set_is_dirty_or_committingEPNS_9ObjectSetE@Base 0.47.2
 _ZN12ObjectCacher4stopEv@Base 0.47.2
 _ZN12ObjectCacher4trimEl@Base 0.47.2
 _ZN12ObjectCacher5flushEPNS_6ObjectEll@Base 0.47.2
 _ZN12ObjectCacher5flushEl@Base 0.47.2
 _ZN12ObjectCacher5purgeEPNS_6ObjectE@Base 0.47.2
 _ZN12ObjectCacher5readxEPNS_7OSDReadEPNS_9ObjectSetEP7Context@Base 0.47.2
 _ZN12ObjectCacher6Object10merge_leftEPNS_10BufferHeadES2_@Base 0.47.2
 _ZN12ObjectCacher6Object12try_merge_bhEPNS_10BufferHeadE@Base 0.47.2
 _ZN12ObjectCacher6Object16data_lower_boundEl@Base 0.47.2
 _ZN12ObjectCacher6Object5splitEPNS_10BufferHeadEl@Base 0.47.2
 _ZN12ObjectCacher6Object6add_bhEPNS_10BufferHeadE@Base 0.47.2
 _ZN12ObjectCacher6Object7discardEll@Base 0.47.2
 _ZN12ObjectCacher6Object7get_oidEv@Base 0.47.2
 _ZN12ObjectCacher6Object8map_readEPNS_7OSDReadERSt3mapIlPNS_10BufferHeadESt4lessIlESaISt4pairIKlS5_EEESD_SD_SD_@Base 0.47.2
 _ZN12ObjectCacher6Object8truncateEl@Base 0.47.2
 _ZN12ObjectCacher6Object9can_closeEv@Base 0.47.2
 _ZN12ObjectCacher6Object9is_cachedEll@Base 0.47.2
 _ZN12ObjectCacher6Object9map_writeEPNS_8OSDWriteE@Base 0.47.2
 _ZN12ObjectCacher6Object9remove_bhEPNS_10BufferHeadE@Base 0.47.2
 _ZN12ObjectCacher6ObjectC1EPS_9sobject_tPNS_9ObjectSetER16object_locator_t@Base 0.47.2
 _ZN12ObjectCacher6ObjectC2EPS_9sobject_tPNS_9ObjectSetER16object_locator_t@Base 0.47.2
 _ZN12ObjectCacher6ObjectD1Ev@Base 0.47.2
 _ZN12ObjectCacher6ObjectD2Ev@Base 0.47.2
 _ZN12ObjectCacher6_readxEPNS_7OSDReadEPNS_9ObjectSetEP7Contextb@Base 0.47.2
 _ZN12ObjectCacher6bh_addEPNS_6ObjectEPNS_10BufferHeadE@Base 0.47.2
 _ZN12ObjectCacher6rdlockEPNS_6ObjectE@Base 0.47.2
 _ZN12ObjectCacher6writexEPNS_8OSDWriteEPNS_9ObjectSetER5Mutex@Base 0.47.2
 _ZN12ObjectCacher6wrlockEPNS_6ObjectE@Base 0.47.2
 _ZN12ObjectCacher7OSDReadD1Ev@Base 0.47.2
 _ZN12ObjectCacher7OSDReadD2Ev@Base 0.47.2
 _ZN12ObjectCacher7bh_readEPNS_10BufferHeadE@Base 0.47.2
 _ZN12ObjectCacher7releaseEPNS_6ObjectE@Base 0.47.2
 _ZN12ObjectCacher8OSDWriteD1Ev@Base 0.47.2
 _ZN12ObjectCacher8OSDWriteD2Ev@Base 0.47.2
 _ZN12ObjectCacher8bh_writeEPNS_10BufferHeadE@Base 0.47.2
 _ZN12ObjectCacher8lock_ackElRSt4listI9sobject_tSaIS1_EEm@Base 0.47.2
 _ZN12ObjectCacher8rdunlockEPNS_6ObjectE@Base 0.47.2
 _ZN12ObjectCacher8wrunlockEPNS_6ObjectE@Base 0.47.2
 _ZN12ObjectCacher9C_LockAck6finishEi@Base 0.47.2
 _ZN12ObjectCacher9C_LockAckC1EPS_l9sobject_t@Base 0.47.2
 _ZN12ObjectCacher9C_LockAckC2EPS_l9sobject_t@Base 0.47.2
 _ZN12ObjectCacher9C_LockAckD0Ev@Base 0.47.2
 _ZN12ObjectCacher9C_LockAckD1Ev@Base 0.47.2
 _ZN12ObjectCacher9C_LockAckD2Ev@Base 0.47.2
 _ZN12ObjectCacher9bh_removeEPNS_6ObjectEPNS_10BufferHeadE@Base 0.47.2
 _ZN12ObjectCacher9flush_setEPNS_9ObjectSetEP7Context@Base 0.47.2
 _ZN12ObjectCacher9flush_setEPNS_9ObjectSetERSt6vectorI12ObjectExtentSaIS3_EEP7Context@Base 0.47.2
 _ZN12ObjectCacher9is_cachedEPNS_9ObjectSetERSt6vectorI12ObjectExtentSaIS3_EE8snapid_t@Base 0.47.2
 _ZN12ObjectCacher9perf_stopEv@Base 0.47.2
 _ZN12ObjectCacher9purge_setEPNS_9ObjectSetE@Base 0.47.2
 _ZN12ObjectCacherC1EP11CephContextSsR16WritebackHandlerR5MutexPFvPvPNS_9ObjectSetEES6_mmmd@Base 0.47.2
 _ZN12ObjectCacherC2EP11CephContextSsR16WritebackHandlerR5MutexPFvPvPNS_9ObjectSetEES6_mmmd@Base 0.47.2
 _ZN12ObjectCacherD1Ev@Base 0.47.2
 _ZN12ObjectCacherD2Ev@Base 0.47.2
 _ZN12ObjectExtentC1ERKS_@Base 0.47.2
 _ZN12ObjectExtentC2ERKS_@Base 0.47.2
 _ZN12ObjectExtentD1Ev@Base 0.47.2
 _ZN12ObjectExtentD2Ev@Base 0.47.2
 _ZN12ObjectExtentaSERKS_@Base 0.47.2
 _ZN15C_GatherBuilder8activateEv@Base 0.47.2
 _ZN15C_GatherBuilderD1Ev@Base 0.47.2
 _ZN15C_GatherBuilderD2Ev@Base 0.47.2
 _ZN15LibrbdWriteback4readERK8object_tRK16object_locator_tmm8snapid_tPN4ceph6buffer4listEmjP7Context@Base 0.47.2
 _ZN15LibrbdWriteback5writeERK8object_tRK16object_locator_tmmRK11SnapContextRKN4ceph6buffer4listE7utime_tmjP7Context@Base 0.47.2
 _ZN15LibrbdWritebackC1ERKN8librados5IoCtxER5Mutex@Base 0.47.2
 _ZN15LibrbdWritebackC2ERKN8librados5IoCtxER5Mutex@Base 0.47.2
 _ZN15LibrbdWritebackD0Ev@Base 0.47.2
 _ZN15LibrbdWritebackD1Ev@Base 0.47.2
 _ZN15LibrbdWritebackD2Ev@Base 0.47.2
 _ZN16WritebackHandler4lockERK8object_tRK16object_locator_tiiP7ContextS7_@Base 0.47.2
 _ZN16WritebackHandlerD0Ev@Base 0.47.2
 _ZN16WritebackHandlerD1Ev@Base 0.47.2
 _ZN16WritebackHandlerD2Ev@Base 0.47.2
 _ZN16object_locator_tD1Ev@Base 0.47.2
 _ZN16object_locator_tD2Ev@Base 0.47.2
 _ZN3LRU10lru_adjustEv@Base 0.47.2
 _ZN3LRU10lru_removeEP9LRUObject@Base 0.47.2
 _ZN3LRU14lru_insert_topEP9LRUObject@Base 0.47.2
 _ZN4CondC1Ev@Base 0.47.2
 _ZN4CondC2Ev@Base 0.47.2
 _ZN4CondD0Ev@Base 0.47.2
 _ZN4CondD1Ev@Base 0.47.2
 _ZN4CondD2Ev@Base 0.47.2
 _ZN4ceph3log12SubsystemMap13should_gatherEji@Base 0.47.2
 _ZN4ceph6buffer4list5clearEv@Base 0.47.2
 _ZN4ceph6buffer4listC1ERKS1_@Base 0.47.2
 _ZN4ceph6buffer4listC1Ev@Base 0.47.2
 _ZN4ceph6buffer4listC2ERKS1_@Base 0.47.2
 _ZN4ceph6buffer4listC2Ev@Base 0.47.2
 _ZN4ceph6buffer4listD1Ev@Base 0.47.2
 _ZN4ceph6buffer4listD2Ev@Base 0.47.2
 _ZN5Mutex4LockEb@Base 0.47.2
 _ZN5Mutex6LockerD1Ev@Base 0.47.2
 _ZN5Mutex6LockerD2Ev@Base 0.47.2
 _ZN5Mutex6UnlockEv@Base 0.47.2
 _ZN5Mutex7_lockedEv@Base 0.47.2
 _ZN5MutexC1EPKcbbb@Base 0.47.2
 _ZN5MutexC2EPKcbbb@Base 0.47.2
 _ZN5MutexD1Ev@Base 0.47.2
 _ZN5MutexD2Ev@Base 0.47.2
 _ZN5xlistIPN12ObjectCacher6ObjectEE4itemD1Ev@Base 0.47.2
 _ZN5xlistIPN12ObjectCacher6ObjectEE4itemD2Ev@Base 0.47.2
 _ZN5xlistIPN12ObjectCacher6ObjectEE6removeEPNS3_4itemE@Base 0.47.2
 _ZN5xlistIPN12ObjectCacher6ObjectEE8iteratorppEv@Base 0.47.2
 _ZN5xlistIPN12ObjectCacher6ObjectEE9push_backEPNS3_4itemE@Base 0.47.2
 _ZN6C_Cond6finishEi@Base 0.47.2
 _ZN6C_CondD0Ev@Base 0.47.2
 _ZN6C_CondD1Ev@Base 0.47.2
 _ZN6C_CondD2Ev@Base 0.47.2
 _ZN6librbd10cls_client10assign_bidEPN8librados5IoCtxERKSsPm@Base 0.48
 _ZN6librbd10cls_client12create_imageEPN8librados5IoCtxERKSsmhmS5_@Base 0.48
 _ZN6librbd10cls_client12get_featuresEPN8librados5IoCtxERKSsmPm@Base 0.48
 _ZN6librbd10cls_client12snapshot_addEPN8librados5IoCtxERKSsmS5_@Base 0.48
 _ZN6librbd10cls_client13snapshot_listEPN8librados5IoCtxERKSsRKSt6vectorI8snapid_tSaIS7_EEPS6_ISsSaISsEEPS6_ImSaImEESH_@Base 0.48
 _ZN6librbd10cls_client15get_snapcontextEPN8librados5IoCtxERKSsP11SnapContext@Base 0.48
 _ZN6librbd10cls_client15snapshot_removeEPN8librados5IoCtxERKSsm@Base 0.48
 _ZN6librbd10cls_client16old_snapshot_addEPN8librados5IoCtxERKSsmS5_@Base 0.48
 _ZN6librbd10cls_client17get_object_prefixEPN8librados5IoCtxERKSsPSs@Base 0.48
 _ZN6librbd10cls_client17old_snapshot_listEPN8librados5IoCtxERKSsPSt6vectorISsSaISsEEPS6_ImSaImEEP11SnapContext@Base 0.48
 _ZN6librbd10cls_client19old_snapshot_removeEPN8librados5IoCtxERKSsS5_@Base 0.48
 _ZN6librbd10cls_client20get_mutable_metadataEPN8librados5IoCtxERKSsPmS6_S6_P11SnapContext@Base 0.48
 _ZN6librbd10cls_client22get_immutable_metadataEPN8librados5IoCtxERKSsPSsPh@Base 0.48
 _ZN6librbd10cls_client8get_sizeEPN8librados5IoCtxERKSsmPmPh@Base 0.48
 _ZN6librbd10cls_client8set_sizeEPN8librados5IoCtxERKSsm@Base 0.48
 _ZN6librbd10ictx_checkEPNS_8ImageCtxE@Base 0.47.2
 _ZN6librbd10image_infoERKNS_8ImageCtxER16rbd_image_info_tm@Base 0.47.2
 _ZN6librbd10open_imageEPNS_8ImageCtxE@Base 0.47.2
 _ZN6librbd10trim_imageEPNS_8ImageCtxEmRNS_15ProgressContextE@Base 0.48
 _ZN6librbd11aio_discardEPNS_8ImageCtxEmmPNS_13AioCompletionE@Base 0.47.2
 _ZN6librbd11close_imageEPNS_8ImageCtxE@Base 0.47.2
 _ZN6librbd11read_headerERN8librados5IoCtxERKSsP21rbd_obj_header_ondiskPm@Base 0.47.2
 _ZN6librbd11snap_createEPNS_8ImageCtxEPKc@Base 0.47.2
 _ZN6librbd11snap_removeEPNS_8ImageCtxEPKc@Base 0.47.2
 _ZN6librbd12ictx_refreshEPNS_8ImageCtxE@Base 0.47.2
 _ZN6librbd12read_iterateEPNS_8ImageCtxEmmPFimmPKcPvES4_@Base 0.47.2
 _ZN6librbd12write_headerERN8librados5IoCtxERKSsRN4ceph6buffer4listE@Base 0.47.2
 _ZN6librbd13AioCompletion10put_unlockEv@Base 0.47.2
 _ZN6librbd13AioCompletion14complete_blockEPNS_18AioBlockCompletionEl@Base 0.47.2
 _ZN6librbd13AioCompletion17wait_for_completeEv@Base 0.47.2
 _ZN6librbd13AioCompletion25finish_adding_completionsEv@Base 0.47.2
 _ZN6librbd13AioCompletion3getEv@Base 0.47.2
 _ZN6librbd13AioCompletion3putEv@Base 0.47.2
 _ZN6librbd13AioCompletion8completeEv@Base 0.47.2
 _ZN6librbd13AioCompletionC1Ev@Base 0.47.2
 _ZN6librbd13AioCompletionC2Ev@Base 0.47.2
 _ZN6librbd13AioCompletionD1Ev@Base 0.47.2
 _ZN6librbd13AioCompletionD2Ev@Base 0.47.2
 _ZN6librbd13detect_formatERN8librados5IoCtxERKSsPbPm@Base 0.48
 _ZN6librbd13get_block_numEhm@Base 0.48
 _ZN6librbd13get_block_ofsEhm@Base 0.48
 _ZN6librbd13get_block_oidERKSsmb@Base 0.48
 _ZN6librbd13get_max_blockEmh@Base 0.48
 _ZN6librbd13init_rbd_infoEP8rbd_info@Base 0.47.2
 _ZN6librbd13notify_changeERN8librados5IoCtxERKSsPmPNS_8ImageCtxE@Base 0.47.2
 _ZN6librbd13read_rbd_infoERN8librados5IoCtxERKSsP8rbd_info@Base 0.47.2
 _ZN6librbd13resize_helperEPNS_8ImageCtxEmRNS_15ProgressContextE@Base 0.47.2
 _ZN6librbd13snap_rollbackEPNS_8ImageCtxEPKcRNS_15ProgressContextE@Base 0.47.2
 _ZN6librbd14do_copy_extentEmmPKcPv@Base 0.47.2
 _ZN6librbd14get_block_sizeEh@Base 0.48
 _ZN6librbd14rbd_assign_bidERN8librados5IoCtxERKSsPm@Base 0.47.2
 _ZN6librbd14read_header_blERN8librados5IoCtxERKSsRN4ceph6buffer4listEPm@Base 0.47.2
 _ZN6librbd14rollback_imageEPNS_8ImageCtxEmRNS_15ProgressContextE@Base 0.47.2
 _ZN6librbd14touch_rbd_infoERN8librados5IoCtxERKSs@Base 0.47.2
 _ZN6librbd15ProgressContextD0Ev@Base 0.47.2
 _ZN6librbd15ProgressContextD1Ev@Base 0.47.2
 _ZN6librbd15ProgressContextD2Ev@Base 0.47.2
 _ZN6librbd15init_rbd_headerER21rbd_obj_header_ondiskmPim@Base 0.47.2
 _ZN6librbd16CProgressContext15update_progressEmm@Base 0.47.2
 _ZN6librbd16CProgressContextD0Ev@Base 0.47.2
 _ZN6librbd16CProgressContextD1Ev@Base 0.47.2
 _ZN6librbd16CProgressContextD2Ev@Base 0.47.2
 _ZN6librbd18AioBlockCompletion6finishEi@Base 0.47.2
 _ZN6librbd18AioBlockCompletionC1EP11CephContextPNS_13AioCompletionEmmPc@Base 0.47.2
 _ZN6librbd18AioBlockCompletionC2EP11CephContextPNS_13AioCompletionEmmPc@Base 0.47.2
 _ZN6librbd18AioBlockCompletionD0Ev@Base 0.47.2
 _ZN6librbd18AioBlockCompletionD1Ev@Base 0.47.2
 _ZN6librbd18AioBlockCompletionD2Ev@Base 0.47.2
 _ZN6librbd18handle_sparse_readEP11CephContextN4ceph6buffer4listEmRKSt3mapImmSt4lessImESaISt4pairIKmmEEEmmPFimmPKcPvESH_@Base 0.47.2
 _ZN6librbd19NoOpProgressContext15update_progressEmm@Base 0.47.2
 _ZN6librbd19NoOpProgressContextD0Ev@Base 0.47.2
 _ZN6librbd19NoOpProgressContextD1Ev@Base 0.47.2
 _ZN6librbd19NoOpProgressContextD2Ev@Base 0.47.2
 _ZN6librbd21aio_create_completionEPvPFvS0_S0_E@Base 0.47.2
 _ZN6librbd21aio_create_completionEv@Base 0.47.2
 _ZN6librbd24rados_aio_sparse_read_cbEPvS0_@Base 0.47.2
 _ZN6librbd3RBD13AioCompletion16get_return_valueEv@Base 0.47.2
 _ZN6librbd3RBD13AioCompletion17wait_for_completeEv@Base 0.47.2
 _ZN6librbd3RBD13AioCompletion7releaseEv@Base 0.47.2
 _ZN6librbd3RBD13AioCompletionC1EPvPFvS2_S2_E@Base 0.47.2
 _ZN6librbd3RBD13AioCompletionC2EPvPFvS2_S2_E@Base 0.47.2
 _ZN6librbd3RBD20remove_with_progressERN8librados5IoCtxEPKcRNS_15ProgressContextE@Base 0.47.2
 _ZN6librbd3RBD4listERN8librados5IoCtxERSt6vectorISsSaISsEE@Base 0.47.2
 _ZN6librbd3RBD4openERN8librados5IoCtxERNS_5ImageEPKc@Base 0.47.2
 _ZN6librbd3RBD4openERN8librados5IoCtxERNS_5ImageEPKcS7_@Base 0.47.2
 _ZN6librbd3RBD6createERN8librados5IoCtxEPKcmPi@Base 0.47.2
 _ZN6librbd3RBD6removeERN8librados5IoCtxEPKc@Base 0.47.2
 _ZN6librbd3RBD6renameERN8librados5IoCtxEPKcS5_@Base 0.47.2
 _ZN6librbd3RBD7create2ERN8librados5IoCtxEPKcmmPi@Base 0.48
 _ZN6librbd3RBD7versionEPiS1_S1_@Base 0.47.2
 _ZN6librbd3RBDC1Ev@Base 0.47.2
 _ZN6librbd3RBDC2Ev@Base 0.47.2
 _ZN6librbd3RBDD1Ev@Base 0.47.2
 _ZN6librbd3RBDD2Ev@Base 0.47.2
 _ZN6librbd4copyERNS_8ImageCtxERN8librados5IoCtxEPKcRNS_15ProgressContextE@Base 0.47.2
 _ZN6librbd4infoEPNS_8ImageCtxER16rbd_image_info_tm@Base 0.47.2
 _ZN6librbd4listERN8librados5IoCtxERSt6vectorISsSaISsEE@Base 0.47.2
 _ZN6librbd4readEPNS_8ImageCtxEmmPc@Base 0.47.2
 _ZN6librbd5Image11aio_discardEmmPNS_3RBD13AioCompletionE@Base 0.47.2
 _ZN6librbd5Image11snap_createEPKc@Base 0.47.2
 _ZN6librbd5Image11snap_removeEPKc@Base 0.47.2
 _ZN6librbd5Image12read_iterateEmmPFimmPKcPvES3_@Base 0.47.2
 _ZN6librbd5Image13snap_rollbackEPKc@Base 0.47.2
 _ZN6librbd5Image18copy_with_progressERN8librados5IoCtxEPKcRNS_15ProgressContextE@Base 0.47.2
 _ZN6librbd5Image20resize_with_progressEmRNS_15ProgressContextE@Base 0.47.2
 _ZN6librbd5Image27snap_rollback_with_progressEPKcRNS_15ProgressContextE@Base 0.47.2
 _ZN6librbd5Image4copyERN8librados5IoCtxEPKc@Base 0.47.2
 _ZN6librbd5Image4readEmmRN4ceph6buffer4listE@Base 0.47.2
 _ZN6librbd5Image4statER16rbd_image_info_tm@Base 0.47.2
 _ZN6librbd5Image5flushEv@Base 0.47.2
 _ZN6librbd5Image5writeEmmRN4ceph6buffer4listE@Base 0.47.2
 _ZN6librbd5Image6resizeEm@Base 0.47.2
 _ZN6librbd5Image7discardEmm@Base 0.47.2
 _ZN6librbd5Image8aio_readEmmRN4ceph6buffer4listEPNS_3RBD13AioCompletionE@Base 0.47.2
 _ZN6librbd5Image8snap_setEPKc@Base 0.47.2
 _ZN6librbd5Image9aio_writeEmmRN4ceph6buffer4listEPNS_3RBD13AioCompletionE@Base 0.47.2
 _ZN6librbd5Image9snap_listERSt6vectorINS_11snap_info_tESaIS2_EE@Base 0.47.2
 _ZN6librbd5ImageC1Ev@Base 0.47.2
 _ZN6librbd5ImageC2Ev@Base 0.47.2
 _ZN6librbd5ImageD1Ev@Base 0.47.2
 _ZN6librbd5ImageD2Ev@Base 0.47.2
 _ZN6librbd5flushEPNS_8ImageCtxE@Base 0.47.2
 _ZN6librbd5writeEPNS_8ImageCtxEmmPKc@Base 0.47.2
 _ZN6librbd6_flushEPNS_8ImageCtxE@Base 0.47.2
 _ZN6librbd6createERN8librados5IoCtxEPKcmbmPi@Base 0.48
 _ZN6librbd6md_oidERKSsb@Base 0.48
 _ZN6librbd6removeERN8librados5IoCtxEPKcRNS_15ProgressContextE@Base 0.47.2
 _ZN6librbd6renameERN8librados5IoCtxEPKcS4_@Base 0.47.2
 _ZN6librbd6resizeEPNS_8ImageCtxEmRNS_15ProgressContextE@Base 0.47.2
 _ZN6librbd7discardEPNS_8ImageCtxEmm@Base 0.47.2
 _ZN6librbd7rm_snapEPNS_8ImageCtxEPKc@Base 0.47.2
 _ZN6librbd7tmap_rmERN8librados5IoCtxERKSs@Base 0.47.2
 _ZN6librbd8ImageCtx10perf_startESs@Base 0.47.2
 _ZN6librbd8ImageCtx10snap_unsetEv@Base 0.47.2
 _ZN6librbd8ImageCtx11flush_cacheEv@Base 0.47.2
 _ZN6librbd8ImageCtx14write_to_cacheE8object_tRN4ceph6buffer4listEmm@Base 0.47.2
 _ZN6librbd8ImageCtx15read_from_cacheE8object_tPN4ceph6buffer4listEmm@Base 0.47.2
 _ZN6librbd8ImageCtx16invalidate_cacheEv@Base 0.47.2
 _ZN6librbd8ImageCtx19aio_read_from_cacheE8object_tPN4ceph6buffer4listEmmP7Context@Base 0.47.2
 _ZN6librbd8ImageCtx4initEv@Base 0.48
 _ZN6librbd8ImageCtx8snap_setESs@Base 0.47.2
 _ZN6librbd8ImageCtxC1ESsPKcRN8librados5IoCtxE@Base 0.47.2
 _ZN6librbd8ImageCtxC2ESsPKcRN8librados5IoCtxE@Base 0.47.2
 _ZN6librbd8ImageCtxD1Ev@Base 0.47.2
 _ZN6librbd8ImageCtxD2Ev@Base 0.47.2
 _ZN6librbd8WatchCtx10invalidateEv@Base 0.47.2
 _ZN6librbd8WatchCtx6notifyEhmRN4ceph6buffer4listE@Base 0.47.2
 _ZN6librbd8WatchCtxC1EPNS_8ImageCtxE@Base 0.47.2
 _ZN6librbd8WatchCtxC2EPNS_8ImageCtxE@Base 0.47.2
 _ZN6librbd8WatchCtxD0Ev@Base 0.47.2
 _ZN6librbd8WatchCtxD1Ev@Base 0.47.2
 _ZN6librbd8WatchCtxD2Ev@Base 0.47.2
 _ZN6librbd8add_snapEPNS_8ImageCtxEPKc@Base 0.47.2
 _ZN6librbd8aio_readEPNS_8ImageCtxEmmPcPNS_13AioCompletionE@Base 0.47.2
 _ZN6librbd8check_ioEPNS_8ImageCtxEmm@Base 0.47.2
 _ZN6librbd8rados_cbEPvS0_@Base 0.47.2
 _ZN6librbd8snap_setEPNS_8ImageCtxEPKc@Base 0.47.2
 _ZN6librbd8tmap_setERN8librados5IoCtxERKSs@Base 0.47.2
 _ZN6librbd9aio_writeEPNS_8ImageCtxEmmPKcPNS_13AioCompletionE@Base 0.47.2
 _ZN6librbd9snap_listEPNS_8ImageCtxERSt6vectorINS_11snap_info_tESaIS3_EE@Base 0.47.2
 _ZN7Context8completeEi@Base 0.47.2
 _ZN7ContextD0Ev@Base 0.47.2
 _ZN7ContextD1Ev@Base 0.47.2
 _ZN7ContextD2Ev@Base 0.47.2
 _ZN7LRUList6removeEP9LRUObject@Base 0.47.2
 _ZN8C_Gather10sub_finishEP7Contexti@Base 0.47.2
 _ZN8C_Gather11C_GatherSub6finishEi@Base 0.47.2
 _ZN8C_Gather11C_GatherSubD0Ev@Base 0.47.2
 _ZN8C_Gather11C_GatherSubD1Ev@Base 0.47.2
 _ZN8C_Gather11C_GatherSubD2Ev@Base 0.47.2
 _ZN8C_Gather6finishEi@Base 0.47.2
 _ZN8C_Gather7new_subEv@Base 0.47.2
 _ZN8C_Gather8activateEv@Base 0.47.2
 _ZN8C_Gather9delete_meEv@Base 0.47.2
 _ZN8C_GatherC1EP11CephContextP7Context@Base 0.47.2
 _ZN8C_GatherC2EP11CephContextP7Context@Base 0.47.2
 _ZN8C_GatherD0Ev@Base 0.47.2
 _ZN8C_GatherD1Ev@Base 0.47.2
 _ZN8C_GatherD2Ev@Base 0.47.2
 _ZN8librados19ObjectReadOperationD0Ev@Base 0.48
 _ZN8librados19ObjectReadOperationD1Ev@Base 0.48
 _ZN8librados19ObjectReadOperationD2Ev@Base 0.48
 _ZN8librados20ObjectWriteOperationD0Ev@Base 0.47.2
 _ZN8librados20ObjectWriteOperationD1Ev@Base 0.47.2
 _ZN8librados20ObjectWriteOperationD2Ev@Base 0.47.2
 _ZN8object_tD1Ev@Base 0.47.2
 _ZN8object_tD2Ev@Base 0.47.2
 _ZN9LRUObject9lru_unpinEv@Base 0.47.2
 _ZN9__gnu_cxx21_Hashtable_prime_listImE16__stl_prime_listE@Base 0.47.2
 _ZN9__gnu_cxx25_Hashtable_const_iteratorISt4pairIK9sobject_tPN12ObjectCacher6ObjectEES2_NS_4hashIS2_EESt10_Select1stIS7_ESt8equal_toIS2_ESaIS6_EEppEv@Base 0.47.2
 _ZN9__gnu_cxx8hash_mapI9sobject_tPN12ObjectCacher6ObjectENS_4hashIS1_EESt8equal_toIS1_ESaIS4_EEC1Ev@Base 0.47.2
 _ZN9__gnu_cxx8hash_mapI9sobject_tPN12ObjectCacher6ObjectENS_4hashIS1_EESt8equal_toIS1_ESaIS4_EEC2Ev@Base 0.47.2
 _ZN9__gnu_cxx8hash_mapI9sobject_tPN12ObjectCacher6ObjectENS_4hashIS1_EESt8equal_toIS1_ESaIS4_EEixERKS1_@Base 0.47.2
 _ZN9__gnu_cxx9hashtableISt4pairIK9sobject_tPN12ObjectCacher6ObjectEES2_NS_4hashIS2_EESt10_Select1stIS7_ESt8equal_toIS2_ESaIS6_EE12_M_copy_fromERKSF_@Base 0.47.2
 _ZN9__gnu_cxx9hashtableISt4pairIK9sobject_tPN12ObjectCacher6ObjectEES2_NS_4hashIS2_EESt10_Select1stIS7_ESt8equal_toIS2_ESaIS6_EE14find_or_insertERKS7_@Base 0.47.2
 _ZN9__gnu_cxx9hashtableISt4pairIK9sobject_tPN12ObjectCacher6ObjectEES2_NS_4hashIS2_EESt10_Select1stIS7_ESt8equal_toIS2_ESaIS6_EE21_M_initialize_bucketsEm@Base 0.47.2
 _ZN9__gnu_cxx9hashtableISt4pairIK9sobject_tPN12ObjectCacher6ObjectEES2_NS_4hashIS2_EESt10_Select1stIS7_ESt8equal_toIS2_ESaIS6_EE5clearEv@Base 0.47.2
 _ZN9__gnu_cxx9hashtableISt4pairIK9sobject_tPN12ObjectCacher6ObjectEES2_NS_4hashIS2_EESt10_Select1stIS7_ESt8equal_toIS2_ESaIS6_EE5eraseERS3_@Base 0.47.2
 _ZN9__gnu_cxx9hashtableISt4pairIK9sobject_tPN12ObjectCacher6ObjectEES2_NS_4hashIS2_EESt10_Select1stIS7_ESt8equal_toIS2_ESaIS6_EE6resizeEm@Base 0.47.2
 _ZN9__gnu_cxx9hashtableISt4pairIK9sobject_tPN12ObjectCacher6ObjectEES2_NS_4hashIS2_EESt10_Select1stIS7_ESt8equal_toIS2_ESaIS6_EEC1ERKSF_@Base 0.47.2
 _ZN9__gnu_cxx9hashtableISt4pairIK9sobject_tPN12ObjectCacher6ObjectEES2_NS_4hashIS2_EESt10_Select1stIS7_ESt8equal_toIS2_ESaIS6_EEC2ERKSF_@Base 0.47.2
 _ZN9__gnu_cxx9hashtableISt4pairIK9sobject_tPN12ObjectCacher6ObjectEES2_NS_4hashIS2_EESt10_Select1stIS7_ESt8equal_toIS2_ESaIS6_EED1Ev@Base 0.47.2
 _ZN9__gnu_cxx9hashtableISt4pairIK9sobject_tPN12ObjectCacher6ObjectEES2_NS_4hashIS2_EESt10_Select1stIS7_ESt8equal_toIS2_ESaIS6_EED2Ev@Base 0.47.2
 _ZN9sobject_tC1ERKS_@Base 0.47.2
 _ZN9sobject_tC2ERKS_@Base 0.47.2
 _ZN9sobject_tD1Ev@Base 0.47.2
 _ZN9sobject_tD2Ev@Base 0.47.2
 _ZNK12ObjectCacher12verify_statsEv@Base 0.47.2
 _ZNK6librbd8ImageCtx10get_snapidESs@Base 0.47.2
 _ZNK9__gnu_cxx9hashtableISt4pairIK9sobject_tPN12ObjectCacher6ObjectEES2_NS_4hashIS2_EESt10_Select1stIS7_ESt8equal_toIS2_ESaIS6_EE10_M_bkt_numERKS7_@Base 0.47.2
 _ZNK9__gnu_cxx9hashtableISt4pairIK9sobject_tPN12ObjectCacher6ObjectEES2_NS_4hashIS2_EESt10_Select1stIS7_ESt8equal_toIS2_ESaIS6_EE5countERS3_@Base 0.47.2
 _ZNKSt6vectorI12ObjectExtentSaIS0_EE12_M_check_lenEmPKc@Base 0.47.2
 _ZNKSt6vectorIN6librbd11snap_info_tESaIS1_EE12_M_check_lenEmPKc@Base 0.47.2
 _ZNKSt6vectorIN9__gnu_cxx8hash_mapI9sobject_tPN12ObjectCacher6ObjectENS0_4hashIS2_EESt8equal_toIS2_ESaIS5_EEESaISB_EE12_M_check_lenEmPKc@Base 0.47.2
 _ZNKSt6vectorIPN9__gnu_cxx15_Hashtable_nodeISt4pairIK9sobject_tPN12ObjectCacher6ObjectEEEESaISA_EE12_M_check_lenEmPKc@Base 0.47.2
 _ZNKSt6vectorISsSaISsEE12_M_check_lenEmPKc@Base 0.47.2
 _ZNKSt6vectorImSaImEE12_M_check_lenEmPKc@Base 0.47.2
 _ZNKSt8_Rb_treeIP7ContextS1_St9_IdentityIS1_ESt4lessIS1_ESaIS1_EE4findERKS1_@Base 0.47.2
 _ZNKSt8_Rb_treeISsSt4pairIKSsN6librbd8SnapInfoEESt10_Select1stIS4_ESt4lessISsESaIS4_EE4findERS1_@Base 0.47.2
 _ZNKSt8_Rb_treeIlSt4pairIKlPN12ObjectCacher10BufferHeadEESt10_Select1stIS5_ESt4lessIlESaIS5_EE4findERS1_@Base 0.47.2
 _ZNKSt8_Rb_treeImSt4pairIKmSt4listIP7ContextSaIS4_EEESt10_Select1stIS7_ESt4lessImESaIS7_EE4findERS1_@Base 0.47.2
 _ZNSt10_List_baseI9sobject_tSaIS0_EE8_M_clearEv@Base 0.47.2
 _ZNSt10_List_baseIN4ceph6buffer3ptrESaIS2_EE8_M_clearEv@Base 0.47.2
 _ZNSt10_List_baseIP7ContextSaIS1_EE8_M_clearEv@Base 0.47.2
 _ZNSt10_List_baseIPN12ObjectCacher10BufferHeadESaIS2_EE8_M_clearEv@Base 0.47.2
 _ZNSt11__copy_moveILb0ELb1ESt26random_access_iterator_tagE8__copy_mIPN9__gnu_cxx15_Hashtable_nodeISt4pairIK9sobject_tPN12ObjectCacher6ObjectEEEEEEPT_PKSE_SH_SF_@Base 0.47.2
 _ZNSt11__copy_moveILb0ELb1ESt26random_access_iterator_tagE8__copy_mImEEPT_PKS3_S6_S4_@Base 0.47.2
 _ZNSt12_Destroy_auxILb0EE9__destroyIP12ObjectExtentEEvT_S4_@Base 0.47.2
 _ZNSt12_Destroy_auxILb0EE9__destroyIPN6librbd11snap_info_tEEEvT_S5_@Base 0.47.2
 _ZNSt12_Destroy_auxILb0EE9__destroyIPN9__gnu_cxx8hash_mapI9sobject_tPN12ObjectCacher6ObjectENS2_4hashIS4_EESt8equal_toIS4_ESaIS7_EEEEEvT_SF_@Base 0.47.2
 _ZNSt12_Destroy_auxILb0EE9__destroyIPSsEEvT_S3_@Base 0.47.2
 _ZNSt12_Vector_baseIPN9__gnu_cxx15_Hashtable_nodeISt4pairIK9sobject_tPN12ObjectCacher6ObjectEEEESaISA_EED1Ev@Base 0.47.2
 _ZNSt12_Vector_baseIPN9__gnu_cxx15_Hashtable_nodeISt4pairIK9sobject_tPN12ObjectCacher6ObjectEEEESaISA_EED2Ev@Base 0.47.2
 _ZNSt20__copy_move_backwardILb0ELb0ESt26random_access_iterator_tagE13__copy_move_bIP12ObjectExtentS4_EET0_T_S6_S5_@Base 0.47.2
 _ZNSt20__copy_move_backwardILb0ELb0ESt26random_access_iterator_tagE13__copy_move_bIPN6librbd11snap_info_tES5_EET0_T_S7_S6_@Base 0.47.2
 _ZNSt20__copy_move_backwardILb0ELb0ESt26random_access_iterator_tagE13__copy_move_bIPN9__gnu_cxx8hash_mapI9sobject_tPN12ObjectCacher6ObjectENS3_4hashIS5_EESt8equal_toIS5_ESaIS8_EEESF_EET0_T_SH_SG_@Base 0.47.2
 _ZNSt20__copy_move_backwardILb0ELb0ESt26random_access_iterator_tagE13__copy_move_bIPSsS3_EET0_T_S5_S4_@Base 0.47.2
 _ZNSt20__uninitialized_copyILb0EE13__uninit_copyIP12ObjectExtentS3_EET0_T_S5_S4_@Base 0.47.2
 _ZNSt20__uninitialized_copyILb0EE13__uninit_copyIPN6librbd11snap_info_tES4_EET0_T_S6_S5_@Base 0.47.2
 _ZNSt20__uninitialized_copyILb0EE13__uninit_copyIPN9__gnu_cxx8hash_mapI9sobject_tPN12ObjectCacher6ObjectENS2_4hashIS4_EESt8equal_toIS4_ESaIS7_EEESE_EET0_T_SG_SF_@Base 0.47.2
 _ZNSt20__uninitialized_copyILb0EE13__uninit_copyIPSsS2_EET0_T_S4_S3_@Base 0.47.2
 _ZNSt22__uninitialized_fill_nILb0EE15__uninit_fill_nIPN9__gnu_cxx8hash_mapI9sobject_tPN12ObjectCacher6ObjectENS2_4hashIS4_EESt8equal_toIS4_ESaIS7_EEEmSD_EEvT_T0_RKT1_@Base 0.47.2
 _ZNSt3mapIlPN12ObjectCacher10BufferHeadESt4lessIlESaISt4pairIKlS2_EEED1Ev@Base 0.47.2
 _ZNSt3mapIlPN12ObjectCacher10BufferHeadESt4lessIlESaISt4pairIKlS2_EEED2Ev@Base 0.47.2
 _ZNSt3mapIlPN12ObjectCacher10BufferHeadESt4lessIlESaISt4pairIKlS2_EEEixERS6_@Base 0.47.2
 _ZNSt3mapIlSt4listIP7ContextSaIS2_EESt4lessIlESaISt4pairIKlS4_EEEixERS8_@Base 0.47.2
 _ZNSt3mapImSt4listIP7ContextSaIS2_EESt4lessImESaISt4pairIKmS4_EEE5eraseERS8_@Base 0.47.2
 _ZNSt3mapImSt4listIP7ContextSaIS2_EESt4lessImESaISt4pairIKmS4_EEED1Ev@Base 0.47.2
 _ZNSt3mapImSt4listIP7ContextSaIS2_EESt4lessImESaISt4pairIKmS4_EEED2Ev@Base 0.47.2
 _ZNSt3mapImSt4listIP7ContextSaIS2_EESt4lessImESaISt4pairIKmS4_EEEixERS8_@Base 0.47.2
 _ZNSt3mapImmSt4lessImESaISt4pairIKmmEEED1Ev@Base 0.47.2
 _ZNSt3mapImmSt4lessImESaISt4pairIKmmEEED2Ev@Base 0.47.2
 _ZNSt3mapImmSt4lessImESaISt4pairIKmmEEEixERS3_@Base 0.47.2
 _ZNSt3setIP7ContextSt4lessIS1_ESaIS1_EED1Ev@Base 0.47.2
 _ZNSt3setIP7ContextSt4lessIS1_ESaIS1_EED2Ev@Base 0.47.2
 _ZNSt3setIPN12ObjectCacher10BufferHeadESt4lessIS2_ESaIS2_EE6insertERKS2_@Base 0.47.2
 _ZNSt3setIPN12ObjectCacher10BufferHeadESt4lessIS2_ESaIS2_EED1Ev@Base 0.47.2
 _ZNSt3setIPN12ObjectCacher10BufferHeadESt4lessIS2_ESaIS2_EED2Ev@Base 0.47.2
 _ZNSt4listIN4ceph6buffer3ptrESaIS2_EE9push_backERKS2_@Base 0.47.2
 _ZNSt4listIN4ceph6buffer3ptrESaIS2_EEC1ERKS4_@Base 0.47.2
 _ZNSt4listIN4ceph6buffer3ptrESaIS2_EEC2ERKS4_@Base 0.47.2
 _ZNSt4listIN4ceph6buffer3ptrESaIS2_EED1Ev@Base 0.47.2
 _ZNSt4listIN4ceph6buffer3ptrESaIS2_EED2Ev@Base 0.47.2
 _ZNSt4listIP7ContextSaIS1_EEC1ERKS3_@Base 0.47.2
 _ZNSt4listIP7ContextSaIS1_EEC2ERKS3_@Base 0.47.2
 _ZNSt4listIP7ContextSaIS1_EED1Ev@Base 0.47.2
 _ZNSt4listIP7ContextSaIS1_EED2Ev@Base 0.47.2
 _ZNSt4pairIK9sobject_tPN12ObjectCacher6ObjectEED1Ev@Base 0.47.2
 _ZNSt4pairIK9sobject_tPN12ObjectCacher6ObjectEED2Ev@Base 0.47.2
 _ZNSt4pairIKSsN4ceph6buffer4listEED1Ev@Base 0.47.2
 _ZNSt4pairIKSsN4ceph6buffer4listEED2Ev@Base 0.47.2
 _ZNSt4pairIKSsN6librbd8SnapInfoEED1Ev@Base 0.47.2
 _ZNSt4pairIKSsN6librbd8SnapInfoEED2Ev@Base 0.47.2
 _ZNSt4pairIKlSt4listIP7ContextSaIS3_EEED1Ev@Base 0.47.2
 _ZNSt4pairIKlSt4listIP7ContextSaIS3_EEED2Ev@Base 0.47.2
 _ZNSt4pairIKmSt4listIP7ContextSaIS3_EEED1Ev@Base 0.48
 _ZNSt4pairIKmSt4listIP7ContextSaIS3_EEED2Ev@Base 0.48
 _ZNSt4pairISsN6librbd8SnapInfoEED1Ev@Base 0.47.2
 _ZNSt4pairISsN6librbd8SnapInfoEED2Ev@Base 0.47.2
 _ZNSt6vectorI12ObjectExtentSaIS0_EE13_M_insert_auxEN9__gnu_cxx17__normal_iteratorIPS0_S2_EERKS0_@Base 0.47.2
 _ZNSt6vectorI12ObjectExtentSaIS0_EE7reserveEm@Base 0.47.2
 _ZNSt6vectorI12ObjectExtentSaIS0_EED1Ev@Base 0.47.2
 _ZNSt6vectorI12ObjectExtentSaIS0_EED2Ev@Base 0.47.2
 _ZNSt6vectorI8snapid_tSaIS0_EE14_M_fill_insertEN9__gnu_cxx17__normal_iteratorIPS0_S2_EEmRKS0_@Base 0.48
 _ZNSt6vectorI8snapid_tSaIS0_EEC1ERKS2_@Base 0.47.2
 _ZNSt6vectorI8snapid_tSaIS0_EEC2ERKS2_@Base 0.47.2
 _ZNSt6vectorI8snapid_tSaIS0_EEaSERKS2_@Base 0.47.2
 _ZNSt6vectorIN6librbd11snap_info_tESaIS1_EE13_M_insert_auxEN9__gnu_cxx17__normal_iteratorIPS1_S3_EERKS1_@Base 0.47.2
 _ZNSt6vectorIN6librbd11snap_info_tESaIS1_EED1Ev@Base 0.47.2
 _ZNSt6vectorIN6librbd11snap_info_tESaIS1_EED2Ev@Base 0.47.2
 _ZNSt6vectorIN9__gnu_cxx8hash_mapI9sobject_tPN12ObjectCacher6ObjectENS0_4hashIS2_EESt8equal_toIS2_ESaIS5_EEESaISB_EE14_M_fill_insertENS0_17__normal_iteratorIPSB_SD_EEmRKSB_@Base 0.47.2
 _ZNSt6vectorIN9__gnu_cxx8hash_mapI9sobject_tPN12ObjectCacher6ObjectENS0_4hashIS2_EESt8equal_toIS2_ESaIS5_EEESaISB_EE6resizeEmSB_@Base 0.47.2
 _ZNSt6vectorIN9__gnu_cxx8hash_mapI9sobject_tPN12ObjectCacher6ObjectENS0_4hashIS2_EESt8equal_toIS2_ESaIS5_EEESaISB_EED1Ev@Base 0.47.2
 _ZNSt6vectorIN9__gnu_cxx8hash_mapI9sobject_tPN12ObjectCacher6ObjectENS0_4hashIS2_EESt8equal_toIS2_ESaIS5_EEESaISB_EED2Ev@Base 0.47.2
 _ZNSt6vectorIPN9__gnu_cxx15_Hashtable_nodeISt4pairIK9sobject_tPN12ObjectCacher6ObjectEEEESaISA_EE14_M_fill_insertENS0_17__normal_iteratorIPSA_SC_EEmRKSA_@Base 0.47.2
 _ZNSt6vectorIPN9__gnu_cxx15_Hashtable_nodeISt4pairIK9sobject_tPN12ObjectCacher6ObjectEEEESaISA_EE7reserveEm@Base 0.47.2
 _ZNSt6vectorIPN9__gnu_cxx15_Hashtable_nodeISt4pairIK9sobject_tPN12ObjectCacher6ObjectEEEESaISA_EEC1EmRKSA_RKSB_@Base 0.47.2
 _ZNSt6vectorIPN9__gnu_cxx15_Hashtable_nodeISt4pairIK9sobject_tPN12ObjectCacher6ObjectEEEESaISA_EEC2EmRKSA_RKSB_@Base 0.47.2
 _ZNSt6vectorIPN9__gnu_cxx15_Hashtable_nodeISt4pairIK9sobject_tPN12ObjectCacher6ObjectEEEESaISA_EED1Ev@Base 0.47.2
 _ZNSt6vectorIPN9__gnu_cxx15_Hashtable_nodeISt4pairIK9sobject_tPN12ObjectCacher6ObjectEEEESaISA_EED2Ev@Base 0.47.2
 _ZNSt6vectorISsSaISsEE13_M_insert_auxEN9__gnu_cxx17__normal_iteratorIPSsS1_EERKSs@Base 0.47.2
 _ZNSt6vectorISsSaISsEE14_M_fill_insertEN9__gnu_cxx17__normal_iteratorIPSsS1_EEmRKSs@Base 0.48
 _ZNSt6vectorISsSaISsEED1Ev@Base 0.47.2
 _ZNSt6vectorISsSaISsEED2Ev@Base 0.47.2
 _ZNSt6vectorImSaImEE13_M_insert_auxEN9__gnu_cxx17__normal_iteratorIPmS1_EERKm@Base 0.47.2
 _ZNSt6vectorImSaImEE14_M_fill_insertEN9__gnu_cxx17__normal_iteratorIPmS1_EEmRKm@Base 0.48
 _ZNSt6vectorImSaImEED1Ev@Base 0.47.2
 _ZNSt6vectorImSaImEED2Ev@Base 0.47.2
 _ZNSt8_Rb_treeI8object_tSt4pairIKS0_PN4ceph6buffer4listEESt10_Select1stIS7_ESt4lessIS0_ESaIS7_EE8_M_eraseEPSt13_Rb_tree_nodeIS7_E@Base 0.47.2
 _ZNSt8_Rb_treeIP7ContextS1_St9_IdentityIS1_ESt4lessIS1_ESaIS1_EE10_M_insert_EPKSt18_Rb_tree_node_baseSA_RKS1_@Base 0.47.2
 _ZNSt8_Rb_treeIP7ContextS1_St9_IdentityIS1_ESt4lessIS1_ESaIS1_EE11equal_rangeERKS1_@Base 0.47.2
 _ZNSt8_Rb_treeIP7ContextS1_St9_IdentityIS1_ESt4lessIS1_ESaIS1_EE12_M_erase_auxESt23_Rb_tree_const_iteratorIS1_ES9_@Base 0.47.2
 _ZNSt8_Rb_treeIP7ContextS1_St9_IdentityIS1_ESt4lessIS1_ESaIS1_EE16_M_insert_uniqueERKS1_@Base 0.47.2
 _ZNSt8_Rb_treeIP7ContextS1_St9_IdentityIS1_ESt4lessIS1_ESaIS1_EE5clearEv@Base 0.47.2
 _ZNSt8_Rb_treeIP7ContextS1_St9_IdentityIS1_ESt4lessIS1_ESaIS1_EE5eraseERKS1_@Base 0.47.2
 _ZNSt8_Rb_treeIP7ContextS1_St9_IdentityIS1_ESt4lessIS1_ESaIS1_EE8_M_eraseEPSt13_Rb_tree_nodeIS1_E@Base 0.47.2
 _ZNSt8_Rb_treeIPN12ObjectCacher10BufferHeadES2_St9_IdentityIS2_ESt4lessIS2_ESaIS2_EE10_M_insert_EPKSt18_Rb_tree_node_baseSB_RKS2_@Base 0.47.2
 _ZNSt8_Rb_treeIPN12ObjectCacher10BufferHeadES2_St9_IdentityIS2_ESt4lessIS2_ESaIS2_EE11equal_rangeERKS2_@Base 0.47.2
 _ZNSt8_Rb_treeIPN12ObjectCacher10BufferHeadES2_St9_IdentityIS2_ESt4lessIS2_ESaIS2_EE12_M_erase_auxESt23_Rb_tree_const_iteratorIS2_ESA_@Base 0.47.2
 _ZNSt8_Rb_treeIPN12ObjectCacher10BufferHeadES2_St9_IdentityIS2_ESt4lessIS2_ESaIS2_EE16_M_insert_uniqueERKS2_@Base 0.47.2
 _ZNSt8_Rb_treeIPN12ObjectCacher10BufferHeadES2_St9_IdentityIS2_ESt4lessIS2_ESaIS2_EE5clearEv@Base 0.47.2
 _ZNSt8_Rb_treeIPN12ObjectCacher10BufferHeadES2_St9_IdentityIS2_ESt4lessIS2_ESaIS2_EE5eraseERKS2_@Base 0.47.2
 _ZNSt8_Rb_treeIPN12ObjectCacher10BufferHeadES2_St9_IdentityIS2_ESt4lessIS2_ESaIS2_EE8_M_eraseEPSt13_Rb_tree_nodeIS2_E@Base 0.47.2
 _ZNSt8_Rb_treeISsSt4pairIKSsN4ceph6buffer4listEESt10_Select1stIS5_ESt4lessISsESaIS5_EE10_M_insert_EPKSt18_Rb_tree_node_baseSE_RKS5_@Base 0.47.2
 _ZNSt8_Rb_treeISsSt4pairIKSsN4ceph6buffer4listEESt10_Select1stIS5_ESt4lessISsESaIS5_EE16_M_insert_uniqueERKS5_@Base 0.47.2
 _ZNSt8_Rb_treeISsSt4pairIKSsN4ceph6buffer4listEESt10_Select1stIS5_ESt4lessISsESaIS5_EE17_M_insert_unique_ESt23_Rb_tree_const_iteratorIS5_ERKS5_@Base 0.47.2
 _ZNSt8_Rb_treeISsSt4pairIKSsN4ceph6buffer4listEESt10_Select1stIS5_ESt4lessISsESaIS5_EE8_M_eraseEPSt13_Rb_tree_nodeIS5_E@Base 0.47.2
 _ZNSt8_Rb_treeISsSt4pairIKSsN6librbd8SnapInfoEESt10_Select1stIS4_ESt4lessISsESaIS4_EE10_M_insert_EPKSt18_Rb_tree_node_baseSD_RKS4_@Base 0.47.2
 _ZNSt8_Rb_treeISsSt4pairIKSsN6librbd8SnapInfoEESt10_Select1stIS4_ESt4lessISsESaIS4_EE16_M_insert_uniqueERKS4_@Base 0.47.2
 _ZNSt8_Rb_treeISsSt4pairIKSsN6librbd8SnapInfoEESt10_Select1stIS4_ESt4lessISsESaIS4_EE4findERS1_@Base 0.47.2
 _ZNSt8_Rb_treeISsSt4pairIKSsN6librbd8SnapInfoEESt10_Select1stIS4_ESt4lessISsESaIS4_EE8_M_eraseEPSt13_Rb_tree_nodeIS4_E@Base 0.47.2
 _ZNSt8_Rb_treeIlSt4pairIKlPN12ObjectCacher10BufferHeadEESt10_Select1stIS5_ESt4lessIlESaIS5_EE10_M_insert_EPKSt18_Rb_tree_node_baseSE_RKS5_@Base 0.47.2
 _ZNSt8_Rb_treeIlSt4pairIKlPN12ObjectCacher10BufferHeadEESt10_Select1stIS5_ESt4lessIlESaIS5_EE11equal_rangeERS1_@Base 0.47.2
 _ZNSt8_Rb_treeIlSt4pairIKlPN12ObjectCacher10BufferHeadEESt10_Select1stIS5_ESt4lessIlESaIS5_EE12_M_erase_auxESt23_Rb_tree_const_iteratorIS5_ESD_@Base 0.47.2
 _ZNSt8_Rb_treeIlSt4pairIKlPN12ObjectCacher10BufferHeadEESt10_Select1stIS5_ESt4lessIlESaIS5_EE16_M_insert_uniqueERKS5_@Base 0.47.2
 _ZNSt8_Rb_treeIlSt4pairIKlPN12ObjectCacher10BufferHeadEESt10_Select1stIS5_ESt4lessIlESaIS5_EE16_M_insert_uniqueISt17_Rb_tree_iteratorIS5_EEEvT_SF_@Base 0.47.2
 _ZNSt8_Rb_treeIlSt4pairIKlPN12ObjectCacher10BufferHeadEESt10_Select1stIS5_ESt4lessIlESaIS5_EE17_M_insert_unique_ESt23_Rb_tree_const_iteratorIS5_ERKS5_@Base 0.47.2
 _ZNSt8_Rb_treeIlSt4pairIKlPN12ObjectCacher10BufferHeadEESt10_Select1stIS5_ESt4lessIlESaIS5_EE4findERS1_@Base 0.47.2
 _ZNSt8_Rb_treeIlSt4pairIKlPN12ObjectCacher10BufferHeadEESt10_Select1stIS5_ESt4lessIlESaIS5_EE5clearEv@Base 0.47.2
 _ZNSt8_Rb_treeIlSt4pairIKlPN12ObjectCacher10BufferHeadEESt10_Select1stIS5_ESt4lessIlESaIS5_EE5eraseERS1_@Base 0.47.2
 _ZNSt8_Rb_treeIlSt4pairIKlPN12ObjectCacher10BufferHeadEESt10_Select1stIS5_ESt4lessIlESaIS5_EE8_M_eraseEPSt13_Rb_tree_nodeIS5_E@Base 0.47.2
 _ZNSt8_Rb_treeIlSt4pairIKlPN12ObjectCacher10BufferHeadEESt10_Select1stIS5_ESt4lessIlESaIS5_EED1Ev@Base 0.47.2
 _ZNSt8_Rb_treeIlSt4pairIKlPN12ObjectCacher10BufferHeadEESt10_Select1stIS5_ESt4lessIlESaIS5_EED2Ev@Base 0.47.2
 _ZNSt8_Rb_treeIlSt4pairIKlSt4listIP7ContextSaIS4_EEESt10_Select1stIS7_ESt4lessIlESaIS7_EE10_M_insert_EPKSt18_Rb_tree_node_baseSG_RKS7_@Base 0.47.2
 _ZNSt8_Rb_treeIlSt4pairIKlSt4listIP7ContextSaIS4_EEESt10_Select1stIS7_ESt4lessIlESaIS7_EE16_M_insert_uniqueERKS7_@Base 0.47.2
 _ZNSt8_Rb_treeIlSt4pairIKlSt4listIP7ContextSaIS4_EEESt10_Select1stIS7_ESt4lessIlESaIS7_EE17_M_insert_unique_ESt23_Rb_tree_const_iteratorIS7_ERKS7_@Base 0.47.2
 _ZNSt8_Rb_treeIlSt4pairIKlSt4listIP7ContextSaIS4_EEESt10_Select1stIS7_ESt4lessIlESaIS7_EE8_M_eraseEPSt13_Rb_tree_nodeIS7_E@Base 0.47.2
 _ZNSt8_Rb_treeImSt4pairIKmN4ceph6buffer4listEESt10_Select1stIS5_ESt4lessImESaIS5_EE10_M_insert_EPKSt18_Rb_tree_node_baseSE_RKS5_@Base 0.47.2
 _ZNSt8_Rb_treeImSt4pairIKmN4ceph6buffer4listEESt10_Select1stIS5_ESt4lessImESaIS5_EE16_M_insert_uniqueERKS5_@Base 0.47.2
 _ZNSt8_Rb_treeImSt4pairIKmN4ceph6buffer4listEESt10_Select1stIS5_ESt4lessImESaIS5_EE17_M_insert_unique_ESt23_Rb_tree_const_iteratorIS5_ERKS5_@Base 0.47.2
 _ZNSt8_Rb_treeImSt4pairIKmN4ceph6buffer4listEESt10_Select1stIS5_ESt4lessImESaIS5_EE8_M_eraseEPSt13_Rb_tree_nodeIS5_E@Base 0.47.2
 _ZNSt8_Rb_treeImSt4pairIKmN4ceph6buffer4listEESt10_Select1stIS5_ESt4lessImESaIS5_EED1Ev@Base 0.47.2
 _ZNSt8_Rb_treeImSt4pairIKmN4ceph6buffer4listEESt10_Select1stIS5_ESt4lessImESaIS5_EED2Ev@Base 0.47.2
 _ZNSt8_Rb_treeImSt4pairIKmSt4listIP7ContextSaIS4_EEESt10_Select1stIS7_ESt4lessImESaIS7_EE10_M_insert_EPKSt18_Rb_tree_node_baseSG_RKS7_@Base 0.47.2
 _ZNSt8_Rb_treeImSt4pairIKmSt4listIP7ContextSaIS4_EEESt10_Select1stIS7_ESt4lessImESaIS7_EE11equal_rangeERS1_@Base 0.47.2
 _ZNSt8_Rb_treeImSt4pairIKmSt4listIP7ContextSaIS4_EEESt10_Select1stIS7_ESt4lessImESaIS7_EE12_M_erase_auxESt23_Rb_tree_const_iteratorIS7_ESF_@Base 0.47.2
 _ZNSt8_Rb_treeImSt4pairIKmSt4listIP7ContextSaIS4_EEESt10_Select1stIS7_ESt4lessImESaIS7_EE16_M_insert_uniqueERKS7_@Base 0.47.2
 _ZNSt8_Rb_treeImSt4pairIKmSt4listIP7ContextSaIS4_EEESt10_Select1stIS7_ESt4lessImESaIS7_EE17_M_insert_unique_ESt23_Rb_tree_const_iteratorIS7_ERKS7_@Base 0.47.2
 _ZNSt8_Rb_treeImSt4pairIKmSt4listIP7ContextSaIS4_EEESt10_Select1stIS7_ESt4lessImESaIS7_EE5clearEv@Base 0.47.2
 _ZNSt8_Rb_treeImSt4pairIKmSt4listIP7ContextSaIS4_EEESt10_Select1stIS7_ESt4lessImESaIS7_EE5eraseERS1_@Base 0.47.2
 _ZNSt8_Rb_treeImSt4pairIKmSt4listIP7ContextSaIS4_EEESt10_Select1stIS7_ESt4lessImESaIS7_EE8_M_eraseEPSt13_Rb_tree_nodeIS7_E@Base 0.47.2
 _ZNSt8_Rb_treeImSt4pairIKmmESt10_Select1stIS2_ESt4lessImESaIS2_EE10_M_insert_EPKSt18_Rb_tree_node_baseSB_RKS2_@Base 0.47.2
 _ZNSt8_Rb_treeImSt4pairIKmmESt10_Select1stIS2_ESt4lessImESaIS2_EE16_M_insert_uniqueERKS2_@Base 0.47.2
 _ZNSt8_Rb_treeImSt4pairIKmmESt10_Select1stIS2_ESt4lessImESaIS2_EE17_M_insert_unique_ESt23_Rb_tree_const_iteratorIS2_ERKS2_@Base 0.47.2
 _ZNSt8_Rb_treeImSt4pairIKmmESt10_Select1stIS2_ESt4lessImESaIS2_EE7_M_copyEPKSt13_Rb_tree_nodeIS2_EPSA_@Base 0.47.2
 _ZNSt8_Rb_treeImSt4pairIKmmESt10_Select1stIS2_ESt4lessImESaIS2_EE8_M_eraseEPSt13_Rb_tree_nodeIS2_E@Base 0.47.2
 _ZNSt8_Rb_treeImSt4pairIKmmESt10_Select1stIS2_ESt4lessImESaIS2_EEC1ERKS8_@Base 0.47.2
 _ZNSt8_Rb_treeImSt4pairIKmmESt10_Select1stIS2_ESt4lessImESaIS2_EEC2ERKS8_@Base 0.47.2
 _ZNSt8_Rb_treeImSt4pairIKmmESt10_Select1stIS2_ESt4lessImESaIS2_EEaSERKS8_@Base 0.47.2
 _ZSt13copy_backwardIPPN9__gnu_cxx15_Hashtable_nodeISt4pairIK9sobject_tPN12ObjectCacher6ObjectEEEESB_ET0_T_SD_SC_@Base 0.47.2
 _ZSt8__fill_aIPN9__gnu_cxx8hash_mapI9sobject_tPN12ObjectCacher6ObjectENS0_4hashIS2_EESt8equal_toIS2_ESaIS5_EEESB_ENS0_11__enable_ifIXntsrSt11__is_scalarIT0_E7__valueEvE6__typeET_SJ_RKSF_@Base 0.47.2
 _ZStplIcSt11char_traitsIcESaIcEESbIT_T0_T1_EPKS3_RKS6_@Base 0.47.2
 _ZStplIcSt11char_traitsIcESaIcEESbIT_T0_T1_ERKS6_PKS3_@Base 0.47.2
 _ZStplIcSt11char_traitsIcESaIcEESbIT_T0_T1_ERKS6_S8_@Base 0.47.2
 _ZTI10C_SafeCond@Base 0.47.2
 _ZTI15LibrbdWriteback@Base 0.47.2
 _ZTI16WritebackHandler@Base 0.47.2
 _ZTI4Cond@Base 0.47.2
 _ZTI6C_Cond@Base 0.47.2
 _ZTI7Context@Base 0.47.2
 _ZTI8C_Gather@Base 0.47.2
 _ZTIN12ObjectCacher11C_RetryReadE@Base 0.47.2
 _ZTIN12ObjectCacher12C_ReadFinishE@Base 0.47.2
 _ZTIN12ObjectCacher13C_WriteCommitE@Base 0.47.2
 _ZTIN12ObjectCacher13FlusherThreadE@Base 0.47.2
 _ZTIN12ObjectCacher9C_LockAckE@Base 0.47.2
 _ZTIN4ceph6buffer5errorE@Base 0.48
 _ZTIN6librbd15ProgressContextE@Base 0.47.2
 _ZTIN6librbd16CProgressContextE@Base 0.47.2
 _ZTIN6librbd18AioBlockCompletionE@Base 0.47.2
 _ZTIN6librbd19NoOpProgressContextE@Base 0.47.2
 _ZTIN6librbd8WatchCtxE@Base 0.47.2
 _ZTIN8C_Gather11C_GatherSubE@Base 0.47.2
 _ZTIN8librados19ObjectReadOperationE@Base 0.48
 _ZTIN8librados20ObjectWriteOperationE@Base 0.47.2
 _ZTS10C_SafeCond@Base 0.47.2
 _ZTS15LibrbdWriteback@Base 0.47.2
 _ZTS16WritebackHandler@Base 0.47.2
 _ZTS4Cond@Base 0.47.2
 _ZTS6C_Cond@Base 0.47.2
 _ZTS7Context@Base 0.47.2
 _ZTS8C_Gather@Base 0.47.2
 _ZTSN12ObjectCacher11C_RetryReadE@Base 0.47.2
 _ZTSN12ObjectCacher12C_ReadFinishE@Base 0.47.2
 _ZTSN12ObjectCacher13C_WriteCommitE@Base 0.47.2
 _ZTSN12ObjectCacher13FlusherThreadE@Base 0.47.2
 _ZTSN12ObjectCacher9C_LockAckE@Base 0.47.2
 _ZTSN4ceph6buffer5errorE@Base 0.48
 _ZTSN6librbd15ProgressContextE@Base 0.47.2
 _ZTSN6librbd16CProgressContextE@Base 0.47.2
 _ZTSN6librbd18AioBlockCompletionE@Base 0.47.2
 _ZTSN6librbd19NoOpProgressContextE@Base 0.47.2
 _ZTSN6librbd8WatchCtxE@Base 0.47.2
 _ZTSN8C_Gather11C_GatherSubE@Base 0.47.2
 _ZTSN8librados19ObjectReadOperationE@Base 0.48
 _ZTSN8librados20ObjectWriteOperationE@Base 0.47.2
 _ZTV10C_SafeCond@Base 0.47.2
 _ZTV15LibrbdWriteback@Base 0.47.2
 _ZTV16WritebackHandler@Base 0.47.2
 _ZTV4Cond@Base 0.47.2
 _ZTV6C_Cond@Base 0.47.2
 _ZTV7Context@Base 0.47.2
 _ZTV8C_Gather@Base 0.47.2
 _ZTVN12ObjectCacher11C_RetryReadE@Base 0.47.2
 _ZTVN12ObjectCacher12C_ReadFinishE@Base 0.47.2
 _ZTVN12ObjectCacher13C_WriteCommitE@Base 0.47.2
 _ZTVN12ObjectCacher13FlusherThreadE@Base 0.47.2
 _ZTVN12ObjectCacher9C_LockAckE@Base 0.47.2
 _ZTVN6librbd15ProgressContextE@Base 0.47.2
 _ZTVN6librbd16CProgressContextE@Base 0.47.2
 _ZTVN6librbd18AioBlockCompletionE@Base 0.47.2
 _ZTVN6librbd19NoOpProgressContextE@Base 0.47.2
 _ZTVN6librbd8WatchCtxE@Base 0.47.2
 _ZTVN8C_Gather11C_GatherSubE@Base 0.47.2
 _ZTVN8librados19ObjectReadOperationE@Base 0.48
 _ZTVN8librados20ObjectWriteOperationE@Base 0.47.2
 _ZeqRK9sobject_tS1_@Base 0.47.2
 _ZlsI8snapid_tERSoS1_RKSt6vectorIT_SaIS3_EE@Base 0.48
 _ZlsIP7ContextERSoS2_RKSt3setIT_St4lessIS4_ESaIS4_EE@Base 0.47.2
 _ZlsRSo8snapid_t@Base 0.47.2
 _ZlsRSoRK11SnapContext@Base 0.48
 _ZlsRSoRK12ObjectExtent@Base 0.47.2
 _ZlsRSoRK16object_locator_t@Base 0.47.2
 _ZlsRSoRK9sobject_t@Base 0.47.2
 _ZlsRSoRN12ObjectCacher10BufferHeadE@Base 0.47.2
 _ZlsRSoRN12ObjectCacher6ObjectE@Base 0.47.2
 _ZmiRK7utime_tS1_@Base 0.47.2
 rbd_aio_create_completion@Base 0.47.2
 rbd_aio_discard@Base 0.47.2
 rbd_aio_get_return_value@Base 0.47.2
 rbd_aio_read@Base 0.47.2
 rbd_aio_release@Base 0.47.2
 rbd_aio_wait_for_complete@Base 0.47.2
 rbd_aio_write@Base 0.47.2
 rbd_close@Base 0.47.2
 rbd_copy@Base 0.47.2
 rbd_copy_with_progress@Base 0.47.2
 rbd_create2@Base 0.48
 rbd_create@Base 0.47.2
 rbd_discard@Base 0.47.2
 rbd_flush@Base 0.47.2
 rbd_list@Base 0.47.2
 rbd_open@Base 0.47.2
 rbd_read@Base 0.47.2
 rbd_read_iterate@Base 0.47.2
 rbd_remove@Base 0.47.2
 rbd_remove_with_progress@Base 0.47.2
 rbd_rename@Base 0.47.2
 rbd_resize@Base 0.47.2
 rbd_resize_with_progress@Base 0.47.2
 rbd_snap_create@Base 0.47.2
 rbd_snap_list@Base 0.47.2
 rbd_snap_list_end@Base 0.47.2
 rbd_snap_remove@Base 0.47.2
 rbd_snap_rollback@Base 0.47.2
 rbd_snap_rollback_with_progress@Base 0.47.2
 rbd_snap_set@Base 0.47.2
 rbd_stat@Base 0.47.2
 rbd_version@Base 0.47.2
 rbd_write@Base 0.47.2
