--- new_symbol_file (libewebkit1_127150_amd64)
+++ dpkg-gensymbols54fr5m	2012-12-25 16:31:42.242398294 -0500
@@ -0,0 +1,855 @@
+libTestNetscapePlugin.so libewebkit1 #MINVER#
+ NPP_Destroy@Base 127150
+ NPP_DestroyStream@Base 127150
+ NPP_GetValue@Base 127150
+ NPP_HandleEvent@Base 127150
+ NPP_New@Base 127150
+ NPP_NewStream@Base 127150
+ NPP_Print@Base 127150
+ NPP_SetValue@Base 127150
+ NPP_SetWindow@Base 127150
+ NPP_StreamAsFile@Base 127150
+ NPP_URLNotify@Base 127150
+ NPP_Write@Base 127150
+ NPP_WriteReady@Base 127150
+ NP_GetEntryPoints@Base 127150
+ NP_GetMIMEDescription@Base 127150
+ NP_GetValue@Base 127150
+ NP_Initialize@Base 127150
+ NP_Shutdown@Base 127150
+ _Z12getTestClassv@Base 127150
+ _Z12notifyStreamP12PluginObjectPKcS2_@Base 127150
+ _Z13testNPRuntimeP4_NPP@Base 127150
+ _Z14getPluginClassv@Base 127150
+ _Z14handleCallbackP12PluginObjectPKcsPv@Base 127150
+ _Z14testWindowOpenP4_NPP@Base 127150
+ _Z16testDocumentOpenP4_NPP@Base 127150
+ _Z18getTestObjectCountv@Base 127150
+ _Z20notifyTestCompletionP4_NPPP8NPObject@Base 127150
+ _Z22pluginLogWithArgumentsP4_NPPPKcP13__va_list_tag@Base 127150
+ _Z9pluginLogP4_NPPPKcz@Base 127150
+ _ZN10PluginTest10NPN_GetURLEPKcS1_@Base 127150
+ _ZN10PluginTest10notifyDoneEv@Base 127150
+ _ZN10PluginTest11NPP_DestroyEPP12_NPSavedData@Base 127150
+ _ZN10PluginTest11NP_ShutdownEv@Base 127150
+ _ZN10PluginTest12NPN_GetValueE11NPNVariablePv@Base 127150
+ _ZN10PluginTest12NPN_MemAllocEj@Base 127150
+ _ZN10PluginTest12NPP_GetValueE11NPPVariablePv@Base 127150
+ _ZN10PluginTest12NPP_SetValueE11NPNVariablePv@Base 127150
+ _ZN10PluginTest13NPP_NewStreamEPcP9_NPStreamhPt@Base 127150
+ _ZN10PluginTest13NPP_SetWindowEP9_NPWindow@Base 127150
+ _ZN10PluginTest13NPP_URLNotifyEPKcsPv@Base 127150
+ _ZN10PluginTest13executeScriptEPK9_NPStringP10_NPVariant@Base 127150
+ _ZN10PluginTest13executeScriptEPKc@Base 127150
+ _ZN10PluginTest13waitUntilDoneEv@Base 127150
+ _ZN10PluginTest14NPP_WriteReadyEP9_NPStream@Base 127150
+ _ZN10PluginTest15NPP_HandleEventEPv@Base 127150
+ _ZN10PluginTest16NPN_CreateObjectEP7NPClass@Base 127150
+ _ZN10PluginTest16NPN_GetURLNotifyEPKcS1_Pv@Base 127150
+ _ZN10PluginTest16NPN_RetainObjectEP8NPObject@Base 127150
+ _ZN10PluginTest17NPN_ReleaseObjectEP8NPObject@Base 127150
+ _ZN10PluginTest17NPP_DestroyStreamEP9_NPStreams@Base 127150
+ _ZN10PluginTest18NPN_InvalidateRectEP7_NPRect@Base 127150
+ _ZN10PluginTest18NPN_RemovePropertyEP8NPObjectPv@Base 127150
+ _ZN10PluginTest19createTestFunctionsEv@Base 127150
+ _ZN10PluginTest19indicateTestFailureEv@Base 127150
+ _ZN10PluginTest20NPN_GetIntIdentifierEi@Base 127150
+ _ZN10PluginTest21NPN_IntFromIdentifierEPv@Base 127150
+ _ZN10PluginTest22NPN_IdentifierIsStringEPv@Base 127150
+ _ZN10PluginTest22NPN_UTF8FromIdentifierEPv@Base 127150
+ _ZN10PluginTest23NPN_GetStringIdentifierEPKc@Base 127150
+ _ZN10PluginTest26registerCreateTestFunctionERKSsPFPS_P4_NPPS1_E@Base 127150
+ _ZN10PluginTest26registerNPShutdownFunctionEPFvvE@Base 127150
+ _ZN10PluginTest3logEPKcz@Base 127150
+ _ZN10PluginTest6ObjectIN15PrivateBrowsing16ScriptableObjectEE11NP_AllocateEP4_NPPP7NPClass@Base 127150
+ _ZN10PluginTest6ObjectIN15PrivateBrowsing16ScriptableObjectEE13NP_DeallocateEP8NPObject@Base 127150
+ _ZN10PluginTest6ObjectIN15PrivateBrowsing16ScriptableObjectEE14NP_GetPropertyEP8NPObjectPvP10_NPVariant@Base 127150
+ _ZN10PluginTest6ObjectIN15PrivateBrowsing16ScriptableObjectEE14NP_HasPropertyEP8NPObjectPv@Base 127150
+ _ZN10PluginTest6ObjectIN15PrivateBrowsing16ScriptableObjectEED0Ev@Base 127150
+ _ZN10PluginTest6ObjectIN15PrivateBrowsing16ScriptableObjectEED1Ev@Base 127150
+ _ZN10PluginTest6ObjectIN15PrivateBrowsing16ScriptableObjectEED2Ev@Base 127150
+ _ZN10PluginTest6ObjectIN23NPRuntimeRemoveProperty10TestObjectEE11NP_AllocateEP4_NPPP7NPClass@Base 127150
+ _ZN10PluginTest6ObjectIN23NPRuntimeRemoveProperty10TestObjectEE13NP_DeallocateEP8NPObject@Base 127150
+ _ZN10PluginTest6ObjectIN23NPRuntimeRemoveProperty10TestObjectEE14NP_GetPropertyEP8NPObjectPvP10_NPVariant@Base 127150
+ _ZN10PluginTest6ObjectIN23NPRuntimeRemoveProperty10TestObjectEE14NP_HasPropertyEP8NPObjectPv@Base 127150
+ _ZN10PluginTest6ObjectIN23NPRuntimeRemoveProperty10TestObjectEE17NP_RemovePropertyEP8NPObjectPv@Base 127150
+ _ZN10PluginTest6ObjectIN23NPRuntimeRemoveProperty10TestObjectEED0Ev@Base 127150
+ _ZN10PluginTest6ObjectIN23NPRuntimeRemoveProperty10TestObjectEED1Ev@Base 127150
+ _ZN10PluginTest6ObjectIN23NPRuntimeRemoveProperty10TestObjectEED2Ev@Base 127150
+ _ZN10PluginTest6ObjectIN23NPRuntimeRemoveProperty12PluginObjectEE11NP_AllocateEP4_NPPP7NPClass@Base 127150
+ _ZN10PluginTest6ObjectIN23NPRuntimeRemoveProperty12PluginObjectEE12NP_HasMethodEP8NPObjectPv@Base 127150
+ _ZN10PluginTest6ObjectIN23NPRuntimeRemoveProperty12PluginObjectEE13NP_DeallocateEP8NPObject@Base 127150
+ _ZN10PluginTest6ObjectIN23NPRuntimeRemoveProperty12PluginObjectEE14NP_GetPropertyEP8NPObjectPvP10_NPVariant@Base 127150
+ _ZN10PluginTest6ObjectIN23NPRuntimeRemoveProperty12PluginObjectEE14NP_HasPropertyEP8NPObjectPv@Base 127150
+ _ZN10PluginTest6ObjectIN23NPRuntimeRemoveProperty12PluginObjectEE9NP_InvokeEP8NPObjectPvPK10_NPVariantjPS7_@Base 127150
+ _ZN10PluginTest6ObjectIN23NPRuntimeRemoveProperty12PluginObjectEED0Ev@Base 127150
+ _ZN10PluginTest6ObjectIN23NPRuntimeRemoveProperty12PluginObjectEED1Ev@Base 127150
+ _ZN10PluginTest6ObjectIN23NPRuntimeRemoveProperty12PluginObjectEED2Ev@Base 127150
+ _ZN10PluginTest6ObjectIN34NPDeallocateCalledBeforeNPShutdown10TestObjectEE11NP_AllocateEP4_NPPP7NPClass@Base 127150
+ _ZN10PluginTest6ObjectIN34NPDeallocateCalledBeforeNPShutdown10TestObjectEE13NP_DeallocateEP8NPObject@Base 127150
+ _ZN10PluginTest6ObjectIN34NPDeallocateCalledBeforeNPShutdown10TestObjectEED0Ev@Base 127150
+ _ZN10PluginTest6ObjectIN34NPDeallocateCalledBeforeNPShutdown10TestObjectEED1Ev@Base 127150
+ _ZN10PluginTest6ObjectIN34NPDeallocateCalledBeforeNPShutdown10TestObjectEED2Ev@Base 127150
+ _ZN10PluginTest6ObjectIN34NPDeallocateCalledBeforeNPShutdown16ScriptableObjectEE11NP_AllocateEP4_NPPP7NPClass@Base 127150
+ _ZN10PluginTest6ObjectIN34NPDeallocateCalledBeforeNPShutdown16ScriptableObjectEE13NP_DeallocateEP8NPObject@Base 127150
+ _ZN10PluginTest6ObjectIN34NPDeallocateCalledBeforeNPShutdown16ScriptableObjectEE14NP_GetPropertyEP8NPObjectPvP10_NPVariant@Base 127150
+ _ZN10PluginTest6ObjectIN34NPDeallocateCalledBeforeNPShutdown16ScriptableObjectEE14NP_HasPropertyEP8NPObjectPv@Base 127150
+ _ZN10PluginTest6ObjectIN34NPDeallocateCalledBeforeNPShutdown16ScriptableObjectEED0Ev@Base 127150
+ _ZN10PluginTest6ObjectIN34NPDeallocateCalledBeforeNPShutdown16ScriptableObjectEED1Ev@Base 127150
+ _ZN10PluginTest6ObjectIN34NPDeallocateCalledBeforeNPShutdown16ScriptableObjectEED2Ev@Base 127150
+ _ZN10PluginTest6ObjectIN34NPRuntimeObjectFromDestroyedPlugin10TestObjectEE11NP_AllocateEP4_NPPP7NPClass@Base 127150
+ _ZN10PluginTest6ObjectIN34NPRuntimeObjectFromDestroyedPlugin10TestObjectEE13NP_DeallocateEP8NPObject@Base 127150
+ _ZN10PluginTest6ObjectIN34NPRuntimeObjectFromDestroyedPlugin10TestObjectEED0Ev@Base 127150
+ _ZN10PluginTest6ObjectIN34NPRuntimeObjectFromDestroyedPlugin10TestObjectEED1Ev@Base 127150
+ _ZN10PluginTest6ObjectIN34NPRuntimeObjectFromDestroyedPlugin10TestObjectEED2Ev@Base 127150
+ _ZN10PluginTest6ObjectIN34NPRuntimeObjectFromDestroyedPlugin16ScriptableObjectEE11NP_AllocateEP4_NPPP7NPClass@Base 127150
+ _ZN10PluginTest6ObjectIN34NPRuntimeObjectFromDestroyedPlugin16ScriptableObjectEE12NP_HasMethodEP8NPObjectPv@Base 127150
+ _ZN10PluginTest6ObjectIN34NPRuntimeObjectFromDestroyedPlugin16ScriptableObjectEE13NP_DeallocateEP8NPObject@Base 127150
+ _ZN10PluginTest6ObjectIN34NPRuntimeObjectFromDestroyedPlugin16ScriptableObjectEE14NP_GetPropertyEP8NPObjectPvP10_NPVariant@Base 127150
+ _ZN10PluginTest6ObjectIN34NPRuntimeObjectFromDestroyedPlugin16ScriptableObjectEE14NP_HasPropertyEP8NPObjectPv@Base 127150
+ _ZN10PluginTest6ObjectIN34NPRuntimeObjectFromDestroyedPlugin16ScriptableObjectEE9NP_InvokeEP8NPObjectPvPK10_NPVariantjPS7_@Base 127150
+ _ZN10PluginTest6ObjectIN34NPRuntimeObjectFromDestroyedPlugin16ScriptableObjectEED0Ev@Base 127150
+ _ZN10PluginTest6ObjectIN34NPRuntimeObjectFromDestroyedPlugin16ScriptableObjectEED1Ev@Base 127150
+ _ZN10PluginTest6ObjectIN34NPRuntimeObjectFromDestroyedPlugin16ScriptableObjectEED2Ev@Base 127150
+ _ZN10PluginTest6ObjectIN35NPPSetWindowCalledDuringDestruction12ScriptObjectEE11NP_AllocateEP4_NPPP7NPClass@Base 127150
+ _ZN10PluginTest6ObjectIN35NPPSetWindowCalledDuringDestruction12ScriptObjectEE12NP_HasMethodEP8NPObjectPv@Base 127150
+ _ZN10PluginTest6ObjectIN35NPPSetWindowCalledDuringDestruction12ScriptObjectEE13NP_DeallocateEP8NPObject@Base 127150
+ _ZN10PluginTest6ObjectIN35NPPSetWindowCalledDuringDestruction12ScriptObjectEE9NP_InvokeEP8NPObjectPvPK10_NPVariantjPS7_@Base 127150
+ _ZN10PluginTest6ObjectIN35NPPSetWindowCalledDuringDestruction12ScriptObjectEED0Ev@Base 127150
+ _ZN10PluginTest6ObjectIN35NPPSetWindowCalledDuringDestruction12ScriptObjectEED1Ev@Base 127150
+ _ZN10PluginTest6ObjectIN35NPPSetWindowCalledDuringDestruction12ScriptObjectEED2Ev@Base 127150
+ _ZN10PluginTest6ObjectIN37PluginScriptableNPObjectInvokeDefault25NPObjectWithInvokeDefaultEE11NP_AllocateEP4_NPPP7NPClass@Base 127150
+ _ZN10PluginTest6ObjectIN37PluginScriptableNPObjectInvokeDefault25NPObjectWithInvokeDefaultEE13NP_DeallocateEP8NPObject@Base 127150
+ _ZN10PluginTest6ObjectIN37PluginScriptableNPObjectInvokeDefault25NPObjectWithInvokeDefaultEE16NP_InvokeDefaultEP8NPObjectPK10_NPVariantjPS6_@Base 127150
+ _ZN10PluginTest6ObjectIN37PluginScriptableNPObjectInvokeDefault25NPObjectWithInvokeDefaultEED0Ev@Base 127150
+ _ZN10PluginTest6ObjectIN37PluginScriptableNPObjectInvokeDefault25NPObjectWithInvokeDefaultEED1Ev@Base 127150
+ _ZN10PluginTest6ObjectIN37PluginScriptableNPObjectInvokeDefault25NPObjectWithInvokeDefaultEED2Ev@Base 127150
+ _ZN10PluginTest6ObjectIN37PluginScriptableNPObjectInvokeDefault28NPObjectWithoutInvokeDefaultEE11NP_AllocateEP4_NPPP7NPClass@Base 127150
+ _ZN10PluginTest6ObjectIN37PluginScriptableNPObjectInvokeDefault28NPObjectWithoutInvokeDefaultEE13NP_DeallocateEP8NPObject@Base 127150
+ _ZN10PluginTest6ObjectIN37PluginScriptableNPObjectInvokeDefault28NPObjectWithoutInvokeDefaultEED0Ev@Base 127150
+ _ZN10PluginTest6ObjectIN37PluginScriptableNPObjectInvokeDefault28NPObjectWithoutInvokeDefaultEED1Ev@Base 127150
+ _ZN10PluginTest6ObjectIN37PluginScriptableNPObjectInvokeDefault28NPObjectWithoutInvokeDefaultEED2Ev@Base 127150
+ _ZN10PluginTest6createEP4_NPPRKSs@Base 127150
+ _ZN10PluginTest7NPP_NewEPctsPS0_S1_P12_NPSavedData@Base 127150
+ _ZN10PluginTest8RegisterI15PrivateBrowsingE6createEP4_NPPRKSs@Base 127150
+ _ZN10PluginTest8RegisterI22NullNPPGetValuePointerE6createEP4_NPPRKSs@Base 127150
+ _ZN10PluginTest8RegisterI22PassDifferentNPPStructE6createEP4_NPPRKSs@Base 127150
+ _ZN10PluginTest8RegisterI23GetURLWithJavaScriptURLE6createEP4_NPPRKSs@Base 127150
+ _ZN10PluginTest8RegisterI23NPRuntimeRemovePropertyE6createEP4_NPPRKSs@Base 127150
+ _ZN10PluginTest8RegisterI27DocumentOpenInDestroyStreamE6createEP4_NPPRKSs@Base 127150
+ _ZN10PluginTest8RegisterI33GetUserAgentWithNullNPPFromNPPNewE6createEP4_NPPRKSs@Base 127150
+ _ZN10PluginTest8RegisterI34GetURLNotifyWithURLThatFailsToLoadE6createEP4_NPPRKSs@Base 127150
+ _ZN10PluginTest8RegisterI34NPDeallocateCalledBeforeNPShutdownE6createEP4_NPPRKSs@Base 127150
+ _ZN10PluginTest8RegisterI34NPRuntimeObjectFromDestroyedPluginE6createEP4_NPPRKSs@Base 127150
+ _ZN10PluginTest8RegisterI35NPPSetWindowCalledDuringDestructionE6createEP4_NPPRKSs@Base 127150
+ _ZN10PluginTest8RegisterI36EvaluateJSAfterRemovingPluginElementE6createEP4_NPPRKSs@Base 127150
+ _ZN10PluginTest8RegisterI37CallInvalidateRectWithNullNPPArgumentE6createEP4_NPPRKSs@Base 127150
+ _ZN10PluginTest8RegisterI37PluginScriptableNPObjectInvokeDefaultE6createEP4_NPPRKSs@Base 127150
+ _ZN10PluginTest8RegisterI39GetURLWithJavaScriptURLDestroyingPluginE6createEP4_NPPRKSs@Base 127150
+ _ZN10PluginTest8RegisterI9FormValueE6createEP4_NPPRKSs@Base 127150
+ _ZN10PluginTest9NPP_WriteEP9_NPStreamiiPv@Base 127150
+ _ZN10PluginTestC1EP4_NPPRKSs@Base 127150
+ _ZN10PluginTestC2EP4_NPPRKSs@Base 127150
+ _ZN10PluginTestD0Ev@Base 127150
+ _ZN10PluginTestD1Ev@Base 127150
+ _ZN10PluginTestD2Ev@Base 127150
+ _ZN15PrivateBrowsing12NPP_GetValueE11NPPVariablePv@Base 127150
+ _ZN15PrivateBrowsing12NPP_SetValueE11NPNVariablePv@Base 127150
+ _ZN15PrivateBrowsing16ScriptableObjectD0Ev@Base 127150
+ _ZN15PrivateBrowsing16ScriptableObjectD1Ev@Base 127150
+ _ZN15PrivateBrowsing16ScriptableObjectD2Ev@Base 127150
+ _ZN15PrivateBrowsing7NPP_NewEPctsPS0_S1_P12_NPSavedData@Base 127150
+ _ZN15PrivateBrowsingD0Ev@Base 127150
+ _ZN15PrivateBrowsingD1Ev@Base 127150
+ _ZN15PrivateBrowsingD2Ev@Base 127150
+ _ZN22NullNPPGetValuePointer11NPP_DestroyEPP12_NPSavedData@Base 127150
+ _ZN22NullNPPGetValuePointer12NPP_GetValueE11NPPVariablePv@Base 127150
+ _ZN22NullNPPGetValuePointerC1EP4_NPPRKSs@Base 127150
+ _ZN22NullNPPGetValuePointerC2EP4_NPPRKSs@Base 127150
+ _ZN22NullNPPGetValuePointerD0Ev@Base 127150
+ _ZN22NullNPPGetValuePointerD1Ev@Base 127150
+ _ZN22NullNPPGetValuePointerD2Ev@Base 127150
+ _ZN22PassDifferentNPPStruct13NPP_SetWindowEP9_NPWindow@Base 127150
+ _ZN22PassDifferentNPPStructD0Ev@Base 127150
+ _ZN22PassDifferentNPPStructD1Ev@Base 127150
+ _ZN22PassDifferentNPPStructD2Ev@Base 127150
+ _ZN23GetURLWithJavaScriptURL13NPP_NewStreamEPcP9_NPStreamhPt@Base 127150
+ _ZN23GetURLWithJavaScriptURL14NPP_WriteReadyEP9_NPStream@Base 127150
+ _ZN23GetURLWithJavaScriptURL17NPP_DestroyStreamEP9_NPStreams@Base 127150
+ _ZN23GetURLWithJavaScriptURL7NPP_NewEPctsPS0_S1_P12_NPSavedData@Base 127150
+ _ZN23GetURLWithJavaScriptURL9NPP_WriteEP9_NPStreamiiPv@Base 127150
+ _ZN23GetURLWithJavaScriptURLD0Ev@Base 127150
+ _ZN23GetURLWithJavaScriptURLD1Ev@Base 127150
+ _ZN23GetURLWithJavaScriptURLD2Ev@Base 127150
+ _ZN23NPRuntimeRemoveProperty10TestObjectD0Ev@Base 127150
+ _ZN23NPRuntimeRemoveProperty10TestObjectD1Ev@Base 127150
+ _ZN23NPRuntimeRemoveProperty10TestObjectD2Ev@Base 127150
+ _ZN23NPRuntimeRemoveProperty12NPP_GetValueE11NPPVariablePv@Base 127150
+ _ZN23NPRuntimeRemoveProperty12PluginObjectD0Ev@Base 127150
+ _ZN23NPRuntimeRemoveProperty12PluginObjectD1Ev@Base 127150
+ _ZN23NPRuntimeRemoveProperty12PluginObjectD2Ev@Base 127150
+ _ZN23NPRuntimeRemovePropertyD0Ev@Base 127150
+ _ZN23NPRuntimeRemovePropertyD1Ev@Base 127150
+ _ZN23NPRuntimeRemovePropertyD2Ev@Base 127150
+ _ZN27DocumentOpenInDestroyStream17NPP_DestroyStreamEP9_NPStreams@Base 127150
+ _ZN27DocumentOpenInDestroyStreamD0Ev@Base 127150
+ _ZN27DocumentOpenInDestroyStreamD1Ev@Base 127150
+ _ZN27DocumentOpenInDestroyStreamD2Ev@Base 127150
+ _ZN33GetUserAgentWithNullNPPFromNPPNew7NPP_NewEPctsPS0_S1_P12_NPSavedData@Base 127150
+ _ZN33GetUserAgentWithNullNPPFromNPPNewD0Ev@Base 127150
+ _ZN33GetUserAgentWithNullNPPFromNPPNewD1Ev@Base 127150
+ _ZN33GetUserAgentWithNullNPPFromNPPNewD2Ev@Base 127150
+ _ZN34GetURLNotifyWithURLThatFailsToLoad13NPP_URLNotifyEPKcsPv@Base 127150
+ _ZN34GetURLNotifyWithURLThatFailsToLoad7NPP_NewEPctsPS0_S1_P12_NPSavedData@Base 127150
+ _ZN34GetURLNotifyWithURLThatFailsToLoadD0Ev@Base 127150
+ _ZN34GetURLNotifyWithURLThatFailsToLoadD1Ev@Base 127150
+ _ZN34GetURLNotifyWithURLThatFailsToLoadD2Ev@Base 127150
+ _ZN34NPDeallocateCalledBeforeNPShutdown10TestObjectD0Ev@Base 127150
+ _ZN34NPDeallocateCalledBeforeNPShutdown10TestObjectD1Ev@Base 127150
+ _ZN34NPDeallocateCalledBeforeNPShutdown10TestObjectD2Ev@Base 127150
+ _ZN34NPDeallocateCalledBeforeNPShutdown12NPP_GetValueE11NPPVariablePv@Base 127150
+ _ZN34NPDeallocateCalledBeforeNPShutdown16ScriptableObjectD0Ev@Base 127150
+ _ZN34NPDeallocateCalledBeforeNPShutdown16ScriptableObjectD1Ev@Base 127150
+ _ZN34NPDeallocateCalledBeforeNPShutdown16ScriptableObjectD2Ev@Base 127150
+ _ZN34NPDeallocateCalledBeforeNPShutdown7NPP_NewEPctsPS0_S1_P12_NPSavedData@Base 127150
+ _ZN34NPDeallocateCalledBeforeNPShutdown8shutdownEv@Base 127150
+ _ZN34NPDeallocateCalledBeforeNPShutdownD0Ev@Base 127150
+ _ZN34NPDeallocateCalledBeforeNPShutdownD1Ev@Base 127150
+ _ZN34NPDeallocateCalledBeforeNPShutdownD2Ev@Base 127150
+ _ZN34NPRuntimeObjectFromDestroyedPlugin10TestObjectD0Ev@Base 127150
+ _ZN34NPRuntimeObjectFromDestroyedPlugin10TestObjectD1Ev@Base 127150
+ _ZN34NPRuntimeObjectFromDestroyedPlugin10TestObjectD2Ev@Base 127150
+ _ZN34NPRuntimeObjectFromDestroyedPlugin12NPP_GetValueE11NPPVariablePv@Base 127150
+ _ZN34NPRuntimeObjectFromDestroyedPlugin16ScriptableObjectD0Ev@Base 127150
+ _ZN34NPRuntimeObjectFromDestroyedPlugin16ScriptableObjectD1Ev@Base 127150
+ _ZN34NPRuntimeObjectFromDestroyedPlugin16ScriptableObjectD2Ev@Base 127150
+ _ZN34NPRuntimeObjectFromDestroyedPluginD0Ev@Base 127150
+ _ZN34NPRuntimeObjectFromDestroyedPluginD1Ev@Base 127150
+ _ZN34NPRuntimeObjectFromDestroyedPluginD2Ev@Base 127150
+ _ZN35NPPSetWindowCalledDuringDestruction11NPP_DestroyEPP12_NPSavedData@Base 127150
+ _ZN35NPPSetWindowCalledDuringDestruction12NPP_GetValueE11NPPVariablePv@Base 127150
+ _ZN35NPPSetWindowCalledDuringDestruction12ScriptObject6invokeEPvPK10_NPVariantjPS2_@Base 127150
+ _ZN35NPPSetWindowCalledDuringDestruction12ScriptObject9hasMethodEPv@Base 127150
+ _ZN35NPPSetWindowCalledDuringDestruction12ScriptObjectD0Ev@Base 127150
+ _ZN35NPPSetWindowCalledDuringDestruction12ScriptObjectD1Ev@Base 127150
+ _ZN35NPPSetWindowCalledDuringDestruction12ScriptObjectD2Ev@Base 127150
+ _ZN35NPPSetWindowCalledDuringDestruction13NPP_SetWindowEP9_NPWindow@Base 127150
+ _ZN35NPPSetWindowCalledDuringDestructionC1EP4_NPPRKSs@Base 127150
+ _ZN35NPPSetWindowCalledDuringDestructionC2EP4_NPPRKSs@Base 127150
+ _ZN35NPPSetWindowCalledDuringDestructionD0Ev@Base 127150
+ _ZN35NPPSetWindowCalledDuringDestructionD1Ev@Base 127150
+ _ZN35NPPSetWindowCalledDuringDestructionD2Ev@Base 127150
+ _ZN36EvaluateJSAfterRemovingPluginElement17NPP_DestroyStreamEP9_NPStreams@Base 127150
+ _ZN36EvaluateJSAfterRemovingPluginElementC1EP4_NPPRKSs@Base 127150
+ _ZN36EvaluateJSAfterRemovingPluginElementC2EP4_NPPRKSs@Base 127150
+ _ZN36EvaluateJSAfterRemovingPluginElementD0Ev@Base 127150
+ _ZN36EvaluateJSAfterRemovingPluginElementD1Ev@Base 127150
+ _ZN36EvaluateJSAfterRemovingPluginElementD2Ev@Base 127150
+ _ZN37CallInvalidateRectWithNullNPPArgument7NPP_NewEPctsPS0_S1_P12_NPSavedData@Base 127150
+ _ZN37CallInvalidateRectWithNullNPPArgumentD0Ev@Base 127150
+ _ZN37CallInvalidateRectWithNullNPPArgumentD1Ev@Base 127150
+ _ZN37CallInvalidateRectWithNullNPPArgumentD2Ev@Base 127150
+ _ZN37PluginScriptableNPObjectInvokeDefault12NPP_GetValueE11NPPVariablePv@Base 127150
+ _ZN37PluginScriptableNPObjectInvokeDefault25NPObjectWithInvokeDefaultD0Ev@Base 127150
+ _ZN37PluginScriptableNPObjectInvokeDefault25NPObjectWithInvokeDefaultD1Ev@Base 127150
+ _ZN37PluginScriptableNPObjectInvokeDefault25NPObjectWithInvokeDefaultD2Ev@Base 127150
+ _ZN37PluginScriptableNPObjectInvokeDefault28NPObjectWithoutInvokeDefaultD0Ev@Base 127150
+ _ZN37PluginScriptableNPObjectInvokeDefault28NPObjectWithoutInvokeDefaultD1Ev@Base 127150
+ _ZN37PluginScriptableNPObjectInvokeDefault28NPObjectWithoutInvokeDefaultD2Ev@Base 127150
+ _ZN37PluginScriptableNPObjectInvokeDefaultD0Ev@Base 127150
+ _ZN37PluginScriptableNPObjectInvokeDefaultD1Ev@Base 127150
+ _ZN37PluginScriptableNPObjectInvokeDefaultD2Ev@Base 127150
+ _ZN39GetURLWithJavaScriptURLDestroyingPlugin7NPP_NewEPctsPS0_S1_P12_NPSavedData@Base 127150
+ _ZN39GetURLWithJavaScriptURLDestroyingPluginD0Ev@Base 127150
+ _ZN39GetURLWithJavaScriptURLDestroyingPluginD1Ev@Base 127150
+ _ZN39GetURLWithJavaScriptURLDestroyingPluginD2Ev@Base 127150
+ _ZN9FormValue12NPP_GetValueE11NPPVariablePv@Base 127150
+ _ZN9FormValueD0Ev@Base 127150
+ _ZN9FormValueD1Ev@Base 127150
+ _ZN9FormValueD2Ev@Base 127150
+ _ZNSt3mapISsPFP10PluginTestP4_NPPRKSsESt4lessISsESaISt4pairIS4_S7_EEED1Ev@Base 127150
+ _ZNSt3mapISsPFP10PluginTestP4_NPPRKSsESt4lessISsESaISt4pairIS4_S7_EEED2Ev@Base 127150
+ _ZNSt6vectorIcSaIcEE13_M_insert_auxEN9__gnu_cxx17__normal_iteratorIPcS1_EERKc@Base 127150
+ _ZNSt6vectorIcSaIcEE15_M_range_insertIPcEEvN9__gnu_cxx17__normal_iteratorIS3_S1_EET_S7_St20forward_iterator_tag@Base 127150
+ _ZNSt8_Rb_treeISsSt4pairIKSsPFP10PluginTestP4_NPPRS1_EESt10_Select1stIS9_ESt4lessISsESaIS9_EE10_M_insert_EPKSt18_Rb_tree_node_baseSI_RKS9_@Base 127150
+ _ZNSt8_Rb_treeISsSt4pairIKSsPFP10PluginTestP4_NPPRS1_EESt10_Select1stIS9_ESt4lessISsESaIS9_EE16_M_insert_uniqueERKS9_@Base 127150
+ _ZNSt8_Rb_treeISsSt4pairIKSsPFP10PluginTestP4_NPPRS1_EESt10_Select1stIS9_ESt4lessISsESaIS9_EE17_M_insert_unique_ESt23_Rb_tree_const_iteratorIS9_ERKS9_@Base 127150
+ _ZNSt8_Rb_treeISsSt4pairIKSsPFP10PluginTestP4_NPPRS1_EESt10_Select1stIS9_ESt4lessISsESaIS9_EE8_M_eraseEPSt13_Rb_tree_nodeIS9_E@Base 127150
+ _ZTI10PluginTest@Base 127150
+ _ZTI15PrivateBrowsing@Base 127150
+ _ZTI22NullNPPGetValuePointer@Base 127150
+ _ZTI22PassDifferentNPPStruct@Base 127150
+ _ZTI23GetURLWithJavaScriptURL@Base 127150
+ _ZTI23NPRuntimeRemoveProperty@Base 127150
+ _ZTI27DocumentOpenInDestroyStream@Base 127150
+ _ZTI33GetUserAgentWithNullNPPFromNPPNew@Base 127150
+ _ZTI34GetURLNotifyWithURLThatFailsToLoad@Base 127150
+ _ZTI34NPDeallocateCalledBeforeNPShutdown@Base 127150
+ _ZTI34NPRuntimeObjectFromDestroyedPlugin@Base 127150
+ _ZTI35NPPSetWindowCalledDuringDestruction@Base 127150
+ _ZTI36EvaluateJSAfterRemovingPluginElement@Base 127150
+ _ZTI37CallInvalidateRectWithNullNPPArgument@Base 127150
+ _ZTI37PluginScriptableNPObjectInvokeDefault@Base 127150
+ _ZTI39GetURLWithJavaScriptURLDestroyingPlugin@Base 127150
+ _ZTI8NPObject@Base 127150
+ _ZTI9FormValue@Base 127150
+ _ZTIN10PluginTest6ObjectIN15PrivateBrowsing16ScriptableObjectEEE@Base 127150
+ _ZTIN10PluginTest6ObjectIN23NPRuntimeRemoveProperty10TestObjectEEE@Base 127150
+ _ZTIN10PluginTest6ObjectIN23NPRuntimeRemoveProperty12PluginObjectEEE@Base 127150
+ _ZTIN10PluginTest6ObjectIN34NPDeallocateCalledBeforeNPShutdown10TestObjectEEE@Base 127150
+ _ZTIN10PluginTest6ObjectIN34NPDeallocateCalledBeforeNPShutdown16ScriptableObjectEEE@Base 127150
+ _ZTIN10PluginTest6ObjectIN34NPRuntimeObjectFromDestroyedPlugin10TestObjectEEE@Base 127150
+ _ZTIN10PluginTest6ObjectIN34NPRuntimeObjectFromDestroyedPlugin16ScriptableObjectEEE@Base 127150
+ _ZTIN10PluginTest6ObjectIN35NPPSetWindowCalledDuringDestruction12ScriptObjectEEE@Base 127150
+ _ZTIN10PluginTest6ObjectIN37PluginScriptableNPObjectInvokeDefault25NPObjectWithInvokeDefaultEEE@Base 127150
+ _ZTIN10PluginTest6ObjectIN37PluginScriptableNPObjectInvokeDefault28NPObjectWithoutInvokeDefaultEEE@Base 127150
+ _ZTIN15PrivateBrowsing16ScriptableObjectE@Base 127150
+ _ZTIN23NPRuntimeRemoveProperty10TestObjectE@Base 127150
+ _ZTIN23NPRuntimeRemoveProperty12PluginObjectE@Base 127150
+ _ZTIN34NPDeallocateCalledBeforeNPShutdown10TestObjectE@Base 127150
+ _ZTIN34NPDeallocateCalledBeforeNPShutdown16ScriptableObjectE@Base 127150
+ _ZTIN34NPRuntimeObjectFromDestroyedPlugin10TestObjectE@Base 127150
+ _ZTIN34NPRuntimeObjectFromDestroyedPlugin16ScriptableObjectE@Base 127150
+ _ZTIN35NPPSetWindowCalledDuringDestruction12ScriptObjectE@Base 127150
+ _ZTIN37PluginScriptableNPObjectInvokeDefault25NPObjectWithInvokeDefaultE@Base 127150
+ _ZTIN37PluginScriptableNPObjectInvokeDefault28NPObjectWithoutInvokeDefaultE@Base 127150
+ _ZTS10PluginTest@Base 127150
+ _ZTS15PrivateBrowsing@Base 127150
+ _ZTS22NullNPPGetValuePointer@Base 127150
+ _ZTS22PassDifferentNPPStruct@Base 127150
+ _ZTS23GetURLWithJavaScriptURL@Base 127150
+ _ZTS23NPRuntimeRemoveProperty@Base 127150
+ _ZTS27DocumentOpenInDestroyStream@Base 127150
+ _ZTS33GetUserAgentWithNullNPPFromNPPNew@Base 127150
+ _ZTS34GetURLNotifyWithURLThatFailsToLoad@Base 127150
+ _ZTS34NPDeallocateCalledBeforeNPShutdown@Base 127150
+ _ZTS34NPRuntimeObjectFromDestroyedPlugin@Base 127150
+ _ZTS35NPPSetWindowCalledDuringDestruction@Base 127150
+ _ZTS36EvaluateJSAfterRemovingPluginElement@Base 127150
+ _ZTS37CallInvalidateRectWithNullNPPArgument@Base 127150
+ _ZTS37PluginScriptableNPObjectInvokeDefault@Base 127150
+ _ZTS39GetURLWithJavaScriptURLDestroyingPlugin@Base 127150
+ _ZTS8NPObject@Base 127150
+ _ZTS9FormValue@Base 127150
+ _ZTSN10PluginTest6ObjectIN15PrivateBrowsing16ScriptableObjectEEE@Base 127150
+ _ZTSN10PluginTest6ObjectIN23NPRuntimeRemoveProperty10TestObjectEEE@Base 127150
+ _ZTSN10PluginTest6ObjectIN23NPRuntimeRemoveProperty12PluginObjectEEE@Base 127150
+ _ZTSN10PluginTest6ObjectIN34NPDeallocateCalledBeforeNPShutdown10TestObjectEEE@Base 127150
+ _ZTSN10PluginTest6ObjectIN34NPDeallocateCalledBeforeNPShutdown16ScriptableObjectEEE@Base 127150
+ _ZTSN10PluginTest6ObjectIN34NPRuntimeObjectFromDestroyedPlugin10TestObjectEEE@Base 127150
+ _ZTSN10PluginTest6ObjectIN34NPRuntimeObjectFromDestroyedPlugin16ScriptableObjectEEE@Base 127150
+ _ZTSN10PluginTest6ObjectIN35NPPSetWindowCalledDuringDestruction12ScriptObjectEEE@Base 127150
+ _ZTSN10PluginTest6ObjectIN37PluginScriptableNPObjectInvokeDefault25NPObjectWithInvokeDefaultEEE@Base 127150
+ _ZTSN10PluginTest6ObjectIN37PluginScriptableNPObjectInvokeDefault28NPObjectWithoutInvokeDefaultEEE@Base 127150
+ _ZTSN15PrivateBrowsing16ScriptableObjectE@Base 127150
+ _ZTSN23NPRuntimeRemoveProperty10TestObjectE@Base 127150
+ _ZTSN23NPRuntimeRemoveProperty12PluginObjectE@Base 127150
+ _ZTSN34NPDeallocateCalledBeforeNPShutdown10TestObjectE@Base 127150
+ _ZTSN34NPDeallocateCalledBeforeNPShutdown16ScriptableObjectE@Base 127150
+ _ZTSN34NPRuntimeObjectFromDestroyedPlugin10TestObjectE@Base 127150
+ _ZTSN34NPRuntimeObjectFromDestroyedPlugin16ScriptableObjectE@Base 127150
+ _ZTSN35NPPSetWindowCalledDuringDestruction12ScriptObjectE@Base 127150
+ _ZTSN37PluginScriptableNPObjectInvokeDefault25NPObjectWithInvokeDefaultE@Base 127150
+ _ZTSN37PluginScriptableNPObjectInvokeDefault28NPObjectWithoutInvokeDefaultE@Base 127150
+ _ZTV10PluginTest@Base 127150
+ _ZTV15PrivateBrowsing@Base 127150
+ _ZTV22NullNPPGetValuePointer@Base 127150
+ _ZTV22PassDifferentNPPStruct@Base 127150
+ _ZTV23GetURLWithJavaScriptURL@Base 127150
+ _ZTV23NPRuntimeRemoveProperty@Base 127150
+ _ZTV27DocumentOpenInDestroyStream@Base 127150
+ _ZTV33GetUserAgentWithNullNPPFromNPPNew@Base 127150
+ _ZTV34GetURLNotifyWithURLThatFailsToLoad@Base 127150
+ _ZTV34NPDeallocateCalledBeforeNPShutdown@Base 127150
+ _ZTV34NPRuntimeObjectFromDestroyedPlugin@Base 127150
+ _ZTV35NPPSetWindowCalledDuringDestruction@Base 127150
+ _ZTV36EvaluateJSAfterRemovingPluginElement@Base 127150
+ _ZTV37CallInvalidateRectWithNullNPPArgument@Base 127150
+ _ZTV37PluginScriptableNPObjectInvokeDefault@Base 127150
+ _ZTV39GetURLWithJavaScriptURLDestroyingPlugin@Base 127150
+ _ZTV9FormValue@Base 127150
+ _ZTVN10PluginTest6ObjectIN15PrivateBrowsing16ScriptableObjectEEE@Base 127150
+ _ZTVN10PluginTest6ObjectIN23NPRuntimeRemoveProperty10TestObjectEEE@Base 127150
+ _ZTVN10PluginTest6ObjectIN23NPRuntimeRemoveProperty12PluginObjectEEE@Base 127150
+ _ZTVN10PluginTest6ObjectIN34NPDeallocateCalledBeforeNPShutdown10TestObjectEEE@Base 127150
+ _ZTVN10PluginTest6ObjectIN34NPDeallocateCalledBeforeNPShutdown16ScriptableObjectEEE@Base 127150
+ _ZTVN10PluginTest6ObjectIN34NPRuntimeObjectFromDestroyedPlugin10TestObjectEEE@Base 127150
+ _ZTVN10PluginTest6ObjectIN34NPRuntimeObjectFromDestroyedPlugin16ScriptableObjectEEE@Base 127150
+ _ZTVN10PluginTest6ObjectIN35NPPSetWindowCalledDuringDestruction12ScriptObjectEEE@Base 127150
+ _ZTVN10PluginTest6ObjectIN37PluginScriptableNPObjectInvokeDefault25NPObjectWithInvokeDefaultEEE@Base 127150
+ _ZTVN10PluginTest6ObjectIN37PluginScriptableNPObjectInvokeDefault28NPObjectWithoutInvokeDefaultEEE@Base 127150
+ _ZTVN15PrivateBrowsing16ScriptableObjectE@Base 127150
+ _ZTVN23NPRuntimeRemoveProperty10TestObjectE@Base 127150
+ _ZTVN23NPRuntimeRemoveProperty12PluginObjectE@Base 127150
+ _ZTVN34NPDeallocateCalledBeforeNPShutdown10TestObjectE@Base 127150
+ _ZTVN34NPDeallocateCalledBeforeNPShutdown16ScriptableObjectE@Base 127150
+ _ZTVN34NPRuntimeObjectFromDestroyedPlugin10TestObjectE@Base 127150
+ _ZTVN34NPRuntimeObjectFromDestroyedPlugin16ScriptableObjectE@Base 127150
+ _ZTVN35NPPSetWindowCalledDuringDestruction12ScriptObjectE@Base 127150
+ _ZTVN37PluginScriptableNPObjectInvokeDefault25NPObjectWithInvokeDefaultE@Base 127150
+ _ZTVN37PluginScriptableNPObjectInvokeDefault28NPObjectWithoutInvokeDefaultE@Base 127150
+ _ZZN10PluginTest6ObjectIN15PrivateBrowsing16ScriptableObjectEE7npClassEvE7npClass@Base 127150
+ _ZZN10PluginTest6ObjectIN23NPRuntimeRemoveProperty10TestObjectEE7npClassEvE7npClass@Base 127150
+ _ZZN10PluginTest6ObjectIN23NPRuntimeRemoveProperty12PluginObjectEE7npClassEvE7npClass@Base 127150
+ _ZZN10PluginTest6ObjectIN34NPDeallocateCalledBeforeNPShutdown10TestObjectEE7npClassEvE7npClass@Base 127150
+ _ZZN10PluginTest6ObjectIN34NPDeallocateCalledBeforeNPShutdown16ScriptableObjectEE7npClassEvE7npClass@Base 127150
+ _ZZN10PluginTest6ObjectIN34NPRuntimeObjectFromDestroyedPlugin10TestObjectEE7npClassEvE7npClass@Base 127150
+ _ZZN10PluginTest6ObjectIN34NPRuntimeObjectFromDestroyedPlugin16ScriptableObjectEE7npClassEvE7npClass@Base 127150
+ _ZZN10PluginTest6ObjectIN35NPPSetWindowCalledDuringDestruction12ScriptObjectEE7npClassEvE7npClass@Base 127150
+ _ZZN10PluginTest6ObjectIN37PluginScriptableNPObjectInvokeDefault25NPObjectWithInvokeDefaultEE7npClassEvE7npClass@Base 127150
+ _ZZN10PluginTest6ObjectIN37PluginScriptableNPObjectInvokeDefault28NPObjectWithoutInvokeDefaultEE7npClassEvE7npClass@Base 127150
+ browser@Base 127150
+ javaScriptResult@Base 127150
+ javaScriptURL@Base 127150
+ pluginFunctions@Base 127150
+libewebkit.so.0 libewebkit1 #MINVER#
+ _ZN24DumpRenderTreeSupportEfl10findStringEPK12_Evas_ObjectRKN3WTF6StringEj@Base 127150
+ _ZN24DumpRenderTreeSupportEfl11clearOpenerEP12_Evas_Object@Base 127150
+ _ZN24DumpRenderTreeSupportEfl11frameParentEPK12_Evas_Object@Base 127150
+ _ZN24DumpRenderTreeSupportEfl11layoutFrameEP12_Evas_Object@Base 127150
+ _ZN24DumpRenderTreeSupportEfl12isTargetItemEPK17_Ewk_History_Item@Base 127150
+ _ZN24DumpRenderTreeSupportEfl12pagePropertyEPK12_Evas_ObjectPKci@Base 127150
+ _ZN24DumpRenderTreeSupportEfl13addUserScriptEPK12_Evas_ObjectRKN3WTF6StringEbb@Base 127150
+ _ZN24DumpRenderTreeSupportEfl13frameChildrenEPK12_Evas_Object@Base 127150
+ _ZN24DumpRenderTreeSupportEfl13numberOfPagesEPK12_Evas_Objectff@Base 127150
+ _ZN24DumpRenderTreeSupportEfl13selectedRangeEP12_Evas_ObjectPiS2_@Base 127150
+ _ZN24DumpRenderTreeSupportEfl13setAutofilledEPK15OpaqueJSContextPK13OpaqueJSValueb@Base 127150
+ _ZN24DumpRenderTreeSupportEfl14clearFrameNameEP12_Evas_Object@Base 127150
+ _ZN24DumpRenderTreeSupportEfl14hasCompositionEPK12_Evas_Object@Base 127150
+ _ZN24DumpRenderTreeSupportEfl14pauseAnimationEP12_Evas_ObjectPKcS3_d@Base 127150
+ _ZN24DumpRenderTreeSupportEfl14renderTreeDumpEP12_Evas_Object@Base 127150
+ _ZN24DumpRenderTreeSupportEfl14setCompositionEP12_Evas_ObjectPKcii@Base 127150
+ _ZN24DumpRenderTreeSupportEfl15pauseTransitionEP12_Evas_ObjectPKcS3_d@Base 127150
+ _ZN24DumpRenderTreeSupportEfl15setValueForUserEPK15OpaqueJSContextPK13OpaqueJSValueRKN3WTF6StringE@Base 127150
+ _ZN24DumpRenderTreeSupportEfl16clearUserScriptsEPK12_Evas_Object@Base 127150
+ _ZN24DumpRenderTreeSupportEfl16compositionRangeEP12_Evas_ObjectPiS2_@Base 127150
+ _ZN24DumpRenderTreeSupportEfl16deliverWebIntentEP12_Evas_ObjectP14OpaqueJSStringS3_S3_@Base 127150
+ _ZN24DumpRenderTreeSupportEfl16isCommandEnabledEPK12_Evas_ObjectPKc@Base 127150
+ _ZN24DumpRenderTreeSupportEfl16responseMimeTypeEPK12_Evas_Object@Base 127150
+ _ZN24DumpRenderTreeSupportEfl16setDefersLoadingEP12_Evas_Objectb@Base 127150
+ _ZN24DumpRenderTreeSupportEfl17addUserStyleSheetEPK12_Evas_ObjectRKN3WTF6StringEb@Base 127150
+ _ZN24DumpRenderTreeSupportEfl17childHistoryItemsEPK17_Ewk_History_Item@Base 127150
+ _ZN24DumpRenderTreeSupportEfl17historyItemTargetEPK17_Ewk_History_Item@Base 127150
+ _ZN24DumpRenderTreeSupportEfl17workerThreadCountEv@Base 127150
+ _ZN24DumpRenderTreeSupportEfl18confirmCompositionEP12_Evas_ObjectPKc@Base 127150
+ _ZN24DumpRenderTreeSupportEfl18intentMessagePortsEPK11_Ewk_Intent@Base 127150
+ _ZN24DumpRenderTreeSupportEfl18selectionRectangleEPK12_Evas_Object@Base 127150
+ _ZN24DumpRenderTreeSupportEfl20clearUserStyleSheetsEPK12_Evas_Object@Base 127150
+ _ZN24DumpRenderTreeSupportEfl20suitableDRTFrameNameEPK12_Evas_Object@Base 127150
+ _ZN24DumpRenderTreeSupportEfl21activeAnimationsCountEPK12_Evas_Object@Base 127150
+ _ZN24DumpRenderTreeSupportEfl21markerTextForListItemEPK15OpaqueJSContextPK13OpaqueJSValue@Base 127150
+ _ZN24DumpRenderTreeSupportEfl21sendWebIntentResponseEP19_Ewk_Intent_RequestP14OpaqueJSString@Base 127150
+ _ZN24DumpRenderTreeSupportEfl21setSerializeHTTPLoadsEb@Base 127150
+ _ZN24DumpRenderTreeSupportEfl22evaluateInWebInspectorEPK12_Evas_ObjectlRKN3WTF6StringE@Base 127150
+ _ZN24DumpRenderTreeSupportEfl22javaScriptObjectsCountEv@Base 127150
+ _ZN24DumpRenderTreeSupportEfl23garbageCollectorCollectEv@Base 127150
+ _ZN24DumpRenderTreeSupportEfl23pendingUnloadEventCountEPK12_Evas_Object@Base 127150
+ _ZN24DumpRenderTreeSupportEfl23setCSSGridLayoutEnabledEPK12_Evas_Objectb@Base 127150
+ _ZN24DumpRenderTreeSupportEfl24callShouldCloseOnWebViewEP12_Evas_Object@Base 127150
+ _ZN24DumpRenderTreeSupportEfl24executeCoreCommandByNameEPK12_Evas_ObjectPKcS4_@Base 127150
+ _ZN24DumpRenderTreeSupportEfl24globalContextRefForFrameEPK12_Evas_Object@Base 127150
+ _ZN24DumpRenderTreeSupportEfl24setMockScrollbarsEnabledEb@Base 127150
+ _ZN24DumpRenderTreeSupportEfl26firstRectForCharacterRangeEP12_Evas_Objectii@Base 127150
+ _ZN24DumpRenderTreeSupportEfl26pageSizeAndMarginsInPixelsEPK12_Evas_Objectiiiiiii@Base 127150
+ _ZN24DumpRenderTreeSupportEfl27setSmartInsertDeleteEnabledEP12_Evas_Objectb@Base 127150
+ _ZN24DumpRenderTreeSupportEfl29evaluateScriptInIsolatedWorldEPK12_Evas_ObjectiP13OpaqueJSValueRKN3WTF6StringE@Base 127150
+ _ZN24DumpRenderTreeSupportEfl29setAuthorAndUserStylesEnabledEP12_Evas_Objectb@Base 127150
+ _ZN24DumpRenderTreeSupportEfl30deliverAllMutationsIfNecessaryEv@Base 127150
+ _ZN24DumpRenderTreeSupportEfl33computedStyleIncludingVisitedInfoEPK15OpaqueJSContextPK13OpaqueJSValue@Base 127150
+ _ZN24DumpRenderTreeSupportEfl34setDeadDecodedDataDeletionIntervalEd@Base 127150
+ _ZN24DumpRenderTreeSupportEfl34setSelectTrailingWhitespaceEnabledEP12_Evas_Objectb@Base 127150
+ _ZN24DumpRenderTreeSupportEfl35setInteractiveFormValidationEnabledEP12_Evas_Objectb@Base 127150
+ _ZN24DumpRenderTreeSupportEfl38setValidationMessageTimerMagnificationEP12_Evas_Objecti@Base 127150
+ _ZN24DumpRenderTreeSupportEfl39elementDoesAutoCompleteForElementWithIdEPK12_Evas_ObjectRKN3WTF6StringE@Base 127150
+ _ZN24DumpRenderTreeSupportEfl40garbageCollectorCollectOnAlternateThreadEb@Base 127150
+ _ZN24DumpRenderTreeSupportEfl40setDomainRelaxationForbiddenForURLSchemeEbRKN3WTF6StringE@Base 127150
+ _ZN24DumpRenderTreeSupportEfl44setLoadsSiteIconsIgnoringImageLoadingSettingEP12_Evas_Objectb@Base 127150
+ _ZdlPv@Base 127150
+ ewk_auth_credentials_set@Base 127150
+ ewk_auth_show_dialog_callback_set@Base 127150
+ ewk_context_menu_destroy@Base 127150
+ ewk_context_menu_item_action_get@Base 127150
+ ewk_context_menu_item_action_set@Base 127150
+ ewk_context_menu_item_checked_get@Base 127150
+ ewk_context_menu_item_checked_set@Base 127150
+ ewk_context_menu_item_enabled_get@Base 127150
+ ewk_context_menu_item_enabled_set@Base 127150
+ ewk_context_menu_item_free@Base 127150
+ ewk_context_menu_item_list_get@Base 127150
+ ewk_context_menu_item_new@Base 127150
+ ewk_context_menu_item_select@Base 127150
+ ewk_context_menu_item_title_get@Base 127150
+ ewk_context_menu_item_title_set@Base 127150
+ ewk_context_menu_item_type_get@Base 127150
+ ewk_context_menu_item_type_set@Base 127150
+ ewk_context_menu_ref@Base 127150
+ ewk_context_menu_unref@Base 127150
+ ewk_cookies_clear@Base 127150
+ ewk_cookies_cookie_del@Base 127150
+ ewk_cookies_cookie_free@Base 127150
+ ewk_cookies_file_set@Base 127150
+ ewk_cookies_get_all@Base 127150
+ ewk_cookies_policy_get@Base 127150
+ ewk_cookies_policy_set@Base 127150
+ ewk_file_chooser_accept_file_extentions_get@Base 127150
+ ewk_file_chooser_accept_mimetypes_get@Base 127150
+ ewk_file_chooser_allows_directory_upload_get@Base 127150
+ ewk_file_chooser_allows_multiple_files_get@Base 127150
+ ewk_file_chooser_capture_get@Base 127150
+ ewk_file_chooser_selected_files_get@Base 127150
+ ewk_frame_back@Base 127150
+ ewk_frame_back_possible@Base 127150
+ ewk_frame_certificate_status_get@Base 127150
+ ewk_frame_child_find@Base 127150
+ ewk_frame_children_iterator_new@Base 127150
+ ewk_frame_contents_alternate_set@Base 127150
+ ewk_frame_contents_set@Base 127150
+ ewk_frame_contents_size_get@Base 127150
+ ewk_frame_editable_get@Base 127150
+ ewk_frame_editable_set@Base 127150
+ ewk_frame_feed_focus_in@Base 127150
+ ewk_frame_feed_focus_out@Base 127150
+ ewk_frame_feed_key_down@Base 127150
+ ewk_frame_feed_key_up@Base 127150
+ ewk_frame_feed_mouse_down@Base 127150
+ ewk_frame_feed_mouse_move@Base 127150
+ ewk_frame_feed_mouse_up@Base 127150
+ ewk_frame_feed_mouse_wheel@Base 127150
+ ewk_frame_feed_touch_event@Base 127150
+ ewk_frame_focused_element_geometry_get@Base 127150
+ ewk_frame_forward@Base 127150
+ ewk_frame_forward_possible@Base 127150
+ ewk_frame_hit_test_free@Base 127150
+ ewk_frame_hit_test_new@Base 127150
+ ewk_frame_intent_deliver@Base 127150
+ ewk_frame_mixed_content_displayed_get@Base 127150
+ ewk_frame_mixed_content_run_get@Base 127150
+ ewk_frame_name_get@Base 127150
+ ewk_frame_navigate@Base 127150
+ ewk_frame_navigate_possible@Base 127150
+ ewk_frame_page_zoom_get@Base 127150
+ ewk_frame_page_zoom_set@Base 127150
+ ewk_frame_paint_full_get@Base 127150
+ ewk_frame_paint_full_set@Base 127150
+ ewk_frame_plain_text_get@Base 127150
+ ewk_frame_reload@Base 127150
+ ewk_frame_reload_full@Base 127150
+ ewk_frame_resources_location_get@Base 127150
+ ewk_frame_script_execute@Base 127150
+ ewk_frame_scroll_add@Base 127150
+ ewk_frame_scroll_pos_get@Base 127150
+ ewk_frame_scroll_set@Base 127150
+ ewk_frame_scroll_size_get@Base 127150
+ ewk_frame_security_origin_get@Base 127150
+ ewk_frame_selection_get@Base 127150
+ ewk_frame_source_get@Base 127150
+ ewk_frame_stop@Base 127150
+ ewk_frame_text_matches_highlight_get@Base 127150
+ ewk_frame_text_matches_highlight_set@Base 127150
+ ewk_frame_text_matches_mark@Base 127150
+ ewk_frame_text_matches_nth_pos_get@Base 127150
+ ewk_frame_text_matches_unmark_all@Base 127150
+ ewk_frame_text_search@Base 127150
+ ewk_frame_text_selection_type_get@Base 127150
+ ewk_frame_text_zoom_get@Base 127150
+ ewk_frame_text_zoom_set@Base 127150
+ ewk_frame_title_get@Base 127150
+ ewk_frame_uri_get@Base 127150
+ ewk_frame_uri_set@Base 127150
+ ewk_frame_view_get@Base 127150
+ ewk_frame_visible_content_geometry_get@Base 127150
+ ewk_history_back@Base 127150
+ ewk_history_back_list_get@Base 127150
+ ewk_history_back_list_get_with_limit@Base 127150
+ ewk_history_back_list_length@Base 127150
+ ewk_history_clear@Base 127150
+ ewk_history_forward@Base 127150
+ ewk_history_forward_list_get@Base 127150
+ ewk_history_forward_list_get_with_limit@Base 127150
+ ewk_history_forward_list_length@Base 127150
+ ewk_history_history_item_add@Base 127150
+ ewk_history_history_item_back_get@Base 127150
+ ewk_history_history_item_contains@Base 127150
+ ewk_history_history_item_current_get@Base 127150
+ ewk_history_history_item_forward_get@Base 127150
+ ewk_history_history_item_nth_get@Base 127150
+ ewk_history_history_item_set@Base 127150
+ ewk_history_item_free@Base 127150
+ ewk_history_item_icon_object_add@Base 127150
+ ewk_history_item_icon_surface_get@Base 127150
+ ewk_history_item_list_free@Base 127150
+ ewk_history_item_new@Base 127150
+ ewk_history_item_page_cache_exists@Base 127150
+ ewk_history_item_time_last_visited_get@Base 127150
+ ewk_history_item_title_alternate_get@Base 127150
+ ewk_history_item_title_alternate_set@Base 127150
+ ewk_history_item_title_get@Base 127150
+ ewk_history_item_uri_get@Base 127150
+ ewk_history_item_uri_original_get@Base 127150
+ ewk_history_item_visit_count@Base 127150
+ ewk_history_item_visit_last_failed@Base 127150
+ ewk_history_limit_get@Base 127150
+ ewk_history_limit_set@Base 127150
+ ewk_init@Base 127150
+ ewk_intent_action_get@Base 127150
+ ewk_intent_extra_get@Base 127150
+ ewk_intent_extra_names_get@Base 127150
+ ewk_intent_request_intent_get@Base 127150
+ ewk_intent_request_ref@Base 127150
+ ewk_intent_request_unref@Base 127150
+ ewk_intent_service_get@Base 127150
+ ewk_intent_suggestions_get@Base 127150
+ ewk_intent_type_get@Base 127150
+ ewk_js_object_free@Base 127150
+ ewk_js_object_invoke@Base 127150
+ ewk_js_object_name_get@Base 127150
+ ewk_js_object_new@Base 127150
+ ewk_js_object_properties_get@Base 127150
+ ewk_js_object_type_get@Base 127150
+ ewk_js_object_type_set@Base 127150
+ ewk_js_object_view_get@Base 127150
+ ewk_js_variant_array_free@Base 127150
+ ewk_js_variant_free@Base 127150
+ ewk_network_default_soup_session_get@Base 127150
+ ewk_network_proxy_uri_get@Base 127150
+ ewk_network_proxy_uri_set@Base 127150
+ ewk_network_state_notifier_online_set@Base 127150
+ ewk_network_tls_ca_certificates_path_get@Base 127150
+ ewk_network_tls_ca_certificates_path_set@Base 127150
+ ewk_network_tls_certificate_check_get@Base 127150
+ ewk_network_tls_certificate_check_set@Base 127150
+ ewk_security_origin_application_cache_clear@Base 127150
+ ewk_security_origin_application_cache_quota_set@Base 127150
+ ewk_security_origin_free@Base 127150
+ ewk_security_origin_host_get@Base 127150
+ ewk_security_origin_new_from_string@Base 127150
+ ewk_security_origin_port_get@Base 127150
+ ewk_security_origin_protocol_get@Base 127150
+ ewk_security_origin_string_get@Base 127150
+ ewk_security_origin_web_database_get_all@Base 127150
+ ewk_security_origin_web_database_quota_get@Base 127150
+ ewk_security_origin_web_database_quota_set@Base 127150
+ ewk_security_origin_web_database_usage_get@Base 127150
+ ewk_security_policy_whitelist_origin_add@Base 127150
+ ewk_security_policy_whitelist_origin_del@Base 127150
+ ewk_security_policy_whitelist_origin_reset@Base 127150
+ ewk_settings_application_cache_clear@Base 127150
+ ewk_settings_application_cache_max_quota_get@Base 127150
+ ewk_settings_application_cache_max_quota_set@Base 127150
+ ewk_settings_application_cache_path_get@Base 127150
+ ewk_settings_application_cache_path_set@Base 127150
+ ewk_settings_default_timer_interval_get@Base 127150
+ ewk_settings_icon_database_clear@Base 127150
+ ewk_settings_icon_database_icon_object_get@Base 127150
+ ewk_settings_icon_database_icon_surface_get@Base 127150
+ ewk_settings_icon_database_path_get@Base 127150
+ ewk_settings_icon_database_path_set@Base 127150
+ ewk_settings_local_storage_database_clear@Base 127150
+ ewk_settings_local_storage_database_origin_clear@Base 127150
+ ewk_settings_local_storage_path_get@Base 127150
+ ewk_settings_local_storage_path_set@Base 127150
+ ewk_settings_memory_cache_clear@Base 127150
+ ewk_settings_object_cache_capacity_set@Base 127150
+ ewk_settings_object_cache_enable_get@Base 127150
+ ewk_settings_object_cache_enable_set@Base 127150
+ ewk_settings_page_cache_capacity_get@Base 127150
+ ewk_settings_page_cache_capacity_set@Base 127150
+ ewk_settings_repaint_throttling_set@Base 127150
+ ewk_settings_shadow_dom_enable_get@Base 127150
+ ewk_settings_shadow_dom_enable_set@Base 127150
+ ewk_settings_web_database_default_quota_get@Base 127150
+ ewk_settings_web_database_default_quota_set@Base 127150
+ ewk_settings_web_database_path_get@Base 127150
+ ewk_settings_web_database_path_set@Base 127150
+ ewk_shutdown@Base 127150
+ ewk_tile_unused_cache_auto_flush@Base 127150
+ ewk_tile_unused_cache_flush@Base 127150
+ ewk_tile_unused_cache_max_get@Base 127150
+ ewk_tile_unused_cache_max_set@Base 127150
+ ewk_tile_unused_cache_used_get@Base 127150
+ ewk_view_back@Base 127150
+ ewk_view_back_possible@Base 127150
+ ewk_view_base_smart_set@Base 127150
+ ewk_view_bg_color_get@Base 127150
+ ewk_view_bg_color_set@Base 127150
+ ewk_view_color_chooser_color_set@Base 127150
+ ewk_view_color_chooser_destroy@Base 127150
+ ewk_view_context_menu_forward_event@Base 127150
+ ewk_view_device_pixel_ratio_get@Base 127150
+ ewk_view_disable_render@Base 127150
+ ewk_view_editable_get@Base 127150
+ ewk_view_editable_set@Base 127150
+ ewk_view_editor_command_execute@Base 127150
+ ewk_view_enable_render@Base 127150
+ ewk_view_fixed_layout_size_get@Base 127150
+ ewk_view_fixed_layout_size_set@Base 127150
+ ewk_view_font_family_name_get@Base 127150
+ ewk_view_font_family_name_set@Base 127150
+ ewk_view_forward@Base 127150
+ ewk_view_forward_possible@Base 127150
+ ewk_view_frame_focused_get@Base 127150
+ ewk_view_frame_main_get@Base 127150
+ ewk_view_history_enable_get@Base 127150
+ ewk_view_history_enable_set@Base 127150
+ ewk_view_history_get@Base 127150
+ ewk_view_imh_get@Base 127150
+ ewk_view_js_object_add@Base 127150
+ ewk_view_load_progress_get@Base 127150
+ ewk_view_mixed_content_displayed_get@Base 127150
+ ewk_view_mixed_content_run_get@Base 127150
+ ewk_view_mode_get@Base 127150
+ ewk_view_mode_set@Base 127150
+ ewk_view_navigate@Base 127150
+ ewk_view_navigate_possible@Base 127150
+ ewk_view_page_zoom_get@Base 127150
+ ewk_view_page_zoom_set@Base 127150
+ ewk_view_paint@Base 127150
+ ewk_view_paint_contents@Base 127150
+ ewk_view_popup_destroy@Base 127150
+ ewk_view_popup_selected_set@Base 127150
+ ewk_view_pre_render_cancel@Base 127150
+ ewk_view_pre_render_region@Base 127150
+ ewk_view_pre_render_relative_radius@Base 127150
+ ewk_view_pre_render_start@Base 127150
+ ewk_view_reload@Base 127150
+ ewk_view_reload_full@Base 127150
+ ewk_view_scale_get@Base 127150
+ ewk_view_scale_set@Base 127150
+ ewk_view_scrolls_process@Base 127150
+ ewk_view_selection_get@Base 127150
+ ewk_view_setting_allow_file_access_from_file_urls_get@Base 127150
+ ewk_view_setting_allow_file_access_from_file_urls_set@Base 127150
+ ewk_view_setting_allow_universal_access_from_file_urls_get@Base 127150
+ ewk_view_setting_allow_universal_access_from_file_urls_set@Base 127150
+ ewk_view_setting_application_cache_get@Base 127150
+ ewk_view_setting_application_cache_set@Base 127150
+ ewk_view_setting_auto_load_images_get@Base 127150
+ ewk_view_setting_auto_load_images_set@Base 127150
+ ewk_view_setting_auto_shrink_images_get@Base 127150
+ ewk_view_setting_auto_shrink_images_set@Base 127150
+ ewk_view_setting_caret_browsing_get@Base 127150
+ ewk_view_setting_caret_browsing_set@Base 127150
+ ewk_view_setting_enable_auto_resize_window_get@Base 127150
+ ewk_view_setting_enable_auto_resize_window_set@Base 127150
+ ewk_view_setting_enable_developer_extras_get@Base 127150
+ ewk_view_setting_enable_developer_extras_set@Base 127150
+ ewk_view_setting_enable_frame_flattening_get@Base 127150
+ ewk_view_setting_enable_frame_flattening_set@Base 127150
+ ewk_view_setting_enable_hyperlink_auditing_get@Base 127150
+ ewk_view_setting_enable_hyperlink_auditing_set@Base 127150
+ ewk_view_setting_enable_plugins_get@Base 127150
+ ewk_view_setting_enable_plugins_set@Base 127150
+ ewk_view_setting_enable_scripts_get@Base 127150
+ ewk_view_setting_enable_scripts_set@Base 127150
+ ewk_view_setting_enable_webgl_get@Base 127150
+ ewk_view_setting_enable_webgl_set@Base 127150
+ ewk_view_setting_enable_xss_auditor_get@Base 127150
+ ewk_view_setting_enable_xss_auditor_set@Base 127150
+ ewk_view_setting_encoding_custom_get@Base 127150
+ ewk_view_setting_encoding_custom_set@Base 127150
+ ewk_view_setting_encoding_default_get@Base 127150
+ ewk_view_setting_encoding_default_set@Base 127150
+ ewk_view_setting_encoding_detector_get@Base 127150
+ ewk_view_setting_encoding_detector_set@Base 127150
+ ewk_view_setting_font_default_size_get@Base 127150
+ ewk_view_setting_font_default_size_set@Base 127150
+ ewk_view_setting_font_minimum_logical_size_get@Base 127150
+ ewk_view_setting_font_minimum_logical_size_set@Base 127150
+ ewk_view_setting_font_minimum_size_get@Base 127150
+ ewk_view_setting_font_minimum_size_set@Base 127150
+ ewk_view_setting_font_monospace_size_get@Base 127150
+ ewk_view_setting_font_monospace_size_set@Base 127150
+ ewk_view_setting_include_links_in_focus_chain_get@Base 127150
+ ewk_view_setting_include_links_in_focus_chain_set@Base 127150
+ ewk_view_setting_local_storage_database_path_get@Base 127150
+ ewk_view_setting_local_storage_database_path_set@Base 127150
+ ewk_view_setting_local_storage_get@Base 127150
+ ewk_view_setting_local_storage_set@Base 127150
+ ewk_view_setting_minimum_timer_interval_get@Base 127150
+ ewk_view_setting_minimum_timer_interval_set@Base 127150
+ ewk_view_setting_page_cache_get@Base 127150
+ ewk_view_setting_page_cache_set@Base 127150
+ ewk_view_setting_private_browsing_get@Base 127150
+ ewk_view_setting_private_browsing_set@Base 127150
+ ewk_view_setting_resizable_textareas_get@Base 127150
+ ewk_view_setting_resizable_textareas_set@Base 127150
+ ewk_view_setting_scripts_can_access_clipboard_get@Base 127150
+ ewk_view_setting_scripts_can_access_clipboard_set@Base 127150
+ ewk_view_setting_scripts_can_close_windows_get@Base 127150
+ ewk_view_setting_scripts_can_close_windows_set@Base 127150
+ ewk_view_setting_scripts_can_open_windows_get@Base 127150
+ ewk_view_setting_scripts_can_open_windows_set@Base 127150
+ ewk_view_setting_should_display_captions_get@Base 127150
+ ewk_view_setting_should_display_captions_set@Base 127150
+ ewk_view_setting_should_display_subtitles_get@Base 127150
+ ewk_view_setting_should_display_subtitles_set@Base 127150
+ ewk_view_setting_should_display_text_descriptions_get@Base 127150
+ ewk_view_setting_should_display_text_descriptions_set@Base 127150
+ ewk_view_setting_spatial_navigation_get@Base 127150
+ ewk_view_setting_spatial_navigation_set@Base 127150
+ ewk_view_setting_user_agent_get@Base 127150
+ ewk_view_setting_user_agent_set@Base 127150
+ ewk_view_setting_user_stylesheet_get@Base 127150
+ ewk_view_setting_user_stylesheet_set@Base 127150
+ ewk_view_setting_web_audio_get@Base 127150
+ ewk_view_setting_web_audio_set@Base 127150
+ ewk_view_single_add@Base 127150
+ ewk_view_single_smart_set@Base 127150
+ ewk_view_smart_data_get@Base 127150
+ ewk_view_soup_session_get@Base 127150
+ ewk_view_soup_session_set@Base 127150
+ ewk_view_stop@Base 127150
+ ewk_view_text_direction_set@Base 127150
+ ewk_view_text_matches_highlight_get@Base 127150
+ ewk_view_text_matches_highlight_set@Base 127150
+ ewk_view_text_matches_mark@Base 127150
+ ewk_view_text_matches_unmark_all@Base 127150
+ ewk_view_text_search@Base 127150
+ ewk_view_text_zoom_get@Base 127150
+ ewk_view_text_zoom_set@Base 127150
+ ewk_view_theme_get@Base 127150
+ ewk_view_theme_set@Base 127150
+ ewk_view_tiled_add@Base 127150
+ ewk_view_tiled_smart_set@Base 127150
+ ewk_view_tiled_unused_cache_get@Base 127150
+ ewk_view_tiled_unused_cache_set@Base 127150
+ ewk_view_title_get@Base 127150
+ ewk_view_uri_get@Base 127150
+ ewk_view_uri_set@Base 127150
+ ewk_view_user_scalable_get@Base 127150
+ ewk_view_user_scalable_set@Base 127150
+ ewk_view_viewport_attributes_get@Base 127150
+ ewk_view_visibility_state_get@Base 127150
+ ewk_view_visibility_state_set@Base 127150
+ ewk_view_visited_link_add@Base 127150
+ ewk_view_web_inspector_close@Base 127150
+ ewk_view_web_inspector_show@Base 127150
+ ewk_view_web_inspector_view_get@Base 127150
+ ewk_view_web_inspector_view_set@Base 127150
+ ewk_view_zoom_animated_mark_current@Base 127150
+ ewk_view_zoom_animated_mark_end@Base 127150
+ ewk_view_zoom_animated_mark_start@Base 127150
+ ewk_view_zoom_animated_mark_stop@Base 127150
+ ewk_view_zoom_animated_set@Base 127150
+ ewk_view_zoom_get@Base 127150
+ ewk_view_zoom_range_max_get@Base 127150
+ ewk_view_zoom_range_min_get@Base 127150
+ ewk_view_zoom_range_set@Base 127150
+ ewk_view_zoom_set@Base 127150
+ ewk_view_zoom_weak_set@Base 127150
+ ewk_view_zoom_weak_smooth_scale_get@Base 127150
+ ewk_view_zoom_weak_smooth_scale_set@Base 127150
+ ewk_web_database_display_name_get@Base 127150
+ ewk_web_database_expected_size_get@Base 127150
+ ewk_web_database_filename_get@Base 127150
+ ewk_web_database_free@Base 127150
+ ewk_web_database_list_free@Base 127150
+ ewk_web_database_name_get@Base 127150
+ ewk_web_database_remove@Base 127150
+ ewk_web_database_remove_all@Base 127150
+ ewk_web_database_security_origin_get@Base 127150
+ ewk_web_database_size_get@Base 127150
+ ewk_window_features_bool_property_get@Base 127150
+ ewk_window_features_int_property_get@Base 127150
+ ewk_window_features_ref@Base 127150
+ ewk_window_features_unref@Base 127150
