# SymbolsHelper-Confirmed: 4:4.8.4 amd64
libkopete.so.4 libkopete4 #MINVER#
 _ZGVZN6Kopete2UI8ListView4Item7Private18theVisibilityTimerEvE5timer@Base 4:4.3.4
 _ZGVZN6Kopete2UI8ListView4Item7Private21theLayoutAnimateTimerEvE5timer@Base 4:4.3.4
 _ZN10KopeteView14appendMessagesE5QListIN6Kopete7MessageEE@Base 4:4.3.4
 _ZN10KopeteView5clearEv@Base 4:4.3.4
 _ZN10KopeteView6pluginEv@Base 4:4.3.4
 _ZN10KopeteViewC1EPN6Kopete11ChatSessionEPNS0_10ViewPluginE@Base 4:4.3.4
 _ZN10KopeteViewC2EPN6Kopete11ChatSessionEPNS0_10ViewPluginE@Base 4:4.3.4
 _ZN10KopeteViewD0Ev@Base 4:4.3.4
 _ZN10KopeteViewD1Ev@Base 4:4.3.4
 _ZN10KopeteViewD2Ev@Base 4:4.3.4
 _ZN14AddContactPage11qt_metacallEN11QMetaObject4CallEiPPv@Base 4:4.3.4
 _ZN14AddContactPage11qt_metacastEPKc@Base 4:4.3.4
 _ZN14AddContactPage16staticMetaObjectE@Base 4:4.3.4
 _ZN14AddContactPage9dataValidEPS_b@Base 4:4.3.4
 _ZN14AddContactPageC1EP7QWidget@Base 4:4.3.4
 _ZN14AddContactPageC2EP7QWidget@Base 4:4.3.4
 _ZN14AddContactPageD0Ev@Base 4:4.3.4
 _ZN14AddContactPageD1Ev@Base 4:4.3.4
 _ZN14AddContactPageD2Ev@Base 4:4.3.4
 _ZN15AccountSelector10isSelectedEPN6Kopete7AccountE@Base 4:4.3.4
 _ZN15AccountSelector11qt_metacallEN11QMetaObject4CallEiPPv@Base 4:4.3.4
 _ZN15AccountSelector11qt_metacastEPKc@Base 4:4.3.4
 _ZN15AccountSelector11setSelectedEPN6Kopete7AccountE@Base 4:4.3.4
 _ZN15AccountSelector12selectedItemEv@Base 4:4.3.4
 _ZN15AccountSelector16selectionChangedEPN6Kopete7AccountE@Base 4:4.3.4
 _ZN15AccountSelector16staticMetaObjectE@Base 4:4.3.4
 _ZN15AccountSelector20slotSelectionChangedEP14Q3ListViewItem@Base 4:4.3.4
 _ZN15AccountSelector6initUIEv@Base 4:4.3.4
 _ZN15AccountSelectorC1EP7QWidget@Base 4:4.3.4
 _ZN15AccountSelectorC1EPN6Kopete8ProtocolEP7QWidget@Base 4:4.3.4
 _ZN15AccountSelectorC2EP7QWidget@Base 4:4.3.4
 _ZN15AccountSelectorC2EPN6Kopete8ProtocolEP7QWidget@Base 4:4.3.4
 _ZN15AccountSelectorD0Ev@Base 4:4.3.4
 _ZN15AccountSelectorD1Ev@Base 4:4.3.4
 _ZN15AccountSelectorD2Ev@Base 4:4.3.4
 (optional=external|arch=kfreebsd-any)_ZN15KEmoticonsTheme5TokenD1Ev@Base 4:4.6.5
 (optional=external|arch=kfreebsd-any)_ZN15KEmoticonsTheme5TokenD2Ev@Base 4:4.6.5
 _ZN15KopeteStdAction11changeAliasEPK7QObjectPKcPS0_@Base 4:4.3.4
 _ZN15KopeteStdAction11contactInfoEPK7QObjectPKcPS0_@Base 4:4.3.4
 _ZN15KopeteStdAction11preferencesEP17KActionCollectionPKc@Base 4:4.3.4
 _ZN15KopeteStdAction11sendMessageEPK7QObjectPKcPS0_@Base 4:4.3.4
 _ZN15KopeteStdAction11viewHistoryEPK7QObjectPKcPS0_@Base 4:4.3.4
 _ZN15KopeteStdAction12blockContactEPK7QObjectPKcPS0_@Base 4:4.3.4
 _ZN15KopeteStdAction12createActionERK7QStringRK5KIconPK7QObjectPKcPS6_@Base 4:4.3.4
 _ZN15KopeteStdAction13deleteContactEPK7QObjectPKcPS0_@Base 4:4.3.4
 _ZN15KopeteStdAction14unblockContactEPK7QObjectPKcPS0_@Base 4:4.3.4
 _ZN15KopeteStdAction17changeMetaContactEPK7QObjectPKcPS0_@Base 4:4.3.4
 _ZN15KopeteStdAction19toggleAlwaysVisibleEPK7QObjectPKcPS0_@Base 4:4.4.1
 _ZN15KopeteStdAction4chatEPK7QObjectPKcPS0_@Base 4:4.3.4
 _ZN15KopeteStdAction8addGroupEPK7QObjectPKcPS0_@Base 4:4.3.4
 _ZN15KopeteStdAction8sendFileEPK7QObjectPKcPS0_@Base 4:4.3.4
 _ZN17CollapsibleWidget10setCaptionERK7QString@Base 4:4.3.4
 _ZN17CollapsibleWidget11qt_metacallEN11QMetaObject4CallEiPPv@Base 4:4.3.4
 _ZN17CollapsibleWidget11qt_metacastEPKc@Base 4:4.3.4
 _ZN17CollapsibleWidget11setExpandedEb@Base 4:4.3.4
 _ZN17CollapsibleWidget14setInnerWidgetEP7QWidget@Base 4:4.3.4
 (subst)_ZN17CollapsibleWidget15animateCollapseE{qreal}@Base 4:4.3.4
 _ZN17CollapsibleWidget16staticMetaObjectE@Base 4:4.3.4
 _ZN17CollapsibleWidget4initEv@Base 4:4.3.4
 _ZN17CollapsibleWidgetC1EP7QWidget@Base 4:4.3.4
 _ZN17CollapsibleWidgetC1ERK7QStringP7QWidget@Base 4:4.3.4
 _ZN17CollapsibleWidgetC2EP7QWidget@Base 4:4.3.4
 _ZN17CollapsibleWidgetC2ERK7QStringP7QWidget@Base 4:4.3.4
 _ZN17CollapsibleWidgetD0Ev@Base 4:4.3.4
 _ZN17CollapsibleWidgetD1Ev@Base 4:4.3.4
 _ZN17CollapsibleWidgetD2Ev@Base 4:4.3.4
 _ZN17KopeteViewManager11qt_metacallEN11QMetaObject4CallEiPPv@Base 4:4.3.4
 _ZN17KopeteViewManager11qt_metacastEPKc@Base 4:4.3.4
 _ZN17KopeteViewManager11viewManagerEv@Base 4:4.3.4
 _ZN17KopeteViewManager12readMessagesEPN6Kopete11ChatSessionEbb@Base 4:4.3.4
 _ZN17KopeteViewManager13s_viewManagerE@Base 4:4.3.4
 _ZN17KopeteViewManager15messageAppendedERN6Kopete7MessageEPNS0_11ChatSessionE@Base 4:4.3.4
 _ZN17KopeteViewManager15pendingMessagesEPN6Kopete7ContactE@Base 4:4.3.4
 _ZN17KopeteViewManager16slotEventDeletedEPN6Kopete12MessageEventE@Base 4:4.3.4
 _ZN17KopeteViewManager16slotPrefsChangedEv@Base 4:4.3.4
 _ZN17KopeteViewManager16staticMetaObjectE@Base 4:4.3.4
 _ZN17KopeteViewManager17slotViewActivatedEP10KopeteView@Base 4:4.3.4
 _ZN17KopeteViewManager17slotViewDestroyedEP10KopeteView@Base 4:4.3.4
 _ZN17KopeteViewManager18createNotificationERN6Kopete7MessageERK7QStringPNS0_11ChatSessionEPNS0_12MessageEventEP7QWidgetbb@Base 4:4.5.1
 _ZN17KopeteViewManager24slotChatSessionDestroyedEPN6Kopete11ChatSessionE@Base 4:4.3.4
 _ZN17KopeteViewManager4viewEPN6Kopete11ChatSessionERK7QString@Base 4:4.3.4
 _ZN17KopeteViewManager9nextEventEv@Base 4:4.3.4
 _ZN17KopeteViewManagerC1Ev@Base 4:4.3.4
 _ZN17KopeteViewManagerC2Ev@Base 4:4.3.4
 _ZN17KopeteViewManagerD0Ev@Base 4:4.3.4
 _ZN17KopeteViewManagerD1Ev@Base 4:4.3.4
 _ZN17KopeteViewManagerD2Ev@Base 4:4.3.4
 _ZN17SettingsContainer11qt_metacallEN11QMetaObject4CallEiPPv@Base 4:4.3.4
 _ZN17SettingsContainer11qt_metacastEPKc@Base 4:4.3.4
 _ZN17SettingsContainer12insertWidgetEP7QWidgetRK7QString@Base 4:4.3.4
 _ZN17SettingsContainer16staticMetaObjectE@Base 4:4.3.4
 _ZN17SettingsContainerC1EP7QWidget@Base 4:4.3.4
 _ZN17SettingsContainerC2EP7QWidget@Base 4:4.3.4
 _ZN17SettingsContainerD0Ev@Base 4:4.3.4
 _ZN17SettingsContainerD1Ev@Base 4:4.3.4
 _ZN17SettingsContainerD2Ev@Base 4:4.3.4
 (optional=external)_ZN19KCoreConfigSkeleton8ItemEnum7Choice2D1Ev@Base 4:4.6.5
 (optional=external)_ZN19KCoreConfigSkeleton8ItemEnum7Choice2D2Ev@Base 4:4.6.5
 _ZN23KopeteEditAccountWidget10setAccountEPN6Kopete7AccountE@Base 4:4.3.4
 _ZN23KopeteEditAccountWidgetC1EPN6Kopete7AccountE@Base 4:4.3.4
 _ZN23KopeteEditAccountWidgetC2EPN6Kopete7AccountE@Base 4:4.3.4
 _ZN23KopeteEditAccountWidgetD0Ev@Base 4:4.3.4
 _ZN23KopeteEditAccountWidgetD1Ev@Base 4:4.3.4
 _ZN23KopeteEditAccountWidgetD2Ev@Base 4:4.3.4
 _ZN23KopetePreferencesAction11qt_metacallEN11QMetaObject4CallEiPPv@Base 4:4.3.4
 _ZN23KopetePreferencesAction11qt_metacastEPKc@Base 4:4.3.4
 _ZN23KopetePreferencesAction16s_settingsDialogE@Base 4:4.3.4
 _ZN23KopetePreferencesAction16staticMetaObjectE@Base 4:4.3.4
 _ZN23KopetePreferencesAction19slotShowPreferencesEv@Base 4:4.3.4
 _ZN23KopetePreferencesActionC1EP17KActionCollectionPKc@Base 4:4.3.4
 _ZN23KopetePreferencesActionC2EP17KActionCollectionPKc@Base 4:4.3.4
 _ZN23KopetePreferencesActionD0Ev@Base 4:4.3.4
 _ZN23KopetePreferencesActionD1Ev@Base 4:4.3.4
 _ZN23KopetePreferencesActionD2Ev@Base 4:4.3.4
 _ZN6Kopete10FileEngine11setFileNameERK7QString@Base 4:4.3.4
 _ZN6Kopete10FileEngine14setPermissionsEj@Base 4:4.3.4
 _ZN6Kopete10FileEngine4openE6QFlagsIN9QIODevice12OpenModeFlagEE@Base 4:4.3.4
 _ZN6Kopete10FileEngine4readEPcx@Base 4:4.3.4
 _ZN6Kopete10FileEngine4seekEx@Base 4:4.3.4
 _ZN6Kopete10FileEngine5closeEv@Base 4:4.3.4
 _ZN6Kopete10FileEngine5writeEPKcx@Base 4:4.3.4
 _ZN6Kopete10FileEngine6removeEv@Base 4:4.3.4
 _ZN6Kopete10FileEngine6renameERK7QString@Base 4:4.3.4
 _ZN6Kopete10FileEngine7setSizeEx@Base 4:4.3.4
 _ZN6Kopete10FileEngine8readLineEPcx@Base 4:4.3.4
 _ZN6Kopete10FileEngineC1ERK7QString@Base 4:4.3.4
 _ZN6Kopete10FileEngineC1Ev@Base 4:4.3.4
 _ZN6Kopete10FileEngineC2ERK7QString@Base 4:4.3.4
 _ZN6Kopete10FileEngineC2Ev@Base 4:4.3.4
 _ZN6Kopete10FileEngineD0Ev@Base 4:4.3.4
 _ZN6Kopete10FileEngineD1Ev@Base 4:4.3.4
 _ZN6Kopete10FileEngineD2Ev@Base 4:4.3.4
 _ZN6Kopete10ViewPlugin13aboutToUnloadEv@Base 4:4.3.4
 _ZN6Kopete10ViewPluginC1ERK14KComponentDataP7QObject@Base 4:4.3.4
 _ZN6Kopete10ViewPluginC2ERK14KComponentDataP7QObject@Base 4:4.3.4
 (optional=gccinternal)_ZN6Kopete10ViewPluginD0Ev@Base 4:4.6.5
 (optional=gccinternal)_ZN6Kopete10ViewPluginD1Ev@Base 4:4.6.5
 (optional=gccinternal)_ZN6Kopete10ViewPluginD2Ev@Base 4:4.6.5
 _ZN6Kopete11ChatSession10addContactEPKNS_7ContactERKNS_12OnlineStatusEb@Base 4:4.3.4
 _ZN6Kopete11ChatSession10addContactEPKNS_7ContactEb@Base 4:4.3.4
 _ZN6Kopete11ChatSession10setLastUrlERK7QString@Base 4:4.4.1
 _ZN6Kopete11ChatSession11clearChainsEv@Base 4:4.3.4
 _ZN6Kopete11ChatSession11displayNameEv@Base 4:4.3.4
 _ZN6Kopete11ChatSession11initLastUrlEPKNS_7ContactE@Base 4:4.4.1
 _ZN6Kopete11ChatSession11messageSentERNS_7MessageEPS0_@Base 4:4.3.4
 _ZN6Kopete11ChatSession11qt_metacallEN11QMetaObject4CallEiPPv@Base 4:4.3.4
 _ZN6Kopete11ChatSession11qt_metacastEPKc@Base 4:4.3.4
 _ZN6Kopete11ChatSession11sendMessageERNS_7MessageE@Base 4:4.3.4
 _ZN6Kopete11ChatSession12contactAddedEPKNS_7ContactEb@Base 4:4.3.4
 _ZN6Kopete11ChatSession12myselfTypingEb@Base 4:4.3.4
 _ZN6Kopete11ChatSession12photoChangedEv@Base 4:4.3.4
 _ZN6Kopete11ChatSession12remoteTypingEPKNS_7ContactEb@Base 4:4.3.4
 _ZN6Kopete11ChatSession12setMayInviteEb@Base 4:4.3.4
 _ZN6Kopete11ChatSession13appendMessageERNS_7MessageE@Base 4:4.3.4
 _ZN6Kopete11ChatSession13inviteContactERK7QString@Base 4:4.3.4
 _ZN6Kopete11ChatSession13removeContactEPKNS_7ContactERK7QStringN2Qt10TextFormatEb@Base 4:4.3.4
 _ZN6Kopete11ChatSession13viewActivatedEP10KopeteView@Base 4:4.6.2
 _ZN6Kopete11ChatSession14contactRemovedEPKNS_7ContactERK7QStringN2Qt10TextFormatEb@Base 4:4.3.4
 _ZN6Kopete11ChatSession14messageSuccessEv@Base 4:4.3.4
 _ZN6Kopete11ChatSession14setDisplayNameERK7QString@Base 4:4.3.4
 _ZN6Kopete11ChatSession15getUrlsFileNameEPKNS_7ContactE@Base 4:4.4.1
 _ZN6Kopete11ChatSession15messageAppendedERNS_7MessageEPS0_@Base 4:4.3.4
 _ZN6Kopete11ChatSession15messageReceivedERNS_7MessageEPS0_@Base 4:4.3.4
 _ZN6Kopete11ChatSession15nickNameChangedEPNS_7ContactERK7QString@Base 4:4.3.4
 _ZN6Kopete11ChatSession15setCanBeDeletedEb@Base 4:4.3.4
 _ZN6Kopete11ChatSession16messageSucceededEv@Base 4:4.3.4
 _ZN6Kopete11ChatSession16setWarnGroupChatEb@Base 4:4.3.4
 _ZN6Kopete11ChatSession16staticMetaObjectE@Base 4:4.3.4
 _ZN6Kopete11ChatSession17chainForDirectionENS_7Message16MessageDirectionE@Base 4:4.3.4
 _ZN6Kopete11ChatSession17eventNotificationERK7QString@Base 4:4.3.4
 _ZN6Kopete11ChatSession17receivedTypingMsgEPKNS_7ContactEb@Base 4:4.3.4
 _ZN6Kopete11ChatSession17receivedTypingMsgERK7QStringb@Base 4:4.3.4
 _ZN6Kopete11ChatSession17slotViewDestroyedEv@Base 4:4.3.4
 _ZN6Kopete11ChatSession18displayNameChangedEv@Base 4:4.3.4
 _ZN6Kopete11ChatSession19messageStateChangedEjNS_7Message12MessageStateE@Base 4:4.3.4
 _ZN6Kopete11ChatSession19onlineStatusChangedEPNS_7ContactERKNS_12OnlineStatusES5_@Base 4:4.3.4
 _ZN6Kopete11ChatSession19slotMyselfDestroyedEPNS_7ContactE@Base 4:4.3.4
 _ZN6Kopete11ChatSession20receivedMessageStateEjNS_7Message12MessageStateE@Base 4:4.3.4
 _ZN6Kopete11ChatSession20slotContactDestroyedEPNS_7ContactE@Base 4:4.3.4
 _ZN6Kopete11ChatSession21emitNudgeNotificationEv@Base 4:4.3.4
 _ZN6Kopete11ChatSession21slotUpdateDisplayNameEv@Base 4:4.3.4
 _ZN6Kopete11ChatSession21toggleGraphicOverrideEb@Base 4:4.7.1
 _ZN6Kopete11ChatSession22setContactOnlineStatusEPKNS_7ContactERKNS_12OnlineStatusE@Base 4:4.3.4
 _ZN6Kopete11ChatSession23slotOnlineStatusChangedEPNS_7ContactERKNS_12OnlineStatusES5_@Base 4:4.3.4
 _ZN6Kopete11ChatSession25receivedEventNotificationERK7QString@Base 4:4.3.4
 _ZN6Kopete11ChatSession26slotContactPropertyChangedEPNS_17PropertyContainerERK7QStringRK8QVariantS8_@Base 4:4.3.4
 _ZN6Kopete11ChatSession3refEv@Base 4:4.3.4
 _ZN6Kopete11ChatSession4viewEbRK7QString@Base 4:4.3.4
 _ZN6Kopete11ChatSession5derefEv@Base 4:4.3.4
 _ZN6Kopete11ChatSession6typingEb@Base 4:4.3.4
 _ZN6Kopete11ChatSession7closingEPS0_@Base 4:4.3.4
 _ZN6Kopete11ChatSession7lastUrlEv@Base 4:4.4.1
 _ZN6Kopete11ChatSession8findUrlsERKNS_7MessageE@Base 4:4.4.1
 _ZN6Kopete11ChatSession9raiseViewEv@Base 4:4.3.4
 _ZN6Kopete11ChatSession9urlSearchERKNS_7MessageE@Base 4:4.4.1
 _ZN6Kopete11ChatSessionC1EPKNS_7ContactE5QListIPS1_EPNS_8ProtocolENS0_4FormE@Base 4:4.3.4
 _ZN6Kopete11ChatSessionC2EPKNS_7ContactE5QListIPS1_EPNS_8ProtocolENS0_4FormE@Base 4:4.3.4
 _ZN6Kopete11ChatSessionD0Ev@Base 4:4.3.4
 _ZN6Kopete11ChatSessionD1Ev@Base 4:4.3.4
 _ZN6Kopete11ChatSessionD2Ev@Base 4:4.3.4
 _ZN6Kopete11ContactList10groupAddedEPNS_5GroupE@Base 4:4.3.4
 _ZN6Kopete11ContactList11qt_metacallEN11QMetaObject4CallEiPPv@Base 4:4.3.4
 _ZN6Kopete11ContactList11qt_metacastEPKc@Base 4:4.3.4
 _ZN6Kopete11ContactList11removeGroupEPNS_5GroupE@Base 4:4.3.4
 _ZN6Kopete11ContactList12groupRemovedEPNS_5GroupE@Base 4:4.3.4
 _ZN6Kopete11ContactList12groupRenamedEPNS_5GroupERK7QString@Base 4:4.3.4
 _ZN6Kopete11ContactList13slotSaveLaterEv@Base 4:4.3.4
 _ZN6Kopete11ContactList14addMetaContactEPNS_11MetaContactE@Base 4:4.3.4
 _ZN6Kopete11ContactList15addMetaContactsE5QListIPNS_11MetaContactEE@Base 4:4.3.4
 _ZN6Kopete11ContactList15slotKABCChangedEv@Base 4:4.3.4
 _ZN6Kopete11ContactList16metaContactAddedEPNS_11MetaContactE@Base 4:4.3.4
 _ZN6Kopete11ContactList16selectionChangedEv@Base 4:4.3.4
 _ZN6Kopete11ContactList16setSelectedItemsE5QListIPNS_11MetaContactEES1_IPNS_5GroupEE@Base 4:4.3.4
 _ZN6Kopete11ContactList16staticMetaObjectE@Base 4:4.3.4
 _ZN6Kopete11ContactList17contactListLoadedEv@Base 4:4.3.4
 _ZN6Kopete11ContactList17mergeMetaContactsE5QListIPNS_11MetaContactEES3_@Base 4:4.3.4
 _ZN6Kopete11ContactList17removeMetaContactEPNS_11MetaContactE@Base 4:4.3.4
 _ZN6Kopete11ContactList18metaContactRemovedEPNS_11MetaContactE@Base 4:4.3.4
 _ZN6Kopete11ContactList19metaContactSelectedEb@Base 4:4.3.4
 _ZN6Kopete11ContactList23metaContactAddedToGroupEPNS_11MetaContactEPNS_5GroupE@Base 4:4.3.4
 _ZN6Kopete11ContactList23metaContactMovedToGroupEPNS_11MetaContactEPNS_5GroupES4_@Base 4:4.3.4
 _ZN6Kopete11ContactList27metaContactRemovedFromGroupEPNS_11MetaContactEPNS_5GroupE@Base 4:4.3.4
 _ZN6Kopete11ContactList4loadEv@Base 4:4.3.4
 _ZN6Kopete11ContactList4saveEv@Base 4:4.3.4
 _ZN6Kopete11ContactList4selfEv@Base 4:4.3.4
 _ZN6Kopete11ContactList6myselfEv@Base 4:4.3.4
 _ZN6Kopete11ContactList6s_selfE@Base 4:4.3.4
 _ZN6Kopete11ContactList8addGroupEPNS_5GroupE@Base 4:4.3.4
 _ZN6Kopete11ContactList8shutdownEv@Base 4:4.3.4
 _ZN6Kopete11ContactList9addGroupsE5QListIPNS_5GroupEE@Base 4:4.3.4
 _ZN6Kopete11ContactList9findGroupERK7QStringi@Base 4:4.3.4
 _ZN6Kopete11ContactListC1Ev@Base 4:4.3.4
 _ZN6Kopete11ContactListC2Ev@Base 4:4.3.4
 _ZN6Kopete11ContactListD0Ev@Base 4:4.3.4
 _ZN6Kopete11ContactListD1Ev@Base 4:4.3.4
 _ZN6Kopete11ContactListD2Ev@Base 4:4.3.4
 _ZN6Kopete11MetaContact10addContactEPNS_7ContactE@Base 4:4.3.4
 _ZN6Kopete11MetaContact10addToGroupEPNS_5GroupE@Base 4:4.3.4
 _ZN6Kopete11MetaContact11findContactERK7QStringS3_S3_@Base 4:4.3.4
 _ZN6Kopete11MetaContact11moveToGroupEPNS_5GroupES2_@Base 4:4.3.4
 _ZN6Kopete11MetaContact11qt_metacallEN11QMetaObject4CallEiPPv@Base 4:4.3.4
 _ZN6Kopete11MetaContact11qt_metacastEPKc@Base 4:4.3.4
 _ZN6Kopete11MetaContact11sendMessageEv@Base 4:4.3.4
 _ZN6Kopete11MetaContact12addedToGroupEPS0_PNS_5GroupE@Base 4:4.3.4
 _ZN6Kopete11MetaContact12contactAddedEPNS_7ContactE@Base 4:4.3.4
 _ZN6Kopete11MetaContact12movedToGroupEPS0_PNS_5GroupES3_@Base 4:4.3.4
 _ZN6Kopete11MetaContact12photoChangedEv@Base 4:4.3.4
 _ZN6Kopete11MetaContact12setTemporaryEbPNS_5GroupE@Base 4:4.3.4
 _ZN6Kopete11MetaContact13removeContactEPNS_7ContactEb@Base 4:4.3.4
 _ZN6Kopete11MetaContact14contactRemovedEPNS_7ContactE@Base 4:4.3.4
 _ZN6Kopete11MetaContact14setDisplayNameERK7QString@Base 4:4.3.4
 _ZN6Kopete11MetaContact14setPhotoSourceENS0_14PropertySourceE@Base 4:4.3.4
 _ZN6Kopete11MetaContact14setPhotoSourceERK7QStringS3_S3_@Base 4:4.3.4
 _ZN6Kopete11MetaContact15removeFromGroupEPNS_5GroupE@Base 4:4.3.4
 _ZN6Kopete11MetaContact16preferredContactEv@Base 4:4.3.4
 _ZN6Kopete11MetaContact16removedFromGroupEPS0_PNS_5GroupE@Base 4:4.3.4
 _ZN6Kopete11MetaContact16setMetaContactIdERK5QUuid@Base 4:4.3.4
 _ZN6Kopete11MetaContact16slotPluginLoadedEPNS_6PluginE@Base 4:4.3.4
 _ZN6Kopete11MetaContact16staticMetaObjectE@Base 4:4.3.4
 _ZN6Kopete11MetaContact18displayNameChangedERK7QStringS3_@Base 4:4.3.4
 _ZN6Kopete11MetaContact18slotProtocolLoadedEPNS_8ProtocolE@Base 4:4.3.4
 _ZN6Kopete11MetaContact18updateOnlineStatusEv@Base 4:4.3.4
 _ZN6Kopete11MetaContact19onlineStatusChangedEPS0_NS_12OnlineStatus10StatusTypeE@Base 4:4.3.4
 _ZN6Kopete11MetaContact19setAddressBookFieldEPNS_6PluginERK7QStringS5_S5_@Base 4:4.3.4
 _ZN6Kopete11MetaContact19slotPropertyChangedEPNS_17PropertyContainerERK7QStringRK8QVariantS8_@Base 4:4.3.4
 _ZN6Kopete11MetaContact20contactStatusChangedEPNS_7ContactERKNS_12OnlineStatusE@Base 4:4.3.4
 _ZN6Kopete11MetaContact20setDisplayNameSourceENS0_14PropertySourceE@Base 4:4.3.4
 _ZN6Kopete11MetaContact20setDisplayNameSourceERK7QStringS3_S3_@Base 4:4.3.4
 _ZN6Kopete11MetaContact20slotAllPluginsLoadedEv@Base 4:4.3.4
 _ZN6Kopete11MetaContact20slotContactDestroyedEPNS_7ContactE@Base 4:4.3.4
 _ZN6Kopete11MetaContact20statusMessageChangedEPS0_@Base 4:4.3.4
 _ZN6Kopete11MetaContact21persistentDataChangedEv@Base 4:4.3.4
 _ZN6Kopete11MetaContact21setPhotoSourceContactEPNS_7ContactE@Base 4:4.3.4
 _ZN6Kopete11MetaContact22setPhotoSyncedWithKABCEb@Base 4:4.3.4
 _ZN6Kopete11MetaContact23contactIdleStateChangedEPNS_7ContactE@Base 4:4.3.4
 _ZN6Kopete11MetaContact24onlineStatusNotificationEPNS_7ContactE@Base 4:4.3.4
 _ZN6Kopete11MetaContact24slotContactStatusChangedEPNS_7ContactERKNS_12OnlineStatusES5_@Base 4:4.3.4
 _ZN6Kopete11MetaContact27setDisplayNameSourceContactEPNS_7ContactE@Base 4:4.3.4
 _ZN6Kopete11MetaContact28slotUpdateAddressBookPictureEv@Base 4:4.3.4
 _ZN6Kopete11MetaContact7executeEv@Base 4:4.3.4
 _ZN6Kopete11MetaContact8sendFileERK4KUrlRK7QStringm@Base 4:4.3.4
 _ZN6Kopete11MetaContact8setPhotoERK4KUrl@Base 4:4.3.4
 _ZN6Kopete11MetaContact9serializeEv@Base 4:4.3.4
 _ZN6Kopete11MetaContact9setKabcIdERK7QString@Base 4:4.3.4
 _ZN6Kopete11MetaContact9startChatEv@Base 4:4.3.4
 _ZN6Kopete11MetaContactC1Ev@Base 4:4.3.4
 _ZN6Kopete11MetaContactC2Ev@Base 4:4.3.4
 _ZN6Kopete11MetaContactD0Ev@Base 4:4.3.4
 _ZN6Kopete11MetaContactD1Ev@Base 4:4.3.4
 _ZN6Kopete11MetaContactD2Ev@Base 4:4.3.4
 _ZN6Kopete12MessageEvent10setMessageERKNS_7MessageE@Base 4:4.3.4
 _ZN6Kopete12MessageEvent11qt_metacallEN11QMetaObject4CallEiPPv@Base 4:4.3.4
 _ZN6Kopete12MessageEvent11qt_metacastEPKc@Base 4:4.3.4
 _ZN6Kopete12MessageEvent16staticMetaObjectE@Base 4:4.3.4
 _ZN6Kopete12MessageEvent4doneEPS0_@Base 4:4.3.4
 _ZN6Kopete12MessageEvent5applyEv@Base 4:4.3.4
 _ZN6Kopete12MessageEvent5stateEv@Base 4:4.3.4
 _ZN6Kopete12MessageEvent6acceptEv@Base 4:4.3.4
 _ZN6Kopete12MessageEvent6ignoreEv@Base 4:4.3.4
 _ZN6Kopete12MessageEvent7discardEv@Base 4:4.3.4
 _ZN6Kopete12MessageEvent7messageEv@Base 4:4.3.4
 _ZN6Kopete12MessageEvent8acceptedEPS0_@Base 4:4.3.4
 _ZN6Kopete12MessageEvent9discardedEPS0_@Base 4:4.3.4
 _ZN6Kopete12MessageEventC1ERKNS_7MessageEP7QObject@Base 4:4.3.4
 _ZN6Kopete12MessageEventC2ERKNS_7MessageEP7QObject@Base 4:4.3.4
 _ZN6Kopete12MessageEventD0Ev@Base 4:4.3.4
 _ZN6Kopete12MessageEventD1Ev@Base 4:4.3.4
 _ZN6Kopete12MessageEventD2Ev@Base 4:4.3.4
 _ZN6Kopete12OnlineStatus18statusStringToTypeERK7QString@Base 4:4.3.4
 _ZN6Kopete12OnlineStatus18statusTypeToStringENS0_10StatusTypeE@Base 4:4.3.4
 _ZN6Kopete12OnlineStatusC1ENS0_10StatusTypeE@Base 4:4.3.4
 _ZN6Kopete12OnlineStatusC1ENS0_10StatusTypeEjPNS_8ProtocolEjRK11QStringListRK7QString@Base 4:4.3.4
 _ZN6Kopete12OnlineStatusC1ENS0_10StatusTypeEjPNS_8ProtocolEjRK11QStringListRK7QStringS9_6QFlagsINS_19OnlineStatusManager8CategoryEESA_INSB_6OptionEE@Base 4:4.3.4
 _ZN6Kopete12OnlineStatusC1ERKS0_@Base 4:4.3.4
 _ZN6Kopete12OnlineStatusC1Ev@Base 4:4.3.4
 _ZN6Kopete12OnlineStatusC2ENS0_10StatusTypeE@Base 4:4.3.4
 _ZN6Kopete12OnlineStatusC2ENS0_10StatusTypeEjPNS_8ProtocolEjRK11QStringListRK7QString@Base 4:4.3.4
 _ZN6Kopete12OnlineStatusC2ENS0_10StatusTypeEjPNS_8ProtocolEjRK11QStringListRK7QStringS9_6QFlagsINS_19OnlineStatusManager8CategoryEESA_INSB_6OptionEE@Base 4:4.3.4
 _ZN6Kopete12OnlineStatusC2ERKS0_@Base 4:4.3.4
 _ZN6Kopete12OnlineStatusC2Ev@Base 4:4.3.4
 _ZN6Kopete12OnlineStatusD1Ev@Base 4:4.3.4
 _ZN6Kopete12OnlineStatusD2Ev@Base 4:4.3.4
 _ZN6Kopete12OnlineStatusaSERKS0_@Base 4:4.3.4
 _ZN6Kopete12PropertyTmpl4nullE@Base 4:4.3.4
 _ZN6Kopete12PropertyTmplC1ERK7QStringS3_S3_6QFlagsINS0_14PropertyOptionEE@Base 4:4.3.4
 _ZN6Kopete12PropertyTmplC1ERKS0_@Base 4:4.3.4
 _ZN6Kopete12PropertyTmplC1Ev@Base 4:4.3.4
 _ZN6Kopete12PropertyTmplC2ERK7QStringS3_S3_6QFlagsINS0_14PropertyOptionEE@Base 4:4.3.4
 _ZN6Kopete12PropertyTmplC2ERKS0_@Base 4:4.3.4
 _ZN6Kopete12PropertyTmplC2Ev@Base 4:4.3.4
 _ZN6Kopete12PropertyTmplD1Ev@Base 4:4.3.4
 _ZN6Kopete12PropertyTmplD2Ev@Base 4:4.3.4
 _ZN6Kopete12PropertyTmplaSERKS0_@Base 4:4.3.4
 _ZN6Kopete12WebcamWidget10paintEventEP11QPaintEvent@Base 4:4.3.4
 _ZN6Kopete12WebcamWidget11qt_metacallEN11QMetaObject4CallEiPPv@Base 4:4.3.4
 _ZN6Kopete12WebcamWidget11qt_metacastEPKc@Base 4:4.3.4
 _ZN6Kopete12WebcamWidget12updatePixmapERK7QPixmap@Base 4:4.3.4
 _ZN6Kopete12WebcamWidget16staticMetaObjectE@Base 4:4.3.4
 _ZN6Kopete12WebcamWidget5clearEv@Base 4:4.3.4
 _ZN6Kopete12WebcamWidget7setTextERK7QString@Base 4:4.3.4
 _ZN6Kopete12WebcamWidgetC1EP7QWidget@Base 4:4.3.4
 _ZN6Kopete12WebcamWidgetC2EP7QWidget@Base 4:4.3.4
 _ZN6Kopete12WebcamWidgetD0Ev@Base 4:4.3.4
 _ZN6Kopete12WebcamWidgetD1Ev@Base 4:4.3.4
 _ZN6Kopete12WebcamWidgetD2Ev@Base 4:4.3.4
 _ZN6Kopete12nameFromKABCERK7QString@Base 4:4.3.4
 (optional=external|arch=kfreebsd-any)_ZN6Kopete13AvatarManager11AvatarEntryD1Ev@Base 4:4.6.5
 (optional=external|arch=kfreebsd-any)_ZN6Kopete13AvatarManager11AvatarEntryD2Ev@Base 4:4.6.5
 _ZN6Kopete13AvatarManager11avatarAddedENS0_11AvatarEntryE@Base 4:4.3.4
 _ZN6Kopete13AvatarManager11qt_metacallEN11QMetaObject4CallEiPPv@Base 4:4.3.4
 _ZN6Kopete13AvatarManager11qt_metacastEPKc@Base 4:4.3.4
 _ZN6Kopete13AvatarManager13avatarRemovedENS0_11AvatarEntryE@Base 4:4.3.4
 _ZN6Kopete13AvatarManager16staticMetaObjectE@Base 4:4.3.4
 _ZN6Kopete13AvatarManager3addENS0_11AvatarEntryE@Base 4:4.3.4
 _ZN6Kopete13AvatarManager4selfEv@Base 4:4.3.4
 _ZN6Kopete13AvatarManager6existsENS0_11AvatarEntryE@Base 4:4.4.1
 _ZN6Kopete13AvatarManager6existsERK7QString@Base 4:4.4.1
 _ZN6Kopete13AvatarManager6removeENS0_11AvatarEntryE@Base 4:4.3.4
 _ZN6Kopete13AvatarManager6s_selfE@Base 4:4.3.4
 _ZN6Kopete13AvatarManager7Private10scaleImageERK6QImage@Base 4:4.3.4
 _ZN6Kopete13AvatarManager7Private15createDirectoryERK4KUrl@Base 4:4.3.4
 _ZN6Kopete13AvatarManagerC1EP7QObject@Base 4:4.3.4
 _ZN6Kopete13AvatarManagerC2EP7QObject@Base 4:4.3.4
 _ZN6Kopete13AvatarManagerD0Ev@Base 4:4.3.4
 _ZN6Kopete13AvatarManagerD1Ev@Base 4:4.3.4
 _ZN6Kopete13AvatarManagerD2Ev@Base 4:4.3.4
 _ZN6Kopete13PluginManager10loadPluginERK7QStringNS0_14PluginLoadModeE@Base 4:4.3.4
 _ZN6Kopete13PluginManager11qt_metacallEN11QMetaObject4CallEiPPv@Base 4:4.3.4
 _ZN6Kopete13PluginManager11qt_metacastEPKc@Base 4:4.3.4
 _ZN6Kopete13PluginManager12pluginLoadedEPNS_6PluginE@Base 4:4.3.4
 _ZN6Kopete13PluginManager12unloadPluginERK7QString@Base 4:4.3.4
 _ZN6Kopete13PluginManager14loadAllPluginsEv@Base 4:4.3.4
 _ZN6Kopete13PluginManager14pluginUnloadedERK7QString@Base 4:4.3.4
 _ZN6Kopete13PluginManager14protocolLoadedEPNS_8ProtocolE@Base 4:4.3.4
 _ZN6Kopete13PluginManager16allPluginsLoadedEv@Base 4:4.3.4
 _ZN6Kopete13PluginManager16setPluginEnabledERK7QStringb@Base 4:4.3.4
 _ZN6Kopete13PluginManager16slotShutdownDoneEv@Base 4:4.3.4
 _ZN6Kopete13PluginManager16staticMetaObjectE@Base 4:4.3.4
 _ZN6Kopete13PluginManager18loadPluginInternalERK7QString@Base 4:4.3.4
 _ZN6Kopete13PluginManager18slotLoadNextPluginEv@Base 4:4.3.4
 _ZN6Kopete13PluginManager19slotPluginDestroyedEP7QObject@Base 4:4.3.4
 _ZN6Kopete13PluginManager19slotShutdownTimeoutEv@Base 4:4.3.4
 _ZN6Kopete13PluginManager24slotPluginReadyForUnloadEv@Base 4:4.3.4
 _ZN6Kopete13PluginManager4selfEv@Base 4:4.3.4
 _ZN6Kopete13PluginManager8shutdownEv@Base 4:4.3.4
 _ZN6Kopete13PluginManagerC1Ev@Base 4:4.3.4
 _ZN6Kopete13PluginManagerC2Ev@Base 4:4.3.4
 _ZN6Kopete13PluginManagerD0Ev@Base 4:4.3.4
 _ZN6Kopete13PluginManagerD1Ev@Base 4:4.3.4
 _ZN6Kopete13PluginManagerD2Ev@Base 4:4.3.4
 _ZN6Kopete13StatusManager10globalAwayEv@Base 4:4.3.4
 _ZN6Kopete13StatusManager11qt_metacallEN11QMetaObject4CallEiPPv@Base 4:4.3.4
 _ZN6Kopete13StatusManager11qt_metacastEPKc@Base 4:4.3.4
 _ZN6Kopete13StatusManager11setAutoAwayEv@Base 4:4.3.4
 _ZN6Kopete13StatusManager12loadSettingsEv@Base 4:4.3.4
 _ZN6Kopete13StatusManager12setRootGroupEPNS_6Status11StatusGroupE@Base 4:4.3.4
 _ZN6Kopete13StatusManager13updateUidHashEPNS_6Status10StatusItemE@Base 4:4.3.4
 _ZN6Kopete13StatusManager14checkIdleTimerEv@Base 4:4.7.1
 _ZN6Kopete13StatusManager15askAndSetActiveEv@Base 4:4.3.4
 _ZN6Kopete13StatusManager15parseStatusItemE11QDomElement@Base 4:4.3.4
 _ZN6Kopete13StatusManager15setGlobalStatusEjRKNS_13StatusMessageE@Base 4:4.3.4
 _ZN6Kopete13StatusManager15storeStatusItemEPKNS_6Status10StatusItemE@Base 4:4.3.4
 _ZN6Kopete13StatusManager16staticMetaObjectE@Base 4:4.3.4
 _ZN6Kopete13StatusManager19accountUnregisteredEPKNS_7AccountE@Base 4:4.3.4
 _ZN6Kopete13StatusManager19globalStatusChangedEv@Base 4:4.3.4
 _ZN6Kopete13StatusManager20loadBehaviorSettingsEv@Base 4:4.3.4
 _ZN6Kopete13StatusManager22setGlobalStatusMessageERKNS_13StatusMessageE@Base 4:4.3.4
 _ZN6Kopete13StatusManager4selfEv@Base 4:4.3.4
 _ZN6Kopete13StatusManager7changedEv@Base 4:4.3.4
 _ZN6Kopete13StatusManager7loadXMLEv@Base 4:4.3.4
 _ZN6Kopete13StatusManager7saveXMLEv@Base 4:4.3.4
 _ZN6Kopete13StatusManager8autoAwayEv@Base 4:4.3.4
 _ZN6Kopete13StatusManager8instanceE@Base 4:4.3.4
 _ZN6Kopete13StatusManager9setActiveEv@Base 4:4.3.4
 _ZN6Kopete13StatusManagerC1Ev@Base 4:4.3.4
 _ZN6Kopete13StatusManagerC2Ev@Base 4:4.3.4
 _ZN6Kopete13StatusManagerD0Ev@Base 4:4.3.4
 _ZN6Kopete13StatusManagerD1Ev@Base 4:4.3.4
 _ZN6Kopete13StatusManagerD2Ev@Base 4:4.3.4
 _ZN6Kopete13StatusMessage10setMessageERK7QString@Base 4:4.3.4
 _ZN6Kopete13StatusMessage11addMetaDataERK5QHashI7QString8QVariantE@Base 4:4.3.4
 _ZN6Kopete13StatusMessage11addMetaDataERK7QStringRK8QVariant@Base 4:4.3.4
 _ZN6Kopete13StatusMessage8setTitleERK7QString@Base 4:4.3.4
 _ZN6Kopete13StatusMessageC1ERK7QString@Base 4:4.3.4
 _ZN6Kopete13StatusMessageC1ERK7QStringS3_@Base 4:4.3.4
 _ZN6Kopete13StatusMessageC1ERKS0_@Base 4:4.3.4
 _ZN6Kopete13StatusMessageC1Ev@Base 4:4.3.4
 _ZN6Kopete13StatusMessageC2ERK7QString@Base 4:4.3.4
 _ZN6Kopete13StatusMessageC2ERK7QStringS3_@Base 4:4.3.4
 _ZN6Kopete13StatusMessageC2ERKS0_@Base 4:4.3.4
 _ZN6Kopete13StatusMessageC2Ev@Base 4:4.3.4
 _ZN6Kopete13StatusMessageD1Ev@Base 4:4.3.4
 _ZN6Kopete13StatusMessageD2Ev@Base 4:4.3.4
 _ZN6Kopete13StatusMessageaSERKS0_@Base 4:4.3.4
 _ZN6Kopete13WalletManager10openWalletEP7QObjectPKc@Base 4:4.3.4
 _ZN6Kopete13WalletManager10walletLostEv@Base 4:4.3.4
 _ZN6Kopete13WalletManager11closeWalletEv@Base 4:4.3.4
 _ZN6Kopete13WalletManager11qt_metacallEN11QMetaObject4CallEiPPv@Base 4:4.3.4
 _ZN6Kopete13WalletManager11qt_metacastEPKc@Base 4:4.3.4
 _ZN6Kopete13WalletManager15openWalletInnerEv@Base 4:4.3.4
 _ZN6Kopete13WalletManager16emitWalletOpenedEPN7KWallet6WalletE@Base 4:4.3.4
 _ZN6Kopete13WalletManager16staticMetaObjectE@Base 4:4.3.4
 _ZN6Kopete13WalletManager22slotGiveExistingWalletEv@Base 4:4.3.4
 _ZN6Kopete13WalletManager23slotWalletChangedStatusEv@Base 4:4.3.4
 _ZN6Kopete13WalletManager4selfEv@Base 4:4.3.4
 _ZN6Kopete13WalletManagerC1Ev@Base 4:4.3.4
 _ZN6Kopete13WalletManagerC2Ev@Base 4:4.3.4
 _ZN6Kopete13WalletManagerD0Ev@Base 4:4.3.4
 _ZN6Kopete13WalletManagerD1Ev@Base 4:4.3.4
 _ZN6Kopete13WalletManagerD2Ev@Base 4:4.3.4
 _ZN6Kopete13photoFromKABCERK7QString@Base 4:4.3.4
 _ZN6Kopete14AccountManager11findAccountERK7QStringS3_@Base 4:4.3.4
 _ZN6Kopete14AccountManager11qt_metacallEN11QMetaObject4CallEiPPv@Base 4:4.3.4
 _ZN6Kopete14AccountManager11qt_metacastEPKc@Base 4:4.3.4
 _ZN6Kopete14AccountManager13removeAccountEPNS_7AccountE@Base 4:4.3.4
 _ZN6Kopete14AccountManager15registerAccountEPNS_7AccountE@Base 4:4.3.4
 _ZN6Kopete14AccountManager15setOnlineStatusEjRKNS_13StatusMessageEj@Base 4:4.3.4
 _ZN6Kopete14AccountManager15setOnlineStatusEjRKNS_13StatusMessageEjb@Base 4:4.6.1
 _ZN6Kopete14AccountManager16networkConnectedEv@Base 4:4.3.4
 _ZN6Kopete14AccountManager16setStatusMessageERK7QString@Base 4:4.3.4
 _ZN6Kopete14AccountManager16slotPluginLoadedEPNS_6PluginE@Base 4:4.3.4
 _ZN6Kopete14AccountManager16staticMetaObjectE@Base 4:4.3.4
 _ZN6Kopete14AccountManager17accountRegisteredEPNS_7AccountE@Base 4:4.3.4
 _ZN6Kopete14AccountManager17unregisterAccountEPKNS_7AccountE@Base 4:4.3.4
 _ZN6Kopete14AccountManager19accountUnregisteredEPKNS_7AccountE@Base 4:4.3.4
 _ZN6Kopete14AccountManager19networkDisconnectedEv@Base 4:4.3.4
 _ZN6Kopete14AccountManager21removeAccountInternalEv@Base 4:4.3.4
 _ZN6Kopete14AccountManager26accountOnlineStatusChangedEPNS_7AccountERKNS_12OnlineStatusES5_@Base 4:4.3.4
 _ZN6Kopete14AccountManager29removeAccountConnectedChangedEv@Base 4:4.3.4
 _ZN6Kopete14AccountManager30slotAccountOnlineStatusChangedEPNS_7ContactERKNS_12OnlineStatusES5_@Base 4:4.3.4
 _ZN6Kopete14AccountManager4loadEv@Base 4:4.3.4
 _ZN6Kopete14AccountManager4saveEv@Base 4:4.3.4
 _ZN6Kopete14AccountManager4selfEv@Base 4:4.3.4
 _ZN6Kopete14AccountManager6s_selfE@Base 4:4.3.4
 _ZN6Kopete14AccountManagerC1Ev@Base 4:4.3.4
 _ZN6Kopete14AccountManagerC2Ev@Base 4:4.3.4
 _ZN6Kopete14AccountManagerD0Ev@Base 4:4.3.4
 _ZN6Kopete14AccountManagerD1Ev@Base 4:4.3.4
 _ZN6Kopete14AccountManagerD2Ev@Base 4:4.3.4
 _ZN6Kopete14AddedInfoEvent11addDialogOkEv@Base 4:4.3.4
 _ZN6Kopete14AddedInfoEvent11qt_metacallEN11QMetaObject4CallEiPPv@Base 4:4.3.4
 _ZN6Kopete14AddedInfoEvent11qt_metacastEPKc@Base 4:4.3.4
 _ZN6Kopete14AddedInfoEvent11showActionsE6QFlagsINS0_10ShowActionEE@Base 4:4.3.4
 _ZN6Kopete14AddedInfoEvent13addDialogInfoEv@Base 4:4.3.4
 _ZN6Kopete14AddedInfoEvent16staticMetaObjectE@Base 4:4.3.4
 _ZN6Kopete14AddedInfoEvent17addDialogFinishedEv@Base 4:4.3.4
 _ZN6Kopete14AddedInfoEvent18setContactNicknameERK7QString@Base 4:4.3.4
 _ZN6Kopete14AddedInfoEvent8activateEj@Base 4:4.3.4
 _ZN6Kopete14AddedInfoEvent9sendEventEv@Base 4:4.3.4
 _ZN6Kopete14AddedInfoEventC1ERK7QStringPNS_7AccountE@Base 4:4.3.4
 _ZN6Kopete14AddedInfoEventC2ERK7QStringPNS_7AccountE@Base 4:4.3.4
 _ZN6Kopete14AddedInfoEventD0Ev@Base 4:4.3.4
 _ZN6Kopete14AddedInfoEventD1Ev@Base 4:4.3.4
 _ZN6Kopete14AddedInfoEventD2Ev@Base 4:4.3.4
 _ZN6Kopete14AvatarQueryJob11qt_metacallEN11QMetaObject4CallEiPPv@Base 4:4.3.4
 _ZN6Kopete14AvatarQueryJob11qt_metacastEPKc@Base 4:4.3.4
 _ZN6Kopete14AvatarQueryJob14setQueryFilterE6QFlagsINS_13AvatarManager18AvatarCategoryTypeEE@Base 4:4.3.4
 _ZN6Kopete14AvatarQueryJob16staticMetaObjectE@Base 4:4.3.4
 _ZN6Kopete14AvatarQueryJob5startEv@Base 4:4.3.4
 _ZN6Kopete14AvatarQueryJob7Private19listAvatarDirectoryERK7QString@Base 4:4.3.4
 _ZN6Kopete14AvatarQueryJobC1EP7QObject@Base 4:4.3.4
 _ZN6Kopete14AvatarQueryJobC2EP7QObject@Base 4:4.3.4
 _ZN6Kopete14AvatarQueryJobD0Ev@Base 4:4.3.4
 _ZN6Kopete14AvatarQueryJobD1Ev@Base 4:4.3.4
 _ZN6Kopete14AvatarQueryJobD2Ev@Base 4:4.3.4
 _ZN6Kopete14CommandHandler11addCommandsER10QMultiHashI7QStringPNS_7CommandEES6_NS0_11CommandTypeE@Base 4:4.3.4
 _ZN6Kopete14CommandHandler11qt_metacallEN11QMetaObject4CallEiPPv@Base 4:4.3.4
 _ZN6Kopete14CommandHandler11qt_metacastEPKc@Base 4:4.3.4
 _ZN6Kopete14CommandHandler13registerAliasEP7QObjectRK7QStringS5_S5_NS0_11CommandTypeEjiRK9KShortcutS5_@Base 4:4.3.4
 _ZN6Kopete14CommandHandler14commandHandledERK7QString@Base 4:4.3.4
 _ZN6Kopete14CommandHandler14commandHandlerEv@Base 4:4.3.4
 _ZN6Kopete14CommandHandler14parseArgumentsERK7QString@Base 4:4.3.4
 _ZN6Kopete14CommandHandler14processMessageERK7QStringPNS_11ChatSessionE@Base 4:4.3.4
 _ZN6Kopete14CommandHandler14processMessageERNS_7MessageEPNS_11ChatSessionE@Base 4:4.3.4
 _ZN6Kopete14CommandHandler14slotSayCommandERK7QStringPNS_11ChatSessionE@Base 4:4.3.4
 _ZN6Kopete14CommandHandler15registerCommandEP7QObjectRK7QStringPKcS5_jiRK9KShortcutS5_@Base 4:4.3.4
 _ZN6Kopete14CommandHandler15slotAwayCommandERK7QStringPNS_11ChatSessionE@Base 4:4.3.4
 _ZN6Kopete14CommandHandler15slotExecCommandERK7QStringPNS_11ChatSessionE@Base 4:4.3.4
 _ZN6Kopete14CommandHandler15slotHelpCommandERK7QStringPNS_11ChatSessionE@Base 4:4.3.4
 _ZN6Kopete14CommandHandler15slotOpenLastUrlERK7QStringPNS_11ChatSessionE@Base 4:4.4.1
 _ZN6Kopete14CommandHandler15slotPartCommandERK7QStringPNS_11ChatSessionE@Base 4:4.3.4
 _ZN6Kopete14CommandHandler15slotViewCreatedEP10KopeteView@Base 4:4.3.4
 _ZN6Kopete14CommandHandler15unregisterAliasEP7QObjectRK7QString@Base 4:4.3.4
 _ZN6Kopete14CommandHandler16slotClearCommandERK7QStringPNS_11ChatSessionE@Base 4:4.3.4
 _ZN6Kopete14CommandHandler16slotCloseCommandERK7QStringPNS_11ChatSessionE@Base 4:4.3.4
 _ZN6Kopete14CommandHandler16slotExecFinishedEP9K3Process@Base 4:4.3.4
 _ZN6Kopete14CommandHandler16slotPluginLoadedEPNS_6PluginE@Base 4:4.3.4
 _ZN6Kopete14CommandHandler16staticMetaObjectE@Base 4:4.3.4
 _ZN6Kopete14CommandHandler17unregisterCommandEP7QObjectRK7QString@Base 4:4.3.4
 _ZN6Kopete14CommandHandler18slotAwayAllCommandERK7QStringPNS_11ChatSessionE@Base 4:4.3.4
 _ZN6Kopete14CommandHandler19slotPluginDestroyedEP7QObject@Base 4:4.3.4
 _ZN6Kopete14CommandHandler1pE@Base 4:4.3.4
 _ZN6Kopete14CommandHandler20slotExecReturnedDataEP9K3ProcessPci@Base 4:4.3.4
 _ZN6Kopete14CommandHandler24commandHandledByProtocolERK7QStringPNS_8ProtocolE@Base 4:4.3.4
 _ZN6Kopete14CommandHandler8commandsEPNS_8ProtocolE@Base 4:4.3.4
 _ZN6Kopete14CommandHandlerC1Ev@Base 4:4.3.4
 _ZN6Kopete14CommandHandlerC2Ev@Base 4:4.3.4
 _ZN6Kopete14CommandHandlerD0Ev@Base 4:4.3.4
 _ZN6Kopete14CommandHandlerD1Ev@Base 4:4.3.4
 _ZN6Kopete14CommandHandlerD2Ev@Base 4:4.3.4
 _ZN6Kopete14MessageHandler11qt_metacallEN11QMetaObject4CallEiPPv@Base 4:4.3.4
 _ZN6Kopete14MessageHandler11qt_metacastEPKc@Base 4:4.3.4
 _ZN6Kopete14MessageHandler12capabilitiesEv@Base 4:4.3.4
 _ZN6Kopete14MessageHandler13handleMessageEPNS_12MessageEventE@Base 4:4.3.4
 _ZN6Kopete14MessageHandler15messageAcceptedEPNS_12MessageEventE@Base 4:4.3.4
 _ZN6Kopete14MessageHandler16staticMetaObjectE@Base 4:4.3.4
 _ZN6Kopete14MessageHandler21handleMessageInternalEPNS_12MessageEventE@Base 4:4.3.4
 _ZN6Kopete14MessageHandler4nextEv@Base 4:4.3.4
 _ZN6Kopete14MessageHandler7setNextEPS0_@Base 4:4.3.4
 _ZN6Kopete14MessageHandlerC1Ev@Base 4:4.3.4
 _ZN6Kopete14MessageHandlerC2Ev@Base 4:4.3.4
 _ZN6Kopete14MessageHandlerD0Ev@Base 4:4.3.4
 _ZN6Kopete14MessageHandlerD1Ev@Base 4:4.3.4
 _ZN6Kopete14MessageHandlerD2Ev@Base 4:4.3.4
 _ZN6Kopete14StatusSettings4selfEv@Base 4:4.3.4
 _ZN6Kopete14StatusSettingsC1Ev@Base 4:4.3.4
 _ZN6Kopete14StatusSettingsC2Ev@Base 4:4.3.4
 _ZN6Kopete14StatusSettingsD0Ev@Base 4:4.3.4
 _ZN6Kopete14StatusSettingsD1Ev@Base 4:4.3.4
 _ZN6Kopete14StatusSettingsD2Ev@Base 4:4.3.4
 _ZN6Kopete15ContactTaskBase10setContactEPNS_7ContactE@Base 4:4.3.4
 _ZN6Kopete15ContactTaskBase11qt_metacallEN11QMetaObject4CallEiPPv@Base 4:4.3.4
 _ZN6Kopete15ContactTaskBase11qt_metacastEPKc@Base 4:4.3.4
 _ZN6Kopete15ContactTaskBase16staticMetaObjectE@Base 4:4.3.4
 _ZN6Kopete15ContactTaskBase7contactEv@Base 4:4.3.4
 _ZN6Kopete15ContactTaskBaseC1EP7QObject@Base 4:4.3.4
 _ZN6Kopete15ContactTaskBaseC2EP7QObject@Base 4:4.3.4
 _ZN6Kopete15ContactTaskBaseD0Ev@Base 4:4.3.4
 _ZN6Kopete15ContactTaskBaseD1Ev@Base 4:4.3.4
 _ZN6Kopete15ContactTaskBaseD2Ev@Base 4:4.3.4
 _ZN6Kopete15IdentityManager11qt_metacallEN11QMetaObject4CallEiPPv@Base 4:4.3.4
 _ZN6Kopete15IdentityManager11qt_metacastEPKc@Base 4:4.3.4
 _ZN6Kopete15IdentityManager12findIdentityERK7QString@Base 4:4.3.4
 _ZN6Kopete15IdentityManager14removeIdentityEPNS_8IdentityE@Base 4:4.3.4
 _ZN6Kopete15IdentityManager15defaultIdentityEv@Base 4:4.3.4
 _ZN6Kopete15IdentityManager15setOnlineStatusEjRKNS_13StatusMessageEj@Base 4:4.3.4
 _ZN6Kopete15IdentityManager16registerIdentityEPNS_8IdentityE@Base 4:4.3.4
 _ZN6Kopete15IdentityManager16staticMetaObjectE@Base 4:4.3.4
 _ZN6Kopete15IdentityManager18identityRegisteredEPNS_8IdentityE@Base 4:4.3.4
 _ZN6Kopete15IdentityManager18setDefaultIdentityEPNS_8IdentityE@Base 4:4.3.4
 _ZN6Kopete15IdentityManager18unregisterIdentityEPKNS_8IdentityE@Base 4:4.3.4
 _ZN6Kopete15IdentityManager20identityUnregisteredEPKNS_8IdentityE@Base 4:4.3.4
 _ZN6Kopete15IdentityManager22defaultIdentityChangedEPNS_8IdentityE@Base 4:4.3.4
 _ZN6Kopete15IdentityManager27identityOnlineStatusChangedEPNS_8IdentityE@Base 4:4.3.4
 _ZN6Kopete15IdentityManager31slotIdentityOnlineStatusChangedEPNS_8IdentityE@Base 4:4.3.4
 _ZN6Kopete15IdentityManager4loadEv@Base 4:4.3.4
 _ZN6Kopete15IdentityManager4saveEv@Base 4:4.3.4
 _ZN6Kopete15IdentityManager4selfEv@Base 4:4.3.4
 _ZN6Kopete15IdentityManager6s_selfE@Base 4:4.3.4
 _ZN6Kopete15IdentityManagerC1Ev@Base 4:4.3.4
 _ZN6Kopete15IdentityManagerC2Ev@Base 4:4.3.4
 _ZN6Kopete15IdentityManagerD0Ev@Base 4:4.3.4
 _ZN6Kopete15IdentityManagerD1Ev@Base 4:4.3.4
 _ZN6Kopete15IdentityManagerD2Ev@Base 4:4.3.4
 _ZN6Kopete15KABCPersistence10removeKABCEPNS_11MetaContactE@Base 4:4.3.4
 _ZN6Kopete15KABCPersistence10splitFieldERK7QStringRS1_S4_S4_@Base 4:4.3.4
 _ZN6Kopete15KABCPersistence11addressBookEv@Base 4:4.3.4
 _ZN6Kopete15KABCPersistence11qt_metacallEN11QMetaObject4CallEiPPv@Base 4:4.3.4
 _ZN6Kopete15KABCPersistence11qt_metacastEPKc@Base 4:4.3.4
 _ZN6Kopete15KABCPersistence12syncWithKABCEPNS_11MetaContactE@Base 4:4.3.4
 _ZN6Kopete15KABCPersistence16staticMetaObjectE@Base 4:4.3.4
 _ZN6Kopete15KABCPersistence16writeAddressBookEPN4KABC8ResourceE@Base 4:4.3.4
 _ZN6Kopete15KABCPersistence20slotWriteAddressBookEv@Base 4:4.3.4
 _ZN6Kopete15KABCPersistence4selfEv@Base 4:4.3.4
 _ZN6Kopete15KABCPersistence5writeEPNS_11MetaContactE@Base 4:4.3.4
 _ZN6Kopete15KABCPersistence7Private13s_addressBookE@Base 4:4.3.4
 _ZN6Kopete15KABCPersistenceC1EP7QObjectPKc@Base 4:4.3.4
 _ZN6Kopete15KABCPersistenceC2EP7QObjectPKc@Base 4:4.3.4
 _ZN6Kopete15KABCPersistenceD0Ev@Base 4:4.3.4
 _ZN6Kopete15KABCPersistenceD1Ev@Base 4:4.3.4
 _ZN6Kopete15KABCPersistenceD2Ev@Base 4:4.3.4
 _ZN6Kopete15MimeTypeHandler11dispatchURLERK4KUrl@Base 4:4.3.4
 _ZN6Kopete15MimeTypeHandler17dispatchToHandlerERK4KUrlRK7QStringPS0_@Base 4:4.3.4
 _ZN6Kopete15MimeTypeHandler21registerAsMimeHandlerERK7QString@Base 4:4.3.4
 _ZN6Kopete15MimeTypeHandler25registerAsProtocolHandlerERK7QString@Base 4:4.3.4
 _ZN6Kopete15MimeTypeHandlerC1Eb@Base 4:4.3.4
 _ZN6Kopete15MimeTypeHandlerC2Eb@Base 4:4.3.4
 _ZN6Kopete15MimeTypeHandlerD0Ev@Base 4:4.3.4
 _ZN6Kopete15MimeTypeHandlerD1Ev@Base 4:4.3.4
 _ZN6Kopete15MimeTypeHandlerD2Ev@Base 4:4.3.4
 _ZN6Kopete15TransferManager11addTransferEPNS_7ContactERK11QStringListmRK7QStringNS_16FileTransferInfo23KopeteTransferDirectionE@Base 4:4.3.4
 _ZN6Kopete15TransferManager11addTransferEPNS_7ContactERK7QStringmS5_NS_16FileTransferInfo23KopeteTransferDirectionE@Base 4:4.3.4
 _ZN6Kopete15TransferManager11qt_metacallEN11QMetaObject4CallEiPPv@Base 4:4.3.4
 _ZN6Kopete15TransferManager11qt_metacastEPKc@Base 4:4.3.4
 _ZN6Kopete15TransferManager12slotCompleteEP4KJob@Base 4:4.3.4
 _ZN6Kopete15TransferManager14removeTransferEj@Base 4:4.3.4
 _ZN6Kopete15TransferManager15askIncomingDoneEj@Base 4:4.3.4
 _ZN6Kopete15TransferManager15transferManagerEv@Base 4:4.3.4
 _ZN6Kopete15TransferManager16staticMetaObjectE@Base 4:4.3.4
 _ZN6Kopete15TransferManager19askIncomingTransferEPNS_7ContactERK11QStringListmRK7QStringS6_RK7QPixmap@Base 4:4.3.4
 _ZN6Kopete15TransferManager19askIncomingTransferEPNS_7ContactERK7QStringmS5_S3_RK7QPixmap@Base 4:4.3.4
 _ZN6Kopete15TransferManager20saveIncomingTransferEj@Base 4:4.3.4
 _ZN6Kopete15TransferManager22cancelIncomingTransferEj@Base 4:4.3.4
 _ZN6Kopete15TransferManager4doneEPNS_8TransferE@Base 4:4.3.4
 _ZN6Kopete15TransferManager7refusedERKNS_16FileTransferInfoE@Base 4:4.3.4
 _ZN6Kopete15TransferManager8acceptedEPNS_8TransferERK7QString@Base 4:4.3.4
 _ZN6Kopete15TransferManager8canceledEPNS_8TransferE@Base 4:4.3.4
 _ZN6Kopete15TransferManager8sendFileERK4KUrlRK7QStringj@Base 4:4.3.4
 _ZN6Kopete15TransferManager8sendFileERK4KUrlRK7QStringmbP7QObjectPKc@Base 4:4.3.4
 _ZN6Kopete15TransferManagerC1EP7QObject@Base 4:4.3.4
 _ZN6Kopete15TransferManagerC2EP7QObject@Base 4:4.3.4
 _ZN6Kopete15nameFromContactEPNS_7ContactE@Base 4:4.3.4
 _ZN6Kopete16BehaviorSettings4selfEv@Base 4:4.3.4
 _ZN6Kopete16BehaviorSettingsC1Ev@Base 4:4.3.4
 _ZN6Kopete16BehaviorSettingsC2Ev@Base 4:4.3.4
 _ZN6Kopete16BehaviorSettingsD0Ev@Base 4:4.3.4
 _ZN6Kopete16BehaviorSettingsD1Ev@Base 4:4.3.4
 _ZN6Kopete16BehaviorSettingsD2Ev@Base 4:4.3.4
 _ZN6Kopete16FileTransferInfoC1EPNS_7ContactERK11QStringListmRK7QStringNS0_23KopeteTransferDirectionEjS6_RK7QPixmapb@Base 4:4.3.4
 _ZN6Kopete16FileTransferInfoC1Ev@Base 4:4.3.4
 _ZN6Kopete16FileTransferInfoC2EPNS_7ContactERK11QStringListmRK7QStringNS0_23KopeteTransferDirectionEjS6_RK7QPixmapb@Base 4:4.3.4
 _ZN6Kopete16FileTransferInfoC2Ev@Base 4:4.3.4
 _ZN6Kopete16InfoEventManager10eventAddedEPNS_9InfoEventE@Base 4:4.3.4
 _ZN6Kopete16InfoEventManager11eventClosedEPNS_9InfoEventE@Base 4:4.3.4
 _ZN6Kopete16InfoEventManager11qt_metacallEN11QMetaObject4CallEiPPv@Base 4:4.3.4
 _ZN6Kopete16InfoEventManager11qt_metacastEPKc@Base 4:4.3.4
 _ZN6Kopete16InfoEventManager16staticMetaObjectE@Base 4:4.3.4
 _ZN6Kopete16InfoEventManager19eventAboutToBeAddedEPNS_9InfoEventE@Base 4:4.4.1
 _ZN6Kopete16InfoEventManager4selfEv@Base 4:4.3.4
 _ZN6Kopete16InfoEventManager7changedEv@Base 4:4.3.4
 _ZN6Kopete16InfoEventManager8addEventEPNS_9InfoEventE@Base 4:4.3.4
 _ZN6Kopete16InfoEventManager8instanceE@Base 4:4.3.4
 _ZN6Kopete16InfoEventManagerC1Ev@Base 4:4.3.4
 _ZN6Kopete16InfoEventManagerC2Ev@Base 4:4.3.4
 _ZN6Kopete16InfoEventManagerD0Ev@Base 4:4.3.4
 _ZN6Kopete16InfoEventManagerD1Ev@Base 4:4.3.4
 _ZN6Kopete16InfoEventManagerD2Ev@Base 4:4.3.4
 _ZN6Kopete16photoFromContactEPNS_7ContactE@Base 4:4.3.4
 _ZN6Kopete17DeleteContactTask10slotResultEP4KJob@Base 4:4.3.4
 _ZN6Kopete17DeleteContactTask11qt_metacallEN11QMetaObject4CallEiPPv@Base 4:4.3.4
 _ZN6Kopete17DeleteContactTask11qt_metacastEPKc@Base 4:4.3.4
 _ZN6Kopete17DeleteContactTask16staticMetaObjectE@Base 4:4.3.4
 _ZN6Kopete17DeleteContactTask5startEv@Base 4:4.3.4
 _ZN6Kopete17DeleteContactTaskC1EP7QObject@Base 4:4.3.4
 _ZN6Kopete17DeleteContactTaskC1EPNS_7ContactE@Base 4:4.3.4
 _ZN6Kopete17DeleteContactTaskC2EP7QObject@Base 4:4.3.4
 _ZN6Kopete17DeleteContactTaskC2EPNS_7ContactE@Base 4:4.3.4
 _ZN6Kopete17DeleteContactTaskD0Ev@Base 4:4.3.4
 _ZN6Kopete17DeleteContactTaskD1Ev@Base 4:4.3.4
 _ZN6Kopete17DeleteContactTaskD2Ev@Base 4:4.3.4
 (optional=gccinternal)_ZN6Kopete17FileEngineHandlerD0Ev@Base 4:4.6.5
 (optional=gccinternal)_ZN6Kopete17FileEngineHandlerD1Ev@Base 4:4.6.5
 (optional=gccinternal)_ZN6Kopete17FileEngineHandlerD2Ev@Base 4:4.6.5
 _ZN6Kopete17PasswordedAccount11qt_metacallEN11QMetaObject4CallEiPPv@Base 4:4.3.4
 _ZN6Kopete17PasswordedAccount11qt_metacastEPKc@Base 4:4.3.4
 _ZN6Kopete17PasswordedAccount12disconnectedENS_7Account16DisconnectReasonE@Base 4:4.3.4
 _ZN6Kopete17PasswordedAccount13initialStatusEv@Base 4:4.3.4
 _ZN6Kopete17PasswordedAccount13removeAccountEv@Base 4:4.3.4
 _ZN6Kopete17PasswordedAccount14passwordPromptEv@Base 4:4.3.4
 _ZN6Kopete17PasswordedAccount16staticMetaObjectE@Base 4:4.3.4
 _ZN6Kopete17PasswordedAccount7connectERKNS_12OnlineStatusE@Base 4:4.3.4
 _ZN6Kopete17PasswordedAccount7connectEv@Base 4:4.3.4
 _ZN6Kopete17PasswordedAccount8passwordEv@Base 4:4.3.4
 _ZN6Kopete17PasswordedAccountC1EPNS_8ProtocolERK7QStringb@Base 4:4.3.4
 _ZN6Kopete17PasswordedAccountC2EPNS_8ProtocolERK7QStringb@Base 4:4.3.4
 _ZN6Kopete17PasswordedAccountD0Ev@Base 4:4.3.4
 _ZN6Kopete17PasswordedAccountD1Ev@Base 4:4.3.4
 _ZN6Kopete17PasswordedAccountD2Ev@Base 4:4.3.4
 _ZN6Kopete17PropertyContainer11qt_metacallEN11QMetaObject4CallEiPPv@Base 4:4.3.4
 _ZN6Kopete17PropertyContainer11qt_metacastEPKc@Base 4:4.3.4
 _ZN6Kopete17PropertyContainer11setPropertyERKNS_12PropertyTmplERK8QVariant@Base 4:4.3.4
 _ZN6Kopete17PropertyContainer14removePropertyERKNS_12PropertyTmplE@Base 4:4.3.4
 _ZN6Kopete17PropertyContainer15propertyChangedEPS0_RK7QStringRK8QVariantS7_@Base 4:4.3.4
 _ZN6Kopete17PropertyContainer16staticMetaObjectE@Base 4:4.3.4
 _ZN6Kopete17PropertyContainer21deserializePropertiesERK4QMapI7QStringS2_E@Base 4:4.3.4
 _ZN6Kopete17PropertyContainerC1EP7QObject@Base 4:4.3.4
 _ZN6Kopete17PropertyContainerC2EP7QObject@Base 4:4.3.4
 _ZN6Kopete17PropertyContainerD0Ev@Base 4:4.3.4
 _ZN6Kopete17PropertyContainerD1Ev@Base 4:4.3.4
 _ZN6Kopete17PropertyContainerD2Ev@Base 4:4.3.4
 _ZN6Kopete17XmlContactStorage10parseGroupEPNS_5GroupERK11QDomElement@Base 4:4.3.4
 _ZN6Kopete17XmlContactStorage13checkGroupIdsEv@Base 4:4.3.4
 _ZN6Kopete17XmlContactStorage16parseMetaContactEPNS_11MetaContactERK11QDomElement@Base 4:4.3.4
 _ZN6Kopete17XmlContactStorage23parseContactListElementEPNS_18ContactListElementERK11QDomElement@Base 4:4.3.4
 _ZN6Kopete17XmlContactStorage4loadEv@Base 4:4.3.4
 _ZN6Kopete17XmlContactStorage4saveEv@Base 4:4.3.4
 _ZN6Kopete17XmlContactStorageC1ERK7QString@Base 4:4.3.4
 _ZN6Kopete17XmlContactStorageC1Ev@Base 4:4.3.4
 _ZN6Kopete17XmlContactStorageC2ERK7QString@Base 4:4.3.4
 _ZN6Kopete17XmlContactStorageC2Ev@Base 4:4.3.4
 _ZN6Kopete17XmlContactStorageD0Ev@Base 4:4.3.4
 _ZN6Kopete17XmlContactStorageD1Ev@Base 4:4.3.4
 _ZN6Kopete17XmlContactStorageD2Ev@Base 4:4.3.4
 _ZN6Kopete18AppearanceSettings11qt_metacallEN11QMetaObject4CallEiPPv@Base 4:4.3.4
 _ZN6Kopete18AppearanceSettings11qt_metacastEPKc@Base 4:4.3.4
 _ZN6Kopete18AppearanceSettings14usrWriteConfigEv@Base 4:4.3.4
 _ZN6Kopete18AppearanceSettings16staticMetaObjectE@Base 4:4.3.4
 _ZN6Kopete18AppearanceSettings17appearanceChangedEv@Base 4:4.3.4
 _ZN6Kopete18AppearanceSettings23messageOverridesChangedEv@Base 4:4.3.4
 _ZN6Kopete18AppearanceSettings28contactListAppearanceChangedEv@Base 4:4.3.4
 _ZN6Kopete18AppearanceSettings4selfEv@Base 4:4.3.4
 _ZN6Kopete18AppearanceSettingsC1Ev@Base 4:4.3.4
 _ZN6Kopete18AppearanceSettingsC2Ev@Base 4:4.3.4
 _ZN6Kopete18AppearanceSettingsD0Ev@Base 4:4.3.4
 _ZN6Kopete18AppearanceSettingsD1Ev@Base 4:4.3.4
 _ZN6Kopete18AppearanceSettingsD2Ev@Base 4:4.3.4
 _ZN6Kopete18ChatSessionManager10activeViewEv@Base 4:4.3.4
 _ZN6Kopete18ChatSessionManager10createViewEPNS_11ChatSessionERK7QString@Base 4:4.3.4
 _ZN6Kopete18ChatSessionManager11aboutToSendERNS_7MessageE@Base 4:4.3.4
 _ZN6Kopete18ChatSessionManager11qt_metacallEN11QMetaObject4CallEiPPv@Base 4:4.3.4
 _ZN6Kopete18ChatSessionManager11qt_metacastEPKc@Base 4:4.3.4
 _ZN6Kopete18ChatSessionManager11readMessageEv@Base 4:4.3.4
 _ZN6Kopete18ChatSessionManager11viewClosingEP10KopeteView@Base 4:4.3.4
 _ZN6Kopete18ChatSessionManager11viewCreatedEP10KopeteView@Base 4:4.3.4
 _ZN6Kopete18ChatSessionManager12postNewEventEPNS_12MessageEventE@Base 4:4.3.4
 _ZN6Kopete18ChatSessionManager13removeSessionEPNS_11ChatSessionE@Base 4:4.3.4
 _ZN6Kopete18ChatSessionManager13viewActivatedEP10KopeteView@Base 4:4.3.4
 _ZN6Kopete18ChatSessionManager14aboutToDisplayERNS_7MessageE@Base 4:4.3.4
 _ZN6Kopete18ChatSessionManager14aboutToReceiveERNS_7MessageE@Base 4:4.3.4
 _ZN6Kopete18ChatSessionManager15findChatSessionEPKNS_7ContactE5QListIPS1_EPNS_8ProtocolE@Base 4:4.3.4
 _ZN6Kopete18ChatSessionManager15slotReadMessageEv@Base 4:4.3.4
 _ZN6Kopete18ChatSessionManager16staticMetaObjectE@Base 4:4.3.4
 _ZN6Kopete18ChatSessionManager18chatSessionCreatedEPNS_11ChatSessionE@Base 4:4.3.4
 _ZN6Kopete18ChatSessionManager19registerChatSessionEPNS_11ChatSessionE@Base 4:4.3.4
 _ZN6Kopete18ChatSessionManager4selfEv@Base 4:4.3.4
 _ZN6Kopete18ChatSessionManager6createEPKNS_7ContactE5QListIPS1_EPNS_8ProtocolENS_11ChatSession4FormE@Base 4:4.3.4
 _ZN6Kopete18ChatSessionManager6s_selfE@Base 4:4.3.4
 _ZN6Kopete18ChatSessionManager7displayERNS_7MessageEPNS_11ChatSessionE@Base 4:4.3.4
 _ZN6Kopete18ChatSessionManager8newEventEPNS_12MessageEventE@Base 4:4.3.4
 _ZN6Kopete18ChatSessionManager8sessionsEv@Base 4:4.3.4
 _ZN6Kopete18ChatSessionManagerC1EP7QObject@Base 4:4.3.4
 _ZN6Kopete18ChatSessionManagerC2EP7QObject@Base 4:4.3.4
 _ZN6Kopete18ChatSessionManagerD0Ev@Base 4:4.3.4
 _ZN6Kopete18ChatSessionManagerD1Ev@Base 4:4.3.4
 _ZN6Kopete18ChatSessionManagerD2Ev@Base 4:4.3.4
 _ZN6Kopete18ContactListElement10setLoadingEb@Base 4:4.3.4
 _ZN6Kopete18ContactListElement11iconChangedENS0_9IconStateERK7QString@Base 4:4.3.4
 _ZN6Kopete18ContactListElement11qt_metacallEN11QMetaObject4CallEiPPv@Base 4:4.3.4
 _ZN6Kopete18ContactListElement11qt_metacastEPKc@Base 4:4.3.4
 _ZN6Kopete18ContactListElement13setPluginDataEPNS_6PluginERK4QMapI7QStringS4_E@Base 4:4.3.4
 _ZN6Kopete18ContactListElement13setPluginDataEPNS_6PluginERK7QStringS5_@Base 4:4.3.4
 _ZN6Kopete18ContactListElement13setPluginDataERK7QStringRK4QMapIS1_S1_E@Base 4:4.3.4
 _ZN6Kopete18ContactListElement16setUseCustomIconEb@Base 4:4.3.4
 _ZN6Kopete18ContactListElement16staticMetaObjectE@Base 4:4.3.4
 _ZN6Kopete18ContactListElement17pluginDataChangedEv@Base 4:4.3.4
 _ZN6Kopete18ContactListElement20setPluginContactDataEPNS_6PluginERK5QListI4QMapI7QStringS5_EE@Base 4:4.3.4
 _ZN6Kopete18ContactListElement20useCustomIconChangedEb@Base 4:4.3.4
 _ZN6Kopete18ContactListElement21iconAppearanceChangedEv@Base 4:4.3.4
 _ZN6Kopete18ContactListElement22clearPluginContactDataEv@Base 4:4.3.4
 _ZN6Kopete18ContactListElement23appendPluginContactDataERK7QStringRK4QMapIS1_S1_E@Base 4:4.3.4
 _ZN6Kopete18ContactListElement7setIconERK7QStringNS0_9IconStateE@Base 4:4.3.4
 _ZN6Kopete18ContactListElementC1EP7QObject@Base 4:4.3.4
 _ZN6Kopete18ContactListElementC2EP7QObject@Base 4:4.3.4
 _ZN6Kopete18ContactListElementD0Ev@Base 4:4.3.4
 _ZN6Kopete18ContactListElementD1Ev@Base 4:4.3.4
 _ZN6Kopete18ContactListElementD2Ev@Base 4:4.3.4
 _ZN6Kopete18ContactListStorage14addMetaContactEPNS_11MetaContactE@Base 4:4.3.4
 _ZN6Kopete18ContactListStorage8addGroupEPNS_5GroupE@Base 4:4.3.4
 _ZN6Kopete18ContactListStorage9findGroupERK7QStringi@Base 4:4.3.4
 _ZN6Kopete18ContactListStorageC1Ev@Base 4:4.3.4
 _ZN6Kopete18ContactListStorageC2Ev@Base 4:4.3.4
 _ZN6Kopete18ContactListStorageD0Ev@Base 4:4.3.4
 _ZN6Kopete18ContactListStorageD1Ev@Base 4:4.3.4
 _ZN6Kopete18ContactListStorageD2Ev@Base 4:4.3.4
 _ZN6Kopete19OnlineStatusManager11fingerprintERKNS_12OnlineStatusERK7QStringi6QColorb@Base 4:4.3.4
 _ZN6Kopete19OnlineStatusManager11qt_metacallEN11QMetaObject4CallEiPPv@Base 4:4.3.4
 _ZN6Kopete19OnlineStatusManager11qt_metacastEPKc@Base 4:4.3.4
 _ZN6Kopete19OnlineStatusManager12iconsChangedEv@Base 4:4.3.4
 _ZN6Kopete19OnlineStatusManager16slotIconsChangedEv@Base 4:4.3.4
 _ZN6Kopete19OnlineStatusManager16staticMetaObjectE@Base 4:4.3.4
 _ZN6Kopete19OnlineStatusManager17pixmapForCategoryE6QFlagsINS0_8CategoryEE@Base 4:4.3.4
 _ZN6Kopete19OnlineStatusManager19cacheLookupByObjectERKNS_12OnlineStatusERK7QStringi6QColorb@Base 4:4.3.4
 _ZN6Kopete19OnlineStatusManager20registerOnlineStatusERKNS_12OnlineStatusE@Base 4:4.3.4
 _ZN6Kopete19OnlineStatusManager23cacheLookupByMimeSourceERK7QString@Base 4:4.3.4
 _ZN6Kopete19OnlineStatusManager4selfEv@Base 4:4.3.4
 _ZN6Kopete19OnlineStatusManagerC1Ev@Base 4:4.3.4
 _ZN6Kopete19OnlineStatusManagerC2Ev@Base 4:4.3.4
 _ZN6Kopete19OnlineStatusManagerD0Ev@Base 4:4.3.4
 _ZN6Kopete19OnlineStatusManagerD1Ev@Base 4:4.3.4
 _ZN6Kopete19OnlineStatusManagerD2Ev@Base 4:4.3.4
 _ZN6Kopete20SocketTimeoutWatcher11qt_metacallEN11QMetaObject4CallEiPPv@Base 4:4.3.4
 _ZN6Kopete20SocketTimeoutWatcher11qt_metacastEPKc@Base 4:4.3.4
 _ZN6Kopete20SocketTimeoutWatcher12bytesWrittenEv@Base 4:4.3.4
 _ZN6Kopete20SocketTimeoutWatcher15ackTimeoutCheckEv@Base 4:4.3.4
 _ZN6Kopete20SocketTimeoutWatcher16staticMetaObjectE@Base 4:4.3.4
 _ZN6Kopete20SocketTimeoutWatcher16watchedSocketSetE@Base 4:4.3.4
 _ZN6Kopete20SocketTimeoutWatcher5errorEN15QAbstractSocket11SocketErrorE@Base 4:4.3.4
 _ZN6Kopete20SocketTimeoutWatcher5watchEP15QAbstractSocketj@Base 4:4.3.4
 _ZN6Kopete20SocketTimeoutWatcher8errorIntEi@Base 4:4.3.4
 _ZN6Kopete20SocketTimeoutWatcherC1EP15QAbstractSocketj@Base 4:4.3.4
 _ZN6Kopete20SocketTimeoutWatcherC2EP15QAbstractSocketj@Base 4:4.3.4
 _ZN6Kopete20SocketTimeoutWatcherD0Ev@Base 4:4.3.4
 _ZN6Kopete20SocketTimeoutWatcherD1Ev@Base 4:4.3.4
 _ZN6Kopete20SocketTimeoutWatcherD2Ev@Base 4:4.3.4
 _ZN6Kopete21MessageHandlerFactory23messageHandlerFactoriesEv@Base 4:4.3.4
 _ZN6Kopete21MessageHandlerFactory7Private9factoriesEv@Base 4:4.3.4
 _ZN6Kopete21MessageHandlerFactoryC1Ev@Base 4:4.3.4
 _ZN6Kopete21MessageHandlerFactoryC2Ev@Base 4:4.3.4
 _ZN6Kopete21MessageHandlerFactoryD0Ev@Base 4:4.3.4
 _ZN6Kopete21MessageHandlerFactoryD1Ev@Base 4:4.3.4
 _ZN6Kopete21MessageHandlerFactoryD2Ev@Base 4:4.3.4
 _ZN6Kopete23EmoticonMimeTypeHandlerC1Ev@Base 4:4.3.4
 _ZN6Kopete23EmoticonMimeTypeHandlerC2Ev@Base 4:4.3.4
 (optional=gccinternal)_ZN6Kopete23EmoticonMimeTypeHandlerD0Ev@Base 4:4.6.5
 (optional=gccinternal)_ZN6Kopete23EmoticonMimeTypeHandlerD1Ev@Base 4:4.6.5
 (optional=gccinternal)_ZN6Kopete23EmoticonMimeTypeHandlerD2Ev@Base 4:4.6.5
 _ZN6Kopete27ChatSessionMembersListModel11qt_metacallEN11QMetaObject4CallEiPPv@Base 4:4.3.4
 _ZN6Kopete27ChatSessionMembersListModel11qt_metacastEPKc@Base 4:4.3.4
 _ZN6Kopete27ChatSessionMembersListModel14setChatSessionEPNS_11ChatSessionE@Base 4:4.3.4
 _ZN6Kopete27ChatSessionMembersListModel16slotContactAddedEPKNS_7ContactE@Base 4:4.3.4
 _ZN6Kopete27ChatSessionMembersListModel16staticMetaObjectE@Base 4:4.3.4
 _ZN6Kopete27ChatSessionMembersListModel17slotSessionClosedEv@Base 4:4.3.4
 _ZN6Kopete27ChatSessionMembersListModel18slotContactRemovedEPKNS_7ContactE@Base 4:4.3.4
 _ZN6Kopete27ChatSessionMembersListModel18slotSessionChangedEv@Base 4:4.3.4
 _ZN6Kopete27ChatSessionMembersListModel24slotContactStatusChangedEPNS_7ContactERKNS_12OnlineStatusE@Base 4:4.3.4
 _ZN6Kopete27ChatSessionMembersListModel26slotContactNickNameChangedEPNS_7ContactE@Base 4:4.3.4
 _ZN6Kopete27ChatSessionMembersListModel7sessionEv@Base 4:4.3.4
 _ZN6Kopete27ChatSessionMembersListModelC1EP7QObject@Base 4:4.3.4
 _ZN6Kopete27ChatSessionMembersListModelC2EP7QObject@Base 4:4.3.4
 _ZN6Kopete27ChatSessionMembersListModelD0Ev@Base 4:4.3.4
 _ZN6Kopete27ChatSessionMembersListModelD1Ev@Base 4:4.3.4
 _ZN6Kopete27ChatSessionMembersListModelD2Ev@Base 4:4.3.4
 _ZN6Kopete27SimpleMessageHandlerFactory14filterPositionEPNS_11ChatSessionENS_7Message16MessageDirectionE@Base 4:4.3.4
 _ZN6Kopete27SimpleMessageHandlerFactory6createEPNS_11ChatSessionENS_7Message16MessageDirectionE@Base 4:4.3.4
 _ZN6Kopete27SimpleMessageHandlerFactoryC1ENS_7Message16MessageDirectionEiP7QObjectPKc@Base 4:4.3.4
 _ZN6Kopete27SimpleMessageHandlerFactoryC2ENS_7Message16MessageDirectionEiP7QObjectPKc@Base 4:4.3.4
 _ZN6Kopete27SimpleMessageHandlerFactoryD0Ev@Base 4:4.3.4
 _ZN6Kopete27SimpleMessageHandlerFactoryD1Ev@Base 4:4.3.4
 _ZN6Kopete27SimpleMessageHandlerFactoryD2Ev@Base 4:4.3.4
 _ZN6Kopete2UI10InfoDialog10initializeEv@Base 4:4.3.4
 _ZN6Kopete2UI10InfoDialog11qt_metacallEN11QMetaObject4CallEiPPv@Base 4:4.3.4
 _ZN6Kopete2UI10InfoDialog11qt_metacastEPKc@Base 4:4.3.4
 _ZN6Kopete2UI10InfoDialog16staticMetaObjectE@Base 4:4.3.4
 _ZN6Kopete2UI10InfoDialog7setIconERK5KIcon@Base 4:4.3.4
 _ZN6Kopete2UI10InfoDialog7setIconERK7QString@Base 4:4.3.4
 _ZN6Kopete2UI10InfoDialog8setTitleERK7QString@Base 4:4.3.4
 _ZN6Kopete2UI10InfoDialog8slotSaveEv@Base 4:4.3.4
 _ZN6Kopete2UI10InfoDialog9addWidgetEP7QWidgetRK7QString@Base 4:4.3.4
 _ZN6Kopete2UI10InfoDialogC1EP7QWidgetRK7QStringRK5KIcon@Base 4:4.3.4
 _ZN6Kopete2UI10InfoDialogC1EP7QWidgetRK7QStringS6_@Base 4:4.3.4
 _ZN6Kopete2UI10InfoDialogC2EP7QWidgetRK7QStringRK5KIcon@Base 4:4.3.4
 _ZN6Kopete2UI10InfoDialogC2EP7QWidgetRK7QStringS6_@Base 4:4.3.4
 _ZN6Kopete2UI10InfoDialogD0Ev@Base 4:4.3.4
 _ZN6Kopete2UI10InfoDialogD1Ev@Base 4:4.3.4
 _ZN6Kopete2UI10InfoDialogD2Ev@Base 4:4.3.4
 _ZN6Kopete2UI12AvatarDialog11qt_metacallEN11QMetaObject4CallEiPPv@Base 4:4.3.4
 _ZN6Kopete2UI12AvatarDialog11qt_metacastEPKc@Base 4:4.3.4
 _ZN6Kopete2UI12AvatarDialog16staticMetaObjectE@Base 4:4.3.4
 _ZN6Kopete2UI12AvatarDialog17slotButtonClickedEi@Base 4:4.3.4
 _ZN6Kopete2UI12AvatarDialog6resultEv@Base 4:4.3.4
 _ZN6Kopete2UI12AvatarDialog9getAvatarEP7QWidgetRK7QStringPb@Base 4:4.3.4
 _ZN6Kopete2UI12AvatarDialogC1EP7QWidget@Base 4:4.3.4
 _ZN6Kopete2UI12AvatarDialogC2EP7QWidget@Base 4:4.3.4
 _ZN6Kopete2UI12AvatarDialogD0Ev@Base 4:4.3.4
 _ZN6Kopete2UI12AvatarDialogD1Ev@Base 4:4.3.4
 _ZN6Kopete2UI12AvatarDialogD2Ev@Base 4:4.3.4
 _ZN6Kopete2UI13ContactAction11qt_metacallEN11QMetaObject4CallEiPPv@Base 4:4.3.4
 _ZN6Kopete2UI13ContactAction11qt_metacastEPKc@Base 4:4.3.4
 _ZN6Kopete2UI13ContactAction13slotTriggeredEb@Base 4:4.3.4
 _ZN6Kopete2UI13ContactAction16staticMetaObjectE@Base 4:4.3.4
 _ZN6Kopete2UI13ContactAction9triggeredEPNS_7ContactEb@Base 4:4.3.4
 _ZN6Kopete2UI13ContactAction9triggeredERK7QStringb@Base 4:4.3.4
 _ZN6Kopete2UI13ContactActionC1EPNS_7ContactEP17KActionCollection@Base 4:4.3.4
 _ZN6Kopete2UI13ContactActionC2EPNS_7ContactEP17KActionCollection@Base 4:4.3.4
 (optional=gccinternal)_ZN6Kopete2UI13ContactActionD0Ev@Base 4:4.6.5
 (optional=gccinternal)_ZN6Kopete2UI13ContactActionD1Ev@Base 4:4.6.5
 (optional=gccinternal)_ZN6Kopete2UI13ContactActionD2Ev@Base 4:4.6.5
 _ZN6Kopete2UI14PasswordWidget11qt_metacallEN11QMetaObject4CallEiPPv@Base 4:4.3.4
 _ZN6Kopete2UI14PasswordWidget11qt_metacastEPKc@Base 4:4.3.4
 _ZN6Kopete2UI14PasswordWidget11setPasswordERK7QString@Base 4:4.3.4
 _ZN6Kopete2UI14PasswordWidget15receivePasswordERK7QString@Base 4:4.3.4
 _ZN6Kopete2UI14PasswordWidget16staticMetaObjectE@Base 4:4.3.4
 _ZN6Kopete2UI14PasswordWidget19passwordTextChangedEv@Base 4:4.3.4
 _ZN6Kopete2UI14PasswordWidget19slotRememberChangedEv@Base 4:4.3.4
 _ZN6Kopete2UI14PasswordWidget21setValidationProtocolEPNS_8ProtocolE@Base 4:4.3.4
 _ZN6Kopete2UI14PasswordWidget4loadEPNS_8PasswordE@Base 4:4.3.4
 _ZN6Kopete2UI14PasswordWidget4saveEPNS_8PasswordE@Base 4:4.3.4
 _ZN6Kopete2UI14PasswordWidget7changedEv@Base 4:4.3.4
 _ZN6Kopete2UI14PasswordWidget8validateEv@Base 4:4.3.4
 _ZN6Kopete2UI14PasswordWidgetC1EP7QWidget@Base 4:4.3.4
 _ZN6Kopete2UI14PasswordWidgetC1EPNS_8PasswordEP7QWidget@Base 4:4.3.4
 _ZN6Kopete2UI14PasswordWidgetC2EP7QWidget@Base 4:4.3.4
 _ZN6Kopete2UI14PasswordWidgetC2EPNS_8PasswordEP7QWidget@Base 4:4.3.4
 _ZN6Kopete2UI14PasswordWidgetD0Ev@Base 4:4.3.4
 _ZN6Kopete2UI14PasswordWidgetD1Ev@Base 4:4.3.4
 _ZN6Kopete2UI14PasswordWidgetD2Ev@Base 4:4.3.4
 _ZN6Kopete2UI18AvatarWebcamDialog11qt_metacallEN11QMetaObject4CallEiPPv@Base 4:4.4.1
 _ZN6Kopete2UI18AvatarWebcamDialog11qt_metacastEPKc@Base 4:4.4.1
 _ZN6Kopete2UI18AvatarWebcamDialog11updateImageEv@Base 4:4.4.1
 _ZN6Kopete2UI18AvatarWebcamDialog13getLastPixmapEv@Base 4:4.4.1
 _ZN6Kopete2UI18AvatarWebcamDialog16staticMetaObjectE@Base 4:4.4.1
 _ZN6Kopete2UI18AvatarWebcamDialog17slotButtonClickedEi@Base 4:4.4.1
 _ZN6Kopete2UI18AvatarWebcamDialogC1EP7QWidget@Base 4:4.4.1
 _ZN6Kopete2UI18AvatarWebcamDialogC2EP7QWidget@Base 4:4.4.1
 _ZN6Kopete2UI18AvatarWebcamDialogD0Ev@Base 4:4.4.1
 _ZN6Kopete2UI18AvatarWebcamDialogD1Ev@Base 4:4.4.1
 _ZN6Kopete2UI18AvatarWebcamDialogD2Ev@Base 4:4.4.1
 _ZN6Kopete2UI20AvatarSelectorWidget11avatarAddedENS_13AvatarManager11AvatarEntryE@Base 4:4.3.4
 _ZN6Kopete2UI20AvatarSelectorWidget11qt_metacallEN11QMetaObject4CallEiPPv@Base 4:4.3.4
 _ZN6Kopete2UI20AvatarSelectorWidget11qt_metacastEPKc@Base 4:4.3.4
 _ZN6Kopete2UI20AvatarSelectorWidget13avatarRemovedENS_13AvatarManager11AvatarEntryE@Base 4:4.3.4
 _ZN6Kopete2UI20AvatarSelectorWidget16queryJobFinishedEP4KJob@Base 4:4.3.4
 _ZN6Kopete2UI20AvatarSelectorWidget16setCurrentAvatarERK7QString@Base 4:4.3.4
 _ZN6Kopete2UI20AvatarSelectorWidget16staticMetaObjectE@Base 4:4.3.4
 _ZN6Kopete2UI20AvatarSelectorWidget17cropAndSaveAvatarER7QPixmapRK7QString@Base 4:4.4.1
 _ZN6Kopete2UI20AvatarSelectorWidget20listSelectionChangedEP15QListWidgetItem@Base 4:4.3.4
 _ZN6Kopete2UI20AvatarSelectorWidget22buttonAddAvatarClickedEv@Base 4:4.3.4
 _ZN6Kopete2UI20AvatarSelectorWidget23buttonFromWebcamClickedEv@Base 4:4.4.1
 _ZN6Kopete2UI20AvatarSelectorWidget25buttonRemoveAvatarClickedEv@Base 4:4.3.4
 _ZN6Kopete2UI20AvatarSelectorWidget7Private7addItemENS_13AvatarManager11AvatarEntryE@Base 4:4.3.4
 _ZN6Kopete2UI20AvatarSelectorWidgetC1EP7QWidget@Base 4:4.3.4
 _ZN6Kopete2UI20AvatarSelectorWidgetC2EP7QWidget@Base 4:4.3.4
 _ZN6Kopete2UI20AvatarSelectorWidgetD0Ev@Base 4:4.3.4
 _ZN6Kopete2UI20AvatarSelectorWidgetD1Ev@Base 4:4.3.4
 _ZN6Kopete2UI20AvatarSelectorWidgetD2Ev@Base 4:4.3.4
 _ZN6Kopete2UI21AddressBookLinkWidget11qt_metacallEN11QMetaObject4CallEiPPv@Base 4:4.3.4
 _ZN6Kopete2UI21AddressBookLinkWidget11qt_metacastEPKc@Base 4:4.3.4
 _ZN6Kopete2UI21AddressBookLinkWidget12setAddresseeERKN4KABC9AddresseeE@Base 4:4.3.4
 _ZN6Kopete2UI21AddressBookLinkWidget14setMetaContactEPKNS_11MetaContactE@Base 4:4.3.4
 _ZN6Kopete2UI21AddressBookLinkWidget16addresseeChangedERKN4KABC9AddresseeE@Base 4:4.3.4
 _ZN6Kopete2UI21AddressBookLinkWidget16staticMetaObjectE@Base 4:4.3.4
 _ZN6Kopete2UI21AddressBookLinkWidget18slotClearAddresseeEv@Base 4:4.3.4
 _ZN6Kopete2UI21AddressBookLinkWidget19slotSelectAddresseeEv@Base 4:4.3.4
 _ZN6Kopete2UI21AddressBookLinkWidget22selectAddresseeClickedEv@Base 4:4.3.4
 _ZN6Kopete2UI21AddressBookLinkWidgetC1EP7QWidgetPKc@Base 4:4.3.4
 _ZN6Kopete2UI21AddressBookLinkWidgetC2EP7QWidgetPKc@Base 4:4.3.4
 _ZN6Kopete2UI24ContactAddedNotifyDialog11infoClickedERK7QString@Base 4:4.3.4
 _ZN6Kopete2UI24ContactAddedNotifyDialog11qt_metacallEN11QMetaObject4CallEiPPv@Base 4:4.3.4
 _ZN6Kopete2UI24ContactAddedNotifyDialog11qt_metacastEPKc@Base 4:4.3.4
 _ZN6Kopete2UI24ContactAddedNotifyDialog12applyClickedERK7QString@Base 4:4.3.4
 _ZN6Kopete2UI24ContactAddedNotifyDialog12slotFinishedEv@Base 4:4.3.4
 _ZN6Kopete2UI24ContactAddedNotifyDialog15slotInfoClickedEv@Base 4:4.3.4
 _ZN6Kopete2UI24ContactAddedNotifyDialog16staticMetaObjectE@Base 4:4.3.4
 _ZN6Kopete2UI24ContactAddedNotifyDialog21slotAddresseeSelectedERKN4KABC9AddresseeE@Base 4:4.3.4
 _ZN6Kopete2UI24ContactAddedNotifyDialogC1ERK7QStringS4_PNS_7AccountERK6QFlagsINS1_10HideWidgetEE@Base 4:4.3.4
 _ZN6Kopete2UI24ContactAddedNotifyDialogC2ERK7QStringS4_PNS_7AccountERK6QFlagsINS1_10HideWidgetEE@Base 4:4.3.4
 _ZN6Kopete2UI24ContactAddedNotifyDialogD0Ev@Base 4:4.3.4
 _ZN6Kopete2UI24ContactAddedNotifyDialogD1Ev@Base 4:4.3.4
 _ZN6Kopete2UI24ContactAddedNotifyDialogD2Ev@Base 4:4.3.4
 _ZN6Kopete2UI25AddressBookSelectorDialog11qt_metacallEN11QMetaObject4CallEiPPv@Base 4:4.3.4
 _ZN6Kopete2UI25AddressBookSelectorDialog11qt_metacastEPKc@Base 4:4.3.4
 _ZN6Kopete2UI25AddressBookSelectorDialog12getAddresseeERK7QStringS4_S4_P7QWidget@Base 4:4.3.4
 _ZN6Kopete2UI25AddressBookSelectorDialog16staticMetaObjectE@Base 4:4.3.4
 _ZN6Kopete2UI25AddressBookSelectorDialog30slotWidgetAddresseeListClickedEP14Q3ListViewItem@Base 4:4.3.4
 _ZN6Kopete2UI25AddressBookSelectorDialog6acceptEv@Base 4:4.3.4
 _ZN6Kopete2UI25AddressBookSelectorDialog6rejectEv@Base 4:4.3.4
 _ZN6Kopete2UI25AddressBookSelectorDialogC1ERK7QStringS4_S4_P7QWidget@Base 4:4.3.4
 _ZN6Kopete2UI25AddressBookSelectorDialogC2ERK7QStringS4_S4_P7QWidget@Base 4:4.3.4
 _ZN6Kopete2UI25AddressBookSelectorDialogD0Ev@Base 4:4.3.4
 _ZN6Kopete2UI25AddressBookSelectorDialogD1Ev@Base 4:4.3.4
 _ZN6Kopete2UI25AddressBookSelectorDialogD2Ev@Base 4:4.3.4
 _ZN6Kopete2UI25AddressBookSelectorWidget11qt_metacallEN11QMetaObject4CallEiPPv@Base 4:4.3.4
 _ZN6Kopete2UI25AddressBookSelectorWidget11qt_metacastEPKc@Base 4:4.3.4
 _ZN6Kopete2UI25AddressBookSelectorWidget15selectAddresseeERK7QString@Base 4:4.3.4
 _ZN6Kopete2UI25AddressBookSelectorWidget15setLabelMessageERK7QString@Base 4:4.3.4
 _ZN6Kopete2UI25AddressBookSelectorWidget16staticMetaObjectE@Base 4:4.3.4
 _ZN6Kopete2UI25AddressBookSelectorWidget17addresseeSelectedEv@Base 4:4.3.4
 _ZN6Kopete2UI25AddressBookSelectorWidget18slotLoadAddresseesEv@Base 4:4.3.4
 _ZN6Kopete2UI25AddressBookSelectorWidget19addAddresseeClickedEv@Base 4:4.3.4
 _ZN6Kopete2UI25AddressBookSelectorWidget20addresseeListClickedEP14Q3ListViewItem@Base 4:4.3.4
 _ZN6Kopete2UI25AddressBookSelectorWidget23slotAddAddresseeClickedEv@Base 4:4.3.4
 _ZN6Kopete2UI25AddressBookSelectorWidget9addresseeEv@Base 4:4.3.4
 _ZN6Kopete2UI25AddressBookSelectorWidgetC1EP7QWidgetPKc@Base 4:4.3.4
 _ZN6Kopete2UI25AddressBookSelectorWidgetC2EP7QWidgetPKc@Base 4:4.3.4
 _ZN6Kopete2UI25AddressBookSelectorWidgetD0Ev@Base 4:4.3.4
 _ZN6Kopete2UI25AddressBookSelectorWidgetD1Ev@Base 4:4.3.4
 _ZN6Kopete2UI25AddressBookSelectorWidgetD2Ev@Base 4:4.3.4
 _ZN6Kopete2UI25MetaContactSelectorWidget11metaContactEv@Base 4:4.3.4
 _ZN6Kopete2UI25MetaContactSelectorWidget11qt_metacallEN11QMetaObject4CallEiPPv@Base 4:4.3.4
 _ZN6Kopete2UI25MetaContactSelectorWidget11qt_metacastEPKc@Base 4:4.3.4
 _ZN6Kopete2UI25MetaContactSelectorWidget15setLabelMessageERK7QString@Base 4:4.3.4
 _ZN6Kopete2UI25MetaContactSelectorWidget16staticMetaObjectE@Base 4:4.3.4
 _ZN6Kopete2UI25MetaContactSelectorWidget17selectMetaContactEPNS_11MetaContactE@Base 4:4.3.4
 _ZN6Kopete2UI25MetaContactSelectorWidget18excludeMetaContactEPNS_11MetaContactE@Base 4:4.3.4
 _ZN6Kopete2UI25MetaContactSelectorWidget19metaContactSelectedEv@Base 4:4.3.4
 _ZN6Kopete2UI25MetaContactSelectorWidget20slotLoadMetaContactsEv@Base 4:4.3.4
 _ZN6Kopete2UI25MetaContactSelectorWidget22metaContactListClickedEP14Q3ListViewItem@Base 4:4.3.4
 _ZN6Kopete2UI25MetaContactSelectorWidgetC1EP7QWidgetPKc@Base 4:4.3.4
 _ZN6Kopete2UI25MetaContactSelectorWidgetC2EP7QWidgetPKc@Base 4:4.3.4
 _ZN6Kopete2UI25MetaContactSelectorWidgetD0Ev@Base 4:4.3.4
 _ZN6Kopete2UI25MetaContactSelectorWidgetD1Ev@Base 4:4.3.4
 _ZN6Kopete2UI25MetaContactSelectorWidgetD2Ev@Base 4:4.3.4
 _ZN6Kopete2UI6Global10mainWidgetEv@Base 4:4.3.4
 _ZN6Kopete2UI6Global13setMainWidgetEP7QWidget@Base 4:4.3.4
 _ZN6Kopete2UI8ListView10SearchLine11qt_metacallEN11QMetaObject4CallEiPPv@Base 4:4.3.4
 _ZN6Kopete2UI8ListView10SearchLine11qt_metacastEPKc@Base 4:4.3.4
 _ZN6Kopete2UI8ListView10SearchLine12updateSearchERK7QString@Base 4:4.3.4
 _ZN6Kopete2UI8ListView10SearchLine14setItemVisibleEP14Q3ListViewItemb@Base 4:4.3.4
 _ZN6Kopete2UI8ListView10SearchLine16staticMetaObjectE@Base 4:4.3.4
 _ZN6Kopete2UI8ListView10SearchLine23checkItemParentsVisibleEP14Q3ListViewItem@Base 4:4.3.4
 _ZN6Kopete2UI8ListView10SearchLine26checkItemParentsNotVisibleEv@Base 4:4.3.4
 _ZN6Kopete2UI8ListView10SearchLineC1EP7QWidgetPNS1_8ListViewE@Base 4:4.3.4
 _ZN6Kopete2UI8ListView10SearchLineC2EP7QWidgetPNS1_8ListViewE@Base 4:4.3.4
 _ZN6Kopete2UI8ListView10SearchLineD0Ev@Base 4:4.3.4
 _ZN6Kopete2UI8ListView10SearchLineD1Ev@Base 4:4.3.4
 _ZN6Kopete2UI8ListView10SearchLineD2Ev@Base 4:4.3.4
 _ZN6Kopete2UI8ListView12BoxComponent11calcMinSizeEv@Base 4:4.3.4
 _ZN6Kopete2UI8ListView12BoxComponent14componentAddedEPNS1_9ComponentE@Base 4:4.3.4
 _ZN6Kopete2UI8ListView12BoxComponent14heightForWidthEi@Base 4:4.3.4
 _ZN6Kopete2UI8ListView12BoxComponent14widthForHeightEi@Base 4:4.3.4
 _ZN6Kopete2UI8ListView12BoxComponent16componentRemovedEPNS1_9ComponentE@Base 4:4.3.4
 _ZN6Kopete2UI8ListView12BoxComponent16componentResizedEPNS1_9ComponentE@Base 4:4.3.4
 _ZN6Kopete2UI8ListView12BoxComponent4RTTIE@Base 4:4.3.4
 _ZN6Kopete2UI8ListView12BoxComponent6layoutERK5QRect@Base 4:4.3.4
 _ZN6Kopete2UI8ListView12BoxComponentC1EPNS1_13ComponentBaseENS2_9DirectionE@Base 4:4.3.4
 _ZN6Kopete2UI8ListView12BoxComponentC2EPNS1_13ComponentBaseENS2_9DirectionE@Base 4:4.3.4
 _ZN6Kopete2UI8ListView12BoxComponentD0Ev@Base 4:4.3.4
 _ZN6Kopete2UI8ListView12BoxComponentD1Ev@Base 4:4.3.4
 _ZN6Kopete2UI8ListView12BoxComponentD2Ev@Base 4:4.3.4
 _ZN6Kopete2UI8ListView13ComponentBase10componentsEv@Base 4:4.3.4
 _ZN6Kopete2UI8ListView13ComponentBase11componentAtERK6QPoint@Base 4:4.3.4
 _ZN6Kopete2UI8ListView13ComponentBase14componentAddedEPNS1_9ComponentE@Base 4:4.3.4
 _ZN6Kopete2UI8ListView13ComponentBase16componentRemovedEPNS1_9ComponentE@Base 4:4.3.4
 _ZN6Kopete2UI8ListView13ComponentBase16componentResizedEPNS1_9ComponentE@Base 4:4.3.4
 _ZN6Kopete2UI8ListView13ComponentBase23updateAnimationPositionEii@Base 4:4.3.4
 _ZN6Kopete2UI8ListView13ComponentBase5clearEv@Base 4:4.3.4
 _ZN6Kopete2UI8ListView13ComponentBase7toolTipERK6QPoint@Base 4:4.3.4
 _ZN6Kopete2UI8ListView13ComponentBase9componentEj@Base 4:4.3.4
 _ZN6Kopete2UI8ListView13ComponentBaseC1Ev@Base 4:4.3.4
 _ZN6Kopete2UI8ListView13ComponentBaseC2Ev@Base 4:4.3.4
 _ZN6Kopete2UI8ListView13ComponentBaseD0Ev@Base 4:4.3.4
 _ZN6Kopete2UI8ListView13ComponentBaseD1Ev@Base 4:4.3.4
 _ZN6Kopete2UI8ListView13ComponentBaseD2Ev@Base 4:4.3.4
 _ZN6Kopete2UI8ListView13TextComponent11calcMinSizeEv@Base 4:4.3.4
 _ZN6Kopete2UI8ListView13TextComponent14widthForHeightEi@Base 4:4.3.4
 _ZN6Kopete2UI8ListView13TextComponent15setDefaultColorEv@Base 4:4.3.4
 _ZN6Kopete2UI8ListView13TextComponent4RTTIE@Base 4:4.3.4
 _ZN6Kopete2UI8ListView13TextComponent4fontEv@Base 4:4.3.4
 _ZN6Kopete2UI8ListView13TextComponent4textEv@Base 4:4.3.4
 _ZN6Kopete2UI8ListView13TextComponent5colorEv@Base 4:4.3.4
 _ZN6Kopete2UI8ListView13TextComponent5paintEP8QPainterRK8QPalette@Base 4:4.3.4
 _ZN6Kopete2UI8ListView13TextComponent7setFontERK5QFont@Base 4:4.3.4
 _ZN6Kopete2UI8ListView13TextComponent7setTextERK7QString@Base 4:4.3.4
 _ZN6Kopete2UI8ListView13TextComponent8setColorERK6QColor@Base 4:4.3.4
 _ZN6Kopete2UI8ListView13TextComponentC1EPNS1_13ComponentBaseERK5QFontRK7QString@Base 4:4.3.4
 _ZN6Kopete2UI8ListView13TextComponentC2EPNS1_13ComponentBaseERK5QFontRK7QString@Base 4:4.3.4
 _ZN6Kopete2UI8ListView13TextComponentD0Ev@Base 4:4.3.4
 _ZN6Kopete2UI8ListView13TextComponentD1Ev@Base 4:4.3.4
 _ZN6Kopete2UI8ListView13TextComponentD2Ev@Base 4:4.3.4
 _ZN6Kopete2UI8ListView14ImageComponent4RTTIE@Base 4:4.3.4
 _ZN6Kopete2UI8ListView14ImageComponent5paintEP8QPainterRK8QPalette@Base 4:4.3.4
 _ZN6Kopete2UI8ListView14ImageComponent5scaleEiiN2Qt15AspectRatioModeE@Base 4:4.3.4
 _ZN6Kopete2UI8ListView14ImageComponent6pixmapEv@Base 4:4.3.4
 _ZN6Kopete2UI8ListView14ImageComponent9setPixmapERK7QPixmapb@Base 4:4.3.4
 _ZN6Kopete2UI8ListView14ImageComponentC1EPNS1_13ComponentBaseE@Base 4:4.3.4
 _ZN6Kopete2UI8ListView14ImageComponentC1EPNS1_13ComponentBaseEii@Base 4:4.3.4
 _ZN6Kopete2UI8ListView14ImageComponentC2EPNS1_13ComponentBaseE@Base 4:4.3.4
 _ZN6Kopete2UI8ListView14ImageComponentC2EPNS1_13ComponentBaseEii@Base 4:4.3.4
 _ZN6Kopete2UI8ListView14ImageComponentD0Ev@Base 4:4.3.4
 _ZN6Kopete2UI8ListView14ImageComponentD1Ev@Base 4:4.3.4
 _ZN6Kopete2UI8ListView14ImageComponentD2Ev@Base 4:4.3.4
 _ZN6Kopete2UI8ListView15SpacerComponentC1EPNS1_13ComponentBaseEii@Base 4:4.3.4
 _ZN6Kopete2UI8ListView15SpacerComponentC2EPNS1_13ComponentBaseEii@Base 4:4.3.4
 (optional=gccinternal)_ZN6Kopete2UI8ListView15SpacerComponentD0Ev@Base 4:4.6.5
 (optional=gccinternal)_ZN6Kopete2UI8ListView15SpacerComponentD1Ev@Base 4:4.6.5
 (optional=gccinternal)_ZN6Kopete2UI8ListView15SpacerComponentD2Ev@Base 4:4.6.5
 _ZN6Kopete2UI8ListView16ContactComponent12updatePixmapEv@Base 4:4.3.4
 _ZN6Kopete2UI8ListView16ContactComponent7contactEv@Base 4:4.3.4
 _ZN6Kopete2UI8ListView16ContactComponent7toolTipERK6QPoint@Base 4:4.3.4
 _ZN6Kopete2UI8ListView16ContactComponentC1EPNS1_13ComponentBaseEPNS_7ContactEi@Base 4:4.3.4
 _ZN6Kopete2UI8ListView16ContactComponentC2EPNS1_13ComponentBaseEPNS_7ContactEi@Base 4:4.3.4
 _ZN6Kopete2UI8ListView16ContactComponentD0Ev@Base 4:4.3.4
 _ZN6Kopete2UI8ListView16ContactComponentD1Ev@Base 4:4.3.4
 _ZN6Kopete2UI8ListView16ContactComponentD2Ev@Base 4:4.3.4
 _ZN6Kopete2UI8ListView16HSpacerComponent14widthForHeightEi@Base 4:4.3.4
 _ZN6Kopete2UI8ListView16HSpacerComponent4RTTIE@Base 4:4.3.4
 _ZN6Kopete2UI8ListView16HSpacerComponentC1EPNS1_13ComponentBaseE@Base 4:4.3.4
 _ZN6Kopete2UI8ListView16HSpacerComponentC2EPNS1_13ComponentBaseE@Base 4:4.3.4
 (optional=gccinternal)_ZN6Kopete2UI8ListView16HSpacerComponentD0Ev@Base 4:4.6.5
 (optional=gccinternal)_ZN6Kopete2UI8ListView16HSpacerComponentD1Ev@Base 4:4.6.5
 (optional=gccinternal)_ZN6Kopete2UI8ListView16HSpacerComponentD2Ev@Base 4:4.6.5
 _ZN6Kopete2UI8ListView16VSpacerComponent14heightForWidthEi@Base 4:4.3.4
 _ZN6Kopete2UI8ListView16VSpacerComponent4RTTIE@Base 4:4.3.4
 _ZN6Kopete2UI8ListView16VSpacerComponentC1EPNS1_13ComponentBaseE@Base 4:4.3.4
 _ZN6Kopete2UI8ListView16VSpacerComponentC2EPNS1_13ComponentBaseE@Base 4:4.3.4
 (optional=gccinternal)_ZN6Kopete2UI8ListView16VSpacerComponentD0Ev@Base 4:4.6.5
 (optional=gccinternal)_ZN6Kopete2UI8ListView16VSpacerComponentD1Ev@Base 4:4.6.5
 (optional=gccinternal)_ZN6Kopete2UI8ListView16VSpacerComponentD2Ev@Base 4:4.6.5
 _ZN6Kopete2UI8ListView20DisplayNameComponent15setDefaultColorEv@Base 4:4.3.4
 _ZN6Kopete2UI8ListView20DisplayNameComponent4RTTIE@Base 4:4.3.4
 _ZN6Kopete2UI8ListView20DisplayNameComponent4textEv@Base 4:4.3.4
 _ZN6Kopete2UI8ListView20DisplayNameComponent6layoutERK5QRect@Base 4:4.3.4
 _ZN6Kopete2UI8ListView20DisplayNameComponent6redrawEv@Base 4:4.3.4
 _ZN6Kopete2UI8ListView20DisplayNameComponent7setFontERK5QFont@Base 4:4.3.4
 _ZN6Kopete2UI8ListView20DisplayNameComponent7setTextERK7QString@Base 4:4.3.4
 _ZN6Kopete2UI8ListView20DisplayNameComponent8setColorERK6QColor@Base 4:4.3.4
 _ZN6Kopete2UI8ListView20DisplayNameComponentC1EPNS1_13ComponentBaseE@Base 4:4.3.4
 _ZN6Kopete2UI8ListView20DisplayNameComponentC2EPNS1_13ComponentBaseE@Base 4:4.3.4
 _ZN6Kopete2UI8ListView20DisplayNameComponentD0Ev@Base 4:4.3.4
 _ZN6Kopete2UI8ListView20DisplayNameComponentD1Ev@Base 4:4.3.4
 _ZN6Kopete2UI8ListView20DisplayNameComponentD2Ev@Base 4:4.3.4
 _ZN6Kopete2UI8ListView4Item10setEffectsEbbb@Base 4:4.3.4
 _ZN6Kopete2UI8ListView4Item10setOpacityEf@Base 4:4.3.4
 _ZN6Kopete2UI8ListView4Item11qt_metacallEN11QMetaObject4CallEiPPv@Base 4:4.3.4
 _ZN6Kopete2UI8ListView4Item11qt_metacastEPKc@Base 4:4.3.4
 _ZN6Kopete2UI8ListView4Item12mySetVisibleEb@Base 4:4.3.4
 _ZN6Kopete2UI8ListView4Item14componentAddedEPNS1_9ComponentE@Base 4:4.3.4
 _ZN6Kopete2UI8ListView4Item14scheduleLayoutEv@Base 4:4.3.4
 _ZN6Kopete2UI8ListView4Item14setSearchMatchEbb@Base 4:4.3.4
 _ZN6Kopete2UI8ListView4Item15slotLayoutItemsEv@Base 4:4.3.4
 _ZN6Kopete2UI8ListView4Item16componentRemovedEPNS1_9ComponentE@Base 4:4.3.4
 _ZN6Kopete2UI8ListView4Item16componentResizedEPNS1_9ComponentE@Base 4:4.3.4
 _ZN6Kopete2UI8ListView4Item16staticMetaObjectE@Base 4:4.3.4
 _ZN6Kopete2UI8ListView4Item16targetVisibilityEv@Base 4:4.3.4
 _ZN6Kopete2UI8ListView4Item17slotColumnResizedEv@Base 4:4.3.4
 _ZN6Kopete2UI8ListView4Item17visibilityChangedEb@Base 4:4.3.4
 _ZN6Kopete2UI8ListView4Item19setTargetVisibilityEb@Base 4:4.3.4
 _ZN6Kopete2UI8ListView4Item20slotUpdateVisibilityEv@Base 4:4.3.4
 _ZN6Kopete2UI8ListView4Item22slotLayoutAnimateItemsEv@Base 4:4.3.4
 _ZN6Kopete2UI8ListView4Item5setupEv@Base 4:4.3.4
 _ZN6Kopete2UI8ListView4Item7Private14animateChangesE@Base 4:4.3.4
 _ZN6Kopete2UI8ListView4Item7Private14fadeVisibilityE@Base 4:4.3.4
 _ZN6Kopete2UI8ListView4Item7Private14foldVisibilityE@Base 4:4.3.4
 _ZN6Kopete2UI8ListView4Item7initLVIEP7QObject@Base 4:4.3.4
 _ZN6Kopete2UI8ListView4Item7opacityEv@Base 4:4.3.4
 _ZN6Kopete2UI8ListView4Item7repaintEv@Base 4:4.3.4
 _ZN6Kopete2UI8ListView4Item8relayoutEv@Base 4:4.3.4
 _ZN6Kopete2UI8ListView4Item9paintCellEP8QPainterRK11QColorGroupiii@Base 4:4.3.4
 _ZN6Kopete2UI8ListView4Item9setHeightEi@Base 4:4.3.4
 _ZN6Kopete2UI8ListView4ItemC1EP10Q3ListViewP7QObject@Base 4:4.3.4
 _ZN6Kopete2UI8ListView4ItemC1EP14Q3ListViewItemP7QObject@Base 4:4.3.4
 _ZN6Kopete2UI8ListView4ItemC2EP10Q3ListViewP7QObject@Base 4:4.3.4
 _ZN6Kopete2UI8ListView4ItemC2EP14Q3ListViewItemP7QObject@Base 4:4.3.4
 _ZN6Kopete2UI8ListView4ItemD0Ev@Base 4:4.3.4
 _ZN6Kopete2UI8ListView4ItemD1Ev@Base 4:4.3.4
 _ZN6Kopete2UI8ListView4ItemD2Ev@Base 4:4.3.4
 _ZN6Kopete2UI8ListView8ListView10timerEventEP11QTimerEvent@Base 4:4.3.4
 _ZN6Kopete2UI8ListView8ListView11delayedSortEv@Base 4:4.3.4
 _ZN6Kopete2UI8ListView8ListView11eventFilterEP7QObjectP6QEvent@Base 4:4.3.4
 _ZN6Kopete2UI8ListView8ListView11qt_metacallEN11QMetaObject4CallEiPPv@Base 4:4.3.4
 _ZN6Kopete2UI8ListView8ListView11qt_metacastEPKc@Base 4:4.3.4
 _ZN6Kopete2UI8ListView8ListView13keyPressEventEP9QKeyEvent@Base 4:4.3.4
 _ZN6Kopete2UI8ListView8ListView13setScrollHideEb@Base 4:4.3.4
 _ZN6Kopete2UI8ListView8ListView15slotContextMenuEP10K3ListViewP14Q3ListViewItemRK6QPoint@Base 4:4.3.4
 _ZN6Kopete2UI8ListView8ListView16setShowTreeLinesEb@Base 4:4.3.4
 _ZN6Kopete2UI8ListView8ListView16staticMetaObjectE@Base 4:4.3.4
 _ZN6Kopete2UI8ListView8ListView17setScrollAutoHideEb@Base 4:4.3.4
 _ZN6Kopete2UI8ListView8ListView17slotDoubleClickedEP14Q3ListViewItem@Base 4:4.3.4
 _ZN6Kopete2UI8ListView8ListView18setMouseNavigationEb@Base 4:4.3.4
 _ZN6Kopete2UI8ListView8ListView18setSmoothScrollingEb@Base 4:4.3.4
 _ZN6Kopete2UI8ListView8ListView18slotCurrentChangedEP14Q3ListViewItem@Base 4:4.3.4
 _ZN6Kopete2UI8ListView8ListView18visibleSizeChangedEv@Base 4:4.3.4
 _ZN6Kopete2UI8ListView8ListView24setScrollAutoHideTimeoutEi@Base 4:4.3.4
 _ZN6Kopete2UI8ListView8ListView31setSmoothScrollingTimerIntervalEd@Base 4:4.3.4
 _ZN6Kopete2UI8ListView8ListViewC1EP7QWidget@Base 4:4.3.4
 _ZN6Kopete2UI8ListView8ListViewC2EP7QWidget@Base 4:4.3.4
 _ZN6Kopete2UI8ListView8ListViewD0Ev@Base 4:4.3.4
 _ZN6Kopete2UI8ListView8ListViewD1Ev@Base 4:4.3.4
 _ZN6Kopete2UI8ListView8ListViewD2Ev@Base 4:4.3.4
 _ZN6Kopete2UI8ListView9Component10targetRectEv@Base 4:4.3.4
 _ZN6Kopete2UI8ListView9Component11setMinWidthEi@Base 4:4.3.4
 _ZN6Kopete2UI8ListView9Component12setMinHeightEi@Base 4:4.3.4
 _ZN6Kopete2UI8ListView9Component14componentAddedEPS2_@Base 4:4.3.4
 _ZN6Kopete2UI8ListView9Component14heightForWidthEi@Base 4:4.3.4
 _ZN6Kopete2UI8ListView9Component14widthForHeightEi@Base 4:4.3.4
 _ZN6Kopete2UI8ListView9Component16componentRemovedEPS2_@Base 4:4.3.4
 _ZN6Kopete2UI8ListView9Component16setToolTipSourceEPNS1_13ToolTipSourceE@Base 4:4.3.4
 _ZN6Kopete2UI8ListView9Component4RTTIE@Base 4:4.3.4
 _ZN6Kopete2UI8ListView9Component4hideEv@Base 4:4.3.4
 _ZN6Kopete2UI8ListView9Component4rectEv@Base 4:4.3.4
 _ZN6Kopete2UI8ListView9Component4showEv@Base 4:4.3.4
 _ZN6Kopete2UI8ListView9Component5paintEP8QPainterRK8QPalette@Base 4:4.3.4
 _ZN6Kopete2UI8ListView9Component6layoutERK5QRect@Base 4:4.3.4
 _ZN6Kopete2UI8ListView9Component7isShownEv@Base 4:4.3.4
 _ZN6Kopete2UI8ListView9Component7repaintEv@Base 4:4.3.4
 _ZN6Kopete2UI8ListView9Component7setRectERK5QRect@Base 4:4.3.4
 _ZN6Kopete2UI8ListView9Component7toolTipERK6QPoint@Base 4:4.3.4
 _ZN6Kopete2UI8ListView9Component8isHiddenEv@Base 4:4.3.4
 _ZN6Kopete2UI8ListView9Component8minWidthEv@Base 4:4.3.4
 _ZN6Kopete2UI8ListView9Component8relayoutEv@Base 4:4.3.4
 _ZN6Kopete2UI8ListView9Component9minHeightEv@Base 4:4.3.4
 _ZN6Kopete2UI8ListView9Component9startRectEv@Base 4:4.3.4
 _ZN6Kopete2UI8ListView9ComponentC1EPNS1_13ComponentBaseE@Base 4:4.3.4
 _ZN6Kopete2UI8ListView9ComponentC2EPNS1_13ComponentBaseE@Base 4:4.3.4
 _ZN6Kopete2UI8ListView9ComponentD0Ev@Base 4:4.3.4
 _ZN6Kopete2UI8ListView9ComponentD1Ev@Base 4:4.3.4
 _ZN6Kopete2UI8ListView9ComponentD2Ev@Base 4:4.3.4
 _ZN6Kopete4Task10addSubTaskEP4KJob@Base 4:4.3.4
 _ZN6Kopete4Task11qt_metacallEN11QMetaObject4CallEiPPv@Base 4:4.3.4
 _ZN6Kopete4Task11qt_metacastEPKc@Base 4:4.3.4
 _ZN6Kopete4Task16staticMetaObjectE@Base 4:4.3.4
 _ZN6Kopete4Task5startEv@Base 4:4.3.4
 _ZN6Kopete4TaskC1EP7QObject@Base 4:4.3.4
 _ZN6Kopete4TaskC2EP7QObject@Base 4:4.3.4
 _ZN6Kopete4TaskD0Ev@Base 4:4.3.4
 _ZN6Kopete4TaskD1Ev@Base 4:4.3.4
 _ZN6Kopete4TaskD2Ev@Base 4:4.3.4
 _ZN6Kopete5Group10s_topLevelE@Base 4:4.3.4
 _ZN6Kopete5Group10setGroupIdEj@Base 4:4.3.4
 _ZN6Kopete5Group11qt_metacallEN11QMetaObject4CallEiPPv@Base 4:4.3.4
 _ZN6Kopete5Group11qt_metacastEPKc@Base 4:4.3.4
 _ZN6Kopete5Group11s_temporaryE@Base 4:4.3.4
 _ZN6Kopete5Group11sendMessageERNS_7MessageE@Base 4:4.3.4
 _ZN6Kopete5Group11sendMessageEv@Base 4:4.3.4
 _ZN6Kopete5Group11setExpandedEb@Base 4:4.3.4
 _ZN6Kopete5Group14setDisplayNameERK7QString@Base 4:4.3.4
 _ZN6Kopete5Group16setUniqueGroupIdEj@Base 4:4.3.4
 _ZN6Kopete5Group16staticMetaObjectE@Base 4:4.3.4
 _ZN6Kopete5Group18displayNameChangedEPS0_RK7QString@Base 4:4.3.4
 _ZN6Kopete5Group7Private13uniqueGroupIdE@Base 4:4.3.4
 _ZN6Kopete5Group8topLevelEv@Base 4:4.3.4
 _ZN6Kopete5Group9temporaryEv@Base 4:4.3.4
 _ZN6Kopete5GroupC1ERK7QString@Base 4:4.3.4
 _ZN6Kopete5GroupC1ERK7QStringNS0_9GroupTypeE@Base 4:4.3.4
 _ZN6Kopete5GroupC1Ev@Base 4:4.3.4
 _ZN6Kopete5GroupC2ERK7QString@Base 4:4.3.4
 _ZN6Kopete5GroupC2ERK7QStringNS0_9GroupTypeE@Base 4:4.3.4
 _ZN6Kopete5GroupC2Ev@Base 4:4.3.4
 _ZN6Kopete5GroupD0Ev@Base 4:4.3.4
 _ZN6Kopete5GroupD1Ev@Base 4:4.3.4
 _ZN6Kopete5GroupD2Ev@Base 4:4.3.4
 _ZN6Kopete5Utils19notifyCannotConnectEPKNS_7AccountE7QStringS4_@Base 4:4.3.4
 _ZN6Kopete5Utils20notifyConnectionLostEPKNS_7AccountE7QStringS4_S4_S4_@Base 4:4.3.4
 _ZN6Kopete6Global10Properties12isRegisteredERK7QString@Base 4:4.3.4
 _ZN6Kopete6Global10Properties16registerTemplateERK7QStringRKNS_12PropertyTmplE@Base 4:4.3.4
 _ZN6Kopete6Global10Properties18unregisterTemplateERK7QString@Base 4:4.3.4
 _ZN6Kopete6Global10Properties4selfEv@Base 4:4.3.4
 _ZN6Kopete6Global10Properties5mSelfE@Base 4:4.3.4
 _ZN6Kopete6Global10PropertiesC1Ev@Base 4:4.3.4
 _ZN6Kopete6Global10PropertiesC2Ev@Base 4:4.3.4
 _ZN6Kopete6Global10PropertiesD1Ev@Base 4:4.3.4
 _ZN6Kopete6Global10PropertiesD2Ev@Base 4:4.3.4
 _ZN6Kopete6Plugin11deserializeEPNS_11MetaContactERK4QMapI7QStringS4_E@Base 4:4.3.4
 _ZN6Kopete6Plugin11qt_metacallEN11QMetaObject4CallEiPPv@Base 4:4.3.4
 _ZN6Kopete6Plugin11qt_metacastEPKc@Base 4:4.3.4
 _ZN6Kopete6Plugin13aboutToUnloadEv@Base 4:4.3.4
 _ZN6Kopete6Plugin14readyForUnloadEv@Base 4:4.3.4
 _ZN6Kopete6Plugin15settingsChangedEv@Base 4:4.3.4
 _ZN6Kopete6Plugin16staticMetaObjectE@Base 4:4.3.4
 _ZN6Kopete6Plugin17shouldExitOncloseEv@Base 4:4.4.1
 _ZN6Kopete6Plugin19addAddressBookFieldERK7QStringNS0_23AddressBookFieldAddModeE@Base 4:4.3.4
 _ZN6Kopete6Plugin22showCloseWindowMessageEv@Base 4:4.4.1
 _ZN6Kopete6PluginC1ERK14KComponentDataP7QObject@Base 4:4.3.4
 _ZN6Kopete6PluginC2ERK14KComponentDataP7QObject@Base 4:4.3.4
 _ZN6Kopete6PluginD0Ev@Base 4:4.3.4
 _ZN6Kopete6PluginD1Ev@Base 4:4.3.4
 _ZN6Kopete6PluginD2Ev@Base 4:4.3.4
 _ZN6Kopete6Status10StatusItem11qt_metacallEN11QMetaObject4CallEiPPv@Base 4:4.3.4
 _ZN6Kopete6Status10StatusItem11qt_metacastEPKc@Base 4:4.3.4
 _ZN6Kopete6Status10StatusItem11setCategoryE6QFlagsINS_19OnlineStatusManager8CategoryEE@Base 4:4.3.4
 _ZN6Kopete6Status10StatusItem16staticMetaObjectE@Base 4:4.3.4
 _ZN6Kopete6Status10StatusItem7changedEv@Base 4:4.3.4
 _ZN6Kopete6Status10StatusItem8setTitleERK7QString@Base 4:4.3.4
 _ZN6Kopete6Status10StatusItemC1ERK7QString@Base 4:4.3.4
 _ZN6Kopete6Status10StatusItemC1Ev@Base 4:4.3.4
 _ZN6Kopete6Status10StatusItemC2ERK7QString@Base 4:4.3.4
 _ZN6Kopete6Status10StatusItemC2Ev@Base 4:4.3.4
 (optional=gccinternal)_ZN6Kopete6Status10StatusItemD0Ev@Base 4:4.6.5
 (optional=gccinternal)_ZN6Kopete6Status10StatusItemD1Ev@Base 4:4.6.5
 (optional=gccinternal)_ZN6Kopete6Status10StatusItemD2Ev@Base 4:4.6.5
 _ZN6Kopete6Status11StatusGroup11appendChildEPNS0_10StatusItemE@Base 4:4.3.4
 _ZN6Kopete6Status11StatusGroup11insertChildEiPNS0_10StatusItemE@Base 4:4.3.4
 _ZN6Kopete6Status11StatusGroup11qt_metacallEN11QMetaObject4CallEiPPv@Base 4:4.3.4
 _ZN6Kopete6Status11StatusGroup11qt_metacastEPKc@Base 4:4.3.4
 _ZN6Kopete6Status11StatusGroup11removeChildEPNS0_10StatusItemE@Base 4:4.3.4
 _ZN6Kopete6Status11StatusGroup12childRemovedEPNS0_10StatusItemE@Base 4:4.3.4
 _ZN6Kopete6Status11StatusGroup13childInsertedEiPNS0_10StatusItemE@Base 4:4.3.4
 _ZN6Kopete6Status11StatusGroup14childDestroyedEP7QObject@Base 4:4.3.4
 _ZN6Kopete6Status11StatusGroup16staticMetaObjectE@Base 4:4.3.4
 _ZN6Kopete6Status11StatusGroupC1ERK7QString@Base 4:4.3.4
 _ZN6Kopete6Status11StatusGroupC1Ev@Base 4:4.3.4
 _ZN6Kopete6Status11StatusGroupC2ERK7QString@Base 4:4.3.4
 _ZN6Kopete6Status11StatusGroupC2Ev@Base 4:4.3.4
 (optional=gccinternal)_ZN6Kopete6Status11StatusGroupD0Ev@Base 4:4.6.5
 (optional=gccinternal)_ZN6Kopete6Status11StatusGroupD1Ev@Base 4:4.6.5
 (optional=gccinternal)_ZN6Kopete6Status11StatusGroupD2Ev@Base 4:4.6.5
 _ZN6Kopete6Status6Status10setMessageERK7QString@Base 4:4.3.4
 _ZN6Kopete6Status6Status11qt_metacallEN11QMetaObject4CallEiPPv@Base 4:4.3.4
 _ZN6Kopete6Status6Status11qt_metacastEPKc@Base 4:4.3.4
 _ZN6Kopete6Status6Status16staticMetaObjectE@Base 4:4.3.4
 _ZN6Kopete6Status6StatusC1ERK7QString@Base 4:4.3.4
 _ZN6Kopete6Status6StatusC1Ev@Base 4:4.3.4
 _ZN6Kopete6Status6StatusC2ERK7QString@Base 4:4.3.4
 _ZN6Kopete6Status6StatusC2Ev@Base 4:4.3.4
 (optional=gccinternal)_ZN6Kopete6Status6StatusD0Ev@Base 4:4.6.5
 (optional=gccinternal)_ZN6Kopete6Status6StatusD1Ev@Base 4:4.6.5
 (optional=gccinternal)_ZN6Kopete6Status6StatusD2Ev@Base 4:4.6.5
 _ZN6Kopete7Account10addContactERK7QStringPNS_11MetaContactENS0_7AddModeE@Base 4:4.3.4
 _ZN6Kopete7Account10addContactERK7QStringS3_PNS_5GroupENS0_7AddModeE@Base 4:4.3.4
 _ZN6Kopete7Account11blackListerEv@Base 4:4.3.4
 _ZN6Kopete7Account11editAccountEP7QWidget@Base 4:4.3.4
 _ZN6Kopete7Account11qt_metacallEN11QMetaObject4CallEiPPv@Base 4:4.3.4
 _ZN6Kopete7Account11qt_metacastEPKc@Base 4:4.3.4
 _ZN6Kopete7Account11setIdentityEPNS_8IdentityE@Base 4:4.3.4
 _ZN6Kopete7Account11setPriorityEj@Base 4:4.3.4
 _ZN6Kopete7Account12colorChangedERK6QColor@Base 4:4.3.4
 _ZN6Kopete7Account12disconnectedENS0_16DisconnectReasonE@Base 4:4.3.4
 _ZN6Kopete7Account13removeAccountEv@Base 4:4.3.4
 _ZN6Kopete7Account13setCustomIconERK7QString@Base 4:4.3.4
 _ZN6Kopete7Account14fillActionMenuEP11KActionMenu@Base 4:4.3.4
 _ZN6Kopete7Account15registerContactEPNS_7ContactE@Base 4:4.3.4
 _ZN6Kopete7Account15setAccountLabelERK7QString@Base 4:4.3.4
 _ZN6Kopete7Account16accountDestroyedEPKS0_@Base 4:4.3.4
 _ZN6Kopete7Account16contactDestroyedEPNS_7ContactE@Base 4:4.3.4
 _ZN6Kopete7Account16staticMetaObjectE@Base 4:4.3.4
 _ZN6Kopete7Account17setExcludeConnectEb@Base 4:4.3.4
 _ZN6Kopete7Account18isConnectedChangedEv@Base 4:4.3.4
 _ZN6Kopete7Account19slotStopSuppressionEv@Base 4:4.3.4
 _ZN6Kopete7Account20setAllContactsStatusERKNS_12OnlineStatusE@Base 4:4.3.4
 _ZN6Kopete7Account23networkingStatusChangedEN5Solid10Networking6StatusE@Base 4:4.8.4
 _ZN6Kopete7Account23slotOnlineStatusChangedEPNS_7ContactERKNS_12OnlineStatusES5_@Base 4:4.3.4
 _ZN6Kopete7Account26slotContactPropertyChangedEPNS_17PropertyContainerERK7QStringRK8QVariantS8_@Base 4:4.3.4
 _ZN6Kopete7Account5blockERK7QString@Base 4:4.3.4
 _ZN6Kopete7Account7unblockERK7QString@Base 4:4.3.4
 _ZN6Kopete7Account8contactsEv@Base 4:4.3.4
 _ZN6Kopete7Account8setColorERK6QColor@Base 4:4.3.4
 _ZN6Kopete7Account9isBlockedERK7QString@Base 4:4.3.4
 _ZN6Kopete7Account9reconnectEv@Base 4:4.3.4
 _ZN6Kopete7Account9setMyselfEPNS_7ContactE@Base 4:4.3.4
 _ZN6Kopete7AccountC1EPNS_8ProtocolERK7QString@Base 4:4.3.4
 _ZN6Kopete7AccountC2EPNS_8ProtocolERK7QString@Base 4:4.3.4
 _ZN6Kopete7AccountD0Ev@Base 4:4.3.4
 _ZN6Kopete7AccountD1Ev@Base 4:4.3.4
 _ZN6Kopete7AccountD2Ev@Base 4:4.3.4
 _ZN6Kopete7Contact10slotDeleteEv@Base 4:4.3.4
 _ZN6Kopete7Contact11isReachableEv@Base 4:4.3.4
 _ZN6Kopete7Contact11qt_metacallEN11QMetaObject4CallEiPPv@Base 4:4.3.4
 _ZN6Kopete7Contact11qt_metacastEPKc@Base 4:4.3.4
 _ZN6Kopete7Contact11sendMessageEv@Base 4:4.3.4
 _ZN6Kopete7Contact11setIdleTimeEm@Base 4:4.3.4
 _ZN6Kopete7Contact11setNickNameERK7QString@Base 4:4.3.4
 _ZN6Kopete7Contact11slotUnblockEv@Base 4:4.3.4
 _ZN6Kopete7Contact13deleteContactEv@Base 4:4.3.4
 _ZN6Kopete7Contact14setFileCapableEb@Base 4:4.3.4
 _ZN6Kopete7Contact14setMetaContactEPNS_11MetaContactE@Base 4:4.3.4
 _ZN6Kopete7Contact14slotAddContactEv@Base 4:4.3.4
 _ZN6Kopete7Contact15setOnlineStatusERKNS_12OnlineStatusE@Base 4:4.3.4
 _ZN6Kopete7Contact16contactDestroyedEPS0_@Base 4:4.3.4
 _ZN6Kopete7Contact16idleStateChangedEPS0_@Base 4:4.3.4
 _ZN6Kopete7Contact16setStatusMessageERKNS_13StatusMessageE@Base 4:4.3.4
 _ZN6Kopete7Contact16staticMetaObjectE@Base 4:4.3.4
 _ZN6Kopete7Contact17changeMetaContactEv@Base 4:4.3.4
 _ZN6Kopete7Contact19onlineStatusChangedEPS0_RKNS_12OnlineStatusES4_@Base 4:4.3.4
 _ZN6Kopete7Contact19toggleAlwaysVisibleEv@Base 4:4.4.1
 _ZN6Kopete7Contact21canAcceptFilesChangedEv@Base 4:4.3.4
 _ZN6Kopete7Contact24customContextMenuActionsEPNS_11ChatSessionE@Base 4:4.3.4
 _ZN6Kopete7Contact24customContextMenuActionsEv@Base 4:4.3.4
 _ZN6Kopete7Contact24slotMetaContactDestroyedEP7QObject@Base 4:4.4.1
 _ZN6Kopete7Contact29slotAccountIsConnectedChangedEv@Base 4:4.3.4
 _ZN6Kopete7Contact4syncEj@Base 4:4.3.4
 _ZN6Kopete7Contact7executeEv@Base 4:4.3.4
 _ZN6Kopete7Contact7setIconERK7QString@Base 4:4.3.4
 _ZN6Kopete7Contact8sendFileERK4KUrlRK7QStringj@Base 4:4.3.4
 _ZN6Kopete7Contact8setPhotoERK7QString@Base 4:4.3.4
 _ZN6Kopete7Contact9popupMenuEPNS_11ChatSessionE@Base 4:4.3.4
 _ZN6Kopete7Contact9serializeER4QMapI7QStringS2_ES4_@Base 4:4.3.4
 _ZN6Kopete7Contact9slotBlockEv@Base 4:4.3.4
 _ZN6Kopete7Contact9startChatEv@Base 4:4.3.4
 _ZN6Kopete7ContactC1EPNS_7AccountERK7QStringPNS_11MetaContactES5_@Base 4:4.3.4
 _ZN6Kopete7ContactC2EPNS_7AccountERK7QStringPNS_11MetaContactES5_@Base 4:4.3.4
 _ZN6Kopete7ContactD0Ev@Base 4:4.3.4
 _ZN6Kopete7ContactD1Ev@Base 4:4.3.4
 _ZN6Kopete7ContactD2Ev@Base 4:4.3.4
 _ZN6Kopete7Message10parseLinksERK7QStringN2Qt10TextFormatE@Base 4:4.3.4
 _ZN6Kopete7Message10setClassesERK11QStringList@Base 4:4.3.4
 _ZN6Kopete7Message10setDelayedEb@Base 4:4.3.4
 _ZN6Kopete7Message10setManagerEPNS_11ChatSessionE@Base 4:4.3.4
 _ZN6Kopete7Message10setSubjectERK7QString@Base 4:4.3.4
 _ZN6Kopete7Message11setFileNameERK7QString@Base 4:4.3.4
 _ZN6Kopete7Message11setFileSizeEm@Base 4:4.3.4
 _ZN6Kopete7Message11setHtmlBodyERK7QString@Base 4:4.3.4
 _ZN6Kopete7Message12setDirectionENS0_16MessageDirectionE@Base 4:4.3.4
 _ZN6Kopete7Message12setPlainBodyERK7QString@Base 4:4.3.4
 _ZN6Kopete7Message12setTimestampERK9QDateTime@Base 4:4.3.4
 _ZN6Kopete7Message13setImportanceENS0_17MessageImportanceE@Base 4:4.3.4
 _ZN6Kopete7Message14regexpPatternsEv@Base 4:4.4.1
 _ZN6Kopete7Message14setFilePreviewERK7QPixmap@Base 4:4.3.4
 _ZN6Kopete7Message18setBackgroundColorERK6QColor@Base 4:4.3.4
 _ZN6Kopete7Message18setForegroundColorERK6QColor@Base 4:4.3.4
 _ZN6Kopete7Message18setRequestedPluginERK7QString@Base 4:4.3.4
 _ZN6Kopete7Message19setRichTextOverrideEb@Base 4:4.3.4
 _ZN6Kopete7Message21setBackgroundOverrideEb@Base 4:4.3.4
 _ZN6Kopete7Message21setForegroundOverrideEb@Base 4:4.3.4
 _ZN6Kopete7Message23setFileTransferDisabledEb@Base 4:4.3.4
 _ZN6Kopete7Message6escapeERK7QString@Base 4:4.3.4
 _ZN6Kopete7Message6nextIdEv@Base 4:4.3.4
 _ZN6Kopete7Message7Private6nextIdE@Base 4:4.3.4
 _ZN6Kopete7Message7PrivateC1ERKS1_@Base 4:4.3.4
 _ZN6Kopete7Message7PrivateC2ERKS1_@Base 4:4.3.4
 _ZN6Kopete7Message7PrivateD1Ev@Base 4:4.3.4
 _ZN6Kopete7Message7PrivateD2Ev@Base 4:4.3.4
 _ZN6Kopete7Message7setBodyEPK13QTextDocument@Base 4:4.3.4
 _ZN6Kopete7Message7setFontERK5QFont@Base 4:4.3.4
 _ZN6Kopete7Message7setTypeENS0_11MessageTypeE@Base 4:4.3.4
 _ZN6Kopete7Message8addClassERK7QString@Base 4:4.3.4
 _ZN6Kopete7Message8setStateENS0_12MessageStateE@Base 4:4.3.4
 _ZN6Kopete7Message8unescapeERK7QString@Base 4:4.3.4
 _ZN6Kopete7Message9doSetBodyE7QStringN2Qt10TextFormatE@Base 4:4.3.4
 _ZN6Kopete7Message9doSetBodyEPK13QTextDocumentN2Qt10TextFormatE@Base 4:4.3.4
 _ZN6Kopete7MessageC1EPKNS_7ContactERK5QListIPS1_E@Base 4:4.3.4
 _ZN6Kopete7MessageC1EPKNS_7ContactES3_@Base 4:4.3.4
 _ZN6Kopete7MessageC1ERKS0_@Base 4:4.3.4
 _ZN6Kopete7MessageC1Ev@Base 4:4.3.4
 _ZN6Kopete7MessageC2EPKNS_7ContactERK5QListIPS1_E@Base 4:4.3.4
 _ZN6Kopete7MessageC2EPKNS_7ContactES3_@Base 4:4.3.4
 _ZN6Kopete7MessageC2ERKS0_@Base 4:4.3.4
 _ZN6Kopete7MessageC2Ev@Base 4:4.3.4
 _ZN6Kopete7MessageD1Ev@Base 4:4.3.4
 _ZN6Kopete7MessageD2Ev@Base 4:4.3.4
 _ZN6Kopete7MessageaSERKS0_@Base 4:4.3.4
 _ZN6Kopete7Picture10setPictureERK6QImage@Base 4:4.3.4
 _ZN6Kopete7Picture10setPictureERK7QString@Base 4:4.3.4
 _ZN6Kopete7Picture10setPictureERKN4KABC7PictureE@Base 4:4.3.4
 _ZN6Kopete7Picture4pathEv@Base 4:4.3.4
 _ZN6Kopete7Picture5clearEv@Base 4:4.3.4
 _ZN6Kopete7Picture5imageEv@Base 4:4.3.4
 _ZN6Kopete7Picture6base64Ev@Base 4:4.3.4
 _ZN6Kopete7Picture6detachEv@Base 4:4.3.4
 _ZN6Kopete7Picture6isNullEv@Base 4:4.3.4
 _ZN6Kopete7PictureC1ERK6QImage@Base 4:4.3.4
 _ZN6Kopete7PictureC1ERK7QString@Base 4:4.3.4
 _ZN6Kopete7PictureC1ERKN4KABC7PictureE@Base 4:4.3.4
 _ZN6Kopete7PictureC1ERKS0_@Base 4:4.3.4
 _ZN6Kopete7PictureC1Ev@Base 4:4.3.4
 _ZN6Kopete7PictureC2ERK6QImage@Base 4:4.3.4
 _ZN6Kopete7PictureC2ERK7QString@Base 4:4.3.4
 _ZN6Kopete7PictureC2ERKN4KABC7PictureE@Base 4:4.3.4
 _ZN6Kopete7PictureC2ERKS0_@Base 4:4.3.4
 _ZN6Kopete7PictureC2Ev@Base 4:4.3.4
 _ZN6Kopete7PictureD1Ev@Base 4:4.3.4
 _ZN6Kopete7PictureD2Ev@Base 4:4.3.4
 _ZN6Kopete7PictureaSERKS0_@Base 4:4.3.4
 _ZN6Kopete8Identity10addAccountEPNS_7AccountE@Base 4:4.3.4
 _ZN6Kopete8Identity11qt_metacallEN11QMetaObject4CallEiPPv@Base 4:4.3.4
 _ZN6Kopete8Identity11qt_metacastEPKc@Base 4:4.3.4
 _ZN6Kopete8Identity13removeAccountEPKNS_7AccountE@Base 4:4.3.4
 _ZN6Kopete8Identity14toolTipChangedEPS0_@Base 4:4.3.4
 _ZN6Kopete8Identity15identityChangedEPS0_@Base 4:4.3.4
 _ZN6Kopete8Identity15setOnlineStatusEjRKNS_13StatusMessageE@Base 4:4.3.4
 _ZN6Kopete8Identity16setStatusMessageERKNS_13StatusMessageE@Base 4:4.3.4
 _ZN6Kopete8Identity16slotSavePropertyEPNS_17PropertyContainerERK7QStringRK8QVariantS8_@Base 4:4.3.4
 _ZN6Kopete8Identity16staticMetaObjectE@Base 4:4.3.4
 _ZN6Kopete8Identity17identityDestroyedEPKS0_@Base 4:4.3.4
 _ZN6Kopete8Identity18updateOnlineStatusEv@Base 4:4.3.4
 _ZN6Kopete8Identity19onlineStatusChangedEPS0_@Base 4:4.3.4
 _ZN6Kopete8Identity4loadEv@Base 4:4.3.4
 _ZN6Kopete8Identity4saveEv@Base 4:4.3.4
 _ZN6Kopete8Identity8setLabelERK7QString@Base 4:4.3.4
 _ZN6Kopete8IdentityC1ERK7QString@Base 4:4.3.4
 _ZN6Kopete8IdentityC1ERK7QStringS3_@Base 4:4.3.4
 _ZN6Kopete8IdentityC2ERK7QString@Base 4:4.3.4
 _ZN6Kopete8IdentityC2ERK7QStringS3_@Base 4:4.3.4
 _ZN6Kopete8IdentityD0Ev@Base 4:4.3.4
 _ZN6Kopete8IdentityD1Ev@Base 4:4.3.4
 _ZN6Kopete8IdentityD2Ev@Base 4:4.3.4
 _ZN6Kopete8Password10readConfigEv@Base 4:4.3.4
 _ZN6Kopete8Password10rememberedEv@Base 4:4.3.4
 _ZN6Kopete8Password11cachedValueEv@Base 4:4.3.4
 _ZN6Kopete8Password11qt_metacallEN11QMetaObject4CallEiPPv@Base 4:4.3.4
 _ZN6Kopete8Password11qt_metacastEPKc@Base 4:4.3.4
 _ZN6Kopete8Password11writeConfigEv@Base 4:4.3.4
 _ZN6Kopete8Password16staticMetaObjectE@Base 4:4.3.4
 _ZN6Kopete8Password18allowBlankPasswordEv@Base 4:4.3.4
 _ZN6Kopete8Password18preferredImageSizeEv@Base 4:4.3.4
 _ZN6Kopete8Password20requestWithoutPromptEP7QObjectPKc@Base 4:4.3.4
 _ZN6Kopete8Password3setERK7QString@Base 4:4.3.4
 _ZN6Kopete8Password5clearEv@Base 4:4.3.4
 _ZN6Kopete8Password7isWrongEv@Base 4:4.3.4
 _ZN6Kopete8Password7requestEP7QObjectPKcRK7QPixmapRK7QStringNS0_14PasswordSourceE@Base 4:4.3.4
 _ZN6Kopete8Password8setWrongEb@Base 4:4.3.4
 _ZN6Kopete8PasswordC1ERK7QStringb@Base 4:4.3.4
 _ZN6Kopete8PasswordC1ERKS0_@Base 4:4.3.4
 _ZN6Kopete8PasswordC2ERK7QStringb@Base 4:4.3.4
 _ZN6Kopete8PasswordC2ERKS0_@Base 4:4.3.4
 _ZN6Kopete8PasswordD0Ev@Base 4:4.3.4
 _ZN6Kopete8PasswordD1Ev@Base 4:4.3.4
 _ZN6Kopete8PasswordD2Ev@Base 4:4.3.4
 _ZN6Kopete8PasswordaSERS0_@Base 4:4.3.4
 _ZN6Kopete8Property4nullE@Base 4:4.3.4
 _ZN6Kopete8PropertyC1ERKNS_12PropertyTmplERK8QVariant@Base 4:4.3.4
 _ZN6Kopete8PropertyC1ERKS0_@Base 4:4.3.4
 _ZN6Kopete8PropertyC1Ev@Base 4:4.3.4
 _ZN6Kopete8PropertyC2ERKNS_12PropertyTmplERK8QVariant@Base 4:4.3.4
 _ZN6Kopete8PropertyC2ERKS0_@Base 4:4.3.4
 _ZN6Kopete8PropertyC2Ev@Base 4:4.3.4
 _ZN6Kopete8PropertyD1Ev@Base 4:4.3.4
 _ZN6Kopete8PropertyD2Ev@Base 4:4.3.4
 _ZN6Kopete8PropertyaSERKS0_@Base 4:4.3.4
 _ZN6Kopete8Protocol11deserializeEPNS_11MetaContactERK4QMapI7QStringS4_E@Base 4:4.3.4
 _ZN6Kopete8Protocol11qt_metacallEN11QMetaObject4CallEiPPv@Base 4:4.3.4
 _ZN6Kopete8Protocol11qt_metacastEPKc@Base 4:4.3.4
 _ZN6Kopete8Protocol13aboutToUnloadEv@Base 4:4.3.4
 _ZN6Kopete8Protocol15setCapabilitiesE6QFlagsINS0_10CapabilityEE@Base 4:4.3.4
 _ZN6Kopete8Protocol16staticMetaObjectE@Base 4:4.3.4
 _ZN6Kopete8Protocol18createProtocolTaskERK7QString@Base 4:4.3.4
 _ZN6Kopete8Protocol18deserializeContactEPNS_11MetaContactERK4QMapI7QStringS4_ES7_@Base 4:4.3.4
 _ZN6Kopete8Protocol20slotAccountDestroyedEv@Base 4:4.3.4
 _ZN6Kopete8Protocol22deserializeContactListEPNS_11MetaContactERK5QListI4QMapI7QStringS5_EE@Base 4:4.3.4
 _ZN6Kopete8Protocol30slotAccountOnlineStatusChangedEPNS_7ContactE@Base 4:4.3.4
 _ZN6Kopete8Protocol9serializeEPNS_11MetaContactE@Base 4:4.3.4
 _ZN6Kopete8ProtocolC1ERK14KComponentDataP7QObjectb@Base 4:4.3.4
 _ZN6Kopete8ProtocolC2ERK14KComponentDataP7QObjectb@Base 4:4.3.4
 _ZN6Kopete8ProtocolD0Ev@Base 4:4.3.4
 _ZN6Kopete8ProtocolD1Ev@Base 4:4.3.4
 _ZN6Kopete8ProtocolD2Ev@Base 4:4.3.4
 _ZN6Kopete8Transfer10displayURLEPKNS_7ContactERK7QString@Base 4:4.3.4
 _ZN6Kopete8Transfer10timerEventEP11QTimerEvent@Base 4:4.3.4
 _ZN6Kopete8Transfer11emitCopyingERK4KUrlS3_@Base 4:4.3.4
 _ZN6Kopete8Transfer11qt_metacallEN11QMetaObject4CallEiPPv@Base 4:4.3.4
 _ZN6Kopete8Transfer11qt_metacastEPKc@Base 4:4.3.4
 _ZN6Kopete8Transfer12slotCompleteEv@Base 4:4.3.4
 _ZN6Kopete8Transfer12slotNextFileERK7QStringS3_@Base 4:4.3.4
 _ZN6Kopete8Transfer13slotCancelledEv@Base 4:4.3.4
 _ZN6Kopete8Transfer13slotProcessedEj@Base 4:4.3.4
 _ZN6Kopete8Transfer14destinationURLEv@Base 4:4.3.4
 _ZN6Kopete8Transfer16staticMetaObjectE@Base 4:4.3.4
 _ZN6Kopete8Transfer16transferCanceledEv@Base 4:4.3.4
 _ZN6Kopete8Transfer17slotResultEmittedEv@Base 4:4.3.4
 _ZN6Kopete8Transfer20slotContactDestroyedEv@Base 4:4.3.4
 _ZN6Kopete8Transfer21stopTransferRateTimerEv@Base 4:4.3.4
 _ZN6Kopete8Transfer4initERK4KUrlb@Base 4:4.3.4
 _ZN6Kopete8Transfer9slotErrorEiRK7QString@Base 4:4.3.4
 _ZN6Kopete8Transfer9sourceURLEv@Base 4:4.3.4
 _ZN6Kopete8TransferC1ERKNS_16FileTransferInfoERK7QStringb@Base 4:4.3.4
 _ZN6Kopete8TransferC1ERKNS_16FileTransferInfoEb@Base 4:4.3.4
 _ZN6Kopete8TransferC2ERKNS_16FileTransferInfoERK7QStringb@Base 4:4.3.4
 _ZN6Kopete8TransferC2ERKNS_16FileTransferInfoEb@Base 4:4.3.4
 _ZN6Kopete8TransferD0Ev@Base 4:4.3.4
 _ZN6Kopete8TransferD1Ev@Base 4:4.3.4
 _ZN6Kopete8TransferD2Ev@Base 4:4.3.4
 _ZN6Kopete9Emoticons14parseEmoticonsERK7QString6QFlagsIN15KEmoticonsTheme13ParseModeEnumEERK11QStringList@Base 4:4.3.4
 _ZN6Kopete9Emoticons4selfEv@Base 4:4.3.4
 _ZN6Kopete9Emoticons8tokenizeERK7QString6QFlagsIN15KEmoticonsTheme13ParseModeEnumEE@Base 4:4.3.4
 _ZN6Kopete9IdleTimer11qt_metacallEN11QMetaObject4CallEiPPv@Base 4:4.3.4
 _ZN6Kopete9IdleTimer11qt_metacastEPKc@Base 4:4.3.4
 _ZN6Kopete9IdleTimer14updateIdleTimeEv@Base 4:4.3.4
 _ZN6Kopete9IdleTimer15registerTimeoutEiP7QObjectPKcS4_@Base 4:4.3.4
 _ZN6Kopete9IdleTimer16staticMetaObjectE@Base 4:4.3.4
 _ZN6Kopete9IdleTimer17unregisterTimeoutEP7QObject@Base 4:4.3.4
 _ZN6Kopete9IdleTimer4selfEv@Base 4:4.3.4
 _ZN6Kopete9IdleTimer8idleTimeEv@Base 4:4.3.4
 _ZN6Kopete9IdleTimer8instanceE@Base 4:4.3.4
 _ZN6Kopete9IdleTimerC1Ev@Base 4:4.3.4
 _ZN6Kopete9IdleTimerC2Ev@Base 4:4.3.4
 _ZN6Kopete9IdleTimerD0Ev@Base 4:4.3.4
 _ZN6Kopete9IdleTimerD1Ev@Base 4:4.3.4
 _ZN6Kopete9IdleTimerD2Ev@Base 4:4.3.4
 _ZN6Kopete9InfoEvent11eventClosedEPS0_@Base 4:4.3.4
 _ZN6Kopete9InfoEvent11qt_metacallEN11QMetaObject4CallEiPPv@Base 4:4.3.4
 _ZN6Kopete9InfoEvent11qt_metacastEPKc@Base 4:4.3.4
 _ZN6Kopete9InfoEvent13setShowOnSendEb@Base 4:4.3.4
 _ZN6Kopete9InfoEvent15actionActivatedEj@Base 4:4.3.4
 _ZN6Kopete9InfoEvent16staticMetaObjectE@Base 4:4.3.4
 _ZN6Kopete9InfoEvent17setAdditionalTextERK7QString@Base 4:4.3.4
 _ZN6Kopete9InfoEvent5closeEv@Base 4:4.3.4
 _ZN6Kopete9InfoEvent7changedEv@Base 4:4.3.4
 _ZN6Kopete9InfoEvent7setTextERK7QString@Base 4:4.3.4
 _ZN6Kopete9InfoEvent8activateEj@Base 4:4.3.4
 _ZN6Kopete9InfoEvent8setTitleERK7QString@Base 4:4.3.4
 _ZN6Kopete9InfoEvent9addActionEjRK7QString@Base 4:4.3.4
 _ZN6Kopete9InfoEvent9sendEventEv@Base 4:4.3.4
 _ZN6Kopete9InfoEventC1EP7QObject@Base 4:4.3.4
 _ZN6Kopete9InfoEventC2EP7QObject@Base 4:4.3.4
 _ZN6Kopete9InfoEventD0Ev@Base 4:4.3.4
 _ZN6Kopete9InfoEventD1Ev@Base 4:4.3.4
 _ZN6Kopete9InfoEventD2Ev@Base 4:4.3.4
 _ZNK10KopeteView10msgManagerEv@Base 4:4.3.4
 _ZNK14AddContactPage10metaObjectEv@Base 4:4.3.4
 _ZNK15AccountSelector10metaObjectEv@Base 4:4.3.4
 _ZNK17CollapsibleWidget10isExpandedEv@Base 4:4.3.4
 _ZNK17CollapsibleWidget10metaObjectEv@Base 4:4.3.4
 _ZNK17CollapsibleWidget11innerWidgetEv@Base 4:4.3.4
 _ZNK17CollapsibleWidget7captionEv@Base 4:4.3.4
 _ZNK17KopeteViewManager10activeViewEv@Base 4:4.3.4
 _ZNK17KopeteViewManager10metaObjectEv@Base 4:4.3.4
 _ZNK17SettingsContainer10metaObjectEv@Base 4:4.3.4
 _ZNK23KopeteEditAccountWidget7accountEv@Base 4:4.3.4
 _ZNK23KopetePreferencesAction10metaObjectEv@Base 4:4.3.4
 _ZNK6Kopete10FileEngine12isSequentialEv@Base 4:4.3.4
 _ZNK6Kopete10FileEngine13caseSensitiveEv@Base 4:4.3.4
 _ZNK6Kopete10FileEngine14isRelativePathEv@Base 4:4.3.4
 _ZNK6Kopete10FileEngine3posEv@Base 4:4.3.4
 _ZNK6Kopete10FileEngine4sizeEv@Base 4:4.3.4
 _ZNK6Kopete10FileEngine5atEndEv@Base 4:4.3.4
 _ZNK6Kopete10FileEngine5mkdirERK7QStringb@Base 4:4.3.4
 _ZNK6Kopete10FileEngine5ownerEN19QAbstractFileEngine9FileOwnerE@Base 4:4.3.4
 _ZNK6Kopete10FileEngine5rmdirERK7QStringb@Base 4:4.3.4
 _ZNK6Kopete10FileEngine7ownerIdEN19QAbstractFileEngine9FileOwnerE@Base 4:4.3.4
 _ZNK6Kopete10FileEngine8fileNameEN19QAbstractFileEngine8FileNameE@Base 4:4.3.4
 _ZNK6Kopete10FileEngine8fileTimeEN19QAbstractFileEngine8FileTimeE@Base 4:4.3.4
 _ZNK6Kopete10FileEngine9entryListE6QFlagsIN4QDir6FilterEERK11QStringList@Base 4:4.3.4
 _ZNK6Kopete10FileEngine9fileFlagsE6QFlagsIN19QAbstractFileEngine8FileFlagEE@Base 4:4.3.4
 _ZNK6Kopete11ChatSession10metaObjectEv@Base 4:4.3.4
 _ZNK6Kopete11ChatSession13warnGroupChatEv@Base 4:4.3.4
 _ZNK6Kopete11ChatSession19contactOnlineStatusEPKNS_7ContactE@Base 4:4.3.4
 _ZNK6Kopete11ChatSession4formEv@Base 4:4.3.4
 _ZNK6Kopete11ChatSession6myselfEv@Base 4:4.3.4
 _ZNK6Kopete11ChatSession7accountEv@Base 4:4.3.4
 _ZNK6Kopete11ChatSession7membersEv@Base 4:4.3.4
 _ZNK6Kopete11ChatSession8protocolEv@Base 4:4.3.4
 _ZNK6Kopete11ChatSession9mayInviteEv@Base 4:4.3.4
 _ZNK6Kopete11ContactList10metaObjectEv@Base 4:4.3.4
 _ZNK6Kopete11ContactList11findContactERK7QStringS3_S3_@Base 4:4.3.4
 _ZNK6Kopete11ContactList11metaContactERK7QString@Base 4:4.3.4
 _ZNK6Kopete11ContactList12metaContactsEv@Base 4:4.3.4
 _ZNK6Kopete11ContactList14selectedGroupsEv@Base 4:4.3.4
 _ZNK6Kopete11ContactList20selectedMetaContactsEv@Base 4:4.3.4
 _ZNK6Kopete11ContactList26findMetaContactByContactIdERK7QString@Base 4:4.3.4
 _ZNK6Kopete11ContactList28findMetaContactByDisplayNameERK7QString@Base 4:4.3.4
 _ZNK6Kopete11ContactList5groupEj@Base 4:4.3.4
 _ZNK6Kopete11ContactList6groupsEv@Base 4:4.3.4
 _ZNK6Kopete11ContactList6loadedEv@Base 4:4.3.4
 _ZNK6Kopete11MetaContact10metaObjectEv@Base 4:4.3.4
 _ZNK6Kopete11MetaContact10statusIconEv@Base 4:4.3.4
 _ZNK6Kopete11MetaContact11customPhotoEv@Base 4:4.3.4
 _ZNK6Kopete11MetaContact11displayNameEv@Base 4:4.3.4
 _ZNK6Kopete11MetaContact11isReachableEv@Base 4:4.3.4
 _ZNK6Kopete11MetaContact11isTemporaryEv@Base 4:4.3.4
 _ZNK6Kopete11MetaContact11photoSourceEv@Base 4:4.3.4
 _ZNK6Kopete11MetaContact12statusStringEv@Base 4:4.3.4
 _ZNK6Kopete11MetaContact13metaContactIdEv@Base 4:4.3.4
 _ZNK6Kopete11MetaContact13statusMessageEv@Base 4:4.3.4
 _ZNK6Kopete11MetaContact14canAcceptFilesEv@Base 4:4.3.4
 _ZNK6Kopete11MetaContact15isAlwaysVisibleEv@Base 4:4.4.1
 _ZNK6Kopete11MetaContact15photoFromCustomEv@Base 4:4.3.4
 _ZNK6Kopete11MetaContact16addressBookFieldEPNS_6PluginERK7QStringS5_@Base 4:4.3.4
 _ZNK6Kopete11MetaContact17customDisplayNameEv@Base 4:4.3.4
 _ZNK6Kopete11MetaContact17displayNameSourceEv@Base 4:4.3.4
 _ZNK6Kopete11MetaContact18photoSourceContactEv@Base 4:4.3.4
 _ZNK6Kopete11MetaContact21isPhotoSyncedWithKABCEv@Base 4:4.3.4
 _ZNK6Kopete11MetaContact24displayNameSourceContactEv@Base 4:4.3.4
 _ZNK6Kopete11MetaContact5photoEv@Base 4:4.3.4
 _ZNK6Kopete11MetaContact6groupsEv@Base 4:4.3.4
 _ZNK6Kopete11MetaContact6kabcIdEv@Base 4:4.3.4
 _ZNK6Kopete11MetaContact6statusEv@Base 4:4.3.4
 _ZNK6Kopete11MetaContact7pictureEv@Base 4:4.3.4
 _ZNK6Kopete11MetaContact8contactsEv@Base 4:4.3.4
 _ZNK6Kopete11MetaContact8idleTimeEv@Base 4:4.3.4
 _ZNK6Kopete11MetaContact8isOnlineEv@Base 4:4.3.4
 _ZNK6Kopete12MessageEvent10metaObjectEv@Base 4:4.3.4
 _ZNK6Kopete12OnlineStatus10categoriesEv@Base 4:4.3.4
 _ZNK6Kopete12OnlineStatus10mimeSourceERK7QStringi6QColorb@Base 4:4.3.4
 _ZNK6Kopete12OnlineStatus11descriptionEv@Base 4:4.3.4
 _ZNK6Kopete12OnlineStatus12overlayIconsEv@Base 4:4.3.4
 _ZNK6Kopete12OnlineStatus12protocolIconEN11KIconLoader8StdSizesE@Base 4:4.7.1
 _ZNK6Kopete12OnlineStatus12protocolIconEv@Base 4:4.3.4
 _ZNK6Kopete12OnlineStatus13mimeSourceForEPKNS_7AccountEi@Base 4:4.3.4
 _ZNK6Kopete12OnlineStatus13mimeSourceForEPKNS_7ContactEi@Base 4:4.3.4
 _ZNK6Kopete12OnlineStatus14internalStatusEv@Base 4:4.3.4
 _ZNK6Kopete12OnlineStatus18isDefinitelyOnlineEv@Base 4:4.3.4
 _ZNK6Kopete12OnlineStatus6statusEv@Base 4:4.3.4
 _ZNK6Kopete12OnlineStatus6weightEv@Base 4:4.3.4
 _ZNK6Kopete12OnlineStatus7captionEv@Base 4:4.3.4
 _ZNK6Kopete12OnlineStatus7iconForEPKNS_7AccountE@Base 4:4.3.4
 _ZNK6Kopete12OnlineStatus7iconForEPKNS_7ContactE@Base 4:4.3.4
 _ZNK6Kopete12OnlineStatus7iconForERK7QString@Base 4:4.3.4
 _ZNK6Kopete12OnlineStatus7optionsEv@Base 4:4.3.4
 _ZNK6Kopete12OnlineStatus8protocolEv@Base 4:4.3.4
 _ZNK6Kopete12OnlineStatuseqERKS0_@Base 4:4.3.4
 _ZNK6Kopete12OnlineStatusgtERKS0_@Base 4:4.3.4
 _ZNK6Kopete12OnlineStatusltERKS0_@Base 4:4.3.4
 _ZNK6Kopete12OnlineStatusneERKS0_@Base 4:4.3.4
 _ZNK6Kopete12PropertyTmpl10isRichTextEv@Base 4:4.3.4
 _ZNK6Kopete12PropertyTmpl10persistentEv@Base 4:4.3.4
 _ZNK6Kopete12PropertyTmpl3keyEv@Base 4:4.3.4
 _ZNK6Kopete12PropertyTmpl4iconEv@Base 4:4.3.4
 _ZNK6Kopete12PropertyTmpl5labelEv@Base 4:4.3.4
 _ZNK6Kopete12PropertyTmpl6isNullEv@Base 4:4.3.4
 _ZNK6Kopete12PropertyTmpl7optionsEv@Base 4:4.3.4
 _ZNK6Kopete12PropertyTmpl9isPrivateEv@Base 4:4.3.4
 _ZNK6Kopete12PropertyTmpleqERKS0_@Base 4:4.3.4
 _ZNK6Kopete12PropertyTmplneERKS0_@Base 4:4.3.4
 _ZNK6Kopete12WebcamWidget10metaObjectEv@Base 4:4.3.4
 _ZNK6Kopete13AvatarManager10metaObjectEv@Base 4:4.3.4
 _ZNK6Kopete13PluginManager10metaObjectEv@Base 4:4.3.4
 _ZNK6Kopete13PluginManager10pluginInfoEPKNS_6PluginE@Base 4:4.3.4
 _ZNK6Kopete13PluginManager13loadedPluginsERK7QString@Base 4:4.3.4
 _ZNK6Kopete13PluginManager15infoForPluginIdERK7QString@Base 4:4.3.4
 _ZNK6Kopete13PluginManager16availablePluginsERK7QString@Base 4:4.3.4
 _ZNK6Kopete13PluginManager18isAllPluginsLoadedEv@Base 4:4.3.4
 _ZNK6Kopete13PluginManager6pluginERK7QString@Base 4:4.3.4
 _ZNK6Kopete13StatusManager10itemForUidERK7QString@Base 4:4.3.4
 _ZNK6Kopete13StatusManager10metaObjectEv@Base 4:4.3.4
 _ZNK6Kopete13StatusManager12getRootGroupEv@Base 4:4.3.4
 _ZNK6Kopete13StatusManager13copyRootGroupEv@Base 4:4.3.4
 _ZNK6Kopete13StatusManager15defaultStatusesEv@Base 4:4.3.4
 _ZNK6Kopete13StatusManager19globalStatusMessageEv@Base 4:4.3.4
 _ZNK6Kopete13StatusManager20globalStatusCategoryEv@Base 4:4.3.4
 _ZNK6Kopete13StatusMessage11hasMetaDataERK7QString@Base 4:4.3.4
 _ZNK6Kopete13StatusMessage5titleEv@Base 4:4.3.4
 _ZNK6Kopete13StatusMessage7isEmptyEv@Base 4:4.3.4
 _ZNK6Kopete13StatusMessage7messageEv@Base 4:4.3.4
 _ZNK6Kopete13StatusMessage8metaDataERK7QString@Base 4:4.3.4
 _ZNK6Kopete13WalletManager10metaObjectEv@Base 4:4.3.4
 _ZNK6Kopete14AccountManager10guessColorEPNS_8ProtocolE@Base 4:4.3.4
 _ZNK6Kopete14AccountManager10metaObjectEv@Base 4:4.3.4
 _ZNK6Kopete14AccountManager21isAnyAccountConnectedEv@Base 4:4.3.4
 _ZNK6Kopete14AccountManager8accountsEPNS_8ProtocolE@Base 4:4.3.4
 _ZNK6Kopete14AccountManager8accountsEv@Base 4:4.3.4
 _ZNK6Kopete14AddedInfoEvent10addContactEv@Base 4:4.3.4
 _ZNK6Kopete14AddedInfoEvent10metaObjectEv@Base 4:4.3.4
 _ZNK6Kopete14AddedInfoEvent7accountEv@Base 4:4.3.4
 _ZNK6Kopete14AddedInfoEvent9contactIdEv@Base 4:4.3.4
 _ZNK6Kopete14AvatarQueryJob10avatarListEv@Base 4:4.3.4
 _ZNK6Kopete14AvatarQueryJob10metaObjectEv@Base 4:4.3.4
 _ZNK6Kopete14CommandHandler10metaObjectEv@Base 4:4.3.4
 _ZNK6Kopete14MessageHandler10metaObjectEv@Base 4:4.3.4
 _ZNK6Kopete15ContactTaskBase10metaObjectEv@Base 4:4.3.4
 _ZNK6Kopete15IdentityManager10identitiesEv@Base 4:4.3.4
 _ZNK6Kopete15IdentityManager10metaObjectEv@Base 4:4.3.4
 _ZNK6Kopete15KABCPersistence10metaObjectEv@Base 4:4.3.4
 _ZNK6Kopete15MimeTypeHandler20canAcceptRemoteFilesEv@Base 4:4.3.4
 _ZNK6Kopete15MimeTypeHandler9handleURLERK4KUrl@Base 4:4.3.4
 _ZNK6Kopete15MimeTypeHandler9handleURLERK7QStringRK4KUrl@Base 4:4.3.4
 _ZNK6Kopete15MimeTypeHandler9mimeTypesEv@Base 4:4.3.4
 _ZNK6Kopete15MimeTypeHandler9protocolsEv@Base 4:4.3.4
 _ZNK6Kopete15TransferManager10getSaveDirERK4KUrl@Base 4:4.3.4
 _ZNK6Kopete15TransferManager10metaObjectEv@Base 4:4.3.4
 _ZNK6Kopete15TransferManager11getSaveFileERK4KUrl@Base 4:4.3.4
 _ZNK6Kopete16InfoEventManager10eventCountEv@Base 4:4.3.4
 _ZNK6Kopete16InfoEventManager10metaObjectEv@Base 4:4.3.4
 _ZNK6Kopete16InfoEventManager5eventEi@Base 4:4.3.4
 _ZNK6Kopete16InfoEventManager6eventsEv@Base 4:4.3.4
 _ZNK6Kopete17DeleteContactTask10metaObjectEv@Base 4:4.3.4
 _ZNK6Kopete17DeleteContactTask8taskTypeEv@Base 4:4.3.4
 _ZNK6Kopete17FileEngineHandler6createERK7QString@Base 4:4.3.4
 _ZNK6Kopete17PasswordedAccount10metaObjectEv@Base 4:4.3.4
 _ZNK6Kopete17PropertyContainer10metaObjectEv@Base 4:4.3.4
 _ZNK6Kopete17PropertyContainer10propertiesEv@Base 4:4.3.4
 _ZNK6Kopete17PropertyContainer11hasPropertyERK7QString@Base 4:4.3.4
 _ZNK6Kopete17PropertyContainer19serializePropertiesER4QMapI7QStringS2_E@Base 4:4.3.4
 _ZNK6Kopete17PropertyContainer8propertyERK7QString@Base 4:4.3.4
 _ZNK6Kopete17PropertyContainer8propertyERKNS_12PropertyTmplE@Base 4:4.3.4
 _ZNK6Kopete17XmlContactStorage10storeGroupEPNS_5GroupE@Base 4:4.3.4
 _ZNK6Kopete17XmlContactStorage11readVersionER11QDomElement@Base 4:4.3.4
 _ZNK6Kopete17XmlContactStorage12errorMessageEv@Base 4:4.3.4
 _ZNK6Kopete17XmlContactStorage14sourceToStringENS_11MetaContact14PropertySourceE@Base 4:4.3.4
 _ZNK6Kopete17XmlContactStorage14stringToSourceERK7QString@Base 4:4.3.4
 _ZNK6Kopete17XmlContactStorage16storeMetaContactEPNS_11MetaContactEb@Base 4:4.3.4
 _ZNK6Kopete17XmlContactStorage16updateFrom10to11ER11QDomElement@Base 4:4.3.4
 _ZNK6Kopete17XmlContactStorage16updateFrom11to12ER11QDomElement@Base 4:4.3.4
 _ZNK6Kopete17XmlContactStorage23storeContactListElementEPNS_18ContactListElementE@Base 4:4.3.4
 _ZNK6Kopete17XmlContactStorage6isBusyEv@Base 4:4.3.4
 _ZNK6Kopete17XmlContactStorage7isValidEv@Base 4:4.3.4
 _ZNK6Kopete18AppearanceSettings10metaObjectEv@Base 4:4.3.4
 _ZNK6Kopete18ChatSessionManager10metaObjectEv@Base 4:4.3.4
 _ZNK6Kopete18ContactListElement10metaObjectEv@Base 4:4.3.4
 _ZNK6Kopete18ContactListElement10pluginDataEPNS_6PluginE@Base 4:4.3.4
 _ZNK6Kopete18ContactListElement10pluginDataEPNS_6PluginERK7QString@Base 4:4.3.4
 _ZNK6Kopete18ContactListElement10pluginDataEv@Base 4:4.3.4
 _ZNK6Kopete18ContactListElement13useCustomIconEv@Base 4:4.3.4
 _ZNK6Kopete18ContactListElement17pluginContactDataEPNS_6PluginE@Base 4:4.3.4
 _ZNK6Kopete18ContactListElement17pluginContactDataEv@Base 4:4.3.4
 _ZNK6Kopete18ContactListElement4iconENS0_9IconStateE@Base 4:4.3.4
 _ZNK6Kopete18ContactListElement5iconsEv@Base 4:4.3.4
 _ZNK6Kopete18ContactListElement7loadingEv@Base 4:4.3.4
 _ZNK6Kopete18ContactListStorage5groupEj@Base 4:4.3.4
 _ZNK6Kopete18ContactListStorage6groupsEv@Base 4:4.3.4
 _ZNK6Kopete18ContactListStorage8contactsEv@Base 4:4.3.4
 _ZNK6Kopete19OnlineStatusManager10metaObjectEv@Base 4:4.3.4
 _ZNK6Kopete19OnlineStatusManager10renderIconERKNS_12OnlineStatusERK7QStringi6QColorb@Base 4:4.3.4
 _ZNK6Kopete19OnlineStatusManager12onlineStatusEPNS_8ProtocolE6QFlagsINS0_8CategoryEE@Base 4:4.3.4
 _ZNK6Kopete19OnlineStatusManager13initialStatusEv@Base 4:4.3.4
 _ZNK6Kopete19OnlineStatusManager20registeredStatusListEPNS_8ProtocolE@Base 4:4.3.4
 _ZNK6Kopete20SocketTimeoutWatcher10metaObjectEv@Base 4:4.3.4
 _ZNK6Kopete23EmoticonMimeTypeHandler9handleURLERK4KUrl@Base 4:4.3.4
 _ZNK6Kopete23EmoticonMimeTypeHandler9handleURLERK7QStringRK4KUrl@Base 4:4.3.4
 _ZNK6Kopete27ChatSessionMembersListModel10headerDataEiN2Qt11OrientationEi@Base 4:4.3.4
 _ZNK6Kopete27ChatSessionMembersListModel10metaObjectEv@Base 4:4.3.4
 _ZNK6Kopete27ChatSessionMembersListModel4dataERK11QModelIndexi@Base 4:4.3.4
 _ZNK6Kopete27ChatSessionMembersListModel8rowCountERK11QModelIndex@Base 4:4.3.4
 _ZNK6Kopete27ChatSessionMembersListModel9contactAtERK11QModelIndex@Base 4:4.3.4
 _ZNK6Kopete2UI10InfoDialog10metaObjectEv@Base 4:4.3.4
 _ZNK6Kopete2UI12AvatarDialog10metaObjectEv@Base 4:4.3.4
 _ZNK6Kopete2UI12AvatarDialog18selectedAvatarPathEv@Base 4:4.3.4
 _ZNK6Kopete2UI13ContactAction10metaObjectEv@Base 4:4.3.4
 _ZNK6Kopete2UI14PasswordWidget10metaObjectEv@Base 4:4.3.4
 _ZNK6Kopete2UI14PasswordWidget8passwordEv@Base 4:4.3.4
 _ZNK6Kopete2UI14PasswordWidget8rememberEv@Base 4:4.3.4
 _ZNK6Kopete2UI18AvatarWebcamDialog10metaObjectEv@Base 4:4.4.1
 _ZNK6Kopete2UI20AvatarSelectorWidget10metaObjectEv@Base 4:4.3.4
 _ZNK6Kopete2UI20AvatarSelectorWidget13selectedEntryEv@Base 4:4.3.4
 _ZNK6Kopete2UI21AddressBookLinkWidget10metaObjectEv@Base 4:4.3.4
 _ZNK6Kopete2UI21AddressBookLinkWidget3uidEv@Base 4:4.3.4
 _ZNK6Kopete2UI24ContactAddedNotifyDialog10addContactEv@Base 4:4.3.4
 _ZNK6Kopete2UI24ContactAddedNotifyDialog10authorizedEv@Base 4:4.3.4
 _ZNK6Kopete2UI24ContactAddedNotifyDialog10metaObjectEv@Base 4:4.3.4
 _ZNK6Kopete2UI24ContactAddedNotifyDialog11displayNameEv@Base 4:4.3.4
 _ZNK6Kopete2UI24ContactAddedNotifyDialog5addedEv@Base 4:4.3.4
 _ZNK6Kopete2UI24ContactAddedNotifyDialog5groupEv@Base 4:4.3.4
 _ZNK6Kopete2UI25AddressBookSelectorDialog10metaObjectEv@Base 4:4.3.4
 _ZNK6Kopete2UI25AddressBookSelectorWidget10metaObjectEv@Base 4:4.3.4
 _ZNK6Kopete2UI25MetaContactSelectorWidget10metaObjectEv@Base 4:4.3.4
 _ZNK6Kopete2UI8ListView10SearchLine10metaObjectEv@Base 4:4.3.4
 _ZNK6Kopete2UI8ListView4Item10metaObjectEv@Base 4:4.3.4
 _ZNK6Kopete2UI8ListView4Item5widthERK12QFontMetricsPK10Q3ListViewi@Base 4:4.3.4
 _ZNK6Kopete2UI8ListView8ListView10metaObjectEv@Base 4:4.3.4
 _ZNK6Kopete2UI8ListView8ListView10scrollHideEv@Base 4:4.3.4
 _ZNK6Kopete2UI8ListView8ListView14scrollAutoHideEv@Base 4:4.3.4
 _ZNK6Kopete2UI8ListView8ListView15mouseNavigationEv@Base 4:4.3.4
 _ZNK6Kopete2UI8ListView8ListView15smoothScrollingEv@Base 4:4.3.4
 _ZNK6Kopete2UI8ListView8ListView21scrollAutoHideTimeoutEv@Base 4:4.3.4
 _ZNK6Kopete2UI8ListView8ListView28smoothScrollingTimerIntervalEv@Base 4:4.3.4
 _ZNK6Kopete4Task10metaObjectEv@Base 4:4.3.4
 _ZNK6Kopete5Group10isExpandedEv@Base 4:4.3.4
 _ZNK6Kopete5Group10metaObjectEv@Base 4:4.3.4
 _ZNK6Kopete5Group11displayNameEv@Base 4:4.3.4
 _ZNK6Kopete5Group13onlineMembersEv@Base 4:4.3.4
 _ZNK6Kopete5Group13uniqueGroupIdEv@Base 4:4.3.4
 _ZNK6Kopete5Group4typeEv@Base 4:4.3.4
 _ZNK6Kopete5Group7groupIdEv@Base 4:4.3.4
 _ZNK6Kopete5Group7membersEv@Base 4:4.3.4
 _ZNK6Kopete6Global10Properties10createPropERK7QStringS4_S4_b@Base 4:4.3.4
 _ZNK6Kopete6Global10Properties11onlineSinceEv@Base 4:4.3.4
 _ZNK6Kopete6Global10Properties11statusTitleEv@Base 4:4.3.4
 _ZNK6Kopete6Global10Properties11templateMapEv@Base 4:4.3.4
 _ZNK6Kopete6Global10Properties12emailAddressEv@Base 4:4.3.4
 _ZNK6Kopete6Global10Properties12privatePhoneEv@Base 4:4.3.4
 _ZNK6Kopete6Global10Properties13statusMessageEv@Base 4:4.3.4
 _ZNK6Kopete6Global10Properties15isAlwaysVisibleEv@Base 4:4.4.1
 _ZNK6Kopete6Global10Properties15workMobilePhoneEv@Base 4:4.3.4
 _ZNK6Kopete6Global10Properties18privateMobilePhoneEv@Base 4:4.3.4
 _ZNK6Kopete6Global10Properties4tmplERK7QString@Base 4:4.3.4
 _ZNK6Kopete6Global10Properties5photoEv@Base 4:4.3.4
 _ZNK6Kopete6Global10Properties8fullNameEv@Base 4:4.3.4
 _ZNK6Kopete6Global10Properties8idleTimeEv@Base 4:4.3.4
 _ZNK6Kopete6Global10Properties8lastNameEv@Base 4:4.3.4
 _ZNK6Kopete6Global10Properties8lastSeenEv@Base 4:4.3.4
 _ZNK6Kopete6Global10Properties8nickNameEv@Base 4:4.3.4
 _ZNK6Kopete6Global10Properties9firstNameEv@Base 4:4.3.4
 _ZNK6Kopete6Global10Properties9workPhoneEv@Base 4:4.3.4
 _ZNK6Kopete6Plugin10metaObjectEv@Base 4:4.3.4
 _ZNK6Kopete6Plugin10pluginIconEv@Base 4:4.3.4
 _ZNK6Kopete6Plugin10pluginInfoEv@Base 4:4.3.4
 _ZNK6Kopete6Plugin11displayNameEv@Base 4:4.3.4
 _ZNK6Kopete6Plugin17addressBookFieldsEv@Base 4:4.3.4
 _ZNK6Kopete6Plugin21addressBookIndexFieldEv@Base 4:4.3.4
 _ZNK6Kopete6Plugin8pluginIdEv@Base 4:4.3.4
 _ZNK6Kopete6Status10StatusItem10metaObjectEv@Base 4:4.3.4
 _ZNK6Kopete6Status10StatusItem11parentGroupEv@Base 4:4.3.4
 _ZNK6Kopete6Status10StatusItem5indexEv@Base 4:4.3.4
 _ZNK6Kopete6Status11StatusGroup10metaObjectEv@Base 4:4.3.4
 _ZNK6Kopete6Status11StatusGroup4copyEv@Base 4:4.3.4
 _ZNK6Kopete6Status6Status10metaObjectEv@Base 4:4.3.4
 _ZNK6Kopete6Status6Status4copyEv@Base 4:4.3.4
 _ZNK6Kopete7Account10customIconEv@Base 4:4.3.4
 _ZNK6Kopete7Account10metaObjectEv@Base 4:4.3.4
 _ZNK6Kopete7Account11accountIconEi@Base 4:4.3.4
 _ZNK6Kopete7Account11configGroupEv@Base 4:4.3.4
 _ZNK6Kopete7Account11isConnectedEv@Base 4:4.3.4
 _ZNK6Kopete7Account12accountLabelEv@Base 4:4.3.4
 _ZNK6Kopete7Account14excludeConnectEv@Base 4:4.3.4
 _ZNK6Kopete7Account15accountIconPathEN11KIconLoader5GroupE@Base 4:4.6.0
 _ZNK6Kopete7Account19hasCustomStatusMenuEv@Base 4:4.3.4
 _ZNK6Kopete7Account26suppressStatusNotificationEv@Base 4:4.3.4
 _ZNK6Kopete7Account5colorEv@Base 4:4.3.4
 _ZNK6Kopete7Account6isAwayEv@Base 4:4.3.4
 _ZNK6Kopete7Account6myselfEv@Base 4:4.3.4
 _ZNK6Kopete7Account8identityEv@Base 4:4.3.4
 _ZNK6Kopete7Account8priorityEv@Base 4:4.3.4
 _ZNK6Kopete7Account8protocolEv@Base 4:4.3.4
 _ZNK6Kopete7Account9accountIdEv@Base 4:4.3.4
 _ZNK6Kopete7Contact10metaObjectEv@Base 4:4.3.4
 _ZNK6Kopete7Contact11metaContactEv@Base 4:4.3.4
 _ZNK6Kopete7Contact12onlineStatusEv@Base 4:4.3.4
 _ZNK6Kopete7Contact13formattedNameEv@Base 4:4.3.4
 _ZNK6Kopete7Contact13isFileCapableEv@Base 4:4.3.4
 _ZNK6Kopete7Contact13statusMessageEv@Base 4:4.3.4
 _ZNK6Kopete7Contact14canAcceptFilesEv@Base 4:4.3.4
 _ZNK6Kopete7Contact17formattedIdleTimeEv@Base 4:4.3.4
 _ZNK6Kopete7Contact4iconEv@Base 4:4.3.4
 _ZNK6Kopete7Contact7accountEv@Base 4:4.3.4
 _ZNK6Kopete7Contact7toolTipEv@Base 4:4.3.4
 _ZNK6Kopete7Contact8idleTimeEv@Base 4:4.3.4
 _ZNK6Kopete7Contact8isOnlineEv@Base 4:4.3.4
 _ZNK6Kopete7Contact8nickNameEv@Base 4:4.3.4
 _ZNK6Kopete7Contact8protocolEv@Base 4:4.3.4
 _ZNK6Kopete7Contact9contactIdEv@Base 4:4.3.4
 _ZNK6Kopete7Message10importanceEv@Base 4:4.3.4
 _ZNK6Kopete7Message10parsedBodyEv@Base 4:4.3.4
 _ZNK6Kopete7Message11escapedBodyEv@Base 4:4.3.4
 _ZNK6Kopete7Message11filePreviewEv@Base 4:4.3.4
 _ZNK6Kopete7Message13isRightToLeftEv@Base 4:4.3.4
 _ZNK6Kopete7Message15backgroundColorEv@Base 4:4.3.4
 _ZNK6Kopete7Message15foregroundColorEv@Base 4:4.3.4
 _ZNK6Kopete7Message15requestedPluginEv@Base 4:4.3.4
 _ZNK6Kopete7Message20fileTransferDisabledEv@Base 4:4.3.4
 _ZNK6Kopete7Message21getHtmlStyleAttributeEv@Base 4:4.3.4
 _ZNK6Kopete7Message2idEv@Base 4:4.3.4
 _ZNK6Kopete7Message2toEv@Base 4:4.3.4
 _ZNK6Kopete7Message4bodyEv@Base 4:4.3.4
 _ZNK6Kopete7Message4fontEv@Base 4:4.3.4
 _ZNK6Kopete7Message4fromEv@Base 4:4.3.4
 _ZNK6Kopete7Message4typeEv@Base 4:4.3.4
 _ZNK6Kopete7Message5stateEv@Base 4:4.3.4
 _ZNK6Kopete7Message6formatEv@Base 4:4.3.4
 _ZNK6Kopete7Message7classesEv@Base 4:4.3.4
 _ZNK6Kopete7Message7delayedEv@Base 4:4.3.4
 _ZNK6Kopete7Message7managerEv@Base 4:4.3.4
 _ZNK6Kopete7Message7subjectEv@Base 4:4.3.4
 _ZNK6Kopete7Message8fileNameEv@Base 4:4.3.4
 _ZNK6Kopete7Message8fileSizeEv@Base 4:4.3.4
 _ZNK6Kopete7Message9directionEv@Base 4:4.3.4
 _ZNK6Kopete7Message9plainBodyEv@Base 4:4.3.4
 _ZNK6Kopete7Message9timestampEv@Base 4:4.3.4
 _ZNK6Kopete8Identity10customIconEv@Base 4:4.3.4
 _ZNK6Kopete8Identity10metaObjectEv@Base 4:4.3.4
 _ZNK6Kopete8Identity11configGroupEv@Base 4:4.3.4
 _ZNK6Kopete8Identity12onlineStatusEv@Base 4:4.3.4
 _ZNK6Kopete8Identity13statusMessageEv@Base 4:4.3.4
 _ZNK6Kopete8Identity14excludeConnectEv@Base 4:4.3.4
 _ZNK6Kopete8Identity2idEv@Base 4:4.3.4
 _ZNK6Kopete8Identity5cloneEv@Base 4:4.3.4
 _ZNK6Kopete8Identity5labelEv@Base 4:4.3.4
 _ZNK6Kopete8Identity7toolTipEv@Base 4:4.3.4
 _ZNK6Kopete8Identity8accountsEv@Base 4:4.3.4
 _ZNK6Kopete8Password10metaObjectEv@Base 4:4.3.4
 _ZNK6Kopete8Property10isRichTextEv@Base 4:4.3.4
 _ZNK6Kopete8Property4tmplEv@Base 4:4.3.4
 _ZNK6Kopete8Property5valueEv@Base 4:4.3.4
 _ZNK6Kopete8Property6isNullEv@Base 4:4.3.4
 _ZNK6Kopete8Protocol10metaObjectEv@Base 4:4.3.4
 _ZNK6Kopete8Protocol12canAddMyselfEv@Base 4:4.3.4
 _ZNK6Kopete8Protocol12capabilitiesEv@Base 4:4.3.4
 _ZNK6Kopete8Protocol16validatePasswordERK7QString@Base 4:4.3.4
 _ZNK6Kopete8Protocol20accountOfflineStatusEv@Base 4:4.3.4
 _ZNK6Kopete8Transfer10metaObjectEv@Base 4:4.3.4
 _ZNK6Kopete8Transfer11chatSessionEv@Base 4:4.3.4
 _ZNK6Kopete8Transfer11showMessageE7QString@Base 4:4.3.4
 _ZNK6Kopete8Transfer14fileForMessageEv@Base 4:4.3.4
 _ZNK6Kopete8Transfer15showHtmlMessageE7QString@Base 4:4.3.4
 _ZNK6Kopete8Transfer4infoEv@Base 4:4.3.4
 _ZNK6Kopete9IdleTimer10metaObjectEv@Base 4:4.3.4
 _ZNK6Kopete9InfoEvent10metaObjectEv@Base 4:4.3.4
 _ZNK6Kopete9InfoEvent10showOnSendEv@Base 4:4.3.4
 _ZNK6Kopete9InfoEvent14additionalTextEv@Base 4:4.3.4
 _ZNK6Kopete9InfoEvent4textEv@Base 4:4.3.4
 _ZNK6Kopete9InfoEvent5titleEv@Base 4:4.3.4
 _ZNK6Kopete9InfoEvent7actionsEv@Base 4:4.3.4
 _ZNK6Kopete9InfoEvent8isClosedEv@Base 4:4.4.1
 _ZTI10KopeteView@Base 4:4.3.4
 _ZTI14AddContactPage@Base 4:4.3.4
 _ZTI15AccountSelector@Base 4:4.3.4
 _ZTI17CollapsibleWidget@Base 4:4.3.4
 _ZTI17KopeteViewManager@Base 4:4.3.4
 _ZTI17SettingsContainer@Base 4:4.3.4
 _ZTI23KopeteEditAccountWidget@Base 4:4.3.4
 _ZTI23KopetePreferencesAction@Base 4:4.3.4
 _ZTIN6Kopete10FileEngineE@Base 4:4.3.4
 _ZTIN6Kopete10ViewPluginE@Base 4:4.3.4
 _ZTIN6Kopete11ChatSessionE@Base 4:4.3.4
 _ZTIN6Kopete11ContactListE@Base 4:4.3.4
 _ZTIN6Kopete11MetaContactE@Base 4:4.3.4
 _ZTIN6Kopete12MessageEventE@Base 4:4.3.4
 _ZTIN6Kopete12WebcamWidgetE@Base 4:4.3.4
 _ZTIN6Kopete13AvatarManagerE@Base 4:4.3.4
 _ZTIN6Kopete13PluginManagerE@Base 4:4.3.4
 _ZTIN6Kopete13StatusManagerE@Base 4:4.3.4
 _ZTIN6Kopete13WalletManagerE@Base 4:4.3.4
 _ZTIN6Kopete14AccountManagerE@Base 4:4.3.4
 _ZTIN6Kopete14AddedInfoEventE@Base 4:4.3.4
 _ZTIN6Kopete14AvatarQueryJobE@Base 4:4.3.4
 _ZTIN6Kopete14CommandHandlerE@Base 4:4.3.4
 _ZTIN6Kopete14MessageHandlerE@Base 4:4.3.4
 _ZTIN6Kopete14StatusSettingsE@Base 4:4.3.4
 _ZTIN6Kopete15ContactTaskBaseE@Base 4:4.3.4
 _ZTIN6Kopete15IdentityManagerE@Base 4:4.3.4
 _ZTIN6Kopete15KABCPersistenceE@Base 4:4.3.4
 _ZTIN6Kopete15MimeTypeHandlerE@Base 4:4.3.4
 _ZTIN6Kopete15TransferManagerE@Base 4:4.3.4
 _ZTIN6Kopete16BehaviorSettingsE@Base 4:4.3.4
 _ZTIN6Kopete16InfoEventManagerE@Base 4:4.3.4
 _ZTIN6Kopete17DeleteContactTaskE@Base 4:4.3.4
 _ZTIN6Kopete17FileEngineHandlerE@Base 4:4.3.4
 _ZTIN6Kopete17PasswordedAccountE@Base 4:4.3.4
 _ZTIN6Kopete17PropertyContainerE@Base 4:4.3.4
 _ZTIN6Kopete17XmlContactStorageE@Base 4:4.3.4
 _ZTIN6Kopete18AppearanceSettingsE@Base 4:4.3.4
 _ZTIN6Kopete18ChatSessionManagerE@Base 4:4.3.4
 _ZTIN6Kopete18ContactListElementE@Base 4:4.3.4
 _ZTIN6Kopete18ContactListStorageE@Base 4:4.3.4
 _ZTIN6Kopete19OnlineStatusManagerE@Base 4:4.3.4
 _ZTIN6Kopete20SocketTimeoutWatcherE@Base 4:4.3.4
 _ZTIN6Kopete21MessageHandlerFactoryE@Base 4:4.3.4
 _ZTIN6Kopete23EmoticonMimeTypeHandlerE@Base 4:4.3.4
 _ZTIN6Kopete27ChatSessionMembersListModelE@Base 4:4.3.4
 _ZTIN6Kopete27SimpleMessageHandlerFactoryE@Base 4:4.3.4
 _ZTIN6Kopete2UI10InfoDialogE@Base 4:4.3.4
 _ZTIN6Kopete2UI12AvatarDialogE@Base 4:4.3.4
 _ZTIN6Kopete2UI13ContactActionE@Base 4:4.3.4
 _ZTIN6Kopete2UI14PasswordWidgetE@Base 4:4.3.4
 _ZTIN6Kopete2UI18AvatarWebcamDialogE@Base 4:4.4.1
 _ZTIN6Kopete2UI20AvatarSelectorWidgetE@Base 4:4.3.4
 _ZTIN6Kopete2UI21AddressBookLinkWidgetE@Base 4:4.3.4
 _ZTIN6Kopete2UI24ContactAddedNotifyDialogE@Base 4:4.3.4
 _ZTIN6Kopete2UI25AddressBookSelectorDialogE@Base 4:4.3.4
 _ZTIN6Kopete2UI25AddressBookSelectorWidgetE@Base 4:4.3.4
 _ZTIN6Kopete2UI25MetaContactSelectorWidgetE@Base 4:4.3.4
 _ZTIN6Kopete2UI8ListView10SearchLineE@Base 4:4.3.4
 _ZTIN6Kopete2UI8ListView12BoxComponentE@Base 4:4.3.4
 _ZTIN6Kopete2UI8ListView13ComponentBaseE@Base 4:4.3.4
 _ZTIN6Kopete2UI8ListView13TextComponentE@Base 4:4.3.4
 _ZTIN6Kopete2UI8ListView14ImageComponentE@Base 4:4.3.4
 _ZTIN6Kopete2UI8ListView15SpacerComponentE@Base 4:4.3.4
 _ZTIN6Kopete2UI8ListView16ContactComponentE@Base 4:4.3.4
 _ZTIN6Kopete2UI8ListView16HSpacerComponentE@Base 4:4.3.4
 _ZTIN6Kopete2UI8ListView16VSpacerComponentE@Base 4:4.3.4
 _ZTIN6Kopete2UI8ListView20DisplayNameComponentE@Base 4:4.3.4
 _ZTIN6Kopete2UI8ListView4ItemE@Base 4:4.3.4
 _ZTIN6Kopete2UI8ListView8ListViewE@Base 4:4.3.4
 _ZTIN6Kopete2UI8ListView9ComponentE@Base 4:4.3.4
 _ZTIN6Kopete4TaskE@Base 4:4.3.4
 _ZTIN6Kopete5GroupE@Base 4:4.3.4
 _ZTIN6Kopete6PluginE@Base 4:4.3.4
 _ZTIN6Kopete6Status10StatusItemE@Base 4:4.3.4
 _ZTIN6Kopete6Status11StatusGroupE@Base 4:4.3.4
 _ZTIN6Kopete6Status6StatusE@Base 4:4.3.4
 _ZTIN6Kopete7AccountE@Base 4:4.3.4
 _ZTIN6Kopete7ContactE@Base 4:4.3.4
 _ZTIN6Kopete8IdentityE@Base 4:4.3.4
 _ZTIN6Kopete8PasswordE@Base 4:4.3.4
 _ZTIN6Kopete8ProtocolE@Base 4:4.3.4
 _ZTIN6Kopete8TransferE@Base 4:4.3.4
 _ZTIN6Kopete9IdleTimerE@Base 4:4.3.4
 _ZTIN6Kopete9InfoEventE@Base 4:4.3.4
 _ZTS10KopeteView@Base 4:4.3.4
 _ZTS14AddContactPage@Base 4:4.3.4
 _ZTS15AccountSelector@Base 4:4.3.4
 _ZTS17CollapsibleWidget@Base 4:4.3.4
 _ZTS17KopeteViewManager@Base 4:4.3.4
 _ZTS17SettingsContainer@Base 4:4.3.4
 _ZTS23KopeteEditAccountWidget@Base 4:4.3.4
 _ZTS23KopetePreferencesAction@Base 4:4.3.4
 _ZTSN6Kopete10FileEngineE@Base 4:4.3.4
 _ZTSN6Kopete10ViewPluginE@Base 4:4.3.4
 _ZTSN6Kopete11ChatSessionE@Base 4:4.3.4
 _ZTSN6Kopete11ContactListE@Base 4:4.3.4
 _ZTSN6Kopete11MetaContactE@Base 4:4.3.4
 _ZTSN6Kopete12MessageEventE@Base 4:4.3.4
 _ZTSN6Kopete12WebcamWidgetE@Base 4:4.3.4
 _ZTSN6Kopete13AvatarManagerE@Base 4:4.3.4
 _ZTSN6Kopete13PluginManagerE@Base 4:4.3.4
 _ZTSN6Kopete13StatusManagerE@Base 4:4.3.4
 _ZTSN6Kopete13WalletManagerE@Base 4:4.3.4
 _ZTSN6Kopete14AccountManagerE@Base 4:4.3.4
 _ZTSN6Kopete14AddedInfoEventE@Base 4:4.3.4
 _ZTSN6Kopete14AvatarQueryJobE@Base 4:4.3.4
 _ZTSN6Kopete14CommandHandlerE@Base 4:4.3.4
 _ZTSN6Kopete14MessageHandlerE@Base 4:4.3.4
 _ZTSN6Kopete14StatusSettingsE@Base 4:4.3.4
 _ZTSN6Kopete15ContactTaskBaseE@Base 4:4.3.4
 _ZTSN6Kopete15IdentityManagerE@Base 4:4.3.4
 _ZTSN6Kopete15KABCPersistenceE@Base 4:4.3.4
 _ZTSN6Kopete15MimeTypeHandlerE@Base 4:4.3.4
 _ZTSN6Kopete15TransferManagerE@Base 4:4.3.4
 _ZTSN6Kopete16BehaviorSettingsE@Base 4:4.3.4
 _ZTSN6Kopete16InfoEventManagerE@Base 4:4.3.4
 _ZTSN6Kopete17DeleteContactTaskE@Base 4:4.3.4
 _ZTSN6Kopete17FileEngineHandlerE@Base 4:4.3.4
 _ZTSN6Kopete17PasswordedAccountE@Base 4:4.3.4
 _ZTSN6Kopete17PropertyContainerE@Base 4:4.3.4
 _ZTSN6Kopete17XmlContactStorageE@Base 4:4.3.4
 _ZTSN6Kopete18AppearanceSettingsE@Base 4:4.3.4
 _ZTSN6Kopete18ChatSessionManagerE@Base 4:4.3.4
 _ZTSN6Kopete18ContactListElementE@Base 4:4.3.4
 _ZTSN6Kopete18ContactListStorageE@Base 4:4.3.4
 _ZTSN6Kopete19OnlineStatusManagerE@Base 4:4.3.4
 _ZTSN6Kopete20SocketTimeoutWatcherE@Base 4:4.3.4
 _ZTSN6Kopete21MessageHandlerFactoryE@Base 4:4.3.4
 _ZTSN6Kopete23EmoticonMimeTypeHandlerE@Base 4:4.3.4
 _ZTSN6Kopete27ChatSessionMembersListModelE@Base 4:4.3.4
 _ZTSN6Kopete27SimpleMessageHandlerFactoryE@Base 4:4.3.4
 _ZTSN6Kopete2UI10InfoDialogE@Base 4:4.3.4
 _ZTSN6Kopete2UI12AvatarDialogE@Base 4:4.3.4
 _ZTSN6Kopete2UI13ContactActionE@Base 4:4.3.4
 _ZTSN6Kopete2UI14PasswordWidgetE@Base 4:4.3.4
 _ZTSN6Kopete2UI18AvatarWebcamDialogE@Base 4:4.4.1
 _ZTSN6Kopete2UI20AvatarSelectorWidgetE@Base 4:4.3.4
 _ZTSN6Kopete2UI21AddressBookLinkWidgetE@Base 4:4.3.4
 _ZTSN6Kopete2UI24ContactAddedNotifyDialogE@Base 4:4.3.4
 _ZTSN6Kopete2UI25AddressBookSelectorDialogE@Base 4:4.3.4
 _ZTSN6Kopete2UI25AddressBookSelectorWidgetE@Base 4:4.3.4
 _ZTSN6Kopete2UI25MetaContactSelectorWidgetE@Base 4:4.3.4
 _ZTSN6Kopete2UI8ListView10SearchLineE@Base 4:4.3.4
 _ZTSN6Kopete2UI8ListView12BoxComponentE@Base 4:4.3.4
 _ZTSN6Kopete2UI8ListView13ComponentBaseE@Base 4:4.3.4
 _ZTSN6Kopete2UI8ListView13TextComponentE@Base 4:4.3.4
 _ZTSN6Kopete2UI8ListView14ImageComponentE@Base 4:4.3.4
 _ZTSN6Kopete2UI8ListView15SpacerComponentE@Base 4:4.3.4
 _ZTSN6Kopete2UI8ListView16ContactComponentE@Base 4:4.3.4
 _ZTSN6Kopete2UI8ListView16HSpacerComponentE@Base 4:4.3.4
 _ZTSN6Kopete2UI8ListView16VSpacerComponentE@Base 4:4.3.4
 _ZTSN6Kopete2UI8ListView20DisplayNameComponentE@Base 4:4.3.4
 _ZTSN6Kopete2UI8ListView4ItemE@Base 4:4.3.4
 _ZTSN6Kopete2UI8ListView8ListViewE@Base 4:4.3.4
 _ZTSN6Kopete2UI8ListView9ComponentE@Base 4:4.3.4
 _ZTSN6Kopete4TaskE@Base 4:4.3.4
 _ZTSN6Kopete5GroupE@Base 4:4.3.4
 _ZTSN6Kopete6PluginE@Base 4:4.3.4
 _ZTSN6Kopete6Status10StatusItemE@Base 4:4.3.4
 _ZTSN6Kopete6Status11StatusGroupE@Base 4:4.3.4
 _ZTSN6Kopete6Status6StatusE@Base 4:4.3.4
 _ZTSN6Kopete7AccountE@Base 4:4.3.4
 _ZTSN6Kopete7ContactE@Base 4:4.3.4
 _ZTSN6Kopete8IdentityE@Base 4:4.3.4
 _ZTSN6Kopete8PasswordE@Base 4:4.3.4
 _ZTSN6Kopete8ProtocolE@Base 4:4.3.4
 _ZTSN6Kopete8TransferE@Base 4:4.3.4
 _ZTSN6Kopete9IdleTimerE@Base 4:4.3.4
 _ZTSN6Kopete9InfoEventE@Base 4:4.3.4
 _ZTV10KopeteView@Base 4:4.3.4
 _ZTV14AddContactPage@Base 4:4.3.4
 _ZTV15AccountSelector@Base 4:4.3.4
 _ZTV17CollapsibleWidget@Base 4:4.3.4
 _ZTV17KopeteViewManager@Base 4:4.3.4
 _ZTV17SettingsContainer@Base 4:4.3.4
 _ZTV23KopeteEditAccountWidget@Base 4:4.3.4
 _ZTV23KopetePreferencesAction@Base 4:4.3.4
 _ZTVN6Kopete10FileEngineE@Base 4:4.3.4
 _ZTVN6Kopete10ViewPluginE@Base 4:4.3.4
 _ZTVN6Kopete11ChatSessionE@Base 4:4.3.4
 _ZTVN6Kopete11ContactListE@Base 4:4.3.4
 _ZTVN6Kopete11MetaContactE@Base 4:4.3.4
 _ZTVN6Kopete12MessageEventE@Base 4:4.3.4
 _ZTVN6Kopete12WebcamWidgetE@Base 4:4.3.4
 _ZTVN6Kopete13AvatarManagerE@Base 4:4.3.4
 _ZTVN6Kopete13PluginManagerE@Base 4:4.3.4
 _ZTVN6Kopete13StatusManagerE@Base 4:4.3.4
 _ZTVN6Kopete13WalletManagerE@Base 4:4.3.4
 _ZTVN6Kopete14AccountManagerE@Base 4:4.3.4
 _ZTVN6Kopete14AddedInfoEventE@Base 4:4.3.4
 _ZTVN6Kopete14AvatarQueryJobE@Base 4:4.3.4
 _ZTVN6Kopete14CommandHandlerE@Base 4:4.3.4
 _ZTVN6Kopete14MessageHandlerE@Base 4:4.3.4
 _ZTVN6Kopete14StatusSettingsE@Base 4:4.3.4
 _ZTVN6Kopete15ContactTaskBaseE@Base 4:4.3.4
 _ZTVN6Kopete15IdentityManagerE@Base 4:4.3.4
 _ZTVN6Kopete15KABCPersistenceE@Base 4:4.3.4
 _ZTVN6Kopete15MimeTypeHandlerE@Base 4:4.3.4
 _ZTVN6Kopete15TransferManagerE@Base 4:4.3.4
 _ZTVN6Kopete16BehaviorSettingsE@Base 4:4.3.4
 _ZTVN6Kopete16InfoEventManagerE@Base 4:4.3.4
 _ZTVN6Kopete17DeleteContactTaskE@Base 4:4.3.4
 _ZTVN6Kopete17FileEngineHandlerE@Base 4:4.3.4
 _ZTVN6Kopete17PasswordedAccountE@Base 4:4.3.4
 _ZTVN6Kopete17PropertyContainerE@Base 4:4.3.4
 _ZTVN6Kopete17XmlContactStorageE@Base 4:4.3.4
 _ZTVN6Kopete18AppearanceSettingsE@Base 4:4.3.4
 _ZTVN6Kopete18ChatSessionManagerE@Base 4:4.3.4
 _ZTVN6Kopete18ContactListElementE@Base 4:4.3.4
 _ZTVN6Kopete18ContactListStorageE@Base 4:4.3.4
 _ZTVN6Kopete19OnlineStatusManagerE@Base 4:4.3.4
 _ZTVN6Kopete20SocketTimeoutWatcherE@Base 4:4.3.4
 _ZTVN6Kopete21MessageHandlerFactoryE@Base 4:4.3.4
 _ZTVN6Kopete23EmoticonMimeTypeHandlerE@Base 4:4.3.4
 _ZTVN6Kopete27ChatSessionMembersListModelE@Base 4:4.3.4
 _ZTVN6Kopete27SimpleMessageHandlerFactoryE@Base 4:4.3.4
 _ZTVN6Kopete2UI10InfoDialogE@Base 4:4.3.4
 _ZTVN6Kopete2UI12AvatarDialogE@Base 4:4.3.4
 _ZTVN6Kopete2UI13ContactActionE@Base 4:4.3.4
 _ZTVN6Kopete2UI14PasswordWidgetE@Base 4:4.3.4
 _ZTVN6Kopete2UI18AvatarWebcamDialogE@Base 4:4.4.1
 _ZTVN6Kopete2UI20AvatarSelectorWidgetE@Base 4:4.3.4
 _ZTVN6Kopete2UI21AddressBookLinkWidgetE@Base 4:4.3.4
 _ZTVN6Kopete2UI24ContactAddedNotifyDialogE@Base 4:4.3.4
 _ZTVN6Kopete2UI25AddressBookSelectorDialogE@Base 4:4.3.4
 _ZTVN6Kopete2UI25AddressBookSelectorWidgetE@Base 4:4.3.4
 _ZTVN6Kopete2UI25MetaContactSelectorWidgetE@Base 4:4.3.4
 _ZTVN6Kopete2UI8ListView10SearchLineE@Base 4:4.3.4
 _ZTVN6Kopete2UI8ListView12BoxComponentE@Base 4:4.3.4
 _ZTVN6Kopete2UI8ListView13ComponentBaseE@Base 4:4.3.4
 _ZTVN6Kopete2UI8ListView13TextComponentE@Base 4:4.3.4
 _ZTVN6Kopete2UI8ListView14ImageComponentE@Base 4:4.3.4
 _ZTVN6Kopete2UI8ListView15SpacerComponentE@Base 4:4.3.4
 _ZTVN6Kopete2UI8ListView16ContactComponentE@Base 4:4.3.4
 _ZTVN6Kopete2UI8ListView16HSpacerComponentE@Base 4:4.3.4
 _ZTVN6Kopete2UI8ListView16VSpacerComponentE@Base 4:4.3.4
 _ZTVN6Kopete2UI8ListView20DisplayNameComponentE@Base 4:4.3.4
 _ZTVN6Kopete2UI8ListView4ItemE@Base 4:4.3.4
 _ZTVN6Kopete2UI8ListView8ListViewE@Base 4:4.3.4
 _ZTVN6Kopete2UI8ListView9ComponentE@Base 4:4.3.4
 _ZTVN6Kopete4TaskE@Base 4:4.3.4
 _ZTVN6Kopete5GroupE@Base 4:4.3.4
 _ZTVN6Kopete6PluginE@Base 4:4.3.4
 _ZTVN6Kopete6Status10StatusItemE@Base 4:4.3.4
 _ZTVN6Kopete6Status11StatusGroupE@Base 4:4.3.4
 _ZTVN6Kopete6Status6StatusE@Base 4:4.3.4
 _ZTVN6Kopete7AccountE@Base 4:4.3.4
 _ZTVN6Kopete7ContactE@Base 4:4.3.4
 _ZTVN6Kopete8IdentityE@Base 4:4.3.4
 _ZTVN6Kopete8PasswordE@Base 4:4.3.4
 _ZTVN6Kopete8ProtocolE@Base 4:4.3.4
 _ZTVN6Kopete8TransferE@Base 4:4.3.4
 _ZTVN6Kopete9IdleTimerE@Base 4:4.3.4
 _ZTVN6Kopete9InfoEventE@Base 4:4.3.4
 _ZZN6Kopete2UI8ListView4Item7Private18theVisibilityTimerEvE5timer@Base 4:4.3.4
 _ZZN6Kopete2UI8ListView4Item7Private21theLayoutAnimateTimerEvE5timer@Base 4:4.3.4
 (c++)"non-virtual thunk to AccountSelector::~AccountSelector()@Base" 4:4.3.4
 (c++)"non-virtual thunk to AddContactPage::~AddContactPage()@Base" 4:4.3.4
 (c++)"non-virtual thunk to CollapsibleWidget::~CollapsibleWidget()@Base" 4:4.3.4
 (c++)"non-virtual thunk to Kopete::ChatSession::~ChatSession()@Base" 4:4.3.4
 (c++)"non-virtual thunk to Kopete::Plugin::~Plugin()@Base" 4:4.3.4
 (c++)"non-virtual thunk to Kopete::Protocol::~Protocol()@Base" 4:4.3.4
 (c++)"non-virtual thunk to Kopete::UI::AddressBookSelectorDialog::~AddressBookSelectorDialog()@Base" 4:4.3.4
 (c++)"non-virtual thunk to Kopete::UI::AddressBookSelectorWidget::~AddressBookSelectorWidget()@Base" 4:4.3.4
 (c++)"non-virtual thunk to Kopete::UI::AvatarDialog::~AvatarDialog()@Base" 4:4.3.4
 (c++)"non-virtual thunk to Kopete::UI::AvatarSelectorWidget::~AvatarSelectorWidget()@Base" 4:4.3.4
 (c++)"non-virtual thunk to Kopete::UI::AvatarWebcamDialog::~AvatarWebcamDialog()@Base" 4:4.4.1
 (c++)"non-virtual thunk to Kopete::UI::ContactAddedNotifyDialog::~ContactAddedNotifyDialog()@Base" 4:4.3.4
 (c++)"non-virtual thunk to Kopete::UI::InfoDialog::~InfoDialog()@Base" 4:4.3.4
 (c++)"non-virtual thunk to Kopete::UI::ListView::Item::componentAdded(Kopete::UI::ListView::Component*)@Base" 4:4.3.4
 (c++)"non-virtual thunk to Kopete::UI::ListView::Item::componentRemoved(Kopete::UI::ListView::Component*)@Base" 4:4.3.4
 (c++)"non-virtual thunk to Kopete::UI::ListView::Item::componentResized(Kopete::UI::ListView::Component*)@Base" 4:4.3.4
 (c++)"non-virtual thunk to Kopete::UI::ListView::Item::paintCell(QPainter*, QColorGroup const&, int, int, int)@Base" 4:4.3.4
 (c++)"non-virtual thunk to Kopete::UI::ListView::Item::relayout()@Base" 4:4.3.4
 (c++)"non-virtual thunk to Kopete::UI::ListView::Item::repaint()@Base" 4:4.3.4
 (c++)"non-virtual thunk to Kopete::UI::ListView::Item::setHeight(int)@Base" 4:4.3.4
 (c++)"non-virtual thunk to Kopete::UI::ListView::Item::setup()@Base" 4:4.3.4
 (c++)"non-virtual thunk to Kopete::UI::ListView::Item::width(QFontMetrics const&, Q3ListView const*, int) const@Base" 4:4.3.4
 (c++)"non-virtual thunk to Kopete::UI::ListView::Item::~Item()@Base" 4:4.3.4
 (c++)"non-virtual thunk to Kopete::UI::ListView::ListView::~ListView()@Base" 4:4.3.4
 (c++)"non-virtual thunk to Kopete::UI::ListView::SearchLine::~SearchLine()@Base" 4:4.3.4
 (c++)"non-virtual thunk to Kopete::UI::MetaContactSelectorWidget::~MetaContactSelectorWidget()@Base" 4:4.3.4
 (c++)"non-virtual thunk to Kopete::UI::PasswordWidget::~PasswordWidget()@Base" 4:4.3.4
 (optional=gccinternal|c++)"non-virtual thunk to Kopete::ViewPlugin::~ViewPlugin()@Base" 4:4.6.5
 (c++)"non-virtual thunk to Kopete::WebcamWidget::~WebcamWidget()@Base" 4:4.3.4
 (c++)"non-virtual thunk to SettingsContainer::~SettingsContainer()@Base" 4:4.3.4
