# SymbolsHelper-Confirmed: 1:0.0.6 alpha amd64 armel hppa hurd-i386 i386 ia64 kfreebsd-amd64 kfreebsd-i386 mipsel powerpc s390 sparc
libqimageblitz.so.4 libqimageblitz4 #MINVER#
 _ZN11QImageScale17qimageCalcApointsEiii@Base 1:0.0.4
 _ZN11QImageScale17qimageCalcXPointsEii@Base 1:0.0.4
 _ZN11QImageScale17qimageCalcYPointsEPjiii@Base 1:0.0.4
 _ZN11QImageScale19qimageCalcScaleInfoERK6QImageiiiic@Base 1:0.0.4
 _ZN11QImageScale19qimageFreeScaleInfoEPNS_19__qimage_scale_infoE@Base 1:0.0.4
 _ZN12BlitzCPUInfo13haveExtensionEj@Base 1:0.0.4
 _ZN12BlitzPrivate12blurScanLineEPfiPjS1_ii@Base 1:0.0.4
 _ZN12BlitzPrivate13getBlurKernelERif@Base 1:0.0.4
 _ZN12BlitzPrivate25defaultConvolveMatrixSizeEffb@Base 1:0.0.4
 _ZN16BlitzScaleFilter14verticalFilterEP6QImageS1_ffPNS_16ContributionInfoEN5Blitz15ScaleFilterTypeE@Base 1:0.0.4
 _ZN16BlitzScaleFilter16horizontalFilterEP6QImageS1_ffPNS_16ContributionInfoEN5Blitz15ScaleFilterTypeE@Base 1:0.0.4
 _ZN5Blitz10desaturateER6QImagef@Base 1:0.0.4
 _ZN5Blitz11smoothScaleER6QImageRK5QSizeN2Qt15AspectRatioModeE@Base 1:0.0.4
 _ZN5Blitz11smoothScaleER6QImageiiN2Qt15AspectRatioModeE@Base 1:0.0.4
 _ZN5Blitz12convolveEdgeER6QImagefNS_13EffectQualityE@Base 1:0.0.4
 _ZN5Blitz12gaussianBlurER6QImageff@Base 1:0.0.4
 _ZN5Blitz12grayGradientERK5QSizehhNS_12GradientTypeE@Base 1:0.0.4
 _ZN5Blitz15convolveIntegerER6QImageiPii@Base 1:0.0.4
 _ZN5Blitz15gaussianSharpenER6QImageffNS_13EffectQualityE@Base 1:0.0.4
 _ZN5Blitz16channelIntensityER6QImagefNS_10RGBChannelE@Base 1:0.0.4
 _ZN5Blitz17smoothScaleFilterER6QImageRK5QSizefNS_15ScaleFilterTypeEN2Qt15AspectRatioModeE@Base 1:0.0.4
 _ZN5Blitz17smoothScaleFilterER6QImageiifNS_15ScaleFilterTypeEN2Qt15AspectRatioModeE@Base 1:0.0.4
 _ZN5Blitz18unbalancedGradientERK5QSizeRK6QColorS5_NS_12GradientTypeEii@Base 1:0.0.4
 _ZN5Blitz22grayUnbalancedGradientERK5QSizehhNS_12GradientTypeEii@Base 1:0.0.4
 _ZN5Blitz4blurER6QImagei@Base 1:0.0.4
 _ZN5Blitz4edgeER6QImage@Base 1:0.0.4
 _ZN5Blitz4fadeER6QImagefRK6QColor@Base 1:0.0.4
 _ZN5Blitz4waveER6QImageffj@Base 1:0.0.4
 _ZN5Blitz5swirlER6QImagef@Base 1:0.0.4
 _ZN5Blitz6embossER6QImageffNS_13EffectQualityE@Base 1:0.0.4
 _ZN5Blitz6invertER6QImageNS0_10InvertModeE@Base 1:0.0.4
 _ZN5Blitz7flattenER6QImageRK6QColorS4_@Base 1:0.0.4
 _ZN5Blitz7implodeER6QImagef@Base 1:0.0.4
 _ZN5Blitz7sharpenER6QImagei@Base 1:0.0.4
 _ZN5Blitz8charcoalER6QImage@Base 1:0.0.4
 _ZN5Blitz8contrastER6QImagebi@Base 1:0.0.4
 _ZN5Blitz8convolveER6QImageiPf@Base 1:0.0.4
 _ZN5Blitz8equalizeER6QImage@Base 1:0.0.4
 _ZN5Blitz8gradientERK5QSizeRK6QColorS5_NS_12GradientTypeE@Base 1:0.0.4
 _ZN5Blitz8modulateER6QImageS1_bNS_14ModulationTypeEiNS_10RGBChannelE@Base 1:0.0.4
 _ZN5Blitz8oilPaintER6QImagefNS_13EffectQualityE@Base 1:0.0.4
 _ZN5Blitz9antialiasER6QImage@Base 1:0.0.4
 _ZN5Blitz9despeckleER6QImage@Base 1:0.0.4
 _ZN5Blitz9grayscaleER6QImageb@Base 1:0.0.4
 _ZN5Blitz9intensityER6QImagef@Base 1:0.0.4
 _ZN5Blitz9normalizeER6QImage@Base 1:0.0.4
 _ZN5Blitz9thresholdER6QImagehNS_10RGBChannelEjj@Base 1:0.0.4
 (optional=templinst)_ZN7QVectorIjE13detach_helperEv@Base 1:0.0.6
 (optional=templinst)_ZN7QVectorIjE7reallocEii@Base 1:0.0.4
 (optional=templinst)_ZN7QVectorIjEC1Ei@Base 1:0.0.4
 (optional=templinst)_ZN7QVectorIjEC2Ei@Base 1:0.0.6
 (optional=templinst)_ZN7QVectorIjEaSERKS0_@Base 1:0.0.4
 (arch=hurd-i386 i386 kfreebsd-i386)__qimageScale_mmx_AARGBA@Base 1:0.0.6
