libkipi.so.10 libkipi10 #MINVER#
 _ZN4KIPI12ConfigWidget11qt_metacallEN11QMetaObject4CallEiPPv@Base 4:4.5.90
 _ZN4KIPI12ConfigWidget11qt_metacastEPKc@Base 4:4.5.90
 _ZN4KIPI12ConfigWidget12slotCheckAllEv@Base 4:4.10.1
 _ZN4KIPI12ConfigWidget13slotClearListEv@Base 4:4.10.1
 _ZN4KIPI12ConfigWidget13slotSetFilterERK7QStringN2Qt15CaseSensitivityE@Base 4:4.10.1
 _ZN4KIPI12ConfigWidget14slotProcessUrlERK7QString@Base 4:4.10.1
 _ZN4KIPI12ConfigWidget15setFilterWidgetEP7QWidget@Base 4:4.10.1
 _ZN4KIPI12ConfigWidget15slotItemClickedEv@Base 4:4.10.1
 _ZN4KIPI12ConfigWidget16staticMetaObjectE@Base 4:4.5.90
 _ZN4KIPI12ConfigWidget18signalSearchResultEb@Base 4:4.10.1
 _ZN4KIPI12ConfigWidget5applyEv@Base 4:4.5.90
 _ZN4KIPI12ConfigWidget7Private10updateInfoEv@Base 4:4.10.1
 _ZN4KIPI12ConfigWidgetC1EP7QWidget@Base 4:4.5.90
 _ZN4KIPI12ConfigWidgetC2EP7QWidget@Base 4:4.5.90
 _ZN4KIPI12ConfigWidgetD0Ev@Base 4:4.5.90
 _ZN4KIPI12ConfigWidgetD1Ev@Base 4:4.5.90
 _ZN4KIPI12ConfigWidgetD2Ev@Base 4:4.5.90
 _ZN4KIPI12PluginLoader10pluginListEv@Base 4:4.5.90
 _ZN4KIPI12PluginLoader11loadPluginsEv@Base 4:4.5.90
 _ZN4KIPI12PluginLoader11qt_metacallEN11QMetaObject4CallEiPPv@Base 4:4.5.90
 _ZN4KIPI12PluginLoader11qt_metacastEPKc@Base 4:4.5.90
 _ZN4KIPI12PluginLoader12setInterfaceEPNS_9InterfaceE@Base 4:4.10.1
 _ZN4KIPI12PluginLoader16staticMetaObjectE@Base 4:4.5.90
 _ZN4KIPI12PluginLoader21setIgnoredPluginsListERK11QStringList@Base 4:4.10.1
 _ZN4KIPI12PluginLoader24setDisabledPluginActionsERK11QStringList@Base 4:4.10.1
 _ZN4KIPI12PluginLoader4Info13setShouldLoadEb@Base 4:4.5.90
 _ZN4KIPI12PluginLoader4Info6reloadEv@Base 4:4.5.90
 _ZN4KIPI12PluginLoader4InfoC1EP13KXmlGuiWindowRK10KSharedPtrI8KServiceEb@Base 4:4.10.1
 _ZN4KIPI12PluginLoader4InfoC2EP13KXmlGuiWindowRK10KSharedPtrI8KServiceEb@Base 4:4.10.1
 _ZN4KIPI12PluginLoader4InfoD1Ev@Base 4:4.5.90
 _ZN4KIPI12PluginLoader4InfoD2Ev@Base 4:4.5.90
 _ZN4KIPI12PluginLoader4initEv@Base 4:4.10.1
 _ZN4KIPI12PluginLoader4plugEPNS0_4InfoE@Base 4:4.5.90
 _ZN4KIPI12PluginLoader6replugEv@Base 4:4.5.90
 _ZN4KIPI12PluginLoader6unplugEPNS0_4InfoE@Base 4:4.5.90
 _ZN4KIPI12PluginLoader8instanceEv@Base 4:4.5.90
 _ZN4KIPI12PluginLoaderC1EP13KXmlGuiWindow@Base 4:4.10.1
 _ZN4KIPI12PluginLoaderC1Ev@Base 4:4.10.1
 _ZN4KIPI12PluginLoaderC2EP13KXmlGuiWindow@Base 4:4.10.1
 _ZN4KIPI12PluginLoaderC2Ev@Base 4:4.10.1
 _ZN4KIPI12PluginLoaderD0Ev@Base 4:4.5.90
 _ZN4KIPI12PluginLoaderD1Ev@Base 4:4.5.90
 _ZN4KIPI12PluginLoaderD2Ev@Base 4:4.5.90
 _ZN4KIPI12UploadWidget11qt_metacallEN11QMetaObject4CallEiPPv@Base 4:4.5.90
 _ZN4KIPI12UploadWidget11qt_metacastEPKc@Base 4:4.5.90
 _ZN4KIPI12UploadWidget16selectionChangedEv@Base 4:4.5.90
 _ZN4KIPI12UploadWidget16staticMetaObjectE@Base 4:4.5.90
 _ZN4KIPI12UploadWidgetC1EP7QWidget@Base 4:4.5.90
 _ZN4KIPI12UploadWidgetC2EP7QWidget@Base 4:4.5.90
 _ZN4KIPI12UploadWidgetD0Ev@Base 4:4.5.90
 _ZN4KIPI12UploadWidgetD1Ev@Base 4:4.5.90
 _ZN4KIPI12UploadWidgetD2Ev@Base 4:4.5.90
 _ZN4KIPI14FileReadLocker6relockEv@Base 4:4.10.1
 _ZN4KIPI14FileReadLocker6unlockEv@Base 4:4.10.1
 _ZN4KIPI14FileReadLockerC1EPNS_15ImageInfoSharedE@Base 4:4.10.1
 _ZN4KIPI14FileReadLockerC1EPNS_9InterfaceERK4KUrl@Base 4:4.10.1
 _ZN4KIPI14FileReadLockerC2EPNS_15ImageInfoSharedE@Base 4:4.10.1
 _ZN4KIPI14FileReadLockerC2EPNS_9InterfaceERK4KUrl@Base 4:4.10.1
 _ZN4KIPI14FileReadLockerD1Ev@Base 4:4.10.1
 _ZN4KIPI14FileReadLockerD2Ev@Base 4:4.10.1
 _ZN4KIPI15FileWriteLocker6relockEv@Base 4:4.10.1
 _ZN4KIPI15FileWriteLocker6unlockEv@Base 4:4.10.1
 _ZN4KIPI15FileWriteLockerC1EPNS_15ImageInfoSharedE@Base 4:4.10.1
 _ZN4KIPI15FileWriteLockerC1EPNS_9InterfaceERK4KUrl@Base 4:4.10.1
 _ZN4KIPI15FileWriteLockerC2EPNS_15ImageInfoSharedE@Base 4:4.10.1
 _ZN4KIPI15FileWriteLockerC2EPNS_9InterfaceERK4KUrl@Base 4:4.10.1
 _ZN4KIPI15FileWriteLockerD1Ev@Base 4:4.10.1
 _ZN4KIPI15FileWriteLockerD2Ev@Base 4:4.10.1
 _ZN4KIPI15ImageCollectionC1EPNS_21ImageCollectionSharedE@Base 4:4.5.90
 _ZN4KIPI15ImageCollectionC1ERKS0_@Base 4:4.5.90
 _ZN4KIPI15ImageCollectionC1Ev@Base 4:4.5.90
 _ZN4KIPI15ImageCollectionC2EPNS_21ImageCollectionSharedE@Base 4:4.5.90
 _ZN4KIPI15ImageCollectionC2ERKS0_@Base 4:4.5.90
 _ZN4KIPI15ImageCollectionC2Ev@Base 4:4.5.90
 _ZN4KIPI15ImageCollectionD1Ev@Base 4:4.5.90
 _ZN4KIPI15ImageCollectionD2Ev@Base 4:4.5.90
 _ZN4KIPI15ImageCollectionaSERKS0_@Base 4:4.5.90
 _ZN4KIPI15ImageInfoShared16clearReservationEP7QObject@Base 4:4.10.1
 _ZN4KIPI15ImageInfoShared6addRefEv@Base 4:4.5.90
 _ZN4KIPI15ImageInfoShared9cloneDataEPS0_@Base 4:4.5.90
 _ZN4KIPI15ImageInfoShared9removeRefEv@Base 4:4.5.90
 _ZN4KIPI15ImageInfoSharedC1EPNS_9InterfaceERK4KUrl@Base 4:4.5.90
 _ZN4KIPI15ImageInfoSharedC1Ev@Base 4:4.10.1
 _ZN4KIPI15ImageInfoSharedC2EPNS_9InterfaceERK4KUrl@Base 4:4.5.90
 _ZN4KIPI15ImageInfoSharedC2Ev@Base 4:4.10.1
 _ZN4KIPI15ImageInfoSharedD0Ev@Base 4:4.8.4
 _ZN4KIPI15ImageInfoSharedD1Ev@Base 4:4.8.4
 _ZN4KIPI15ImageInfoSharedD2Ev@Base 4:4.8.4
 _ZN4KIPI21ImageCollectionShared10uploadPathEv@Base 4:4.5.90
 _ZN4KIPI21ImageCollectionShared10uploadRootEv@Base 4:4.5.90
 _ZN4KIPI21ImageCollectionShared11isDirectoryEv@Base 4:4.5.90
 _ZN4KIPI21ImageCollectionShared14uploadRootNameEv@Base 4:4.5.90
 _ZN4KIPI21ImageCollectionShared4dateEv@Base 4:4.5.90
 _ZN4KIPI21ImageCollectionShared4pathEv@Base 4:4.5.90
 _ZN4KIPI21ImageCollectionShared6addRefEv@Base 4:4.5.90
 _ZN4KIPI21ImageCollectionShared7commentEv@Base 4:4.5.90
 _ZN4KIPI21ImageCollectionShared8categoryEv@Base 4:4.5.90
 _ZN4KIPI21ImageCollectionShared9removeRefEv@Base 4:4.5.90
 _ZN4KIPI21ImageCollectionSharedC1Ev@Base 4:4.5.90
 _ZN4KIPI21ImageCollectionSharedC2Ev@Base 4:4.5.90
 _ZN4KIPI21ImageCollectionSharedD0Ev@Base 4:4.8.4
 _ZN4KIPI21ImageCollectionSharedD1Ev@Base 4:4.8.4
 _ZN4KIPI21ImageCollectionSharedD2Ev@Base 4:4.8.4
 _ZN4KIPI21ImageCollectionSharedeqERS0_@Base 4:4.5.90
 _ZN4KIPI23ImageCollectionSelector11qt_metacallEN11QMetaObject4CallEiPPv@Base 4:4.5.90
 _ZN4KIPI23ImageCollectionSelector11qt_metacastEPKc@Base 4:4.5.90
 _ZN4KIPI23ImageCollectionSelector16selectionChangedEv@Base 4:4.5.90
 _ZN4KIPI23ImageCollectionSelector16staticMetaObjectE@Base 4:4.5.90
 _ZN4KIPI23ImageCollectionSelector24enableVirtualCollectionsEb@Base 4:4.10.1
 _ZN4KIPI23ImageCollectionSelectorC1EP7QWidget@Base 4:4.5.90
 _ZN4KIPI23ImageCollectionSelectorC2EP7QWidget@Base 4:4.5.90
 _ZN4KIPI23ImageCollectionSelectorD0Ev@Base 4:4.5.90
 _ZN4KIPI23ImageCollectionSelectorD1Ev@Base 4:4.5.90
 _ZN4KIPI23ImageCollectionSelectorD2Ev@Base 4:4.5.90
 _ZN4KIPI6Plugin11qt_metacallEN11QMetaObject4CallEiPPv@Base 4:4.5.90
 _ZN4KIPI6Plugin11qt_metacastEPKc@Base 4:4.5.90
 _ZN4KIPI6Plugin12clearActionsEv@Base 4:4.10.1
 _ZN4KIPI6Plugin12mergeXMLFileEP13KXMLGUIClient@Base 4:4.10.1
 _ZN4KIPI6Plugin13setUiBaseNameEPKc@Base 4:4.10.1
 _ZN4KIPI6Plugin16staticMetaObjectE@Base 4:4.5.90
 _ZN4KIPI6Plugin18setDefaultCategoryENS_8CategoryE@Base 4:4.10.1
 _ZN4KIPI6Plugin5setupEP7QWidget@Base 4:4.5.90
 _ZN4KIPI6Plugin7Private9XMLParser10buildPathsERK11QDomElementRK12QDomNodeListR5QHashI7QString5QListIS3_EE@Base 4:4.10.1
 _ZN4KIPI6Plugin7Private9XMLParser10buildPathsERK11QDomElementRK12QDomNodeListR5QHashI7QString5QListIS3_EERSC_@Base 4:4.10.1
 _ZN4KIPI6Plugin7Private9XMLParser11makeElementER12QDomDocumentRK11QDomElement@Base 4:4.10.1
 _ZN4KIPI6Plugin7Private9XMLParser14findByNameAttrERK12QDomNodeListRK11QDomElement@Base 4:4.10.1
 _ZN4KIPI6Plugin7Private9XMLParser21removeDisabledActionsER11QDomElement@Base 4:4.10.1
 _ZN4KIPI6Plugin7rebuildEv@Base 4:4.10.1
 _ZN4KIPI6Plugin8setupXMLEv@Base 4:4.10.1
 _ZN4KIPI6Plugin9addActionEP7KAction@Base 4:4.5.90
 _ZN4KIPI6Plugin9addActionEP7KActionNS_8CategoryE@Base 4:4.10.1
 _ZN4KIPI6Plugin9addActionERK7QStringP7KAction@Base 4:4.10.1
 _ZN4KIPI6Plugin9addActionERK7QStringP7KActionNS_8CategoryE@Base 4:4.10.1
 _ZN4KIPI6PluginC1ERK14KComponentDataP7QObjectPKc@Base 4:4.5.90
 _ZN4KIPI6PluginC2ERK14KComponentDataP7QObjectPKc@Base 4:4.5.90
 _ZN4KIPI6PluginD0Ev@Base 4:4.5.90
 _ZN4KIPI6PluginD1Ev@Base 4:4.5.90
 _ZN4KIPI6PluginD2Ev@Base 4:4.5.90
 _ZN4KIPI9ImageInfo13addAttributesERK4QMapI7QString8QVariantE@Base 4:4.5.90
 _ZN4KIPI9ImageInfo13delAttributesERK11QStringList@Base 4:4.5.90
 _ZN4KIPI9ImageInfo15clearAttributesEv@Base 4:4.5.90
 _ZN4KIPI9ImageInfo9cloneDataERKS0_@Base 4:4.5.90
 _ZN4KIPI9ImageInfoC1EPNS_15ImageInfoSharedE@Base 4:4.5.90
 _ZN4KIPI9ImageInfoC1ERKS0_@Base 4:4.5.90
 _ZN4KIPI9ImageInfoC1Ev@Base 4:4.10.1
 _ZN4KIPI9ImageInfoC2EPNS_15ImageInfoSharedE@Base 4:4.5.90
 _ZN4KIPI9ImageInfoC2ERKS0_@Base 4:4.5.90
 _ZN4KIPI9ImageInfoC2Ev@Base 4:4.10.1
 _ZN4KIPI9ImageInfoD1Ev@Base 4:4.5.90
 _ZN4KIPI9ImageInfoD2Ev@Base 4:4.5.90
 _ZN4KIPI9ImageInfoaSERKS0_@Base 4:4.10.1
 _ZN4KIPI9Interface10thumbnailsERKN4KUrl4ListEi@Base 4:4.5.90
 _ZN4KIPI9Interface11hostSettingERK7QString@Base 4:4.5.90
 _ZN4KIPI9Interface11qt_metacallEN11QMetaObject4CallEiPPv@Base 4:4.5.90
 _ZN4KIPI9Interface11qt_metacastEPKc@Base 4:4.5.90
 _ZN4KIPI9Interface12currentAlbumEv@Base 4:4.5.90
 _ZN4KIPI9Interface12gotThumbnailERK4KUrlRK7QPixmap@Base 4:4.5.90
 _ZN4KIPI9Interface13gotKDEPreviewERK9KFileItemRK7QPixmap@Base 4:4.5.90
 _ZN4KIPI9Interface13refreshImagesERKN4KUrl4ListE@Base 4:4.5.90
 _ZN4KIPI9Interface16clearReservationERK4KUrlP7QObject@Base 4:4.10.1
 _ZN4KIPI9Interface16currentSelectionEv@Base 4:4.5.90
 _ZN4KIPI9Interface16failedKDEPreviewERK9KFileItem@Base 4:4.5.90
 _ZN4KIPI9Interface16progressCanceledERK7QString@Base 4:4.10.1
 _ZN4KIPI9Interface16selectionChangedEb@Base 4:4.5.90
 _ZN4KIPI9Interface16staticMetaObjectE@Base 4:4.5.90
 _ZN4KIPI9Interface17progressCompletedERK7QString@Base 4:4.10.1
 _ZN4KIPI9Interface17reservedForActionERK4KUrlRK7QString@Base 4:4.10.1
 _ZN4KIPI9Interface18reservationClearedERK4KUrl@Base 4:4.10.1
 _ZN4KIPI9Interface19currentAlbumChangedEb@Base 4:4.5.90
 _ZN4KIPI9Interface20progressValueChangedERK7QStringf@Base 4:4.10.1
 _ZN4KIPI9Interface21progressStatusChangedERK7QStringS3_@Base 4:4.10.1
 _ZN4KIPI9Interface24progressThumbnailChangedERK7QStringRK7QPixmap@Base 4:4.10.1
 _ZN4KIPI9Interface7versionEv@Base 4:4.5.90
 _ZN4KIPI9Interface8addImageERK4KUrlR7QString@Base 4:4.5.90
 _ZN4KIPI9Interface8delImageERK4KUrl@Base 4:4.5.90
 _ZN4KIPI9Interface9allAlbumsEv@Base 4:4.5.90
 _ZN4KIPI9Interface9thumbnailERK4KUrli@Base 4:4.5.90
 _ZN4KIPI9InterfaceC1EP7QObjectPKc@Base 4:4.5.90
 _ZN4KIPI9InterfaceC2EP7QObjectPKc@Base 4:4.5.90
 _ZN4KIPI9InterfaceD0Ev@Base 4:4.5.90
 _ZN4KIPI9InterfaceD1Ev@Base 4:4.5.90
 _ZN4KIPI9InterfaceD2Ev@Base 4:4.5.90
 _ZNK4KIPI12ConfigWidget10metaObjectEv@Base 4:4.5.90
 _ZNK4KIPI12PluginLoader10metaObjectEv@Base 4:4.5.90
 _ZNK4KIPI12PluginLoader12configWidgetEP7QWidget@Base 4:4.5.90
 _ZNK4KIPI12PluginLoader18kipiPluginsVersionEv@Base 4:4.10.1
 _ZNK4KIPI12PluginLoader21disabledPluginActionsEv@Base 4:4.10.1
 _ZNK4KIPI12PluginLoader4Info10shouldLoadEv@Base 4:4.5.90
 _ZNK4KIPI12PluginLoader4Info16pluginCategoriesEv@Base 4:4.10.1
 _ZNK4KIPI12PluginLoader4Info4iconEv@Base 4:4.5.90
 _ZNK4KIPI12PluginLoader4Info4nameEv@Base 4:4.5.90
 _ZNK4KIPI12PluginLoader4Info6authorEv@Base 4:4.10.1
 _ZNK4KIPI12PluginLoader4Info6pluginEv@Base 4:4.5.90
 _ZNK4KIPI12PluginLoader4Info7commentEv@Base 4:4.5.90
 _ZNK4KIPI12PluginLoader4Info7libraryEv@Base 4:4.5.90
 _ZNK4KIPI12PluginLoader4Info7serviceEv@Base 4:4.5.90
 _ZNK4KIPI12PluginLoader9interfaceEv@Base 4:4.5.90
 _ZNK4KIPI12UploadWidget10metaObjectEv@Base 4:4.5.90
 _ZNK4KIPI12UploadWidget23selectedImageCollectionEv@Base 4:4.5.90
 _ZNK4KIPI14FileReadLocker17fileReadWriteLockEv@Base 4:4.10.1
 _ZNK4KIPI15FileWriteLocker17fileReadWriteLockEv@Base 4:4.10.1
 _ZNK4KIPI15ImageCollection10uploadPathEv@Base 4:4.5.90
 _ZNK4KIPI15ImageCollection10uploadRootEv@Base 4:4.5.90
 _ZNK4KIPI15ImageCollection11isDirectoryEv@Base 4:4.5.90
 _ZNK4KIPI15ImageCollection14uploadRootNameEv@Base 4:4.5.90
 _ZNK4KIPI15ImageCollection4dateEv@Base 4:4.5.90
 _ZNK4KIPI15ImageCollection4nameEv@Base 4:4.5.90
 _ZNK4KIPI15ImageCollection4pathEv@Base 4:4.5.90
 _ZNK4KIPI15ImageCollection6imagesEv@Base 4:4.5.90
 _ZNK4KIPI15ImageCollection7commentEv@Base 4:4.5.90
 _ZNK4KIPI15ImageCollection7isValidEv@Base 4:4.5.90
 _ZNK4KIPI15ImageCollection8categoryEv@Base 4:4.5.90
 _ZNK4KIPI15ImageCollectioneqERKS0_@Base 4:4.5.90
 _ZNK4KIPI15ImageInfoShared14itemIsReservedEP7QString@Base 4:4.10.1
 _ZNK4KIPI15ImageInfoShared16reserveForActionEP7QObjectRK7QString@Base 4:4.10.1
 _ZNK4KIPI15ImageInfoShared19createReadWriteLockEv@Base 4:4.10.1
 _ZNK4KIPI15ImageInfoShared3urlEv@Base 4:4.10.1
 _ZNK4KIPI23ImageCollectionSelector10metaObjectEv@Base 4:4.5.90
 _ZNK4KIPI23ImageCollectionSelector24selectedImageCollectionsEv@Base 4:4.5.90
 _ZNK4KIPI6Plugin10metaObjectEv@Base 4:4.5.90
 _ZNK4KIPI6Plugin10uiBaseNameEv@Base 4:4.10.1
 _ZNK4KIPI6Plugin15defaultCategoryEv@Base 4:4.10.1
 _ZNK4KIPI6Plugin7actionsEP7QWidget@Base 4:4.10.1
 _ZNK4KIPI6Plugin8categoryEP7KAction@Base 4:4.10.1
 _ZNK4KIPI6Plugin9interfaceEv@Base 4:4.10.1
 _ZNK4KIPI9ImageInfo10attributesEv@Base 4:4.5.90
 _ZNK4KIPI9ImageInfo3urlEv@Base 4:4.10.1
 _ZNK4KIPI9Interface10getTagTreeEv@Base 4:4.5.90
 _ZNK4KIPI9Interface10hasFeatureENS_8FeaturesE@Base 4:4.5.90
 _ZNK4KIPI9Interface10hasFeatureERK7QString@Base 4:4.5.90
 _ZNK4KIPI9Interface10metaObjectEv@Base 4:4.5.90
 _ZNK4KIPI9Interface14itemIsReservedERK4KUrlP7QString@Base 4:4.10.1
 _ZNK4KIPI9Interface16reserveForActionERK4KUrlP7QObjectRK7QString@Base 4:4.10.1
 _ZNK4KIPI9Interface17progressScheduledERK7QStringbb@Base 4:4.10.1
 _ZNK4KIPI9Interface19createReadWriteLockERK4KUrl@Base 4:4.10.1
 _ZNK4KIPI9Interface8featuresEv@Base 4:4.5.90
 _ZTIN4KIPI12ConfigWidgetE@Base 4:4.5.90
 _ZTIN4KIPI12PluginLoaderE@Base 4:4.5.90
 _ZTIN4KIPI12UploadWidgetE@Base 4:4.5.90
 _ZTIN4KIPI15ImageInfoSharedE@Base 4:4.5.90
 _ZTIN4KIPI21ImageCollectionSharedE@Base 4:4.5.90
 _ZTIN4KIPI23ImageCollectionSelectorE@Base 4:4.5.90
 _ZTIN4KIPI6PluginE@Base 4:4.5.90
 _ZTIN4KIPI9InterfaceE@Base 4:4.5.90
 _ZTSN4KIPI12ConfigWidgetE@Base 4:4.5.90
 _ZTSN4KIPI12PluginLoaderE@Base 4:4.5.90
 _ZTSN4KIPI12UploadWidgetE@Base 4:4.5.90
 _ZTSN4KIPI15ImageInfoSharedE@Base 4:4.5.90
 _ZTSN4KIPI21ImageCollectionSharedE@Base 4:4.5.90
 _ZTSN4KIPI23ImageCollectionSelectorE@Base 4:4.5.90
 _ZTSN4KIPI6PluginE@Base 4:4.5.90
 _ZTSN4KIPI9InterfaceE@Base 4:4.5.90
 _ZTVN4KIPI12ConfigWidgetE@Base 4:4.5.90
 _ZTVN4KIPI12PluginLoaderE@Base 4:4.5.90
 _ZTVN4KIPI12UploadWidgetE@Base 4:4.5.90
 _ZTVN4KIPI15ImageInfoSharedE@Base 4:4.5.90
 _ZTVN4KIPI21ImageCollectionSharedE@Base 4:4.5.90
 _ZTVN4KIPI23ImageCollectionSelectorE@Base 4:4.5.90
 _ZTVN4KIPI6PluginE@Base 4:4.5.90
 _ZTVN4KIPI9InterfaceE@Base 4:4.5.90
 _ZThn16_N4KIPI12ConfigWidgetD0Ev@Base 4:4.5.90
 _ZThn16_N4KIPI12ConfigWidgetD1Ev@Base 4:4.5.90
 _ZThn16_N4KIPI12UploadWidgetD0Ev@Base 4:4.5.90
 _ZThn16_N4KIPI12UploadWidgetD1Ev@Base 4:4.5.90
 _ZThn16_N4KIPI23ImageCollectionSelectorD0Ev@Base 4:4.5.90
 _ZThn16_N4KIPI23ImageCollectionSelectorD1Ev@Base 4:4.5.90
 _ZThn16_N4KIPI6PluginD0Ev@Base 4:4.10.1
 _ZThn16_N4KIPI6PluginD1Ev@Base 4:4.10.1
