# SymbolsHelper-Confirmed: 3.2.0 i386
libMyGUIEngine.so.3 libmyguiengine3 #MINVER#
 _ZGVZN5MyGUI10ILayerNode16getClassTypeNameEvE4type@Base 3.2.0
 _ZGVZN5MyGUI10IStateInfo16getClassTypeNameEvE4type@Base 3.2.0
 _ZGVZN5MyGUI10ISubWidget16getClassTypeNameEvE4type@Base 3.2.0
 _ZGVZN5MyGUI10ScrollView16getClassTypeNameEvE4type@Base 3.2.0
 _ZGVZN5MyGUI10SimpleText16getClassTypeNameEvE4type@Base 3.2.0
 _ZGVZN5MyGUI10TabControl16getClassTypeNameEvE4type@Base 3.2.0
 _ZGVZN5MyGUI11DDContainer16getClassTypeNameEvE4type@Base 3.2.0
 _ZGVZN5MyGUI11MenuControl16getClassTypeNameEvE4type@Base 3.2.0
 _ZGVZN5MyGUI11ProgressBar16getClassTypeNameEvE4type@Base 3.2.0
 _ZGVZN5MyGUI11SharedLayer16getClassTypeNameEvE4type@Base 3.2.0
 _ZGVZN5MyGUI12MultiListBox16getClassTypeNameEvE4type@Base 3.2.0
 _ZGVZN5MyGUI12ResourceSkin16getClassTypeNameEvE4type@Base 3.2.0
 _ZGVZN5MyGUI12RotatingSkin16getClassTypeNameEvE4type@Base 3.2.0
 _ZGVZN5MyGUI13ISerializable16getClassTypeNameEvE4type@Base 3.2.0
 _ZGVZN5MyGUI13MultiListItem16getClassTypeNameEvE4type@Base 3.2.0
 _ZGVZN5MyGUI13PolygonalSkin16getClassTypeNameEvE4type@Base 3.2.0
 _ZGVZN5MyGUI14ControllerItem16getClassTypeNameEvE4type@Base 3.2.0
 _ZGVZN5MyGUI14ISubWidgetRect16getClassTypeNameEvE4type@Base 3.2.0
 _ZGVZN5MyGUI14ISubWidgetText16getClassTypeNameEvE4type@Base 3.2.0
 _ZGVZN5MyGUI14ResourceLayout16getClassTypeNameEvE4type@Base 3.2.0
 _ZGVZN5MyGUI15OverlappedLayer16getClassTypeNameEvE4type@Base 3.2.0
 _ZGVZN5MyGUI15SharedLayerNode16getClassTypeNameEvE4type@Base 3.2.0
 _ZGVZN5MyGUI16ResourceImageSet16getClassTypeNameEvE4type@Base 3.2.0
 _ZGVZN5MyGUI16SubSkinStateInfo16getClassTypeNameEvE4type@Base 3.2.0
 _ZGVZN5MyGUI17EditTextStateInfo16getClassTypeNameEvE4type@Base 3.2.0
 _ZGVZN5MyGUI17TileRectStateInfo16getClassTypeNameEvE4type@Base 3.2.0
 _ZGVZN5MyGUI18ControllerEdgeHide16getClassTypeNameEvE4type@Base 3.2.0
 _ZGVZN5MyGUI18ControllerPosition16getClassTypeNameEvE4type@Base 3.2.0
 _ZGVZN5MyGUI18ResourceManualFont16getClassTypeNameEvE4type@Base 3.2.0
 _ZGVZN5MyGUI19ControllerFadeAlpha16getClassTypeNameEvE4type@Base 3.2.0
 _ZGVZN5MyGUI20ResourceTrueTypeFont16getClassTypeNameEvE4type@Base 3.2.0
 _ZGVZN5MyGUI21ResourceManualPointer16getClassTypeNameEvE4type@Base 3.2.0
 _ZGVZN5MyGUI23ResourceImageSetPointer16getClassTypeNameEvE4type@Base 3.2.0
 _ZGVZN5MyGUI5IFont16getClassTypeNameEvE4type@Base 3.2.0
 _ZGVZN5MyGUI6Button16getClassTypeNameEvE4type@Base 3.2.0
 _ZGVZN5MyGUI6Canvas16getClassTypeNameEvE4type@Base 3.2.0
 _ZGVZN5MyGUI6ILayer16getClassTypeNameEvE4type@Base 3.2.0
 _ZGVZN5MyGUI6Widget16getClassTypeNameEvE4type@Base 3.2.0
 _ZGVZN5MyGUI6Window16getClassTypeNameEvE4type@Base 3.2.0
 _ZGVZN5MyGUI7EditBox16getClassTypeNameEvE4type@Base 3.2.0
 _ZGVZN5MyGUI7HScroll16getClassTypeNameEvE4type@Base 3.2.0
 _ZGVZN5MyGUI7IObject16getClassTypeNameEvE4type@Base 3.2.0
 _ZGVZN5MyGUI7ItemBox16getClassTypeNameEvE4type@Base 3.2.0
 _ZGVZN5MyGUI7ListBox16getClassTypeNameEvE4type@Base 3.2.0
 _ZGVZN5MyGUI7MenuBar16getClassTypeNameEvE4type@Base 3.2.0
 _ZGVZN5MyGUI7SubSkin16getClassTypeNameEvE4type@Base 3.2.0
 _ZGVZN5MyGUI7TabItem16getClassTypeNameEvE4type@Base 3.2.0
 _ZGVZN5MyGUI7TextBox16getClassTypeNameEvE4type@Base 3.2.0
 _ZGVZN5MyGUI7VScroll16getClassTypeNameEvE4type@Base 3.2.0
 _ZGVZN5MyGUI8ComboBox16getClassTypeNameEvE4type@Base 3.2.0
 _ZGVZN5MyGUI8EditText16getClassTypeNameEvE4type@Base 3.2.0
 _ZGVZN5MyGUI8IPointer16getClassTypeNameEvE4type@Base 3.2.0
 _ZGVZN5MyGUI8ImageBox16getClassTypeNameEvE4type@Base 3.2.0
 _ZGVZN5MyGUI8MainSkin16getClassTypeNameEvE4type@Base 3.2.0
 _ZGVZN5MyGUI8MenuItem16getClassTypeNameEvE4type@Base 3.2.0
 _ZGVZN5MyGUI8TileRect16getClassTypeNameEvE4type@Base 3.2.0
 _ZGVZN5MyGUI9IResource16getClassTypeNameEvE4type@Base 3.2.0
 _ZGVZN5MyGUI9LayerNode16getClassTypeNameEvE4type@Base 3.2.0
 _ZGVZN5MyGUI9PopupMenu16getClassTypeNameEvE4type@Base 3.2.0
 _ZGVZN5MyGUI9ScrollBar16getClassTypeNameEvE4type@Base 3.2.0
 _ZGVZNK5MyGUI14ISubWidgetText10getCaptionEvE7caption@Base 3.2.0
 _ZGVZNK5MyGUI14ISubWidgetText11getFontNameEvE4name@Base 3.2.0
 _ZGVZNK5MyGUI5Align13getValueNamesEvE9map_names@Base 3.2.0
 _ZN5MyGUI10DataStream3eofEv@Base 3.2.0
 _ZN5MyGUI10DataStream4readEPvj@Base 3.2.0
 _ZN5MyGUI10DataStream4sizeEv@Base 3.2.0
 _ZN5MyGUI10DataStream8readlineERSsj@Base 3.2.0
 _ZN5MyGUI10DataStreamC1EPSi@Base 3.2.0
 _ZN5MyGUI10DataStreamC1Ev@Base 3.2.0
 _ZN5MyGUI10DataStreamC2EPSi@Base 3.2.0
 _ZN5MyGUI10DataStreamC2Ev@Base 3.2.0
 _ZN5MyGUI10DataStreamD0Ev@Base 3.2.0
 _ZN5MyGUI10DataStreamD1Ev@Base 3.2.0
 _ZN5MyGUI10DataStreamD2Ev@Base 3.2.0
 _ZN5MyGUI10LogManager10msInstanceE@Base 3.2.0
 _ZN5MyGUI10LogManager11getInstanceEv@Base 3.2.0
 _ZN5MyGUI10LogManager12addLogSourceEPNS_9LogSourceE@Base 3.2.0
 _ZN5MyGUI10LogManager14getInstancePtrEv@Base 3.2.0
 _ZN5MyGUI10LogManager15setLoggingLevelENS_8LogLevelE@Base 3.2.0
 _ZN5MyGUI10LogManager19createDefaultSourceERKSs@Base 3.2.0
 _ZN5MyGUI10LogManager19setSTDOutputEnabledEb@Base 3.2.0
 _ZN5MyGUI10LogManager3logERKSsNS_8LogLevelES2_PKci@Base 3.2.0
 _ZN5MyGUI10LogManager5closeEv@Base 3.2.0
 _ZN5MyGUI10LogManager5flushEv@Base 3.2.0
 _ZN5MyGUI10LogManagerC1Ev@Base 3.2.0
 _ZN5MyGUI10LogManagerC2Ev@Base 3.2.0
 _ZN5MyGUI10LogManagerD1Ev@Base 3.2.0
 _ZN5MyGUI10LogManagerD2Ev@Base 3.2.0
 _ZN5MyGUI10RenderItem10getTextureEv@Base 3.2.0
 _ZN5MyGUI10RenderItem10setTextureEPNS_8ITextureE@Base 3.2.0
 _ZN5MyGUI10RenderItem11addDrawItemEPNS_10ISubWidgetEj@Base 3.2.0
 _ZN5MyGUI10RenderItem14getCompressionEv@Base 3.2.0
 _ZN5MyGUI10RenderItem14removeDrawItemEPNS_10ISubWidgetE@Base 3.2.0
 _ZN5MyGUI10RenderItem14renderToTargetEPNS_13IRenderTargetEb@Base 3.2.0
 _ZN5MyGUI10RenderItem15getRenderTargetEv@Base 3.2.0
 _ZN5MyGUI10RenderItem15setManualRenderEb@Base 3.2.0
 _ZN5MyGUI10RenderItem16reallockDrawItemEPNS_10ISubWidgetEj@Base 3.2.0
 _ZN5MyGUI10RenderItem18setLastVertexCountEj@Base 3.2.0
 _ZN5MyGUI10RenderItem9outOfDateEv@Base 3.2.0
 _ZN5MyGUI10RenderItemC1Ev@Base 3.2.0
 _ZN5MyGUI10RenderItemC2Ev@Base 3.2.0
 _ZN5MyGUI10RenderItemD0Ev@Base 3.2.0
 _ZN5MyGUI10RenderItemD1Ev@Base 3.2.0
 _ZN5MyGUI10RenderItemD2Ev@Base 3.2.0
 _ZN5MyGUI10ScrollView10getVScrollEv@Base 3.2.0
 _ZN5MyGUI10ScrollView10updateViewEv@Base 3.2.0
 _ZN5MyGUI10ScrollView11getViewSizeEv@Base 3.2.0
 _ZN5MyGUI10ScrollView11setPositionERKNS_5types6TPointIiEE@Base 3.2.0
 _ZN5MyGUI10ScrollView11setPositionEii@Base 3.2.0
 _ZN5MyGUI10ScrollView13getCanvasSizeEv@Base 3.2.0
 _ZN5MyGUI10ScrollView13setCanvasSizeERKNS_5types5TSizeIiEE@Base 3.2.0
 _ZN5MyGUI10ScrollView13setCanvasSizeEii@Base 3.2.0
 _ZN5MyGUI10ScrollView13setViewOffsetERKNS_5types6TPointIiEE@Base 3.2.0
 _ZN5MyGUI10ScrollView14getContentSizeEv@Base 3.2.0
 _ZN5MyGUI10ScrollView14getHScrollPageEv@Base 3.2.0
 _ZN5MyGUI10ScrollView14getVScrollPageEv@Base 3.2.0
 _ZN5MyGUI10ScrollView14setCanvasAlignENS_5AlignE@Base 3.2.0
 _ZN5MyGUI10ScrollView15getContentAlignEv@Base 3.2.0
 _ZN5MyGUI10ScrollView16notifyMouseWheelEPNS_6WidgetEi@Base 3.2.0
 _ZN5MyGUI10ScrollView16shutdownOverrideEv@Base 3.2.0
 _ZN5MyGUI10ScrollView17setVisibleHScrollEb@Base 3.2.0
 _ZN5MyGUI10ScrollView17setVisibleVScrollEb@Base 3.2.0
 _ZN5MyGUI10ScrollView18getContentPositionEv@Base 3.2.0
 _ZN5MyGUI10ScrollView18initialiseOverrideEv@Base 3.2.0
 _ZN5MyGUI10ScrollView18setContentPositionERKNS_5types6TPointIiEE@Base 3.2.0
 _ZN5MyGUI10ScrollView19setPropertyOverrideERKSsS2_@Base 3.2.0
 _ZN5MyGUI10ScrollView26notifyScrollChangePositionEPNS_9ScrollBarEj@Base 3.2.0
 _ZN5MyGUI10ScrollView7setSizeERKNS_5types5TSizeIiEE@Base 3.2.0
 _ZN5MyGUI10ScrollView7setSizeEii@Base 3.2.0
 _ZN5MyGUI10ScrollView8setCoordERKNS_5types6TCoordIiEE@Base 3.2.0
 _ZN5MyGUI10ScrollView8setCoordEiiii@Base 3.2.0
 _ZN5MyGUI10ScrollViewC1Ev@Base 3.2.0
 _ZN5MyGUI10ScrollViewC2Ev@Base 3.2.0
 _ZN5MyGUI10ScrollViewD0Ev@Base 3.2.0
 _ZN5MyGUI10ScrollViewD1Ev@Base 3.2.0
 _ZN5MyGUI10ScrollViewD2Ev@Base 3.2.0
 _ZN5MyGUI10SimpleText13setViewOffsetERKNS_5types6TPointIiEE@Base 3.2.0
 _ZN5MyGUI10SimpleText8doRenderEv@Base 3.2.0
 _ZN5MyGUI10SimpleTextC1Ev@Base 3.2.0
 _ZN5MyGUI10SimpleTextC2Ev@Base 3.2.0
 _ZN5MyGUI10SimpleTextD0Ev@Base 3.2.0
 _ZN5MyGUI10SimpleTextD1Ev@Base 3.2.0
 _ZN5MyGUI10SimpleTextD2Ev@Base 3.2.0
 _ZN5MyGUI10TabControl10_getItemAtEj@Base 3.2.0
 _ZN5MyGUI10TabControl10insertItemEPNS_7TabItemERKNS_7UStringENS_3AnyE@Base 3.2.0
 _ZN5MyGUI10TabControl10removeItemEPNS_7TabItemE@Base 3.2.0
 _ZN5MyGUI10TabControl11TabItemInfoD1Ev@Base 3.2.0
 _ZN5MyGUI10TabControl11TabItemInfoD2Ev@Base 3.2.0
 _ZN5MyGUI10TabControl11_insertItemEjRKNS_7UStringEPNS_7TabItemENS_3AnyE@Base 3.2.0
 _ZN5MyGUI10TabControl11beginToItemEPNS_7TabItemE@Base 3.2.0
 _ZN5MyGUI10TabControl11getItemNameEPNS_7TabItemE@Base 3.2.0
 _ZN5MyGUI10TabControl11setItemDataEPNS_7TabItemENS_3AnyE@Base 3.2.0
 _ZN5MyGUI10TabControl11setItemNameEPNS_7TabItemERKNS_7UStringE@Base 3.2.0
 _ZN5MyGUI10TabControl11setPositionERKNS_5types6TPointIiEE@Base 3.2.0
 _ZN5MyGUI10TabControl11setPositionEii@Base 3.2.0
 _ZN5MyGUI10TabControl12createButtonEv@Base 3.2.0
 _ZN5MyGUI10TabControl12findItemWithERKNS_7UStringE@Base 3.2.0
 _ZN5MyGUI10TabControl12getItemIndexEPNS_7TabItemE@Base 3.2.0
 _ZN5MyGUI10TabControl12insertItemAtEjRKNS_7UStringENS_3AnyE@Base 3.2.0
 _ZN5MyGUI10TabControl12removeItemAtEj@Base 3.2.0
 _ZN5MyGUI10TabControl12updateBarNewEv@Base 3.2.0
 _ZN5MyGUI10TabControl12updateBarOldEv@Base 3.2.0
 _ZN5MyGUI10TabControl13_getItemCountEv@Base 3.2.0
 _ZN5MyGUI10TabControl13_getTextWidthERKNS_7UStringE@Base 3.2.0
 _ZN5MyGUI10TabControl13_getWidgetBarEv@Base 3.2.0
 _ZN5MyGUI10TabControl13_removeItemAtEj@Base 3.2.0
 _ZN5MyGUI10TabControl13beginToItemAtEj@Base 3.2.0
 _ZN5MyGUI10TabControl13clearItemDataEPNS_7TabItemE@Base 3.2.0
 _ZN5MyGUI10TabControl13findItemIndexEPNS_7TabItemE@Base 3.2.0
 _ZN5MyGUI10TabControl13getItemNameAtEj@Base 3.2.0
 _ZN5MyGUI10TabControl13setItemDataAtEjNS_3AnyE@Base 3.2.0
 _ZN5MyGUI10TabControl13setItemNameAtEjRKNS_7UStringE@Base 3.2.0
 _ZN5MyGUI10TabControl13setSmoothShowEb@Base 3.2.0
 _ZN5MyGUI10TabControl14_getItemNameAtEj@Base 3.2.0
 _ZN5MyGUI10TabControl14_setItemNameAtEjRKNS_7UStringE@Base 3.2.0
 _ZN5MyGUI10TabControl14getButtonWidthEPNS_7TabItemE@Base 3.2.0
 _ZN5MyGUI10TabControl14removeAllItemsEv@Base 3.2.0
 _ZN5MyGUI10TabControl14setButtonWidthEPNS_7TabItemEi@Base 3.2.0
 _ZN5MyGUI10TabControl15beginToItemLastEv@Base 3.2.0
 _ZN5MyGUI10TabControl15clearItemDataAtEj@Base 3.2.0
 _ZN5MyGUI10TabControl15getItemSelectedEv@Base 3.2.0
 _ZN5MyGUI10TabControl15onWidgetCreatedEPNS_6WidgetE@Base 3.2.0
 _ZN5MyGUI10TabControl15setItemSelectedEPNS_7TabItemE@Base 3.2.0
 _ZN5MyGUI10TabControl16actionWidgetHideEPNS_6WidgetE@Base 3.2.0
 _ZN5MyGUI10TabControl16beginToItemFirstEv@Base 3.2.0
 _ZN5MyGUI10TabControl16getButtonWidthAtEj@Base 3.2.0
 _ZN5MyGUI10TabControl16setButtonWidthAtEji@Base 3.2.0
 _ZN5MyGUI10TabControl16setIndexSelectedEj@Base 3.2.0
 _ZN5MyGUI10TabControl16shutdownOverrideEv@Base 3.2.0
 _ZN5MyGUI10TabControl17_createItemButtonEv@Base 3.2.0
 _ZN5MyGUI10TabControl17_notifyDeleteItemEPNS_7TabItemE@Base 3.2.0
 _ZN5MyGUI10TabControl17findItemIndexWithERKNS_7UStringE@Base 3.2.0
 _ZN5MyGUI10TabControl18_getWidgetTemplateEv@Base 3.2.0
 _ZN5MyGUI10TabControl18initialiseOverrideEv@Base 3.2.0
 _ZN5MyGUI10TabControl18setButtonAutoWidthEb@Base 3.2.0
 _ZN5MyGUI10TabControl19beginToItemSelectedEv@Base 3.2.0
 _ZN5MyGUI10TabControl19setPropertyOverrideERKSsS2_@Base 3.2.0
 _ZN5MyGUI10TabControl21setButtonDefaultWidthEi@Base 3.2.0
 _ZN5MyGUI10TabControl24notifyPressedButtonEventEPNS_6WidgetE@Base 3.2.0
 _ZN5MyGUI10TabControl25createControllerFadeAlphaEffb@Base 3.2.0
 _ZN5MyGUI10TabControl27notifyPressedBarButtonEventEPNS_6WidgetE@Base 3.2.0
 _ZN5MyGUI10TabControl7addItemERKNS_7UStringENS_3AnyE@Base 3.2.0
 _ZN5MyGUI10TabControl7setSizeERKNS_5types5TSizeIiEE@Base 3.2.0
 _ZN5MyGUI10TabControl7setSizeEii@Base 3.2.0
 _ZN5MyGUI10TabControl8_addItemERKNS_7UStringE@Base 3.2.0
 _ZN5MyGUI10TabControl8setCoordERKNS_5types6TCoordIiEE@Base 3.2.0
 _ZN5MyGUI10TabControl8setCoordEiiii@Base 3.2.0
 _ZN5MyGUI10TabControl9_showItemEPNS_7TabItemEbb@Base 3.2.0
 _ZN5MyGUI10TabControl9getItemAtEj@Base 3.2.0
 _ZN5MyGUI10TabControl9swapItemsEjj@Base 3.2.0
 _ZN5MyGUI10TabControl9updateBarEv@Base 3.2.0
 _ZN5MyGUI10TabControlC1Ev@Base 3.2.0
 _ZN5MyGUI10TabControlC2Ev@Base 3.2.0
 _ZN5MyGUI10TabControlD0Ev@Base 3.2.0
 _ZN5MyGUI10TabControlD1Ev@Base 3.2.0
 _ZN5MyGUI10TabControlD2Ev@Base 3.2.0
 _ZN5MyGUI10WidgetInfoC1ERKS0_@Base 3.2.0
 _ZN5MyGUI10WidgetInfoC2ERKS0_@Base 3.2.0
 _ZN5MyGUI10WidgetInfoD1Ev@Base 3.2.0
 _ZN5MyGUI10WidgetInfoD2Ev@Base 3.2.0
 _ZN5MyGUI10WidgetInfoaSERKS0_@Base 3.2.0
 _ZN5MyGUI11BiIndexBase12insertItemAtEj@Base 3.2.0
 _ZN5MyGUI11BiIndexBase12removeItemAtEj@Base 3.2.0
 _ZN5MyGUI11BiIndexBase14removeAllItemsEv@Base 3.2.0
 _ZN5MyGUI11BiIndexBase15swapItemsBackAtEjj@Base 3.2.0
 _ZN5MyGUI11BiIndexBase15swapItemsFaceAtEjj@Base 3.2.0
 _ZN5MyGUI11BiIndexBaseC1Ev@Base 3.2.0
 _ZN5MyGUI11BiIndexBaseC2Ev@Base 3.2.0
 _ZN5MyGUI11BiIndexBaseD0Ev@Base 3.2.0
 _ZN5MyGUI11BiIndexBaseD1Ev@Base 3.2.0
 _ZN5MyGUI11BiIndexBaseD2Ev@Base 3.2.0
 _ZN5MyGUI11DDContainer11onMouseDragEiiNS_11MouseButtonE@Base 3.2.0
 _ZN5MyGUI11DDContainer15removeDropItemsEv@Base 3.2.0
 _ZN5MyGUI11DDContainer15setNeedDragDropEb@Base 3.2.0
 _ZN5MyGUI11DDContainer15updateDropItemsEv@Base 3.2.0
 _ZN5MyGUI11DDContainer18mouseButtonPressedENS_11MouseButtonE@Base 3.2.0
 _ZN5MyGUI11DDContainer18notifyInvalideDropEPS0_@Base 3.2.0
 _ZN5MyGUI11DDContainer19mouseButtonReleasedENS_11MouseButtonE@Base 3.2.0
 _ZN5MyGUI11DDContainer19setPropertyOverrideERKSsS2_@Base 3.2.0
 _ZN5MyGUI11DDContainer20onMouseButtonPressedEiiNS_11MouseButtonE@Base 3.2.0
 _ZN5MyGUI11DDContainer20updateDropItemsStateERKNS_13DDWidgetStateE@Base 3.2.0
 _ZN5MyGUI11DDContainer21_setContainerItemInfoEjbb@Base 3.2.0
 _ZN5MyGUI11DDContainer21onMouseButtonReleasedEiiNS_11MouseButtonE@Base 3.2.0
 _ZN5MyGUI11DDContainer7endDropEb@Base 3.2.0
 _ZN5MyGUI11DDContainer9mouseDragENS_11MouseButtonE@Base 3.2.0
 _ZN5MyGUI11DDContainer9resetDragEv@Base 3.2.0
 _ZN5MyGUI11DDContainerC1Ev@Base 3.2.0
 _ZN5MyGUI11DDContainerC2Ev@Base 3.2.0
 _ZN5MyGUI11DDContainerD0Ev@Base 3.2.0
 _ZN5MyGUI11DDContainerD1Ev@Base 3.2.0
 _ZN5MyGUI11DDContainerD2Ev@Base 3.2.0
 _ZN5MyGUI11FontManager10initialiseEv@Base 3.2.0
 _ZN5MyGUI11FontManager14setDefaultFontERKSs@Base 3.2.0
 _ZN5MyGUI11FontManager5_loadEPNS_3xml7ElementERKSsNS_7VersionE@Base 3.2.0
 _ZN5MyGUI11FontManager8shutdownEv@Base 3.2.0
 _ZN5MyGUI11FontManagerC1Ev@Base 3.2.0
 _ZN5MyGUI11FontManagerC2Ev@Base 3.2.0
 _ZN5MyGUI11FontManagerD0Ev@Base 3.2.0
 _ZN5MyGUI11FontManagerD1Ev@Base 3.2.0
 _ZN5MyGUI11FontManagerD2Ev@Base 3.2.0
 _ZN5MyGUI11MenuControl10_getItemAtEj@Base 3.2.0
 _ZN5MyGUI11MenuControl10insertItemEPNS_8MenuItemERKNS_7UStringENS_12MenuItemTypeERKSsNS_3AnyE@Base 3.2.0
 _ZN5MyGUI11MenuControl10removeItemEPNS_8MenuItemE@Base 3.2.0
 _ZN5MyGUI11MenuControl10setVisibleEb@Base 3.2.0
 _ZN5MyGUI11MenuControl11getItemByIdERKSs@Base 3.2.0
 _ZN5MyGUI11MenuControl11getItemIdAtEj@Base 3.2.0
 _ZN5MyGUI11MenuControl11getItemNameEPNS_8MenuItemE@Base 3.2.0
 _ZN5MyGUI11MenuControl11getItemTypeEPNS_8MenuItemE@Base 3.2.0
 _ZN5MyGUI11MenuControl11setItemDataEPNS_8MenuItemENS_3AnyE@Base 3.2.0
 _ZN5MyGUI11MenuControl11setItemIdAtEjRKSs@Base 3.2.0
 _ZN5MyGUI11MenuControl11setItemNameEPNS_8MenuItemERKNS_7UStringE@Base 3.2.0
 _ZN5MyGUI11MenuControl11setItemTypeEPNS_8MenuItemENS_12MenuItemTypeE@Base 3.2.0
 _ZN5MyGUI11MenuControl12_updateItemsEj@Base 3.2.0
 _ZN5MyGUI11MenuControl12findItemByIdERKSsb@Base 3.2.0
 _ZN5MyGUI11MenuControl12findItemWithERKNS_7UStringE@Base 3.2.0
 _ZN5MyGUI11MenuControl12getItemChildEPNS_8MenuItemE@Base 3.2.0
 _ZN5MyGUI11MenuControl12getItemIndexEPNS_8MenuItemE@Base 3.2.0
 _ZN5MyGUI11MenuControl12insertItemAtEjRKNS_7UStringENS_12MenuItemTypeERKSsNS_3AnyE@Base 3.2.0
 _ZN5MyGUI11MenuControl12removeItemAtEj@Base 3.2.0
 _ZN5MyGUI11MenuControl13_getItemCountEv@Base 3.2.0
 _ZN5MyGUI11MenuControl13_removeItemAtEj@Base 3.2.0
 _ZN5MyGUI11MenuControl13clearItemDataEPNS_8MenuItemE@Base 3.2.0
 _ZN5MyGUI11MenuControl13findItemIndexEPNS_8MenuItemE@Base 3.2.0
 _ZN5MyGUI11MenuControl13getItemNameAtEj@Base 3.2.0
 _ZN5MyGUI11MenuControl13getItemTypeAtEj@Base 3.2.0
 _ZN5MyGUI11MenuControl13setItemDataAtEjNS_3AnyE@Base 3.2.0
 _ZN5MyGUI11MenuControl13setItemNameAtEjRKNS_7UStringE@Base 3.2.0
 _ZN5MyGUI11MenuControl13setItemTypeAtEjNS_12MenuItemTypeE@Base 3.2.0
 _ZN5MyGUI11MenuControl14_getItemNameAtEj@Base 3.2.0
 _ZN5MyGUI11MenuControl14_setItemNameAtEjRKNS_7UStringE@Base 3.2.0
 _ZN5MyGUI11MenuControl14_wrapItemChildEPNS_8MenuItemEPS0_@Base 3.2.0
 _ZN5MyGUI11MenuControl14getItemChildAtEj@Base 3.2.0
 _ZN5MyGUI11MenuControl14removeAllItemsEv@Base 3.2.0
 _ZN5MyGUI11MenuControl14setPopupAcceptEb@Base 3.2.0
 _ZN5MyGUI11MenuControl15clearItemDataAtEj@Base 3.2.0
 _ZN5MyGUI11MenuControl15createItemChildEPNS_8MenuItemE@Base 3.2.0
 _ZN5MyGUI11MenuControl15onWidgetCreatedEPNS_6WidgetE@Base 3.2.0
 _ZN5MyGUI11MenuControl15removeItemChildEPNS_8MenuItemE@Base 3.2.0
 _ZN5MyGUI11MenuControl16_getClientWidgetEv@Base 3.2.0
 _ZN5MyGUI11MenuControl16_setItemSelectedEPNS_5IItemE@Base 3.2.0
 _ZN5MyGUI11MenuControl16getItemIndexByIdERKSs@Base 3.2.0
 _ZN5MyGUI11MenuControl16setVisibleSmoothEb@Base 3.2.0
 _ZN5MyGUI11MenuControl16shutdownOverrideEv@Base 3.2.0
 _ZN5MyGUI11MenuControl17_notifyDeleteItemEPNS_8MenuItemE@Base 3.2.0
 _ZN5MyGUI11MenuControl17_notifyUpdateNameEPNS_8MenuItemE@Base 3.2.0
 _ZN5MyGUI11MenuControl17createItemChildAtEj@Base 3.2.0
 _ZN5MyGUI11MenuControl17findItemIndexWithERKNS_7UStringE@Base 3.2.0
 _ZN5MyGUI11MenuControl17getMenuItemParentEv@Base 3.2.0
 _ZN5MyGUI11MenuControl17removeItemChildAtEj@Base 3.2.0
 _ZN5MyGUI11MenuControl18_notifyDeletePopupEPNS_8MenuItemE@Base 3.2.0
 _ZN5MyGUI11MenuControl18initialiseOverrideEv@Base 3.2.0
 _ZN5MyGUI11MenuControl19_updateSizeForEmptyEv@Base 3.2.0
 _ZN5MyGUI11MenuControl19notifyMouseSetFocusEPNS_6WidgetES2_@Base 3.2.0
 _ZN5MyGUI11MenuControl19setItemChildVisibleEPNS_8MenuItemEb@Base 3.2.0
 _ZN5MyGUI11MenuControl19setPropertyOverrideERKSsS2_@Base 3.2.0
 _ZN5MyGUI11MenuControl20notifyMenuCtrlAcceptEPNS_8MenuItemE@Base 3.2.0
 _ZN5MyGUI11MenuControl20onKeyChangeRootFocusEb@Base 3.2.0
 _ZN5MyGUI11MenuControl20setVerticalAlignmentEb@Base 3.2.0
 _ZN5MyGUI11MenuControl21createItemChildByTypeEjRKSs@Base 3.2.0
 _ZN5MyGUI11MenuControl21setItemChildVisibleAtEjb@Base 3.2.0
 _ZN5MyGUI11MenuControl22_setItemChildVisibleAtEjbb@Base 3.2.0
 _ZN5MyGUI11MenuControl22notifyMouseButtonClickEPNS_6WidgetE@Base 3.2.0
 _ZN5MyGUI11MenuControl24notifyRootKeyChangeFocusEPNS_6WidgetEb@Base 3.2.0
 _ZN5MyGUI11MenuControl25createControllerFadeAlphaEffb@Base 3.2.0
 _ZN5MyGUI11MenuControl6updateEv@Base 3.2.0
 _ZN5MyGUI11MenuControl7addItemERKNS_7UStringENS_12MenuItemTypeERKSsNS_3AnyE@Base 3.2.0
 _ZN5MyGUI11MenuControl8ItemInfoD1Ev@Base 3.2.0
 _ZN5MyGUI11MenuControl8ItemInfoD2Ev@Base 3.2.0
 _ZN5MyGUI11MenuControl8_addItemERKNS_7UStringE@Base 3.2.0
 _ZN5MyGUI11MenuControl9_wrapItemEPNS_8MenuItemEjRKNS_7UStringENS_12MenuItemTypeERKSsNS_3AnyE@Base 3.2.0
 _ZN5MyGUI11MenuControl9getItemAtEj@Base 3.2.0
 _ZN5MyGUI11MenuControl9getItemIdEPNS_8MenuItemE@Base 3.2.0
 _ZN5MyGUI11MenuControl9setItemIdEPNS_8MenuItemERKSs@Base 3.2.0
 _ZN5MyGUI11MenuControlC1Ev@Base 3.2.0
 _ZN5MyGUI11MenuControlC2Ev@Base 3.2.0
 _ZN5MyGUI11MenuControlD0Ev@Base 3.2.0
 _ZN5MyGUI11MenuControlD1Ev@Base 3.2.0
 _ZN5MyGUI11MenuControlD2Ev@Base 3.2.0
 _ZN5MyGUI11ProgressBar11setPositionERKNS_5types6TPointIiEE@Base 3.2.0
 _ZN5MyGUI11ProgressBar11setPositionEii@Base 3.2.0
 _ZN5MyGUI11ProgressBar11updateTrackEv@Base 3.2.0
 _ZN5MyGUI11ProgressBar12frameEnteredEf@Base 3.2.0
 _ZN5MyGUI11ProgressBar14getClientWidthEv@Base 3.2.0
 _ZN5MyGUI11ProgressBar15getClientHeightEv@Base 3.2.0
 _ZN5MyGUI11ProgressBar16setFlowDirectionENS_13FlowDirectionE@Base 3.2.0
 _ZN5MyGUI11ProgressBar16setProgressRangeEj@Base 3.2.0
 _ZN5MyGUI11ProgressBar16setTrackPositionEPNS_6WidgetEiiii@Base 3.2.0
 _ZN5MyGUI11ProgressBar16shutdownOverrideEv@Base 3.2.0
 _ZN5MyGUI11ProgressBar18initialiseOverrideEv@Base 3.2.0
 _ZN5MyGUI11ProgressBar19setProgressPositionEj@Base 3.2.0
 _ZN5MyGUI11ProgressBar19setPropertyOverrideERKSsS2_@Base 3.2.0
 _ZN5MyGUI11ProgressBar20setProgressAutoTrackEb@Base 3.2.0
 _ZN5MyGUI11ProgressBar7setSizeERKNS_5types5TSizeIiEE@Base 3.2.0
 _ZN5MyGUI11ProgressBar7setSizeEii@Base 3.2.0
 _ZN5MyGUI11ProgressBar8setCoordERKNS_5types6TCoordIiEE@Base 3.2.0
 _ZN5MyGUI11ProgressBar8setCoordEiiii@Base 3.2.0
 _ZN5MyGUI11ProgressBarC1Ev@Base 3.2.0
 _ZN5MyGUI11ProgressBarC2Ev@Base 3.2.0
 _ZN5MyGUI11ProgressBarD0Ev@Base 3.2.0
 _ZN5MyGUI11ProgressBarD1Ev@Base 3.2.0
 _ZN5MyGUI11ProgressBarD2Ev@Base 3.2.0
 _ZN5MyGUI11SharedLayer10resizeViewERKNS_5types5TSizeIiEE@Base 3.2.0
 _ZN5MyGUI11SharedLayer14renderToTargetEPNS_13IRenderTargetEb@Base 3.2.0
 _ZN5MyGUI11SharedLayer15deserializationEPNS_3xml7ElementENS_7VersionE@Base 3.2.0
 _ZN5MyGUI11SharedLayer15upChildItemNodeEPNS_10ILayerNodeE@Base 3.2.0
 _ZN5MyGUI11SharedLayer19createChildItemNodeEv@Base 3.2.0
 _ZN5MyGUI11SharedLayer20destroyChildItemNodeEPNS_10ILayerNodeE@Base 3.2.0
 _ZN5MyGUI11SharedLayerC1Ev@Base 3.2.0
 _ZN5MyGUI11SharedLayerC2Ev@Base 3.2.0
 _ZN5MyGUI11SharedLayerD0Ev@Base 3.2.0
 _ZN5MyGUI11SharedLayerD1Ev@Base 3.2.0
 _ZN5MyGUI11SharedLayerD2Ev@Base 3.2.0
 _ZN5MyGUI11SkinManager10initialiseEv@Base 3.2.0
 _ZN5MyGUI11SkinManager13createDefaultERKSs@Base 3.2.0
 _ZN5MyGUI11SkinManager14setDefaultSkinERKSs@Base 3.2.0
 _ZN5MyGUI11SkinManager5_loadEPNS_3xml7ElementERKSsNS_7VersionE@Base 3.2.0
 _ZN5MyGUI11SkinManager8shutdownEv@Base 3.2.0
 _ZN5MyGUI11SkinManagerC1Ev@Base 3.2.0
 _ZN5MyGUI11SkinManagerC2Ev@Base 3.2.0
 _ZN5MyGUI11SkinManagerD0Ev@Base 3.2.0
 _ZN5MyGUI11SkinManagerD1Ev@Base 3.2.0
 _ZN5MyGUI11SkinManagerD2Ev@Base 3.2.0
 _ZN5MyGUI11WidgetInput10setPointerERKSs@Base 3.2.0
 _ZN5MyGUI11WidgetInput11onMouseDragEiiNS_11MouseButtonE@Base 3.2.0
 _ZN5MyGUI11WidgetInput11onMouseMoveEii@Base 3.2.0
 _ZN5MyGUI11WidgetInput11setMaskPickERKNS_12MaskPickInfoE@Base 3.2.0
 _ZN5MyGUI11WidgetInput11setMaskPickERKSs@Base 3.2.0
 _ZN5MyGUI11WidgetInput12onMouseWheelEi@Base 3.2.0
 _ZN5MyGUI11WidgetInput13onKeySetFocusEPNS_6WidgetE@Base 3.2.0
 _ZN5MyGUI11WidgetInput14_riseMouseDragEiiNS_11MouseButtonE@Base 3.2.0
 _ZN5MyGUI11WidgetInput14_riseMouseMoveEii@Base 3.2.0
 _ZN5MyGUI11WidgetInput14onKeyLostFocusEPNS_6WidgetE@Base 3.2.0
 _ZN5MyGUI11WidgetInput14setNeedToolTipEb@Base 3.2.0
 _ZN5MyGUI11WidgetInput15_riseMouseWheelEi@Base 3.2.0
 _ZN5MyGUI11WidgetInput15onMouseSetFocusEPNS_6WidgetE@Base 3.2.0
 _ZN5MyGUI11WidgetInput15setInheritsPickEb@Base 3.2.0
 _ZN5MyGUI11WidgetInput15setNeedKeyFocusEb@Base 3.2.0
 _ZN5MyGUI11WidgetInput16_riseKeySetFocusEPNS_6WidgetE@Base 3.2.0
 _ZN5MyGUI11WidgetInput16_setRootKeyFocusEb@Base 3.2.0
 _ZN5MyGUI11WidgetInput16onMouseLostFocusEPNS_6WidgetE@Base 3.2.0
 _ZN5MyGUI11WidgetInput17_riseKeyLostFocusEPNS_6WidgetE@Base 3.2.0
 _ZN5MyGUI11WidgetInput17setNeedMouseFocusEb@Base 3.2.0
 _ZN5MyGUI11WidgetInput18_riseMouseSetFocusEPNS_6WidgetE@Base 3.2.0
 _ZN5MyGUI11WidgetInput18_setRootMouseFocusEb@Base 3.2.0
 _ZN5MyGUI11WidgetInput18onKeyButtonPressedENS_7KeyCodeEj@Base 3.2.0
 _ZN5MyGUI11WidgetInput18onMouseButtonClickEv@Base 3.2.0
 _ZN5MyGUI11WidgetInput19_riseMouseLostFocusEPNS_6WidgetE@Base 3.2.0
 _ZN5MyGUI11WidgetInput19onKeyButtonReleasedENS_7KeyCodeE@Base 3.2.0
 _ZN5MyGUI11WidgetInput20onKeyChangeRootFocusEb@Base 3.2.0
 _ZN5MyGUI11WidgetInput20onMouseButtonPressedEiiNS_11MouseButtonE@Base 3.2.0
 _ZN5MyGUI11WidgetInput21_riseKeyButtonPressedENS_7KeyCodeEj@Base 3.2.0
 _ZN5MyGUI11WidgetInput21_riseMouseButtonClickEv@Base 3.2.0
 _ZN5MyGUI11WidgetInput21onMouseButtonReleasedEiiNS_11MouseButtonE@Base 3.2.0
 _ZN5MyGUI11WidgetInput22_riseKeyButtonReleasedENS_7KeyCodeE@Base 3.2.0
 _ZN5MyGUI11WidgetInput22onMouseChangeRootFocusEb@Base 3.2.0
 _ZN5MyGUI11WidgetInput23_riseKeyChangeRootFocusEb@Base 3.2.0
 _ZN5MyGUI11WidgetInput23_riseMouseButtonPressedEiiNS_11MouseButtonE@Base 3.2.0
 _ZN5MyGUI11WidgetInput24_riseMouseButtonReleasedEiiNS_11MouseButtonE@Base 3.2.0
 _ZN5MyGUI11WidgetInput24onMouseButtonDoubleClickEv@Base 3.2.0
 _ZN5MyGUI11WidgetInput25_riseMouseChangeRootFocusEb@Base 3.2.0
 _ZN5MyGUI11WidgetInput27_riseMouseButtonDoubleClickEv@Base 3.2.0
 _ZN5MyGUI11WidgetInputC1Ev@Base 3.2.0
 _ZN5MyGUI11WidgetInputC2Ev@Base 3.2.0
 _ZN5MyGUI11WidgetInputD0Ev@Base 3.2.0
 _ZN5MyGUI11WidgetInputD1Ev@Base 3.2.0
 _ZN5MyGUI11WidgetInputD2Ev@Base 3.2.0
 _ZN5MyGUI12InputManager10initialiseEv@Base 3.2.0
 _ZN5MyGUI12InputManager12frameEnteredEf@Base 3.2.0
 _ZN5MyGUI12InputManager12unlinkWidgetEPNS_6WidgetE@Base 3.2.0
 _ZN5MyGUI12InputManager13_unlinkWidgetEPNS_6WidgetE@Base 3.2.0
 _ZN5MyGUI12InputManager13firstEncodingENS_7KeyCodeEb@Base 3.2.0
 _ZN5MyGUI12InputManager14addWidgetModalEPNS_6WidgetE@Base 3.2.0
 _ZN5MyGUI12InputManager14injectKeyPressENS_7KeyCodeEj@Base 3.2.0
 _ZN5MyGUI12InputManager15injectMouseMoveEiii@Base 3.2.0
 _ZN5MyGUI12InputManager16injectKeyReleaseENS_7KeyCodeE@Base 3.2.0
 _ZN5MyGUI12InputManager16injectMousePressEiiNS_11MouseButtonE@Base 3.2.0
 _ZN5MyGUI12InputManager17removeWidgetModalEPNS_6WidgetE@Base 3.2.0
 _ZN5MyGUI12InputManager17setKeyFocusWidgetEPNS_6WidgetE@Base 3.2.0
 _ZN5MyGUI12InputManager18injectMouseReleaseEiiNS_11MouseButtonE@Base 3.2.0
 _ZN5MyGUI12InputManager19resetKeyFocusWidgetEPNS_6WidgetE@Base 3.2.0
 _ZN5MyGUI12InputManager19resetKeyFocusWidgetEv@Base 3.2.0
 _ZN5MyGUI12InputManager22_resetMouseFocusWidgetEv@Base 3.2.0
 _ZN5MyGUI12InputManager23getMousePositionByLayerEv@Base 3.2.0
 _ZN5MyGUI12InputManager23resetMouseCaptureWidgetEv@Base 3.2.0
 _ZN5MyGUI12InputManager8resetKeyEv@Base 3.2.0
 _ZN5MyGUI12InputManager8shutdownEv@Base 3.2.0
 _ZN5MyGUI12InputManager8storeKeyENS_7KeyCodeEj@Base 3.2.0
 _ZN5MyGUI12InputManagerC1Ev@Base 3.2.0
 _ZN5MyGUI12InputManagerC2Ev@Base 3.2.0
 _ZN5MyGUI12InputManagerD0Ev@Base 3.2.0
 _ZN5MyGUI12InputManagerD1Ev@Base 3.2.0
 _ZN5MyGUI12InputManagerD2Ev@Base 3.2.0
 _ZN5MyGUI12LayerManager10initialiseEv@Base 3.2.0
 _ZN5MyGUI12LayerManager10resizeViewERKNS_5types5TSizeIiEE@Base 3.2.0
 _ZN5MyGUI12LayerManager11upLayerItemEPNS_6WidgetE@Base 3.2.0
 _ZN5MyGUI12LayerManager13_unlinkWidgetEPNS_6WidgetE@Base 3.2.0
 _ZN5MyGUI12LayerManager14renderToTargetEPNS_13IRenderTargetEb@Base 3.2.0
 _ZN5MyGUI12LayerManager15detachFromLayerEPNS_6WidgetE@Base 3.2.0
 _ZN5MyGUI12LayerManager17attachToLayerNodeERKSsPNS_6WidgetE@Base 3.2.0
 _ZN5MyGUI12LayerManager18getWidgetFromPointEii@Base 3.2.0
 _ZN5MyGUI12LayerManager5_loadEPNS_3xml7ElementERKSsNS_7VersionE@Base 3.2.0
 _ZN5MyGUI12LayerManager5clearEv@Base 3.2.0
 _ZN5MyGUI12LayerManager5mergeERSt6vectorIPNS_6ILayerESaIS3_EE@Base 3.2.0
 _ZN5MyGUI12LayerManager7destroyEPNS_6ILayerE@Base 3.2.0
 _ZN5MyGUI12LayerManager8shutdownEv@Base 3.2.0
 _ZN5MyGUI12LayerManagerC1Ev@Base 3.2.0
 _ZN5MyGUI12LayerManagerC2Ev@Base 3.2.0
 _ZN5MyGUI12LayerManagerD0Ev@Base 3.2.0
 _ZN5MyGUI12LayerManagerD1Ev@Base 3.2.0
 _ZN5MyGUI12LayerManagerD2Ev@Base 3.2.0
 _ZN5MyGUI12MaskPickInfo4loadERKSs@Base 3.2.0
 _ZN5MyGUI12MaskPickInfoC1Ev@Base 3.2.0
 _ZN5MyGUI12MaskPickInfoC2Ev@Base 3.2.0
 _ZN5MyGUI12MultiListBox10ColumnInfoD1Ev@Base 3.2.0
 _ZN5MyGUI12MultiListBox10ColumnInfoD2Ev@Base 3.2.0
 _ZN5MyGUI12MultiListBox10_getItemAtEj@Base 3.2.0
 _ZN5MyGUI12MultiListBox11_unwrapItemEPNS_13MultiListItemE@Base 3.2.0
 _ZN5MyGUI12MultiListBox11frameAdviseEb@Base 3.2.0
 _ZN5MyGUI12MultiListBox11setPositionERKNS_5types6TPointIiEE@Base 3.2.0
 _ZN5MyGUI12MultiListBox11setPositionEii@Base 3.2.0
 _ZN5MyGUI12MultiListBox11swapItemsAtEjj@Base 3.2.0
 _ZN5MyGUI12MultiListBox12frameEnteredEf@Base 3.2.0
 _ZN5MyGUI12MultiListBox12getSeparatorEj@Base 3.2.0
 _ZN5MyGUI12MultiListBox12getSubItemAtEj@Base 3.2.0
 _ZN5MyGUI12MultiListBox12insertItemAtEjRKNS_7UStringENS_3AnyE@Base 3.2.0
 _ZN5MyGUI12MultiListBox12removeItemAtEj@Base 3.2.0
 _ZN5MyGUI12MultiListBox12sortByColumnEjb@Base 3.2.0
 _ZN5MyGUI12MultiListBox13_getItemCountEv@Base 3.2.0
 _ZN5MyGUI12MultiListBox13_removeItemAtEj@Base 3.2.0
 _ZN5MyGUI12MultiListBox13getColumnNameEPNS_13MultiListItemE@Base 3.2.0
 _ZN5MyGUI12MultiListBox13getItemNameAtEj@Base 3.2.0
 _ZN5MyGUI12MultiListBox13redrawButtonsEv@Base 3.2.0
 _ZN5MyGUI12MultiListBox13setColumnNameEPNS_13MultiListItemERKNS_7UStringE@Base 3.2.0
 _ZN5MyGUI12MultiListBox13setItemDataAtEjNS_3AnyE@Base 3.2.0
 _ZN5MyGUI12MultiListBox13setItemNameAtEjRKNS_7UStringE@Base 3.2.0
 _ZN5MyGUI12MultiListBox13swapColumnsAtEjj@Base 3.2.0
 _ZN5MyGUI12MultiListBox13updateColumnsEv@Base 3.2.0
 _ZN5MyGUI12MultiListBox14_getItemNameAtEj@Base 3.2.0
 _ZN5MyGUI12MultiListBox14_setItemNameAtEjRKNS_7UStringE@Base 3.2.0
 _ZN5MyGUI12MultiListBox14_swapColumnsAtEjj@Base 3.2.0
 _ZN5MyGUI12MultiListBox14getColumnIndexEPNS_13MultiListItemE@Base 3.2.0
 _ZN5MyGUI12MultiListBox14insertColumnAtEjRKNS_7UStringEiNS_3AnyE@Base 3.2.0
 _ZN5MyGUI12MultiListBox14removeAllItemsEv@Base 3.2.0
 _ZN5MyGUI12MultiListBox14removeColumnAtEj@Base 3.2.0
 _ZN5MyGUI12MultiListBox14setColumnWidthEPNS_13MultiListItemEi@Base 3.2.0
 _ZN5MyGUI12MultiListBox15clearItemDataAtEj@Base 3.2.0
 _ZN5MyGUI12MultiListBox15findSubItemWithEjRKNS_7UStringE@Base 3.2.0
 _ZN5MyGUI12MultiListBox15getColumnNameAtEj@Base 3.2.0
 _ZN5MyGUI12MultiListBox15onWidgetCreatedEPNS_6WidgetE@Base 3.2.0
 _ZN5MyGUI12MultiListBox15onWidgetDestroyEPNS_6WidgetE@Base 3.2.0
 _ZN5MyGUI12MultiListBox15setColumnDataAtEjNS_3AnyE@Base 3.2.0
 _ZN5MyGUI12MultiListBox15setColumnNameAtEjRKNS_7UStringE@Base 3.2.0
 _ZN5MyGUI12MultiListBox15updateOnlyEmptyEv@Base 3.2.0
 _ZN5MyGUI12MultiListBox16getColumnWidthAtEj@Base 3.2.0
 _ZN5MyGUI12MultiListBox16getSubItemNameAtEjj@Base 3.2.0
 _ZN5MyGUI12MultiListBox16removeAllColumnsEv@Base 3.2.0
 _ZN5MyGUI12MultiListBox16setColumnWidthAtEji@Base 3.2.0
 _ZN5MyGUI12MultiListBox16setIndexSelectedEj@Base 3.2.0
 _ZN5MyGUI12MultiListBox16setSubItemDataAtEjjNS_3AnyE@Base 3.2.0
 _ZN5MyGUI12MultiListBox16setSubItemNameAtEjjRKNS_7UStringE@Base 3.2.0
 _ZN5MyGUI12MultiListBox16shutdownOverrideEv@Base 3.2.0
 _ZN5MyGUI12MultiListBox17clearColumnDataAtEj@Base 3.2.0
 _ZN5MyGUI12MultiListBox17getUpdateByResizeEv@Base 3.2.0
 _ZN5MyGUI12MultiListBox17notifyButtonClickEPNS_6WidgetE@Base 3.2.0
 _ZN5MyGUI12MultiListBox18clearIndexSelectedEv@Base 3.2.0
 _ZN5MyGUI12MultiListBox18clearSubItemDataAtEjj@Base 3.2.0
 _ZN5MyGUI12MultiListBox18initialiseOverrideEv@Base 3.2.0
 _ZN5MyGUI12MultiListBox18updateBackSelectedEj@Base 3.2.0
 _ZN5MyGUI12MultiListBox18updateWidthColumnsERjS1_@Base 3.2.0
 _ZN5MyGUI12MultiListBox21notifyListChangeFocusEPNS_7ListBoxEj@Base 3.2.0
 _ZN5MyGUI12MultiListBox22notifyListSelectAcceptEPNS_7ListBoxEj@Base 3.2.0
 _ZN5MyGUI12MultiListBox23setColumnResizingPolicyEPNS_13MultiListItemENS_14ResizingPolicyE@Base 3.2.0
 _ZN5MyGUI12MultiListBox24notifyListChangePositionEPNS_7ListBoxEj@Base 3.2.0
 _ZN5MyGUI12MultiListBox25setColumnResizingPolicyAtEjNS_14ResizingPolicyE@Base 3.2.0
 _ZN5MyGUI12MultiListBox30notifyListChangeScrollPositionEPNS_7ListBoxEj@Base 3.2.0
 _ZN5MyGUI12MultiListBox7addItemERKNS_7UStringENS_3AnyE@Base 3.2.0
 _ZN5MyGUI12MultiListBox7compareEPNS_7ListBoxEjj@Base 3.2.0
 _ZN5MyGUI12MultiListBox7setSizeERKNS_5types5TSizeIiEE@Base 3.2.0
 _ZN5MyGUI12MultiListBox7setSizeEii@Base 3.2.0
 _ZN5MyGUI12MultiListBox8_addItemERKNS_7UStringE@Base 3.2.0
 _ZN5MyGUI12MultiListBox8flipListEv@Base 3.2.0
 _ZN5MyGUI12MultiListBox8setCoordERKNS_5types6TCoordIiEE@Base 3.2.0
 _ZN5MyGUI12MultiListBox8setCoordEiiii@Base 3.2.0
 _ZN5MyGUI12MultiListBox8sortListEv@Base 3.2.0
 _ZN5MyGUI12MultiListBox9_wrapItemEPNS_13MultiListItemE@Base 3.2.0
 _ZN5MyGUI12MultiListBox9addColumnERKNS_7UStringEiNS_3AnyE@Base 3.2.0
 _ZN5MyGUI12MultiListBoxC1Ev@Base 3.2.0
 _ZN5MyGUI12MultiListBoxC2Ev@Base 3.2.0
 _ZN5MyGUI12MultiListBoxD0Ev@Base 3.2.0
 _ZN5MyGUI12MultiListBoxD1Ev@Base 3.2.0
 _ZN5MyGUI12MultiListBoxD2Ev@Base 3.2.0
 _ZN5MyGUI12ResourceSkin10checkBasisEv@Base 3.2.0
 _ZN5MyGUI12ResourceSkin10checkStateERKSs@Base 3.2.0
 _ZN5MyGUI12ResourceSkin10checkStateERKSt3mapISsPNS_10IStateInfoESt4lessISsESaISt4pairIKSsS3_EEE@Base 3.2.0
 _ZN5MyGUI12ResourceSkin11addPropertyERKSsS2_@Base 3.2.0
 _ZN5MyGUI12ResourceSkin15deserializationEPNS_3xml7ElementENS_7VersionE@Base 3.2.0
 _ZN5MyGUI12ResourceSkin5clearEv@Base 3.2.0
 _ZN5MyGUI12ResourceSkin7addInfoERKNS_16SubWidgetBindingE@Base 3.2.0
 _ZN5MyGUI12ResourceSkin7setInfoERKNS_5types5TSizeIiEERKSs@Base 3.2.0
 _ZN5MyGUI12ResourceSkin8addChildERKNS_13ChildSkinInfoE@Base 3.2.0
 _ZN5MyGUI12ResourceSkin9fillStateERKSt3mapISsPNS_10IStateInfoESt4lessISsESaISt4pairIKSsS3_EEEj@Base 3.2.0
 _ZN5MyGUI12ResourceSkinC1Ev@Base 3.2.0
 _ZN5MyGUI12ResourceSkinC2Ev@Base 3.2.0
 _ZN5MyGUI12ResourceSkinD0Ev@Base 3.2.0
 _ZN5MyGUI12ResourceSkinD1Ev@Base 3.2.0
 _ZN5MyGUI12ResourceSkinD2Ev@Base 3.2.0
 _ZN5MyGUI12RotatingSkin10_setColourERKNS_6ColourE@Base 3.2.0
 _ZN5MyGUI12RotatingSkin10setVisibleEb@Base 3.2.0
 _ZN5MyGUI12RotatingSkin11_updateViewEv@Base 3.2.0
 _ZN5MyGUI12RotatingSkin12_correctViewEv@Base 3.2.0
 _ZN5MyGUI12RotatingSkin12setStateDataEPNS_10IStateInfoE@Base 3.2.0
 _ZN5MyGUI12RotatingSkin14createDrawItemEPNS_8ITextureEPNS_10ILayerNodeE@Base 3.2.0
 _ZN5MyGUI12RotatingSkin15destroyDrawItemEv@Base 3.2.0
 _ZN5MyGUI12RotatingSkin16_rebuildGeometryEv@Base 3.2.0
 _ZN5MyGUI12RotatingSkin8doRenderEv@Base 3.2.0
 _ZN5MyGUI12RotatingSkin8setAlphaEf@Base 3.2.0
 _ZN5MyGUI12RotatingSkin8setAngleEf@Base 3.2.0
 _ZN5MyGUI12RotatingSkin9_setAlignERKNS_5types5TSizeIiEE@Base 3.2.0
 _ZN5MyGUI12RotatingSkin9_setUVSetERKNS_5types5TRectIfEE@Base 3.2.0
 _ZN5MyGUI12RotatingSkin9setCenterERKNS_5types6TPointIiEE@Base 3.2.0
 _ZN5MyGUI12RotatingSkinC1Ev@Base 3.2.0
 _ZN5MyGUI12RotatingSkinC2Ev@Base 3.2.0
 _ZN5MyGUI12RotatingSkinD0Ev@Base 3.2.0
 _ZN5MyGUI12RotatingSkinD1Ev@Base 3.2.0
 _ZN5MyGUI12RotatingSkinD2Ev@Base 3.2.0
 _ZN5MyGUI12TextIterator10insertTextERKNS_7UStringEb@Base 3.2.0
 _ZN5MyGUI12TextIterator11getOnlyTextERKNS_7UStringE@Base 3.2.0
 _ZN5MyGUI12TextIterator12clearNewLineERNS_7UStringE@Base 3.2.0
 _ZN5MyGUI12TextIterator12cutMaxLengthEj@Base 3.2.0
 _ZN5MyGUI12TextIterator12getFromStartEv@Base 3.2.0
 _ZN5MyGUI12TextIterator12setTagColourENS_7UStringE@Base 3.2.0
 _ZN5MyGUI12TextIterator12setTagColourERKNS_6ColourE@Base 3.2.0
 _ZN5MyGUI12TextIterator12toTagsStringERKNS_7UStringE@Base 3.2.0
 _ZN5MyGUI12TextIterator14clearTagColourEv@Base 3.2.0
 _ZN5MyGUI12TextIterator14eraseFromStartEv@Base 3.2.0
 _ZN5MyGUI12TextIterator14getTextNewLineEv@Base 3.2.0
 _ZN5MyGUI12TextIterator14saveStartPointEv@Base 3.2.0
 _ZN5MyGUI12TextIterator15getTextCharInfoEj@Base 3.2.0
 _ZN5MyGUI12TextIterator16convertTagColourERKNS_6ColourE@Base 3.2.0
 _ZN5MyGUI12TextIterator25cutMaxLengthFromBeginningEj@Base 3.2.0
 _ZN5MyGUI12TextIterator5clearEv@Base 3.2.0
 _ZN5MyGUI12TextIterator5eraseENS_7UString13_fwd_iteratorES2_@Base 3.2.0
 _ZN5MyGUI12TextIterator6insertERNS_7UString13_fwd_iteratorERS1_@Base 3.2.0
 _ZN5MyGUI12TextIterator7setTextERKNS_7UStringEb@Base 3.2.0
 _ZN5MyGUI12TextIterator8moveNextEv@Base 3.2.0
 _ZN5MyGUI12TextIterator9clearTextEv@Base 3.2.0
 _ZN5MyGUI12TextIteratorC1ERKNS_7UStringEPSt6vectorINS_15TextCommandInfoESaIS5_EE@Base 3.2.0
 _ZN5MyGUI12TextIteratorC1Ev@Base 3.2.0
 _ZN5MyGUI12TextIteratorC2ERKNS_7UStringEPSt6vectorINS_15TextCommandInfoESaIS5_EE@Base 3.2.0
 _ZN5MyGUI12TextIteratorC2Ev@Base 3.2.0
 _ZN5MyGUI13ChildSkinInfo8addParamERKSsS2_@Base 3.2.0
 _ZN5MyGUI13ChildSkinInfoC1ERKSsRKNS_11WidgetStyleES2_RKNS_5types6TCoordIiEERKNS_5AlignES2_S2_@Base 3.2.0
 _ZN5MyGUI13ChildSkinInfoC1Ev@Base 3.2.0
 _ZN5MyGUI13ChildSkinInfoC2ERKSsRKNS_11WidgetStyleES2_RKNS_5types6TCoordIiEERKNS_5AlignES2_S2_@Base 3.2.0
 _ZN5MyGUI13ChildSkinInfoC2Ev@Base 3.2.0
 _ZN5MyGUI13ChildSkinInfoD1Ev@Base 3.2.0
 _ZN5MyGUI13ChildSkinInfoD2Ev@Base 3.2.0
 _ZN5MyGUI13DynLibManager10initialiseEv@Base 3.2.0
 _ZN5MyGUI13DynLibManager19_unloadDelayDynLibsEv@Base 3.2.0
 _ZN5MyGUI13DynLibManager21notifyEventFrameStartEf@Base 3.2.0
 _ZN5MyGUI13DynLibManager4loadERKSs@Base 3.2.0
 _ZN5MyGUI13DynLibManager6unloadEPNS_6DynLibE@Base 3.2.0
 _ZN5MyGUI13DynLibManager8shutdownEv@Base 3.2.0
 _ZN5MyGUI13DynLibManager9unloadAllEv@Base 3.2.0
 _ZN5MyGUI13DynLibManagerC1Ev@Base 3.2.0
 _ZN5MyGUI13DynLibManagerC2Ev@Base 3.2.0
 _ZN5MyGUI13DynLibManagerD0Ev@Base 3.2.0
 _ZN5MyGUI13DynLibManagerD1Ev@Base 3.2.0
 _ZN5MyGUI13DynLibManagerD2Ev@Base 3.2.0
 _ZN5MyGUI13LayoutManager10initialiseEv@Base 3.2.0
 _ZN5MyGUI13LayoutManager10loadLayoutERKSsS2_PNS_6WidgetE@Base 3.2.0
 _ZN5MyGUI13LayoutManager12unloadLayoutERSt6vectorIPNS_6WidgetESaIS3_EE@Base 3.2.0
 _ZN5MyGUI13LayoutManager5_loadEPNS_3xml7ElementERKSsNS_7VersionE@Base 3.2.0
 _ZN5MyGUI13LayoutManager8shutdownEv@Base 3.2.0
 _ZN5MyGUI13LayoutManagerC1Ev@Base 3.2.0
 _ZN5MyGUI13LayoutManagerC2Ev@Base 3.2.0
 _ZN5MyGUI13LayoutManagerD0Ev@Base 3.2.0
 _ZN5MyGUI13LayoutManagerD1Ev@Base 3.2.0
 _ZN5MyGUI13LayoutManagerD2Ev@Base 3.2.0
 _ZN5MyGUI13MultiListItem10getCaptionEv@Base 3.2.0
 _ZN5MyGUI13MultiListItem10setCaptionERKNS_7UStringE@Base 3.2.0
 _ZN5MyGUI13MultiListItem12setItemWidthEi@Base 3.2.0
 _ZN5MyGUI13MultiListItem16shutdownOverrideEv@Base 3.2.0
 _ZN5MyGUI13MultiListItem18initialiseOverrideEv@Base 3.2.0
 _ZN5MyGUI13MultiListItem19setPropertyOverrideERKSsS2_@Base 3.2.0
 _ZN5MyGUI13MultiListItem21setItemResizingPolicyENS_14ResizingPolicyE@Base 3.2.0
 _ZN5MyGUI13MultiListItem8getOwnerEv@Base 3.2.0
 _ZN5MyGUI13MultiListItemC1Ev@Base 3.2.0
 _ZN5MyGUI13MultiListItemC2Ev@Base 3.2.0
 _ZN5MyGUI13MultiListItemD0Ev@Base 3.2.0
 _ZN5MyGUI13MultiListItemD1Ev@Base 3.2.0
 _ZN5MyGUI13MultiListItemD2Ev@Base 3.2.0
 _ZN5MyGUI13PluginManager10initialiseEv@Base 3.2.0
 _ZN5MyGUI13PluginManager10loadPluginERKSs@Base 3.2.0
 _ZN5MyGUI13PluginManager12unloadPluginERKSs@Base 3.2.0
 _ZN5MyGUI13PluginManager13installPluginEPNS_7IPluginE@Base 3.2.0
 _ZN5MyGUI13PluginManager15uninstallPluginEPNS_7IPluginE@Base 3.2.0
 _ZN5MyGUI13PluginManager16unloadAllPluginsEv@Base 3.2.0
 _ZN5MyGUI13PluginManager5_loadEPNS_3xml7ElementERKSsNS_7VersionE@Base 3.2.0
 _ZN5MyGUI13PluginManager8shutdownEv@Base 3.2.0
 _ZN5MyGUI13PluginManagerC1Ev@Base 3.2.0
 _ZN5MyGUI13PluginManagerC2Ev@Base 3.2.0
 _ZN5MyGUI13PluginManagerD0Ev@Base 3.2.0
 _ZN5MyGUI13PluginManagerD1Ev@Base 3.2.0
 _ZN5MyGUI13PluginManagerD2Ev@Base 3.2.0
 _ZN5MyGUI13PolygonalSkin10_setColourERKNS_6ColourE@Base 3.2.0
 _ZN5MyGUI13PolygonalSkin10setVisibleEb@Base 3.2.0
 _ZN5MyGUI13PolygonalSkin11_updateViewEv@Base 3.2.0
 _ZN5MyGUI13PolygonalSkin12_correctViewEv@Base 3.2.0
 _ZN5MyGUI13PolygonalSkin12setStateDataEPNS_10IStateInfoE@Base 3.2.0
 _ZN5MyGUI13PolygonalSkin14_getMiddleLineERKNS_5types6TPointIfEES5_S5_@Base 3.2.0
 _ZN5MyGUI13PolygonalSkin14createDrawItemEPNS_8ITextureEPNS_10ILayerNodeE@Base 3.2.0
 _ZN5MyGUI13PolygonalSkin15destroyDrawItemEv@Base 3.2.0
 _ZN5MyGUI13PolygonalSkin16_rebuildGeometryEv@Base 3.2.0
 _ZN5MyGUI13PolygonalSkin17_getPerpendicularERKNS_5types6TPointIfEES5_@Base 3.2.0
 _ZN5MyGUI13PolygonalSkin8doRenderEv@Base 3.2.0
 _ZN5MyGUI13PolygonalSkin8setAlphaEf@Base 3.2.0
 _ZN5MyGUI13PolygonalSkin8setWidthEf@Base 3.2.0
 _ZN5MyGUI13PolygonalSkin9_setAlignERKNS_5types5TSizeIiEE@Base 3.2.0
 _ZN5MyGUI13PolygonalSkin9_setUVSetERKNS_5types5TRectIfEE@Base 3.2.0
 _ZN5MyGUI13PolygonalSkin9setPointsERKSt6vectorINS_5types6TPointIfEESaIS4_EE@Base 3.2.0
 _ZN5MyGUI13PolygonalSkinC1Ev@Base 3.2.0
 _ZN5MyGUI13PolygonalSkinC2Ev@Base 3.2.0
 _ZN5MyGUI13PolygonalSkinD0Ev@Base 3.2.0
 _ZN5MyGUI13PolygonalSkinD1Ev@Base 3.2.0
 _ZN5MyGUI13PolygonalSkinD2Ev@Base 3.2.0
 _ZN5MyGUI13RenderManager12onFrameEventEf@Base 3.2.0
 _ZN5MyGUI13RenderManager12onResizeViewERKNS_5types5TSizeIiEE@Base 3.2.0
 _ZN5MyGUI13RenderManager16onRenderToTargetEPNS_13IRenderTargetEb@Base 3.2.0
 _ZN5MyGUI13RenderManager17isFormatSupportedENS_11PixelFormatENS_12TextureUsageE@Base 3.2.0
 _ZN5MyGUI13RenderManagerD0Ev@Base 3.2.0
 _ZN5MyGUI13RenderManagerD1Ev@Base 3.2.0
 _ZN5MyGUI13RenderManagerD2Ev@Base 3.2.0
 _ZN5MyGUI13WidgetManager10initialiseEv@Base 3.2.0
 _ZN5MyGUI13WidgetManager12createWidgetENS_11WidgetStyleERKSsS3_RKNS_5types6TCoordIiEEPNS_6WidgetEPNS_17ICroppedRectangleES3_@Base 3.2.0
 _ZN5MyGUI13WidgetManager13_deleteWidgetEPNS_6WidgetE@Base 3.2.0
 _ZN5MyGUI13WidgetManager13destroyWidgetEPNS_6WidgetE@Base 3.2.0
 _ZN5MyGUI13WidgetManager14destroyWidgetsENS_10EnumeratorISt6vectorIPNS_6WidgetESaIS4_EEEE@Base 3.2.0
 _ZN5MyGUI13WidgetManager14destroyWidgetsERKSt6vectorIPNS_6WidgetESaIS3_EE@Base 3.2.0
 _ZN5MyGUI13WidgetManager14isFactoryExistERKSs@Base 3.2.0
 _ZN5MyGUI13WidgetManager16registerUnlinkerEPNS_13IUnlinkWidgetE@Base 3.2.0
 _ZN5MyGUI13WidgetManager18unregisterUnlinkerEPNS_13IUnlinkWidgetE@Base 3.2.0
 _ZN5MyGUI13WidgetManager19_deleteDelayWidgetsEv@Base 3.2.0
 _ZN5MyGUI13WidgetManager19unlinkFromUnlinkersEPNS_6WidgetE@Base 3.2.0
 _ZN5MyGUI13WidgetManager21notifyEventFrameStartEf@Base 3.2.0
 _ZN5MyGUI13WidgetManager8shutdownEv@Base 3.2.0
 _ZN5MyGUI13WidgetManagerC1Ev@Base 3.2.0
 _ZN5MyGUI13WidgetManagerC2Ev@Base 3.2.0
 _ZN5MyGUI13WidgetManagerD0Ev@Base 3.2.0
 _ZN5MyGUI13WidgetManagerD1Ev@Base 3.2.0
 _ZN5MyGUI13WidgetManagerD2Ev@Base 3.2.0
 _ZN5MyGUI14ControllerInfoC1ERKS0_@Base 3.2.0
 _ZN5MyGUI14ControllerInfoC2ERKS0_@Base 3.2.0
 _ZN5MyGUI14ControllerInfoD1Ev@Base 3.2.0
 _ZN5MyGUI14ControllerInfoD2Ev@Base 3.2.0
 _ZN5MyGUI14DataFileStreamC1EPSt14basic_ifstreamIcSt11char_traitsIcEE@Base 3.2.0
 _ZN5MyGUI14DataFileStreamC1Ev@Base 3.2.0
 _ZN5MyGUI14DataFileStreamC2EPSt14basic_ifstreamIcSt11char_traitsIcEE@Base 3.2.0
 _ZN5MyGUI14DataFileStreamC2Ev@Base 3.2.0
 _ZN5MyGUI14DataFileStreamD0Ev@Base 3.2.0
 _ZN5MyGUI14DataFileStreamD1Ev@Base 3.2.0
 _ZN5MyGUI14DataFileStreamD2Ev@Base 3.2.0
 _ZN5MyGUI14FactoryManager10initialiseEv@Base 3.2.0
 _ZN5MyGUI14FactoryManager12createObjectERKSsS2_@Base 3.2.0
 _ZN5MyGUI14FactoryManager13destroyObjectEPNS_7IObjectE@Base 3.2.0
 _ZN5MyGUI14FactoryManager14isFactoryExistERKSsS2_@Base 3.2.0
 _ZN5MyGUI14FactoryManager15registerFactoryERKSsS2_PNS_9delegates10IDelegate1IRPNS_7IObjectEEE@Base 3.2.0
 _ZN5MyGUI14FactoryManager17unregisterFactoryERKSs@Base 3.2.0
 _ZN5MyGUI14FactoryManager17unregisterFactoryERKSsS2_@Base 3.2.0
 _ZN5MyGUI14FactoryManager8shutdownEv@Base 3.2.0
 _ZN5MyGUI14FactoryManagerC1Ev@Base 3.2.0
 _ZN5MyGUI14FactoryManagerC2Ev@Base 3.2.0
 _ZN5MyGUI14FactoryManagerD0Ev@Base 3.2.0
 _ZN5MyGUI14FactoryManagerD1Ev@Base 3.2.0
 _ZN5MyGUI14FactoryManagerD2Ev@Base 3.2.0
 _ZN5MyGUI14LevelLogFilter15setLoggingLevelENS_8LogLevelE@Base 3.2.0
 _ZN5MyGUI14LevelLogFilter9shouldLogERKSsNS_8LogLevelEPK2tmS2_PKci@Base 3.2.0
 _ZN5MyGUI14LevelLogFilterC1Ev@Base 3.2.0
 _ZN5MyGUI14LevelLogFilterC2Ev@Base 3.2.0
 _ZN5MyGUI14LevelLogFilterD0Ev@Base 3.2.0
 _ZN5MyGUI14LevelLogFilterD1Ev@Base 3.2.0
 _ZN5MyGUI14LevelLogFilterD2Ev@Base 3.2.0
 (optional=templinst)_ZN5MyGUI14MemberObsoleteINS_10ScrollViewEE11showHScrollEb@Base 3.2.0
 (optional=templinst)_ZN5MyGUI14MemberObsoleteINS_10ScrollViewEE11showVScrollEb@Base 3.2.0
 (optional=templinst)_ZN5MyGUI14MemberObsoleteINS_10ScrollViewEE13isShowHScrollEv@Base 3.2.0
 (optional=templinst)_ZN5MyGUI14MemberObsoleteINS_10ScrollViewEE13isShowVScrollEv@Base 3.2.0
 (optional=templinst)_ZN5MyGUI14MemberObsoleteINS_10TabControlEE11insertSheetEjRKNS_7UStringEi@Base 3.2.0
 (optional=templinst)_ZN5MyGUI14MemberObsoleteINS_10TabControlEE11removeSheetEPNS_7TabItemE@Base 3.2.0
 (optional=templinst)_ZN5MyGUI14MemberObsoleteINS_10TabControlEE11selectSheetEPNS_7TabItemEb@Base 3.2.0
 (optional=templinst)_ZN5MyGUI14MemberObsoleteINS_10TabControlEE12getSheetNameEPNS_7TabItemE@Base 3.2.0
 (optional=templinst)_ZN5MyGUI14MemberObsoleteINS_10TabControlEE12setSheetNameEPNS_7TabItemERKNS_7UStringEi@Base 3.2.0
 (optional=templinst)_ZN5MyGUI14MemberObsoleteINS_10TabControlEE13getSheetCountEv@Base 3.2.0
 (optional=templinst)_ZN5MyGUI14MemberObsoleteINS_10TabControlEE13showBarButtonEj@Base 3.2.0
 (optional=templinst)_ZN5MyGUI14MemberObsoleteINS_10TabControlEE16removeSheetIndexEj@Base 3.2.0
 (optional=templinst)_ZN5MyGUI14MemberObsoleteINS_10TabControlEE16selectSheetIndexEjb@Base 3.2.0
 (optional=templinst)_ZN5MyGUI14MemberObsoleteINS_10TabControlEE17getSheetNameIndexEj@Base 3.2.0
 (optional=templinst)_ZN5MyGUI14MemberObsoleteINS_10TabControlEE17setItemSelectedAtEj@Base 3.2.0
 (optional=templinst)_ZN5MyGUI14MemberObsoleteINS_10TabControlEE17setSheetNameIndexEjRKNS_7UStringEi@Base 3.2.0
 (optional=templinst)_ZN5MyGUI14MemberObsoleteINS_10TabControlEE19getSelectSheetIndexEv@Base 3.2.0
 (optional=templinst)_ZN5MyGUI14MemberObsoleteINS_10TabControlEE19getSheetButtonWidthEPNS_7TabItemE@Base 3.2.0
 (optional=templinst)_ZN5MyGUI14MemberObsoleteINS_10TabControlEE19setSheetButtonWidthEPNS_7TabItemEi@Base 3.2.0
 (optional=templinst)_ZN5MyGUI14MemberObsoleteINS_10TabControlEE19showBarSelectButtonEv@Base 3.2.0
 (optional=templinst)_ZN5MyGUI14MemberObsoleteINS_10TabControlEE20getItemIndexSelectedEv@Base 3.2.0
 (optional=templinst)_ZN5MyGUI14MemberObsoleteINS_10TabControlEE24getSheetButtonWidthIndexEj@Base 3.2.0
 (optional=templinst)_ZN5MyGUI14MemberObsoleteINS_10TabControlEE24setSheetButtonWidthIndexEji@Base 3.2.0
 (optional=templinst)_ZN5MyGUI14MemberObsoleteINS_10TabControlEE8addSheetERKNS_7UStringEi@Base 3.2.0
 (optional=templinst)_ZN5MyGUI14MemberObsoleteINS_10TabControlEE8getSheetEj@Base 3.2.0
 (optional=templinst)_ZN5MyGUI14MemberObsoleteINS_11FontManagerEE4loadERKSs@Base 3.2.0
 (optional=templinst)_ZN5MyGUI14MemberObsoleteINS_11MenuControlEE10isShowMenuEv@Base 3.2.0
 (optional=templinst)_ZN5MyGUI14MemberObsoleteINS_11MenuControlEE12getAlignVertEv@Base 3.2.0
 (optional=templinst)_ZN5MyGUI14MemberObsoleteINS_11MenuControlEE12setAlignVertEb@Base 3.2.0
 (optional=templinst)_ZN5MyGUI14MemberObsoleteINS_11MenuControlEE13hideItemChildEPNS_8MenuItemE@Base 3.2.0
 (optional=templinst)_ZN5MyGUI14MemberObsoleteINS_11MenuControlEE13showItemChildEPNS_8MenuItemE@Base 3.2.0
 (optional=templinst)_ZN5MyGUI14MemberObsoleteINS_11MenuControlEE15hideItemChildAtEj@Base 3.2.0
 (optional=templinst)_ZN5MyGUI14MemberObsoleteINS_11MenuControlEE15showItemChildAtEj@Base 3.2.0
 (optional=templinst)_ZN5MyGUI14MemberObsoleteINS_11MenuControlEE8hideMenuEv@Base 3.2.0
 (optional=templinst)_ZN5MyGUI14MemberObsoleteINS_11MenuControlEE8showMenuEv@Base 3.2.0
 (optional=templinst)_ZN5MyGUI14MemberObsoleteINS_11ProgressBarEE21getProgressStartPointEv@Base 3.2.0
 (optional=templinst)_ZN5MyGUI14MemberObsoleteINS_11ProgressBarEE21setProgressStartPointENS_5AlignE@Base 3.2.0
 (optional=templinst)_ZN5MyGUI14MemberObsoleteINS_11SkinManagerEE4loadERKSs@Base 3.2.0
 (optional=templinst)_ZN5MyGUI14MemberObsoleteINS_11SkinManagerEE7getSkinERKSs@Base 3.2.0
 (optional=templinst)_ZN5MyGUI14MemberObsoleteINS_12LayerManagerEE4loadERKSs@Base 3.2.0
 (optional=templinst)_ZN5MyGUI14MemberObsoleteINS_12MultiListBoxEE10deleteItemEj@Base 3.2.0
 (optional=templinst)_ZN5MyGUI14MemberObsoleteINS_12MultiListBoxEE10getSubItemEjj@Base 3.2.0
 (optional=templinst)_ZN5MyGUI14MemberObsoleteINS_12MultiListBoxEE10insertItemEjRKNS_7UStringE@Base 3.2.0
 (optional=templinst)_ZN5MyGUI14MemberObsoleteINS_12MultiListBoxEE10setSubItemEjjRKNS_7UStringE@Base 3.2.0
 (optional=templinst)_ZN5MyGUI14MemberObsoleteINS_12MultiListBoxEE12deleteColumnEj@Base 3.2.0
 (optional=templinst)_ZN5MyGUI14MemberObsoleteINS_12MultiListBoxEE12insertColumnEjiRKNS_7UStringE@Base 3.2.0
 (optional=templinst)_ZN5MyGUI14MemberObsoleteINS_12MultiListBoxEE13getColumnNameEj@Base 3.2.0
 (optional=templinst)_ZN5MyGUI14MemberObsoleteINS_12MultiListBoxEE13getItemSelectEv@Base 3.2.0
 (optional=templinst)_ZN5MyGUI14MemberObsoleteINS_12MultiListBoxEE13setColumnNameEjRKNS_7UStringE@Base 3.2.0
 (optional=templinst)_ZN5MyGUI14MemberObsoleteINS_12MultiListBoxEE13setItemSelectEj@Base 3.2.0
 (optional=templinst)_ZN5MyGUI14MemberObsoleteINS_12MultiListBoxEE14deleteAllItemsEv@Base 3.2.0
 (optional=templinst)_ZN5MyGUI14MemberObsoleteINS_12MultiListBoxEE14getColumnWidthEj@Base 3.2.0
 (optional=templinst)_ZN5MyGUI14MemberObsoleteINS_12MultiListBoxEE14setColumnWidthEji@Base 3.2.0
 (optional=templinst)_ZN5MyGUI14MemberObsoleteINS_12MultiListBoxEE15resetItemSelectEv@Base 3.2.0
 (optional=templinst)_ZN5MyGUI14MemberObsoleteINS_12MultiListBoxEE16deleteAllColumnsEv@Base 3.2.0
 (optional=templinst)_ZN5MyGUI14MemberObsoleteINS_12MultiListBoxEE17clearItemSelectedEv@Base 3.2.0
 (optional=templinst)_ZN5MyGUI14MemberObsoleteINS_12MultiListBoxEE17setItemSelectedAtEj@Base 3.2.0
 (optional=templinst)_ZN5MyGUI14MemberObsoleteINS_12MultiListBoxEE20getItemIndexSelectedEv@Base 3.2.0
 (optional=templinst)_ZN5MyGUI14MemberObsoleteINS_12MultiListBoxEE7getItemEj@Base 3.2.0
 (optional=templinst)_ZN5MyGUI14MemberObsoleteINS_12MultiListBoxEE7setItemEjRKNS_7UStringE@Base 3.2.0
 (optional=templinst)_ZN5MyGUI14MemberObsoleteINS_12MultiListBoxEE8findItemEjRKNS_7UStringE@Base 3.2.0
 (optional=templinst)_ZN5MyGUI14MemberObsoleteINS_12MultiListBoxEE9addColumnEiRKNS_7UStringE@Base 3.2.0
 (optional=templinst)_ZN5MyGUI14MemberObsoleteINS_13LayoutManagerEE4loadERKSs@Base 3.2.0
 (optional=templinst)_ZN5MyGUI14MemberObsoleteINS_13PluginManagerEE4loadERKSs@Base 3.2.0
 (optional=templinst)_ZN5MyGUI14MemberObsoleteINS_13WidgetManagerEE11findWidgetTERKSsS4_b@Base 3.2.0
 (optional=templinst)_ZN5MyGUI14MemberObsoleteINS_13WidgetManagerEE11findWidgetTERKSsb@Base 3.2.0
 (optional=templinst)_ZN5MyGUI14MemberObsoleteINS_13WidgetManagerEE20destroyWidgetsVectorERSt6vectorIPNS_6WidgetESaIS5_EE@Base 3.2.0
 (optional=templinst)_ZN5MyGUI14MemberObsoleteINS_13WidgetManagerEE5parseEPNS_6WidgetERKSsS6_@Base 3.2.0
 (optional=templinst)_ZN5MyGUI14MemberObsoleteINS_14PointerManagerEE17setDeafultPointerERKSs@Base 3.2.0
 (optional=templinst)_ZN5MyGUI14MemberObsoleteINS_14PointerManagerEE4hideEv@Base 3.2.0
 (optional=templinst)_ZN5MyGUI14MemberObsoleteINS_14PointerManagerEE4loadERKSs@Base 3.2.0
 (optional=templinst)_ZN5MyGUI14MemberObsoleteINS_14PointerManagerEE4showEv@Base 3.2.0
 (optional=templinst)_ZN5MyGUI14MemberObsoleteINS_14PointerManagerEE6isShowEv@Base 3.2.0
 (optional=templinst)_ZN5MyGUI14MemberObsoleteINS_15LanguageManagerEE4loadERKSs@Base 3.2.0
 (optional=templinst)_ZN5MyGUI14MemberObsoleteINS_15ResourceManagerEE11getResourceERKSsb@Base 3.2.0
 (optional=templinst)_ZN5MyGUI14MemberObsoleteINS_15ResourceManagerEE16getResourceCountEv@Base 3.2.0
 (optional=templinst)_ZN5MyGUI14MemberObsoleteINS_3GuiEE11getViewSizeEv@Base 3.2.0
 (optional=templinst)_ZN5MyGUI14MemberObsoleteINS_3GuiEE11hidePointerEv@Base 3.2.0
 (optional=templinst)_ZN5MyGUI14MemberObsoleteINS_3GuiEE11showPointerEv@Base 3.2.0
 (optional=templinst)_ZN5MyGUI14MemberObsoleteINS_3GuiEE12getViewWidthEv@Base 3.2.0
 (optional=templinst)_ZN5MyGUI14MemberObsoleteINS_3GuiEE13_resizeWindowERKNS_5types5TSizeIiEE@Base 3.2.0
 (optional=templinst)_ZN5MyGUI14MemberObsoleteINS_3GuiEE13getViewHeightEv@Base 3.2.0
 (optional=templinst)_ZN5MyGUI14MemberObsoleteINS_3GuiEE13isShowPointerEv@Base 3.2.0
 (optional=templinst)_ZN5MyGUI14MemberObsoleteINS_3GuiEE14injectKeyPressENS_7KeyCodeEj@Base 3.2.0
 (optional=templinst)_ZN5MyGUI14MemberObsoleteINS_3GuiEE15injectMouseMoveEiii@Base 3.2.0
 (optional=templinst)_ZN5MyGUI14MemberObsoleteINS_3GuiEE16injectKeyReleaseENS_7KeyCodeE@Base 3.2.0
 (optional=templinst)_ZN5MyGUI14MemberObsoleteINS_3GuiEE16injectMousePressEiiNS_11MouseButtonE@Base 3.2.0
 (optional=templinst)_ZN5MyGUI14MemberObsoleteINS_3GuiEE16isVisiblePointerEv@Base 3.2.0
 (optional=templinst)_ZN5MyGUI14MemberObsoleteINS_3GuiEE17setVisiblePointerEb@Base 3.2.0
 (optional=templinst)_ZN5MyGUI14MemberObsoleteINS_3GuiEE18injectMouseReleaseEiiNS_11MouseButtonE@Base 3.2.0
 (optional=templinst)_ZN5MyGUI14MemberObsoleteINS_3GuiEE19_injectFrameEnteredEf@Base 3.2.0
 (optional=templinst)_ZN5MyGUI14MemberObsoleteINS_3GuiEE20destroyWidgetsVectorERSt6vectorIPNS_6WidgetESaIS5_EE@Base 3.2.0
 (optional=templinst)_ZN5MyGUI14MemberObsoleteINS_3GuiEE4loadERKSs@Base 3.2.0
 (optional=templinst)_ZN5MyGUI14MemberObsoleteINS_6ButtonEE13getImageIndexEv@Base 3.2.0
 (optional=templinst)_ZN5MyGUI14MemberObsoleteINS_6ButtonEE13getStateCheckEv@Base 3.2.0
 (optional=templinst)_ZN5MyGUI14MemberObsoleteINS_6ButtonEE13setImageIndexEj@Base 3.2.0
 (optional=templinst)_ZN5MyGUI14MemberObsoleteINS_6ButtonEE13setStateCheckEb@Base 3.2.0
 (optional=templinst)_ZN5MyGUI14MemberObsoleteINS_6ButtonEE14getStaticImageEv@Base 3.2.0
 (optional=templinst)_ZN5MyGUI14MemberObsoleteINS_6ButtonEE16getButtonPressedEv@Base 3.2.0
 (optional=templinst)_ZN5MyGUI14MemberObsoleteINS_6ButtonEE16setButtonPressedEb@Base 3.2.0
 (optional=templinst)_ZN5MyGUI14MemberObsoleteINS_6WidgetEE14isInheritsPickEv@Base 3.2.0
 (optional=templinst)_ZN5MyGUI14MemberObsoleteINS_6WidgetEE14isNeedKeyFocusEv@Base 3.2.0
 (optional=templinst)_ZN5MyGUI14MemberObsoleteINS_6WidgetEE15isInheritsAlphaEv@Base 3.2.0
 (optional=templinst)_ZN5MyGUI14MemberObsoleteINS_6WidgetEE16isNeedMouseFocusEv@Base 3.2.0
 (optional=templinst)_ZN5MyGUI14MemberObsoleteINS_6WidgetEE9isEnabledEv@Base 3.2.0
 (optional=templinst)_ZN5MyGUI14MemberObsoleteINS_6WidgetEE9isVisibleEv@Base 3.2.0
 (optional=templinst)_ZN5MyGUI14MemberObsoleteINS_6WindowEE10hideSmoothEv@Base 3.2.0
 (optional=templinst)_ZN5MyGUI14MemberObsoleteINS_6WindowEE10showSmoothEb@Base 3.2.0
 (optional=templinst)_ZN5MyGUI14MemberObsoleteINS_6WindowEE9getMinMaxEv@Base 3.2.0
 (optional=templinst)_ZN5MyGUI14MemberObsoleteINS_6WindowEE9setMinMaxERKNS_5types5TRectIiEE@Base 3.2.0
 (optional=templinst)_ZN5MyGUI14MemberObsoleteINS_6WindowEE9setMinMaxEiiii@Base 3.2.0
 (optional=templinst)_ZN5MyGUI14MemberObsoleteINS_7EditBoxEE11showHScrollEb@Base 3.2.0
 (optional=templinst)_ZN5MyGUI14MemberObsoleteINS_7EditBoxEE11showVScrollEb@Base 3.2.0
 (optional=templinst)_ZN5MyGUI14MemberObsoleteINS_7EditBoxEE12isTextSelectEv@Base 3.2.0
 (optional=templinst)_ZN5MyGUI14MemberObsoleteINS_7EditBoxEE13getTextSelectERjS3_@Base 3.2.0
 (optional=templinst)_ZN5MyGUI14MemberObsoleteINS_7EditBoxEE13isShowHScrollEv@Base 3.2.0
 (optional=templinst)_ZN5MyGUI14MemberObsoleteINS_7EditBoxEE13isShowVScrollEv@Base 3.2.0
 (optional=templinst)_ZN5MyGUI14MemberObsoleteINS_7EditBoxEE13setTextColourEjjRKNS_6ColourE@Base 3.2.0
 (optional=templinst)_ZN5MyGUI14MemberObsoleteINS_7EditBoxEE13setTextSelectEjj@Base 3.2.0
 (optional=templinst)_ZN5MyGUI14MemberObsoleteINS_7EditBoxEE15getSelectedTextEv@Base 3.2.0
 (optional=templinst)_ZN5MyGUI14MemberObsoleteINS_7EditBoxEE16deleteTextSelectEv@Base 3.2.0
 (optional=templinst)_ZN5MyGUI14MemberObsoleteINS_7EditBoxEE19setTextSelectColourERKNS_6ColourE@Base 3.2.0
 (optional=templinst)_ZN5MyGUI14MemberObsoleteINS_7EditBoxEE7getTextEjj@Base 3.2.0
 (optional=templinst)_ZN5MyGUI14MemberObsoleteINS_7ItemBoxEE10deleteItemEj@Base 3.2.0
 (optional=templinst)_ZN5MyGUI14MemberObsoleteINS_7ItemBoxEE10insertItemEjNS_3AnyE@Base 3.2.0
 (optional=templinst)_ZN5MyGUI14MemberObsoleteINS_7ItemBoxEE11setItemDataEjNS_3AnyE@Base 3.2.0
 (optional=templinst)_ZN5MyGUI14MemberObsoleteINS_7ItemBoxEE13getItemSelectEv@Base 3.2.0
 (optional=templinst)_ZN5MyGUI14MemberObsoleteINS_7ItemBoxEE13getWidgetDropEv@Base 3.2.0
 (optional=templinst)_ZN5MyGUI14MemberObsoleteINS_7ItemBoxEE13setItemSelectEj@Base 3.2.0
 (optional=templinst)_ZN5MyGUI14MemberObsoleteINS_7ItemBoxEE14deleteAllItemsEv@Base 3.2.0
 (optional=templinst)_ZN5MyGUI14MemberObsoleteINS_7ItemBoxEE15resetItemSelectEv@Base 3.2.0
 (optional=templinst)_ZN5MyGUI14MemberObsoleteINS_7ItemBoxEE17clearItemSelectedEv@Base 3.2.0
 (optional=templinst)_ZN5MyGUI14MemberObsoleteINS_7ItemBoxEE17setItemSelectedAtEj@Base 3.2.0
 (optional=templinst)_ZN5MyGUI14MemberObsoleteINS_7ItemBoxEE19getItemBoxAlignVertEv@Base 3.2.0
 (optional=templinst)_ZN5MyGUI14MemberObsoleteINS_7ItemBoxEE19setItemBoxAlignVertEb@Base 3.2.0
 (optional=templinst)_ZN5MyGUI14MemberObsoleteINS_7ItemBoxEE20getItemIndexSelectedEv@Base 3.2.0
 (optional=templinst)_ZN5MyGUI14MemberObsoleteINS_7ItemBoxEE9resetDropEv@Base 3.2.0
 (optional=templinst)_ZN5MyGUI14MemberObsoleteINS_7ListBoxEE10beginToEndEv@Base 3.2.0
 (optional=templinst)_ZN5MyGUI14MemberObsoleteINS_7ListBoxEE10deleteItemEj@Base 3.2.0
 (optional=templinst)_ZN5MyGUI14MemberObsoleteINS_7ListBoxEE10insertItemEjRKNS_7UStringE@Base 3.2.0
 (optional=templinst)_ZN5MyGUI14MemberObsoleteINS_7ListBoxEE12beginToIndexEj@Base 3.2.0
 (optional=templinst)_ZN5MyGUI14MemberObsoleteINS_7ListBoxEE12beginToStartEv@Base 3.2.0
 (optional=templinst)_ZN5MyGUI14MemberObsoleteINS_7ListBoxEE13beginToSelectEv@Base 3.2.0
 (optional=templinst)_ZN5MyGUI14MemberObsoleteINS_7ListBoxEE13getItemSelectEv@Base 3.2.0
 (optional=templinst)_ZN5MyGUI14MemberObsoleteINS_7ListBoxEE13isItemVisibleEjb@Base 3.2.0
 (optional=templinst)_ZN5MyGUI14MemberObsoleteINS_7ListBoxEE13setItemSelectEj@Base 3.2.0
 (optional=templinst)_ZN5MyGUI14MemberObsoleteINS_7ListBoxEE14deleteAllItemsEv@Base 3.2.0
 (optional=templinst)_ZN5MyGUI14MemberObsoleteINS_7ListBoxEE15resetItemSelectEv@Base 3.2.0
 (optional=templinst)_ZN5MyGUI14MemberObsoleteINS_7ListBoxEE17clearItemSelectedEv@Base 3.2.0
 (optional=templinst)_ZN5MyGUI14MemberObsoleteINS_7ListBoxEE17setItemSelectedAtEj@Base 3.2.0
 (optional=templinst)_ZN5MyGUI14MemberObsoleteINS_7ListBoxEE19isItemSelectVisibleEb@Base 3.2.0
 (optional=templinst)_ZN5MyGUI14MemberObsoleteINS_7ListBoxEE20getItemIndexSelectedEv@Base 3.2.0
 (optional=templinst)_ZN5MyGUI14MemberObsoleteINS_7ListBoxEE7getItemEj@Base 3.2.0
 (optional=templinst)_ZN5MyGUI14MemberObsoleteINS_7ListBoxEE7setItemEjRKNS_7UStringE@Base 3.2.0
 (optional=templinst)_ZN5MyGUI14MemberObsoleteINS_7ListBoxEE8findItemERKNS_7UStringE@Base 3.2.0
 (optional=templinst)_ZN5MyGUI14MemberObsoleteINS_8ComboBoxEE10deleteItemEj@Base 3.2.0
 (optional=templinst)_ZN5MyGUI14MemberObsoleteINS_8ComboBoxEE10insertItemEjRKNS_7UStringE@Base 3.2.0
 (optional=templinst)_ZN5MyGUI14MemberObsoleteINS_8ComboBoxEE13getItemSelectEv@Base 3.2.0
 (optional=templinst)_ZN5MyGUI14MemberObsoleteINS_8ComboBoxEE13setItemSelectEj@Base 3.2.0
 (optional=templinst)_ZN5MyGUI14MemberObsoleteINS_8ComboBoxEE14deleteAllItemsEv@Base 3.2.0
 (optional=templinst)_ZN5MyGUI14MemberObsoleteINS_8ComboBoxEE15resetItemSelectEv@Base 3.2.0
 (optional=templinst)_ZN5MyGUI14MemberObsoleteINS_8ComboBoxEE16getMaxListHeightEv@Base 3.2.0
 (optional=templinst)_ZN5MyGUI14MemberObsoleteINS_8ComboBoxEE16setMaxListHeightEi@Base 3.2.0
 (optional=templinst)_ZN5MyGUI14MemberObsoleteINS_8ComboBoxEE17clearItemSelectedEv@Base 3.2.0
 (optional=templinst)_ZN5MyGUI14MemberObsoleteINS_8ComboBoxEE17setItemSelectedAtEj@Base 3.2.0
 (optional=templinst)_ZN5MyGUI14MemberObsoleteINS_8ComboBoxEE20getItemIndexSelectedEv@Base 3.2.0
 (optional=templinst)_ZN5MyGUI14MemberObsoleteINS_8ComboBoxEE7getItemEj@Base 3.2.0
 (optional=templinst)_ZN5MyGUI14MemberObsoleteINS_8ComboBoxEE7setItemEjRKNS_7UStringE@Base 3.2.0
 (optional=templinst)_ZN5MyGUI14MemberObsoleteINS_8MenuItemEE13hideItemChildEv@Base 3.2.0
 (optional=templinst)_ZN5MyGUI14MemberObsoleteINS_8MenuItemEE13showItemChildEv@Base 3.2.0
 _ZN5MyGUI14PointerManager10initialiseEv@Base 3.2.0
 _ZN5MyGUI14PointerManager10setPointerERKSs@Base 3.2.0
 _ZN5MyGUI14PointerManager10setPointerERKSsPNS_6WidgetE@Base 3.2.0
 _ZN5MyGUI14PointerManager10setVisibleEb@Base 3.2.0
 _ZN5MyGUI14PointerManager12setLayerNameERKSs@Base 3.2.0
 _ZN5MyGUI14PointerManager13_unlinkWidgetEPNS_6WidgetE@Base 3.2.0
 _ZN5MyGUI14PointerManager16baseCreateWidgetENS_11WidgetStyleERKSsS3_RKNS_5types6TCoordIiEENS_5AlignES3_S3_@Base 3.2.0
 _ZN5MyGUI14PointerManager16notifyFrameStartEf@Base 3.2.0
 _ZN5MyGUI14PointerManager17setDefaultPointerERKSs@Base 3.2.0
 _ZN5MyGUI14PointerManager19_destroyChildWidgetEPNS_6WidgetE@Base 3.2.0
 _ZN5MyGUI14PointerManager21resetToDefaultPointerEv@Base 3.2.0
 _ZN5MyGUI14PointerManager22_destroyAllChildWidgetEv@Base 3.2.0
 _ZN5MyGUI14PointerManager22notifyChangeMouseFocusEPNS_6WidgetE@Base 3.2.0
 _ZN5MyGUI14PointerManager5_loadEPNS_3xml7ElementERKSsNS_7VersionE@Base 3.2.0
 _ZN5MyGUI14PointerManager6UpdateEv@Base 3.2.0
 _ZN5MyGUI14PointerManager8shutdownEv@Base 3.2.0
 _ZN5MyGUI14PointerManagerC1Ev@Base 3.2.0
 _ZN5MyGUI14PointerManagerC2Ev@Base 3.2.0
 _ZN5MyGUI14PointerManagerD0Ev@Base 3.2.0
 _ZN5MyGUI14PointerManagerD1Ev@Base 3.2.0
 _ZN5MyGUI14PointerManagerD2Ev@Base 3.2.0
 _ZN5MyGUI14ResourceLayout11parseWidgetERNS_3xml17ElementEnumeratorE@Base 3.2.0
 _ZN5MyGUI14ResourceLayout12createLayoutERKSsPNS_6WidgetE@Base 3.2.0
 _ZN5MyGUI14ResourceLayout12createWidgetERKNS_10WidgetInfoERKSsPNS_6WidgetEb@Base 3.2.0
 _ZN5MyGUI14ResourceLayout15deserializationEPNS_3xml7ElementENS_7VersionE@Base 3.2.0
 _ZN5MyGUI14ResourceLayoutC1EPNS_3xml7ElementERKSs@Base 3.2.0
 _ZN5MyGUI14ResourceLayoutC1Ev@Base 3.2.0
 _ZN5MyGUI14ResourceLayoutC2EPNS_3xml7ElementERKSs@Base 3.2.0
 _ZN5MyGUI14ResourceLayoutC2Ev@Base 3.2.0
 _ZN5MyGUI14ResourceLayoutD0Ev@Base 3.2.0
 _ZN5MyGUI14ResourceLayoutD1Ev@Base 3.2.0
 _ZN5MyGUI14ResourceLayoutD2Ev@Base 3.2.0
 _ZN5MyGUI14ScrollViewBase11getViewSizeEv@Base 3.2.0
 _ZN5MyGUI14ScrollViewBase12eraseContentEv@Base 3.2.0
 _ZN5MyGUI14ScrollViewBase14getContentSizeEv@Base 3.2.0
 _ZN5MyGUI14ScrollViewBase14getHScrollPageEv@Base 3.2.0
 _ZN5MyGUI14ScrollViewBase14getVScrollPageEv@Base 3.2.0
 _ZN5MyGUI14ScrollViewBase15getContentAlignEv@Base 3.2.0
 _ZN5MyGUI14ScrollViewBase16updateScrollSizeEv@Base 3.2.0
 _ZN5MyGUI14ScrollViewBase18getContentPositionEv@Base 3.2.0
 _ZN5MyGUI14ScrollViewBase18setContentPositionERKNS_5types6TPointIiEE@Base 3.2.0
 _ZN5MyGUI14ScrollViewBase20updateScrollPositionEv@Base 3.2.0
 _ZN5MyGUI14ScrollViewBaseC1Ev@Base 3.2.0
 _ZN5MyGUI14ScrollViewBaseC2Ev@Base 3.2.0
 _ZN5MyGUI14ScrollViewBaseD0Ev@Base 3.2.0
 _ZN5MyGUI14ScrollViewBaseD1Ev@Base 3.2.0
 _ZN5MyGUI14ScrollViewBaseD2Ev@Base 3.2.0
 _ZN5MyGUI14ToolTipManager10initialiseEv@Base 3.2.0
 _ZN5MyGUI14ToolTipManager11hideToolTipEPNS_6WidgetE@Base 3.2.0
 _ZN5MyGUI14ToolTipManager11moveToolTipEPNS_6WidgetEjRKNS_5types6TPointIiEE@Base 3.2.0
 _ZN5MyGUI14ToolTipManager11showToolTipEPNS_6WidgetEjRKNS_5types6TPointIiEE@Base 3.2.0
 _ZN5MyGUI14ToolTipManager13_unlinkWidgetEPNS_6WidgetE@Base 3.2.0
 _ZN5MyGUI14ToolTipManager13isNeedToolTipEPNS_6WidgetE@Base 3.2.0
 _ZN5MyGUI14ToolTipManager15setDelayVisibleEf@Base 3.2.0
 _ZN5MyGUI14ToolTipManager21notifyEventFrameStartEf@Base 3.2.0
 _ZN5MyGUI14ToolTipManager8shutdownEv@Base 3.2.0
 _ZN5MyGUI14ToolTipManagerC1Ev@Base 3.2.0
 _ZN5MyGUI14ToolTipManagerC2Ev@Base 3.2.0
 _ZN5MyGUI14ToolTipManagerD0Ev@Base 3.2.0
 _ZN5MyGUI14ToolTipManagerD1Ev@Base 3.2.0
 _ZN5MyGUI14ToolTipManagerD2Ev@Base 3.2.0
 _ZN5MyGUI15FileLogListener11setFileNameERKSs@Base 3.2.0
 _ZN5MyGUI15FileLogListener3logERKSsNS_8LogLevelEPK2tmS2_PKci@Base 3.2.0
 _ZN5MyGUI15FileLogListener4openEv@Base 3.2.0
 _ZN5MyGUI15FileLogListener5closeEv@Base 3.2.0
 _ZN5MyGUI15FileLogListener5flushEv@Base 3.2.0
 _ZN5MyGUI15FileLogListenerC1Ev@Base 3.2.0
 _ZN5MyGUI15FileLogListenerC2Ev@Base 3.2.0
 _ZN5MyGUI15FileLogListenerD0Ev@Base 3.2.0
 _ZN5MyGUI15FileLogListenerD1Ev@Base 3.2.0
 _ZN5MyGUI15FileLogListenerD2Ev@Base 3.2.0
 _ZN5MyGUI15LanguageManager10addUserTagERKNS_7UStringES3_@Base 3.2.0
 _ZN5MyGUI15LanguageManager10initialiseEv@Base 3.2.0
 _ZN5MyGUI15LanguageManager11replaceTagsERKNS_7UStringE@Base 3.2.0
 _ZN5MyGUI15LanguageManager12loadLanguageERKSsb@Base 3.2.0
 _ZN5MyGUI15LanguageManager12loadUserTagsERKSs@Base 3.2.0
 _ZN5MyGUI15LanguageManager13_loadLanguageEPNS_11IDataStreamEb@Base 3.2.0
 _ZN5MyGUI15LanguageManager13clearUserTagsEv@Base 3.2.0
 _ZN5MyGUI15LanguageManager15replaceTagsPassERKNS_7UStringERb@Base 3.2.0
 _ZN5MyGUI15LanguageManager16_loadLanguageXMLEPNS_11IDataStreamEb@Base 3.2.0
 _ZN5MyGUI15LanguageManager18setCurrentLanguageERKSs@Base 3.2.0
 _ZN5MyGUI15LanguageManager5_loadEPNS_3xml7ElementERKSsNS_7VersionE@Base 3.2.0
 _ZN5MyGUI15LanguageManager6getTagERKNS_7UStringE@Base 3.2.0
 _ZN5MyGUI15LanguageManager8shutdownEv@Base 3.2.0
 _ZN5MyGUI15LanguageManagerC1Ev@Base 3.2.0
 _ZN5MyGUI15LanguageManagerC2Ev@Base 3.2.0
 _ZN5MyGUI15LanguageManagerD0Ev@Base 3.2.0
 _ZN5MyGUI15LanguageManagerD1Ev@Base 3.2.0
 _ZN5MyGUI15LanguageManagerD2Ev@Base 3.2.0
 _ZN5MyGUI15OverlappedLayer10resizeViewERKNS_5types5TSizeIiEE@Base 3.2.0
 _ZN5MyGUI15OverlappedLayer14renderToTargetEPNS_13IRenderTargetEb@Base 3.2.0
 _ZN5MyGUI15OverlappedLayer15deserializationEPNS_3xml7ElementENS_7VersionE@Base 3.2.0
 _ZN5MyGUI15OverlappedLayer15upChildItemNodeEPNS_10ILayerNodeE@Base 3.2.0
 _ZN5MyGUI15OverlappedLayer19createChildItemNodeEv@Base 3.2.0
 _ZN5MyGUI15OverlappedLayer20destroyChildItemNodeEPNS_10ILayerNodeE@Base 3.2.0
 _ZN5MyGUI15OverlappedLayerC1Ev@Base 3.2.0
 _ZN5MyGUI15OverlappedLayerC2Ev@Base 3.2.0
 _ZN5MyGUI15OverlappedLayerD0Ev@Base 3.2.0
 _ZN5MyGUI15OverlappedLayerD1Ev@Base 3.2.0
 _ZN5MyGUI15OverlappedLayerD2Ev@Base 3.2.0
 _ZN5MyGUI15ResourceManager10initialiseEv@Base 3.2.0
 _ZN5MyGUI15ResourceManager11addResourceEPNS_9IResourceE@Base 3.2.0
 _ZN5MyGUI15ResourceManager12removeByNameERKSs@Base 3.2.0
 _ZN5MyGUI15ResourceManager14_loadImplementERKSsbS2_S2_@Base 3.2.0
 _ZN5MyGUI15ResourceManager14removeResourceEPNS_9IResourceE@Base 3.2.0
 _ZN5MyGUI15ResourceManager15loadFromXmlNodeEPNS_3xml7ElementERKSsNS_7VersionE@Base 3.2.0
 _ZN5MyGUI15ResourceManager23registerLoadXmlDelegateERKSs@Base 3.2.0
 _ZN5MyGUI15ResourceManager25unregisterLoadXmlDelegateERKSs@Base 3.2.0
 _ZN5MyGUI15ResourceManager4loadERKSs@Base 3.2.0
 _ZN5MyGUI15ResourceManager5clearEv@Base 3.2.0
 _ZN5MyGUI15ResourceManager8shutdownEv@Base 3.2.0
 _ZN5MyGUI15ResourceManager9_loadListEPNS_3xml7ElementERKSsNS_7VersionE@Base 3.2.0
 _ZN5MyGUI15ResourceManagerC1Ev@Base 3.2.0
 _ZN5MyGUI15ResourceManagerC2Ev@Base 3.2.0
 _ZN5MyGUI15ResourceManagerD0Ev@Base 3.2.0
 _ZN5MyGUI15ResourceManagerD1Ev@Base 3.2.0
 _ZN5MyGUI15ResourceManagerD2Ev@Base 3.2.0
 _ZN5MyGUI15SharedLayerNode11removeUsingEv@Base 3.2.0
 _ZN5MyGUI15SharedLayerNode8addUsingEv@Base 3.2.0
 _ZN5MyGUI15SharedLayerNodeC1EPNS_6ILayerEPNS_10ILayerNodeE@Base 3.2.0
 _ZN5MyGUI15SharedLayerNodeC2EPNS_6ILayerEPNS_10ILayerNodeE@Base 3.2.0
 _ZN5MyGUI15SharedLayerNodeD0Ev@Base 3.2.0
 _ZN5MyGUI15SharedLayerNodeD1Ev@Base 3.2.0
 _ZN5MyGUI15SharedLayerNodeD2Ev@Base 3.2.0
 _ZN5MyGUI15texture_utility12toColourARGBERKNS_6ColourE@Base 3.2.0
 _ZN5MyGUI15texture_utility14getTextureSizeERKSsb@Base 3.2.0
 _ZN5MyGUI16ClipboardManager10initialiseEv@Base 3.2.0
 _ZN5MyGUI16ClipboardManager16getClipboardDataERKSs@Base 3.2.0
 _ZN5MyGUI16ClipboardManager16setClipboardDataERKSsS2_@Base 3.2.0
 _ZN5MyGUI16ClipboardManager18clearClipboardDataERKSs@Base 3.2.0
 _ZN5MyGUI16ClipboardManager8shutdownEv@Base 3.2.0
 _ZN5MyGUI16ClipboardManagerC1Ev@Base 3.2.0
 _ZN5MyGUI16ClipboardManagerC2Ev@Base 3.2.0
 _ZN5MyGUI16ClipboardManagerD0Ev@Base 3.2.0
 _ZN5MyGUI16ClipboardManagerD1Ev@Base 3.2.0
 _ZN5MyGUI16ClipboardManagerD2Ev@Base 3.2.0
 _ZN5MyGUI16ResourceImageSet12getGroupSizeERKSs@Base 3.2.0
 _ZN5MyGUI16ResourceImageSet12getGroupSizeEj@Base 3.2.0
 _ZN5MyGUI16ResourceImageSet12getIndexInfoERKNS_5types5TSizeIiEERKSs@Base 3.2.0
 _ZN5MyGUI16ResourceImageSet12getIndexInfoERKNS_5types5TSizeIiEEj@Base 3.2.0
 _ZN5MyGUI16ResourceImageSet12getIndexInfoERKSsS2_@Base 3.2.0
 _ZN5MyGUI16ResourceImageSet12getIndexInfoERKSsj@Base 3.2.0
 _ZN5MyGUI16ResourceImageSet12getIndexInfoEjRKSs@Base 3.2.0
 _ZN5MyGUI16ResourceImageSet12getIndexInfoEjj@Base 3.2.0
 _ZN5MyGUI16ResourceImageSet12mFramesEmptyE@Base 3.2.0
 _ZN5MyGUI16ResourceImageSet13getGroupIndexERKNS_5types5TSizeIiEE@Base 3.2.0
 _ZN5MyGUI16ResourceImageSet13getGroupIndexERKSs@Base 3.2.0
 _ZN5MyGUI16ResourceImageSet13getImageIndexERNS_10GroupImageERKSs@Base 3.2.0
 _ZN5MyGUI16ResourceImageSet15deserializationEPNS_3xml7ElementENS_7VersionE@Base 3.2.0
 _ZN5MyGUI16ResourceImageSetC1Ev@Base 3.2.0
 _ZN5MyGUI16ResourceImageSetC2Ev@Base 3.2.0
 _ZN5MyGUI16ResourceImageSetD0Ev@Base 3.2.0
 _ZN5MyGUI16ResourceImageSetD1Ev@Base 3.2.0
 _ZN5MyGUI16ResourceImageSetD2Ev@Base 3.2.0
 _ZN5MyGUI16SubWidgetBinding3addERKSsPNS_10IStateInfoES2_@Base 3.2.0
 _ZN5MyGUI16SubWidgetBinding5clearEv@Base 3.2.0
 _ZN5MyGUI16SubWidgetBinding6createERKNS_5types6TCoordIiEENS_5AlignERKSs@Base 3.2.0
 _ZN5MyGUI16SubWidgetBindingC1ERKNS_5types6TCoordIiEENS_5AlignERKSs@Base 3.2.0
 _ZN5MyGUI16SubWidgetBindingC1Ev@Base 3.2.0
 _ZN5MyGUI16SubWidgetBindingC2ERKNS_5types6TCoordIiEENS_5AlignERKSs@Base 3.2.0
 _ZN5MyGUI16SubWidgetBindingC2Ev@Base 3.2.0
 _ZN5MyGUI16SubWidgetBindingD1Ev@Base 3.2.0
 _ZN5MyGUI16SubWidgetBindingD2Ev@Base 3.2.0
 _ZN5MyGUI16SubWidgetManager10initialiseEv@Base 3.2.0
 _ZN5MyGUI16SubWidgetManager8shutdownEv@Base 3.2.0
 _ZN5MyGUI16SubWidgetManagerC1Ev@Base 3.2.0
 _ZN5MyGUI16SubWidgetManagerC2Ev@Base 3.2.0
 _ZN5MyGUI16SubWidgetManagerD0Ev@Base 3.2.0
 _ZN5MyGUI16SubWidgetManagerD1Ev@Base 3.2.0
 _ZN5MyGUI16SubWidgetManagerD2Ev@Base 3.2.0
 _ZN5MyGUI17ControllerManager10createItemERKSs@Base 3.2.0
 _ZN5MyGUI17ControllerManager10initialiseEv@Base 3.2.0
 _ZN5MyGUI17ControllerManager10removeItemEPNS_6WidgetE@Base 3.2.0
 _ZN5MyGUI17ControllerManager12frameEnteredEf@Base 3.2.0
 _ZN5MyGUI17ControllerManager13_unlinkWidgetEPNS_6WidgetE@Base 3.2.0
 _ZN5MyGUI17ControllerManager5clearEv@Base 3.2.0
 _ZN5MyGUI17ControllerManager7addItemEPNS_6WidgetEPNS_14ControllerItemE@Base 3.2.0
 _ZN5MyGUI17ControllerManager8shutdownEv@Base 3.2.0
 _ZN5MyGUI17ControllerManagerC1Ev@Base 3.2.0
 _ZN5MyGUI17ControllerManagerC2Ev@Base 3.2.0
 _ZN5MyGUI17ControllerManagerD0Ev@Base 3.2.0
 _ZN5MyGUI17ControllerManagerD1Ev@Base 3.2.0
 _ZN5MyGUI17ControllerManagerD2Ev@Base 3.2.0
 _ZN5MyGUI18ConsoleLogListener10setEnabledEb@Base 3.2.0
 _ZN5MyGUI18ConsoleLogListener3logERKSsNS_8LogLevelEPK2tmS2_PKci@Base 3.2.0
 _ZN5MyGUI18ConsoleLogListenerC1Ev@Base 3.2.0
 _ZN5MyGUI18ConsoleLogListenerC2Ev@Base 3.2.0
 _ZN5MyGUI18ConsoleLogListenerD0Ev@Base 3.2.0
 _ZN5MyGUI18ConsoleLogListenerD1Ev@Base 3.2.0
 _ZN5MyGUI18ConsoleLogListenerD2Ev@Base 3.2.0
 _ZN5MyGUI18ControllerEdgeHide11prepareItemEPNS_6WidgetE@Base 3.2.0
 _ZN5MyGUI18ControllerEdgeHide11setPropertyERKSsS2_@Base 3.2.0
 _ZN5MyGUI18ControllerEdgeHide13setShadowSizeEi@Base 3.2.0
 _ZN5MyGUI18ControllerEdgeHide15recalculateTimeEPNS_6WidgetE@Base 3.2.0
 _ZN5MyGUI18ControllerEdgeHide15setRemainPixelsEi@Base 3.2.0
 _ZN5MyGUI18ControllerEdgeHide7addTimeEPNS_6WidgetEf@Base 3.2.0
 _ZN5MyGUI18ControllerEdgeHide7setTimeEf@Base 3.2.0
 _ZN5MyGUI18ControllerEdgeHideC1Ev@Base 3.2.0
 _ZN5MyGUI18ControllerEdgeHideC2Ev@Base 3.2.0
 _ZN5MyGUI18ControllerEdgeHideD0Ev@Base 3.2.0
 _ZN5MyGUI18ControllerEdgeHideD1Ev@Base 3.2.0
 _ZN5MyGUI18ControllerEdgeHideD2Ev@Base 3.2.0
 _ZN5MyGUI18ControllerPosition11prepareItemEPNS_6WidgetE@Base 3.2.0
 _ZN5MyGUI18ControllerPosition11setFunctionERKSs@Base 3.2.0
 _ZN5MyGUI18ControllerPosition11setPositionERKNS_5types6TPointIiEE@Base 3.2.0
 _ZN5MyGUI18ControllerPosition11setPropertyERKSsS2_@Base 3.2.0
 _ZN5MyGUI18ControllerPosition7addTimeEPNS_6WidgetEf@Base 3.2.0
 _ZN5MyGUI18ControllerPosition7setSizeERKNS_5types5TSizeIiEE@Base 3.2.0
 _ZN5MyGUI18ControllerPosition7setTimeEf@Base 3.2.0
 _ZN5MyGUI18ControllerPosition8setCoordERKNS_5types6TCoordIiEE@Base 3.2.0
 _ZN5MyGUI18ControllerPosition9setActionEPNS_9delegates10IDelegate4IRKNS_5types6TCoordIiEES7_RS5_fEE@Base 3.2.0
 _ZN5MyGUI18ControllerPositionC1Ev@Base 3.2.0
 _ZN5MyGUI18ControllerPositionC2Ev@Base 3.2.0
 _ZN5MyGUI18ControllerPositionD0Ev@Base 3.2.0
 _ZN5MyGUI18ControllerPositionD1Ev@Base 3.2.0
 _ZN5MyGUI18ControllerPositionD2Ev@Base 3.2.0
 _ZN5MyGUI18ResourceManualFont11loadTextureEv@Base 3.2.0
 _ZN5MyGUI18ResourceManualFont12getGlyphInfoEj@Base 3.2.0
 _ZN5MyGUI18ResourceManualFont14getTextureFontEv@Base 3.2.0
 _ZN5MyGUI18ResourceManualFont15deserializationEPNS_3xml7ElementENS_7VersionE@Base 3.2.0
 _ZN5MyGUI18ResourceManualFont16getDefaultHeightEv@Base 3.2.0
 _ZN5MyGUI18ResourceManualFontC1Ev@Base 3.2.0
 _ZN5MyGUI18ResourceManualFontC2Ev@Base 3.2.0
 _ZN5MyGUI18ResourceManualFontD0Ev@Base 3.2.0
 _ZN5MyGUI18ResourceManualFontD1Ev@Base 3.2.0
 _ZN5MyGUI18ResourceManualFontD2Ev@Base 3.2.0
 _ZN5MyGUI19ControllerFadeAlpha10setEnabledEb@Base 3.2.0
 _ZN5MyGUI19ControllerFadeAlpha11prepareItemEPNS_6WidgetE@Base 3.2.0
 _ZN5MyGUI19ControllerFadeAlpha11setPropertyERKSsS2_@Base 3.2.0
 _ZN5MyGUI19ControllerFadeAlpha7addTimeEPNS_6WidgetEf@Base 3.2.0
 _ZN5MyGUI19ControllerFadeAlpha7setCoefEf@Base 3.2.0
 _ZN5MyGUI19ControllerFadeAlpha8setAlphaEf@Base 3.2.0
 _ZN5MyGUI19ControllerFadeAlphaC1Ev@Base 3.2.0
 _ZN5MyGUI19ControllerFadeAlphaC2Ev@Base 3.2.0
 _ZN5MyGUI19ControllerFadeAlphaD0Ev@Base 3.2.0
 _ZN5MyGUI19ControllerFadeAlphaD1Ev@Base 3.2.0
 _ZN5MyGUI19ControllerFadeAlphaD2Ev@Base 3.2.0
 _ZN5MyGUI20ResourceTrueTypeFont10initialiseEv@Base 3.2.0
 _ZN5MyGUI20ResourceTrueTypeFont11createGlyphEjRKNS_9GlyphInfoERSt3mapIlS4_IjPS1_St4lessIjESaISt4pairIKjS5_EEES6_IlESaIS8_IKlSC_EEE@Base 3.2.0
 (optional=templinst)_ZN5MyGUI20ResourceTrueTypeFont11renderGlyphILb0ELb0ELb0EEEvRNS_9GlyphInfoEhhhiPhiiRiS5_S4_@Base 3.2.0
 (optional=templinst)_ZN5MyGUI20ResourceTrueTypeFont11renderGlyphILb1ELb0ELb0EEEvRNS_9GlyphInfoEhhhiPhiiRiS5_S4_@Base 3.2.0
 _ZN5MyGUI20ResourceTrueTypeFont12addCodePointEj@Base 3.2.0
 _ZN5MyGUI20ResourceTrueTypeFont12getGlyphInfoEj@Base 3.2.0
 _ZN5MyGUI20ResourceTrueTypeFont12mCursorWidthE@Base 3.2.0
 (optional=templinst)_ZN5MyGUI20ResourceTrueTypeFont12renderGlyphsILb0ELb0EEEvRKSt3mapIlS2_IjPNS_9GlyphInfoESt4lessIjESaISt4pairIKjS4_EEES5_IlESaIS7_IKlSB_EEERKP14FT_LibraryRec_RKP11FT_FaceRec_Phii@Base 3.2.0
 (optional=templinst)_ZN5MyGUI20ResourceTrueTypeFont12renderGlyphsILb0ELb1EEEvRKSt3mapIlS2_IjPNS_9GlyphInfoESt4lessIjESaISt4pairIKjS4_EEES5_IlESaIS7_IKlSB_EEERKP14FT_LibraryRec_RKP11FT_FaceRec_Phii@Base 3.2.0
 (optional=templinst)_ZN5MyGUI20ResourceTrueTypeFont12renderGlyphsILb1ELb0EEEvRKSt3mapIlS2_IjPNS_9GlyphInfoESt4lessIjESaISt4pairIKjS4_EEES5_IlESaIS7_IKlSB_EEERKP14FT_LibraryRec_RKP11FT_FaceRec_Phii@Base 3.2.0
 (optional=templinst)_ZN5MyGUI20ResourceTrueTypeFont12renderGlyphsILb1ELb1EEEvRKSt3mapIlS2_IjPNS_9GlyphInfoESt4lessIjESaISt4pairIKjS4_EEES5_IlESaIS7_IKlSB_EEERKP14FT_LibraryRec_RKP11FT_FaceRec_Phii@Base 3.2.0
 _ZN5MyGUI20ResourceTrueTypeFont13mGlyphSpacingE@Base 3.2.0
 _ZN5MyGUI20ResourceTrueTypeFont14getTextureFontEv@Base 3.2.0
 _ZN5MyGUI20ResourceTrueTypeFont14mSelectedWidthE@Base 3.2.0
 _ZN5MyGUI20ResourceTrueTypeFont15clearCodePointsEv@Base 3.2.0
 _ZN5MyGUI20ResourceTrueTypeFont15createFaceGlyphEjjiRKP11FT_FaceRec_RSt3mapIlS5_IjPNS_9GlyphInfoESt4lessIjESaISt4pairIKjS7_EEES8_IlESaISA_IKlSE_EEE@Base 3.2.0
 _ZN5MyGUI20ResourceTrueTypeFont15deserializationEPNS_3xml7ElementENS_7VersionE@Base 3.2.0
 _ZN5MyGUI20ResourceTrueTypeFont15removeCodePointEj@Base 3.2.0
 _ZN5MyGUI20ResourceTrueTypeFont16autoWrapGlyphPosEiiiRiS1_@Base 3.2.0
 _ZN5MyGUI20ResourceTrueTypeFont16getDefaultHeightEv@Base 3.2.0
 _ZN5MyGUI20ResourceTrueTypeFont17addCodePointRangeEjj@Base 3.2.0
 (optional=templinst)_ZN5MyGUI20ResourceTrueTypeFont18initialiseFreeTypeILb0ELb0EEEvv@Base 3.2.0
 (optional=templinst)_ZN5MyGUI20ResourceTrueTypeFont18initialiseFreeTypeILb0ELb1EEEvv@Base 3.2.0
 (optional=templinst)_ZN5MyGUI20ResourceTrueTypeFont18initialiseFreeTypeILb1ELb0EEEvv@Base 3.2.0
 (optional=templinst)_ZN5MyGUI20ResourceTrueTypeFont18initialiseFreeTypeILb1ELb1EEEvv@Base 3.2.0
 _ZN5MyGUI20ResourceTrueTypeFont19createFaceGlyphInfoEjiP16FT_GlyphSlotRec_@Base 3.2.0
 _ZN5MyGUI20ResourceTrueTypeFont20removeCodePointRangeEjj@Base 3.2.0
 _ZN5MyGUI20ResourceTrueTypeFont8loadFaceERKP14FT_LibraryRec_RPh@Base 3.2.0
 _ZN5MyGUI20ResourceTrueTypeFontC1Ev@Base 3.2.0
 _ZN5MyGUI20ResourceTrueTypeFontC2Ev@Base 3.2.0
 _ZN5MyGUI20ResourceTrueTypeFontD0Ev@Base 3.2.0
 _ZN5MyGUI20ResourceTrueTypeFontD1Ev@Base 3.2.0
 _ZN5MyGUI20ResourceTrueTypeFontD2Ev@Base 3.2.0
 _ZN5MyGUI21BackwardCompatibility10initialiseEv@Base 3.2.0
 _ZN5MyGUI21BackwardCompatibility13checkPropertyEPNS_6WidgetERSsS3_@Base 3.2.0
 _ZN5MyGUI21BackwardCompatibility13getSkinRenameERKSs@Base 3.2.0
 _ZN5MyGUI21BackwardCompatibility16getFactoryRenameERKSsS2_@Base 3.2.0
 _ZN5MyGUI21BackwardCompatibility16isIgnorePropertyERKSs@Base 3.2.0
 _ZN5MyGUI21BackwardCompatibility17getPropertyRenameERKSs@Base 3.2.0
 _ZN5MyGUI21BackwardCompatibility19registerWidgetTypesEv@Base 3.2.0
 _ZN5MyGUI21BackwardCompatibility8shutdownEv@Base 3.2.0
 _ZN5MyGUI21ResourceManualPointer11setPositionEPNS_8ImageBoxERKNS_5types6TPointIiEE@Base 3.2.0
 _ZN5MyGUI21ResourceManualPointer15deserializationEPNS_3xml7ElementENS_7VersionE@Base 3.2.0
 _ZN5MyGUI21ResourceManualPointer8setImageEPNS_8ImageBoxE@Base 3.2.0
 _ZN5MyGUI21ResourceManualPointerC1Ev@Base 3.2.0
 _ZN5MyGUI21ResourceManualPointerC2Ev@Base 3.2.0
 _ZN5MyGUI21ResourceManualPointerD0Ev@Base 3.2.0
 _ZN5MyGUI21ResourceManualPointerD1Ev@Base 3.2.0
 _ZN5MyGUI21ResourceManualPointerD2Ev@Base 3.2.0
 _ZN5MyGUI23ResourceImageSetPointer11setPositionEPNS_8ImageBoxERKNS_5types6TPointIiEE@Base 3.2.0
 _ZN5MyGUI23ResourceImageSetPointer15deserializationEPNS_3xml7ElementENS_7VersionE@Base 3.2.0
 _ZN5MyGUI23ResourceImageSetPointer8setImageEPNS_8ImageBoxE@Base 3.2.0
 _ZN5MyGUI23ResourceImageSetPointerC1Ev@Base 3.2.0
 _ZN5MyGUI23ResourceImageSetPointerC2Ev@Base 3.2.0
 _ZN5MyGUI23ResourceImageSetPointerD0Ev@Base 3.2.0
 _ZN5MyGUI23ResourceImageSetPointerD1Ev@Base 3.2.0
 _ZN5MyGUI23ResourceImageSetPointerD2Ev@Base 3.2.0
 _ZN5MyGUI3Any4NullE@Base 3.2.0
 _ZN5MyGUI3Any4swapERS0_@Base 3.2.0
 (optional=templinst)_ZN5MyGUI3Any6HolderIiED0Ev@Base 3.2.0
 (optional=templinst)_ZN5MyGUI3Any6HolderIiED1Ev@Base 3.2.0
 (optional=templinst)_ZN5MyGUI3Any6HolderIiED2Ev@Base 3.2.0
 (optional=templinst)_ZN5MyGUI3Any6HolderIjED0Ev@Base 3.2.0
 (optional=templinst)_ZN5MyGUI3Any6HolderIjED1Ev@Base 3.2.0
 (optional=templinst)_ZN5MyGUI3Any6HolderIjED2Ev@Base 3.2.0
 _ZN5MyGUI3AnyC1ERKNS0_8AnyEmptyE@Base 3.2.0
 _ZN5MyGUI3AnyC1ERKS0_@Base 3.2.0
 _ZN5MyGUI3AnyC1Ev@Base 3.2.0
 _ZN5MyGUI3AnyC2ERKNS0_8AnyEmptyE@Base 3.2.0
 _ZN5MyGUI3AnyC2ERKS0_@Base 3.2.0
 _ZN5MyGUI3AnyC2Ev@Base 3.2.0
 _ZN5MyGUI3AnyD1Ev@Base 3.2.0
 _ZN5MyGUI3AnyD2Ev@Base 3.2.0
 _ZN5MyGUI3AnyaSERKNS0_8AnyEmptyE@Base 3.2.0
 _ZN5MyGUI3AnyaSERKS0_@Base 3.2.0
 _ZN5MyGUI3Gui10frameEventEf@Base 3.2.0
 _ZN5MyGUI3Gui10initialiseERKSs@Base 3.2.0
 _ZN5MyGUI3Gui10initialiseERKSsS2_@Base 3.2.0
 _ZN5MyGUI3Gui11findWidgetTERKSsS2_b@Base 3.2.0
 _ZN5MyGUI3Gui11findWidgetTERKSsb@Base 3.2.0
 _ZN5MyGUI3Gui13_unlinkWidgetEPNS_6WidgetE@Base 3.2.0
 _ZN5MyGUI3Gui13createWidgetTERKSsS2_RKNS_5types6TCoordIiEENS_5AlignES2_S2_@Base 3.2.0
 _ZN5MyGUI3Gui13createWidgetTERKSsS2_iiiiNS_5AlignES2_S2_@Base 3.2.0
 _ZN5MyGUI3Gui13destroyWidgetEPNS_6WidgetE@Base 3.2.0
 _ZN5MyGUI3Gui14destroyWidgetsERKSt6vectorIPNS_6WidgetESaIS3_EE@Base 3.2.0
 _ZN5MyGUI3Gui14destroyWidgetsERNS_10EnumeratorISt6vectorIPNS_6WidgetESaIS4_EEEE@Base 3.2.0
 _ZN5MyGUI3Gui16_linkChildWidgetEPNS_6WidgetE@Base 3.2.0
 _ZN5MyGUI3Gui16baseCreateWidgetENS_11WidgetStyleERKSsS3_RKNS_5types6TCoordIiEENS_5AlignES3_S3_@Base 3.2.0
 _ZN5MyGUI3Gui17createWidgetRealTERKSsS2_RKNS_5types6TCoordIfEENS_5AlignES2_S2_@Base 3.2.0
 _ZN5MyGUI3Gui17createWidgetRealTERKSsS2_ffffNS_5AlignES2_S2_@Base 3.2.0
 _ZN5MyGUI3Gui18_unlinkChildWidgetEPNS_6WidgetE@Base 3.2.0
 _ZN5MyGUI3Gui18destroyChildWidgetEPNS_6WidgetE@Base 3.2.0
 _ZN5MyGUI3Gui19_destroyChildWidgetEPNS_6WidgetE@Base 3.2.0
 _ZN5MyGUI3Gui21destroyAllChildWidgetEv@Base 3.2.0
 _ZN5MyGUI3Gui22_destroyAllChildWidgetEv@Base 3.2.0
 _ZN5MyGUI3Gui8shutdownEv@Base 3.2.0
 _ZN5MyGUI3GuiC1Ev@Base 3.2.0
 _ZN5MyGUI3GuiC2Ev@Base 3.2.0
 _ZN5MyGUI3GuiD0Ev@Base 3.2.0
 _ZN5MyGUI3GuiD1Ev@Base 3.2.0
 _ZN5MyGUI3GuiD2Ev@Base 3.2.0
 _ZN5MyGUI3xml17ElementEnumerator4nextERKSs@Base 3.2.0
 _ZN5MyGUI3xml17ElementEnumerator4nextEv@Base 3.2.0
 _ZN5MyGUI3xml17ElementEnumerator7currentEv@Base 3.2.0
 _ZN5MyGUI3xml17ElementEnumeratorC1EN9__gnu_cxx17__normal_iteratorIPPNS0_7ElementESt6vectorIS5_SaIS5_EEEESA_@Base 3.2.0
 _ZN5MyGUI3xml17ElementEnumeratorC2EN9__gnu_cxx17__normal_iteratorIPPNS0_7ElementESt6vectorIS5_SaIS5_EEEESA_@Base 3.2.0
 _ZN5MyGUI3xml7Element10addContentERKSs@Base 3.2.0
 _ZN5MyGUI3xml7Element10createCopyEv@Base 3.2.0
 _ZN5MyGUI3xml7Element10setContentERKSs@Base 3.2.0
 _ZN5MyGUI3xml7Element11createChildERKSsS3_NS0_11ElementTypeE@Base 3.2.0
 _ZN5MyGUI3xml7Element11removeChildEPS1_@Base 3.2.0
 _ZN5MyGUI3xml7Element12addAttributeERKSsS3_@Base 3.2.0
 _ZN5MyGUI3xml7Element12setAttributeERKSsS3_@Base 3.2.0
 _ZN5MyGUI3xml7Element13findAttributeERKSs@Base 3.2.0
 _ZN5MyGUI3xml7Element13findAttributeERKSsRSs@Base 3.2.0
 _ZN5MyGUI3xml7Element15removeAttributeERKSs@Base 3.2.0
 _ZN5MyGUI3xml7Element20getElementEnumeratorEv@Base 3.2.0
 _ZN5MyGUI3xml7Element4saveERSoj@Base 3.2.0
 _ZN5MyGUI3xml7Element5clearEv@Base 3.2.0
 _ZN5MyGUI3xml7ElementC1ERKSsPS1_NS0_11ElementTypeES3_@Base 3.2.0
 _ZN5MyGUI3xml7ElementC2ERKSsPS1_NS0_11ElementTypeES3_@Base 3.2.0
 _ZN5MyGUI3xml7ElementD1Ev@Base 3.2.0
 _ZN5MyGUI3xml7ElementD2Ev@Base 3.2.0
 _ZN5MyGUI3xml8Document10createRootERKSs@Base 3.2.0
 _ZN5MyGUI3xml8Document12getLastErrorEv@Base 3.2.0
 _ZN5MyGUI3xml8Document14clearLastErrorEv@Base 3.2.0
 _ZN5MyGUI3xml8Document16clearDeclarationEv@Base 3.2.0
 _ZN5MyGUI3xml8Document16setLastFileErrorERKSbIwSt11char_traitsIwESaIwEE@Base 3.2.0
 _ZN5MyGUI3xml8Document16setLastFileErrorERKSs@Base 3.2.0
 _ZN5MyGUI3xml8Document17createDeclarationERKSsS3_@Base 3.2.0
 _ZN5MyGUI3xml8Document4findERKSscj@Base 3.2.0
 _ZN5MyGUI3xml8Document4openEPNS_11IDataStreamE@Base 3.2.0
 _ZN5MyGUI3xml8Document4openERKNS_7UStringE@Base 3.2.0
 _ZN5MyGUI3xml8Document4openERKSbIwSt11char_traitsIwESaIwEE@Base 3.2.0
 _ZN5MyGUI3xml8Document4openERKSs@Base 3.2.0
 _ZN5MyGUI3xml8Document4openERSi@Base 3.2.0
 _ZN5MyGUI3xml8Document4saveERKNS_7UStringE@Base 3.2.0
 _ZN5MyGUI3xml8Document4saveERKSbIwSt11char_traitsIwESaIwEE@Base 3.2.0
 _ZN5MyGUI3xml8Document4saveERKSs@Base 3.2.0
 _ZN5MyGUI3xml8Document4saveERSo@Base 3.2.0
 _ZN5MyGUI3xml8Document5clearEv@Base 3.2.0
 _ZN5MyGUI3xml8Document8parseTagERPNS0_7ElementESs@Base 3.2.0
 _ZN5MyGUI3xml8Document9checkPairERSsS2_@Base 3.2.0
 _ZN5MyGUI3xml8Document9clearRootEv@Base 3.2.0
 _ZN5MyGUI3xml8Document9parseLineERSsRPNS0_7ElementE@Base 3.2.0
 _ZN5MyGUI3xml8DocumentC1Ev@Base 3.2.0
 _ZN5MyGUI3xml8DocumentC2Ev@Base 3.2.0
 _ZN5MyGUI3xml8DocumentD1Ev@Base 3.2.0
 _ZN5MyGUI3xml8DocumentD2Ev@Base 3.2.0
 _ZN5MyGUI5Timer15getMillisecondsEv@Base 3.2.0
 _ZN5MyGUI5Timer22getCurrentMillisecondsEv@Base 3.2.0
 _ZN5MyGUI5Timer5resetEv@Base 3.2.0
 _ZN5MyGUI5TimerC1Ev@Base 3.2.0
 _ZN5MyGUI5TimerC2Ev@Base 3.2.0
 _ZN5MyGUI6Button12_getImageBoxEv@Base 3.2.0
 _ZN5MyGUI6Button12setImageNameERKSs@Base 3.2.0
 _ZN5MyGUI6Button12setModeImageEb@Base 3.2.0
 _ZN5MyGUI6Button13setImageGroupERKSs@Base 3.2.0
 _ZN5MyGUI6Button14_setMouseFocusEb@Base 3.2.0
 _ZN5MyGUI6Button15onMouseSetFocusEPNS_6WidgetE@Base 3.2.0
 _ZN5MyGUI6Button16baseUpdateEnableEv@Base 3.2.0
 _ZN5MyGUI6Button16onMouseLostFocusEPNS_6WidgetE@Base 3.2.0
 _ZN5MyGUI6Button16setImageResourceERKSs@Base 3.2.0
 _ZN5MyGUI6Button16setStateSelectedEb@Base 3.2.0
 _ZN5MyGUI6Button16shutdownOverrideEv@Base 3.2.0
 _ZN5MyGUI6Button17updateButtonStateEv@Base 3.2.0
 _ZN5MyGUI6Button18initialiseOverrideEv@Base 3.2.0
 _ZN5MyGUI6Button19setPropertyOverrideERKSsS2_@Base 3.2.0
 _ZN5MyGUI6Button20onMouseButtonPressedEiiNS_11MouseButtonE@Base 3.2.0
 _ZN5MyGUI6Button21onMouseButtonReleasedEiiNS_11MouseButtonE@Base 3.2.0
 _ZN5MyGUI6Button9_setStateERKSs@Base 3.2.0
 _ZN5MyGUI6ButtonC1Ev@Base 3.2.0
 _ZN5MyGUI6ButtonC2Ev@Base 3.2.0
 _ZN5MyGUI6ButtonD0Ev@Base 3.2.0
 _ZN5MyGUI6ButtonD1Ev@Base 3.2.0
 _ZN5MyGUI6ButtonD2Ev@Base 3.2.0
 _ZN5MyGUI6Canvas11frameAdviseEb@Base 3.2.0
 _ZN5MyGUI6Canvas12frameEnteredEf@Base 3.2.0
 _ZN5MyGUI6Canvas13createTextureENS0_17TextureResizeModeENS_12TextureUsageENS_11PixelFormatE@Base 3.2.0
 _ZN5MyGUI6Canvas13createTextureERKNS_5types5TSizeIiEENS0_17TextureResizeModeENS_12TextureUsageENS_11PixelFormatE@Base 3.2.0
 _ZN5MyGUI6Canvas13createTextureEiiNS0_17TextureResizeModeENS_12TextureUsageENS_11PixelFormatE@Base 3.2.0
 _ZN5MyGUI6Canvas13setResizeModeENS0_17TextureResizeModeE@Base 3.2.0
 _ZN5MyGUI6Canvas13updateTextureEv@Base 3.2.0
 _ZN5MyGUI6Canvas14destroyTextureEv@Base 3.2.0
 _ZN5MyGUI6Canvas15_destroyTextureEb@Base 3.2.0
 _ZN5MyGUI6Canvas16shutdownOverrideEv@Base 3.2.0
 _ZN5MyGUI6Canvas17setTextureManagedEb@Base 3.2.0
 _ZN5MyGUI6Canvas17textureInvalidateEPNS_8ITextureE@Base 3.2.0
 _ZN5MyGUI6Canvas18createExactTextureEiiNS_12TextureUsageENS_11PixelFormatE@Base 3.2.0
 _ZN5MyGUI6Canvas18initialiseOverrideEv@Base 3.2.0
 _ZN5MyGUI6Canvas22getDefaultTextureUsageEv@Base 3.2.0
 _ZN5MyGUI6Canvas23getDefaultTextureFormatEv@Base 3.2.0
 _ZN5MyGUI6Canvas4lockENS_12TextureUsageE@Base 3.2.0
 _ZN5MyGUI6Canvas6resizeERKNS_5types5TSizeIiEE@Base 3.2.0
 _ZN5MyGUI6Canvas6unlockEv@Base 3.2.0
 _ZN5MyGUI6Canvas7setSizeERKNS_5types5TSizeIiEE@Base 3.2.0
 _ZN5MyGUI6Canvas7setSizeEii@Base 3.2.0
 _ZN5MyGUI6Canvas8setCoordERKNS_5types6TCoordIiEE@Base 3.2.0
 _ZN5MyGUI6Canvas8setCoordEiiii@Base 3.2.0
 _ZN5MyGUI6Canvas9_setUVSetERKNS_5types5TRectIfEE@Base 3.2.0
 _ZN5MyGUI6Canvas9correctUVEv@Base 3.2.0
 _ZN5MyGUI6CanvasC1Ev@Base 3.2.0
 _ZN5MyGUI6CanvasC2Ev@Base 3.2.0
 _ZN5MyGUI6CanvasD0Ev@Base 3.2.0
 _ZN5MyGUI6CanvasD1Ev@Base 3.2.0
 _ZN5MyGUI6CanvasD2Ev@Base 3.2.0
 _ZN5MyGUI6Colour17operatorShiftLeftERSoRKS0_@Base 3.2.0
 _ZN5MyGUI6Colour18operatorShiftRightERSiRS0_@Base 3.2.0
 _ZN5MyGUI6Colour3RedE@Base 3.2.0
 _ZN5MyGUI6Colour3setEffff@Base 3.2.0
 _ZN5MyGUI6Colour4BlueE@Base 3.2.0
 _ZN5MyGUI6Colour4ZeroE@Base 3.2.0
 _ZN5MyGUI6Colour5BlackE@Base 3.2.0
 _ZN5MyGUI6Colour5GreenE@Base 3.2.0
 _ZN5MyGUI6Colour5WhiteE@Base 3.2.0
 _ZN5MyGUI6Colour5clearEv@Base 3.2.0
 _ZN5MyGUI6Colour5parseERKSs@Base 3.2.0
 _ZN5MyGUI6ColourC1ERKSs@Base 3.2.0
 _ZN5MyGUI6ColourC1Effff@Base 3.2.0
 _ZN5MyGUI6ColourC1Ev@Base 3.2.0
 _ZN5MyGUI6ColourC2ERKSs@Base 3.2.0
 _ZN5MyGUI6ColourC2Effff@Base 3.2.0
 _ZN5MyGUI6ColourC2Ev@Base 3.2.0
 _ZN5MyGUI6ColouraSERKS0_@Base 3.2.0
 _ZN5MyGUI6DynLib4loadEv@Base 3.2.0
 _ZN5MyGUI6DynLib6unloadEv@Base 3.2.0
 _ZN5MyGUI6DynLibC1ERKSs@Base 3.2.0
 _ZN5MyGUI6DynLibC2ERKSs@Base 3.2.0
 _ZN5MyGUI6DynLibD1Ev@Base 3.2.0
 _ZN5MyGUI6DynLibD2Ev@Base 3.2.0
 _ZN5MyGUI6Widget10_forcePickEPS0_@Base 3.2.0
 _ZN5MyGUI6Widget10findWidgetERKSs@Base 3.2.0
 _ZN5MyGUI6Widget10getChildAtEj@Base 3.2.0
 _ZN5MyGUI6Widget10setEnabledEb@Base 3.2.0
 _ZN5MyGUI6Widget10setVisibleEb@Base 3.2.0
 _ZN5MyGUI6Widget11_initialiseENS_11WidgetStyleERKNS_5types6TCoordIiEERKSsPS0_PNS_17ICroppedRectangleES8_@Base 3.2.0
 _ZN5MyGUI6Widget11_updateViewEv@Base 3.2.0
 _ZN5MyGUI6Widget11findWidgetsERKSsRSt6vectorIPS0_SaIS4_EE@Base 3.2.0
 _ZN5MyGUI6Widget11setPositionERKNS_5types6TPointIiEE@Base 3.2.0
 _ZN5MyGUI6Widget11setPositionEii@Base 3.2.0
 _ZN5MyGUI6Widget11setPropertyERKSsS2_@Base 3.2.0
 _ZN5MyGUI6Widget11setRealSizeERKNS_5types5TSizeIfEE@Base 3.2.0
 _ZN5MyGUI6Widget11setRealSizeEff@Base 3.2.0
 _ZN5MyGUI6Widget12_updateAlphaEv@Base 3.2.0
 _ZN5MyGUI6Widget12setRealCoordERKNS_5types6TCoordIfEE@Base 3.2.0
 _ZN5MyGUI6Widget12setRealCoordEffff@Base 3.2.0
 _ZN5MyGUI6Widget13_getContainerEv@Base 3.2.0
 _ZN5MyGUI6Widget13_getItemIndexEPS0_@Base 3.2.0
 _ZN5MyGUI6Widget13_setContainerEPS0_@Base 3.2.0
 _ZN5MyGUI6Widget13createWidgetTENS_11WidgetStyleERKSsS3_RKNS_5types6TCoordIiEENS_5AlignES3_S3_@Base 3.2.0
 _ZN5MyGUI6Widget13createWidgetTERKSsS2_RKNS_5types6TCoordIiEENS_5AlignES2_@Base 3.2.0
 _ZN5MyGUI6Widget13createWidgetTERKSsS2_iiiiNS_5AlignES2_@Base 3.2.0
 _ZN5MyGUI6Widget13getChildCountEv@Base 3.2.0
 _ZN5MyGUI6Widget14_updateEnabledEv@Base 3.2.0
 _ZN5MyGUI6Widget14_updateVisibleEv@Base 3.2.0
 _ZN5MyGUI6Widget14attachToWidgetEPS0_NS_11WidgetStyleERKSs@Base 3.2.0
 _ZN5MyGUI6Widget14getClientCoordEv@Base 3.2.0
 _ZN5MyGUI6Widget14setWidgetStyleENS_11WidgetStyleERKSs@Base 3.2.0
 _ZN5MyGUI6Widget15_resetContainerEb@Base 3.2.0
 _ZN5MyGUI6Widget15_setWidgetStateERKSs@Base 3.2.0
 _ZN5MyGUI6Widget15getClientWidgetEv@Base 3.2.0
 _ZN5MyGUI6Widget15onWidgetCreatedEPS0_@Base 3.2.0
 _ZN5MyGUI6Widget15onWidgetDestroyEPS0_@Base 3.2.0
 _ZN5MyGUI6Widget15setRealPositionERKNS_5types6TPointIfEE@Base 3.2.0
 _ZN5MyGUI6Widget15setRealPositionEff@Base 3.2.0
 _ZN5MyGUI6Widget15setSkinPropertyEPNS_12ResourceSkinE@Base 3.2.0
 _ZN5MyGUI6Widget15setWidgetClientEPS0_@Base 3.2.0
 _ZN5MyGUI6Widget16_linkChildWidgetEPS0_@Base 3.2.0
 _ZN5MyGUI6Widget16baseCreateWidgetENS_11WidgetStyleERKSsS3_RKNS_5types6TCoordIiEENS_5AlignES3_S3_b@Base 3.2.0
 _ZN5MyGUI6Widget16baseUpdateEnableEv@Base 3.2.0
 _ZN5MyGUI6Widget16changeWidgetSkinERKSs@Base 3.2.0
 _ZN5MyGUI6Widget16detachFromWidgetERKSs@Base 3.2.0
 _ZN5MyGUI6Widget16setEnabledSilentEb@Base 3.2.0
 _ZN5MyGUI6Widget16setInheritsAlphaEb@Base 3.2.0
 _ZN5MyGUI6Widget16shutdownOverrideEv@Base 3.2.0
 _ZN5MyGUI6Widget17_createSkinWidgetENS_11WidgetStyleERKSsS3_RKNS_5types6TCoordIiEENS_5AlignES3_S3_@Base 3.2.0
 _ZN5MyGUI6Widget17createWidgetRealTERKSsS2_RKNS_5types6TCoordIfEENS_5AlignES2_@Base 3.2.0
 _ZN5MyGUI6Widget17createWidgetRealTERKSsS2_ffffNS_5AlignES2_@Base 3.2.0
 _ZN5MyGUI6Widget17destroySkinWidgetEPS0_@Base 3.2.0
 _ZN5MyGUI6Widget18_getContainerIndexERKNS_5types6TPointIiEE@Base 3.2.0
 _ZN5MyGUI6Widget18_unlinkChildWidgetEPS0_@Base 3.2.0
 _ZN5MyGUI6Widget18initialiseOverrideEv@Base 3.2.0
 _ZN5MyGUI6Widget19_destroyChildWidgetEPS0_@Base 3.2.0
 _ZN5MyGUI6Widget19resizeLayerItemViewERKNS_5types5TSizeIiEES5_@Base 3.2.0
 _ZN5MyGUI6Widget19setPropertyOverrideERKSsS2_@Base 3.2.0
 _ZN5MyGUI6Widget20_updateAbsolutePointEv@Base 3.2.0
 _ZN5MyGUI6Widget20getSkinWidgetsByNameERKSs@Base 3.2.0
 _ZN5MyGUI6Widget22_destroyAllChildWidgetEv@Base 3.2.0
 _ZN5MyGUI6Widget22shutdownWidgetSkinBaseEv@Base 3.2.0
 _ZN5MyGUI6Widget24initialiseWidgetSkinBaseEPNS_12ResourceSkinEPNS_14ResourceLayoutE@Base 3.2.0
 _ZN5MyGUI6Widget7setSizeERKNS_5types5TSizeIiEE@Base 3.2.0
 _ZN5MyGUI6Widget7setSizeEii@Base 3.2.0
 _ZN5MyGUI6Widget8setAlignENS_5AlignE@Base 3.2.0
 _ZN5MyGUI6Widget8setAlphaEf@Base 3.2.0
 _ZN5MyGUI6Widget8setCoordERKNS_5types6TCoordIiEE@Base 3.2.0
 _ZN5MyGUI6Widget8setCoordEiiii@Base 3.2.0
 _ZN5MyGUI6Widget9_setAlignERKNS_5types5TSizeIiEES5_@Base 3.2.0
 _ZN5MyGUI6Widget9_shutdownEv@Base 3.2.0
 _ZN5MyGUI6Widget9setColourERKNS_6ColourE@Base 3.2.0
 _ZN5MyGUI6WidgetC1Ev@Base 3.2.0
 _ZN5MyGUI6WidgetC2Ev@Base 3.2.0
 _ZN5MyGUI6WidgetD0Ev@Base 3.2.0
 _ZN5MyGUI6WidgetD1Ev@Base 3.2.0
 _ZN5MyGUI6WidgetD2Ev@Base 3.2.0
 _ZN5MyGUI6Window10getCaptionEv@Base 3.2.0
 _ZN5MyGUI6Window10getMaxSizeEv@Base 3.2.0
 _ZN5MyGUI6Window10getMinSizeEv@Base 3.2.0
 _ZN5MyGUI6Window10setCaptionERKNS_7UStringE@Base 3.2.0
 _ZN5MyGUI6Window10setMaxSizeERKNS_5types5TSizeIiEE@Base 3.2.0
 _ZN5MyGUI6Window10setMaxSizeEii@Base 3.2.0
 _ZN5MyGUI6Window10setMinSizeERKNS_5types5TSizeIiEE@Base 3.2.0
 _ZN5MyGUI6Window10setMinSizeEii@Base 3.2.0
 _ZN5MyGUI6Window10setMovableEb@Base 3.2.0
 _ZN5MyGUI6Window10setVisibleEb@Base 3.2.0
 _ZN5MyGUI6Window11animateStopEPNS_6WidgetE@Base 3.2.0
 _ZN5MyGUI6Window11onMouseDragEiiNS_11MouseButtonE@Base 3.2.0
 _ZN5MyGUI6Window11setPositionERKNS_5types6TPointIiEE@Base 3.2.0
 _ZN5MyGUI6Window11setPositionEii@Base 3.2.0
 _ZN5MyGUI6Window11updateAlphaEv@Base 3.2.0
 _ZN5MyGUI6Window12setAutoAlphaEb@Base 3.2.0
 _ZN5MyGUI6Window13destroySmoothEv@Base 3.2.0
 _ZN5MyGUI6Window15_getActionScaleEPNS_6WidgetE@Base 3.2.0
 _ZN5MyGUI6Window15getSnappedCoordERNS_5types6TCoordIiEE@Base 3.2.0
 _ZN5MyGUI6Window15notifyMouseDragEPNS_6WidgetEiiNS_11MouseButtonE@Base 3.2.0
 _ZN5MyGUI6Window16getCaptionWidgetEv@Base 3.2.0
 _ZN5MyGUI6Window16setVisibleSmoothEb@Base 3.2.0
 _ZN5MyGUI6Window16shutdownOverrideEv@Base 3.2.0
 _ZN5MyGUI6Window18initialiseOverrideEv@Base 3.2.0
 _ZN5MyGUI6Window18notifyMousePressedEPNS_6WidgetEiiNS_11MouseButtonE@Base 3.2.0
 _ZN5MyGUI6Window19notifyMouseReleasedEPNS_6WidgetEiiNS_11MouseButtonE@Base 3.2.0
 _ZN5MyGUI6Window19setPropertyOverrideERKSsS2_@Base 3.2.0
 _ZN5MyGUI6Window20onKeyChangeRootFocusEb@Base 3.2.0
 _ZN5MyGUI6Window20onMouseButtonPressedEiiNS_11MouseButtonE@Base 3.2.0
 _ZN5MyGUI6Window21onMouseButtonReleasedEiiNS_11MouseButtonE@Base 3.2.0
 _ZN5MyGUI6Window22onMouseChangeRootFocusEb@Base 3.2.0
 _ZN5MyGUI6Window24notifyPressedButtonEventEPNS_6WidgetE@Base 3.2.0
 _ZN5MyGUI6Window25createControllerFadeAlphaEffb@Base 3.2.0
 _ZN5MyGUI6Window7setSizeERKNS_5types5TSizeIiEE@Base 3.2.0
 _ZN5MyGUI6Window7setSizeEii@Base 3.2.0
 _ZN5MyGUI6Window7setSnapEb@Base 3.2.0
 _ZN5MyGUI6Window8setCoordERKNS_5types6TCoordIiEE@Base 3.2.0
 _ZN5MyGUI6Window8setCoordEiiii@Base 3.2.0
 _ZN5MyGUI6WindowC1Ev@Base 3.2.0
 _ZN5MyGUI6WindowC2Ev@Base 3.2.0
 _ZN5MyGUI6WindowD0Ev@Base 3.2.0
 _ZN5MyGUI6WindowD1Ev@Base 3.2.0
 _ZN5MyGUI6WindowD2Ev@Base 3.2.0
 _ZN5MyGUI6action16actionWidgetHideEPNS_6WidgetE@Base 3.2.0
 _ZN5MyGUI6action16actionWidgetShowEPNS_6WidgetE@Base 3.2.0
 _ZN5MyGUI6action18linearMoveFunctionERKNS_5types6TCoordIiEES5_RS3_f@Base 3.2.0
 _ZN5MyGUI6action19actionWidgetDestroyEPNS_6WidgetE@Base 3.2.0
 _ZN5MyGUI6action22inertionalMoveFunctionERKNS_5types6TCoordIiEES5_RS3_f@Base 3.2.0
 _ZN5MyGUI7EditBox10commandCutEv@Base 3.2.0
 _ZN5MyGUI7EditBox10getCaptionEv@Base 3.2.0
 _ZN5MyGUI7EditBox10insertTextERKNS_7UStringEj@Base 3.2.0
 _ZN5MyGUI7EditBox10insertTextERKNS_7UStringEjb@Base 3.2.0
 _ZN5MyGUI7EditBox10setCaptionERKNS_7UStringE@Base 3.2.0
 _ZN5MyGUI7EditBox10updateViewEv@Base 3.2.0
 _ZN5MyGUI7EditBox11commandCopyEv@Base 3.2.0
 _ZN5MyGUI7EditBox11commandPastEv@Base 3.2.0
 _ZN5MyGUI7EditBox11commandRedoEv@Base 3.2.0
 _ZN5MyGUI7EditBox11commandUndoEv@Base 3.2.0
 _ZN5MyGUI7EditBox11getOnlyTextEv@Base 3.2.0
 _ZN5MyGUI7EditBox11getTextSizeEv@Base 3.2.0
 _ZN5MyGUI7EditBox11getViewSizeEv@Base 3.2.0
 _ZN5MyGUI7EditBox11onMouseDragEiiNS_11MouseButtonE@Base 3.2.0
 _ZN5MyGUI7EditBox11resetSelectEv@Base 3.2.0
 _ZN5MyGUI7EditBox11setFontNameERKSs@Base 3.2.0
 _ZN5MyGUI7EditBox11setOnlyTextERKNS_7UStringE@Base 3.2.0
 _ZN5MyGUI7EditBox11setPositionERKNS_5types6TPointIiEE@Base 3.2.0
 _ZN5MyGUI7EditBox11setPositionEii@Base 3.2.0
 _ZN5MyGUI7EditBox12commandMergeEv@Base 3.2.0
 _ZN5MyGUI7EditBox12frameEnteredEf@Base 3.2.0
 _ZN5MyGUI7EditBox12setTextAlignENS_5AlignE@Base 3.2.0
 _ZN5MyGUI7EditBox13getRealStringEv@Base 3.2.0
 _ZN5MyGUI7EditBox13getTextRegionEv@Base 3.2.0
 _ZN5MyGUI7EditBox13onKeySetFocusEPNS_6WidgetE@Base 3.2.0
 _ZN5MyGUI7EditBox13saveInHistoryEPSt6vectorINS_15TextCommandInfoESaIS2_EE@Base 3.2.0
 _ZN5MyGUI7EditBox13setEditStaticEb@Base 3.2.0
 _ZN5MyGUI7EditBox13setFontHeightEi@Base 3.2.0
 _ZN5MyGUI7EditBox13setRealStringERKNS_7UStringE@Base 3.2.0
 _ZN5MyGUI7EditBox13setTextColourERKNS_6ColourE@Base 3.2.0
 _ZN5MyGUI7EditBox13setTextCursorEj@Base 3.2.0
 _ZN5MyGUI7EditBox13setTextShadowEb@Base 3.2.0
 _ZN5MyGUI7EditBox14_setTextColourEjjRKNS_6ColourEb@Base 3.2.0
 _ZN5MyGUI7EditBox14getContentSizeEv@Base 3.2.0
 _ZN5MyGUI7EditBox14getHScrollPageEv@Base 3.2.0
 _ZN5MyGUI7EditBox14getVScrollPageEv@Base 3.2.0
 _ZN5MyGUI7EditBox14onKeyLostFocusEPNS_6WidgetE@Base 3.2.0
 _ZN5MyGUI7EditBox14setTabPrintingEb@Base 3.2.0
 _ZN5MyGUI7EditBox15commandPositionEjjjPSt6vectorINS_15TextCommandInfoESaIS2_EE@Base 3.2.0
 _ZN5MyGUI7EditBox15getContentAlignEv@Base 3.2.0
 _ZN5MyGUI7EditBox15getTextIntervalEjj@Base 3.2.0
 _ZN5MyGUI7EditBox15notifyMouseDragEPNS_6WidgetEiiNS_11MouseButtonE@Base 3.2.0
 _ZN5MyGUI7EditBox15setEditPasswordEb@Base 3.2.0
 _ZN5MyGUI7EditBox15setEditReadOnlyEb@Base 3.2.0
 _ZN5MyGUI7EditBox15setEditWordWrapEb@Base 3.2.0
 _ZN5MyGUI7EditBox15setPasswordCharERKNS_7UStringE@Base 3.2.0
 _ZN5MyGUI7EditBox15setPasswordCharEj@Base 3.2.0
 _ZN5MyGUI7EditBox15updateEditStateEv@Base 3.2.0
 _ZN5MyGUI7EditBox16commandResetRedoEv@Base 3.2.0
 _ZN5MyGUI7EditBox16deleteTextSelectEb@Base 3.2.0
 _ZN5MyGUI7EditBox16getTextSelectionEv@Base 3.2.0
 _ZN5MyGUI7EditBox16notifyMouseWheelEPNS_6WidgetEi@Base 3.2.0
 _ZN5MyGUI7EditBox16setEditMultiLineEb@Base 3.2.0
 _ZN5MyGUI7EditBox16setMaxTextLengthEj@Base 3.2.0
 _ZN5MyGUI7EditBox16setTextSelectionEjj@Base 3.2.0
 _ZN5MyGUI7EditBox16shutdownOverrideEv@Base 3.2.0
 _ZN5MyGUI7EditBox16updateSelectTextEv@Base 3.2.0
 _ZN5MyGUI7EditBox17getInvertSelectedEv@Base 3.2.0
 _ZN5MyGUI7EditBox17setInvertSelectedEb@Base 3.2.0
 _ZN5MyGUI7EditBox17setVisibleHScrollEb@Base 3.2.0
 _ZN5MyGUI7EditBox17setVisibleVScrollEb@Base 3.2.0
 _ZN5MyGUI7EditBox18getContentPositionEv@Base 3.2.0
 _ZN5MyGUI7EditBox18getHScrollPositionEv@Base 3.2.0
 _ZN5MyGUI7EditBox18getVScrollPositionEv@Base 3.2.0
 _ZN5MyGUI7EditBox18initialiseOverrideEv@Base 3.2.0
 _ZN5MyGUI7EditBox18notifyMousePressedEPNS_6WidgetEiiNS_11MouseButtonE@Base 3.2.0
 _ZN5MyGUI7EditBox18onKeyButtonPressedENS_7KeyCodeEj@Base 3.2.0
 _ZN5MyGUI7EditBox18setContentPositionERKNS_5types6TPointIiEE@Base 3.2.0
 _ZN5MyGUI7EditBox18setHScrollPositionEj@Base 3.2.0
 _ZN5MyGUI7EditBox18setVScrollPositionEj@Base 3.2.0
 _ZN5MyGUI7EditBox19commandResetHistoryEv@Base 3.2.0
 _ZN5MyGUI7EditBox19deleteTextSelectionEv@Base 3.2.0
 _ZN5MyGUI7EditBox19notifyMouseReleasedEPNS_6WidgetEiiNS_11MouseButtonE@Base 3.2.0
 _ZN5MyGUI7EditBox19notifyMouseSetFocusEPNS_6WidgetES2_@Base 3.2.0
 _ZN5MyGUI7EditBox19setPropertyOverrideERKSsS2_@Base 3.2.0
 _ZN5MyGUI7EditBox19setTextSelectColourERKNS_6ColourEb@Base 3.2.0
 _ZN5MyGUI7EditBox19setTextShadowColourERKNS_6ColourE@Base 3.2.0
 _ZN5MyGUI7EditBox20notifyMouseLostFocusEPNS_6WidgetES2_@Base 3.2.0
 _ZN5MyGUI7EditBox20setOverflowToTheLeftEb@Base 3.2.0
 _ZN5MyGUI7EditBox20updateCursorPositionEv@Base 3.2.0
 _ZN5MyGUI7EditBox20updateViewWithCursorEv@Base 3.2.0
 _ZN5MyGUI7EditBox21setTextIntervalColourEjjRKNS_6ColourE@Base 3.2.0
 _ZN5MyGUI7EditBox22setTextSelectionColourERKNS_6ColourE@Base 3.2.0
 _ZN5MyGUI7EditBox26notifyScrollChangePositionEPNS_9ScrollBarEj@Base 3.2.0
 _ZN5MyGUI7EditBox28notifyMouseButtonDoubleClickEPNS_6WidgetE@Base 3.2.0
 _ZN5MyGUI7EditBox7addTextERKNS_7UStringE@Base 3.2.0
 _ZN5MyGUI7EditBox7setSizeERKNS_5types5TSizeIiEE@Base 3.2.0
 _ZN5MyGUI7EditBox7setSizeEii@Base 3.2.0
 _ZN5MyGUI7EditBox7setTextERKNS_7UStringEb@Base 3.2.0
 _ZN5MyGUI7EditBox8setCoordERKNS_5types6TCoordIiEE@Base 3.2.0
 _ZN5MyGUI7EditBox8setCoordEiiii@Base 3.2.0
 _ZN5MyGUI7EditBox9eraseTextEjj@Base 3.2.0
 _ZN5MyGUI7EditBox9eraseTextEjjb@Base 3.2.0
 _ZN5MyGUI7EditBox9eraseViewEv@Base 3.2.0
 _ZN5MyGUI7EditBoxC1Ev@Base 3.2.0
 _ZN5MyGUI7EditBoxC2Ev@Base 3.2.0
 _ZN5MyGUI7EditBoxD0Ev@Base 3.2.0
 _ZN5MyGUI7EditBoxD1Ev@Base 3.2.0
 _ZN5MyGUI7EditBoxD2Ev@Base 3.2.0
 _ZN5MyGUI7HScrollD0Ev@Base 3.2.0
 _ZN5MyGUI7HScrollD1Ev@Base 3.2.0
 _ZN5MyGUI7HScrollD2Ev@Base 3.2.0
 (optional=templinst)_ZN5MyGUI7IObject8castTypeINS_10ISubWidgetEEEPT_b@Base 3.2.0
 (optional=templinst)_ZN5MyGUI7IObject8castTypeINS_10TabControlEEEPT_b@Base 3.2.0
 (optional=templinst)_ZN5MyGUI7IObject8castTypeINS_11MenuControlEEEPT_b@Base 3.2.0
 (optional=templinst)_ZN5MyGUI7IObject8castTypeINS_12MultiListBoxEEEPT_b@Base 3.2.0
 (optional=templinst)_ZN5MyGUI7IObject8castTypeINS_12ResourceSkinEEEPT_b@Base 3.2.0
 (optional=templinst)_ZN5MyGUI7IObject8castTypeINS_13MultiListItemEEEPT_b@Base 3.2.0
 (optional=templinst)_ZN5MyGUI7IObject8castTypeINS_14ControllerItemEEEPT_b@Base 3.2.0
 (optional=templinst)_ZN5MyGUI7IObject8castTypeINS_14ISubWidgetRectEEEPT_b@Base 3.2.0
 (optional=templinst)_ZN5MyGUI7IObject8castTypeINS_14ISubWidgetTextEEEPT_b@Base 3.2.0
 (optional=templinst)_ZN5MyGUI7IObject8castTypeINS_16ResourceImageSetEEEPT_b@Base 3.2.0
 (optional=templinst)_ZN5MyGUI7IObject8castTypeINS_16SubSkinStateInfoEEEPT_b@Base 3.2.0
 (optional=templinst)_ZN5MyGUI7IObject8castTypeINS_17EditTextStateInfoEEEPT_b@Base 3.2.0
 (optional=templinst)_ZN5MyGUI7IObject8castTypeINS_17TileRectStateInfoEEEPT_b@Base 3.2.0
 (optional=templinst)_ZN5MyGUI7IObject8castTypeINS_19ControllerFadeAlphaEEEPT_b@Base 3.2.0
 (optional=templinst)_ZN5MyGUI7IObject8castTypeINS_6ButtonEEEPT_b@Base 3.2.0
 (optional=templinst)_ZN5MyGUI7IObject8castTypeINS_6WidgetEEEPT_b@Base 3.2.0
 (optional=templinst)_ZN5MyGUI7IObject8castTypeINS_7TabItemEEEPT_b@Base 3.2.0
 (optional=templinst)_ZN5MyGUI7IObject8castTypeINS_8IPointerEEEPT_b@Base 3.2.0
 (optional=templinst)_ZN5MyGUI7IObject8castTypeINS_8ImageBoxEEEPT_b@Base 3.2.0
 (optional=templinst)_ZN5MyGUI7IObject8castTypeINS_8MenuItemEEEPT_b@Base 3.2.0
 (optional=templinst)_ZN5MyGUI7IObject8castTypeINS_9ScrollBarEEEPT_b@Base 3.2.0
 _ZN5MyGUI7ItemBox11getViewSizeEv@Base 3.2.0
 _ZN5MyGUI7ItemBox11onMouseDragEiiNS_11MouseButtonE@Base 3.2.0
 _ZN5MyGUI7ItemBox11setPositionERKNS_5types6TPointIiEE@Base 3.2.0
 _ZN5MyGUI7ItemBox11setPositionEii@Base 3.2.0
 _ZN5MyGUI7ItemBox12eraseContentEv@Base 3.2.0
 _ZN5MyGUI7ItemBox12insertItemAtEjNS_3AnyE@Base 3.2.0
 _ZN5MyGUI7ItemBox12onMouseWheelEi@Base 3.2.0
 _ZN5MyGUI7ItemBox12redrawItemAtEj@Base 3.2.0
 _ZN5MyGUI7ItemBox12removeItemAtEj@Base 3.2.0
 _ZN5MyGUI7ItemBox13_getItemIndexEPNS_6WidgetE@Base 3.2.0
 _ZN5MyGUI7ItemBox13getItemWidgetEj@Base 3.2.0
 _ZN5MyGUI7ItemBox13getWidgetDragEv@Base 3.2.0
 _ZN5MyGUI7ItemBox13onKeySetFocusEPNS_6WidgetE@Base 3.2.0
 _ZN5MyGUI7ItemBox13setItemDataAtEjNS_3AnyE@Base 3.2.0
 _ZN5MyGUI7ItemBox13updateMetricsEv@Base 3.2.0
 _ZN5MyGUI7ItemBox14getContentSizeEv@Base 3.2.0
 _ZN5MyGUI7ItemBox14getHScrollPageEv@Base 3.2.0
 _ZN5MyGUI7ItemBox14getVScrollPageEv@Base 3.2.0
 _ZN5MyGUI7ItemBox14onKeyLostFocusEPNS_6WidgetE@Base 3.2.0
 _ZN5MyGUI7ItemBox14redrawAllItemsEv@Base 3.2.0
 _ZN5MyGUI7ItemBox14removeAllItemsEv@Base 3.2.0
 _ZN5MyGUI7ItemBox15_resetContainerEb@Base 3.2.0
 _ZN5MyGUI7ItemBox15clearItemDataAtEj@Base 3.2.0
 _ZN5MyGUI7ItemBox15getContentAlignEv@Base 3.2.0
 _ZN5MyGUI7ItemBox15notifyMouseDragEPNS_6WidgetEiiNS_11MouseButtonE@Base 3.2.0
 _ZN5MyGUI7ItemBox15removeDropItemsEv@Base 3.2.0
 _ZN5MyGUI7ItemBox15requestItemSizeEv@Base 3.2.0
 _ZN5MyGUI7ItemBox15updateDropItemsEv@Base 3.2.0
 _ZN5MyGUI7ItemBox16_getClientWidgetEv@Base 3.2.0
 _ZN5MyGUI7ItemBox16getIndexByWidgetEPNS_6WidgetE@Base 3.2.0
 _ZN5MyGUI7ItemBox16getWidgetByIndexEj@Base 3.2.0
 _ZN5MyGUI7ItemBox16notifyMouseWheelEPNS_6WidgetEi@Base 3.2.0
 _ZN5MyGUI7ItemBox16setIndexSelectedEj@Base 3.2.0
 _ZN5MyGUI7ItemBox16shutdownOverrideEv@Base 3.2.0
 _ZN5MyGUI7ItemBox16updateFromResizeEv@Base 3.2.0
 _ZN5MyGUI7ItemBox17_updateAllVisibleEb@Base 3.2.0
 _ZN5MyGUI7ItemBox17calcIndexByWidgetEPNS_6WidgetE@Base 3.2.0
 _ZN5MyGUI7ItemBox18_getContainerIndexERKNS_5types6TPointIiEE@Base 3.2.0
 _ZN5MyGUI7ItemBox18clearIndexSelectedEv@Base 3.2.0
 _ZN5MyGUI7ItemBox18getContentPositionEv@Base 3.2.0
 _ZN5MyGUI7ItemBox18initialiseOverrideEv@Base 3.2.0
 _ZN5MyGUI7ItemBox18setContentPositionERKNS_5types6TPointIiEE@Base 3.2.0
 _ZN5MyGUI7ItemBox19setPropertyOverrideERKSsS2_@Base 3.2.0
 _ZN5MyGUI7ItemBox20onMouseButtonPressedEiiNS_11MouseButtonE@Base 3.2.0
 _ZN5MyGUI7ItemBox20setVerticalAlignmentEb@Base 3.2.0
 _ZN5MyGUI7ItemBox20updateDropItemsStateERKNS_13DDWidgetStateE@Base 3.2.0
 _ZN5MyGUI7ItemBox21_setContainerItemInfoEjbb@Base 3.2.0
 _ZN5MyGUI7ItemBox21findCurrentActiveItemEv@Base 3.2.0
 _ZN5MyGUI7ItemBox21onMouseButtonReleasedEiiNS_11MouseButtonE@Base 3.2.0
 _ZN5MyGUI7ItemBox22_getClientAbsoluteRectEv@Base 3.2.0
 _ZN5MyGUI7ItemBox22notifyKeyButtonPressedEPNS_6WidgetENS_7KeyCodeEj@Base 3.2.0
 _ZN5MyGUI7ItemBox22resetCurrentActiveItemEv@Base 3.2.0
 _ZN5MyGUI7ItemBox23notifyKeyButtonReleasedEPNS_6WidgetENS_7KeyCodeE@Base 3.2.0
 _ZN5MyGUI7ItemBox24notifyMouseButtonPressedEPNS_6WidgetEiiNS_11MouseButtonE@Base 3.2.0
 _ZN5MyGUI7ItemBox25notifyMouseButtonReleasedEPNS_6WidgetEiiNS_11MouseButtonE@Base 3.2.0
 _ZN5MyGUI7ItemBox26notifyRootMouseChangeFocusEPNS_6WidgetEb@Base 3.2.0
 _ZN5MyGUI7ItemBox26notifyScrollChangePositionEPNS_9ScrollBarEj@Base 3.2.0
 _ZN5MyGUI7ItemBox28notifyMouseButtonDoubleClickEPNS_6WidgetE@Base 3.2.0
 _ZN5MyGUI7ItemBox7addItemENS_3AnyE@Base 3.2.0
 _ZN5MyGUI7ItemBox7setSizeERKNS_5types5TSizeIiEE@Base 3.2.0
 _ZN5MyGUI7ItemBox7setSizeEii@Base 3.2.0
 _ZN5MyGUI7ItemBox8setCoordERKNS_5types6TCoordIiEE@Base 3.2.0
 _ZN5MyGUI7ItemBox8setCoordEiiii@Base 3.2.0
 _ZN5MyGUI7ItemBox9resetDragEv@Base 3.2.0
 _ZN5MyGUI7ItemBoxC1Ev@Base 3.2.0
 _ZN5MyGUI7ItemBoxC2Ev@Base 3.2.0
 _ZN5MyGUI7ItemBoxD0Ev@Base 3.2.0
 _ZN5MyGUI7ItemBoxD1Ev@Base 3.2.0
 _ZN5MyGUI7ItemBoxD2Ev@Base 3.2.0
 _ZN5MyGUI7ListBox10updateLineEb@Base 3.2.0
 _ZN5MyGUI7ListBox11_checkAlignEv@Base 3.2.0
 _ZN5MyGUI7ListBox11_redrawItemEj@Base 3.2.0
 _ZN5MyGUI7ListBox11setPositionERKNS_5types6TPointIiEE@Base 3.2.0
 _ZN5MyGUI7ListBox11setPositionEii@Base 3.2.0
 _ZN5MyGUI7ListBox11swapItemsAtEjj@Base 3.2.0
 _ZN5MyGUI7ListBox12_selectIndexEjb@Base 3.2.0
 _ZN5MyGUI7ListBox12insertItemAtEjRKNS_7UStringENS_3AnyE@Base 3.2.0
 _ZN5MyGUI7ListBox12onMouseWheelEi@Base 3.2.0
 _ZN5MyGUI7ListBox12removeItemAtEj@Base 3.2.0
 _ZN5MyGUI7ListBox12updateScrollEv@Base 3.2.0
 _ZN5MyGUI7ListBox13_checkMappingERKSs@Base 3.2.0
 _ZN5MyGUI7ListBox13_getItemCountEv@Base 3.2.0
 _ZN5MyGUI7ListBox13_getItemIndexEPNS_6WidgetE@Base 3.2.0
 _ZN5MyGUI7ListBox13_removeItemAtEj@Base 3.2.0
 _ZN5MyGUI7ListBox13_setItemFocusEjb@Base 3.2.0
 _ZN5MyGUI7ListBox13beginToItemAtEj@Base 3.2.0
 _ZN5MyGUI7ListBox13getItemNameAtEj@Base 3.2.0
 _ZN5MyGUI7ListBox13setItemDataAtEjNS_3AnyE@Base 3.2.0
 _ZN5MyGUI7ListBox13setItemNameAtEjRKNS_7UStringE@Base 3.2.0
 _ZN5MyGUI7ListBox14_getItemNameAtEj@Base 3.2.0
 _ZN5MyGUI7ListBox14_setItemNameAtEjRKNS_7UStringE@Base 3.2.0
 _ZN5MyGUI7ListBox14_setScrollViewEj@Base 3.2.0
 _ZN5MyGUI7ListBox14removeAllItemsEv@Base 3.2.0
 _ZN5MyGUI7ListBox15_resetContainerEb@Base 3.2.0
 _ZN5MyGUI7ListBox15beginToItemLastEv@Base 3.2.0
 _ZN5MyGUI7ListBox15clearItemDataAtEj@Base 3.2.0
 _ZN5MyGUI7ListBox15isItemVisibleAtEjb@Base 3.2.0
 _ZN5MyGUI7ListBox16_getClientWidgetEv@Base 3.2.0
 _ZN5MyGUI7ListBox16_redrawItemRangeEj@Base 3.2.0
 _ZN5MyGUI7ListBox16beginToItemFirstEv@Base 3.2.0
 _ZN5MyGUI7ListBox16getOptimalHeightEv@Base 3.2.0
 _ZN5MyGUI7ListBox16notifyMouseWheelEPNS_6WidgetEi@Base 3.2.0
 _ZN5MyGUI7ListBox16setIndexSelectedEj@Base 3.2.0
 _ZN5MyGUI7ListBox16setScrollVisibleEb@Base 3.2.0
 _ZN5MyGUI7ListBox16shutdownOverrideEv@Base 3.2.0
 _ZN5MyGUI7ListBox17findItemIndexWithERKNS_7UStringE@Base 3.2.0
 _ZN5MyGUI7ListBox17setScrollPositionEj@Base 3.2.0
 _ZN5MyGUI7ListBox18clearIndexSelectedEv@Base 3.2.0
 _ZN5MyGUI7ListBox18initialiseOverrideEv@Base 3.2.0
 _ZN5MyGUI7ListBox18notifyMousePressedEPNS_6WidgetEiiNS_11MouseButtonE@Base 3.2.0
 _ZN5MyGUI7ListBox18onKeyButtonPressedENS_7KeyCodeEj@Base 3.2.0
 _ZN5MyGUI7ListBox19beginToItemSelectedEv@Base 3.2.0
 _ZN5MyGUI7ListBox19notifyMouseSetFocusEPNS_6WidgetES2_@Base 3.2.0
 _ZN5MyGUI7ListBox19setPropertyOverrideERKSsS2_@Base 3.2.0
 _ZN5MyGUI7ListBox20notifyMouseLostFocusEPNS_6WidgetES2_@Base 3.2.0
 _ZN5MyGUI7ListBox21isItemSelectedVisibleEb@Base 3.2.0
 _ZN5MyGUI7ListBox22_sendEventChangeScrollEj@Base 3.2.0
 _ZN5MyGUI7ListBox22notifyMouseDoubleClickEPNS_6WidgetE@Base 3.2.0
 _ZN5MyGUI7ListBox26notifyScrollChangePositionEPNS_9ScrollBarEj@Base 3.2.0
 _ZN5MyGUI7ListBox7addItemERKNS_7UStringENS_3AnyE@Base 3.2.0
 _ZN5MyGUI7ListBox7setSizeERKNS_5types5TSizeIiEE@Base 3.2.0
 _ZN5MyGUI7ListBox7setSizeEii@Base 3.2.0
 _ZN5MyGUI7ListBox8_addItemERKNS_7UStringE@Base 3.2.0
 _ZN5MyGUI7ListBox8setCoordERKNS_5types6TCoordIiEE@Base 3.2.0
 _ZN5MyGUI7ListBox8setCoordEiiii@Base 3.2.0
 _ZN5MyGUI7ListBoxC1Ev@Base 3.2.0
 _ZN5MyGUI7ListBoxC2Ev@Base 3.2.0
 _ZN5MyGUI7ListBoxD0Ev@Base 3.2.0
 _ZN5MyGUI7ListBoxD1Ev@Base 3.2.0
 _ZN5MyGUI7ListBoxD2Ev@Base 3.2.0
 _ZN5MyGUI7MenuBarC1Ev@Base 3.2.0
 _ZN5MyGUI7MenuBarC2Ev@Base 3.2.0
 _ZN5MyGUI7MenuBarD0Ev@Base 3.2.0
 _ZN5MyGUI7MenuBarD1Ev@Base 3.2.0
 _ZN5MyGUI7MenuBarD2Ev@Base 3.2.0
 _ZN5MyGUI7SubSkin10_setColourERKNS_6ColourE@Base 3.2.0
 _ZN5MyGUI7SubSkin10setVisibleEb@Base 3.2.0
 _ZN5MyGUI7SubSkin11_updateViewEv@Base 3.2.0
 _ZN5MyGUI7SubSkin12_correctViewEv@Base 3.2.0
 _ZN5MyGUI7SubSkin12setStateDataEPNS_10IStateInfoE@Base 3.2.0
 _ZN5MyGUI7SubSkin14createDrawItemEPNS_8ITextureEPNS_10ILayerNodeE@Base 3.2.0
 _ZN5MyGUI7SubSkin15destroyDrawItemEv@Base 3.2.0
 _ZN5MyGUI7SubSkin8doRenderEv@Base 3.2.0
 _ZN5MyGUI7SubSkin8setAlphaEf@Base 3.2.0
 _ZN5MyGUI7SubSkin9_setAlignERKNS_5types5TSizeIiEE@Base 3.2.0
 _ZN5MyGUI7SubSkin9_setUVSetERKNS_5types5TRectIfEE@Base 3.2.0
 _ZN5MyGUI7SubSkinC1Ev@Base 3.2.0
 _ZN5MyGUI7SubSkinC2Ev@Base 3.2.0
 _ZN5MyGUI7SubSkinD0Ev@Base 3.2.0
 _ZN5MyGUI7SubSkinD1Ev@Base 3.2.0
 _ZN5MyGUI7SubSkinD2Ev@Base 3.2.0
 _ZN5MyGUI7TabItem10getCaptionEv@Base 3.2.0
 _ZN5MyGUI7TabItem10setCaptionERKNS_7UStringE@Base 3.2.0
 _ZN5MyGUI7TabItem14setButtonWidthEi@Base 3.2.0
 _ZN5MyGUI7TabItem16shutdownOverrideEv@Base 3.2.0
 _ZN5MyGUI7TabItem18initialiseOverrideEv@Base 3.2.0
 _ZN5MyGUI7TabItem19setPropertyOverrideERKSsS2_@Base 3.2.0
 _ZN5MyGUI7TabItemC1Ev@Base 3.2.0
 _ZN5MyGUI7TabItemC2Ev@Base 3.2.0
 _ZN5MyGUI7TabItemD0Ev@Base 3.2.0
 _ZN5MyGUI7TabItemD1Ev@Base 3.2.0
 _ZN5MyGUI7TabItemD2Ev@Base 3.2.0
 _ZN5MyGUI7TextBox10getCaptionEv@Base 3.2.0
 _ZN5MyGUI7TextBox10setCaptionERKNS_7UStringE@Base 3.2.0
 _ZN5MyGUI7TextBox11getFontNameEv@Base 3.2.0
 _ZN5MyGUI7TextBox11getTextSizeEv@Base 3.2.0
 _ZN5MyGUI7TextBox11setFontNameERKSs@Base 3.2.0
 _ZN5MyGUI7TextBox12getTextAlignEv@Base 3.2.0
 _ZN5MyGUI7TextBox12setTextAlignENS_5AlignE@Base 3.2.0
 _ZN5MyGUI7TextBox13getFontHeightEv@Base 3.2.0
 _ZN5MyGUI7TextBox13getTextColourEv@Base 3.2.0
 _ZN5MyGUI7TextBox13getTextRegionEv@Base 3.2.0
 _ZN5MyGUI7TextBox13getTextShadowEv@Base 3.2.0
 _ZN5MyGUI7TextBox13setFontHeightEi@Base 3.2.0
 _ZN5MyGUI7TextBox13setTextColourERKNS_6ColourE@Base 3.2.0
 _ZN5MyGUI7TextBox13setTextShadowEb@Base 3.2.0
 _ZN5MyGUI7TextBox19getTextShadowColourEv@Base 3.2.0
 _ZN5MyGUI7TextBox19setPropertyOverrideERKSsS2_@Base 3.2.0
 _ZN5MyGUI7TextBox19setTextShadowColourERKNS_6ColourE@Base 3.2.0
 _ZN5MyGUI7TextBox23setCaptionWithReplacingERKSs@Base 3.2.0
 _ZN5MyGUI7TextBoxC1Ev@Base 3.2.0
 _ZN5MyGUI7TextBoxC2Ev@Base 3.2.0
 _ZN5MyGUI7TextBoxD0Ev@Base 3.2.0
 _ZN5MyGUI7TextBoxD1Ev@Base 3.2.0
 _ZN5MyGUI7TextBoxD2Ev@Base 3.2.0
 _ZN5MyGUI7UString11_verifyUTF8EPKh@Base 3.2.0
 _ZN5MyGUI7UString11_verifyUTF8ERKSs@Base 3.2.0
 _ZN5MyGUI7UString12invalid_dataD0Ev@Base 3.2.0
 _ZN5MyGUI7UString12invalid_dataD1Ev@Base 3.2.0
 _ZN5MyGUI7UString12invalid_dataD2Ev@Base 3.2.0
 _ZN5MyGUI7UString13_fwd_iterator12setCharacterEj@Base 3.2.0
 _ZN5MyGUI7UString13_fwd_iterator8moveNextEv@Base 3.2.0
 _ZN5MyGUI7UString13_fwd_iterator8movePrevEv@Base 3.2.0
 _ZN5MyGUI7UString13_fwd_iteratorC1ERKS1_@Base 3.2.0
 _ZN5MyGUI7UString13_fwd_iteratorC1Ev@Base 3.2.0
 _ZN5MyGUI7UString13_fwd_iteratorC2ERKS1_@Base 3.2.0
 _ZN5MyGUI7UString13_fwd_iteratorC2Ev@Base 3.2.0
 _ZN5MyGUI7UString13_fwd_iteratormIEi@Base 3.2.0
 _ZN5MyGUI7UString13_fwd_iteratormiEi@Base 3.2.0
 _ZN5MyGUI7UString13_fwd_iteratormmEi@Base 3.2.0
 _ZN5MyGUI7UString13_fwd_iteratormmEv@Base 3.2.0
 _ZN5MyGUI7UString13_fwd_iteratorpLEi@Base 3.2.0
 _ZN5MyGUI7UString13_fwd_iteratorplEi@Base 3.2.0
 _ZN5MyGUI7UString13_fwd_iteratorppEi@Base 3.2.0
 _ZN5MyGUI7UString13_fwd_iteratorppEv@Base 3.2.0
 _ZN5MyGUI7UString13_rev_iteratorC1ERKS1_@Base 3.2.0
 _ZN5MyGUI7UString13_rev_iteratorC1Ev@Base 3.2.0
 _ZN5MyGUI7UString13_rev_iteratorC2ERKS1_@Base 3.2.0
 _ZN5MyGUI7UString13_rev_iteratorC2Ev@Base 3.2.0
 _ZN5MyGUI7UString13_rev_iteratormIEi@Base 3.2.0
 _ZN5MyGUI7UString13_rev_iteratormiEi@Base 3.2.0
 _ZN5MyGUI7UString13_rev_iteratormmEi@Base 3.2.0
 _ZN5MyGUI7UString13_rev_iteratormmEv@Base 3.2.0
 _ZN5MyGUI7UString13_rev_iteratorpLEi@Base 3.2.0
 _ZN5MyGUI7UString13_rev_iteratorplEi@Base 3.2.0
 _ZN5MyGUI7UString13_rev_iteratorppEi@Base 3.2.0
 _ZN5MyGUI7UString13_rev_iteratorppEv@Base 3.2.0
 _ZN5MyGUI7UString14_base_iterator13_setCharacterEj@Base 3.2.0
 _ZN5MyGUI7UString14_base_iterator7_becomeERKS1_@Base 3.2.0
 _ZN5MyGUI7UString14_base_iterator8_jump_toEj@Base 3.2.0
 _ZN5MyGUI7UString14_base_iterator8_seekFwdEj@Base 3.2.0
 _ZN5MyGUI7UString14_base_iterator8_seekRevEj@Base 3.2.0
 _ZN5MyGUI7UString14_base_iterator9_moveNextEv@Base 3.2.0
 _ZN5MyGUI7UString14_base_iterator9_movePrevEv@Base 3.2.0
 _ZN5MyGUI7UString14_base_iteratorC1Ev@Base 3.2.0
 _ZN5MyGUI7UString14_base_iteratorC2Ev@Base 3.2.0
 _ZN5MyGUI7UString14_utf32_to_utf8ERKjPh@Base 3.2.0
 _ZN5MyGUI7UString14_utf8_to_utf32EPKhRj@Base 3.2.0
 _ZN5MyGUI7UString15_utf16_to_utf32EPKtRj@Base 3.2.0
 _ZN5MyGUI7UString15_utf32_to_utf16ERKjPt@Base 3.2.0
 _ZN5MyGUI7UString16_utf8_start_charEh@Base 3.2.0
 _ZN5MyGUI7UString17_utf8_char_lengthEh@Base 3.2.0
 _ZN5MyGUI7UString17_utf8_char_lengthEj@Base 3.2.0
 _ZN5MyGUI7UString18_utf16_char_lengthEj@Base 3.2.0
 _ZN5MyGUI7UString18_utf16_char_lengthEt@Base 3.2.0
 _ZN5MyGUI7UString19_const_fwd_iterator8moveNextEv@Base 3.2.0
 _ZN5MyGUI7UString19_const_fwd_iterator8movePrevEv@Base 3.2.0
 _ZN5MyGUI7UString19_const_fwd_iteratorC1ERKNS0_13_fwd_iteratorE@Base 3.2.0
 _ZN5MyGUI7UString19_const_fwd_iteratorC1ERKS1_@Base 3.2.0
 _ZN5MyGUI7UString19_const_fwd_iteratorC1Ev@Base 3.2.0
 _ZN5MyGUI7UString19_const_fwd_iteratorC2ERKNS0_13_fwd_iteratorE@Base 3.2.0
 _ZN5MyGUI7UString19_const_fwd_iteratorC2ERKS1_@Base 3.2.0
 _ZN5MyGUI7UString19_const_fwd_iteratorC2Ev@Base 3.2.0
 _ZN5MyGUI7UString19_const_fwd_iteratormIEi@Base 3.2.0
 _ZN5MyGUI7UString19_const_fwd_iteratormiEi@Base 3.2.0
 _ZN5MyGUI7UString19_const_fwd_iteratormmEi@Base 3.2.0
 _ZN5MyGUI7UString19_const_fwd_iteratormmEv@Base 3.2.0
 _ZN5MyGUI7UString19_const_fwd_iteratorpLEi@Base 3.2.0
 _ZN5MyGUI7UString19_const_fwd_iteratorplEi@Base 3.2.0
 _ZN5MyGUI7UString19_const_fwd_iteratorppEi@Base 3.2.0
 _ZN5MyGUI7UString19_const_fwd_iteratorppEv@Base 3.2.0
 _ZN5MyGUI7UString19_const_rev_iteratorC1ERKNS0_13_rev_iteratorE@Base 3.2.0
 _ZN5MyGUI7UString19_const_rev_iteratorC1ERKS1_@Base 3.2.0
 _ZN5MyGUI7UString19_const_rev_iteratorC1Ev@Base 3.2.0
 _ZN5MyGUI7UString19_const_rev_iteratorC2ERKNS0_13_rev_iteratorE@Base 3.2.0
 _ZN5MyGUI7UString19_const_rev_iteratorC2ERKS1_@Base 3.2.0
 _ZN5MyGUI7UString19_const_rev_iteratorC2Ev@Base 3.2.0
 _ZN5MyGUI7UString19_const_rev_iteratormIEi@Base 3.2.0
 _ZN5MyGUI7UString19_const_rev_iteratormiEi@Base 3.2.0
 _ZN5MyGUI7UString19_const_rev_iteratormmEi@Base 3.2.0
 _ZN5MyGUI7UString19_const_rev_iteratormmEv@Base 3.2.0
 _ZN5MyGUI7UString19_const_rev_iteratorpLEi@Base 3.2.0
 _ZN5MyGUI7UString19_const_rev_iteratorplEi@Base 3.2.0
 _ZN5MyGUI7UString19_const_rev_iteratorppEi@Base 3.2.0
 _ZN5MyGUI7UString19_const_rev_iteratorppEv@Base 3.2.0
 _ZN5MyGUI7UString21_utf16_surrogate_leadEt@Base 3.2.0
 _ZN5MyGUI7UString23_utf16_independent_charEt@Base 3.2.0
 _ZN5MyGUI7UString23_utf16_surrogate_followEt@Base 3.2.0
 _ZN5MyGUI7UString2atEj@Base 3.2.0
 _ZN5MyGUI7UString3endEv@Base 3.2.0
 _ZN5MyGUI7UString4rendEv@Base 3.2.0
 _ZN5MyGUI7UString4swapERS0_@Base 3.2.0
 _ZN5MyGUI7UString5_initEv@Base 3.2.0
 _ZN5MyGUI7UString5beginEv@Base 3.2.0
 _ZN5MyGUI7UString5clearEv@Base 3.2.0
 _ZN5MyGUI7UString5eraseENS0_13_fwd_iteratorE@Base 3.2.0
 _ZN5MyGUI7UString5eraseENS0_13_fwd_iteratorES1_@Base 3.2.0
 _ZN5MyGUI7UString5eraseEjj@Base 3.2.0
 _ZN5MyGUI7UString6appendENS0_13_fwd_iteratorES1_@Base 3.2.0
 _ZN5MyGUI7UString6appendEPKcj@Base 3.2.0
 _ZN5MyGUI7UString6appendEPKt@Base 3.2.0
 _ZN5MyGUI7UString6appendEPKtj@Base 3.2.0
 _ZN5MyGUI7UString6appendEPKwj@Base 3.2.0
 _ZN5MyGUI7UString6appendERKS0_@Base 3.2.0
 _ZN5MyGUI7UString6appendERKS0_jj@Base 3.2.0
 _ZN5MyGUI7UString6appendEjc@Base 3.2.0
 _ZN5MyGUI7UString6appendEjj@Base 3.2.0
 _ZN5MyGUI7UString6appendEjt@Base 3.2.0
 _ZN5MyGUI7UString6appendEjw@Base 3.2.0
 _ZN5MyGUI7UString6assignENS0_13_fwd_iteratorES1_@Base 3.2.0
 _ZN5MyGUI7UString6assignEPKc@Base 3.2.0
 _ZN5MyGUI7UString6assignEPKcj@Base 3.2.0
 _ZN5MyGUI7UString6assignEPKt@Base 3.2.0
 _ZN5MyGUI7UString6assignEPKtj@Base 3.2.0
 _ZN5MyGUI7UString6assignEPKw@Base 3.2.0
 _ZN5MyGUI7UString6assignEPKwj@Base 3.2.0
 _ZN5MyGUI7UString6assignERKS0_@Base 3.2.0
 _ZN5MyGUI7UString6assignERKS0_jj@Base 3.2.0
 _ZN5MyGUI7UString6assignERKSbIwSt11char_traitsIwESaIwEE@Base 3.2.0
 _ZN5MyGUI7UString6assignERKSs@Base 3.2.0
 _ZN5MyGUI7UString6assignEjRKt@Base 3.2.0
 _ZN5MyGUI7UString6insertENS0_13_fwd_iteratorERKt@Base 3.2.0
 _ZN5MyGUI7UString6insertENS0_13_fwd_iteratorES1_S1_@Base 3.2.0
 _ZN5MyGUI7UString6insertENS0_13_fwd_iteratorEjRKc@Base 3.2.0
 _ZN5MyGUI7UString6insertENS0_13_fwd_iteratorEjRKj@Base 3.2.0
 _ZN5MyGUI7UString6insertENS0_13_fwd_iteratorEjRKt@Base 3.2.0
 _ZN5MyGUI7UString6insertENS0_13_fwd_iteratorEjRKw@Base 3.2.0
 _ZN5MyGUI7UString6insertEjPKcj@Base 3.2.0
 _ZN5MyGUI7UString6insertEjPKtj@Base 3.2.0
 _ZN5MyGUI7UString6insertEjPKwj@Base 3.2.0
 _ZN5MyGUI7UString6insertEjRKS0_@Base 3.2.0
 _ZN5MyGUI7UString6insertEjRKS0_jj@Base 3.2.0
 _ZN5MyGUI7UString6insertEjjc@Base 3.2.0
 _ZN5MyGUI7UString6insertEjjj@Base 3.2.0
 _ZN5MyGUI7UString6insertEjjt@Base 3.2.0
 _ZN5MyGUI7UString6insertEjjw@Base 3.2.0
 _ZN5MyGUI7UString6rbeginEv@Base 3.2.0
 _ZN5MyGUI7UString6resizeEjRKt@Base 3.2.0
 _ZN5MyGUI7UString7replaceENS0_13_fwd_iteratorES1_RKS0_j@Base 3.2.0
 _ZN5MyGUI7UString7replaceENS0_13_fwd_iteratorES1_jt@Base 3.2.0
 _ZN5MyGUI7UString7replaceEjjRKS0_@Base 3.2.0
 _ZN5MyGUI7UString7replaceEjjRKS0_j@Base 3.2.0
 _ZN5MyGUI7UString7replaceEjjRKS0_jj@Base 3.2.0
 _ZN5MyGUI7UString7replaceEjjjt@Base 3.2.0
 _ZN5MyGUI7UString7reserveEj@Base 3.2.0
 _ZN5MyGUI7UString7setCharEjj@Base 3.2.0
 _ZN5MyGUI7UString9push_backEc@Base 3.2.0
 _ZN5MyGUI7UString9push_backEj@Base 3.2.0
 _ZN5MyGUI7UString9push_backEt@Base 3.2.0
 _ZN5MyGUI7UString9push_backEw@Base 3.2.0
 _ZN5MyGUI7UStringC1EPKc@Base 3.2.0
 _ZN5MyGUI7UStringC1EPKcj@Base 3.2.0
 _ZN5MyGUI7UStringC1EPKt@Base 3.2.0
 _ZN5MyGUI7UStringC1EPKtj@Base 3.2.0
 _ZN5MyGUI7UStringC1EPKw@Base 3.2.0
 _ZN5MyGUI7UStringC1EPKwj@Base 3.2.0
 _ZN5MyGUI7UStringC1ERKS0_@Base 3.2.0
 _ZN5MyGUI7UStringC1ERKS0_jj@Base 3.2.0
 _ZN5MyGUI7UStringC1ERKSbIwSt11char_traitsIwESaIwEE@Base 3.2.0
 _ZN5MyGUI7UStringC1ERKSs@Base 3.2.0
 _ZN5MyGUI7UStringC1EjRKt@Base 3.2.0
 _ZN5MyGUI7UStringC1Ev@Base 3.2.0
 _ZN5MyGUI7UStringC2EPKc@Base 3.2.0
 _ZN5MyGUI7UStringC2EPKcj@Base 3.2.0
 _ZN5MyGUI7UStringC2EPKt@Base 3.2.0
 _ZN5MyGUI7UStringC2EPKtj@Base 3.2.0
 _ZN5MyGUI7UStringC2EPKw@Base 3.2.0
 _ZN5MyGUI7UStringC2EPKwj@Base 3.2.0
 _ZN5MyGUI7UStringC2ERKS0_@Base 3.2.0
 _ZN5MyGUI7UStringC2ERKS0_jj@Base 3.2.0
 _ZN5MyGUI7UStringC2ERKSbIwSt11char_traitsIwESaIwEE@Base 3.2.0
 _ZN5MyGUI7UStringC2ERKSs@Base 3.2.0
 _ZN5MyGUI7UStringC2EjRKt@Base 3.2.0
 _ZN5MyGUI7UStringC2Ev@Base 3.2.0
 _ZN5MyGUI7UStringD1Ev@Base 3.2.0
 _ZN5MyGUI7UStringD2Ev@Base 3.2.0
 _ZN5MyGUI7UStringaSERKS0_@Base 3.2.0
 _ZN5MyGUI7UStringaSEc@Base 3.2.0
 _ZN5MyGUI7UStringaSEj@Base 3.2.0
 _ZN5MyGUI7UStringaSEt@Base 3.2.0
 _ZN5MyGUI7UStringaSEw@Base 3.2.0
 _ZN5MyGUI7UStringixEj@Base 3.2.0
 _ZN5MyGUI7VScrollD0Ev@Base 3.2.0
 _ZN5MyGUI7VScrollD1Ev@Base 3.2.0
 _ZN5MyGUI7VScrollD2Ev@Base 3.2.0
 _ZN5MyGUI8ComboBox12insertItemAtEjRKNS_7UStringENS_3AnyE@Base 3.2.0
 _ZN5MyGUI8ComboBox12removeItemAtEj@Base 3.2.0
 _ZN5MyGUI8ComboBox13_getItemCountEv@Base 3.2.0
 _ZN5MyGUI8ComboBox13_removeItemAtEj@Base 3.2.0
 _ZN5MyGUI8ComboBox13beginToItemAtEj@Base 3.2.0
 _ZN5MyGUI8ComboBox13getItemNameAtEj@Base 3.2.0
 _ZN5MyGUI8ComboBox13notifyToolTipEPNS_6WidgetERKNS_11ToolTipInfoE@Base 3.2.0
 _ZN5MyGUI8ComboBox13setItemDataAtEjNS_3AnyE@Base 3.2.0
 _ZN5MyGUI8ComboBox13setItemNameAtEjRKNS_7UStringE@Base 3.2.0
 _ZN5MyGUI8ComboBox13setSmoothShowEb@Base 3.2.0
 _ZN5MyGUI8ComboBox14_getItemNameAtEj@Base 3.2.0
 _ZN5MyGUI8ComboBox14_setItemNameAtEjRKNS_7UStringE@Base 3.2.0
 _ZN5MyGUI8ComboBox14removeAllItemsEv@Base 3.2.0
 _ZN5MyGUI8ComboBox15_resetContainerEb@Base 3.2.0
 _ZN5MyGUI8ComboBox15beginToItemLastEv@Base 3.2.0
 _ZN5MyGUI8ComboBox15clearItemDataAtEj@Base 3.2.0
 _ZN5MyGUI8ComboBox16actionWidgetHideEPNS_6WidgetE@Base 3.2.0
 _ZN5MyGUI8ComboBox16beginToItemFirstEv@Base 3.2.0
 _ZN5MyGUI8ComboBox16notifyMouseWheelEPNS_6WidgetEi@Base 3.2.0
 _ZN5MyGUI8ComboBox16setComboModeDropEb@Base 3.2.0
 _ZN5MyGUI8ComboBox16setFlowDirectionENS_13FlowDirectionE@Base 3.2.0
 _ZN5MyGUI8ComboBox16setIndexSelectedEj@Base 3.2.0
 _ZN5MyGUI8ComboBox16setMaxListLengthEi@Base 3.2.0
 _ZN5MyGUI8ComboBox16shutdownOverrideEv@Base 3.2.0
 _ZN5MyGUI8ComboBox17findItemIndexWithERKNS_7UStringE@Base 3.2.0
 _ZN5MyGUI8ComboBox18clearIndexSelectedEv@Base 3.2.0
 _ZN5MyGUI8ComboBox18initialiseOverrideEv@Base 3.2.0
 _ZN5MyGUI8ComboBox18notifyMousePressedEPNS_6WidgetEiiNS_11MouseButtonE@Base 3.2.0
 _ZN5MyGUI8ComboBox18onKeyButtonPressedENS_7KeyCodeEj@Base 3.2.0
 _ZN5MyGUI8ComboBox19beginToItemSelectedEv@Base 3.2.0
 _ZN5MyGUI8ComboBox19notifyButtonPressedEPNS_6WidgetEiiNS_11MouseButtonE@Base 3.2.0
 _ZN5MyGUI8ComboBox19notifyListLostFocusEPNS_6WidgetES2_@Base 3.2.0
 _ZN5MyGUI8ComboBox19setPropertyOverrideERKSsS2_@Base 3.2.0
 _ZN5MyGUI8ComboBox20notifyEditTextChangeEPNS_7EditBoxE@Base 3.2.0
 _ZN5MyGUI8ComboBox21calculateListPositionEv@Base 3.2.0
 _ZN5MyGUI8ComboBox22notifyListSelectAcceptEPNS_7ListBoxEj@Base 3.2.0
 _ZN5MyGUI8ComboBox24notifyListChangePositionEPNS_7ListBoxEj@Base 3.2.0
 _ZN5MyGUI8ComboBox25createControllerFadeAlphaEffb@Base 3.2.0
 _ZN5MyGUI8ComboBox27notifyListMouseItemActivateEPNS_7ListBoxEj@Base 3.2.0
 _ZN5MyGUI8ComboBox7addItemERKNS_7UStringENS_3AnyE@Base 3.2.0
 _ZN5MyGUI8ComboBox8_addItemERKNS_7UStringE@Base 3.2.0
 _ZN5MyGUI8ComboBox8hideListEv@Base 3.2.0
 _ZN5MyGUI8ComboBox8showListEv@Base 3.2.0
 _ZN5MyGUI8ComboBoxC1Ev@Base 3.2.0
 _ZN5MyGUI8ComboBoxC2Ev@Base 3.2.0
 _ZN5MyGUI8ComboBoxD0Ev@Base 3.2.0
 _ZN5MyGUI8ComboBoxD1Ev@Base 3.2.0
 _ZN5MyGUI8ComboBoxD2Ev@Base 3.2.0
 _ZN5MyGUI8EditText10setCaptionERKNS_7UStringE@Base 3.2.0
 _ZN5MyGUI8EditText10setVisibleEb@Base 3.2.0
 _ZN5MyGUI8EditText11_updateViewEv@Base 3.2.0
 _ZN5MyGUI8EditText11getTextSizeEv@Base 3.2.0
 _ZN5MyGUI8EditText11setFontNameERKSs@Base 3.2.0
 _ZN5MyGUI8EditText11setWordWrapEb@Base 3.2.0
 _ZN5MyGUI8EditText12_correctViewEv@Base 3.2.0
 _ZN5MyGUI8EditText12setShiftTextEb@Base 3.2.0
 _ZN5MyGUI8EditText12setStateDataEPNS_10IStateInfoE@Base 3.2.0
 _ZN5MyGUI8EditText12setTextAlignENS_5AlignE@Base 3.2.0
 _ZN5MyGUI8EditText13setFontHeightEi@Base 3.2.0
 _ZN5MyGUI8EditText13setTextColourERKNS_6ColourE@Base 3.2.0
 _ZN5MyGUI8EditText13setViewOffsetERKNS_5types6TPointIiEE@Base 3.2.0
 _ZN5MyGUI8EditText13updateRawDataEv@Base 3.2.0
 _ZN5MyGUI8EditText14_setTextColourERKNS_6ColourE@Base 3.2.0
 _ZN5MyGUI8EditText14createDrawItemEPNS_8ITextureEPNS_10ILayerNodeE@Base 3.2.0
 _ZN5MyGUI8EditText14getCursorCoordEj@Base 3.2.0
 _ZN5MyGUI8EditText15checkVertexSizeEv@Base 3.2.0
 _ZN5MyGUI8EditText15destroyDrawItemEv@Base 3.2.0
 _ZN5MyGUI8EditText15setShadowColourERKNS_6ColourE@Base 3.2.0
 _ZN5MyGUI8EditText16setTextSelectionEjj@Base 3.2.0
 _ZN5MyGUI8EditText16setVisibleCursorEb@Base 3.2.0
 _ZN5MyGUI8EditText17getCursorPositionERKNS_5types6TPointIiEE@Base 3.2.0
 _ZN5MyGUI8EditText17setCursorPositionEj@Base 3.2.0
 _ZN5MyGUI8EditText17setInvertSelectedEb@Base 3.2.0
 _ZN5MyGUI8EditText19setSelectBackgroundEb@Base 3.2.0
 _ZN5MyGUI8EditText8doRenderEv@Base 3.2.0
 _ZN5MyGUI8EditText8setAlphaEf@Base 3.2.0
 _ZN5MyGUI8EditText9_setAlignERKNS_5types5TSizeIiEE@Base 3.2.0
 _ZN5MyGUI8EditText9setShadowEb@Base 3.2.0
 _ZN5MyGUI8EditTextC1Ev@Base 3.2.0
 _ZN5MyGUI8EditTextC2Ev@Base 3.2.0
 _ZN5MyGUI8EditTextD0Ev@Base 3.2.0
 _ZN5MyGUI8EditTextD1Ev@Base 3.2.0
 _ZN5MyGUI8EditTextD2Ev@Base 3.2.0
 _ZN5MyGUI8ImageBox10deleteItemEj@Base 3.2.0
 _ZN5MyGUI8ImageBox10insertItemEjRKNS_5types6TCoordIiEE@Base 3.2.0
 _ZN5MyGUI8ImageBox11frameAdviseEb@Base 3.2.0
 _ZN5MyGUI8ImageBox11setItemNameERKSs@Base 3.2.0
 _ZN5MyGUI8ImageBox12addItemFrameEjRKNS_5types6TCoordIiEE@Base 3.2.0
 _ZN5MyGUI8ImageBox12frameEnteredEf@Base 3.2.0
 _ZN5MyGUI8ImageBox12setImageInfoERKSsRKNS_5types6TCoordIiEERKNS3_5TSizeIiEE@Base 3.2.0
 _ZN5MyGUI8ImageBox12setImageRectERKNS_5types5TRectIiEE@Base 3.2.0
 _ZN5MyGUI8ImageBox12setImageTileERKNS_5types5TSizeIiEE@Base 3.2.0
 _ZN5MyGUI8ImageBox12setItemFrameEjjRKNS_5types6TCoordIiEE@Base 3.2.0
 _ZN5MyGUI8ImageBox12setItemGroupERKSs@Base 3.2.0
 _ZN5MyGUI8ImageBox13recalcIndexesEv@Base 3.2.0
 _ZN5MyGUI8ImageBox13setImageCoordERKNS_5types6TCoordIiEE@Base 3.2.0
 _ZN5MyGUI8ImageBox13setImageIndexEj@Base 3.2.0
 _ZN5MyGUI8ImageBox13setItemSelectEj@Base 3.2.0
 _ZN5MyGUI8ImageBox14deleteAllItemsEv@Base 3.2.0
 _ZN5MyGUI8ImageBox15deleteItemFrameEjj@Base 3.2.0
 _ZN5MyGUI8ImageBox15insertItemFrameEjjRKNS_5types6TCoordIiEE@Base 3.2.0
 _ZN5MyGUI8ImageBox15resetItemSelectEv@Base 3.2.0
 _ZN5MyGUI8ImageBox15setImageTextureERKSs@Base 3.2.0
 _ZN5MyGUI8ImageBox15setItemResourceERKSs@Base 3.2.0
 _ZN5MyGUI8ImageBox16getItemFrameRateEj@Base 3.2.0
 _ZN5MyGUI8ImageBox16setItemFrameRateEjf@Base 3.2.0
 _ZN5MyGUI8ImageBox16shutdownOverrideEv@Base 3.2.0
 _ZN5MyGUI8ImageBox17updateSelectIndexEj@Base 3.2.0
 _ZN5MyGUI8ImageBox18setItemResourcePtrEPNS_16ResourceImageSetE@Base 3.2.0
 _ZN5MyGUI8ImageBox19deleteAllItemFramesEj@Base 3.2.0
 _ZN5MyGUI8ImageBox19setItemResourceInfoEPNS_16ResourceImageSetERKSsS4_@Base 3.2.0
 _ZN5MyGUI8ImageBox19setItemResourceInfoERKNS_14ImageIndexInfoE@Base 3.2.0
 _ZN5MyGUI8ImageBox19setPropertyOverrideERKSsS2_@Base 3.2.0
 _ZN5MyGUI8ImageBox21addItemFrameDublicateEjj@Base 3.2.0
 _ZN5MyGUI8ImageBox24insertItemFrameDublicateEjjj@Base 3.2.0
 _ZN5MyGUI8ImageBox7addItemERKNS_5types6TCoordIiEE@Base 3.2.0
 _ZN5MyGUI8ImageBox7setItemEjRKNS_5types6TCoordIiEE@Base 3.2.0
 _ZN5MyGUI8ImageBox9_setUVSetERKNS_5types5TRectIfEE@Base 3.2.0
 _ZN5MyGUI8ImageBoxC1Ev@Base 3.2.0
 _ZN5MyGUI8ImageBoxC2Ev@Base 3.2.0
 _ZN5MyGUI8ImageBoxD0Ev@Base 3.2.0
 _ZN5MyGUI8ImageBoxD1Ev@Base 3.2.0
 _ZN5MyGUI8ImageBoxD2Ev@Base 3.2.0
 _ZN5MyGUI8MainSkin9_setAlignERKNS_5types5TSizeIiEE@Base 3.2.0
 _ZN5MyGUI8MainSkinC1Ev@Base 3.2.0
 _ZN5MyGUI8MainSkinC2Ev@Base 3.2.0
 _ZN5MyGUI8MainSkinD0Ev@Base 3.2.0
 _ZN5MyGUI8MainSkinD1Ev@Base 3.2.0
 _ZN5MyGUI8MainSkinD2Ev@Base 3.2.0
 _ZN5MyGUI8MenuItem10removeItemEv@Base 3.2.0
 _ZN5MyGUI8MenuItem10setCaptionERKNS_7UStringE@Base 3.2.0
 _ZN5MyGUI8MenuItem11getItemNameEv@Base 3.2.0
 _ZN5MyGUI8MenuItem11getItemTypeEv@Base 3.2.0
 _ZN5MyGUI8MenuItem11setItemDataENS_3AnyE@Base 3.2.0
 _ZN5MyGUI8MenuItem11setItemNameERKNS_7UStringE@Base 3.2.0
 _ZN5MyGUI8MenuItem11setItemTypeENS_12MenuItemTypeE@Base 3.2.0
 _ZN5MyGUI8MenuItem11updateCheckEv@Base 3.2.0
 _ZN5MyGUI8MenuItem12getItemChildEv@Base 3.2.0
 _ZN5MyGUI8MenuItem12getItemIndexEv@Base 3.2.0
 _ZN5MyGUI8MenuItem14setItemCheckedEb@Base 3.2.0
 _ZN5MyGUI8MenuItem15_getContentSizeEv@Base 3.2.0
 _ZN5MyGUI8MenuItem15createItemChildEv@Base 3.2.0
 _ZN5MyGUI8MenuItem15onWidgetCreatedEPNS_6WidgetE@Base 3.2.0
 _ZN5MyGUI8MenuItem16shutdownOverrideEv@Base 3.2.0
 _ZN5MyGUI8MenuItem17_getItemContainerEv@Base 3.2.0
 _ZN5MyGUI8MenuItem17getMenuCtrlParentEv@Base 3.2.0
 _ZN5MyGUI8MenuItem18initialiseOverrideEv@Base 3.2.0
 _ZN5MyGUI8MenuItem19setItemChildVisibleEb@Base 3.2.0
 _ZN5MyGUI8MenuItem19setPropertyOverrideERKSsS2_@Base 3.2.0
 _ZN5MyGUI8MenuItem9getItemIdEv@Base 3.2.0
 _ZN5MyGUI8MenuItem9setItemIdERKSs@Base 3.2.0
 _ZN5MyGUI8MenuItemC1Ev@Base 3.2.0
 _ZN5MyGUI8MenuItemC2Ev@Base 3.2.0
 _ZN5MyGUI8MenuItemD0Ev@Base 3.2.0
 _ZN5MyGUI8MenuItemD1Ev@Base 3.2.0
 _ZN5MyGUI8MenuItemD2Ev@Base 3.2.0
 _ZN5MyGUI8SkinItem15_createSkinItemEPNS_12ResourceSkinE@Base 3.2.0
 _ZN5MyGUI8SkinItem15_deleteSkinItemEv@Base 3.2.0
 _ZN5MyGUI8SkinItem15_setTextureNameERKSs@Base 3.2.0
 _ZN5MyGUI8SkinItem16getSubWidgetMainEv@Base 3.2.0
 _ZN5MyGUI8SkinItem16getSubWidgetTextEv@Base 3.2.0
 _ZN5MyGUI8SkinItem17_setSkinItemAlignERKNS_5types5TSizeIiEE@Base 3.2.0
 _ZN5MyGUI8SkinItem17_setSkinItemAlphaEf@Base 3.2.0
 _ZN5MyGUI8SkinItem17_setSkinItemStateERKSs@Base 3.2.0
 _ZN5MyGUI8SkinItem18_setSkinItemColourERKNS_6ColourE@Base 3.2.0
 _ZN5MyGUI8SkinItem18_setSubSkinVisibleEb@Base 3.2.0
 _ZN5MyGUI8SkinItem19_setSkinItemVisibleEb@Base 3.2.0
 _ZN5MyGUI8SkinItem19_updateSkinItemViewEv@Base 3.2.0
 _ZN5MyGUI8SkinItem20_correctSkinItemViewEv@Base 3.2.0
 _ZN5MyGUI8SkinItemC1Ev@Base 3.2.0
 _ZN5MyGUI8SkinItemC2Ev@Base 3.2.0
 _ZN5MyGUI8SkinItemD0Ev@Base 3.2.0
 _ZN5MyGUI8SkinItemD1Ev@Base 3.2.0
 _ZN5MyGUI8SkinItemD2Ev@Base 3.2.0
 _ZN5MyGUI8TileRect10_setColourERKNS_6ColourE@Base 3.2.0
 _ZN5MyGUI8TileRect10setVisibleEb@Base 3.2.0
 _ZN5MyGUI8TileRect11_updateViewEv@Base 3.2.0
 _ZN5MyGUI8TileRect12_correctViewEv@Base 3.2.0
 _ZN5MyGUI8TileRect12setStateDataEPNS_10IStateInfoE@Base 3.2.0
 _ZN5MyGUI8TileRect14createDrawItemEPNS_8ITextureEPNS_10ILayerNodeE@Base 3.2.0
 _ZN5MyGUI8TileRect15destroyDrawItemEv@Base 3.2.0
 _ZN5MyGUI8TileRect8doRenderEv@Base 3.2.0
 _ZN5MyGUI8TileRect8setAlphaEf@Base 3.2.0
 _ZN5MyGUI8TileRect9_setAlignERKNS_5types5TSizeIiEE@Base 3.2.0
 _ZN5MyGUI8TileRect9_setUVSetERKNS_5types5TRectIfEE@Base 3.2.0
 _ZN5MyGUI8TileRectC1Ev@Base 3.2.0
 _ZN5MyGUI8TileRectC2Ev@Base 3.2.0
 _ZN5MyGUI8TileRectD0Ev@Base 3.2.0
 _ZN5MyGUI8TileRectD1Ev@Base 3.2.0
 _ZN5MyGUI8TileRectD2Ev@Base 3.2.0
 _ZN5MyGUI8UserData11setUserDataENS_3AnyE@Base 3.2.0
 _ZN5MyGUI8UserData13setUserStringERKSsS2_@Base 3.2.0
 _ZN5MyGUI8UserData15clearUserStringERKSs@Base 3.2.0
 _ZN5MyGUI8UserData16_setInternalDataENS_3AnyE@Base 3.2.0
 _ZN5MyGUI8UserData16clearUserStringsEv@Base 3.2.0
 _ZN5MyGUI8UserDataC1Ev@Base 3.2.0
 _ZN5MyGUI8UserDataC2Ev@Base 3.2.0
 _ZN5MyGUI8UserDataD0Ev@Base 3.2.0
 _ZN5MyGUI8UserDataD1Ev@Base 3.2.0
 _ZN5MyGUI8UserDataD2Ev@Base 3.2.0
 _ZN5MyGUI9Constants7mStringE@Base 3.2.0
 _ZN5MyGUI9Constants8mIntSizeE@Base 3.2.0
 _ZN5MyGUI9Constants8mUStringE@Base 3.2.0
 _ZN5MyGUI9Constants9mIntPointE@Base 3.2.0
 _ZN5MyGUI9ExceptionC1ERKS0_@Base 3.2.0
 _ZN5MyGUI9ExceptionC1ERKSsS2_PKcl@Base 3.2.0
 _ZN5MyGUI9ExceptionC2ERKS0_@Base 3.2.0
 _ZN5MyGUI9ExceptionC2ERKSsS2_PKcl@Base 3.2.0
 _ZN5MyGUI9ExceptionD0Ev@Base 3.2.0
 _ZN5MyGUI9ExceptionD1Ev@Base 3.2.0
 _ZN5MyGUI9ExceptionD2Ev@Base 3.2.0
 _ZN5MyGUI9ExceptionaSERKS0_@Base 3.2.0
 _ZN5MyGUI9LayerItem11upLayerItemEv@Base 3.2.0
 _ZN5MyGUI9LayerItem12addChildItemEPS0_@Base 3.2.0
 _ZN5MyGUI9LayerItem12addChildNodeEPS0_@Base 3.2.0
 _ZN5MyGUI9LayerItem13addRenderItemEPNS_10ISubWidgetE@Base 3.2.0
 _ZN5MyGUI9LayerItem13saveLayerItemEv@Base 3.2.0
 _ZN5MyGUI9LayerItem15detachFromLayerEv@Base 3.2.0
 _ZN5MyGUI9LayerItem15removeChildItemEPS0_@Base 3.2.0
 _ZN5MyGUI9LayerItem15removeChildNodeEPS0_@Base 3.2.0
 _ZN5MyGUI9LayerItem16attachItemToNodeEPNS_6ILayerEPNS_10ILayerNodeE@Base 3.2.0
 _ZN5MyGUI9LayerItem16restoreLayerItemEv@Base 3.2.0
 _ZN5MyGUI9LayerItem20removeAllRenderItemsEv@Base 3.2.0
 _ZN5MyGUI9LayerItem20setRenderItemTextureEPNS_8ITextureE@Base 3.2.0
 _ZN5MyGUI9LayerItem21attachToLayerItemNodeEPNS_10ILayerNodeEb@Base 3.2.0
 _ZN5MyGUI9LayerItem23detachFromLayerItemNodeEb@Base 3.2.0
 _ZN5MyGUI9LayerItemC1Ev@Base 3.2.0
 _ZN5MyGUI9LayerItemC2Ev@Base 3.2.0
 _ZN5MyGUI9LayerItemD0Ev@Base 3.2.0
 _ZN5MyGUI9LayerItemD1Ev@Base 3.2.0
 _ZN5MyGUI9LayerItemD2Ev@Base 3.2.0
 _ZN5MyGUI9LayerNode10resizeViewERKNS_5types5TSizeIiEE@Base 3.2.0
 _ZN5MyGUI9LayerNode14renderToTargetEPNS_13IRenderTargetEb@Base 3.2.0
 _ZN5MyGUI9LayerNode15addToRenderItemEPNS_8ITextureEbb@Base 3.2.0
 _ZN5MyGUI9LayerNode15attachLayerItemEPNS_10ILayerItemE@Base 3.2.0
 _ZN5MyGUI9LayerNode15detachLayerItemEPNS_10ILayerItemE@Base 3.2.0
 _ZN5MyGUI9LayerNode15upChildItemNodeEPNS_10ILayerNodeE@Base 3.2.0
 _ZN5MyGUI9LayerNode17updateCompressionEv@Base 3.2.0
 _ZN5MyGUI9LayerNode19createChildItemNodeEv@Base 3.2.0
 _ZN5MyGUI9LayerNode20destroyChildItemNodeEPNS_10ILayerNodeE@Base 3.2.0
 _ZN5MyGUI9LayerNode9outOfDateEPNS_10RenderItemE@Base 3.2.0
 _ZN5MyGUI9LayerNodeC1EPNS_6ILayerEPNS_10ILayerNodeE@Base 3.2.0
 _ZN5MyGUI9LayerNodeC2EPNS_6ILayerEPNS_10ILayerNodeE@Base 3.2.0
 _ZN5MyGUI9LayerNodeD0Ev@Base 3.2.0
 _ZN5MyGUI9LayerNodeD1Ev@Base 3.2.0
 _ZN5MyGUI9LayerNodeD2Ev@Base 3.2.0
 _ZN5MyGUI9LogSource12setLogFilterEPNS_10ILogFilterE@Base 3.2.0
 _ZN5MyGUI9LogSource14addLogListenerEPNS_12ILogListenerE@Base 3.2.0
 _ZN5MyGUI9LogSource3logERKSsNS_8LogLevelEPK2tmS2_PKci@Base 3.2.0
 _ZN5MyGUI9LogSource4openEv@Base 3.2.0
 _ZN5MyGUI9LogSource5closeEv@Base 3.2.0
 _ZN5MyGUI9LogSource5flushEv@Base 3.2.0
 _ZN5MyGUI9LogSourceC1Ev@Base 3.2.0
 _ZN5MyGUI9LogSourceC2Ev@Base 3.2.0
 _ZN5MyGUI9LogSourceD1Ev@Base 3.2.0
 _ZN5MyGUI9LogSourceD2Ev@Base 3.2.0
 _ZN5MyGUI9LogStreamC1Ev@Base 3.2.0
 _ZN5MyGUI9LogStreamC2Ev@Base 3.2.0
 _ZN5MyGUI9PopupMenuC1Ev@Base 3.2.0
 _ZN5MyGUI9PopupMenuC2Ev@Base 3.2.0
 _ZN5MyGUI9PopupMenuD0Ev@Base 3.2.0
 _ZN5MyGUI9PopupMenuD1Ev@Base 3.2.0
 _ZN5MyGUI9PopupMenuD2Ev@Base 3.2.0
 _ZN5MyGUI9ScrollBar11setPositionERKNS_5types6TPointIiEE@Base 3.2.0
 _ZN5MyGUI9ScrollBar11setPositionEii@Base 3.2.0
 _ZN5MyGUI9ScrollBar11updateTrackEv@Base 3.2.0
 _ZN5MyGUI9ScrollBar12onMouseWheelEi@Base 3.2.0
 _ZN5MyGUI9ScrollBar12setTrackSizeEi@Base 3.2.0
 _ZN5MyGUI9ScrollBar13setScrollPageEj@Base 3.2.0
 _ZN5MyGUI9ScrollBar14setMoveToClickEb@Base 3.2.0
 _ZN5MyGUI9ScrollBar14setScrollRangeEj@Base 3.2.0
 _ZN5MyGUI9ScrollBar15notifyMouseDragEPNS_6WidgetEiiNS_11MouseButtonE@Base 3.2.0
 _ZN5MyGUI9ScrollBar15setMinTrackSizeEi@Base 3.2.0
 _ZN5MyGUI9ScrollBar16notifyMouseWheelEPNS_6WidgetEi@Base 3.2.0
 _ZN5MyGUI9ScrollBar16shutdownOverrideEv@Base 3.2.0
 _ZN5MyGUI9ScrollBar17setScrollPositionEj@Base 3.2.0
 _ZN5MyGUI9ScrollBar17setScrollViewPageEj@Base 3.2.0
 _ZN5MyGUI9ScrollBar18initialiseOverrideEv@Base 3.2.0
 _ZN5MyGUI9ScrollBar18notifyMousePressedEPNS_6WidgetEiiNS_11MouseButtonE@Base 3.2.0
 _ZN5MyGUI9ScrollBar19notifyMouseReleasedEPNS_6WidgetEiiNS_11MouseButtonE@Base 3.2.0
 _ZN5MyGUI9ScrollBar19setPropertyOverrideERKSsS2_@Base 3.2.0
 _ZN5MyGUI9ScrollBar20setVerticalAlignmentEb@Base 3.2.0
 _ZN5MyGUI9ScrollBar7setSizeERKNS_5types5TSizeIiEE@Base 3.2.0
 _ZN5MyGUI9ScrollBar7setSizeEii@Base 3.2.0
 _ZN5MyGUI9ScrollBar8setCoordERKNS_5types6TCoordIiEE@Base 3.2.0
 _ZN5MyGUI9ScrollBar8setCoordEiiii@Base 3.2.0
 _ZN5MyGUI9ScrollBar9TrackMoveEii@Base 3.2.0
 _ZN5MyGUI9ScrollBarC1Ev@Base 3.2.0
 _ZN5MyGUI9ScrollBarC2Ev@Base 3.2.0
 _ZN5MyGUI9ScrollBarD0Ev@Base 3.2.0
 _ZN5MyGUI9ScrollBarD1Ev@Base 3.2.0
 _ZN5MyGUI9ScrollBarD2Ev@Base 3.2.0
 _ZN5MyGUI9SingletonINS_11DataManagerEE10msInstanceE@Base 3.2.0
 (optional=templinst)_ZN5MyGUI9SingletonINS_11DataManagerEE11getInstanceEv@Base 3.2.0
 _ZN5MyGUI9SingletonINS_11DataManagerEE14mClassTypeNameE@Base 3.2.0
 _ZN5MyGUI9SingletonINS_11FontManagerEE10msInstanceE@Base 3.2.0
 (optional=templinst)_ZN5MyGUI9SingletonINS_11FontManagerEE11getInstanceEv@Base 3.2.0
 _ZN5MyGUI9SingletonINS_11FontManagerEE14mClassTypeNameE@Base 3.2.0
 (optional=templinst)_ZN5MyGUI9SingletonINS_11FontManagerEEC1Ev@Base 3.2.0
 (optional=templinst)_ZN5MyGUI9SingletonINS_11FontManagerEEC2Ev@Base 3.2.0
 (optional=templinst)_ZN5MyGUI9SingletonINS_11FontManagerEED0Ev@Base 3.2.0
 (optional=templinst)_ZN5MyGUI9SingletonINS_11FontManagerEED1Ev@Base 3.2.0
 (optional=templinst)_ZN5MyGUI9SingletonINS_11FontManagerEED2Ev@Base 3.2.0
 _ZN5MyGUI9SingletonINS_11SkinManagerEE10msInstanceE@Base 3.2.0
 (optional=templinst)_ZN5MyGUI9SingletonINS_11SkinManagerEE11getInstanceEv@Base 3.2.0
 _ZN5MyGUI9SingletonINS_11SkinManagerEE14mClassTypeNameE@Base 3.2.0
 (optional=templinst)_ZN5MyGUI9SingletonINS_11SkinManagerEEC1Ev@Base 3.2.0
 (optional=templinst)_ZN5MyGUI9SingletonINS_11SkinManagerEEC2Ev@Base 3.2.0
 (optional=templinst)_ZN5MyGUI9SingletonINS_11SkinManagerEED0Ev@Base 3.2.0
 (optional=templinst)_ZN5MyGUI9SingletonINS_11SkinManagerEED1Ev@Base 3.2.0
 (optional=templinst)_ZN5MyGUI9SingletonINS_11SkinManagerEED2Ev@Base 3.2.0
 _ZN5MyGUI9SingletonINS_12InputManagerEE10msInstanceE@Base 3.2.0
 (optional=templinst)_ZN5MyGUI9SingletonINS_12InputManagerEE11getInstanceEv@Base 3.2.0
 _ZN5MyGUI9SingletonINS_12InputManagerEE14mClassTypeNameE@Base 3.2.0
 (optional=templinst)_ZN5MyGUI9SingletonINS_12InputManagerEEC1Ev@Base 3.2.0
 (optional=templinst)_ZN5MyGUI9SingletonINS_12InputManagerEEC2Ev@Base 3.2.0
 (optional=templinst)_ZN5MyGUI9SingletonINS_12InputManagerEED0Ev@Base 3.2.0
 (optional=templinst)_ZN5MyGUI9SingletonINS_12InputManagerEED1Ev@Base 3.2.0
 (optional=templinst)_ZN5MyGUI9SingletonINS_12InputManagerEED2Ev@Base 3.2.0
 _ZN5MyGUI9SingletonINS_12LayerManagerEE10msInstanceE@Base 3.2.0
 (optional=templinst)_ZN5MyGUI9SingletonINS_12LayerManagerEE11getInstanceEv@Base 3.2.0
 _ZN5MyGUI9SingletonINS_12LayerManagerEE14mClassTypeNameE@Base 3.2.0
 (optional=templinst)_ZN5MyGUI9SingletonINS_12LayerManagerEEC1Ev@Base 3.2.0
 (optional=templinst)_ZN5MyGUI9SingletonINS_12LayerManagerEEC2Ev@Base 3.2.0
 (optional=templinst)_ZN5MyGUI9SingletonINS_12LayerManagerEED0Ev@Base 3.2.0
 (optional=templinst)_ZN5MyGUI9SingletonINS_12LayerManagerEED1Ev@Base 3.2.0
 (optional=templinst)_ZN5MyGUI9SingletonINS_12LayerManagerEED2Ev@Base 3.2.0
 _ZN5MyGUI9SingletonINS_13DynLibManagerEE10msInstanceE@Base 3.2.0
 _ZN5MyGUI9SingletonINS_13DynLibManagerEE14mClassTypeNameE@Base 3.2.0
 (optional=templinst)_ZN5MyGUI9SingletonINS_13DynLibManagerEEC1Ev@Base 3.2.0
 (optional=templinst)_ZN5MyGUI9SingletonINS_13DynLibManagerEEC2Ev@Base 3.2.0
 (optional=templinst)_ZN5MyGUI9SingletonINS_13DynLibManagerEED0Ev@Base 3.2.0
 (optional=templinst)_ZN5MyGUI9SingletonINS_13DynLibManagerEED1Ev@Base 3.2.0
 (optional=templinst)_ZN5MyGUI9SingletonINS_13DynLibManagerEED2Ev@Base 3.2.0
 _ZN5MyGUI9SingletonINS_13LayoutManagerEE10msInstanceE@Base 3.2.0
 (optional=templinst)_ZN5MyGUI9SingletonINS_13LayoutManagerEE11getInstanceEv@Base 3.2.0
 _ZN5MyGUI9SingletonINS_13LayoutManagerEE14mClassTypeNameE@Base 3.2.0
 (optional=templinst)_ZN5MyGUI9SingletonINS_13LayoutManagerEEC1Ev@Base 3.2.0
 (optional=templinst)_ZN5MyGUI9SingletonINS_13LayoutManagerEEC2Ev@Base 3.2.0
 (optional=templinst)_ZN5MyGUI9SingletonINS_13LayoutManagerEED0Ev@Base 3.2.0
 (optional=templinst)_ZN5MyGUI9SingletonINS_13LayoutManagerEED1Ev@Base 3.2.0
 (optional=templinst)_ZN5MyGUI9SingletonINS_13LayoutManagerEED2Ev@Base 3.2.0
 _ZN5MyGUI9SingletonINS_13PluginManagerEE10msInstanceE@Base 3.2.0
 _ZN5MyGUI9SingletonINS_13PluginManagerEE14mClassTypeNameE@Base 3.2.0
 (optional=templinst)_ZN5MyGUI9SingletonINS_13PluginManagerEEC1Ev@Base 3.2.0
 (optional=templinst)_ZN5MyGUI9SingletonINS_13PluginManagerEEC2Ev@Base 3.2.0
 (optional=templinst)_ZN5MyGUI9SingletonINS_13PluginManagerEED0Ev@Base 3.2.0
 (optional=templinst)_ZN5MyGUI9SingletonINS_13PluginManagerEED1Ev@Base 3.2.0
 (optional=templinst)_ZN5MyGUI9SingletonINS_13PluginManagerEED2Ev@Base 3.2.0
 _ZN5MyGUI9SingletonINS_13RenderManagerEE10msInstanceE@Base 3.2.0
 (optional=templinst)_ZN5MyGUI9SingletonINS_13RenderManagerEE11getInstanceEv@Base 3.2.0
 _ZN5MyGUI9SingletonINS_13RenderManagerEE14mClassTypeNameE@Base 3.2.0
 (optional=templinst)_ZN5MyGUI9SingletonINS_13RenderManagerEED0Ev@Base 3.2.0
 (optional=templinst)_ZN5MyGUI9SingletonINS_13RenderManagerEED1Ev@Base 3.2.0
 (optional=templinst)_ZN5MyGUI9SingletonINS_13RenderManagerEED2Ev@Base 3.2.0
 _ZN5MyGUI9SingletonINS_13WidgetManagerEE10msInstanceE@Base 3.2.0
 (optional=templinst)_ZN5MyGUI9SingletonINS_13WidgetManagerEE11getInstanceEv@Base 3.2.0
 _ZN5MyGUI9SingletonINS_13WidgetManagerEE14mClassTypeNameE@Base 3.2.0
 (optional=templinst)_ZN5MyGUI9SingletonINS_13WidgetManagerEEC1Ev@Base 3.2.0
 (optional=templinst)_ZN5MyGUI9SingletonINS_13WidgetManagerEEC2Ev@Base 3.2.0
 (optional=templinst)_ZN5MyGUI9SingletonINS_13WidgetManagerEED0Ev@Base 3.2.0
 (optional=templinst)_ZN5MyGUI9SingletonINS_13WidgetManagerEED1Ev@Base 3.2.0
 (optional=templinst)_ZN5MyGUI9SingletonINS_13WidgetManagerEED2Ev@Base 3.2.0
 _ZN5MyGUI9SingletonINS_14FactoryManagerEE10msInstanceE@Base 3.2.0
 (optional=templinst)_ZN5MyGUI9SingletonINS_14FactoryManagerEE11getInstanceEv@Base 3.2.0
 _ZN5MyGUI9SingletonINS_14FactoryManagerEE14mClassTypeNameE@Base 3.2.0
 (optional=templinst)_ZN5MyGUI9SingletonINS_14FactoryManagerEEC1Ev@Base 3.2.0
 (optional=templinst)_ZN5MyGUI9SingletonINS_14FactoryManagerEEC2Ev@Base 3.2.0
 (optional=templinst)_ZN5MyGUI9SingletonINS_14FactoryManagerEED0Ev@Base 3.2.0
 (optional=templinst)_ZN5MyGUI9SingletonINS_14FactoryManagerEED1Ev@Base 3.2.0
 (optional=templinst)_ZN5MyGUI9SingletonINS_14FactoryManagerEED2Ev@Base 3.2.0
 _ZN5MyGUI9SingletonINS_14PointerManagerEE10msInstanceE@Base 3.2.0
 (optional=templinst)_ZN5MyGUI9SingletonINS_14PointerManagerEE11getInstanceEv@Base 3.2.0
 _ZN5MyGUI9SingletonINS_14PointerManagerEE14mClassTypeNameE@Base 3.2.0
 (optional=templinst)_ZN5MyGUI9SingletonINS_14PointerManagerEEC1Ev@Base 3.2.0
 (optional=templinst)_ZN5MyGUI9SingletonINS_14PointerManagerEEC2Ev@Base 3.2.0
 (optional=templinst)_ZN5MyGUI9SingletonINS_14PointerManagerEED0Ev@Base 3.2.0
 (optional=templinst)_ZN5MyGUI9SingletonINS_14PointerManagerEED1Ev@Base 3.2.0
 (optional=templinst)_ZN5MyGUI9SingletonINS_14PointerManagerEED2Ev@Base 3.2.0
 _ZN5MyGUI9SingletonINS_14ToolTipManagerEE10msInstanceE@Base 3.2.0
 (optional=templinst)_ZN5MyGUI9SingletonINS_14ToolTipManagerEE11getInstanceEv@Base 3.2.0
 _ZN5MyGUI9SingletonINS_14ToolTipManagerEE14mClassTypeNameE@Base 3.2.0
 (optional=templinst)_ZN5MyGUI9SingletonINS_14ToolTipManagerEEC1Ev@Base 3.2.0
 (optional=templinst)_ZN5MyGUI9SingletonINS_14ToolTipManagerEEC2Ev@Base 3.2.0
 (optional=templinst)_ZN5MyGUI9SingletonINS_14ToolTipManagerEED0Ev@Base 3.2.0
 (optional=templinst)_ZN5MyGUI9SingletonINS_14ToolTipManagerEED1Ev@Base 3.2.0
 (optional=templinst)_ZN5MyGUI9SingletonINS_14ToolTipManagerEED2Ev@Base 3.2.0
 _ZN5MyGUI9SingletonINS_15LanguageManagerEE10msInstanceE@Base 3.2.0
 _ZN5MyGUI9SingletonINS_15LanguageManagerEE14mClassTypeNameE@Base 3.2.0
 (optional=templinst)_ZN5MyGUI9SingletonINS_15LanguageManagerEEC1Ev@Base 3.2.0
 (optional=templinst)_ZN5MyGUI9SingletonINS_15LanguageManagerEEC2Ev@Base 3.2.0
 (optional=templinst)_ZN5MyGUI9SingletonINS_15LanguageManagerEED0Ev@Base 3.2.0
 (optional=templinst)_ZN5MyGUI9SingletonINS_15LanguageManagerEED1Ev@Base 3.2.0
 (optional=templinst)_ZN5MyGUI9SingletonINS_15LanguageManagerEED2Ev@Base 3.2.0
 _ZN5MyGUI9SingletonINS_15ResourceManagerEE10msInstanceE@Base 3.2.0
 (optional=templinst)_ZN5MyGUI9SingletonINS_15ResourceManagerEE11getInstanceEv@Base 3.2.0
 _ZN5MyGUI9SingletonINS_15ResourceManagerEE14mClassTypeNameE@Base 3.2.0
 (optional=templinst)_ZN5MyGUI9SingletonINS_15ResourceManagerEEC1Ev@Base 3.2.0
 (optional=templinst)_ZN5MyGUI9SingletonINS_15ResourceManagerEEC2Ev@Base 3.2.0
 (optional=templinst)_ZN5MyGUI9SingletonINS_15ResourceManagerEED0Ev@Base 3.2.0
 (optional=templinst)_ZN5MyGUI9SingletonINS_15ResourceManagerEED1Ev@Base 3.2.0
 (optional=templinst)_ZN5MyGUI9SingletonINS_15ResourceManagerEED2Ev@Base 3.2.0
 _ZN5MyGUI9SingletonINS_16ClipboardManagerEE10msInstanceE@Base 3.2.0
 (optional=templinst)_ZN5MyGUI9SingletonINS_16ClipboardManagerEE11getInstanceEv@Base 3.2.0
 _ZN5MyGUI9SingletonINS_16ClipboardManagerEE14mClassTypeNameE@Base 3.2.0
 (optional=templinst)_ZN5MyGUI9SingletonINS_16ClipboardManagerEEC1Ev@Base 3.2.0
 (optional=templinst)_ZN5MyGUI9SingletonINS_16ClipboardManagerEEC2Ev@Base 3.2.0
 (optional=templinst)_ZN5MyGUI9SingletonINS_16ClipboardManagerEED0Ev@Base 3.2.0
 (optional=templinst)_ZN5MyGUI9SingletonINS_16ClipboardManagerEED1Ev@Base 3.2.0
 (optional=templinst)_ZN5MyGUI9SingletonINS_16ClipboardManagerEED2Ev@Base 3.2.0
 _ZN5MyGUI9SingletonINS_16SubWidgetManagerEE10msInstanceE@Base 3.2.0
 _ZN5MyGUI9SingletonINS_16SubWidgetManagerEE14mClassTypeNameE@Base 3.2.0
 (optional=templinst)_ZN5MyGUI9SingletonINS_16SubWidgetManagerEEC1Ev@Base 3.2.0
 (optional=templinst)_ZN5MyGUI9SingletonINS_16SubWidgetManagerEEC2Ev@Base 3.2.0
 (optional=templinst)_ZN5MyGUI9SingletonINS_16SubWidgetManagerEED0Ev@Base 3.2.0
 (optional=templinst)_ZN5MyGUI9SingletonINS_16SubWidgetManagerEED1Ev@Base 3.2.0
 (optional=templinst)_ZN5MyGUI9SingletonINS_16SubWidgetManagerEED2Ev@Base 3.2.0
 _ZN5MyGUI9SingletonINS_17ControllerManagerEE10msInstanceE@Base 3.2.0
 (optional=templinst)_ZN5MyGUI9SingletonINS_17ControllerManagerEE11getInstanceEv@Base 3.2.0
 _ZN5MyGUI9SingletonINS_17ControllerManagerEE14mClassTypeNameE@Base 3.2.0
 (optional=templinst)_ZN5MyGUI9SingletonINS_17ControllerManagerEEC1Ev@Base 3.2.0
 (optional=templinst)_ZN5MyGUI9SingletonINS_17ControllerManagerEEC2Ev@Base 3.2.0
 (optional=templinst)_ZN5MyGUI9SingletonINS_17ControllerManagerEED0Ev@Base 3.2.0
 (optional=templinst)_ZN5MyGUI9SingletonINS_17ControllerManagerEED1Ev@Base 3.2.0
 (optional=templinst)_ZN5MyGUI9SingletonINS_17ControllerManagerEED2Ev@Base 3.2.0
 _ZN5MyGUI9SingletonINS_3GuiEE10msInstanceE@Base 3.2.0
 (optional=templinst)_ZN5MyGUI9SingletonINS_3GuiEE11getInstanceEv@Base 3.2.0
 _ZN5MyGUI9SingletonINS_3GuiEE14mClassTypeNameE@Base 3.2.0
 (optional=templinst)_ZN5MyGUI9SingletonINS_3GuiEEC1Ev@Base 3.2.0
 (optional=templinst)_ZN5MyGUI9SingletonINS_3GuiEEC2Ev@Base 3.2.0
 (optional=templinst)_ZN5MyGUI9SingletonINS_3GuiEED0Ev@Base 3.2.0
 (optional=templinst)_ZN5MyGUI9SingletonINS_3GuiEED1Ev@Base 3.2.0
 (optional=templinst)_ZN5MyGUI9SingletonINS_3GuiEED2Ev@Base 3.2.0
 (optional=templinst)_ZN9__gnu_cxx11char_traitsItE4copyEPtPKtj@Base 3.2.0
 _ZNK5MyGUI10LogManager15getLoggingLevelEv@Base 3.2.0
 _ZNK5MyGUI10LogManager19getSTDOutputEnabledEv@Base 3.2.0
 _ZNK5MyGUI10RenderItem11isOutOfDateEv@Base 3.2.0
 _ZNK5MyGUI10RenderItem14getVertexCountEv@Base 3.2.0
 _ZNK5MyGUI10RenderItem15getManualRenderEv@Base 3.2.0
 _ZNK5MyGUI10RenderItem16getCurrentUpdateEv@Base 3.2.0
 _ZNK5MyGUI10RenderItem18getNeedVertexCountEv@Base 3.2.0
 _ZNK5MyGUI10RenderItem22getCurrentVertexBufferEv@Base 3.2.0
 _ZNK5MyGUI10ScrollView12getViewCoordEv@Base 3.2.0
 _ZNK5MyGUI10ScrollView13getViewOffsetEv@Base 3.2.0
 _ZNK5MyGUI10ScrollView14getCanvasAlignEv@Base 3.2.0
 _ZNK5MyGUI10ScrollView16isVisibleHScrollEv@Base 3.2.0
 _ZNK5MyGUI10ScrollView16isVisibleVScrollEv@Base 3.2.0
 _ZNK5MyGUI10TabControl12getItemCountEv@Base 3.2.0
 _ZNK5MyGUI10TabControl13getSmoothShowEv@Base 3.2.0
 _ZNK5MyGUI10TabControl16getIndexSelectedEv@Base 3.2.0
 _ZNK5MyGUI10TabControl18getButtonAutoWidthEv@Base 3.2.0
 _ZNK5MyGUI10TabControl21getButtonDefaultWidthEv@Base 3.2.0
 _ZNK5MyGUI11BiIndexBase13convertToBackEj@Base 3.2.0
 _ZNK5MyGUI11BiIndexBase13convertToFaceEj@Base 3.2.0
 _ZNK5MyGUI11BiIndexBase13getIndexCountEv@Base 3.2.0
 _ZNK5MyGUI11DDContainer15getNeedDragDropEv@Base 3.2.0
 _ZNK5MyGUI11FontManager14getDefaultFontEv@Base 3.2.0
 _ZNK5MyGUI11FontManager9getByNameERKSs@Base 3.2.0
 _ZNK5MyGUI11MenuControl11getItemTypeEbb@Base 3.2.0
 _ZNK5MyGUI11MenuControl12getItemCountEv@Base 3.2.0
 _ZNK5MyGUI11MenuControl13getSkinByTypeENS_12MenuItemTypeE@Base 3.2.0
 _ZNK5MyGUI11MenuControl14getPopupAcceptEv@Base 3.2.0
 _ZNK5MyGUI11MenuControl18getIconIndexByTypeENS_12MenuItemTypeE@Base 3.2.0
 _ZNK5MyGUI11MenuControl20getVerticalAlignmentEv@Base 3.2.0
 _ZNK5MyGUI11ProgressBar16getFlowDirectionEv@Base 3.2.0
 _ZNK5MyGUI11ProgressBar16getProgressRangeEv@Base 3.2.0
 _ZNK5MyGUI11ProgressBar19getProgressPositionEv@Base 3.2.0
 _ZNK5MyGUI11ProgressBar20getProgressAutoTrackEv@Base 3.2.0
 _ZNK5MyGUI11SharedLayer11getPositionEii@Base 3.2.0
 _ZNK5MyGUI11SharedLayer11isOutOfDateEv@Base 3.2.0
 _ZNK5MyGUI11SharedLayer13getEnumeratorEv@Base 3.2.0
 _ZNK5MyGUI11SharedLayer19getLayerItemByPointEii@Base 3.2.0
 _ZNK5MyGUI11SharedLayer7getSizeEv@Base 3.2.0
 _ZNK5MyGUI11SkinManager14getDefaultSkinEv@Base 3.2.0
 _ZNK5MyGUI11SkinManager7isExistERKSs@Base 3.2.0
 _ZNK5MyGUI11SkinManager9getByNameERKSs@Base 3.2.0
 _ZNK5MyGUI11WidgetInput10getPointerEv@Base 3.2.0
 _ZNK5MyGUI11WidgetInput14getNeedToolTipEv@Base 3.2.0
 _ZNK5MyGUI11WidgetInput15getInheritsPickEv@Base 3.2.0
 _ZNK5MyGUI11WidgetInput15getNeedKeyFocusEv@Base 3.2.0
 _ZNK5MyGUI11WidgetInput15getRootKeyFocusEv@Base 3.2.0
 _ZNK5MyGUI11WidgetInput16isMaskPickInsideERKNS_5types6TPointIiEERKNS1_6TCoordIiEE@Base 3.2.0
 _ZNK5MyGUI11WidgetInput17getNeedMouseFocusEv@Base 3.2.0
 _ZNK5MyGUI11WidgetInput17getRootMouseFocusEv@Base 3.2.0
 _ZNK5MyGUI12InputManager10isFocusKeyEv@Base 3.2.0
 _ZNK5MyGUI12InputManager10isModalAnyEv@Base 3.2.0
 _ZNK5MyGUI12InputManager12isFocusMouseEv@Base 3.2.0
 _ZNK5MyGUI12InputManager14isCaptureMouseEv@Base 3.2.0
 _ZNK5MyGUI12InputManager14isShiftPressedEv@Base 3.2.0
 _ZNK5MyGUI12InputManager16getMousePositionEv@Base 3.2.0
 _ZNK5MyGUI12InputManager16isControlPressedEv@Base 3.2.0
 _ZNK5MyGUI12InputManager17getKeyFocusWidgetEv@Base 3.2.0
 _ZNK5MyGUI12InputManager19getMouseFocusWidgetEv@Base 3.2.0
 _ZNK5MyGUI12InputManager22getLastPressedPositionENS_11MouseButtonE@Base 3.2.0
 _ZNK5MyGUI12LayerManager13getEnumeratorEv@Base 3.2.0
 _ZNK5MyGUI12LayerManager7isExistERKSs@Base 3.2.0
 _ZNK5MyGUI12LayerManager9getByNameERKSsb@Base 3.2.0
 _ZNK5MyGUI12MaskPickInfo4pickERKNS_5types6TPointIiEERKNS1_6TCoordIiEE@Base 3.2.0
 _ZNK5MyGUI12MaskPickInfo5emptyEv@Base 3.2.0
 _ZNK5MyGUI12MultiListBox12getItemCountEv@Base 3.2.0
 _ZNK5MyGUI12MultiListBox14getColumnCountEv@Base 3.2.0
 _ZNK5MyGUI12MultiListBox14getColumnWidthEjijji@Base 3.2.0
 _ZNK5MyGUI12MultiListBox15getButtonHeightEv@Base 3.2.0
 _ZNK5MyGUI12MultiListBox16getIndexSelectedEv@Base 3.2.0
 _ZNK5MyGUI12ResourceSkin11getSkinNameEv@Base 3.2.0
 _ZNK5MyGUI12ResourceSkin12getBasisInfoEv@Base 3.2.0
 _ZNK5MyGUI12ResourceSkin12getStateInfoEv@Base 3.2.0
 _ZNK5MyGUI12ResourceSkin13getPropertiesEv@Base 3.2.0
 _ZNK5MyGUI12ResourceSkin14getTextureNameEv@Base 3.2.0
 _ZNK5MyGUI12ResourceSkin7getSizeEv@Base 3.2.0
 _ZNK5MyGUI12ResourceSkin8getChildEv@Base 3.2.0
 _ZNK5MyGUI12RotatingSkin8getAngleEv@Base 3.2.0
 _ZNK5MyGUI12RotatingSkin9getCenterEb@Base 3.2.0
 _ZNK5MyGUI12TextIterator11getPositionEv@Base 3.2.0
 _ZNK5MyGUI12TextIterator12getTagColourERNS_7UStringE@Base 3.2.0
 _ZNK5MyGUI12TextIterator12getTagColourERNS_7UStringERNS1_13_fwd_iteratorE@Base 3.2.0
 _ZNK5MyGUI12TextIterator7getSizeEv@Base 3.2.0
 _ZNK5MyGUI12TextIterator7getTextEv@Base 3.2.0
 _ZNK5MyGUI13LayoutManager16getCurrentLayoutEv@Base 3.2.0
 _ZNK5MyGUI13LayoutManager7isExistERKSs@Base 3.2.0
 _ZNK5MyGUI13LayoutManager9getByNameERKSsb@Base 3.2.0
 _ZNK5MyGUI14LevelLogFilter15getLoggingLevelEv@Base 3.2.0
 (optional=templinst)_ZNK5MyGUI14MemberObsoleteINS_12InputManagerEE18getLastLeftPressedEv@Base 3.2.0
 (optional=templinst)_ZNK5MyGUI14MemberObsoleteINS_12InputManagerEE19getLastRightPressedEv@Base 3.2.0
 _ZNK5MyGUI14PointerManager12getLayerNameEv@Base 3.2.0
 _ZNK5MyGUI14PointerManager17getDefaultPointerEv@Base 3.2.0
 _ZNK5MyGUI14PointerManager9getByNameERKSs@Base 3.2.0
 _ZNK5MyGUI14PointerManager9isVisibleEv@Base 3.2.0
 _ZNK5MyGUI14ResourceLayout13getLayoutDataEv@Base 3.2.0
 _ZNK5MyGUI14ToolTipManager15getDelayVisibleEv@Base 3.2.0
 _ZNK5MyGUI14ToolTipManager15getToolTipIndexEPNS_6WidgetE@Base 3.2.0
 _ZNK5MyGUI15FileLogListener11getFileNameEv@Base 3.2.0
 _ZNK5MyGUI15LanguageManager18getCurrentLanguageEv@Base 3.2.0
 _ZNK5MyGUI15OverlappedLayer11getPositionEii@Base 3.2.0
 _ZNK5MyGUI15OverlappedLayer11isOutOfDateEv@Base 3.2.0
 _ZNK5MyGUI15OverlappedLayer13getEnumeratorEv@Base 3.2.0
 _ZNK5MyGUI15OverlappedLayer19getLayerItemByPointEii@Base 3.2.0
 _ZNK5MyGUI15OverlappedLayer7getSizeEv@Base 3.2.0
 _ZNK5MyGUI15ResourceManager10findByNameERKSs@Base 3.2.0
 _ZNK5MyGUI15ResourceManager13getEnumeratorEv@Base 3.2.0
 _ZNK5MyGUI15ResourceManager7isExistERKSs@Base 3.2.0
 _ZNK5MyGUI15ResourceManager8getCountEv@Base 3.2.0
 _ZNK5MyGUI15ResourceManager9getByNameERKSsb@Base 3.2.0
 _ZNK5MyGUI15SharedLayerNode10countUsingEv@Base 3.2.0
 _ZNK5MyGUI16ResourceImageSet13getEnumeratorEv@Base 3.2.0
 _ZNK5MyGUI18ConsoleLogListener10getEnabledEv@Base 3.2.0
 _ZNK5MyGUI20ResourceTrueTypeFont18getCodePointRangesEv@Base 3.2.0
 _ZNK5MyGUI20ResourceTrueTypeFont22getSubstituteCodePointEv@Base 3.2.0
 _ZNK5MyGUI3Any10castUnsafeEv@Base 3.2.0
 _ZNK5MyGUI3Any5emptyEv@Base 3.2.0
 (optional=templinst)_ZNK5MyGUI3Any6HolderIiE5cloneEv@Base 3.2.0
 (optional=templinst)_ZNK5MyGUI3Any6HolderIiE7getTypeEv@Base 3.2.0
 (optional=templinst)_ZNK5MyGUI3Any6HolderIjE5cloneEv@Base 3.2.0
 (optional=templinst)_ZNK5MyGUI3Any6HolderIjE7getTypeEv@Base 3.2.0
 _ZNK5MyGUI3Any7getTypeEv@Base 3.2.0
 (optional=templinst)_ZNK5MyGUI3Any8castTypeIjEEPT_b@Base 3.2.0
 _ZNK5MyGUI3Gui13getEnumeratorEv@Base 3.2.0
 _ZNK5MyGUI3xml17ElementEnumeratorptEv@Base 3.2.0
 _ZNK5MyGUI3xml7Element10getContentEv@Base 3.2.0
 _ZNK5MyGUI3xml7Element13getAttributesEv@Base 3.2.0
 _ZNK5MyGUI3xml7Element7getNameEv@Base 3.2.0
 _ZNK5MyGUI3xml7Element7getTypeEv@Base 3.2.0
 _ZNK5MyGUI3xml7Element9getParentEv@Base 3.2.0
 _ZNK5MyGUI3xml8Document7getRootEv@Base 3.2.0
 _ZNK5MyGUI6Button12getModeImageEv@Base 3.2.0
 _ZNK5MyGUI6Button16getStateSelectedEv@Base 3.2.0
 _ZNK5MyGUI6Canvas10getTextureEv@Base 3.2.0
 _ZNK5MyGUI6Canvas11checkCreateEii@Base 3.2.0
 _ZNK5MyGUI6Canvas13getResizeModeEv@Base 3.2.0
 _ZNK5MyGUI6Canvas14getTextureNameEv@Base 3.2.0
 _ZNK5MyGUI6Canvas16getTextureFormatEv@Base 3.2.0
 _ZNK5MyGUI6Canvas16isTextureCreatedEv@Base 3.2.0
 _ZNK5MyGUI6Canvas16isTextureManagedEv@Base 3.2.0
 _ZNK5MyGUI6Canvas16isTextureSrcSizeEv@Base 3.2.0
 _ZNK5MyGUI6Canvas17getTextureSrcSizeEv@Base 3.2.0
 _ZNK5MyGUI6Canvas18getTextureRealSizeEv@Base 3.2.0
 _ZNK5MyGUI6Canvas18getTextureSrcWidthEv@Base 3.2.0
 _ZNK5MyGUI6Canvas19getTextureRealWidthEv@Base 3.2.0
 _ZNK5MyGUI6Canvas19getTextureSrcHeightEv@Base 3.2.0
 _ZNK5MyGUI6Canvas20getTextureRealHeightEv@Base 3.2.0
 _ZNK5MyGUI6Canvas8isLockedEv@Base 3.2.0
 _ZNK5MyGUI6Canvas8validateERiS1_RNS_12TextureUsageERNS_11PixelFormatE@Base 3.2.0
 _ZNK5MyGUI6Colour5printEv@Base 3.2.0
 _ZNK5MyGUI6ColoureqERKS0_@Base 3.2.0
 _ZNK5MyGUI6ColourneERKS0_@Base 3.2.0
 _ZNK5MyGUI6DynLib11dynlibErrorEv@Base 3.2.0
 _ZNK5MyGUI6DynLib7getNameEv@Base 3.2.0
 _ZNK5MyGUI6DynLib9getSymbolERKSs@Base 3.2.0
 _ZNK5MyGUI6Widget10getEnabledEv@Base 3.2.0
 _ZNK5MyGUI6Widget10getVisibleEv@Base 3.2.0
 _ZNK5MyGUI6Widget11_checkPointEii@Base 3.2.0
 _ZNK5MyGUI6Widget12isRootWidgetEv@Base 3.2.0
 _ZNK5MyGUI6Widget13_getRealAlphaEv@Base 3.2.0
 _ZNK5MyGUI6Widget13getEnumeratorEv@Base 3.2.0
 _ZNK5MyGUI6Widget13getParentSizeEv@Base 3.2.0
 _ZNK5MyGUI6Widget14getWidgetStyleEv@Base 3.2.0
 _ZNK5MyGUI6Widget16getInheritsAlphaEv@Base 3.2.0
 _ZNK5MyGUI6Widget17getLayerItemCoordEv@Base 3.2.0
 _ZNK5MyGUI6Widget19getInheritedEnabledEv@Base 3.2.0
 _ZNK5MyGUI6Widget19getInheritedVisibleEv@Base 3.2.0
 _ZNK5MyGUI6Widget19getLayerItemByPointEii@Base 3.2.0
 _ZNK5MyGUI6Widget7getNameEv@Base 3.2.0
 _ZNK5MyGUI6Widget8getAlignEv@Base 3.2.0
 _ZNK5MyGUI6Widget8getAlphaEv@Base 3.2.0
 _ZNK5MyGUI6Widget9getParentEv@Base 3.2.0
 _ZNK5MyGUI6Window10getMovableEv@Base 3.2.0
 _ZNK5MyGUI6Window12getAutoAlphaEv@Base 3.2.0
 _ZNK5MyGUI6Window14getActionScaleEv@Base 3.2.0
 _ZNK5MyGUI6Window15getAlphaVisibleEv@Base 3.2.0
 _ZNK5MyGUI6Window7getSnapEv@Base 3.2.0
 _ZNK5MyGUI7EditBox13getEditStaticEv@Base 3.2.0
 _ZNK5MyGUI7EditBox13getTextCursorEv@Base 3.2.0
 _ZNK5MyGUI7EditBox13getTextLengthEv@Base 3.2.0
 _ZNK5MyGUI7EditBox14getTabPrintingEv@Base 3.2.0
 _ZNK5MyGUI7EditBox15getEditPasswordEv@Base 3.2.0
 _ZNK5MyGUI7EditBox15getEditReadOnlyEv@Base 3.2.0
 _ZNK5MyGUI7EditBox15getEditWordWrapEv@Base 3.2.0
 _ZNK5MyGUI7EditBox15getHScrollRangeEv@Base 3.2.0
 _ZNK5MyGUI7EditBox15getPasswordCharEv@Base 3.2.0
 _ZNK5MyGUI7EditBox15getVScrollRangeEv@Base 3.2.0
 _ZNK5MyGUI7EditBox15isTextSelectionEv@Base 3.2.0
 _ZNK5MyGUI7EditBox16getEditMultiLineEv@Base 3.2.0
 _ZNK5MyGUI7EditBox16getMaxTextLengthEv@Base 3.2.0
 _ZNK5MyGUI7EditBox16isVisibleHScrollEv@Base 3.2.0
 _ZNK5MyGUI7EditBox16isVisibleVScrollEv@Base 3.2.0
 _ZNK5MyGUI7EditBox19getTextSelectionEndEv@Base 3.2.0
 _ZNK5MyGUI7EditBox20getOverflowToTheLeftEv@Base 3.2.0
 _ZNK5MyGUI7EditBox21getTextSelectionStartEv@Base 3.2.0
 _ZNK5MyGUI7EditBox22getTextSelectionLengthEv@Base 3.2.0
 _ZNK5MyGUI7ItemBox12getItemCountEv@Base 3.2.0
 _ZNK5MyGUI7ItemBox16getIndexSelectedEv@Base 3.2.0
 _ZNK5MyGUI7ItemBox20getVerticalAlignmentEv@Base 3.2.0
 _ZNK5MyGUI7ListBox12getItemCountEv@Base 3.2.0
 _ZNK5MyGUI7ListBox16getIndexSelectedEv@Base 3.2.0
 _ZNK5MyGUI7UString12_cleanBufferEv@Base 3.2.0
 _ZNK5MyGUI7UString12asUTF8_c_strEv@Base 3.2.0
 _ZNK5MyGUI7UString12asWStr_c_strEv@Base 3.2.0
 _ZNK5MyGUI7UString12find_last_ofERKS0_jj@Base 3.2.0
 _ZNK5MyGUI7UString12find_last_ofEjj@Base 3.2.0
 _ZNK5MyGUI7UString12find_last_ofEtj@Base 3.2.0
 _ZNK5MyGUI7UString12find_last_ofEwj@Base 3.2.0
 _ZNK5MyGUI7UString13_fwd_iterator12getCharacterEv@Base 3.2.0
 _ZNK5MyGUI7UString13_fwd_iteratordeEv@Base 3.2.0
 _ZNK5MyGUI7UString13_fwd_iteratorixEi@Base 3.2.0
 _ZNK5MyGUI7UString13_getBufferStrEv@Base 3.2.0
 _ZNK5MyGUI7UString13_rev_iteratordeEv@Base 3.2.0
 _ZNK5MyGUI7UString13_rev_iteratorixEi@Base 3.2.0
 _ZNK5MyGUI7UString13asUTF32_c_strEv@Base 3.2.0
 _ZNK5MyGUI7UString13find_first_ofERKS0_jj@Base 3.2.0
 _ZNK5MyGUI7UString13find_first_ofEcj@Base 3.2.0
 _ZNK5MyGUI7UString13find_first_ofEjj@Base 3.2.0
 _ZNK5MyGUI7UString13find_first_ofEtj@Base 3.2.0
 _ZNK5MyGUI7UString13find_first_ofEwj@Base 3.2.0
 _ZNK5MyGUI7UString14_base_iterator10_get_indexEv@Base 3.2.0
 _ZNK5MyGUI7UString14_base_iterator11_test_beginEv@Base 3.2.0
 _ZNK5MyGUI7UString14_base_iterator13_getCharacterEv@Base 3.2.0
 _ZNK5MyGUI7UString14_base_iterator9_test_endEv@Base 3.2.0
 _ZNK5MyGUI7UString14_getBufferWStrEv@Base 3.2.0
 _ZNK5MyGUI7UString16find_last_not_ofERKS0_jj@Base 3.2.0
 _ZNK5MyGUI7UString16find_last_not_ofEcj@Base 3.2.0
 _ZNK5MyGUI7UString16find_last_not_ofEjj@Base 3.2.0
 _ZNK5MyGUI7UString16find_last_not_ofEtj@Base 3.2.0
 _ZNK5MyGUI7UString16find_last_not_ofEwj@Base 3.2.0
 _ZNK5MyGUI7UString17_load_buffer_UTF8Ev@Base 3.2.0
 _ZNK5MyGUI7UString17_load_buffer_WStrEv@Base 3.2.0
 _ZNK5MyGUI7UString17find_first_not_ofERKS0_jj@Base 3.2.0
 _ZNK5MyGUI7UString17find_first_not_ofEcj@Base 3.2.0
 _ZNK5MyGUI7UString17find_first_not_ofEjj@Base 3.2.0
 _ZNK5MyGUI7UString17find_first_not_ofEtj@Base 3.2.0
 _ZNK5MyGUI7UString17find_first_not_ofEwj@Base 3.2.0
 _ZNK5MyGUI7UString17length_CharactersEv@Base 3.2.0
 _ZNK5MyGUI7UString18_getBufferUTF32StrEv@Base 3.2.0
 _ZNK5MyGUI7UString18_load_buffer_UTF32Ev@Base 3.2.0
 _ZNK5MyGUI7UString19_const_fwd_iterator12getCharacterEv@Base 3.2.0
 _ZNK5MyGUI7UString19_const_fwd_iteratordeEv@Base 3.2.0
 _ZNK5MyGUI7UString19_const_fwd_iteratorixEi@Base 3.2.0
 _ZNK5MyGUI7UString19_const_rev_iteratordeEv@Base 3.2.0
 _ZNK5MyGUI7UString19_const_rev_iteratorixEi@Base 3.2.0
 _ZNK5MyGUI7UString2atEj@Base 3.2.0
 _ZNK5MyGUI7UString3endEv@Base 3.2.0
 _ZNK5MyGUI7UString4dataEv@Base 3.2.0
 _ZNK5MyGUI7UString4findEPKcjj@Base 3.2.0
 _ZNK5MyGUI7UString4findEPKtjj@Base 3.2.0
 _ZNK5MyGUI7UString4findEPKwjj@Base 3.2.0
 _ZNK5MyGUI7UString4findERKS0_j@Base 3.2.0
 _ZNK5MyGUI7UString4findEcj@Base 3.2.0
 _ZNK5MyGUI7UString4findEjj@Base 3.2.0
 _ZNK5MyGUI7UString4findEtj@Base 3.2.0
 _ZNK5MyGUI7UString4findEwj@Base 3.2.0
 _ZNK5MyGUI7UString4rendEv@Base 3.2.0
 _ZNK5MyGUI7UString4sizeEv@Base 3.2.0
 _ZNK5MyGUI7UString5beginEv@Base 3.2.0
 _ZNK5MyGUI7UString5c_strEv@Base 3.2.0
 _ZNK5MyGUI7UString5emptyEv@Base 3.2.0
 _ZNK5MyGUI7UString5rfindEPKcjj@Base 3.2.0
 _ZNK5MyGUI7UString5rfindEPKtjj@Base 3.2.0
 _ZNK5MyGUI7UString5rfindEPKwjj@Base 3.2.0
 _ZNK5MyGUI7UString5rfindERKS0_j@Base 3.2.0
 _ZNK5MyGUI7UString5rfindEcj@Base 3.2.0
 _ZNK5MyGUI7UString5rfindEjj@Base 3.2.0
 _ZNK5MyGUI7UString5rfindEtj@Base 3.2.0
 _ZNK5MyGUI7UString5rfindEwj@Base 3.2.0
 _ZNK5MyGUI7UString6asUTF8Ev@Base 3.2.0
 _ZNK5MyGUI7UString6asWStrEv@Base 3.2.0
 _ZNK5MyGUI7UString6lengthEv@Base 3.2.0
 _ZNK5MyGUI7UString6rbeginEv@Base 3.2.0
 _ZNK5MyGUI7UString6substrEjj@Base 3.2.0
 _ZNK5MyGUI7UString7asUTF32Ev@Base 3.2.0
 _ZNK5MyGUI7UString7compareEPKt@Base 3.2.0
 _ZNK5MyGUI7UString7compareERKS0_@Base 3.2.0
 _ZNK5MyGUI7UString7compareEjjPKcj@Base 3.2.0
 _ZNK5MyGUI7UString7compareEjjPKtj@Base 3.2.0
 _ZNK5MyGUI7UString7compareEjjPKwj@Base 3.2.0
 _ZNK5MyGUI7UString7compareEjjRKS0_@Base 3.2.0
 _ZNK5MyGUI7UString7compareEjjRKS0_jj@Base 3.2.0
 _ZNK5MyGUI7UString7getCharEj@Base 3.2.0
 _ZNK5MyGUI7UString8capacityEv@Base 3.2.0
 _ZNK5MyGUI7UString8inStringEj@Base 3.2.0
 _ZNK5MyGUI7UString8max_sizeEv@Base 3.2.0
 (optional=templinst)_ZNK5MyGUI7UStringcvSbIwSt11char_traitsIwESaIwEEEv@Base 3.2.0
 (optional=templinst)_ZNK5MyGUI7UStringcvSsEv@Base 3.2.0
 _ZNK5MyGUI7UStringeqERKS0_@Base 3.2.0
 _ZNK5MyGUI7UStringgeERKS0_@Base 3.2.0
 _ZNK5MyGUI7UStringgtERKS0_@Base 3.2.0
 _ZNK5MyGUI7UStringixEj@Base 3.2.0
 _ZNK5MyGUI7UStringleERKS0_@Base 3.2.0
 _ZNK5MyGUI7UStringltERKS0_@Base 3.2.0
 _ZNK5MyGUI7UStringneERKS0_@Base 3.2.0
 _ZNK5MyGUI8ComboBox12getItemCountEv@Base 3.2.0
 _ZNK5MyGUI8ComboBox13getSmoothShowEv@Base 3.2.0
 _ZNK5MyGUI8ComboBox16getComboModeDropEv@Base 3.2.0
 _ZNK5MyGUI8ComboBox16getFlowDirectionEv@Base 3.2.0
 _ZNK5MyGUI8ComboBox16getIndexSelectedEv@Base 3.2.0
 _ZNK5MyGUI8ComboBox16getMaxListLengthEv@Base 3.2.0
 _ZNK5MyGUI8EditText10getCaptionEv@Base 3.2.0
 _ZNK5MyGUI8EditText11getFontNameEv@Base 3.2.0
 _ZNK5MyGUI8EditText12getTextAlignEv@Base 3.2.0
 _ZNK5MyGUI8EditText13getFontHeightEv@Base 3.2.0
 _ZNK5MyGUI8EditText13getTextColourEv@Base 3.2.0
 _ZNK5MyGUI8EditText13getViewOffsetEv@Base 3.2.0
 _ZNK5MyGUI8EditText15getShadowColourEv@Base 3.2.0
 _ZNK5MyGUI8EditText15isVisibleCursorEv@Base 3.2.0
 _ZNK5MyGUI8EditText17getCursorPositionEv@Base 3.2.0
 _ZNK5MyGUI8EditText17getInvertSelectedEv@Base 3.2.0
 _ZNK5MyGUI8EditText19getSelectBackgroundEv@Base 3.2.0
 _ZNK5MyGUI8EditText19getTextSelectionEndEv@Base 3.2.0
 _ZNK5MyGUI8EditText21getTextSelectionStartEv@Base 3.2.0
 _ZNK5MyGUI8EditText8drawQuadERPNS_6VertexERjRKNS_5types5TRectIfEEfS9_j@Base 3.2.0
 _ZNK5MyGUI8EditText8getAlphaEv@Base 3.2.0
 _ZNK5MyGUI8EditText9drawGlyphERKNS_16RenderTargetInfoERPNS_6VertexERjNS_5types5TRectIfEESA_j@Base 3.2.0
 _ZNK5MyGUI8EditText9getShadowEv@Base 3.2.0
 _ZNK5MyGUI8ImageBox12getItemCountEv@Base 3.2.0
 _ZNK5MyGUI8ImageBox13getImageIndexEv@Base 3.2.0
 _ZNK5MyGUI8ImageBox13getItemSelectEv@Base 3.2.0
 _ZNK5MyGUI8ImageBox15getItemResourceEv@Base 3.2.0
 _ZNK5MyGUI8MenuItem14getItemCheckedEv@Base 3.2.0
 _ZNK5MyGUI8SkinItem15_getTextureNameEv@Base 3.2.0
 _ZNK5MyGUI8UserData12isUserStringERKSs@Base 3.2.0
 _ZNK5MyGUI8UserData13getUserStringERKSs@Base 3.2.0
 _ZNK5MyGUI8UserData14getUserStringsEv@Base 3.2.0
 _ZNK5MyGUI9Exception14getDescriptionEv@Base 3.2.0
 _ZNK5MyGUI9Exception18getFullDescriptionEv@Base 3.2.0
 _ZNK5MyGUI9Exception4whatEv@Base 3.2.0
 _ZNK5MyGUI9Exception7getFileEv@Base 3.2.0
 _ZNK5MyGUI9Exception7getLineEv@Base 3.2.0
 _ZNK5MyGUI9Exception9getSourceEv@Base 3.2.0
 _ZNK5MyGUI9LayerItem8getLayerEv@Base 3.2.0
 _ZNK5MyGUI9LayerNode11isOutOfDateEv@Base 3.2.0
 _ZNK5MyGUI9LayerNode13getEnumeratorEv@Base 3.2.0
 _ZNK5MyGUI9LayerNode19getLayerItemByPointEii@Base 3.2.0
 _ZNK5MyGUI9LayerNode8getLayerEv@Base 3.2.0
 _ZNK5MyGUI9LayerNode9getParentEv@Base 3.2.0
 _ZNK5MyGUI9ScrollBar11getLineSizeEv@Base 3.2.0
 _ZNK5MyGUI9ScrollBar12getTrackSizeEv@Base 3.2.0
 _ZNK5MyGUI9ScrollBar13getScrollPageEv@Base 3.2.0
 _ZNK5MyGUI9ScrollBar14getMoveToClickEv@Base 3.2.0
 _ZNK5MyGUI9ScrollBar14getScrollRangeEv@Base 3.2.0
 _ZNK5MyGUI9ScrollBar15getMinTrackSizeEv@Base 3.2.0
 _ZNK5MyGUI9ScrollBar17getScrollPositionEv@Base 3.2.0
 _ZNK5MyGUI9ScrollBar17getScrollViewPageEv@Base 3.2.0
 _ZNK5MyGUI9ScrollBar19getTrackPlaceLengthEv@Base 3.2.0
 _ZNK5MyGUI9ScrollBar20getVerticalAlignmentEv@Base 3.2.0
 (optional=templinst)_ZNKSbItSt11char_traitsItESaItEE4findEPKtjj@Base 3.2.0
 (optional=templinst)_ZNKSbItSt11char_traitsItESaItEE5rfindEPKtjj@Base 3.2.0
 (optional=templinst)_ZNKSt16reverse_iteratorISt17_Rb_tree_iteratorISt4pairIKflEEEdeEv@Base 3.2.0
 (optional=templinst)_ZNKSt6vectorIN5MyGUI10WidgetInfoESaIS1_EE12_M_check_lenEjPKc@Base 3.2.0
 (optional=templinst)_ZNKSt6vectorIN5MyGUI14ControllerInfoESaIS1_EE12_M_check_lenEjPKc@Base 3.2.0
 (optional=templinst)_ZNKSt6vectorIPN5MyGUI6WidgetESaIS2_EE12_M_check_lenEjPKc@Base 3.2.0
 (optional=templinst)_ZNKSt6vectorISsSaISsEE12_M_check_lenEjPKc@Base 3.2.0
 (optional=templinst)_ZNKSt6vectorISt4pairISsSsESaIS1_EE12_M_check_lenEjPKc@Base 3.2.0
 (optional=templinst)_ZNKSt6vectorISt4pairIjjESaIS1_EE12_M_check_lenEjPKc@Base 3.2.0
 (optional=templinst)_ZNKSt8_Rb_treeIKjSt4pairIS0_KhESt10_Select1stIS3_ESt4lessIS0_ESaIS3_EE4findERS0_@Base 3.2.0
 (optional=templinst)_ZNKSt8_Rb_treeISsSt4pairIKSsPN5MyGUI9IResourceEESt10_Select1stIS5_ESt4lessISsESaIS5_EE4findERS1_@Base 3.2.0
 (optional=templinst)_ZNKSt8_Rb_treeISsSt4pairIKSsSsESt10_Select1stIS2_ESt4lessISsESaIS2_EE4findERS1_@Base 3.2.0
 (optional=templinst)_ZNKSt8_Rb_treeISsSt4pairIKSsiESt10_Select1stIS2_ESt4lessISsESaIS2_EE4findERS1_@Base 3.2.0
 _ZNSbIjSt11char_traitsIjESaIjEE4_Rep20_S_empty_rep_storageE@Base 3.2.0
 (optional=templinst)_ZNSbIjSt11char_traitsIjESaIjEE7reserveEj@Base 3.2.0
 (optional=templinst)_ZNSbItSt11char_traitsItESaItEE12_M_leak_hardEv@Base 3.2.0
 (optional=templinst)_ZNSbItSt11char_traitsItESaItEE14_M_replace_auxEjjjt@Base 3.2.0
 (optional=templinst)_ZNSbItSt11char_traitsItESaItEE15_M_replace_safeEjjPKtj@Base 3.2.0
 _ZNSbItSt11char_traitsItESaItEE4_Rep20_S_empty_rep_storageE@Base 3.2.0
 (optional=templinst)_ZNSbItSt11char_traitsItESaItEE6assignEPKtj@Base 3.2.0
 (optional=templinst)_ZNSbItSt11char_traitsItESaItEE6assignERKS2_@Base 3.2.0
 (optional=templinst)_ZNSbItSt11char_traitsItESaItEE6insertEjPKtj@Base 3.2.0
 (optional=templinst)_ZNSbItSt11char_traitsItESaItEE7replaceEjjPKtj@Base 3.2.0
 (optional=templinst)_ZNSbItSt11char_traitsItESaItEE7reserveEj@Base 3.2.0
 (optional=templinst)_ZNSbItSt11char_traitsItESaItEE9_M_mutateEjjj@Base 3.2.0
 (optional=templinst)_ZNSbItSt11char_traitsItESaItEED1Ev@Base 3.2.0
 (optional=templinst)_ZNSbItSt11char_traitsItESaItEED2Ev@Base 3.2.0
 (optional=templinst)_ZNSs12_S_constructIPcEES0_T_S1_RKSaIcESt20forward_iterator_tag@Base 3.2.0
 (optional=templinst)_ZNSsC1IPcEET_S1_RKSaIcE@Base 3.2.0
 (optional=templinst)_ZNSsC2IPcEET_S1_RKSaIcE@Base 3.2.0
 (optional=templinst)_ZNSt10_List_baseISt4pairIPN5MyGUI6WidgetEPNS1_14ControllerItemEESaIS6_EE8_M_clearEv@Base 3.2.0
 (optional=templinst)_ZNSt11__copy_moveILb0ELb0ESt26random_access_iterator_tagE8__copy_mIPKN5MyGUI10WidgetInfoEPS4_EET0_T_S9_S8_@Base 3.2.0
 (optional=templinst)_ZNSt11__copy_moveILb0ELb0ESt26random_access_iterator_tagE8__copy_mIPKN5MyGUI14ControllerInfoEPS4_EET0_T_S9_S8_@Base 3.2.0
 (optional=templinst)_ZNSt11__copy_moveILb0ELb0ESt26random_access_iterator_tagE8__copy_mIPKSt4pairISsSsEPS4_EET0_T_S9_S8_@Base 3.2.0
 (optional=templinst)_ZNSt11__copy_moveILb0ELb0ESt26random_access_iterator_tagE8__copy_mIPN5MyGUI10WidgetInfoES5_EET0_T_S7_S6_@Base 3.2.0
 (optional=templinst)_ZNSt11__copy_moveILb0ELb0ESt26random_access_iterator_tagE8__copy_mIPN5MyGUI14ControllerInfoES5_EET0_T_S7_S6_@Base 3.2.0
 (optional=templinst)_ZNSt11__copy_moveILb0ELb0ESt26random_access_iterator_tagE8__copy_mIPSt4pairISsSsES5_EET0_T_S7_S6_@Base 3.2.0
 (optional=templinst)_ZNSt11__copy_moveILb0ELb1ESt26random_access_iterator_tagE8__copy_mIPN5MyGUI6WidgetEEEPT_PKS6_S9_S7_@Base 3.2.0
 (optional=templinst)_ZNSt12_Destroy_auxILb0EE9__destroyIN9__gnu_cxx17__normal_iteratorIPN5MyGUI14ControllerInfoESt6vectorIS5_SaIS5_EEEEEEvT_SB_@Base 3.2.0
 (optional=templinst)_ZNSt12_Destroy_auxILb0EE9__destroyIN9__gnu_cxx17__normal_iteratorIPSt4pairISsSsESt6vectorIS5_SaIS5_EEEEEEvT_SB_@Base 3.2.0
 (optional=templinst)_ZNSt12_Destroy_auxILb0EE9__destroyIPN5MyGUI10TabControl11TabItemInfoEEEvT_S6_@Base 3.2.0
 (optional=templinst)_ZNSt12_Destroy_auxILb0EE9__destroyIPN5MyGUI10WidgetInfoEEEvT_S5_@Base 3.2.0
 (optional=templinst)_ZNSt12_Destroy_auxILb0EE9__destroyIPN5MyGUI11MenuControl8ItemInfoEEEvT_S6_@Base 3.2.0
 (optional=templinst)_ZNSt12_Destroy_auxILb0EE9__destroyIPN5MyGUI12MultiListBox10ColumnInfoEEEvT_S6_@Base 3.2.0
 (optional=templinst)_ZNSt12_Destroy_auxILb0EE9__destroyIPN5MyGUI13ChildSkinInfoEEEvT_S5_@Base 3.2.0
 (optional=templinst)_ZNSt12_Destroy_auxILb0EE9__destroyIPN5MyGUI14ControllerInfoEEEvT_S5_@Base 3.2.0
 (optional=templinst)_ZNSt12_Destroy_auxILb0EE9__destroyIPSsEEvT_S3_@Base 3.2.0
 (optional=templinst)_ZNSt12_Destroy_auxILb0EE9__destroyIPSt4pairIN5MyGUI7UStringENS3_3AnyEEEEvT_S8_@Base 3.2.0
 (optional=templinst)_ZNSt12_Destroy_auxILb0EE9__destroyIPSt4pairISsSsEEEvT_S5_@Base 3.2.0
 (optional=templinst)_ZNSt12_Vector_baseIN5MyGUI10WidgetInfoESaIS1_EED1Ev@Base 3.2.0
 (optional=templinst)_ZNSt12_Vector_baseIN5MyGUI10WidgetInfoESaIS1_EED2Ev@Base 3.2.0
 (optional=templinst)_ZNSt12_Vector_baseIN5MyGUI14ControllerInfoESaIS1_EED1Ev@Base 3.2.0
 (optional=templinst)_ZNSt12_Vector_baseIN5MyGUI14ControllerInfoESaIS1_EED2Ev@Base 3.2.0
 (optional=templinst)_ZNSt12_Vector_baseISt4pairISsSsESaIS1_EED1Ev@Base 3.2.0
 (optional=templinst)_ZNSt12_Vector_baseISt4pairISsSsESaIS1_EED2Ev@Base 3.2.0
 (optional=templinst)_ZNSt15basic_stringbufIcSt11char_traitsIcESaIcEED0Ev@Base 3.2.0
 (optional=templinst)_ZNSt15basic_stringbufIcSt11char_traitsIcESaIcEED1Ev@Base 3.2.0
 (optional=templinst)_ZNSt15basic_stringbufIcSt11char_traitsIcESaIcEED2Ev@Base 3.2.0
 (optional=templinst)_ZNSt20__copy_move_backwardILb0ELb0ESt26random_access_iterator_tagE13__copy_move_bIPN5MyGUI10WidgetInfoES5_EET0_T_S7_S6_@Base 3.2.0
 (optional=templinst)_ZNSt20__copy_move_backwardILb0ELb0ESt26random_access_iterator_tagE13__copy_move_bIPSsS3_EET0_T_S5_S4_@Base 3.2.0
 (optional=templinst)_ZNSt20__copy_move_backwardILb0ELb0ESt26random_access_iterator_tagE13__copy_move_bIPSt4pairISsSsES5_EET0_T_S7_S6_@Base 3.2.0
 (optional=templinst)_ZNSt20__uninitialized_copyILb0EE13__uninit_copyIN9__gnu_cxx17__normal_iteratorIPKN5MyGUI10WidgetInfoESt6vectorIS5_SaIS5_EEEEPS5_EET0_T_SE_SD_@Base 3.2.0
 (optional=templinst)_ZNSt20__uninitialized_copyILb0EE13__uninit_copyIN9__gnu_cxx17__normal_iteratorIPKN5MyGUI14ControllerInfoESt6vectorIS5_SaIS5_EEEEPS5_EET0_T_SE_SD_@Base 3.2.0
 (optional=templinst)_ZNSt20__uninitialized_copyILb0EE13__uninit_copyIN9__gnu_cxx17__normal_iteratorIPKSt4pairISsSsESt6vectorIS5_SaIS5_EEEEPS5_EET0_T_SE_SD_@Base 3.2.0
 (optional=templinst)_ZNSt20__uninitialized_copyILb0EE13__uninit_copyIPN5MyGUI10WidgetInfoES4_EET0_T_S6_S5_@Base 3.2.0
 (optional=templinst)_ZNSt20__uninitialized_copyILb0EE13__uninit_copyIPN5MyGUI11MenuControl8ItemInfoES5_EET0_T_S7_S6_@Base 3.2.0
 (optional=templinst)_ZNSt20__uninitialized_copyILb0EE13__uninit_copyIPN5MyGUI14ControllerInfoES4_EET0_T_S6_S5_@Base 3.2.0
 (optional=templinst)_ZNSt20__uninitialized_copyILb0EE13__uninit_copyIPSsS2_EET0_T_S4_S3_@Base 3.2.0
 (optional=templinst)_ZNSt20__uninitialized_copyILb0EE13__uninit_copyIPSt4pairIN5MyGUI7UStringENS3_3AnyEES7_EET0_T_S9_S8_@Base 3.2.0
 (optional=templinst)_ZNSt20__uninitialized_copyILb0EE13__uninit_copyIPSt4pairISsSsES4_EET0_T_S6_S5_@Base 3.2.0
 (optional=templinst)_ZNSt3mapIKjKhSt4lessIS0_ESaISt4pairIS0_S1_EEEC1IPS5_EET_SA_@Base 3.2.0
 (optional=templinst)_ZNSt3mapIKjKhSt4lessIS0_ESaISt4pairIS0_S1_EEEC2IPS5_EET_SA_@Base 3.2.0
 (optional=templinst)_ZNSt3mapIKjKhSt4lessIS0_ESaISt4pairIS0_S1_EEED1Ev@Base 3.2.0
 (optional=templinst)_ZNSt3mapIKjKhSt4lessIS0_ESaISt4pairIS0_S1_EEED2Ev@Base 3.2.0
 (optional=templinst)_ZNSt3mapISsSsSt4lessISsESaISt4pairIKSsSsEEED1Ev@Base 3.2.0
 (optional=templinst)_ZNSt3mapISsSsSt4lessISsESaISt4pairIKSsSsEEED2Ev@Base 3.2.0
 (optional=templinst)_ZNSt3mapISsSsSt4lessISsESaISt4pairIKSsSsEEEixERS3_@Base 3.2.0
 (optional=templinst)_ZNSt3mapISsiSt4lessISsESaISt4pairIKSsiEEED1Ev@Base 3.2.0
 (optional=templinst)_ZNSt3mapISsiSt4lessISsESaISt4pairIKSsiEEED2Ev@Base 3.2.0
 (optional=templinst)_ZNSt3mapISsiSt4lessISsESaISt4pairIKSsiEEEixERS3_@Base 3.2.0
 (optional=templinst)_ZNSt3mapIjjSt4lessIjESaISt4pairIKjjEEEixERS3_@Base 3.2.0
 (optional=templinst)_ZNSt3setISsSt4lessISsESaISsEED1Ev@Base 3.2.0
 (optional=templinst)_ZNSt3setISsSt4lessISsESaISsEED2Ev@Base 3.2.0
 (optional=templinst)_ZNSt4pairIKN5MyGUI7UStringES1_ED1Ev@Base 3.2.0
 (optional=templinst)_ZNSt4pairIKN5MyGUI7UStringES1_ED2Ev@Base 3.2.0
 (optional=templinst)_ZNSt4pairIKSsPN5MyGUI9IResourceEED1Ev@Base 3.2.0
 (optional=templinst)_ZNSt4pairIKSsPN5MyGUI9IResourceEED2Ev@Base 3.2.0
 (optional=templinst)_ZNSt4pairIKSsSsED1Ev@Base 3.2.0
 (optional=templinst)_ZNSt4pairIKSsSsED2Ev@Base 3.2.0
 (optional=templinst)_ZNSt4pairIKSsSt6vectorIPN5MyGUI10IStateInfoESaIS4_EEED1Ev@Base 3.2.0
 (optional=templinst)_ZNSt4pairIKSsSt6vectorIPN5MyGUI10IStateInfoESaIS4_EEED2Ev@Base 3.2.0
 (optional=templinst)_ZNSt4pairIKSsSt6vectorISsSaISsEEED1Ev@Base 3.2.0
 (optional=templinst)_ZNSt4pairIKSsSt6vectorISsSaISsEEED2Ev@Base 3.2.0
 (optional=templinst)_ZNSt4pairIKSsiED1Ev@Base 3.2.0
 (optional=templinst)_ZNSt4pairIKSsiED2Ev@Base 3.2.0
 (optional=templinst)_ZNSt4pairIN5MyGUI7UStringENS0_3AnyEED1Ev@Base 3.2.0
 (optional=templinst)_ZNSt4pairIN5MyGUI7UStringENS0_3AnyEED2Ev@Base 3.2.0
 (optional=templinst)_ZNSt4pairISsSsEC1ERKS0_@Base 3.2.0
 (optional=templinst)_ZNSt4pairISsSsEC2ERKS0_@Base 3.2.0
 (optional=templinst)_ZNSt4pairISsSsED1Ev@Base 3.2.0
 (optional=templinst)_ZNSt4pairISsSsED2Ev@Base 3.2.0
 (optional=templinst)_ZNSt6vectorIN5MyGUI10TabControl11TabItemInfoESaIS2_EE13_M_insert_auxEN9__gnu_cxx17__normal_iteratorIPS2_S4_EERKS2_@Base 3.2.0
 (optional=templinst)_ZNSt6vectorIN5MyGUI10WidgetInfoESaIS1_EE13_M_insert_auxEN9__gnu_cxx17__normal_iteratorIPS1_S3_EERKS1_@Base 3.2.0
 (optional=templinst)_ZNSt6vectorIN5MyGUI10WidgetInfoESaIS1_EEC1ERKS3_@Base 3.2.0
 (optional=templinst)_ZNSt6vectorIN5MyGUI10WidgetInfoESaIS1_EEC2ERKS3_@Base 3.2.0
 (optional=templinst)_ZNSt6vectorIN5MyGUI10WidgetInfoESaIS1_EED1Ev@Base 3.2.0
 (optional=templinst)_ZNSt6vectorIN5MyGUI10WidgetInfoESaIS1_EED2Ev@Base 3.2.0
 (optional=templinst)_ZNSt6vectorIN5MyGUI10WidgetInfoESaIS1_EEaSERKS3_@Base 3.2.0
 (optional=templinst)_ZNSt6vectorIN5MyGUI11MenuControl8ItemInfoESaIS2_EE13_M_insert_auxEN9__gnu_cxx17__normal_iteratorIPS2_S4_EERKS2_@Base 3.2.0
 (optional=templinst)_ZNSt6vectorIN5MyGUI11MenuControl8ItemInfoESaIS2_EE5eraseEN9__gnu_cxx17__normal_iteratorIPS2_S4_EE@Base 3.2.0
 (optional=templinst)_ZNSt6vectorIN5MyGUI12MultiListBox10ColumnInfoESaIS2_EE13_M_insert_auxEN9__gnu_cxx17__normal_iteratorIPS2_S4_EERKS2_@Base 3.2.0
 (optional=templinst)_ZNSt6vectorIN5MyGUI13ChildSkinInfoESaIS1_EE13_M_insert_auxEN9__gnu_cxx17__normal_iteratorIPS1_S3_EERKS1_@Base 3.2.0
 (optional=templinst)_ZNSt6vectorIN5MyGUI13ChildSkinInfoESaIS1_EED1Ev@Base 3.2.0
 (optional=templinst)_ZNSt6vectorIN5MyGUI13ChildSkinInfoESaIS1_EED2Ev@Base 3.2.0
 (optional=templinst)_ZNSt6vectorIN5MyGUI14ControllerInfoESaIS1_EE13_M_insert_auxEN9__gnu_cxx17__normal_iteratorIPS1_S3_EERKS1_@Base 3.2.0
 (optional=templinst)_ZNSt6vectorIN5MyGUI14ControllerInfoESaIS1_EEC1ERKS3_@Base 3.2.0
 (optional=templinst)_ZNSt6vectorIN5MyGUI14ControllerInfoESaIS1_EEC2ERKS3_@Base 3.2.0
 (optional=templinst)_ZNSt6vectorIN5MyGUI14ControllerInfoESaIS1_EED1Ev@Base 3.2.0
 (optional=templinst)_ZNSt6vectorIN5MyGUI14ControllerInfoESaIS1_EED2Ev@Base 3.2.0
 (optional=templinst)_ZNSt6vectorIN5MyGUI14ControllerInfoESaIS1_EEaSERKS3_@Base 3.2.0
 (optional=templinst)_ZNSt6vectorIN5MyGUI7ItemBox12ItemDataInfoESaIS2_EE13_M_insert_auxEN9__gnu_cxx17__normal_iteratorIPS2_S4_EERKS2_@Base 3.2.0
 (optional=templinst)_ZNSt6vectorIPN5MyGUI10ILayerNodeESaIS2_EE13_M_insert_auxEN9__gnu_cxx17__normal_iteratorIPS2_S4_EERKS2_@Base 3.2.0
 (optional=templinst)_ZNSt6vectorIPN5MyGUI10ILayerNodeESaIS2_EE5eraseEN9__gnu_cxx17__normal_iteratorIPS2_S4_EE@Base 3.2.0
 (optional=templinst)_ZNSt6vectorIPN5MyGUI10ILayerNodeESaIS2_EED1Ev@Base 3.2.0
 (optional=templinst)_ZNSt6vectorIPN5MyGUI10ILayerNodeESaIS2_EED2Ev@Base 3.2.0
 (optional=templinst)_ZNSt6vectorIPN5MyGUI10IStateInfoESaIS2_EE14_M_fill_insertEN9__gnu_cxx17__normal_iteratorIPS2_S4_EEjRKS2_@Base 3.2.0
 (optional=templinst)_ZNSt6vectorIPN5MyGUI10IStateInfoESaIS2_EED1Ev@Base 3.2.0
 (optional=templinst)_ZNSt6vectorIPN5MyGUI10IStateInfoESaIS2_EED2Ev@Base 3.2.0
 (optional=templinst)_ZNSt6vectorIPN5MyGUI10IStateInfoESaIS2_EEaSERKS4_@Base 3.2.0
 (optional=templinst)_ZNSt6vectorIPN5MyGUI10ISubWidgetESaIS2_EE13_M_insert_auxEN9__gnu_cxx17__normal_iteratorIPS2_S4_EERKS2_@Base 3.2.0
 (optional=templinst)_ZNSt6vectorIPN5MyGUI10RenderItemESaIS2_EE13_M_insert_auxEN9__gnu_cxx17__normal_iteratorIPS2_S4_EERKS2_@Base 3.2.0
 (optional=templinst)_ZNSt6vectorIPN5MyGUI10RenderItemESaIS2_EED1Ev@Base 3.2.0
 (optional=templinst)_ZNSt6vectorIPN5MyGUI10RenderItemESaIS2_EED2Ev@Base 3.2.0
 (optional=templinst)_ZNSt6vectorIPN5MyGUI12ILogListenerESaIS2_EE13_M_insert_auxEN9__gnu_cxx17__normal_iteratorIPS2_S4_EERKS2_@Base 3.2.0
 (optional=templinst)_ZNSt6vectorIPN5MyGUI13IUnlinkWidgetESaIS2_EE13_M_insert_auxEN9__gnu_cxx17__normal_iteratorIPS2_S4_EERKS2_@Base 3.2.0
 (optional=templinst)_ZNSt6vectorIPN5MyGUI6DynLibESaIS2_EE13_M_insert_auxEN9__gnu_cxx17__normal_iteratorIPS2_S4_EERKS2_@Base 3.2.0
 (optional=templinst)_ZNSt6vectorIPN5MyGUI6ILayerESaIS2_EEaSERKS4_@Base 3.2.0
 (optional=templinst)_ZNSt6vectorIPN5MyGUI6WidgetESaIS2_EED1Ev@Base 3.2.0
 (optional=templinst)_ZNSt6vectorIPN5MyGUI6WidgetESaIS2_EED2Ev@Base 3.2.0
 (optional=templinst)_ZNSt6vectorIPN5MyGUI6WidgetESaIS2_EEaSERKS4_@Base 3.2.0
 (optional=templinst)_ZNSt6vectorIPN5MyGUI9IResourceESaIS2_EE13_M_insert_auxEN9__gnu_cxx17__normal_iteratorIPS2_S4_EERKS2_@Base 3.2.0
 (optional=templinst)_ZNSt6vectorIPN5MyGUI9LayerItemESaIS2_EE13_M_insert_auxEN9__gnu_cxx17__normal_iteratorIPS2_S4_EERKS2_@Base 3.2.0
 (optional=templinst)_ZNSt6vectorIPN5MyGUI9LayerItemESaIS2_EE5eraseEN9__gnu_cxx17__normal_iteratorIPS2_S4_EE@Base 3.2.0
 (optional=templinst)_ZNSt6vectorIPN5MyGUI9LogSourceESaIS2_EE13_M_insert_auxEN9__gnu_cxx17__normal_iteratorIPS2_S4_EERKS2_@Base 3.2.0
 (optional=templinst)_ZNSt6vectorISsSaISsEE13_M_insert_auxEN9__gnu_cxx17__normal_iteratorIPSsS1_EERKSs@Base 3.2.0
 (optional=templinst)_ZNSt6vectorISsSaISsEED1Ev@Base 3.2.0
 (optional=templinst)_ZNSt6vectorISsSaISsEED2Ev@Base 3.2.0
 (optional=templinst)_ZNSt6vectorISt4pairIN5MyGUI7UStringENS1_3AnyEESaIS4_EE13_M_insert_auxEN9__gnu_cxx17__normal_iteratorIPS4_S6_EERKS4_@Base 3.2.0
 (optional=templinst)_ZNSt6vectorISt4pairIPN5MyGUI10ISubWidgetEjESaIS4_EE13_M_insert_auxEN9__gnu_cxx17__normal_iteratorIPS4_S6_EERKS4_@Base 3.2.0
 (optional=templinst)_ZNSt6vectorISt4pairIPN5MyGUI10ISubWidgetEjESaIS4_EED1Ev@Base 3.2.0
 (optional=templinst)_ZNSt6vectorISt4pairIPN5MyGUI10ISubWidgetEjESaIS4_EED2Ev@Base 3.2.0
 (optional=templinst)_ZNSt6vectorISt4pairISsSsESaIS1_EE13_M_insert_auxEN9__gnu_cxx17__normal_iteratorIPS1_S3_EERKS1_@Base 3.2.0
 (optional=templinst)_ZNSt6vectorISt4pairISsSsESaIS1_EE5eraseEN9__gnu_cxx17__normal_iteratorIPS1_S3_EE@Base 3.2.0
 (optional=templinst)_ZNSt6vectorISt4pairISsSsESaIS1_EEC1ERKS3_@Base 3.2.0
 (optional=templinst)_ZNSt6vectorISt4pairISsSsESaIS1_EEC2ERKS3_@Base 3.2.0
 (optional=templinst)_ZNSt6vectorISt4pairISsSsESaIS1_EED1Ev@Base 3.2.0
 (optional=templinst)_ZNSt6vectorISt4pairISsSsESaIS1_EED2Ev@Base 3.2.0
 (optional=templinst)_ZNSt6vectorISt4pairISsSsESaIS1_EEaSERKS3_@Base 3.2.0
 (optional=templinst)_ZNSt6vectorISt4pairIjjESaIS1_EE13_M_insert_auxEN9__gnu_cxx17__normal_iteratorIPS1_S3_EERKS1_@Base 3.2.0
 (optional=templinst)_ZNSt6vectorISt4pairIjjESaIS1_EE9push_backERKS1_@Base 3.2.0
 (optional=templinst)_ZNSt6vectorISt4pairIjjESaIS1_EED1Ev@Base 3.2.0
 (optional=templinst)_ZNSt6vectorISt4pairIjjESaIS1_EED2Ev@Base 3.2.0
 (optional=templinst)_ZNSt6vectorIhSaIhEE14_M_fill_insertEN9__gnu_cxx17__normal_iteratorIPhS1_EEjRKh@Base 3.2.0
 (optional=templinst)_ZNSt6vectorIhSaIhEEaSERKS1_@Base 3.2.0
 (optional=templinst)_ZNSt6vectorIjSaIjEE13_M_insert_auxEN9__gnu_cxx17__normal_iteratorIPjS1_EERKj@Base 3.2.0
 (optional=templinst)_ZNSt8_Rb_treeIKjSt4pairIS0_KhESt10_Select1stIS3_ESt4lessIS0_ESaIS3_EE10_M_insert_EPKSt18_Rb_tree_node_baseSC_RKS3_@Base 3.2.0
 (optional=templinst)_ZNSt8_Rb_treeIKjSt4pairIS0_KhESt10_Select1stIS3_ESt4lessIS0_ESaIS3_EE16_M_insert_uniqueERKS3_@Base 3.2.0
 (optional=templinst)_ZNSt8_Rb_treeIKjSt4pairIS0_KhESt10_Select1stIS3_ESt4lessIS0_ESaIS3_EE16_M_insert_uniqueIPS3_EEvT_SC_@Base 3.2.0
 (optional=templinst)_ZNSt8_Rb_treeIKjSt4pairIS0_KhESt10_Select1stIS3_ESt4lessIS0_ESaIS3_EE17_M_insert_unique_ESt23_Rb_tree_const_iteratorIS3_ERKS3_@Base 3.2.0
 (optional=templinst)_ZNSt8_Rb_treeIKjSt4pairIS0_KhESt10_Select1stIS3_ESt4lessIS0_ESaIS3_EE8_M_eraseEPSt13_Rb_tree_nodeIS3_E@Base 3.2.0
 (optional=templinst)_ZNSt8_Rb_treeIN5MyGUI7UStringESt4pairIKS1_S1_ESt10_Select1stIS4_ESt4lessIS1_ESaIS4_EE10_M_insert_EPKSt18_Rb_tree_node_baseSD_RKS4_@Base 3.2.0
 (optional=templinst)_ZNSt8_Rb_treeIN5MyGUI7UStringESt4pairIKS1_S1_ESt10_Select1stIS4_ESt4lessIS1_ESaIS4_EE16_M_insert_uniqueERKS4_@Base 3.2.0
 (optional=templinst)_ZNSt8_Rb_treeIN5MyGUI7UStringESt4pairIKS1_S1_ESt10_Select1stIS4_ESt4lessIS1_ESaIS4_EE17_M_insert_unique_ESt23_Rb_tree_const_iteratorIS4_ERKS4_@Base 3.2.0
 (optional=templinst)_ZNSt8_Rb_treeIN5MyGUI7UStringESt4pairIKS1_S1_ESt10_Select1stIS4_ESt4lessIS1_ESaIS4_EE4findERS3_@Base 3.2.0
 (optional=templinst)_ZNSt8_Rb_treeIN5MyGUI7UStringESt4pairIKS1_S1_ESt10_Select1stIS4_ESt4lessIS1_ESaIS4_EE8_M_eraseEPSt13_Rb_tree_nodeIS4_E@Base 3.2.0
 (optional=templinst)_ZNSt8_Rb_treeIPN5MyGUI7IPluginES2_St9_IdentityIS2_ESt4lessIS2_ESaIS2_EE10_M_insert_EPKSt18_Rb_tree_node_baseSB_RKS2_@Base 3.2.0
 (optional=templinst)_ZNSt8_Rb_treeIPN5MyGUI7IPluginES2_St9_IdentityIS2_ESt4lessIS2_ESaIS2_EE8_M_eraseEPSt13_Rb_tree_nodeIS2_E@Base 3.2.0
 (optional=templinst)_ZNSt8_Rb_treeISsSsSt9_IdentityISsESt4lessISsESaISsEE10_M_insert_EPKSt18_Rb_tree_node_baseS8_RKSs@Base 3.2.0
 (optional=templinst)_ZNSt8_Rb_treeISsSsSt9_IdentityISsESt4lessISsESaISsEE16_M_insert_uniqueERKSs@Base 3.2.0
 (optional=templinst)_ZNSt8_Rb_treeISsSsSt9_IdentityISsESt4lessISsESaISsEE4findERKSs@Base 3.2.0
 (optional=templinst)_ZNSt8_Rb_treeISsSsSt9_IdentityISsESt4lessISsESaISsEE8_M_eraseEPSt13_Rb_tree_nodeISsE@Base 3.2.0
 (optional=templinst)_ZNSt8_Rb_treeISsSt4pairIKSsPN5MyGUI10IStateInfoEESt10_Select1stIS5_ESt4lessISsESaIS5_EE10_M_insert_EPKSt18_Rb_tree_node_baseSE_RKS5_@Base 3.2.0
 (optional=templinst)_ZNSt8_Rb_treeISsSt4pairIKSsPN5MyGUI10IStateInfoEESt10_Select1stIS5_ESt4lessISsESaIS5_EE16_M_insert_uniqueERKS5_@Base 3.2.0
 (optional=templinst)_ZNSt8_Rb_treeISsSt4pairIKSsPN5MyGUI10IStateInfoEESt10_Select1stIS5_ESt4lessISsESaIS5_EE17_M_insert_unique_ESt23_Rb_tree_const_iteratorIS5_ERKS5_@Base 3.2.0
 (optional=templinst)_ZNSt8_Rb_treeISsSt4pairIKSsPN5MyGUI10IStateInfoEESt10_Select1stIS5_ESt4lessISsESaIS5_EE8_M_eraseEPSt13_Rb_tree_nodeIS5_E@Base 3.2.0
 (optional=templinst)_ZNSt8_Rb_treeISsSt4pairIKSsPN5MyGUI6DynLibEESt10_Select1stIS5_ESt4lessISsESaIS5_EE10_M_insert_EPKSt18_Rb_tree_node_baseSE_RKS5_@Base 3.2.0
 (optional=templinst)_ZNSt8_Rb_treeISsSt4pairIKSsPN5MyGUI6DynLibEESt10_Select1stIS5_ESt4lessISsESaIS5_EE16_M_insert_uniqueERKS5_@Base 3.2.0
 (optional=templinst)_ZNSt8_Rb_treeISsSt4pairIKSsPN5MyGUI6DynLibEESt10_Select1stIS5_ESt4lessISsESaIS5_EE17_M_insert_unique_ESt23_Rb_tree_const_iteratorIS5_ERKS5_@Base 3.2.0
 (optional=templinst)_ZNSt8_Rb_treeISsSt4pairIKSsPN5MyGUI6DynLibEESt10_Select1stIS5_ESt4lessISsESaIS5_EE4findERS1_@Base 3.2.0
 (optional=templinst)_ZNSt8_Rb_treeISsSt4pairIKSsPN5MyGUI6DynLibEESt10_Select1stIS5_ESt4lessISsESaIS5_EE8_M_eraseEPSt13_Rb_tree_nodeIS5_E@Base 3.2.0
 (optional=templinst)_ZNSt8_Rb_treeISsSt4pairIKSsPN5MyGUI9IResourceEESt10_Select1stIS5_ESt4lessISsESaIS5_EE10_M_insert_EPKSt18_Rb_tree_node_baseSE_RKS5_@Base 3.2.0
 (optional=templinst)_ZNSt8_Rb_treeISsSt4pairIKSsPN5MyGUI9IResourceEESt10_Select1stIS5_ESt4lessISsESaIS5_EE11equal_rangeERS1_@Base 3.2.0
 (optional=templinst)_ZNSt8_Rb_treeISsSt4pairIKSsPN5MyGUI9IResourceEESt10_Select1stIS5_ESt4lessISsESaIS5_EE12_M_erase_auxESt23_Rb_tree_const_iteratorIS5_E@Base 3.2.0
 (optional=templinst)_ZNSt8_Rb_treeISsSt4pairIKSsPN5MyGUI9IResourceEESt10_Select1stIS5_ESt4lessISsESaIS5_EE16_M_insert_uniqueERKS5_@Base 3.2.0
 (optional=templinst)_ZNSt8_Rb_treeISsSt4pairIKSsPN5MyGUI9IResourceEESt10_Select1stIS5_ESt4lessISsESaIS5_EE17_M_insert_unique_ESt23_Rb_tree_const_iteratorIS5_ERKS5_@Base 3.2.0
 (optional=templinst)_ZNSt8_Rb_treeISsSt4pairIKSsPN5MyGUI9IResourceEESt10_Select1stIS5_ESt4lessISsESaIS5_EE4findERS1_@Base 3.2.0
 (optional=templinst)_ZNSt8_Rb_treeISsSt4pairIKSsPN5MyGUI9IResourceEESt10_Select1stIS5_ESt4lessISsESaIS5_EE8_M_eraseEPSt13_Rb_tree_nodeIS5_E@Base 3.2.0
 (optional=templinst)_ZNSt8_Rb_treeISsSt4pairIKSsSsESt10_Select1stIS2_ESt4lessISsESaIS2_EE10_M_insert_EPKSt18_Rb_tree_node_baseSB_RKS2_@Base 3.2.0
 (optional=templinst)_ZNSt8_Rb_treeISsSt4pairIKSsSsESt10_Select1stIS2_ESt4lessISsESaIS2_EE16_M_insert_uniqueERKS2_@Base 3.2.0
 (optional=templinst)_ZNSt8_Rb_treeISsSt4pairIKSsSsESt10_Select1stIS2_ESt4lessISsESaIS2_EE17_M_insert_unique_ESt23_Rb_tree_const_iteratorIS2_ERKS2_@Base 3.2.0
 (optional=templinst)_ZNSt8_Rb_treeISsSt4pairIKSsSsESt10_Select1stIS2_ESt4lessISsESaIS2_EE4findERS1_@Base 3.2.0
 (optional=templinst)_ZNSt8_Rb_treeISsSt4pairIKSsSsESt10_Select1stIS2_ESt4lessISsESaIS2_EE7_M_copyEPKSt13_Rb_tree_nodeIS2_EPSA_@Base 3.2.0
 (optional=templinst)_ZNSt8_Rb_treeISsSt4pairIKSsSsESt10_Select1stIS2_ESt4lessISsESaIS2_EE8_M_eraseEPSt13_Rb_tree_nodeIS2_E@Base 3.2.0
 (optional=templinst)_ZNSt8_Rb_treeISsSt4pairIKSsSsESt10_Select1stIS2_ESt4lessISsESaIS2_EEC1ERKS8_@Base 3.2.0
 (optional=templinst)_ZNSt8_Rb_treeISsSt4pairIKSsSsESt10_Select1stIS2_ESt4lessISsESaIS2_EEC2ERKS8_@Base 3.2.0
 (optional=templinst)_ZNSt8_Rb_treeISsSt4pairIKSsSsESt10_Select1stIS2_ESt4lessISsESaIS2_EEaSERKS8_@Base 3.2.0
 (optional=templinst)_ZNSt8_Rb_treeISsSt4pairIKSsSt6vectorIPN5MyGUI10IStateInfoESaIS5_EEESt10_Select1stIS8_ESt4lessISsESaIS8_EE10_M_insert_EPKSt18_Rb_tree_node_baseSH_RKS8_@Base 3.2.0
 (optional=templinst)_ZNSt8_Rb_treeISsSt4pairIKSsSt6vectorIPN5MyGUI10IStateInfoESaIS5_EEESt10_Select1stIS8_ESt4lessISsESaIS8_EE16_M_insert_uniqueERKS8_@Base 3.2.0
 (optional=templinst)_ZNSt8_Rb_treeISsSt4pairIKSsSt6vectorIPN5MyGUI10IStateInfoESaIS5_EEESt10_Select1stIS8_ESt4lessISsESaIS8_EE17_M_insert_unique_ESt23_Rb_tree_const_iteratorIS8_ERKS8_@Base 3.2.0
 (optional=templinst)_ZNSt8_Rb_treeISsSt4pairIKSsSt6vectorIPN5MyGUI10IStateInfoESaIS5_EEESt10_Select1stIS8_ESt4lessISsESaIS8_EE4findERS1_@Base 3.2.0
 (optional=templinst)_ZNSt8_Rb_treeISsSt4pairIKSsSt6vectorIPN5MyGUI10IStateInfoESaIS5_EEESt10_Select1stIS8_ESt4lessISsESaIS8_EE7_M_copyEPKSt13_Rb_tree_nodeIS8_EPSG_@Base 3.2.0
 (optional=templinst)_ZNSt8_Rb_treeISsSt4pairIKSsSt6vectorIPN5MyGUI10IStateInfoESaIS5_EEESt10_Select1stIS8_ESt4lessISsESaIS8_EE8_M_eraseEPSt13_Rb_tree_nodeIS8_E@Base 3.2.0
 (optional=templinst)_ZNSt8_Rb_treeISsSt4pairIKSsSt6vectorISsSaISsEEESt10_Select1stIS5_ESt4lessISsESaIS5_EE10_M_insert_EPKSt18_Rb_tree_node_baseSE_RKS5_@Base 3.2.0
 (optional=templinst)_ZNSt8_Rb_treeISsSt4pairIKSsSt6vectorISsSaISsEEESt10_Select1stIS5_ESt4lessISsESaIS5_EE16_M_insert_uniqueERKS5_@Base 3.2.0
 (optional=templinst)_ZNSt8_Rb_treeISsSt4pairIKSsSt6vectorISsSaISsEEESt10_Select1stIS5_ESt4lessISsESaIS5_EE17_M_insert_unique_ESt23_Rb_tree_const_iteratorIS5_ERKS5_@Base 3.2.0
 (optional=templinst)_ZNSt8_Rb_treeISsSt4pairIKSsSt6vectorISsSaISsEEESt10_Select1stIS5_ESt4lessISsESaIS5_EE4findERS1_@Base 3.2.0
 (optional=templinst)_ZNSt8_Rb_treeISsSt4pairIKSsSt6vectorISsSaISsEEESt10_Select1stIS5_ESt4lessISsESaIS5_EE8_M_eraseEPSt13_Rb_tree_nodeIS5_E@Base 3.2.0
 (optional=templinst)_ZNSt8_Rb_treeISsSt4pairIKSsiESt10_Select1stIS2_ESt4lessISsESaIS2_EE10_M_insert_EPKSt18_Rb_tree_node_baseSB_RKS2_@Base 3.2.0
 (optional=templinst)_ZNSt8_Rb_treeISsSt4pairIKSsiESt10_Select1stIS2_ESt4lessISsESaIS2_EE16_M_insert_uniqueERKS2_@Base 3.2.0
 (optional=templinst)_ZNSt8_Rb_treeISsSt4pairIKSsiESt10_Select1stIS2_ESt4lessISsESaIS2_EE17_M_insert_unique_ESt23_Rb_tree_const_iteratorIS2_ERKS2_@Base 3.2.0
 (optional=templinst)_ZNSt8_Rb_treeISsSt4pairIKSsiESt10_Select1stIS2_ESt4lessISsESaIS2_EE8_M_eraseEPSt13_Rb_tree_nodeIS2_E@Base 3.2.0
 (optional=templinst)_ZNSt8_Rb_treeIfSt4pairIKflESt10_Select1stIS2_ESt4lessIfESaIS2_EE10_M_insert_EPKSt18_Rb_tree_node_baseSB_RKS2_@Base 3.2.0
 (optional=templinst)_ZNSt8_Rb_treeIfSt4pairIKflESt10_Select1stIS2_ESt4lessIfESaIS2_EE16_M_insert_uniqueERKS2_@Base 3.2.0
 (optional=templinst)_ZNSt8_Rb_treeIfSt4pairIKflESt10_Select1stIS2_ESt4lessIfESaIS2_EE8_M_eraseEPSt13_Rb_tree_nodeIS2_E@Base 3.2.0
 (optional=templinst)_ZNSt8_Rb_treeIjSt4pairIKjjESt10_Select1stIS2_ESt4lessIjESaIS2_EE10_M_insert_EPKSt18_Rb_tree_node_baseSB_RKS2_@Base 3.2.0
 (optional=templinst)_ZNSt8_Rb_treeIjSt4pairIKjjESt10_Select1stIS2_ESt4lessIjESaIS2_EE12_M_erase_auxESt23_Rb_tree_const_iteratorIS2_E@Base 3.2.0
 (optional=templinst)_ZNSt8_Rb_treeIjSt4pairIKjjESt10_Select1stIS2_ESt4lessIjESaIS2_EE12_M_erase_auxESt23_Rb_tree_const_iteratorIS2_ESA_@Base 3.2.0
 (optional=templinst)_ZNSt8_Rb_treeIjSt4pairIKjjESt10_Select1stIS2_ESt4lessIjESaIS2_EE16_M_insert_uniqueERKS2_@Base 3.2.0
 (optional=templinst)_ZNSt8_Rb_treeIjSt4pairIKjjESt10_Select1stIS2_ESt4lessIjESaIS2_EE17_M_insert_unique_ESt23_Rb_tree_const_iteratorIS2_ERKS2_@Base 3.2.0
 (optional=templinst)_ZNSt8_Rb_treeIjSt4pairIKjjESt10_Select1stIS2_ESt4lessIjESaIS2_EE4findERS1_@Base 3.2.0
 (optional=templinst)_ZNSt8_Rb_treeIjSt4pairIKjjESt10_Select1stIS2_ESt4lessIjESaIS2_EE5clearEv@Base 3.2.0
 (optional=templinst)_ZNSt8_Rb_treeIjSt4pairIKjjESt10_Select1stIS2_ESt4lessIjESaIS2_EE8_M_eraseEPSt13_Rb_tree_nodeIS2_E@Base 3.2.0
 (optional=templinst)_ZSt6removeIN9__gnu_cxx17__normal_iteratorIPPN5MyGUI13IUnlinkWidgetESt6vectorIS4_SaIS4_EEEES4_ET_SA_SA_RKT0_@Base 3.2.0
 (optional=templinst)_ZSt6removeIN9__gnu_cxx17__normal_iteratorIPPN5MyGUI9LayerItemESt6vectorIS4_SaIS4_EEEES4_ET_SA_SA_RKT0_@Base 3.2.0
 (optional=templinst)_ZSteqIcSt11char_traitsIcESaIcEEbRKSbIT_T0_T1_EPKS3_@Base 3.2.0
 (optional=templinst)_ZStplIcSt11char_traitsIcESaIcEESbIT_T0_T1_EPKS3_RKS6_@Base 3.2.0
 _ZTIN5MyGUI10DataStreamE@Base 3.2.0
 _ZTIN5MyGUI10ILayerItemE@Base 3.2.0
 _ZTIN5MyGUI10ILayerNodeE@Base 3.2.0
 _ZTIN5MyGUI10ILogFilterE@Base 3.2.0
 _ZTIN5MyGUI10IStateInfoE@Base 3.2.0
 _ZTIN5MyGUI10ISubWidgetE@Base 3.2.0
 _ZTIN5MyGUI10RenderItemE@Base 3.2.0
 _ZTIN5MyGUI10ScrollViewE@Base 3.2.0
 _ZTIN5MyGUI10SimpleTextE@Base 3.2.0
 _ZTIN5MyGUI10TabControlE@Base 3.2.0
 _ZTIN5MyGUI11BiIndexBaseE@Base 3.2.0
 _ZTIN5MyGUI11DDContainerE@Base 3.2.0
 _ZTIN5MyGUI11FontManagerE@Base 3.2.0
 _ZTIN5MyGUI11IDataStreamE@Base 3.2.0
 _ZTIN5MyGUI11MenuControlE@Base 3.2.0
 _ZTIN5MyGUI11ProgressBarE@Base 3.2.0
 _ZTIN5MyGUI11SharedLayerE@Base 3.2.0
 _ZTIN5MyGUI11SkinManagerE@Base 3.2.0
 _ZTIN5MyGUI11WidgetInputE@Base 3.2.0
 _ZTIN5MyGUI12ILogListenerE@Base 3.2.0
 _ZTIN5MyGUI12InputManagerE@Base 3.2.0
 _ZTIN5MyGUI12LayerManagerE@Base 3.2.0
 _ZTIN5MyGUI12MultiListBoxE@Base 3.2.0
 _ZTIN5MyGUI12ResourceSkinE@Base 3.2.0
 _ZTIN5MyGUI12RotatingSkinE@Base 3.2.0
 _ZTIN5MyGUI13DynLibManagerE@Base 3.2.0
 _ZTIN5MyGUI13ISerializableE@Base 3.2.0
 _ZTIN5MyGUI13IUnlinkWidgetE@Base 3.2.0
 _ZTIN5MyGUI13LayoutManagerE@Base 3.2.0
 _ZTIN5MyGUI13MultiListItemE@Base 3.2.0
 _ZTIN5MyGUI13PluginManagerE@Base 3.2.0
 _ZTIN5MyGUI13PolygonalSkinE@Base 3.2.0
 _ZTIN5MyGUI13RenderManagerE@Base 3.2.0
 _ZTIN5MyGUI13WidgetManagerE@Base 3.2.0
 _ZTIN5MyGUI14ControllerItemE@Base 3.2.0
 _ZTIN5MyGUI14DataFileStreamE@Base 3.2.0
 _ZTIN5MyGUI14FactoryManagerE@Base 3.2.0
 _ZTIN5MyGUI14IItemContainerE@Base 3.2.0
 _ZTIN5MyGUI14ISubWidgetRectE@Base 3.2.0
 _ZTIN5MyGUI14ISubWidgetTextE@Base 3.2.0
 _ZTIN5MyGUI14LevelLogFilterE@Base 3.2.0
 _ZTIN5MyGUI14MemberObsoleteINS_10ScrollViewEEE@Base 3.2.0
 _ZTIN5MyGUI14MemberObsoleteINS_10TabControlEEE@Base 3.2.0
 _ZTIN5MyGUI14MemberObsoleteINS_11FontManagerEEE@Base 3.2.0
 _ZTIN5MyGUI14MemberObsoleteINS_11MenuControlEEE@Base 3.2.0
 _ZTIN5MyGUI14MemberObsoleteINS_11ProgressBarEEE@Base 3.2.0
 _ZTIN5MyGUI14MemberObsoleteINS_11SkinManagerEEE@Base 3.2.0
 _ZTIN5MyGUI14MemberObsoleteINS_12InputManagerEEE@Base 3.2.0
 _ZTIN5MyGUI14MemberObsoleteINS_12LayerManagerEEE@Base 3.2.0
 _ZTIN5MyGUI14MemberObsoleteINS_12MultiListBoxEEE@Base 3.2.0
 _ZTIN5MyGUI14MemberObsoleteINS_13LayoutManagerEEE@Base 3.2.0
 _ZTIN5MyGUI14MemberObsoleteINS_13PluginManagerEEE@Base 3.2.0
 _ZTIN5MyGUI14MemberObsoleteINS_13WidgetManagerEEE@Base 3.2.0
 _ZTIN5MyGUI14MemberObsoleteINS_14PointerManagerEEE@Base 3.2.0
 _ZTIN5MyGUI14MemberObsoleteINS_15LanguageManagerEEE@Base 3.2.0
 _ZTIN5MyGUI14MemberObsoleteINS_15ResourceManagerEEE@Base 3.2.0
 _ZTIN5MyGUI14MemberObsoleteINS_3GuiEEE@Base 3.2.0
 _ZTIN5MyGUI14MemberObsoleteINS_6ButtonEEE@Base 3.2.0
 _ZTIN5MyGUI14MemberObsoleteINS_6WidgetEEE@Base 3.2.0
 _ZTIN5MyGUI14MemberObsoleteINS_6WindowEEE@Base 3.2.0
 _ZTIN5MyGUI14MemberObsoleteINS_7EditBoxEEE@Base 3.2.0
 _ZTIN5MyGUI14MemberObsoleteINS_7ItemBoxEEE@Base 3.2.0
 _ZTIN5MyGUI14MemberObsoleteINS_7ListBoxEEE@Base 3.2.0
 _ZTIN5MyGUI14MemberObsoleteINS_8ComboBoxEEE@Base 3.2.0
 _ZTIN5MyGUI14MemberObsoleteINS_8MenuItemEEE@Base 3.2.0
 _ZTIN5MyGUI14PointerManagerE@Base 3.2.0
 _ZTIN5MyGUI14ResourceLayoutE@Base 3.2.0
 _ZTIN5MyGUI14ScrollViewBaseE@Base 3.2.0
 _ZTIN5MyGUI14ToolTipManagerE@Base 3.2.0
 _ZTIN5MyGUI15FileLogListenerE@Base 3.2.0
 _ZTIN5MyGUI15LanguageManagerE@Base 3.2.0
 _ZTIN5MyGUI15OverlappedLayerE@Base 3.2.0
 _ZTIN5MyGUI15ResourceManagerE@Base 3.2.0
 _ZTIN5MyGUI15SharedLayerNodeE@Base 3.2.0
 _ZTIN5MyGUI16ClipboardManagerE@Base 3.2.0
 _ZTIN5MyGUI16ResourceImageSetE@Base 3.2.0
 _ZTIN5MyGUI16SubSkinStateInfoE@Base 3.2.0
 _ZTIN5MyGUI16SubWidgetManagerE@Base 3.2.0
 _ZTIN5MyGUI17ControllerManagerE@Base 3.2.0
 _ZTIN5MyGUI17EditTextStateInfoE@Base 3.2.0
 _ZTIN5MyGUI17ICroppedRectangleE@Base 3.2.0
 _ZTIN5MyGUI17TileRectStateInfoE@Base 3.2.0
 _ZTIN5MyGUI18ConsoleLogListenerE@Base 3.2.0
 _ZTIN5MyGUI18ControllerEdgeHideE@Base 3.2.0
 _ZTIN5MyGUI18ControllerPositionE@Base 3.2.0
 _ZTIN5MyGUI18ResourceManualFontE@Base 3.2.0
 _ZTIN5MyGUI19ControllerFadeAlphaE@Base 3.2.0
 _ZTIN5MyGUI20ResourceTrueTypeFontE@Base 3.2.0
 _ZTIN5MyGUI21ResourceManualPointerE@Base 3.2.0
 _ZTIN5MyGUI23ResourceImageSetPointerE@Base 3.2.0
 _ZTIN5MyGUI26ITextureInvalidateListenerE@Base 3.2.0
 _ZTIN5MyGUI3Any11PlaceholderE@Base 3.2.0
 _ZTIN5MyGUI3Any6HolderIiEE@Base 3.2.0
 _ZTIN5MyGUI3Any6HolderIjEE@Base 3.2.0
 _ZTIN5MyGUI3GuiE@Base 3.2.0
 _ZTIN5MyGUI5IFontE@Base 3.2.0
 _ZTIN5MyGUI5IItemE@Base 3.2.0
 _ZTIN5MyGUI6ButtonE@Base 3.2.0
 _ZTIN5MyGUI6CanvasE@Base 3.2.0
 _ZTIN5MyGUI6ILayerE@Base 3.2.0
 _ZTIN5MyGUI6WidgetE@Base 3.2.0
 _ZTIN5MyGUI6WindowE@Base 3.2.0
 _ZTIN5MyGUI7EditBoxE@Base 3.2.0
 _ZTIN5MyGUI7HScrollE@Base 3.2.0
 _ZTIN5MyGUI7IObjectE@Base 3.2.0
 _ZTIN5MyGUI7ItemBoxE@Base 3.2.0
 _ZTIN5MyGUI7ListBoxE@Base 3.2.0
 _ZTIN5MyGUI7MenuBarE@Base 3.2.0
 _ZTIN5MyGUI7SubSkinE@Base 3.2.0
 _ZTIN5MyGUI7TabItemE@Base 3.2.0
 _ZTIN5MyGUI7TextBoxE@Base 3.2.0
 _ZTIN5MyGUI7UString12invalid_dataE@Base 3.2.0
 _ZTIN5MyGUI7VScrollE@Base 3.2.0
 _ZTIN5MyGUI8ComboBoxE@Base 3.2.0
 _ZTIN5MyGUI8EditTextE@Base 3.2.0
 _ZTIN5MyGUI8IPointerE@Base 3.2.0
 _ZTIN5MyGUI8ImageBoxE@Base 3.2.0
 _ZTIN5MyGUI8MainSkinE@Base 3.2.0
 _ZTIN5MyGUI8MenuItemE@Base 3.2.0
 _ZTIN5MyGUI8SkinItemE@Base 3.2.0
 _ZTIN5MyGUI8TileRectE@Base 3.2.0
 _ZTIN5MyGUI8UserDataE@Base 3.2.0
 _ZTIN5MyGUI9ExceptionE@Base 3.2.0
 _ZTIN5MyGUI9IResourceE@Base 3.2.0
 _ZTIN5MyGUI9LayerItemE@Base 3.2.0
 _ZTIN5MyGUI9LayerNodeE@Base 3.2.0
 _ZTIN5MyGUI9PopupMenuE@Base 3.2.0
 _ZTIN5MyGUI9ScrollBarE@Base 3.2.0
 _ZTIN5MyGUI9SingletonINS_11FontManagerEEE@Base 3.2.0
 _ZTIN5MyGUI9SingletonINS_11SkinManagerEEE@Base 3.2.0
 _ZTIN5MyGUI9SingletonINS_12InputManagerEEE@Base 3.2.0
 _ZTIN5MyGUI9SingletonINS_12LayerManagerEEE@Base 3.2.0
 _ZTIN5MyGUI9SingletonINS_13DynLibManagerEEE@Base 3.2.0
 _ZTIN5MyGUI9SingletonINS_13LayoutManagerEEE@Base 3.2.0
 _ZTIN5MyGUI9SingletonINS_13PluginManagerEEE@Base 3.2.0
 _ZTIN5MyGUI9SingletonINS_13RenderManagerEEE@Base 3.2.0
 _ZTIN5MyGUI9SingletonINS_13WidgetManagerEEE@Base 3.2.0
 _ZTIN5MyGUI9SingletonINS_14FactoryManagerEEE@Base 3.2.0
 _ZTIN5MyGUI9SingletonINS_14PointerManagerEEE@Base 3.2.0
 _ZTIN5MyGUI9SingletonINS_14ToolTipManagerEEE@Base 3.2.0
 _ZTIN5MyGUI9SingletonINS_15LanguageManagerEEE@Base 3.2.0
 _ZTIN5MyGUI9SingletonINS_15ResourceManagerEEE@Base 3.2.0
 _ZTIN5MyGUI9SingletonINS_16ClipboardManagerEEE@Base 3.2.0
 _ZTIN5MyGUI9SingletonINS_16SubWidgetManagerEEE@Base 3.2.0
 _ZTIN5MyGUI9SingletonINS_17ControllerManagerEEE@Base 3.2.0
 _ZTIN5MyGUI9SingletonINS_3GuiEEE@Base 3.2.0
 _ZTIN5MyGUI9delegates15IDelegateUnlinkE@Base 3.2.0
 _ZTSN5MyGUI10DataStreamE@Base 3.2.0
 _ZTSN5MyGUI10ILayerItemE@Base 3.2.0
 _ZTSN5MyGUI10ILayerNodeE@Base 3.2.0
 _ZTSN5MyGUI10ILogFilterE@Base 3.2.0
 _ZTSN5MyGUI10IStateInfoE@Base 3.2.0
 _ZTSN5MyGUI10ISubWidgetE@Base 3.2.0
 _ZTSN5MyGUI10RenderItemE@Base 3.2.0
 _ZTSN5MyGUI10ScrollViewE@Base 3.2.0
 _ZTSN5MyGUI10SimpleTextE@Base 3.2.0
 _ZTSN5MyGUI10TabControlE@Base 3.2.0
 _ZTSN5MyGUI11BiIndexBaseE@Base 3.2.0
 _ZTSN5MyGUI11DDContainerE@Base 3.2.0
 _ZTSN5MyGUI11FontManagerE@Base 3.2.0
 _ZTSN5MyGUI11IDataStreamE@Base 3.2.0
 _ZTSN5MyGUI11MenuControlE@Base 3.2.0
 _ZTSN5MyGUI11ProgressBarE@Base 3.2.0
 _ZTSN5MyGUI11SharedLayerE@Base 3.2.0
 _ZTSN5MyGUI11SkinManagerE@Base 3.2.0
 _ZTSN5MyGUI11WidgetInputE@Base 3.2.0
 _ZTSN5MyGUI12ILogListenerE@Base 3.2.0
 _ZTSN5MyGUI12InputManagerE@Base 3.2.0
 _ZTSN5MyGUI12LayerManagerE@Base 3.2.0
 _ZTSN5MyGUI12MultiListBoxE@Base 3.2.0
 _ZTSN5MyGUI12ResourceSkinE@Base 3.2.0
 _ZTSN5MyGUI12RotatingSkinE@Base 3.2.0
 _ZTSN5MyGUI13DynLibManagerE@Base 3.2.0
 _ZTSN5MyGUI13ISerializableE@Base 3.2.0
 _ZTSN5MyGUI13IUnlinkWidgetE@Base 3.2.0
 _ZTSN5MyGUI13LayoutManagerE@Base 3.2.0
 _ZTSN5MyGUI13MultiListItemE@Base 3.2.0
 _ZTSN5MyGUI13PluginManagerE@Base 3.2.0
 _ZTSN5MyGUI13PolygonalSkinE@Base 3.2.0
 _ZTSN5MyGUI13RenderManagerE@Base 3.2.0
 _ZTSN5MyGUI13WidgetManagerE@Base 3.2.0
 _ZTSN5MyGUI14ControllerItemE@Base 3.2.0
 _ZTSN5MyGUI14DataFileStreamE@Base 3.2.0
 _ZTSN5MyGUI14FactoryManagerE@Base 3.2.0
 _ZTSN5MyGUI14IItemContainerE@Base 3.2.0
 _ZTSN5MyGUI14ISubWidgetRectE@Base 3.2.0
 _ZTSN5MyGUI14ISubWidgetTextE@Base 3.2.0
 _ZTSN5MyGUI14LevelLogFilterE@Base 3.2.0
 _ZTSN5MyGUI14MemberObsoleteINS_10ScrollViewEEE@Base 3.2.0
 _ZTSN5MyGUI14MemberObsoleteINS_10TabControlEEE@Base 3.2.0
 _ZTSN5MyGUI14MemberObsoleteINS_11FontManagerEEE@Base 3.2.0
 _ZTSN5MyGUI14MemberObsoleteINS_11MenuControlEEE@Base 3.2.0
 _ZTSN5MyGUI14MemberObsoleteINS_11ProgressBarEEE@Base 3.2.0
 _ZTSN5MyGUI14MemberObsoleteINS_11SkinManagerEEE@Base 3.2.0
 _ZTSN5MyGUI14MemberObsoleteINS_12InputManagerEEE@Base 3.2.0
 _ZTSN5MyGUI14MemberObsoleteINS_12LayerManagerEEE@Base 3.2.0
 _ZTSN5MyGUI14MemberObsoleteINS_12MultiListBoxEEE@Base 3.2.0
 _ZTSN5MyGUI14MemberObsoleteINS_13LayoutManagerEEE@Base 3.2.0
 _ZTSN5MyGUI14MemberObsoleteINS_13PluginManagerEEE@Base 3.2.0
 _ZTSN5MyGUI14MemberObsoleteINS_13WidgetManagerEEE@Base 3.2.0
 _ZTSN5MyGUI14MemberObsoleteINS_14PointerManagerEEE@Base 3.2.0
 _ZTSN5MyGUI14MemberObsoleteINS_15LanguageManagerEEE@Base 3.2.0
 _ZTSN5MyGUI14MemberObsoleteINS_15ResourceManagerEEE@Base 3.2.0
 _ZTSN5MyGUI14MemberObsoleteINS_3GuiEEE@Base 3.2.0
 _ZTSN5MyGUI14MemberObsoleteINS_6ButtonEEE@Base 3.2.0
 _ZTSN5MyGUI14MemberObsoleteINS_6WidgetEEE@Base 3.2.0
 _ZTSN5MyGUI14MemberObsoleteINS_6WindowEEE@Base 3.2.0
 _ZTSN5MyGUI14MemberObsoleteINS_7EditBoxEEE@Base 3.2.0
 _ZTSN5MyGUI14MemberObsoleteINS_7ItemBoxEEE@Base 3.2.0
 _ZTSN5MyGUI14MemberObsoleteINS_7ListBoxEEE@Base 3.2.0
 _ZTSN5MyGUI14MemberObsoleteINS_8ComboBoxEEE@Base 3.2.0
 _ZTSN5MyGUI14MemberObsoleteINS_8MenuItemEEE@Base 3.2.0
 _ZTSN5MyGUI14PointerManagerE@Base 3.2.0
 _ZTSN5MyGUI14ResourceLayoutE@Base 3.2.0
 _ZTSN5MyGUI14ScrollViewBaseE@Base 3.2.0
 _ZTSN5MyGUI14ToolTipManagerE@Base 3.2.0
 _ZTSN5MyGUI15FileLogListenerE@Base 3.2.0
 _ZTSN5MyGUI15LanguageManagerE@Base 3.2.0
 _ZTSN5MyGUI15OverlappedLayerE@Base 3.2.0
 _ZTSN5MyGUI15ResourceManagerE@Base 3.2.0
 _ZTSN5MyGUI15SharedLayerNodeE@Base 3.2.0
 _ZTSN5MyGUI16ClipboardManagerE@Base 3.2.0
 _ZTSN5MyGUI16ResourceImageSetE@Base 3.2.0
 _ZTSN5MyGUI16SubSkinStateInfoE@Base 3.2.0
 _ZTSN5MyGUI16SubWidgetManagerE@Base 3.2.0
 _ZTSN5MyGUI17ControllerManagerE@Base 3.2.0
 _ZTSN5MyGUI17EditTextStateInfoE@Base 3.2.0
 _ZTSN5MyGUI17ICroppedRectangleE@Base 3.2.0
 _ZTSN5MyGUI17TileRectStateInfoE@Base 3.2.0
 _ZTSN5MyGUI18ConsoleLogListenerE@Base 3.2.0
 _ZTSN5MyGUI18ControllerEdgeHideE@Base 3.2.0
 _ZTSN5MyGUI18ControllerPositionE@Base 3.2.0
 _ZTSN5MyGUI18ResourceManualFontE@Base 3.2.0
 _ZTSN5MyGUI19ControllerFadeAlphaE@Base 3.2.0
 _ZTSN5MyGUI20ResourceTrueTypeFontE@Base 3.2.0
 _ZTSN5MyGUI21ResourceManualPointerE@Base 3.2.0
 _ZTSN5MyGUI23ResourceImageSetPointerE@Base 3.2.0
 _ZTSN5MyGUI26ITextureInvalidateListenerE@Base 3.2.0
 _ZTSN5MyGUI3Any11PlaceholderE@Base 3.2.0
 _ZTSN5MyGUI3Any6HolderIiEE@Base 3.2.0
 _ZTSN5MyGUI3Any6HolderIjEE@Base 3.2.0
 _ZTSN5MyGUI3GuiE@Base 3.2.0
 _ZTSN5MyGUI5IFontE@Base 3.2.0
 _ZTSN5MyGUI5IItemE@Base 3.2.0
 _ZTSN5MyGUI6ButtonE@Base 3.2.0
 _ZTSN5MyGUI6CanvasE@Base 3.2.0
 _ZTSN5MyGUI6ILayerE@Base 3.2.0
 _ZTSN5MyGUI6WidgetE@Base 3.2.0
 _ZTSN5MyGUI6WindowE@Base 3.2.0
 _ZTSN5MyGUI7EditBoxE@Base 3.2.0
 _ZTSN5MyGUI7HScrollE@Base 3.2.0
 _ZTSN5MyGUI7IObjectE@Base 3.2.0
 _ZTSN5MyGUI7ItemBoxE@Base 3.2.0
 _ZTSN5MyGUI7ListBoxE@Base 3.2.0
 _ZTSN5MyGUI7MenuBarE@Base 3.2.0
 _ZTSN5MyGUI7SubSkinE@Base 3.2.0
 _ZTSN5MyGUI7TabItemE@Base 3.2.0
 _ZTSN5MyGUI7TextBoxE@Base 3.2.0
 _ZTSN5MyGUI7UString12invalid_dataE@Base 3.2.0
 _ZTSN5MyGUI7VScrollE@Base 3.2.0
 _ZTSN5MyGUI8ComboBoxE@Base 3.2.0
 _ZTSN5MyGUI8EditTextE@Base 3.2.0
 _ZTSN5MyGUI8IPointerE@Base 3.2.0
 _ZTSN5MyGUI8ImageBoxE@Base 3.2.0
 _ZTSN5MyGUI8MainSkinE@Base 3.2.0
 _ZTSN5MyGUI8MenuItemE@Base 3.2.0
 _ZTSN5MyGUI8SkinItemE@Base 3.2.0
 _ZTSN5MyGUI8TileRectE@Base 3.2.0
 _ZTSN5MyGUI8UserDataE@Base 3.2.0
 _ZTSN5MyGUI9ExceptionE@Base 3.2.0
 _ZTSN5MyGUI9IResourceE@Base 3.2.0
 _ZTSN5MyGUI9LayerItemE@Base 3.2.0
 _ZTSN5MyGUI9LayerNodeE@Base 3.2.0
 _ZTSN5MyGUI9PopupMenuE@Base 3.2.0
 _ZTSN5MyGUI9ScrollBarE@Base 3.2.0
 _ZTSN5MyGUI9SingletonINS_11FontManagerEEE@Base 3.2.0
 _ZTSN5MyGUI9SingletonINS_11SkinManagerEEE@Base 3.2.0
 _ZTSN5MyGUI9SingletonINS_12InputManagerEEE@Base 3.2.0
 _ZTSN5MyGUI9SingletonINS_12LayerManagerEEE@Base 3.2.0
 _ZTSN5MyGUI9SingletonINS_13DynLibManagerEEE@Base 3.2.0
 _ZTSN5MyGUI9SingletonINS_13LayoutManagerEEE@Base 3.2.0
 _ZTSN5MyGUI9SingletonINS_13PluginManagerEEE@Base 3.2.0
 _ZTSN5MyGUI9SingletonINS_13RenderManagerEEE@Base 3.2.0
 _ZTSN5MyGUI9SingletonINS_13WidgetManagerEEE@Base 3.2.0
 _ZTSN5MyGUI9SingletonINS_14FactoryManagerEEE@Base 3.2.0
 _ZTSN5MyGUI9SingletonINS_14PointerManagerEEE@Base 3.2.0
 _ZTSN5MyGUI9SingletonINS_14ToolTipManagerEEE@Base 3.2.0
 _ZTSN5MyGUI9SingletonINS_15LanguageManagerEEE@Base 3.2.0
 _ZTSN5MyGUI9SingletonINS_15ResourceManagerEEE@Base 3.2.0
 _ZTSN5MyGUI9SingletonINS_16ClipboardManagerEEE@Base 3.2.0
 _ZTSN5MyGUI9SingletonINS_16SubWidgetManagerEEE@Base 3.2.0
 _ZTSN5MyGUI9SingletonINS_17ControllerManagerEEE@Base 3.2.0
 _ZTSN5MyGUI9SingletonINS_3GuiEEE@Base 3.2.0
 _ZTSN5MyGUI9delegates15IDelegateUnlinkE@Base 3.2.0
 _ZTVN5MyGUI10DataStreamE@Base 3.2.0
 _ZTVN5MyGUI10ILayerItemE@Base 3.2.0
 _ZTVN5MyGUI10ILayerNodeE@Base 3.2.0
 _ZTVN5MyGUI10ILogFilterE@Base 3.2.0
 _ZTVN5MyGUI10IStateInfoE@Base 3.2.0
 _ZTVN5MyGUI10ISubWidgetE@Base 3.2.0
 _ZTVN5MyGUI10RenderItemE@Base 3.2.0
 _ZTVN5MyGUI10ScrollViewE@Base 3.2.0
 _ZTVN5MyGUI10SimpleTextE@Base 3.2.0
 _ZTVN5MyGUI10TabControlE@Base 3.2.0
 _ZTVN5MyGUI11BiIndexBaseE@Base 3.2.0
 _ZTVN5MyGUI11DDContainerE@Base 3.2.0
 _ZTVN5MyGUI11FontManagerE@Base 3.2.0
 _ZTVN5MyGUI11IDataStreamE@Base 3.2.0
 _ZTVN5MyGUI11MenuControlE@Base 3.2.0
 _ZTVN5MyGUI11ProgressBarE@Base 3.2.0
 _ZTVN5MyGUI11SharedLayerE@Base 3.2.0
 _ZTVN5MyGUI11SkinManagerE@Base 3.2.0
 _ZTVN5MyGUI11WidgetInputE@Base 3.2.0
 _ZTVN5MyGUI12ILogListenerE@Base 3.2.0
 _ZTVN5MyGUI12InputManagerE@Base 3.2.0
 _ZTVN5MyGUI12LayerManagerE@Base 3.2.0
 _ZTVN5MyGUI12MultiListBoxE@Base 3.2.0
 _ZTVN5MyGUI12ResourceSkinE@Base 3.2.0
 _ZTVN5MyGUI12RotatingSkinE@Base 3.2.0
 _ZTVN5MyGUI13DynLibManagerE@Base 3.2.0
 _ZTVN5MyGUI13ISerializableE@Base 3.2.0
 _ZTVN5MyGUI13IUnlinkWidgetE@Base 3.2.0
 _ZTVN5MyGUI13LayoutManagerE@Base 3.2.0
 _ZTVN5MyGUI13MultiListItemE@Base 3.2.0
 _ZTVN5MyGUI13PluginManagerE@Base 3.2.0
 _ZTVN5MyGUI13PolygonalSkinE@Base 3.2.0
 _ZTVN5MyGUI13RenderManagerE@Base 3.2.0
 _ZTVN5MyGUI13WidgetManagerE@Base 3.2.0
 _ZTVN5MyGUI14ControllerItemE@Base 3.2.0
 _ZTVN5MyGUI14DataFileStreamE@Base 3.2.0
 _ZTVN5MyGUI14FactoryManagerE@Base 3.2.0
 _ZTVN5MyGUI14IItemContainerE@Base 3.2.0
 _ZTVN5MyGUI14ISubWidgetRectE@Base 3.2.0
 _ZTVN5MyGUI14ISubWidgetTextE@Base 3.2.0
 _ZTVN5MyGUI14LevelLogFilterE@Base 3.2.0
 _ZTVN5MyGUI14PointerManagerE@Base 3.2.0
 _ZTVN5MyGUI14ResourceLayoutE@Base 3.2.0
 _ZTVN5MyGUI14ScrollViewBaseE@Base 3.2.0
 _ZTVN5MyGUI14ToolTipManagerE@Base 3.2.0
 _ZTVN5MyGUI15FileLogListenerE@Base 3.2.0
 _ZTVN5MyGUI15LanguageManagerE@Base 3.2.0
 _ZTVN5MyGUI15OverlappedLayerE@Base 3.2.0
 _ZTVN5MyGUI15ResourceManagerE@Base 3.2.0
 _ZTVN5MyGUI15SharedLayerNodeE@Base 3.2.0
 _ZTVN5MyGUI16ClipboardManagerE@Base 3.2.0
 _ZTVN5MyGUI16ResourceImageSetE@Base 3.2.0
 _ZTVN5MyGUI16SubSkinStateInfoE@Base 3.2.0
 _ZTVN5MyGUI16SubWidgetManagerE@Base 3.2.0
 _ZTVN5MyGUI17ControllerManagerE@Base 3.2.0
 _ZTVN5MyGUI17EditTextStateInfoE@Base 3.2.0
 _ZTVN5MyGUI17ICroppedRectangleE@Base 3.2.0
 _ZTVN5MyGUI17TileRectStateInfoE@Base 3.2.0
 _ZTVN5MyGUI18ConsoleLogListenerE@Base 3.2.0
 _ZTVN5MyGUI18ControllerEdgeHideE@Base 3.2.0
 _ZTVN5MyGUI18ControllerPositionE@Base 3.2.0
 _ZTVN5MyGUI18ResourceManualFontE@Base 3.2.0
 _ZTVN5MyGUI19ControllerFadeAlphaE@Base 3.2.0
 _ZTVN5MyGUI20ResourceTrueTypeFontE@Base 3.2.0
 _ZTVN5MyGUI21ResourceManualPointerE@Base 3.2.0
 _ZTVN5MyGUI23ResourceImageSetPointerE@Base 3.2.0
 _ZTVN5MyGUI26ITextureInvalidateListenerE@Base 3.2.0
 _ZTVN5MyGUI3Any11PlaceholderE@Base 3.2.0
 _ZTVN5MyGUI3Any6HolderIiEE@Base 3.2.0
 _ZTVN5MyGUI3Any6HolderIjEE@Base 3.2.0
 _ZTVN5MyGUI3GuiE@Base 3.2.0
 _ZTVN5MyGUI5IFontE@Base 3.2.0
 _ZTVN5MyGUI5IItemE@Base 3.2.0
 _ZTVN5MyGUI6ButtonE@Base 3.2.0
 _ZTVN5MyGUI6CanvasE@Base 3.2.0
 _ZTVN5MyGUI6ILayerE@Base 3.2.0
 _ZTVN5MyGUI6WidgetE@Base 3.2.0
 _ZTVN5MyGUI6WindowE@Base 3.2.0
 _ZTVN5MyGUI7EditBoxE@Base 3.2.0
 _ZTVN5MyGUI7HScrollE@Base 3.2.0
 _ZTVN5MyGUI7IObjectE@Base 3.2.0
 _ZTVN5MyGUI7ItemBoxE@Base 3.2.0
 _ZTVN5MyGUI7ListBoxE@Base 3.2.0
 _ZTVN5MyGUI7MenuBarE@Base 3.2.0
 _ZTVN5MyGUI7SubSkinE@Base 3.2.0
 _ZTVN5MyGUI7TabItemE@Base 3.2.0
 _ZTVN5MyGUI7TextBoxE@Base 3.2.0
 _ZTVN5MyGUI7UString12invalid_dataE@Base 3.2.0
 _ZTVN5MyGUI7VScrollE@Base 3.2.0
 _ZTVN5MyGUI8ComboBoxE@Base 3.2.0
 _ZTVN5MyGUI8EditTextE@Base 3.2.0
 _ZTVN5MyGUI8IPointerE@Base 3.2.0
 _ZTVN5MyGUI8ImageBoxE@Base 3.2.0
 _ZTVN5MyGUI8MainSkinE@Base 3.2.0
 _ZTVN5MyGUI8MenuItemE@Base 3.2.0
 _ZTVN5MyGUI8SkinItemE@Base 3.2.0
 _ZTVN5MyGUI8TileRectE@Base 3.2.0
 _ZTVN5MyGUI8UserDataE@Base 3.2.0
 _ZTVN5MyGUI9ExceptionE@Base 3.2.0
 _ZTVN5MyGUI9IResourceE@Base 3.2.0
 _ZTVN5MyGUI9LayerItemE@Base 3.2.0
 _ZTVN5MyGUI9LayerNodeE@Base 3.2.0
 _ZTVN5MyGUI9PopupMenuE@Base 3.2.0
 _ZTVN5MyGUI9ScrollBarE@Base 3.2.0
 _ZTVN5MyGUI9SingletonINS_11FontManagerEEE@Base 3.2.0
 _ZTVN5MyGUI9SingletonINS_11SkinManagerEEE@Base 3.2.0
 _ZTVN5MyGUI9SingletonINS_12InputManagerEEE@Base 3.2.0
 _ZTVN5MyGUI9SingletonINS_12LayerManagerEEE@Base 3.2.0
 _ZTVN5MyGUI9SingletonINS_13DynLibManagerEEE@Base 3.2.0
 _ZTVN5MyGUI9SingletonINS_13LayoutManagerEEE@Base 3.2.0
 _ZTVN5MyGUI9SingletonINS_13PluginManagerEEE@Base 3.2.0
 _ZTVN5MyGUI9SingletonINS_13RenderManagerEEE@Base 3.2.0
 _ZTVN5MyGUI9SingletonINS_13WidgetManagerEEE@Base 3.2.0
 _ZTVN5MyGUI9SingletonINS_14FactoryManagerEEE@Base 3.2.0
 _ZTVN5MyGUI9SingletonINS_14PointerManagerEEE@Base 3.2.0
 _ZTVN5MyGUI9SingletonINS_14ToolTipManagerEEE@Base 3.2.0
 _ZTVN5MyGUI9SingletonINS_15LanguageManagerEEE@Base 3.2.0
 _ZTVN5MyGUI9SingletonINS_15ResourceManagerEEE@Base 3.2.0
 _ZTVN5MyGUI9SingletonINS_16ClipboardManagerEEE@Base 3.2.0
 _ZTVN5MyGUI9SingletonINS_16SubWidgetManagerEEE@Base 3.2.0
 _ZTVN5MyGUI9SingletonINS_17ControllerManagerEEE@Base 3.2.0
 _ZTVN5MyGUI9SingletonINS_3GuiEEE@Base 3.2.0
 _ZTVN5MyGUI9delegates15IDelegateUnlinkE@Base 3.2.0
 _ZZN5MyGUI10ILayerNode16getClassTypeNameEvE4type@Base 3.2.0
 _ZZN5MyGUI10IStateInfo16getClassTypeNameEvE4type@Base 3.2.0
 _ZZN5MyGUI10ISubWidget16getClassTypeNameEvE4type@Base 3.2.0
 _ZZN5MyGUI10ScrollView16getClassTypeNameEvE4type@Base 3.2.0
 _ZZN5MyGUI10SimpleText16getClassTypeNameEvE4type@Base 3.2.0
 _ZZN5MyGUI10TabControl16getClassTypeNameEvE4type@Base 3.2.0
 _ZZN5MyGUI11DDContainer16getClassTypeNameEvE4type@Base 3.2.0
 _ZZN5MyGUI11MenuControl16getClassTypeNameEvE4type@Base 3.2.0
 _ZZN5MyGUI11ProgressBar16getClassTypeNameEvE4type@Base 3.2.0
 _ZZN5MyGUI11SharedLayer16getClassTypeNameEvE4type@Base 3.2.0
 _ZZN5MyGUI12MultiListBox16getClassTypeNameEvE4type@Base 3.2.0
 _ZZN5MyGUI12ResourceSkin16getClassTypeNameEvE4type@Base 3.2.0
 _ZZN5MyGUI12RotatingSkin16getClassTypeNameEvE4type@Base 3.2.0
 _ZZN5MyGUI13ISerializable16getClassTypeNameEvE4type@Base 3.2.0
 _ZZN5MyGUI13MultiListItem16getClassTypeNameEvE4type@Base 3.2.0
 _ZZN5MyGUI13PolygonalSkin16getClassTypeNameEvE4type@Base 3.2.0
 _ZZN5MyGUI14ControllerItem16getClassTypeNameEvE4type@Base 3.2.0
 _ZZN5MyGUI14ISubWidgetRect16getClassTypeNameEvE4type@Base 3.2.0
 _ZZN5MyGUI14ISubWidgetText16getClassTypeNameEvE4type@Base 3.2.0
 _ZZN5MyGUI14ResourceLayout16getClassTypeNameEvE4type@Base 3.2.0
 _ZZN5MyGUI15OverlappedLayer16getClassTypeNameEvE4type@Base 3.2.0
 _ZZN5MyGUI15SharedLayerNode16getClassTypeNameEvE4type@Base 3.2.0
 _ZZN5MyGUI16ResourceImageSet16getClassTypeNameEvE4type@Base 3.2.0
 _ZZN5MyGUI16SubSkinStateInfo16getClassTypeNameEvE4type@Base 3.2.0
 _ZZN5MyGUI17EditTextStateInfo16getClassTypeNameEvE4type@Base 3.2.0
 _ZZN5MyGUI17TileRectStateInfo16getClassTypeNameEvE4type@Base 3.2.0
 _ZZN5MyGUI18ControllerEdgeHide16getClassTypeNameEvE4type@Base 3.2.0
 _ZZN5MyGUI18ControllerPosition16getClassTypeNameEvE4type@Base 3.2.0
 _ZZN5MyGUI18ResourceManualFont16getClassTypeNameEvE4type@Base 3.2.0
 _ZZN5MyGUI19ControllerFadeAlpha16getClassTypeNameEvE4type@Base 3.2.0
 _ZZN5MyGUI20ResourceTrueTypeFont16getClassTypeNameEvE4type@Base 3.2.0
 _ZZN5MyGUI21ResourceManualPointer16getClassTypeNameEvE4type@Base 3.2.0
 _ZZN5MyGUI23ResourceImageSetPointer16getClassTypeNameEvE4type@Base 3.2.0
 _ZZN5MyGUI5IFont16getClassTypeNameEvE4type@Base 3.2.0
 _ZZN5MyGUI6Button16getClassTypeNameEvE4type@Base 3.2.0
 _ZZN5MyGUI6Canvas16getClassTypeNameEvE4type@Base 3.2.0
 _ZZN5MyGUI6ILayer16getClassTypeNameEvE4type@Base 3.2.0
 _ZZN5MyGUI6Widget16getClassTypeNameEvE4type@Base 3.2.0
 _ZZN5MyGUI6Window16getClassTypeNameEvE4type@Base 3.2.0
 _ZZN5MyGUI7EditBox16getClassTypeNameEvE4type@Base 3.2.0
 _ZZN5MyGUI7HScroll16getClassTypeNameEvE4type@Base 3.2.0
 _ZZN5MyGUI7IObject16getClassTypeNameEvE4type@Base 3.2.0
 _ZZN5MyGUI7ItemBox16getClassTypeNameEvE4type@Base 3.2.0
 _ZZN5MyGUI7ListBox16getClassTypeNameEvE4type@Base 3.2.0
 _ZZN5MyGUI7MenuBar16getClassTypeNameEvE4type@Base 3.2.0
 _ZZN5MyGUI7SubSkin16getClassTypeNameEvE4type@Base 3.2.0
 _ZZN5MyGUI7TabItem16getClassTypeNameEvE4type@Base 3.2.0
 _ZZN5MyGUI7TextBox16getClassTypeNameEvE4type@Base 3.2.0
 _ZZN5MyGUI7VScroll16getClassTypeNameEvE4type@Base 3.2.0
 _ZZN5MyGUI8ComboBox16getClassTypeNameEvE4type@Base 3.2.0
 _ZZN5MyGUI8EditText16getClassTypeNameEvE4type@Base 3.2.0
 _ZZN5MyGUI8IPointer16getClassTypeNameEvE4type@Base 3.2.0
 _ZZN5MyGUI8ImageBox16getClassTypeNameEvE4type@Base 3.2.0
 _ZZN5MyGUI8MainSkin16getClassTypeNameEvE4type@Base 3.2.0
 _ZZN5MyGUI8MenuItem16getClassTypeNameEvE4type@Base 3.2.0
 _ZZN5MyGUI8TileRect16getClassTypeNameEvE4type@Base 3.2.0
 _ZZN5MyGUI9IResource16getClassTypeNameEvE4type@Base 3.2.0
 _ZZN5MyGUI9LayerNode16getClassTypeNameEvE4type@Base 3.2.0
 _ZZN5MyGUI9PopupMenu16getClassTypeNameEvE4type@Base 3.2.0
 _ZZN5MyGUI9ScrollBar16getClassTypeNameEvE4type@Base 3.2.0
 _ZZNK5MyGUI11WidgetStyle12getValueNameEiE6values@Base 3.2.0
 _ZZNK5MyGUI12MenuItemType12getValueNameEiE6values@Base 3.2.0
 _ZZNK5MyGUI13FlowDirection12getValueNameEiE6values@Base 3.2.0
 _ZZNK5MyGUI14ISubWidgetText10getCaptionEvE7caption@Base 3.2.0
 _ZZNK5MyGUI14ISubWidgetText11getFontNameEvE4name@Base 3.2.0
 _ZZNK5MyGUI14ResizingPolicy12getValueNameEiE6values@Base 3.2.0
 _ZZNK5MyGUI5Align13getValueNamesEvE9map_names@Base 3.2.0
 _ZZNK5MyGUI8LogLevel12getValueNameEiE6values@Base 3.2.0
 (c++)"non-virtual thunk to MyGUI::Button::onMouseButtonPressed(int, int, MyGUI::MouseButton)@Base" 3.2.0
 (c++)"non-virtual thunk to MyGUI::Button::onMouseButtonReleased(int, int, MyGUI::MouseButton)@Base" 3.2.0
 (c++)"non-virtual thunk to MyGUI::Button::onMouseLostFocus(MyGUI::Widget*)@Base" 3.2.0
 (c++)"non-virtual thunk to MyGUI::Button::onMouseSetFocus(MyGUI::Widget*)@Base" 3.2.0
 (c++)"non-virtual thunk to MyGUI::Button::~Button()@Base" 3.2.0
 (c++)"non-virtual thunk to MyGUI::Canvas::setCoord(MyGUI::types::TCoord<int> const&)@Base" 3.2.0
 (c++)"non-virtual thunk to MyGUI::Canvas::setSize(MyGUI::types::TSize<int> const&)@Base" 3.2.0
 (c++)"non-virtual thunk to MyGUI::Canvas::textureInvalidate(MyGUI::ITexture*)@Base" 3.2.0
 (c++)"non-virtual thunk to MyGUI::Canvas::~Canvas()@Base" 3.2.0
 (c++)"non-virtual thunk to MyGUI::ComboBox::_addItem(MyGUI::UString const&)@Base" 3.2.0
 (c++)"non-virtual thunk to MyGUI::ComboBox::_getItemCount()@Base" 3.2.0
 (c++)"non-virtual thunk to MyGUI::ComboBox::_getItemNameAt(unsigned int)@Base" 3.2.0
 (c++)"non-virtual thunk to MyGUI::ComboBox::_removeItemAt(unsigned int)@Base" 3.2.0
 (c++)"non-virtual thunk to MyGUI::ComboBox::_setItemNameAt(unsigned int, MyGUI::UString const&)@Base" 3.2.0
 (c++)"non-virtual thunk to MyGUI::ComboBox::onKeyButtonPressed(MyGUI::KeyCode, unsigned int)@Base" 3.2.0
 (c++)"non-virtual thunk to MyGUI::ComboBox::~ComboBox()@Base" 3.2.0
 (c++)"non-virtual thunk to MyGUI::ControllerManager::_unlinkWidget(MyGUI::Widget*)@Base" 3.2.0
 (c++)"non-virtual thunk to MyGUI::ControllerManager::~ControllerManager()@Base" 3.2.0
 (c++)"non-virtual thunk to MyGUI::DDContainer::onMouseButtonPressed(int, int, MyGUI::MouseButton)@Base" 3.2.0
 (c++)"non-virtual thunk to MyGUI::DDContainer::onMouseButtonReleased(int, int, MyGUI::MouseButton)@Base" 3.2.0
 (c++)"non-virtual thunk to MyGUI::DDContainer::onMouseDrag(int, int, MyGUI::MouseButton)@Base" 3.2.0
 (c++)"non-virtual thunk to MyGUI::DDContainer::~DDContainer()@Base" 3.2.0
 (c++)"non-virtual thunk to MyGUI::EditBox::getContentAlign()@Base" 3.2.0
 (c++)"non-virtual thunk to MyGUI::EditBox::getContentPosition()@Base" 3.2.0
 (c++)"non-virtual thunk to MyGUI::EditBox::getContentSize()@Base" 3.2.0
 (c++)"non-virtual thunk to MyGUI::EditBox::getHScrollPage()@Base" 3.2.0
 (c++)"non-virtual thunk to MyGUI::EditBox::getVScrollPage()@Base" 3.2.0
 (c++)"non-virtual thunk to MyGUI::EditBox::getViewSize()@Base" 3.2.0
 (c++)"non-virtual thunk to MyGUI::EditBox::onKeyButtonPressed(MyGUI::KeyCode, unsigned int)@Base" 3.2.0
 (c++)"non-virtual thunk to MyGUI::EditBox::onKeyLostFocus(MyGUI::Widget*)@Base" 3.2.0
 (c++)"non-virtual thunk to MyGUI::EditBox::onKeySetFocus(MyGUI::Widget*)@Base" 3.2.0
 (c++)"non-virtual thunk to MyGUI::EditBox::onMouseDrag(int, int, MyGUI::MouseButton)@Base" 3.2.0
 (c++)"non-virtual thunk to MyGUI::EditBox::setContentPosition(MyGUI::types::TPoint<int> const&)@Base" 3.2.0
 (c++)"non-virtual thunk to MyGUI::EditBox::setCoord(MyGUI::types::TCoord<int> const&)@Base" 3.2.0
 (c++)"non-virtual thunk to MyGUI::EditBox::setPosition(MyGUI::types::TPoint<int> const&)@Base" 3.2.0
 (c++)"non-virtual thunk to MyGUI::EditBox::setSize(MyGUI::types::TSize<int> const&)@Base" 3.2.0
 (c++)"non-virtual thunk to MyGUI::EditBox::~EditBox()@Base" 3.2.0
 (c++)"non-virtual thunk to MyGUI::EditText::~EditText()@Base" 3.2.0
 (c++)"non-virtual thunk to MyGUI::Gui::_unlinkWidget(MyGUI::Widget*)@Base" 3.2.0
 (c++)"non-virtual thunk to MyGUI::Gui::~Gui()@Base" 3.2.0
 (c++)"non-virtual thunk to MyGUI::HScroll::~HScroll()@Base" 3.2.0
 (c++)"non-virtual thunk to MyGUI::ImageBox::~ImageBox()@Base" 3.2.0
 (c++)"non-virtual thunk to MyGUI::InputManager::_unlinkWidget(MyGUI::Widget*)@Base" 3.2.0
 (c++)"non-virtual thunk to MyGUI::InputManager::~InputManager()@Base" 3.2.0
 (c++)"non-virtual thunk to MyGUI::ItemBox::eraseContent()@Base" 3.2.0
 (c++)"non-virtual thunk to MyGUI::ItemBox::getContentAlign()@Base" 3.2.0
 (c++)"non-virtual thunk to MyGUI::ItemBox::getContentPosition()@Base" 3.2.0
 (c++)"non-virtual thunk to MyGUI::ItemBox::getContentSize()@Base" 3.2.0
 (c++)"non-virtual thunk to MyGUI::ItemBox::getHScrollPage()@Base" 3.2.0
 (c++)"non-virtual thunk to MyGUI::ItemBox::getVScrollPage()@Base" 3.2.0
 (c++)"non-virtual thunk to MyGUI::ItemBox::getViewSize()@Base" 3.2.0
 (c++)"non-virtual thunk to MyGUI::ItemBox::onKeyLostFocus(MyGUI::Widget*)@Base" 3.2.0
 (c++)"non-virtual thunk to MyGUI::ItemBox::onKeySetFocus(MyGUI::Widget*)@Base" 3.2.0
 (c++)"non-virtual thunk to MyGUI::ItemBox::onMouseButtonPressed(int, int, MyGUI::MouseButton)@Base" 3.2.0
 (c++)"non-virtual thunk to MyGUI::ItemBox::onMouseButtonReleased(int, int, MyGUI::MouseButton)@Base" 3.2.0
 (c++)"non-virtual thunk to MyGUI::ItemBox::onMouseDrag(int, int, MyGUI::MouseButton)@Base" 3.2.0
 (c++)"non-virtual thunk to MyGUI::ItemBox::onMouseWheel(int)@Base" 3.2.0
 (c++)"non-virtual thunk to MyGUI::ItemBox::setContentPosition(MyGUI::types::TPoint<int> const&)@Base" 3.2.0
 (c++)"non-virtual thunk to MyGUI::ItemBox::setCoord(MyGUI::types::TCoord<int> const&)@Base" 3.2.0
 (c++)"non-virtual thunk to MyGUI::ItemBox::setPosition(MyGUI::types::TPoint<int> const&)@Base" 3.2.0
 (c++)"non-virtual thunk to MyGUI::ItemBox::setSize(MyGUI::types::TSize<int> const&)@Base" 3.2.0
 (c++)"non-virtual thunk to MyGUI::ItemBox::~ItemBox()@Base" 3.2.0
 (c++)"non-virtual thunk to MyGUI::LayerManager::_unlinkWidget(MyGUI::Widget*)@Base" 3.2.0
 (c++)"non-virtual thunk to MyGUI::LayerManager::~LayerManager()@Base" 3.2.0
 (c++)"non-virtual thunk to MyGUI::ListBox::_addItem(MyGUI::UString const&)@Base" 3.2.0
 (c++)"non-virtual thunk to MyGUI::ListBox::_getItemCount()@Base" 3.2.0
 (c++)"non-virtual thunk to MyGUI::ListBox::_getItemNameAt(unsigned int)@Base" 3.2.0
 (c++)"non-virtual thunk to MyGUI::ListBox::_removeItemAt(unsigned int)@Base" 3.2.0
 (c++)"non-virtual thunk to MyGUI::ListBox::_setItemNameAt(unsigned int, MyGUI::UString const&)@Base" 3.2.0
 (c++)"non-virtual thunk to MyGUI::ListBox::onKeyButtonPressed(MyGUI::KeyCode, unsigned int)@Base" 3.2.0
 (c++)"non-virtual thunk to MyGUI::ListBox::onMouseWheel(int)@Base" 3.2.0
 (c++)"non-virtual thunk to MyGUI::ListBox::setCoord(MyGUI::types::TCoord<int> const&)@Base" 3.2.0
 (c++)"non-virtual thunk to MyGUI::ListBox::setPosition(MyGUI::types::TPoint<int> const&)@Base" 3.2.0
 (c++)"non-virtual thunk to MyGUI::ListBox::setSize(MyGUI::types::TSize<int> const&)@Base" 3.2.0
 (c++)"non-virtual thunk to MyGUI::ListBox::~ListBox()@Base" 3.2.0
 (c++)"non-virtual thunk to MyGUI::MainSkin::~MainSkin()@Base" 3.2.0
 (c++)"non-virtual thunk to MyGUI::MenuBar::~MenuBar()@Base" 3.2.0
 (c++)"non-virtual thunk to MyGUI::MenuControl::_addItem(MyGUI::UString const&)@Base" 3.2.0
 (c++)"non-virtual thunk to MyGUI::MenuControl::_getItemAt(unsigned int)@Base" 3.2.0
 (c++)"non-virtual thunk to MyGUI::MenuControl::_getItemCount()@Base" 3.2.0
 (c++)"non-virtual thunk to MyGUI::MenuControl::_getItemNameAt(unsigned int)@Base" 3.2.0
 (c++)"non-virtual thunk to MyGUI::MenuControl::_removeItemAt(unsigned int)@Base" 3.2.0
 (c++)"non-virtual thunk to MyGUI::MenuControl::_setItemNameAt(unsigned int, MyGUI::UString const&)@Base" 3.2.0
 (c++)"non-virtual thunk to MyGUI::MenuControl::_setItemSelected(MyGUI::IItem*)@Base" 3.2.0
 (c++)"non-virtual thunk to MyGUI::MenuControl::onKeyChangeRootFocus(bool)@Base" 3.2.0
 (c++)"non-virtual thunk to MyGUI::MenuControl::~MenuControl()@Base" 3.2.0
 (c++)"non-virtual thunk to MyGUI::MenuItem::_getItemContainer()@Base" 3.2.0
 (c++)"non-virtual thunk to MyGUI::MenuItem::~MenuItem()@Base" 3.2.0
 (c++)"non-virtual thunk to MyGUI::MultiListBox::_addItem(MyGUI::UString const&)@Base" 3.2.0
 (c++)"non-virtual thunk to MyGUI::MultiListBox::_getItemAt(unsigned int)@Base" 3.2.0
 (c++)"non-virtual thunk to MyGUI::MultiListBox::_getItemCount()@Base" 3.2.0
 (c++)"non-virtual thunk to MyGUI::MultiListBox::_getItemNameAt(unsigned int)@Base" 3.2.0
 (c++)"non-virtual thunk to MyGUI::MultiListBox::_removeItemAt(unsigned int)@Base" 3.2.0
 (c++)"non-virtual thunk to MyGUI::MultiListBox::_setItemNameAt(unsigned int, MyGUI::UString const&)@Base" 3.2.0
 (c++)"non-virtual thunk to MyGUI::MultiListBox::setCoord(MyGUI::types::TCoord<int> const&)@Base" 3.2.0
 (c++)"non-virtual thunk to MyGUI::MultiListBox::setPosition(MyGUI::types::TPoint<int> const&)@Base" 3.2.0
 (c++)"non-virtual thunk to MyGUI::MultiListBox::setSize(MyGUI::types::TSize<int> const&)@Base" 3.2.0
 (c++)"non-virtual thunk to MyGUI::MultiListBox::~MultiListBox()@Base" 3.2.0
 (c++)"non-virtual thunk to MyGUI::MultiListItem::~MultiListItem()@Base" 3.2.0
 (c++)"non-virtual thunk to MyGUI::PointerManager::_unlinkWidget(MyGUI::Widget*)@Base" 3.2.0
 (c++)"non-virtual thunk to MyGUI::PointerManager::~PointerManager()@Base" 3.2.0
 (c++)"non-virtual thunk to MyGUI::PolygonalSkin::~PolygonalSkin()@Base" 3.2.0
 (c++)"non-virtual thunk to MyGUI::PopupMenu::~PopupMenu()@Base" 3.2.0
 (c++)"non-virtual thunk to MyGUI::ProgressBar::setCoord(MyGUI::types::TCoord<int> const&)@Base" 3.2.0
 (c++)"non-virtual thunk to MyGUI::ProgressBar::setPosition(MyGUI::types::TPoint<int> const&)@Base" 3.2.0
 (c++)"non-virtual thunk to MyGUI::ProgressBar::setSize(MyGUI::types::TSize<int> const&)@Base" 3.2.0
 (c++)"non-virtual thunk to MyGUI::ProgressBar::~ProgressBar()@Base" 3.2.0
 (c++)"non-virtual thunk to MyGUI::RotatingSkin::~RotatingSkin()@Base" 3.2.0
 (c++)"non-virtual thunk to MyGUI::ScrollBar::onMouseWheel(int)@Base" 3.2.0
 (c++)"non-virtual thunk to MyGUI::ScrollBar::setCoord(MyGUI::types::TCoord<int> const&)@Base" 3.2.0
 (c++)"non-virtual thunk to MyGUI::ScrollBar::setPosition(MyGUI::types::TPoint<int> const&)@Base" 3.2.0
 (c++)"non-virtual thunk to MyGUI::ScrollBar::setSize(MyGUI::types::TSize<int> const&)@Base" 3.2.0
 (c++)"non-virtual thunk to MyGUI::ScrollBar::~ScrollBar()@Base" 3.2.0
 (c++)"non-virtual thunk to MyGUI::ScrollView::getContentAlign()@Base" 3.2.0
 (c++)"non-virtual thunk to MyGUI::ScrollView::getContentPosition()@Base" 3.2.0
 (c++)"non-virtual thunk to MyGUI::ScrollView::getContentSize()@Base" 3.2.0
 (c++)"non-virtual thunk to MyGUI::ScrollView::getHScrollPage()@Base" 3.2.0
 (c++)"non-virtual thunk to MyGUI::ScrollView::getVScrollPage()@Base" 3.2.0
 (c++)"non-virtual thunk to MyGUI::ScrollView::getViewSize()@Base" 3.2.0
 (c++)"non-virtual thunk to MyGUI::ScrollView::setContentPosition(MyGUI::types::TPoint<int> const&)@Base" 3.2.0
 (c++)"non-virtual thunk to MyGUI::ScrollView::setCoord(MyGUI::types::TCoord<int> const&)@Base" 3.2.0
 (c++)"non-virtual thunk to MyGUI::ScrollView::setPosition(MyGUI::types::TPoint<int> const&)@Base" 3.2.0
 (c++)"non-virtual thunk to MyGUI::ScrollView::setSize(MyGUI::types::TSize<int> const&)@Base" 3.2.0
 (c++)"non-virtual thunk to MyGUI::ScrollView::~ScrollView()@Base" 3.2.0
 (c++)"non-virtual thunk to MyGUI::SimpleText::~SimpleText()@Base" 3.2.0
 (c++)"non-virtual thunk to MyGUI::SubSkin::~SubSkin()@Base" 3.2.0
 (c++)"non-virtual thunk to MyGUI::TabControl::_addItem(MyGUI::UString const&)@Base" 3.2.0
 (c++)"non-virtual thunk to MyGUI::TabControl::_getItemAt(unsigned int)@Base" 3.2.0
 (c++)"non-virtual thunk to MyGUI::TabControl::_getItemCount()@Base" 3.2.0
 (c++)"non-virtual thunk to MyGUI::TabControl::_getItemNameAt(unsigned int)@Base" 3.2.0
 (c++)"non-virtual thunk to MyGUI::TabControl::_removeItemAt(unsigned int)@Base" 3.2.0
 (c++)"non-virtual thunk to MyGUI::TabControl::_setItemNameAt(unsigned int, MyGUI::UString const&)@Base" 3.2.0
 (c++)"non-virtual thunk to MyGUI::TabControl::setCoord(MyGUI::types::TCoord<int> const&)@Base" 3.2.0
 (c++)"non-virtual thunk to MyGUI::TabControl::setPosition(MyGUI::types::TPoint<int> const&)@Base" 3.2.0
 (c++)"non-virtual thunk to MyGUI::TabControl::setSize(MyGUI::types::TSize<int> const&)@Base" 3.2.0
 (c++)"non-virtual thunk to MyGUI::TabControl::~TabControl()@Base" 3.2.0
 (c++)"non-virtual thunk to MyGUI::TabItem::~TabItem()@Base" 3.2.0
 (c++)"non-virtual thunk to MyGUI::TextBox::~TextBox()@Base" 3.2.0
 (c++)"non-virtual thunk to MyGUI::TileRect::~TileRect()@Base" 3.2.0
 (c++)"non-virtual thunk to MyGUI::ToolTipManager::_unlinkWidget(MyGUI::Widget*)@Base" 3.2.0
 (c++)"non-virtual thunk to MyGUI::ToolTipManager::~ToolTipManager()@Base" 3.2.0
 (c++)"non-virtual thunk to MyGUI::VScroll::~VScroll()@Base" 3.2.0
 (c++)"non-virtual thunk to MyGUI::Widget::getLayerItemByPoint(int, int) const@Base" 3.2.0
 (c++)"non-virtual thunk to MyGUI::Widget::getLayerItemCoord() const@Base" 3.2.0
 (c++)"non-virtual thunk to MyGUI::Widget::resizeLayerItemView(MyGUI::types::TSize<int> const&, MyGUI::types::TSize<int> const&)@Base" 3.2.0
 (c++)"non-virtual thunk to MyGUI::Widget::setCoord(MyGUI::types::TCoord<int> const&)@Base" 3.2.0
 (c++)"non-virtual thunk to MyGUI::Widget::setPosition(MyGUI::types::TPoint<int> const&)@Base" 3.2.0
 (c++)"non-virtual thunk to MyGUI::Widget::setSize(MyGUI::types::TSize<int> const&)@Base" 3.2.0
 (c++)"non-virtual thunk to MyGUI::Widget::~Widget()@Base" 3.2.0
 (c++)"non-virtual thunk to MyGUI::Window::onKeyChangeRootFocus(bool)@Base" 3.2.0
 (c++)"non-virtual thunk to MyGUI::Window::onMouseButtonPressed(int, int, MyGUI::MouseButton)@Base" 3.2.0
 (c++)"non-virtual thunk to MyGUI::Window::onMouseButtonReleased(int, int, MyGUI::MouseButton)@Base" 3.2.0
 (c++)"non-virtual thunk to MyGUI::Window::onMouseChangeRootFocus(bool)@Base" 3.2.0
 (c++)"non-virtual thunk to MyGUI::Window::onMouseDrag(int, int, MyGUI::MouseButton)@Base" 3.2.0
 (c++)"non-virtual thunk to MyGUI::Window::setCoord(MyGUI::types::TCoord<int> const&)@Base" 3.2.0
 (c++)"non-virtual thunk to MyGUI::Window::setPosition(MyGUI::types::TPoint<int> const&)@Base" 3.2.0
 (c++)"non-virtual thunk to MyGUI::Window::setSize(MyGUI::types::TSize<int> const&)@Base" 3.2.0
 (c++)"non-virtual thunk to MyGUI::Window::~Window()@Base" 3.2.0
