# SymbolsHelper-Confirmed: 3.2.0 i386
libMyGUI.OgrePlatform.so.0debian0 libmygui.ogreplatform0debian0 #MINVER#
 _ZN4Ogre10TexturePtrC1ERKNS_9SharedPtrINS_8ResourceEEE@Base 3.2.0
 _ZN4Ogre10TexturePtrC2ERKNS_9SharedPtrINS_8ResourceEEE@Base 3.2.0
 _ZN4Ogre10TexturePtrD0Ev@Base 3.2.0
 _ZN4Ogre10TexturePtrD1Ev@Base 3.2.0
 _ZN4Ogre10TexturePtrD2Ev@Base 3.2.0
 _ZN4Ogre10TexturePtraSERKNS_9SharedPtrINS_8ResourceEEE@Base 3.2.0
 _ZN4Ogre12RenderSystem8ListenerD0Ev@Base 3.2.0
 _ZN4Ogre12RenderSystem8ListenerD1Ev@Base 3.2.0
 _ZN4Ogre12RenderSystem8ListenerD2Ev@Base 3.2.0
 (optional=templinst)_ZN4Ogre12STLAllocatorINS_8FileInfoENS_22CategorisedAllocPolicyILNS_14MemoryCategoryE0EEEED0Ev@Base 3.2.0
 (optional=templinst)_ZN4Ogre12STLAllocatorINS_8FileInfoENS_22CategorisedAllocPolicyILNS_14MemoryCategoryE0EEEED1Ev@Base 3.2.0
 (optional=templinst)_ZN4Ogre12STLAllocatorINS_8FileInfoENS_22CategorisedAllocPolicyILNS_14MemoryCategoryE0EEEED2Ev@Base 3.2.0
 (optional=templinst)_ZN4Ogre12STLAllocatorISsNS_22CategorisedAllocPolicyILNS_14MemoryCategoryE0EEEED0Ev@Base 3.2.0
 (optional=templinst)_ZN4Ogre12STLAllocatorISsNS_22CategorisedAllocPolicyILNS_14MemoryCategoryE0EEEED1Ev@Base 3.2.0
 (optional=templinst)_ZN4Ogre12STLAllocatorISsNS_22CategorisedAllocPolicyILNS_14MemoryCategoryE0EEEED2Ev@Base 3.2.0
 _ZN4Ogre19RenderQueueListener15preRenderQueuesEv@Base 3.2.0
 _ZN4Ogre19RenderQueueListener16postRenderQueuesEv@Base 3.2.0
 _ZN4Ogre19RenderQueueListener16renderQueueEndedEhRKSsRb@Base 3.2.0
 _ZN4Ogre19RenderQueueListener18renderQueueStartedEhRKSsRb@Base 3.2.0
 _ZN4Ogre19RenderQueueListenerD0Ev@Base 3.2.0
 _ZN4Ogre19RenderQueueListenerD1Ev@Base 3.2.0
 _ZN4Ogre19RenderQueueListenerD2Ev@Base 3.2.0
 _ZN4Ogre19WindowEventListener11windowMovedEPNS_12RenderWindowE@Base 3.2.0
 _ZN4Ogre19WindowEventListener12windowClosedEPNS_12RenderWindowE@Base 3.2.0
 _ZN4Ogre19WindowEventListener13windowClosingEPNS_12RenderWindowE@Base 3.2.0
 _ZN4Ogre19WindowEventListener13windowResizedEPNS_12RenderWindowE@Base 3.2.0
 _ZN4Ogre19WindowEventListener17windowFocusChangeEPNS_12RenderWindowE@Base 3.2.0
 _ZN4Ogre19WindowEventListenerD0Ev@Base 3.2.0
 _ZN4Ogre19WindowEventListenerD1Ev@Base 3.2.0
 _ZN4Ogre19WindowEventListenerD2Ev@Base 3.2.0
 _ZN4Ogre20ManualResourceLoader15prepareResourceEPNS_8ResourceE@Base 3.2.0
 _ZN4Ogre20ManualResourceLoaderD0Ev@Base 3.2.0
 _ZN4Ogre20ManualResourceLoaderD1Ev@Base 3.2.0
 _ZN4Ogre20ManualResourceLoaderD2Ev@Base 3.2.0
 _ZN4Ogre28HardwarePixelBufferSharedPtrD0Ev@Base 3.2.0
 _ZN4Ogre28HardwarePixelBufferSharedPtrD1Ev@Base 3.2.0
 _ZN4Ogre28HardwarePixelBufferSharedPtrD2Ev@Base 3.2.0
 _ZN4Ogre29HardwareVertexBufferSharedPtrD0Ev@Base 3.2.0
 _ZN4Ogre29HardwareVertexBufferSharedPtrD1Ev@Base 3.2.0
 _ZN4Ogre29HardwareVertexBufferSharedPtrD2Ev@Base 3.2.0
 (optional=templinst)_ZN4Ogre9SharedPtrINS_10DataStreamEE4swapERS2_@Base 3.2.0
 (optional=templinst)_ZN4Ogre9SharedPtrINS_10DataStreamEE7destroyEv@Base 3.2.0
 (optional=templinst)_ZN4Ogre9SharedPtrINS_10DataStreamEE7releaseEv@Base 3.2.0
 (optional=templinst)_ZN4Ogre9SharedPtrINS_10DataStreamEEC1ERKS2_@Base 3.2.0
 (optional=templinst)_ZN4Ogre9SharedPtrINS_10DataStreamEEC2ERKS2_@Base 3.2.0
 (optional=templinst)_ZN4Ogre9SharedPtrINS_10DataStreamEED0Ev@Base 3.2.0
 (optional=templinst)_ZN4Ogre9SharedPtrINS_10DataStreamEED1Ev@Base 3.2.0
 (optional=templinst)_ZN4Ogre9SharedPtrINS_10DataStreamEED2Ev@Base 3.2.0
 (optional=templinst)_ZN4Ogre9SharedPtrINS_19HardwarePixelBufferEE4swapERS2_@Base 3.2.0
 (optional=templinst)_ZN4Ogre9SharedPtrINS_19HardwarePixelBufferEE7destroyEv@Base 3.2.0
 (optional=templinst)_ZN4Ogre9SharedPtrINS_19HardwarePixelBufferEE7releaseEv@Base 3.2.0
 (optional=templinst)_ZN4Ogre9SharedPtrINS_19HardwarePixelBufferEED0Ev@Base 3.2.0
 (optional=templinst)_ZN4Ogre9SharedPtrINS_19HardwarePixelBufferEED1Ev@Base 3.2.0
 (optional=templinst)_ZN4Ogre9SharedPtrINS_19HardwarePixelBufferEED2Ev@Base 3.2.0
 (optional=templinst)_ZN4Ogre9SharedPtrINS_20HardwareVertexBufferEE4swapERS2_@Base 3.2.0
 (optional=templinst)_ZN4Ogre9SharedPtrINS_20HardwareVertexBufferEE7destroyEv@Base 3.2.0
 (optional=templinst)_ZN4Ogre9SharedPtrINS_20HardwareVertexBufferEE7releaseEv@Base 3.2.0
 (optional=templinst)_ZN4Ogre9SharedPtrINS_20HardwareVertexBufferEED0Ev@Base 3.2.0
 (optional=templinst)_ZN4Ogre9SharedPtrINS_20HardwareVertexBufferEED1Ev@Base 3.2.0
 (optional=templinst)_ZN4Ogre9SharedPtrINS_20HardwareVertexBufferEED2Ev@Base 3.2.0
 (optional=templinst)_ZN4Ogre9SharedPtrINS_7TextureEE4swapERS2_@Base 3.2.0
 (optional=templinst)_ZN4Ogre9SharedPtrINS_7TextureEE7destroyEv@Base 3.2.0
 (optional=templinst)_ZN4Ogre9SharedPtrINS_7TextureEE7releaseEv@Base 3.2.0
 (optional=templinst)_ZN4Ogre9SharedPtrINS_7TextureEEC1ERKS2_@Base 3.2.0
 (optional=templinst)_ZN4Ogre9SharedPtrINS_7TextureEEC2ERKS2_@Base 3.2.0
 (optional=templinst)_ZN4Ogre9SharedPtrINS_7TextureEED0Ev@Base 3.2.0
 (optional=templinst)_ZN4Ogre9SharedPtrINS_7TextureEED1Ev@Base 3.2.0
 (optional=templinst)_ZN4Ogre9SharedPtrINS_7TextureEED2Ev@Base 3.2.0
 (optional=templinst)_ZN4Ogre9SharedPtrINS_7TextureEEaSERKS2_@Base 3.2.0
 (optional=templinst)_ZN4Ogre9SharedPtrINS_8ResourceEE4swapERS2_@Base 3.2.0
 (optional=templinst)_ZN4Ogre9SharedPtrINS_8ResourceEE7destroyEv@Base 3.2.0
 (optional=templinst)_ZN4Ogre9SharedPtrINS_8ResourceEE7releaseEv@Base 3.2.0
 (optional=templinst)_ZN4Ogre9SharedPtrINS_8ResourceEED0Ev@Base 3.2.0
 (optional=templinst)_ZN4Ogre9SharedPtrINS_8ResourceEED1Ev@Base 3.2.0
 (optional=templinst)_ZN4Ogre9SharedPtrINS_8ResourceEED2Ev@Base 3.2.0
 (optional=templinst)_ZN4Ogre9SharedPtrISt6vectorINS_8FileInfoENS_12STLAllocatorIS2_NS_22CategorisedAllocPolicyILNS_14MemoryCategoryE0EEEEEEE4swapERS9_@Base 3.2.0
 (optional=templinst)_ZN4Ogre9SharedPtrISt6vectorINS_8FileInfoENS_12STLAllocatorIS2_NS_22CategorisedAllocPolicyILNS_14MemoryCategoryE0EEEEEEE7destroyEv@Base 3.2.0
 (optional=templinst)_ZN4Ogre9SharedPtrISt6vectorINS_8FileInfoENS_12STLAllocatorIS2_NS_22CategorisedAllocPolicyILNS_14MemoryCategoryE0EEEEEEE7releaseEv@Base 3.2.0
 (optional=templinst)_ZN4Ogre9SharedPtrISt6vectorINS_8FileInfoENS_12STLAllocatorIS2_NS_22CategorisedAllocPolicyILNS_14MemoryCategoryE0EEEEEEEC1ERKS9_@Base 3.2.0
 (optional=templinst)_ZN4Ogre9SharedPtrISt6vectorINS_8FileInfoENS_12STLAllocatorIS2_NS_22CategorisedAllocPolicyILNS_14MemoryCategoryE0EEEEEEEC2ERKS9_@Base 3.2.0
 (optional=templinst)_ZN4Ogre9SharedPtrISt6vectorINS_8FileInfoENS_12STLAllocatorIS2_NS_22CategorisedAllocPolicyILNS_14MemoryCategoryE0EEEEEEED0Ev@Base 3.2.0
 (optional=templinst)_ZN4Ogre9SharedPtrISt6vectorINS_8FileInfoENS_12STLAllocatorIS2_NS_22CategorisedAllocPolicyILNS_14MemoryCategoryE0EEEEEEED1Ev@Base 3.2.0
 (optional=templinst)_ZN4Ogre9SharedPtrISt6vectorINS_8FileInfoENS_12STLAllocatorIS2_NS_22CategorisedAllocPolicyILNS_14MemoryCategoryE0EEEEEEED2Ev@Base 3.2.0
 (optional=templinst)_ZN4Ogre9SharedPtrISt6vectorINS_8FileInfoENS_12STLAllocatorIS2_NS_22CategorisedAllocPolicyILNS_14MemoryCategoryE0EEEEEEEaSERKS9_@Base 3.2.0
 _ZN5MyGUI11DataManagerD0Ev@Base 3.2.0
 _ZN5MyGUI11DataManagerD1Ev@Base 3.2.0
 _ZN5MyGUI11DataManagerD2Ev@Base 3.2.0
 _ZN5MyGUI11IDataStreamD0Ev@Base 3.2.0
 _ZN5MyGUI11IDataStreamD1Ev@Base 3.2.0
 _ZN5MyGUI11IDataStreamD2Ev@Base 3.2.0
 _ZN5MyGUI11OgreTexture10saveToFileERKSs@Base 3.2.0
 _ZN5MyGUI11OgreTexture12convertUsageENS_12TextureUsageE@Base 3.2.0
 _ZN5MyGUI11OgreTexture12createManualEiiNS_12TextureUsageENS_11PixelFormatE@Base 3.2.0
 _ZN5MyGUI11OgreTexture12loadFromFileERKSs@Base 3.2.0
 _ZN5MyGUI11OgreTexture12loadResourceEPN4Ogre8ResourceE@Base 3.2.0
 _ZN5MyGUI11OgreTexture13convertFormatENS_11PixelFormatE@Base 3.2.0
 _ZN5MyGUI11OgreTexture15getNumElemBytesEv@Base 3.2.0
 _ZN5MyGUI11OgreTexture15getRenderTargetEv@Base 3.2.0
 _ZN5MyGUI11OgreTexture21setInvalidateListenerEPNS_26ITextureInvalidateListenerE@Base 3.2.0
 _ZN5MyGUI11OgreTexture22setFormatByOgreTextureEv@Base 3.2.0
 _ZN5MyGUI11OgreTexture4lockENS_12TextureUsageE@Base 3.2.0
 _ZN5MyGUI11OgreTexture6unlockEv@Base 3.2.0
 _ZN5MyGUI11OgreTexture7destroyEv@Base 3.2.0
 _ZN5MyGUI11OgreTexture8getUsageEv@Base 3.2.0
 _ZN5MyGUI11OgreTexture8getWidthEv@Base 3.2.0
 _ZN5MyGUI11OgreTexture8isLockedEv@Base 3.2.0
 _ZN5MyGUI11OgreTexture8setUsageENS_12TextureUsageE@Base 3.2.0
 _ZN5MyGUI11OgreTexture9getFormatEv@Base 3.2.0
 _ZN5MyGUI11OgreTexture9getHeightEv@Base 3.2.0
 _ZN5MyGUI11OgreTexture9setFormatENS_11PixelFormatE@Base 3.2.0
 _ZN5MyGUI11OgreTextureC1ERKSsS2_@Base 3.2.0
 _ZN5MyGUI11OgreTextureC2ERKSsS2_@Base 3.2.0
 _ZN5MyGUI11OgreTextureD0Ev@Base 3.2.0
 _ZN5MyGUI11OgreTextureD1Ev@Base 3.2.0
 _ZN5MyGUI11OgreTextureD2Ev@Base 3.2.0
 _ZN5MyGUI13IRenderTargetD0Ev@Base 3.2.0
 _ZN5MyGUI13IRenderTargetD1Ev@Base 3.2.0
 _ZN5MyGUI13IRenderTargetD2Ev@Base 3.2.0
 _ZN5MyGUI13IVertexBufferD0Ev@Base 3.2.0
 _ZN5MyGUI13IVertexBufferD1Ev@Base 3.2.0
 _ZN5MyGUI13IVertexBufferD2Ev@Base 3.2.0
 _ZN5MyGUI13OgreRTTexture3endEv@Base 3.2.0
 _ZN5MyGUI13OgreRTTexture5beginEv@Base 3.2.0
 _ZN5MyGUI13OgreRTTexture7getInfoEv@Base 3.2.0
 _ZN5MyGUI13OgreRTTexture8doRenderEPNS_13IVertexBufferEPNS_8ITextureEj@Base 3.2.0
 _ZN5MyGUI13OgreRTTextureC1EN4Ogre10TexturePtrE@Base 3.2.0
 _ZN5MyGUI13OgreRTTextureC2EN4Ogre10TexturePtrE@Base 3.2.0
 _ZN5MyGUI13OgreRTTextureD0Ev@Base 3.2.0
 _ZN5MyGUI13OgreRTTextureD1Ev@Base 3.2.0
 _ZN5MyGUI13OgreRTTextureD2Ev@Base 3.2.0
 _ZN5MyGUI14OgreDataStream3eofEv@Base 3.2.0
 _ZN5MyGUI14OgreDataStream4readEPvj@Base 3.2.0
 _ZN5MyGUI14OgreDataStream4sizeEv@Base 3.2.0
 _ZN5MyGUI14OgreDataStream8readlineERSsj@Base 3.2.0
 _ZN5MyGUI14OgreDataStreamC1EN4Ogre9SharedPtrINS1_10DataStreamEEE@Base 3.2.0
 _ZN5MyGUI14OgreDataStreamC2EN4Ogre9SharedPtrINS1_10DataStreamEEE@Base 3.2.0
 _ZN5MyGUI14OgreDataStreamD0Ev@Base 3.2.0
 _ZN5MyGUI14OgreDataStreamD1Ev@Base 3.2.0
 _ZN5MyGUI14OgreDataStreamD2Ev@Base 3.2.0
 _ZN5MyGUI15OgreDataManager10initialiseERKSs@Base 3.2.0
 _ZN5MyGUI15OgreDataManager11getDataPathERKSs@Base 3.2.0
 _ZN5MyGUI15OgreDataManager11isDataExistERKSs@Base 3.2.0
 _ZN5MyGUI15OgreDataManager16getDataListNamesERKSs@Base 3.2.0
 _ZN5MyGUI15OgreDataManager16getDataListNamesERKSsb@Base 3.2.0
 _ZN5MyGUI15OgreDataManager7getDataERKSs@Base 3.2.0
 _ZN5MyGUI15OgreDataManager8shutdownEv@Base 3.2.0
 _ZN5MyGUI15OgreDataManagerC1Ev@Base 3.2.0
 _ZN5MyGUI15OgreDataManagerC2Ev@Base 3.2.0
 _ZN5MyGUI15OgreDataManagerD0Ev@Base 3.2.0
 _ZN5MyGUI15OgreDataManagerD1Ev@Base 3.2.0
 _ZN5MyGUI15OgreDataManagerD2Ev@Base 3.2.0
 _ZN5MyGUI16OgreVertexBuffer14getVertexCountEv@Base 3.2.0
 _ZN5MyGUI16OgreVertexBuffer14setVertexCountEj@Base 3.2.0
 _ZN5MyGUI16OgreVertexBuffer18createVertexBufferEv@Base 3.2.0
 _ZN5MyGUI16OgreVertexBuffer18resizeVertexBufferEv@Base 3.2.0
 _ZN5MyGUI16OgreVertexBuffer19destroyVertexBufferEv@Base 3.2.0
 _ZN5MyGUI16OgreVertexBuffer4lockEv@Base 3.2.0
 _ZN5MyGUI16OgreVertexBuffer6unlockEv@Base 3.2.0
 _ZN5MyGUI16OgreVertexBufferC1Ev@Base 3.2.0
 _ZN5MyGUI16OgreVertexBufferC2Ev@Base 3.2.0
 _ZN5MyGUI16OgreVertexBufferD0Ev@Base 3.2.0
 _ZN5MyGUI16OgreVertexBufferD1Ev@Base 3.2.0
 _ZN5MyGUI16OgreVertexBufferD2Ev@Base 3.2.0
 _ZN5MyGUI17OgreRenderManager10getTextureERKSs@Base 3.2.0
 _ZN5MyGUI17OgreRenderManager10initialiseEPN4Ogre12RenderWindowEPNS1_12SceneManagerE@Base 3.2.0
 _ZN5MyGUI17OgreRenderManager11getInstanceEv@Base 3.2.0
 _ZN5MyGUI17OgreRenderManager13createTextureERKSs@Base 3.2.0
 (optional=templinst)_ZN5MyGUI17OgreRenderManager13eventOccurredERKSsPKSt3mapISsSsSt4lessISsEN4Ogre12STLAllocatorISt4pairIS1_SsENS6_22CategorisedAllocPolicyILNS6_14MemoryCategoryE0EEEEEE@Base 3.2.0
 _ZN5MyGUI17OgreRenderManager13windowResizedEPN4Ogre12RenderWindowE@Base 3.2.0
 _ZN5MyGUI17OgreRenderManager14destroyTextureEPNS_8ITextureE@Base 3.2.0
 _ZN5MyGUI17OgreRenderManager14getInstancePtrEv@Base 3.2.0
 _ZN5MyGUI17OgreRenderManager15getManualRenderEv@Base 3.2.0
 _ZN5MyGUI17OgreRenderManager15getRenderSystemEv@Base 3.2.0
 _ZN5MyGUI17OgreRenderManager15getRenderWindowEv@Base 3.2.0
 _ZN5MyGUI17OgreRenderManager15getVertexFormatEv@Base 3.2.0
 _ZN5MyGUI17OgreRenderManager15setManualRenderEb@Base 3.2.0
 _ZN5MyGUI17OgreRenderManager15setRenderSystemEPN4Ogre12RenderSystemE@Base 3.2.0
 _ZN5MyGUI17OgreRenderManager15setRenderWindowEPN4Ogre12RenderWindowE@Base 3.2.0
 _ZN5MyGUI17OgreRenderManager15setSceneManagerEPN4Ogre12SceneManagerE@Base 3.2.0
 _ZN5MyGUI17OgreRenderManager16renderQueueEndedEhRKSsRb@Base 3.2.0
 _ZN5MyGUI17OgreRenderManager16updateRenderInfoEv@Base 3.2.0
 _ZN5MyGUI17OgreRenderManager17getActiveViewportEv@Base 3.2.0
 _ZN5MyGUI17OgreRenderManager17isFormatSupportedENS_11PixelFormatENS_12TextureUsageE@Base 3.2.0
 _ZN5MyGUI17OgreRenderManager17setActiveViewportEt@Base 3.2.0
 _ZN5MyGUI17OgreRenderManager18createVertexBufferEv@Base 3.2.0
 _ZN5MyGUI17OgreRenderManager18renderQueueStartedEhRKSsRb@Base 3.2.0
 _ZN5MyGUI17OgreRenderManager19destroyAllResourcesEv@Base 3.2.0
 _ZN5MyGUI17OgreRenderManager19destroyVertexBufferEPNS_13IVertexBufferE@Base 3.2.0
 _ZN5MyGUI17OgreRenderManager3endEv@Base 3.2.0
 _ZN5MyGUI17OgreRenderManager5beginEv@Base 3.2.0
 _ZN5MyGUI17OgreRenderManager7getInfoEv@Base 3.2.0
 _ZN5MyGUI17OgreRenderManager8doRenderEPNS_13IVertexBufferEPNS_8ITextureEj@Base 3.2.0
 _ZN5MyGUI17OgreRenderManager8shutdownEv@Base 3.2.0
 _ZN5MyGUI17OgreRenderManagerC1Ev@Base 3.2.0
 _ZN5MyGUI17OgreRenderManagerC2Ev@Base 3.2.0
 _ZN5MyGUI17OgreRenderManagerD0Ev@Base 3.2.0
 _ZN5MyGUI17OgreRenderManagerD1Ev@Base 3.2.0
 _ZN5MyGUI17OgreRenderManagerD2Ev@Base 3.2.0
 _ZN5MyGUI8ITexture15getRenderTargetEv@Base 3.2.0
 _ZN5MyGUI8ITexture21setInvalidateListenerEPNS_26ITextureInvalidateListenerE@Base 3.2.0
 _ZN5MyGUI8ITextureD0Ev@Base 3.2.0
 _ZN5MyGUI8ITextureD1Ev@Base 3.2.0
 _ZN5MyGUI8ITextureD2Ev@Base 3.2.0
 (optional=templinst)_ZN5MyGUI9SingletonINS_11DataManagerEE11getInstanceEv@Base 3.2.0
 (optional=templinst)_ZN5MyGUI9SingletonINS_11DataManagerEEC1Ev@Base 3.2.0
 (optional=templinst)_ZN5MyGUI9SingletonINS_11DataManagerEEC2Ev@Base 3.2.0
 (optional=templinst)_ZN5MyGUI9SingletonINS_11DataManagerEED0Ev@Base 3.2.0
 (optional=templinst)_ZN5MyGUI9SingletonINS_11DataManagerEED1Ev@Base 3.2.0
 (optional=templinst)_ZN5MyGUI9SingletonINS_11DataManagerEED2Ev@Base 3.2.0
 (optional=templinst)_ZN5MyGUI9SingletonINS_13RenderManagerEEC1Ev@Base 3.2.0
 (optional=templinst)_ZN5MyGUI9SingletonINS_13RenderManagerEEC2Ev@Base 3.2.0
 (optional=templinst)_ZN5MyGUI9SingletonINS_13RenderManagerEED0Ev@Base 3.2.0
 (optional=templinst)_ZN5MyGUI9SingletonINS_13RenderManagerEED1Ev@Base 3.2.0
 (optional=templinst)_ZN5MyGUI9SingletonINS_13RenderManagerEED2Ev@Base 3.2.0
 _ZN5boost10lock_errorD0Ev@Base 3.2.0
 _ZN5boost10lock_errorD1Ev@Base 3.2.0
 _ZN5boost10lock_errorD2Ev@Base 3.2.0
 (optional=templinst)_ZN5boost11unique_lockINS_15recursive_mutexEE4lockEv@Base 3.2.0
 _ZN5boost15recursive_mutex6unlockEv@Base 3.2.0
 (optional=templinst)_ZN5boost15throw_exceptionINS_10lock_errorEEEvRKT_@Base 3.2.0
 _ZN5boost16exception_detail10clone_baseD0Ev@Base 3.2.0
 _ZN5boost16exception_detail10clone_baseD1Ev@Base 3.2.0
 _ZN5boost16exception_detail10clone_baseD2Ev@Base 3.2.0
 (optional=templinst)_ZN5boost16exception_detail10clone_implINS0_19error_info_injectorINS_10lock_errorEEEED0Ev@Base 3.2.0
 (optional=templinst)_ZN5boost16exception_detail10clone_implINS0_19error_info_injectorINS_10lock_errorEEEED1Ev@Base 3.2.0
 (optional=templinst)_ZN5boost16exception_detail10clone_implINS0_19error_info_injectorINS_10lock_errorEEEED2Ev@Base 3.2.0
 (optional=templinst)_ZN5boost16exception_detail12refcount_ptrINS0_20error_info_containerEE7releaseEv@Base 3.2.0
 (optional=templinst)_ZN5boost16exception_detail19error_info_injectorINS_10lock_errorEEC1ERKS3_@Base 3.2.0
 (optional=templinst)_ZN5boost16exception_detail19error_info_injectorINS_10lock_errorEEC2ERKS3_@Base 3.2.0
 (optional=templinst)_ZN5boost16exception_detail19error_info_injectorINS_10lock_errorEED0Ev@Base 3.2.0
 (optional=templinst)_ZN5boost16exception_detail19error_info_injectorINS_10lock_errorEED1Ev@Base 3.2.0
 (optional=templinst)_ZN5boost16exception_detail19error_info_injectorINS_10lock_errorEED2Ev@Base 3.2.0
 _ZN5boost16exception_detail20copy_boost_exceptionEPNS_9exceptionEPKS1_@Base 3.2.0
 _ZN5boost16thread_exceptionD0Ev@Base 3.2.0
 _ZN5boost16thread_exceptionD1Ev@Base 3.2.0
 _ZN5boost16thread_exceptionD2Ev@Base 3.2.0
 _ZN5boost9exceptionD0Ev@Base 3.2.0
 _ZN5boost9exceptionD1Ev@Base 3.2.0
 _ZN5boost9exceptionD2Ev@Base 3.2.0
 _ZNK5MyGUI11OgreTexture7getNameEv@Base 3.2.0
 _ZNK5MyGUI17OgreRenderManager11getViewSizeEv@Base 3.2.0
 _ZNK5MyGUI17OgreRenderManager13getBatchCountEv@Base 3.2.0
 _ZNK5boost10lock_error4whatEv@Base 3.2.0
 (optional=templinst)_ZNK5boost16exception_detail10clone_implINS0_19error_info_injectorINS_10lock_errorEEEE5cloneEv@Base 3.2.0
 (optional=templinst)_ZNK5boost16exception_detail10clone_implINS0_19error_info_injectorINS_10lock_errorEEEE7rethrowEv@Base 3.2.0
 (optional=templinst)_ZNKSt6vectorIN4Ogre9SharedPtrIS_INS0_8FileInfoENS0_12STLAllocatorIS2_NS0_22CategorisedAllocPolicyILNS0_14MemoryCategoryE0EEEEEEEESaIS9_EE12_M_check_lenEjPKc@Base 3.2.0
 (optional=templinst)_ZNKSt6vectorISsSaISsEE12_M_check_lenEjPKc@Base 3.2.0
 (optional=templinst)_ZNSt12_Destroy_auxILb0EE9__destroyIPSsEEvT_S3_@Base 3.2.0
 (optional=templinst)_ZNSt12_Vector_baseIN4Ogre8FileInfoENS0_12STLAllocatorIS1_NS0_22CategorisedAllocPolicyILNS0_14MemoryCategoryE0EEEEEE12_Vector_implD0Ev@Base 3.2.0
 (optional=templinst)_ZNSt12_Vector_baseIN4Ogre8FileInfoENS0_12STLAllocatorIS1_NS0_22CategorisedAllocPolicyILNS0_14MemoryCategoryE0EEEEEE12_Vector_implD1Ev@Base 3.2.0
 (optional=templinst)_ZNSt12_Vector_baseIN4Ogre8FileInfoENS0_12STLAllocatorIS1_NS0_22CategorisedAllocPolicyILNS0_14MemoryCategoryE0EEEEEE12_Vector_implD2Ev@Base 3.2.0
 (optional=templinst)_ZNSt12_Vector_baseISsN4Ogre12STLAllocatorISsNS0_22CategorisedAllocPolicyILNS0_14MemoryCategoryE0EEEEEE12_Vector_implD0Ev@Base 3.2.0
 (optional=templinst)_ZNSt12_Vector_baseISsN4Ogre12STLAllocatorISsNS0_22CategorisedAllocPolicyILNS0_14MemoryCategoryE0EEEEEE12_Vector_implD1Ev@Base 3.2.0
 (optional=templinst)_ZNSt12_Vector_baseISsN4Ogre12STLAllocatorISsNS0_22CategorisedAllocPolicyILNS0_14MemoryCategoryE0EEEEEE12_Vector_implD2Ev@Base 3.2.0
 (optional=templinst)_ZNSt15basic_stringbufIcSt11char_traitsIcESaIcEED0Ev@Base 3.2.0
 (optional=templinst)_ZNSt15basic_stringbufIcSt11char_traitsIcESaIcEED1Ev@Base 3.2.0
 (optional=templinst)_ZNSt15basic_stringbufIcSt11char_traitsIcESaIcEED2Ev@Base 3.2.0
 _ZNSt20__copy_move_backwardILb0ELb0ESt26random_access_iterator_tagE13__copy_move_bIPN4Ogre9SharedPtrISt6vectorINS3_8FileInfoENS3_12STLAllocatorIS6_NS3_22CategorisedAllocPolicyILNS3_14MemoryCategoryE0EEEEEEEESE_EET0_T_SG_SF_@Base 3.2.0
 (optional=templinst)_ZNSt20__copy_move_backwardILb0ELb0ESt26random_access_iterator_tagE13__copy_move_bIPSsS3_EET0_T_S5_S4_@Base 3.2.0
 _ZNSt20__uninitialized_copyILb0EE13__uninit_copyIPN4Ogre9SharedPtrISt6vectorINS2_8FileInfoENS2_12STLAllocatorIS5_NS2_22CategorisedAllocPolicyILNS2_14MemoryCategoryE0EEEEEEEESD_EET0_T_SF_SE_@Base 3.2.0
 (optional=templinst)_ZNSt20__uninitialized_copyILb0EE13__uninit_copyIPSsS2_EET0_T_S4_S3_@Base 3.2.0
 (optional=templinst)_ZNSt3mapISsPN5MyGUI8ITextureESt4lessISsESaISt4pairIKSsS2_EEEixERS6_@Base 3.2.0
 (optional=templinst)_ZNSt4pairIKSsPN5MyGUI8ITextureEED1Ev@Base 3.2.0
 (optional=templinst)_ZNSt4pairIKSsPN5MyGUI8ITextureEED2Ev@Base 3.2.0
 (optional=templinst)_ZNSt6vectorIN4Ogre8FileInfoENS0_12STLAllocatorIS1_NS0_22CategorisedAllocPolicyILNS0_14MemoryCategoryE0EEEEEED1Ev@Base 3.2.0
 (optional=templinst)_ZNSt6vectorIN4Ogre8FileInfoENS0_12STLAllocatorIS1_NS0_22CategorisedAllocPolicyILNS0_14MemoryCategoryE0EEEEEED2Ev@Base 3.2.0
 (optional=templinst)_ZNSt6vectorIN4Ogre9SharedPtrIS_INS0_8FileInfoENS0_12STLAllocatorIS2_NS0_22CategorisedAllocPolicyILNS0_14MemoryCategoryE0EEEEEEEESaIS9_EE13_M_insert_auxEN9__gnu_cxx17__normal_iteratorIPS9_SB_EERKS9_@Base 3.2.0
 (optional=templinst)_ZNSt6vectorIN4Ogre9SharedPtrIS_INS0_8FileInfoENS0_12STLAllocatorIS2_NS0_22CategorisedAllocPolicyILNS0_14MemoryCategoryE0EEEEEEEESaIS9_EED1Ev@Base 3.2.0
 (optional=templinst)_ZNSt6vectorIN4Ogre9SharedPtrIS_INS0_8FileInfoENS0_12STLAllocatorIS2_NS0_22CategorisedAllocPolicyILNS0_14MemoryCategoryE0EEEEEEEESaIS9_EED2Ev@Base 3.2.0
 (optional=templinst)_ZNSt6vectorISsN4Ogre12STLAllocatorISsNS0_22CategorisedAllocPolicyILNS0_14MemoryCategoryE0EEEEEED1Ev@Base 3.2.0
 (optional=templinst)_ZNSt6vectorISsN4Ogre12STLAllocatorISsNS0_22CategorisedAllocPolicyILNS0_14MemoryCategoryE0EEEEEED2Ev@Base 3.2.0
 (optional=templinst)_ZNSt6vectorISsSaISsEE13_M_insert_auxEN9__gnu_cxx17__normal_iteratorIPSsS1_EERKSs@Base 3.2.0
 (optional=templinst)_ZNSt6vectorISsSaISsEE7reserveEj@Base 3.2.0
 (optional=templinst)_ZNSt6vectorISsSaISsEE9push_backERKSs@Base 3.2.0
 (optional=templinst)_ZNSt6vectorISsSaISsEED1Ev@Base 3.2.0
 (optional=templinst)_ZNSt6vectorISsSaISsEED2Ev@Base 3.2.0
 (optional=templinst)_ZNSt8_Rb_treeISsSt4pairIKSsPN5MyGUI8ITextureEESt10_Select1stIS5_ESt4lessISsESaIS5_EE10_M_insert_EPKSt18_Rb_tree_node_baseSE_RKS5_@Base 3.2.0
 (optional=templinst)_ZNSt8_Rb_treeISsSt4pairIKSsPN5MyGUI8ITextureEESt10_Select1stIS5_ESt4lessISsESaIS5_EE16_M_insert_uniqueERKS5_@Base 3.2.0
 (optional=templinst)_ZNSt8_Rb_treeISsSt4pairIKSsPN5MyGUI8ITextureEESt10_Select1stIS5_ESt4lessISsESaIS5_EE17_M_insert_unique_ESt23_Rb_tree_const_iteratorIS5_ERKS5_@Base 3.2.0
 (optional=templinst)_ZNSt8_Rb_treeISsSt4pairIKSsPN5MyGUI8ITextureEESt10_Select1stIS5_ESt4lessISsESaIS5_EE4findERS1_@Base 3.2.0
 (optional=templinst)_ZNSt8_Rb_treeISsSt4pairIKSsPN5MyGUI8ITextureEESt10_Select1stIS5_ESt4lessISsESaIS5_EE8_M_eraseEPSt13_Rb_tree_nodeIS5_E@Base 3.2.0
 (optional=templinst)_ZStplIcSt11char_traitsIcESaIcEESbIT_T0_T1_EPKS3_RKS6_@Base 3.2.0
 (optional=templinst)_ZStplIcSt11char_traitsIcESaIcEESbIT_T0_T1_ERKS6_PKS3_@Base 3.2.0
 _ZTIN4Ogre10TexturePtrE@Base 3.2.0
 _ZTIN4Ogre12RenderSystem8ListenerE@Base 3.2.0
 _ZTIN4Ogre12STLAllocatorINS_8FileInfoENS_22CategorisedAllocPolicyILNS_14MemoryCategoryE0EEEEE@Base 3.2.0
 _ZTIN4Ogre12STLAllocatorISsNS_22CategorisedAllocPolicyILNS_14MemoryCategoryE0EEEEE@Base 3.2.0
 _ZTIN4Ogre16STLAllocatorBaseINS_8FileInfoEEE@Base 3.2.0
 _ZTIN4Ogre16STLAllocatorBaseISsEE@Base 3.2.0
 _ZTIN4Ogre19RenderQueueListenerE@Base 3.2.0
 _ZTIN4Ogre19WindowEventListenerE@Base 3.2.0
 _ZTIN4Ogre20ManualResourceLoaderE@Base 3.2.0
 _ZTIN4Ogre21FileNotFoundExceptionE@Base 3.2.0
 _ZTIN4Ogre28HardwarePixelBufferSharedPtrE@Base 3.2.0
 _ZTIN4Ogre29HardwareVertexBufferSharedPtrE@Base 3.2.0
 _ZTIN4Ogre9SharedPtrINS_10DataStreamEEE@Base 3.2.0
 _ZTIN4Ogre9SharedPtrINS_19HardwarePixelBufferEEE@Base 3.2.0
 _ZTIN4Ogre9SharedPtrINS_20HardwareVertexBufferEEE@Base 3.2.0
 _ZTIN4Ogre9SharedPtrINS_7TextureEEE@Base 3.2.0
 _ZTIN4Ogre9SharedPtrINS_8ResourceEEE@Base 3.2.0
 _ZTIN4Ogre9SharedPtrISt6vectorINS_8FileInfoENS_12STLAllocatorIS2_NS_22CategorisedAllocPolicyILNS_14MemoryCategoryE0EEEEEEEE@Base 3.2.0
 _ZTIN5MyGUI11DataManagerE@Base 3.2.0
 _ZTIN5MyGUI11IDataStreamE@Base 3.2.0
 _ZTIN5MyGUI11OgreTextureE@Base 3.2.0
 _ZTIN5MyGUI13IRenderTargetE@Base 3.2.0
 _ZTIN5MyGUI13IVertexBufferE@Base 3.2.0
 _ZTIN5MyGUI13OgreRTTextureE@Base 3.2.0
 _ZTIN5MyGUI14OgreDataStreamE@Base 3.2.0
 _ZTIN5MyGUI15OgreDataManagerE@Base 3.2.0
 _ZTIN5MyGUI16OgreVertexBufferE@Base 3.2.0
 _ZTIN5MyGUI17OgreRenderManagerE@Base 3.2.0
 _ZTIN5MyGUI8ITextureE@Base 3.2.0
 _ZTIN5MyGUI9SingletonINS_11DataManagerEEE@Base 3.2.0
 _ZTIN5MyGUI9SingletonINS_13RenderManagerEEE@Base 3.2.0
 _ZTIN5boost10lock_errorE@Base 3.2.0
 _ZTIN5boost16exception_detail10clone_baseE@Base 3.2.0
 _ZTIN5boost16exception_detail10clone_implINS0_19error_info_injectorINS_10lock_errorEEEEE@Base 3.2.0
 _ZTIN5boost16exception_detail19error_info_injectorINS_10lock_errorEEE@Base 3.2.0
 _ZTIN5boost16thread_exceptionE@Base 3.2.0
 _ZTIN5boost9exceptionE@Base 3.2.0
 _ZTINSt12_Vector_baseIN4Ogre8FileInfoENS0_12STLAllocatorIS1_NS0_22CategorisedAllocPolicyILNS0_14MemoryCategoryE0EEEEEE12_Vector_implE@Base 3.2.0
 _ZTINSt12_Vector_baseISsN4Ogre12STLAllocatorISsNS0_22CategorisedAllocPolicyILNS0_14MemoryCategoryE0EEEEEE12_Vector_implE@Base 3.2.0
 _ZTSN4Ogre10TexturePtrE@Base 3.2.0
 _ZTSN4Ogre12RenderSystem8ListenerE@Base 3.2.0
 _ZTSN4Ogre12STLAllocatorINS_8FileInfoENS_22CategorisedAllocPolicyILNS_14MemoryCategoryE0EEEEE@Base 3.2.0
 _ZTSN4Ogre12STLAllocatorISsNS_22CategorisedAllocPolicyILNS_14MemoryCategoryE0EEEEE@Base 3.2.0
 _ZTSN4Ogre16STLAllocatorBaseINS_8FileInfoEEE@Base 3.2.0
 _ZTSN4Ogre16STLAllocatorBaseISsEE@Base 3.2.0
 _ZTSN4Ogre19RenderQueueListenerE@Base 3.2.0
 _ZTSN4Ogre19WindowEventListenerE@Base 3.2.0
 _ZTSN4Ogre20ManualResourceLoaderE@Base 3.2.0
 _ZTSN4Ogre21FileNotFoundExceptionE@Base 3.2.0
 _ZTSN4Ogre28HardwarePixelBufferSharedPtrE@Base 3.2.0
 _ZTSN4Ogre29HardwareVertexBufferSharedPtrE@Base 3.2.0
 _ZTSN4Ogre9SharedPtrINS_10DataStreamEEE@Base 3.2.0
 _ZTSN4Ogre9SharedPtrINS_19HardwarePixelBufferEEE@Base 3.2.0
 _ZTSN4Ogre9SharedPtrINS_20HardwareVertexBufferEEE@Base 3.2.0
 _ZTSN4Ogre9SharedPtrINS_7TextureEEE@Base 3.2.0
 _ZTSN4Ogre9SharedPtrINS_8ResourceEEE@Base 3.2.0
 _ZTSN4Ogre9SharedPtrISt6vectorINS_8FileInfoENS_12STLAllocatorIS2_NS_22CategorisedAllocPolicyILNS_14MemoryCategoryE0EEEEEEEE@Base 3.2.0
 _ZTSN5MyGUI11DataManagerE@Base 3.2.0
 _ZTSN5MyGUI11IDataStreamE@Base 3.2.0
 _ZTSN5MyGUI11OgreTextureE@Base 3.2.0
 _ZTSN5MyGUI13IRenderTargetE@Base 3.2.0
 _ZTSN5MyGUI13IVertexBufferE@Base 3.2.0
 _ZTSN5MyGUI13OgreRTTextureE@Base 3.2.0
 _ZTSN5MyGUI14OgreDataStreamE@Base 3.2.0
 _ZTSN5MyGUI15OgreDataManagerE@Base 3.2.0
 _ZTSN5MyGUI16OgreVertexBufferE@Base 3.2.0
 _ZTSN5MyGUI17OgreRenderManagerE@Base 3.2.0
 _ZTSN5MyGUI8ITextureE@Base 3.2.0
 _ZTSN5MyGUI9SingletonINS_11DataManagerEEE@Base 3.2.0
 _ZTSN5MyGUI9SingletonINS_13RenderManagerEEE@Base 3.2.0
 _ZTSN5boost10lock_errorE@Base 3.2.0
 _ZTSN5boost16exception_detail10clone_baseE@Base 3.2.0
 _ZTSN5boost16exception_detail10clone_implINS0_19error_info_injectorINS_10lock_errorEEEEE@Base 3.2.0
 _ZTSN5boost16exception_detail19error_info_injectorINS_10lock_errorEEE@Base 3.2.0
 _ZTSN5boost16thread_exceptionE@Base 3.2.0
 _ZTSN5boost9exceptionE@Base 3.2.0
 _ZTSNSt12_Vector_baseIN4Ogre8FileInfoENS0_12STLAllocatorIS1_NS0_22CategorisedAllocPolicyILNS0_14MemoryCategoryE0EEEEEE12_Vector_implE@Base 3.2.0
 _ZTSNSt12_Vector_baseISsN4Ogre12STLAllocatorISsNS0_22CategorisedAllocPolicyILNS0_14MemoryCategoryE0EEEEEE12_Vector_implE@Base 3.2.0
 _ZTVN4Ogre10TexturePtrE@Base 3.2.0
 _ZTVN4Ogre12RenderSystem8ListenerE@Base 3.2.0
 _ZTVN4Ogre12STLAllocatorINS_8FileInfoENS_22CategorisedAllocPolicyILNS_14MemoryCategoryE0EEEEE@Base 3.2.0
 _ZTVN4Ogre12STLAllocatorISsNS_22CategorisedAllocPolicyILNS_14MemoryCategoryE0EEEEE@Base 3.2.0
 _ZTVN4Ogre19RenderQueueListenerE@Base 3.2.0
 _ZTVN4Ogre19WindowEventListenerE@Base 3.2.0
 _ZTVN4Ogre20ManualResourceLoaderE@Base 3.2.0
 _ZTVN4Ogre28HardwarePixelBufferSharedPtrE@Base 3.2.0
 _ZTVN4Ogre29HardwareVertexBufferSharedPtrE@Base 3.2.0
 _ZTVN4Ogre9SharedPtrINS_10DataStreamEEE@Base 3.2.0
 _ZTVN4Ogre9SharedPtrINS_19HardwarePixelBufferEEE@Base 3.2.0
 _ZTVN4Ogre9SharedPtrINS_20HardwareVertexBufferEEE@Base 3.2.0
 _ZTVN4Ogre9SharedPtrINS_7TextureEEE@Base 3.2.0
 _ZTVN4Ogre9SharedPtrINS_8ResourceEEE@Base 3.2.0
 _ZTVN4Ogre9SharedPtrISt6vectorINS_8FileInfoENS_12STLAllocatorIS2_NS_22CategorisedAllocPolicyILNS_14MemoryCategoryE0EEEEEEEE@Base 3.2.0
 _ZTVN5MyGUI11DataManagerE@Base 3.2.0
 _ZTVN5MyGUI11IDataStreamE@Base 3.2.0
 _ZTVN5MyGUI11OgreTextureE@Base 3.2.0
 _ZTVN5MyGUI13IRenderTargetE@Base 3.2.0
 _ZTVN5MyGUI13IVertexBufferE@Base 3.2.0
 _ZTVN5MyGUI13OgreRTTextureE@Base 3.2.0
 _ZTVN5MyGUI14OgreDataStreamE@Base 3.2.0
 _ZTVN5MyGUI15OgreDataManagerE@Base 3.2.0
 _ZTVN5MyGUI16OgreVertexBufferE@Base 3.2.0
 _ZTVN5MyGUI17OgreRenderManagerE@Base 3.2.0
 _ZTVN5MyGUI8ITextureE@Base 3.2.0
 _ZTVN5MyGUI9SingletonINS_11DataManagerEEE@Base 3.2.0
 _ZTVN5MyGUI9SingletonINS_13RenderManagerEEE@Base 3.2.0
 _ZTVN5boost10lock_errorE@Base 3.2.0
 _ZTVN5boost16exception_detail10clone_baseE@Base 3.2.0
 _ZTVN5boost16exception_detail10clone_implINS0_19error_info_injectorINS_10lock_errorEEEEE@Base 3.2.0
 _ZTVN5boost16exception_detail19error_info_injectorINS_10lock_errorEEE@Base 3.2.0
 _ZTVN5boost16thread_exceptionE@Base 3.2.0
 _ZTVN5boost9exceptionE@Base 3.2.0
 _ZTVNSt12_Vector_baseIN4Ogre8FileInfoENS0_12STLAllocatorIS1_NS0_22CategorisedAllocPolicyILNS0_14MemoryCategoryE0EEEEEE12_Vector_implE@Base 3.2.0
 _ZTVNSt12_Vector_baseISsN4Ogre12STLAllocatorISsNS0_22CategorisedAllocPolicyILNS0_14MemoryCategoryE0EEEEEE12_Vector_implE@Base 3.2.0
 (c++)"non-virtual thunk to MyGUI::OgreRenderManager::begin()@Base" 3.2.0
 (c++)"non-virtual thunk to MyGUI::OgreRenderManager::doRender(MyGUI::IVertexBuffer*, MyGUI::ITexture*, unsigned int)@Base" 3.2.0
 (c++)"non-virtual thunk to MyGUI::OgreRenderManager::end()@Base" 3.2.0
 (c++)"non-virtual thunk to MyGUI::OgreRenderManager::eventOccurred(std::basic_string<char, std::char_traits<char>, std::allocator<char> > const&, std::map<std::basic_string<char, std::char_traits<char>, std::allocator<char> >, std::basic_string<char, std::char_traits<char>, std::allocator<char> >, std::less<std::basic_string<char, std::char_traits<char>, std::allocator<char> > >, Ogre::STLAllocator<std::pair<std::basic_string<char, std::char_traits<char>, std::allocator<char> > const, std::basic_string<char, std::char_traits<char>, std::allocator<char> > >, Ogre::CategorisedAllocPolicy<(Ogre::MemoryCategory)0> > > const*)@Base" 3.2.0
 (c++)"non-virtual thunk to MyGUI::OgreRenderManager::getInfo()@Base" 3.2.0
 (c++)"non-virtual thunk to MyGUI::OgreRenderManager::renderQueueEnded(unsigned char, std::basic_string<char, std::char_traits<char>, std::allocator<char> > const&, bool&)@Base" 3.2.0
 (c++)"non-virtual thunk to MyGUI::OgreRenderManager::renderQueueStarted(unsigned char, std::basic_string<char, std::char_traits<char>, std::allocator<char> > const&, bool&)@Base" 3.2.0
 (c++)"non-virtual thunk to MyGUI::OgreRenderManager::windowResized(Ogre::RenderWindow*)@Base" 3.2.0
 (c++)"non-virtual thunk to MyGUI::OgreRenderManager::~OgreRenderManager()@Base" 3.2.0
 (c++)"non-virtual thunk to MyGUI::OgreTexture::loadResource(Ogre::Resource*)@Base" 3.2.0
 (c++)"non-virtual thunk to MyGUI::OgreTexture::~OgreTexture()@Base" 3.2.0
 (c++)"non-virtual thunk to boost::exception_detail::clone_impl<boost::exception_detail::error_info_injector<boost::lock_error> >::clone() const@Base" 3.2.0
 (c++)"non-virtual thunk to boost::exception_detail::clone_impl<boost::exception_detail::error_info_injector<boost::lock_error> >::rethrow() const@Base" 3.2.0
 (c++)"non-virtual thunk to boost::exception_detail::clone_impl<boost::exception_detail::error_info_injector<boost::lock_error> >::~clone_impl()@Base" 3.2.0
 (c++)"non-virtual thunk to boost::exception_detail::error_info_injector<boost::lock_error>::~error_info_injector()@Base" 3.2.0
