# SymbolsHelper-Confirmed: 4:4.8.4 armel armhf mips mipsel sparc
libkwineffects.so.1abi3 libkwineffects1abi3 #MINVER#
 ABI_1_3@ABI_1_3 4:4.8.1
 _ZN4KWin10Extensions10has_damageE@ABI_1_3 4:4.8.1
 _ZN4KWin10Extensions12data_opcodesE@ABI_1_3 4:4.8.1
 _ZN4KWin10Extensions13fixes_versionE@ABI_1_3 4:4.8.1
 _ZN4KWin10Extensions13shape_versionE@ABI_1_3 4:4.8.1
 _ZN4KWin10Extensions14render_versionE@ABI_1_3 4:4.8.1
 _ZN4KWin10Extensions15data_extensionsE@ABI_1_3 4:4.8.1
 _ZN4KWin10Extensions15sync_event_baseE@ABI_1_3 4:4.8.1
 _ZN4KWin10Extensions16data_error_basesE@ABI_1_3 4:4.8.1
 _ZN4KWin10Extensions16data_nextensionsE@ABI_1_3 4:4.8.1
 _ZN4KWin10Extensions16randrNotifyEventEv@ABI_1_3 4:4.8.1
 _ZN4KWin10Extensions16randr_event_baseE@ABI_1_3 4:4.8.1
 _ZN4KWin10Extensions16shapeNotifyEventEv@ABI_1_3 4:4.8.1
 _ZN4KWin10Extensions16shape_event_baseE@ABI_1_3 4:4.8.1
 _ZN4KWin10Extensions17composite_versionE@ABI_1_3 4:4.8.1
 _ZN4KWin10Extensions17damageNotifyEventEv@ABI_1_3 4:4.8.1
 _ZN4KWin10Extensions17damage_event_baseE@ABI_1_3 4:4.8.1
 _ZN4KWin10Extensions18fillExtensionsDataERPPKcRiRPiS7_@ABI_1_3 4:4.8.1
 _ZN4KWin10Extensions18non_native_pixmapsE@ABI_1_3 4:4.8.1
 _ZN4KWin10Extensions19shapeInputAvailableEv@ABI_1_3 4:4.8.1
 _ZN4KWin10Extensions20fixesRegionAvailableEv@ABI_1_3 4:4.8.1
 _ZN4KWin10Extensions20syncAlarmNotifyEventEv@ABI_1_3 4:4.8.1
 _ZN4KWin10Extensions25compositeOverlayAvailableEv@ABI_1_3 4:4.8.1
 _ZN4KWin10Extensions4initEv@ABI_1_3 4:4.8.1
 _ZN4KWin10Extensions7addDataEPKc@ABI_1_3 4:4.8.1
 _ZN4KWin10Extensions8hasShapeEm@ABI_1_3 4:4.8.1
 _ZN4KWin10Extensions8has_syncE@ABI_1_3 4:4.8.1
 _ZN4KWin10Extensions9has_randrE@ABI_1_3 4:4.8.1
 _ZN4KWin11EffectFrame15enableCrossFadeEb@ABI_1_3 4:4.8.1
 (subst)_ZN4KWin11EffectFrame20setCrossFadeProgressE{qreal}@ABI_1_3 4:4.8.1
 _ZN4KWin11EffectFrameC1Ev@ABI_1_3 4:4.8.1
 _ZN4KWin11EffectFrameC2Ev@ABI_1_3 4:4.8.1
 _ZN4KWin11EffectFrameD0Ev@ABI_1_3 4:4.8.1
 _ZN4KWin11EffectFrameD1Ev@ABI_1_3 4:4.8.1
 _ZN4KWin11EffectFrameD2Ev@ABI_1_3 4:4.8.1
 _ZN4KWin11preMultiplyERK6QColorf@ABI_1_3 4:4.8.1
 _ZN4KWin11xRenderFillEPK12XRenderColor@ABI_1_3 4:4.8.1
 _ZN4KWin11xRenderFillERK6QColor@ABI_1_3 4:4.8.1
 _ZN4KWin12EffectWindowC1Ev@ABI_1_3 4:4.8.1
 _ZN4KWin12EffectWindowC2Ev@ABI_1_3 4:4.8.1
 _ZN4KWin12EffectWindowD0Ev@ABI_1_3 4:4.8.1
 _ZN4KWin12EffectWindowD1Ev@ABI_1_3 4:4.8.1
 _ZN4KWin12EffectWindowD2Ev@ABI_1_3 4:4.8.1
 _ZN4KWin12PaintClipper3popERK7QRegion@ABI_1_3 4:4.8.1
 _ZN4KWin12PaintClipper4clipEv@ABI_1_3 4:4.8.1
 _ZN4KWin12PaintClipper4pushERK7QRegion@ABI_1_3 4:4.8.1
 _ZN4KWin12PaintClipper5areasE@ABI_1_3 4:4.8.1
 _ZN4KWin12PaintClipper8Iterator4nextEv@ABI_1_3 4:4.8.1
 _ZN4KWin12PaintClipper8Iterator6isDoneEv@ABI_1_3 4:4.8.1
 _ZN4KWin12PaintClipper8IteratorC1Ev@ABI_1_3 4:4.8.1
 _ZN4KWin12PaintClipper8IteratorC2Ev@ABI_1_3 4:4.8.1
 _ZN4KWin12PaintClipper8IteratorD1Ev@ABI_1_3 4:4.8.1
 _ZN4KWin12PaintClipper8IteratorD2Ev@ABI_1_3 4:4.8.1
 _ZN4KWin12PaintClipper9paintAreaEv@ABI_1_3 4:4.8.1
 _ZN4KWin12PaintClipperC1ERK7QRegion@ABI_1_3 4:4.8.1
 _ZN4KWin12PaintClipperC2ERK7QRegion@ABI_1_3 4:4.8.1
 _ZN4KWin12PaintClipperD1Ev@ABI_1_3 4:4.8.1
 _ZN4KWin12PaintClipperD2Ev@ABI_1_3 4:4.8.1
 _ZN4KWin12RotationDataC1Ev@ABI_1_3 4:4.8.1
 _ZN4KWin12RotationDataC2Ev@ABI_1_3 4:4.8.1
 _ZN4KWin14EffectsHandler11hideOutlineEv@ABI_1_3 4:4.8.1
 _ZN4KWin14EffectsHandler11qt_metacallEN11QMetaObject4CallEiPPv@ABI_1_3 4:4.8.1
 _ZN4KWin14EffectsHandler11qt_metacastEPKc@ABI_1_3 4:4.8.1
 _ZN4KWin14EffectsHandler11showOutlineERK5QRect@ABI_1_3 4:4.8.1
 _ZN4KWin14EffectsHandler11tabBoxAddedEi@ABI_1_3 4:4.8.1
 _ZN4KWin14EffectsHandler11windowAddedEPNS_12EffectWindowE@ABI_1_3 4:4.8.1
 _ZN4KWin14EffectsHandler12effectConfigERK7QString@ABI_1_3 4:4.8.1
 _ZN4KWin14EffectsHandler12mouseChangedERK6QPointS3_6QFlagsIN2Qt11MouseButtonEES7_S4_INS5_16KeyboardModifierEES9_@ABI_1_3 4:4.8.1
 _ZN4KWin14EffectsHandler12tabBoxClosedEv@ABI_1_3 4:4.8.1
 _ZN4KWin14EffectsHandler12windowClosedEPNS_12EffectWindowE@ABI_1_3 4:4.8.1
 _ZN4KWin14EffectsHandler13tabBoxUpdatedEv@ABI_1_3 4:4.8.1
 _ZN4KWin14EffectsHandler13windowDamagedEPNS_12EffectWindowERK5QRect@ABI_1_3 4:4.8.1
 _ZN4KWin14EffectsHandler13windowDeletedEPNS_12EffectWindowE@ABI_1_3 4:4.8.1
 _ZN4KWin14EffectsHandler14desktopChangedEii@ABI_1_3 4:4.8.1
 _ZN4KWin14EffectsHandler14propertyNotifyEPNS_12EffectWindowEl@ABI_1_3 4:4.8.1
 _ZN4KWin14EffectsHandler14tabBoxKeyEventEP9QKeyEvent@ABI_1_3 4:4.8.1
 _ZN4KWin14EffectsHandler15windowActivatedEPNS_12EffectWindowE@ABI_1_3 4:4.8.1
 _ZN4KWin14EffectsHandler15windowMinimizedEPNS_12EffectWindowE@ABI_1_3 4:4.8.1
 _ZN4KWin14EffectsHandler16staticMetaObjectE@ABI_1_3 4:4.8.1
 _ZN4KWin14EffectsHandler17createInputWindowEPNS_6EffectERK5QRectRK7QCursor@ABI_1_3 4:4.8.1
 _ZN4KWin14EffectsHandler17sendReloadMessageERK7QString@ABI_1_3 4:4.8.1
 _ZN4KWin14EffectsHandler17windowUnminimizedEPNS_12EffectWindowE@ABI_1_3 4:4.8.1
 _ZN4KWin14EffectsHandler20clientGroupItemAddedEPNS_12EffectWindowES2_@ABI_1_3 4:4.8.1
 (subst)_ZN4KWin14EffectsHandler20windowOpacityChangedEPNS_12EffectWindowE{qreal}{qreal}@ABI_1_3 4:4.8.1
 _ZN4KWin14EffectsHandler21numberDesktopsChangedEi@ABI_1_3 4:4.8.1
 _ZN4KWin14EffectsHandler22clientGroupItemRemovedEPNS_12EffectWindowES2_@ABI_1_3 4:4.8.1
 _ZN4KWin14EffectsHandler23clientGroupItemSwitchedEPNS_12EffectWindowES2_@ABI_1_3 4:4.8.1
 _ZN4KWin14EffectsHandler26windowGeometryShapeChangedEPNS_12EffectWindowERK5QRect@ABI_1_3 4:4.8.1
 _ZN4KWin14EffectsHandler26windowStepUserMovedResizedEPNS_12EffectWindowERK5QRect@ABI_1_3 4:4.8.1
 _ZN4KWin14EffectsHandler27createFullScreenInputWindowEPNS_6EffectERK7QCursor@ABI_1_3 4:4.8.1
 _ZN4KWin14EffectsHandler27windowMaximizedStateChangedEPNS_12EffectWindowEbb@ABI_1_3 4:4.8.1
 _ZN4KWin14EffectsHandler27windowStartUserMovedResizedEPNS_12EffectWindowE@ABI_1_3 4:4.8.1
 _ZN4KWin14EffectsHandler28windowFinishUserMovedResizedEPNS_12EffectWindowE@ABI_1_3 4:4.8.1
 _ZN4KWin14EffectsHandlerC1ENS_15CompositingTypeE@ABI_1_3 4:4.8.1
 _ZN4KWin14EffectsHandlerC2ENS_15CompositingTypeE@ABI_1_3 4:4.8.1
 _ZN4KWin14EffectsHandlerD0Ev@ABI_1_3 4:4.8.1
 _ZN4KWin14EffectsHandlerD1Ev@ABI_1_3 4:4.8.1
 _ZN4KWin14EffectsHandlerD2Ev@ABI_1_3 4:4.8.1
 (arch=kfreebsd-amd64 kfreebsd-i386)_ZN4KWin14WindowQuadListD1Ev@ABI_1_3 4:4.8.3
 (arch=kfreebsd-amd64 kfreebsd-i386)_ZN4KWin14WindowQuadListD2Ev@ABI_1_3 4:4.8.3
 _ZN4KWin14XRenderPictureC1E7QPixmap@ABI_1_3 4:4.8.1
 _ZN4KWin14XRenderPictureC1Emi@ABI_1_3 4:4.8.1
 _ZN4KWin14XRenderPictureC2E7QPixmap@ABI_1_3 4:4.8.1
 _ZN4KWin14XRenderPictureC2Emi@ABI_1_3 4:4.8.1
 _ZN4KWin14XRenderPictureD1Ev@ABI_1_3 4:4.8.1
 _ZN4KWin14XRenderPictureD2Ev@ABI_1_3 4:4.8.1
 _ZN4KWin15AnimationEffect11paintWindowEPNS_12EffectWindowEi7QRegionRNS_15WindowPaintDataE@ABI_1_3 4:4.8.1
 _ZN4KWin15AnimationEffect11qt_metacallEN11QMetaObject4CallEiPPv@ABI_1_3 4:4.8.1
 _ZN4KWin15AnimationEffect11qt_metacastEPKc@ABI_1_3 4:4.8.1
 _ZN4KWin15AnimationEffect11setMetaDataENS0_8MetaTypeEjRj@ABI_1_3 4:4.8.1
 _ZN4KWin15AnimationEffect13_windowClosedEPNS_12EffectWindowE@ABI_1_3 4:4.8.1
 _ZN4KWin15AnimationEffect14_windowDeletedEPNS_12EffectWindowE@ABI_1_3 4:4.8.1
 _ZN4KWin15AnimationEffect14prePaintScreenERNS_18ScreenPrePaintDataEi@ABI_1_3 4:4.8.1
 _ZN4KWin15AnimationEffect14prePaintWindowEPNS_12EffectWindowERNS_18WindowPrePaintDataEi@ABI_1_3 4:4.8.1
 _ZN4KWin15AnimationEffect14triggerRepaintEv@ABI_1_3 4:4.8.1
 _ZN4KWin15AnimationEffect15postPaintScreenEv@ABI_1_3 4:4.8.1
 _ZN4KWin15AnimationEffect16staticMetaObjectE@ABI_1_3 4:4.8.1
 _ZN4KWin15AnimationEffect4initEv@ABI_1_3 4:4.8.1
 _ZN4KWin15AnimationEffect7animateEPNS_12EffectWindowENS0_9AttributeEjiNS_4FPx2E12QEasingCurveiS4_@ABI_1_3 4:4.8.1
 _ZN4KWin15AnimationEffect8metaDataENS0_8MetaTypeEj@ABI_1_3 4:4.8.1
 _ZN4KWin15AnimationEffectC1Ev@ABI_1_3 4:4.8.1
 _ZN4KWin15AnimationEffectC2Ev@ABI_1_3 4:4.8.1
 _ZN4KWin15AnimationEffectD0Ev@ABI_1_3 4:4.8.1
 _ZN4KWin15AnimationEffectD1Ev@ABI_1_3 4:4.8.1
 _ZN4KWin15AnimationEffectD2Ev@ABI_1_3 4:4.8.1
 _ZN4KWin15ScreenPaintDataC1Ev@ABI_1_3 4:4.8.1
 _ZN4KWin15ScreenPaintDataC2Ev@ABI_1_3 4:4.8.1
 _ZN4KWin15WindowPaintDataC1EPNS_12EffectWindowE@ABI_1_3 4:4.8.1
 _ZN4KWin15WindowPaintDataC2EPNS_12EffectWindowE@ABI_1_3 4:4.8.1
 _ZN4KWin15toXserverRegionE7QRegion@ABI_1_3 4:4.8.1
 _ZN4KWin15xRenderRoundBoxEmRK5QRectiRK6QColor@ABI_1_3 4:4.8.1
 _ZN4KWin16xRenderOffscreenEv@ABI_1_3 4:4.8.2
 _ZN4KWin16xRenderPopTargetEv@ABI_1_3 4:4.8.2
 _ZN4KWin17EffectWindowGroupD0Ev@ABI_1_3 4:4.8.1
 _ZN4KWin17EffectWindowGroupD1Ev@ABI_1_3 4:4.8.1
 _ZN4KWin17EffectWindowGroupD2Ev@ABI_1_3 4:4.8.1
 _ZN4KWin17xRenderPushTargetEPNS_14XRenderPictureE@ABI_1_3 4:4.8.2
 _ZN4KWin18WindowPrePaintData14setTransformedEv@ABI_1_3 4:4.8.1
 _ZN4KWin18WindowPrePaintData14setTranslucentEv@ABI_1_3 4:4.8.1
 _ZN4KWin19WindowMotionManager10moveWindowEPNS_12EffectWindowE6QPointdd@ABI_1_3 4:4.8.1
 _ZN4KWin19WindowMotionManager11unmanageAllEv@ABI_1_3 4:4.8.1
 _ZN4KWin19WindowMotionManager22setTransformedGeometryEPNS_12EffectWindowERK6QRectF@ABI_1_3 4:4.8.1
 _ZN4KWin19WindowMotionManager5applyEPNS_12EffectWindowERNS_15WindowPaintDataE@ABI_1_3 4:4.8.1
 _ZN4KWin19WindowMotionManager5resetEPNS_12EffectWindowE@ABI_1_3 4:4.8.1
 _ZN4KWin19WindowMotionManager5resetEv@ABI_1_3 4:4.8.1
 _ZN4KWin19WindowMotionManager6manageEPNS_12EffectWindowE@ABI_1_3 4:4.8.1
 _ZN4KWin19WindowMotionManager8unmanageEPNS_12EffectWindowE@ABI_1_3 4:4.8.1
 _ZN4KWin19WindowMotionManager9calculateEi@ABI_1_3 4:4.8.1
 _ZN4KWin19WindowMotionManagerC1Eb@ABI_1_3 4:4.8.1
 _ZN4KWin19WindowMotionManagerC2Eb@ABI_1_3 4:4.8.1
 _ZN4KWin19WindowMotionManagerD1Ev@ABI_1_3 4:4.8.1
 _ZN4KWin19WindowMotionManagerD2Ev@ABI_1_3 4:4.8.1
 _ZN4KWin19setXRenderOffscreenEb@ABI_1_3 4:4.8.2
 _ZN4KWin19xRenderBlendPictureEd@ABI_1_3 4:4.8.1
 _ZN4KWin21GlobalShortcutsEditorC1EP7QWidget@ABI_1_3 4:4.8.1
 _ZN4KWin21GlobalShortcutsEditorC2EP7QWidget@ABI_1_3 4:4.8.1
 _ZN4KWin21GlobalShortcutsEditorD0Ev@ABI_1_3 4:4.8.1
 _ZN4KWin21GlobalShortcutsEditorD1Ev@ABI_1_3 4:4.8.1
 _ZN4KWin21GlobalShortcutsEditorD2Ev@ABI_1_3 4:4.8.1
 _ZN4KWin22xRenderOffscreenTargetEv@ABI_1_3 4:4.8.2
 _ZN4KWin28scene_xRenderOffscreenTargetEv@ABI_1_3 4:4.8.2
 _ZN4KWin31scene_setXRenderOffscreenTargetEP7QPixmap@ABI_1_3 4:4.8.2
 _ZN4KWin6Effect10buildQuadsEPNS_12EffectWindowERNS_14WindowQuadListE@ABI_1_3 4:4.8.1
 _ZN4KWin6Effect10drawWindowEPNS_12EffectWindowEi7QRegionRNS_15WindowPaintDataE@ABI_1_3 4:4.8.1
 _ZN4KWin6Effect11paintScreenEi7QRegionRNS_15ScreenPaintDataE@ABI_1_3 4:4.8.1
 _ZN4KWin6Effect11paintWindowEPNS_12EffectWindowEi7QRegionRNS_15WindowPaintDataE@ABI_1_3 4:4.8.1
 _ZN4KWin6Effect11qt_metacallEN11QMetaObject4CallEiPPv@ABI_1_3 4:4.8.1
 _ZN4KWin6Effect11qt_metacastEPKc@ABI_1_3 4:4.8.1
 _ZN4KWin6Effect11reconfigureE6QFlagsINS0_15ReconfigureFlagEE@ABI_1_3 4:4.8.1
 _ZN4KWin6Effect12displayWidthEv@ABI_1_3 4:4.8.1
 _ZN4KWin6Effect13animationTimeERK12KConfigGroupRK7QStringi@ABI_1_3 4:4.8.1
 _ZN4KWin6Effect13animationTimeEi@ABI_1_3 4:4.8.1
 _ZN4KWin6Effect13displayHeightEv@ABI_1_3 4:4.8.1
 _ZN4KWin6Effect14prePaintScreenERNS_18ScreenPrePaintDataEi@ABI_1_3 4:4.8.1
 _ZN4KWin6Effect14prePaintWindowEPNS_12EffectWindowERNS_18WindowPrePaintDataEi@ABI_1_3 4:4.8.1
 _ZN4KWin6Effect15borderActivatedENS_14ElectricBorderE@ABI_1_3 4:4.8.1
 _ZN4KWin6Effect15postPaintScreenEv@ABI_1_3 4:4.8.1
 _ZN4KWin6Effect15postPaintWindowEPNS_12EffectWindowE@ABI_1_3 4:4.8.1
 _ZN4KWin6Effect16paintEffectFrameEPNS_11EffectFrameE7QRegiondd@ABI_1_3 4:4.8.1
 _ZN4KWin6Effect16staticMetaObjectE@ABI_1_3 4:4.8.1
 _ZN4KWin6Effect20grabbedKeyboardEventEP9QKeyEvent@ABI_1_3 4:4.8.1
 _ZN4KWin6Effect21windowInputMouseEventEmP6QEvent@ABI_1_3 4:4.8.1
 _ZN4KWin6Effect26setPositionTransformationsERNS_15WindowPaintDataER5QRectPNS_12EffectWindowERKS3_N2Qt15AspectRatioModeE@ABI_1_3 4:4.8.1
 _ZN4KWin6Effect5proxyEv@ABI_1_3 4:4.8.1
 _ZN4KWin6Effect8providesENS0_7FeatureE@ABI_1_3 4:4.8.1
 _ZN4KWin6Effect9cursorPosEv@ABI_1_3 4:4.8.1
 _ZN4KWin6EffectC1Ev@ABI_1_3 4:4.8.1
 _ZN4KWin6EffectC2Ev@ABI_1_3 4:4.8.1
 _ZN4KWin6EffectD0Ev@ABI_1_3 4:4.8.1
 _ZN4KWin6EffectD1Ev@ABI_1_3 4:4.8.1
 _ZN4KWin6EffectD2Ev@ABI_1_3 4:4.8.1
 (optional=templinst|arch=mips mipsel)_ZN4KWin6MotionI7QPointFE6finishEv@ABI_1_3 4:4.8.4
 (optional=templinst)_ZN4KWin6MotionI7QPointFE9calculateEi@ABI_1_3 4:4.8.3
 (optional=templinst|arch=armhf ia64 mips mipsel powerpc s390)_ZN4KWin6MotionI7QPointFEC1ERKS2_@ABI_1_3 4:4.8.3
 (optional=templinst|arch=armhf ia64 mips mipsel powerpc s390)_ZN4KWin6MotionI7QPointFEC2ERKS2_@ABI_1_3 4:4.8.3
 _ZN4KWin7effectsE@ABI_1_3 4:4.8.1
 _ZN4KWin8Motion1DC1ERKS0_@ABI_1_3 4:4.8.1
 _ZN4KWin8Motion1DC1Eddd@ABI_1_3 4:4.8.1
 _ZN4KWin8Motion1DC2ERKS0_@ABI_1_3 4:4.8.1
 _ZN4KWin8Motion1DC2Eddd@ABI_1_3 4:4.8.1
 _ZN4KWin8Motion1DD1Ev@ABI_1_3 4:4.8.1
 _ZN4KWin8Motion1DD2Ev@ABI_1_3 4:4.8.1
 _ZN4KWin8Motion2DC1E7QPointFdd@ABI_1_3 4:4.8.1
 _ZN4KWin8Motion2DC1ERKS0_@ABI_1_3 4:4.8.1
 _ZN4KWin8Motion2DC2E7QPointFdd@ABI_1_3 4:4.8.1
 _ZN4KWin8Motion2DC2ERKS0_@ABI_1_3 4:4.8.1
 _ZN4KWin8Motion2DD1Ev@ABI_1_3 4:4.8.1
 _ZN4KWin8Motion2DD2Ev@ABI_1_3 4:4.8.1
 _ZNK4KWin10WindowQuad11makeSubQuadEdddd@ABI_1_3 4:4.8.1
 _ZNK4KWin10WindowQuad12smoothNeededEv@ABI_1_3 4:4.8.1
 _ZNK4KWin11EffectFrame11isCrossFadeEv@ABI_1_3 4:4.8.1
 _ZNK4KWin11EffectFrame17crossFadeProgressEv@ABI_1_3 4:4.8.1
 _ZNK4KWin12EffectWindow11isOnDesktopEi@ABI_1_3 4:4.8.1
 _ZNK4KWin12EffectWindow13hasDecorationEv@ABI_1_3 4:4.8.1
 _ZNK4KWin12EffectWindow18isOnCurrentDesktopEv@ABI_1_3 4:4.8.1
 _ZNK4KWin12EffectWindow19isOnCurrentActivityEv@ABI_1_3 4:4.8.1
 _ZNK4KWin12PaintClipper8Iterator12boundingRectEv@ABI_1_3 4:4.8.1
 _ZNK4KWin14EffectsHandler10metaObjectEv@ABI_1_3 4:4.8.1
 _ZNK4KWin14EffectsHandler15compositingTypeEv@ABI_1_3 4:4.8.1
 _ZNK4KWin14WindowQuadList10makeArraysEPPfS2_RK6QSizeFb@ABI_1_3 4:4.8.1
 _ZNK4KWin14WindowQuadList12smoothNeededEv@ABI_1_3 4:4.8.1
 _ZNK4KWin14WindowQuadList13isTransformedEv@ABI_1_3 4:4.8.1
 _ZNK4KWin14WindowQuadList15makeRegularGridEii@ABI_1_3 4:4.8.1
 _ZNK4KWin14WindowQuadList6selectENS_14WindowQuadTypeE@ABI_1_3 4:4.8.1
 _ZNK4KWin14WindowQuadList8makeGridEi@ABI_1_3 4:4.8.1
 _ZNK4KWin14WindowQuadList8splitAtXEd@ABI_1_3 4:4.8.1
 _ZNK4KWin14WindowQuadList8splitAtYEd@ABI_1_3 4:4.8.1
 _ZNK4KWin14WindowQuadList9filterOutENS_14WindowQuadTypeE@ABI_1_3 4:4.8.1
 _ZNK4KWin15AnimationEffect10metaObjectEv@ABI_1_3 4:4.8.1
 _ZNK4KWin15AnimationEffect12interpolatedERKNS_7AniDataEi@ABI_1_3 4:4.8.1
 _ZNK4KWin15AnimationEffect8isActiveEv@ABI_1_3 4:4.8.1
 _ZNK4KWin15AnimationEffect8progressERKNS_7AniDataE@ABI_1_3 4:4.8.1
 _ZNK4KWin19WindowMotionManager13windowAtPointE6QPointb@ABI_1_3 4:4.8.1
 _ZNK4KWin19WindowMotionManager14targetGeometryEPNS_12EffectWindowE@ABI_1_3 4:4.8.1
 _ZNK4KWin19WindowMotionManager19transformedGeometryEPNS_12EffectWindowE@ABI_1_3 4:4.8.1
 _ZNK4KWin6Effect10metaObjectEv@ABI_1_3 4:4.8.1
 _ZNK4KWin6Effect8isActiveEv@ABI_1_3 4:4.8.1
 _ZTIN4KWin11EffectFrameE@ABI_1_3 4:4.8.1
 _ZTIN4KWin12EffectWindowE@ABI_1_3 4:4.8.1
 _ZTIN4KWin14EffectsHandlerE@ABI_1_3 4:4.8.1
 _ZTIN4KWin15AnimationEffectE@ABI_1_3 4:4.8.1
 _ZTIN4KWin17EffectWindowGroupE@ABI_1_3 4:4.8.1
 _ZTIN4KWin21GlobalShortcutsEditorE@ABI_1_3 4:4.8.1
 _ZTIN4KWin6EffectE@ABI_1_3 4:4.8.1
 _ZTSN4KWin11EffectFrameE@ABI_1_3 4:4.8.1
 _ZTSN4KWin12EffectWindowE@ABI_1_3 4:4.8.1
 _ZTSN4KWin14EffectsHandlerE@ABI_1_3 4:4.8.1
 _ZTSN4KWin15AnimationEffectE@ABI_1_3 4:4.8.1
 _ZTSN4KWin17EffectWindowGroupE@ABI_1_3 4:4.8.1
 _ZTSN4KWin21GlobalShortcutsEditorE@ABI_1_3 4:4.8.1
 _ZTSN4KWin6EffectE@ABI_1_3 4:4.8.1
 _ZTVN4KWin11EffectFrameE@ABI_1_3 4:4.8.1
 _ZTVN4KWin12EffectWindowE@ABI_1_3 4:4.8.1
 _ZTVN4KWin14EffectsHandlerE@ABI_1_3 4:4.8.1
 _ZTVN4KWin15AnimationEffectE@ABI_1_3 4:4.8.1
 _ZTVN4KWin17EffectWindowGroupE@ABI_1_3 4:4.8.1
 _ZTVN4KWin21GlobalShortcutsEditorE@ABI_1_3 4:4.8.1
 _ZTVN4KWin6EffectE@ABI_1_3 4:4.8.1
 dlrestrictions_data@ABI_1_3 4:4.8.1
 (c++)"non-virtual thunk to KWin::GlobalShortcutsEditor::~GlobalShortcutsEditor()@ABI_1_3" 4:4.8.1
