# SymbolsHelper-Confirmed: 4:4.6.5 amd64
libksgrd.so.4 libksgrd4 #MINVER#
* Build-Depends-Package: kdebase-workspace-dev
 ABI_4_0@ABI_4_0 4:4.6.1
 _ZN5KSGRD11SensorAgent11qt_metacallEN11QMetaObject4CallEiPPv@ABI_4_0 4:4.6.1
 _ZN5KSGRD11SensorAgent11qt_metacastEPKc@ABI_4_0 4:4.6.1
 _ZN5KSGRD11SensorAgent11reconfigureEPKS0_@ABI_4_0 4:4.6.1
 _ZN5KSGRD11SensorAgent11sendRequestERK7QStringPNS_12SensorClientEi@ABI_4_0 4:4.6.1
 _ZN5KSGRD11SensorAgent11setHostNameERK7QString@ABI_4_0 4:4.6.1
 _ZN5KSGRD11SensorAgent13processAnswerEPKci@ABI_4_0 4:4.6.1
 _ZN5KSGRD11SensorAgent13sensorManagerEv@ABI_4_0 4:4.6.1
 _ZN5KSGRD11SensorAgent14executeCommandEv@ABI_4_0 4:4.6.1
 _ZN5KSGRD11SensorAgent15setDaemonOnLineEb@ABI_4_0 4:4.6.1
 _ZN5KSGRD11SensorAgent16disconnectClientEPNS_12SensorClientE@ABI_4_0 4:4.6.1
 _ZN5KSGRD11SensorAgent16staticMetaObjectE@ABI_4_0 4:4.6.1
 _ZN5KSGRD11SensorAgent19setReasonForOfflineERK7QString@ABI_4_0 4:4.6.1
 _ZN5KSGRD11SensorAgentC1EPNS_13SensorManagerE@ABI_4_0 4:4.6.1
 _ZN5KSGRD11SensorAgentC2EPNS_13SensorManagerE@ABI_4_0 4:4.6.1
 _ZN5KSGRD11SensorAgentD0Ev@ABI_4_0 4:4.6.1
 _ZN5KSGRD11SensorAgentD1Ev@ABI_4_0 4:4.6.1
 _ZN5KSGRD11SensorAgentD2Ev@ABI_4_0 4:4.6.1
 _ZN5KSGRD13SensorManager11isConnectedERK7QString@ABI_4_0 4:4.6.1
 _ZN5KSGRD13SensorManager11qt_metacallEN11QMetaObject4CallEiPPv@ABI_4_0 4:4.6.1
 _ZN5KSGRD13SensorManager11qt_metacastEPKc@ABI_4_0 4:4.6.1
 _ZN5KSGRD13SensorManager11reconfigureEPKNS_11SensorAgentE@ABI_4_0 4:4.6.1
 _ZN5KSGRD13SensorManager11retranslateEv@ABI_4_0 4:4.6.1
 _ZN5KSGRD13SensorManager11sendRequestERK7QStringS3_PNS_12SensorClientEi@ABI_4_0 4:4.6.1
 _ZN5KSGRD13SensorManager12MessageEventC1ERK7QString@ABI_4_0 4:4.6.1
 _ZN5KSGRD13SensorManager12MessageEventC2ERK7QString@ABI_4_0 4:4.6.1
 _ZN5KSGRD13SensorManager12MessageEventD0Ev@ABI_4_0 4:4.6.5
 _ZN5KSGRD13SensorManager12MessageEventD1Ev@ABI_4_0 4:4.6.5
 _ZN5KSGRD13SensorManager12MessageEventD2Ev@ABI_4_0 4:4.6.5
 _ZN5KSGRD13SensorManager13resynchronizeERK7QString@ABI_4_0 4:4.6.1
 _ZN5KSGRD13SensorManager14readPropertiesERK12KConfigGroup@ABI_4_0 4:4.6.1
 _ZN5KSGRD13SensorManager14savePropertiesER12KConfigGroup@ABI_4_0 4:4.6.1
 _ZN5KSGRD13SensorManager14setBroadcasterEP7QWidget@ABI_4_0 4:4.6.1
 _ZN5KSGRD13SensorManager16disconnectClientEPNS_12SensorClientE@ABI_4_0 4:4.6.1
 _ZN5KSGRD13SensorManager16staticMetaObjectE@ABI_4_0 4:4.6.1
 _ZN5KSGRD13SensorManager18hostConnectionLostERK7QString@ABI_4_0 4:4.6.1
 _ZN5KSGRD13SensorManager6engageERK7QStringS3_S3_i@ABI_4_0 4:4.6.1
 _ZN5KSGRD13SensorManager6updateEv@ABI_4_0 4:4.6.1
 _ZN5KSGRD13SensorManager8hostInfoERK7QStringRS1_S4_Ri@ABI_4_0 4:4.6.1
 _ZN5KSGRD13SensorManager9disengageEPNS_11SensorAgentE@ABI_4_0 4:4.6.1
 _ZN5KSGRD13SensorManager9disengageERK7QString@ABI_4_0 4:4.6.1
 _ZN5KSGRD13SensorManager9hostAddedEPNS_11SensorAgentERK7QString@ABI_4_0 4:4.6.1
 _ZN5KSGRD13SensorManagerC1EP7QObject@ABI_4_0 4:4.6.1
 _ZN5KSGRD13SensorManagerC2EP7QObject@ABI_4_0 4:4.6.1
 _ZN5KSGRD13SensorManagerD0Ev@ABI_4_0 4:4.6.1
 _ZN5KSGRD13SensorManagerD1Ev@ABI_4_0 4:4.6.1
 _ZN5KSGRD13SensorManagerD2Ev@ABI_4_0 4:4.6.1
 _ZN5KSGRD9SensorMgrE@ABI_4_0 4:4.6.1
 _ZNK5KSGRD11SensorAgent10metaObjectEv@ABI_4_0 4:4.6.1
 _ZNK5KSGRD11SensorAgent12daemonOnLineEv@ABI_4_0 4:4.6.1
 _ZNK5KSGRD11SensorAgent16reasonForOfflineEv@ABI_4_0 4:4.6.1
 _ZNK5KSGRD11SensorAgent8hostNameEv@ABI_4_0 4:4.6.1
 _ZNK5KSGRD13SensorManager10metaObjectEv@ABI_4_0 4:4.6.1
 _ZNK5KSGRD13SensorManager12MessageEvent7messageEv@ABI_4_0 4:4.6.1
 _ZNK5KSGRD13SensorManager13translateUnitERK7QString@ABI_4_0 4:4.6.1
 _ZNK5KSGRD13SensorManager15translateSensorERK7QString@ABI_4_0 4:4.6.1
 _ZNK5KSGRD13SensorManager19translateSensorPathERK7QString@ABI_4_0 4:4.6.1
 _ZNK5KSGRD13SensorManager19translateSensorTypeERK7QString@ABI_4_0 4:4.6.1
 _ZNK5KSGRD13SensorManager5countEv@ABI_4_0 4:4.6.1
 _ZNK5KSGRD13SensorManager6notifyERK7QString@ABI_4_0 4:4.6.1
 _ZNK5KSGRD13SensorManager8hostNameEPKNS_11SensorAgentE@ABI_4_0 4:4.6.1
 _ZTIN5KSGRD11SensorAgentE@ABI_4_0 4:4.6.1
 _ZTIN5KSGRD13SensorManager12MessageEventE@ABI_4_0 4:4.6.1
 _ZTIN5KSGRD13SensorManagerE@ABI_4_0 4:4.6.1
 _ZTSN5KSGRD11SensorAgentE@ABI_4_0 4:4.6.1
 _ZTSN5KSGRD13SensorManager12MessageEventE@ABI_4_0 4:4.6.1
 _ZTSN5KSGRD13SensorManagerE@ABI_4_0 4:4.6.1
 _ZTVN5KSGRD11SensorAgentE@ABI_4_0 4:4.6.1
 _ZTVN5KSGRD13SensorManager12MessageEventE@ABI_4_0 4:4.6.1
 _ZTVN5KSGRD13SensorManagerE@ABI_4_0 4:4.6.1
 dlrestrictions_data@ABI_4_0 4:4.6.3
