# SymbolsHelper-Confirmed: 4:4.8.4 armel armhf
libkworkspace.so.4abi1 libkworkspace4abi1 #MINVER#
 ABI_4_1@ABI_4_1 4:4.8.1
 _ZN10KWorkSpace10trimMallocEv@ABI_4_1 4:4.8.1
 _ZN10KWorkSpace11canShutDownENS_15ShutdownConfirmENS_12ShutdownTypeENS_12ShutdownModeE@ABI_4_1 4:4.8.1
 _ZN10KWorkSpace15requestShutDownENS_15ShutdownConfirmENS_12ShutdownTypeENS_12ShutdownModeE@ABI_4_1 4:4.8.1
 _ZN10KWorkSpace23propagateSessionManagerEv@ABI_4_1 4:4.8.1
 _ZN15KDisplayManager10numReserveEv@ABI_4_1 4:4.8.1
 _ZN15KDisplayManager11bootOptionsER11QStringListRiS2_@ABI_4_1 4:4.8.1
 _ZN15KDisplayManager11canShutdownEv@ABI_4_1 4:4.8.1
 _ZN15KDisplayManager12isSwitchableEv@ABI_4_1 4:4.8.1
 _ZN15KDisplayManager12lockSwitchVTEi@ABI_4_1 4:4.8.1
 _ZN15KDisplayManager12startReserveEv@ABI_4_1 4:4.8.1
 _ZN15KDisplayManager13localSessionsER5QListI7SessEntE@ABI_4_1 4:4.8.1
 _ZN15KDisplayManager15GDMAuthenticateEv@ABI_4_1 4:4.8.1
 _ZN15KDisplayManager4execEPKc@ABI_4_1 4:4.8.1
 _ZN15KDisplayManager4execEPKcR10QByteArray@ABI_4_1 4:4.8.1
 _ZN15KDisplayManager7setLockEb@ABI_4_1 4:4.8.1
 _ZN15KDisplayManager8sess2StrERK7SessEnt@ABI_4_1 4:4.8.1
 _ZN15KDisplayManager8shutdownEN10KWorkSpace12ShutdownTypeENS0_12ShutdownModeERK7QString@ABI_4_1 4:4.8.1
 _ZN15KDisplayManager8switchVTEi@ABI_4_1 4:4.8.1
 _ZN15KDisplayManager9sess2Str2ERK7SessEntR7QStringS4_@ABI_4_1 4:4.8.1
 _ZN15KDisplayManagerC1Ev@ABI_4_1 4:4.8.1
 _ZN15KDisplayManagerC2Ev@ABI_4_1 4:4.8.1
 _ZN15KDisplayManagerD1Ev@ABI_4_1 4:4.8.1
 _ZN15KDisplayManagerD2Ev@ABI_4_1 4:4.8.1
 _ZN15KWindowListMenu11qt_metacallEN11QMetaObject4CallEiPPv@ABI_4_1 4:4.8.1
 _ZN15KWindowListMenu11qt_metacastEPKc@ABI_4_1 4:4.8.1
 _ZN15KWindowListMenu16staticMetaObjectE@ABI_4_1 4:4.8.1
 _ZN15KWindowListMenu18selectActiveWindowEv@ABI_4_1 4:4.8.1
 _ZN15KWindowListMenu18slotCascadeWindowsEv@ABI_4_1 4:4.8.1
 _ZN15KWindowListMenu20slotUnclutterWindowsEv@ABI_4_1 4:4.8.1
 _ZN15KWindowListMenu21slotForceActiveWindowEv@ABI_4_1 4:4.8.1
 _ZN15KWindowListMenu21slotSetCurrentDesktopEv@ABI_4_1 4:4.8.1
 _ZN15KWindowListMenu4initEv@ABI_4_1 4:4.8.1
 _ZN15KWindowListMenuC1EP7QWidget@ABI_4_1 4:4.8.1
 _ZN15KWindowListMenuC2EP7QWidget@ABI_4_1 4:4.8.1
 _ZN15KWindowListMenuD0Ev@ABI_4_1 4:4.8.1
 _ZN15KWindowListMenuD1Ev@ABI_4_1 4:4.8.1
 _ZN15KWindowListMenuD2Ev@ABI_4_1 4:4.8.1
 _ZN19ScreenPreviewWidget10paintEventEP11QPaintEvent@ABI_4_1 4:4.8.1
 _ZN19ScreenPreviewWidget10setPreviewEPN6Plasma9WallpaperE@ABI_4_1 4:4.8.1
 _ZN19ScreenPreviewWidget10setPreviewERK7QPixmap@ABI_4_1 4:4.8.1
 _ZN19ScreenPreviewWidget11qt_metacallEN11QMetaObject4CallEiPPv@ABI_4_1 4:4.8.1
 _ZN19ScreenPreviewWidget11qt_metacastEPKc@ABI_4_1 4:4.8.1
 _ZN19ScreenPreviewWidget11resizeEventEP12QResizeEvent@ABI_4_1 4:4.8.1
 _ZN19ScreenPreviewWidget12imageDroppedERK7QString@ABI_4_1 4:4.8.1
 _ZN19ScreenPreviewWidget16staticMetaObjectE@ABI_4_1 4:4.8.1
 (subst)_ZN19ScreenPreviewWidget8setRatioE{qreal}@ABI_4_1 4:4.8.1
 _ZN19ScreenPreviewWidget9dropEventEP10QDropEvent@ABI_4_1 4:4.8.1
 _ZN19ScreenPreviewWidgetC1EP7QWidget@ABI_4_1 4:4.8.1
 _ZN19ScreenPreviewWidgetC2EP7QWidget@ABI_4_1 4:4.8.1
 _ZN19ScreenPreviewWidgetD0Ev@ABI_4_1 4:4.8.1
 _ZN19ScreenPreviewWidgetD1Ev@ABI_4_1 4:4.8.1
 _ZN19ScreenPreviewWidgetD2Ev@ABI_4_1 4:4.8.1
 (arch=kfreebsd-amd64 kfreebsd-i386)_ZN7SessEntD1Ev@ABI_4_1 4:4.8.3
 (arch=kfreebsd-amd64 kfreebsd-i386)_ZN7SessEntD2Ev@ABI_4_1 4:4.8.3
 _ZNK15KWindowListMenu10metaObjectEv@ABI_4_1 4:4.8.1
 _ZNK19ScreenPreviewWidget10metaObjectEv@ABI_4_1 4:4.8.1
 _ZNK19ScreenPreviewWidget11previewRectEv@ABI_4_1 4:4.8.1
 _ZNK19ScreenPreviewWidget5ratioEv@ABI_4_1 4:4.8.1
 _ZNK19ScreenPreviewWidget7previewEv@ABI_4_1 4:4.8.1
 _ZTI15KWindowListMenu@ABI_4_1 4:4.8.1
 _ZTI19ScreenPreviewWidget@ABI_4_1 4:4.8.1
 _ZTS15KWindowListMenu@ABI_4_1 4:4.8.1
 _ZTS19ScreenPreviewWidget@ABI_4_1 4:4.8.1
 _ZTV15KWindowListMenu@ABI_4_1 4:4.8.1
 _ZTV19ScreenPreviewWidget@ABI_4_1 4:4.8.1
 dlrestrictions_data@ABI_4_1 4:4.8.1
 (c++)"non-virtual thunk to KWindowListMenu::~KWindowListMenu()@ABI_4_1" 4:4.8.1
 (c++)"non-virtual thunk to ScreenPreviewWidget::~ScreenPreviewWidget()@ABI_4_1" 4:4.8.1
