# SymbolsHelper-Confirmed: 4:4.8.2 amd64
libkwinglutils.so.1 libkwinglutils1 #MINVER#
 ABI_1_0@ABI_1_0 4:4.8.2
 _ZN4KWin10GLPlatform10s_platformE@ABI_1_0 4:4.8.2
 _ZN4KWin10GLPlatform6detectEv@ABI_1_0 4:4.8.2
 _ZN4KWin10GLPlatformC1Ev@ABI_1_0 4:4.8.2
 _ZN4KWin10GLPlatformC2Ev@ABI_1_0 4:4.8.2
 _ZN4KWin10GLPlatformD1Ev@ABI_1_0 4:4.8.2
 _ZN4KWin10GLPlatformD2Ev@ABI_1_0 4:4.8.2
 _ZN4KWin10loadMatrixERK10QMatrix4x4@ABI_1_0 4:4.8.2
 _ZN4KWin10pushMatrixERK10QMatrix4x4@ABI_1_0 4:4.8.2
 _ZN4KWin10pushMatrixEv@ABI_1_0 4:4.8.2
 _ZN4KWin11glUniform1fE@ABI_1_0 4:4.8.2
 _ZN4KWin11glUniform1iE@ABI_1_0 4:4.8.2
 _ZN4KWin11glUniform2fE@ABI_1_0 4:4.8.2
 _ZN4KWin11glUniform3fE@ABI_1_0 4:4.8.2
 _ZN4KWin11glUniform4fE@ABI_1_0 4:4.8.2
 _ZN4KWin12checkGLErrorEPKc@ABI_1_0 4:4.8.2
 _ZN4KWin12glBindBufferE@ABI_1_0 4:4.8.2
 _ZN4KWin12glBlendColorE@ABI_1_0 4:4.8.2
 _ZN4KWin12glBufferDataE@ABI_1_0 4:4.8.2
 _ZN4KWin12glGenBuffersE@ABI_1_0 4:4.8.2
 _ZN4KWin12glUniform1fvE@ABI_1_0 4:4.8.2
 _ZN4KWin12glUniform2fvE@ABI_1_0 4:4.8.2
 _ZN4KWin12glUniform3fvE@ABI_1_0 4:4.8.2
 _ZN4KWin12glUniform4fvE@ABI_1_0 4:4.8.2
 _ZN4KWin12glUseProgramE@ABI_1_0 4:4.8.2
 _ZN4KWin12hasGLVersionEiii@ABI_1_0 4:4.8.2
 _ZN4KWin13ShaderManager10pushShaderENS0_10ShaderTypeEb@ABI_1_0 4:4.8.2
 _ZN4KWin13ShaderManager10pushShaderEPNS_8GLShaderE@ABI_1_0 4:4.8.2
 _ZN4KWin13ShaderManager11initShadersEv@ABI_1_0 4:4.8.2
 _ZN4KWin13ShaderManager11resetShaderENS0_10ShaderTypeE@ABI_1_0 4:4.8.2
 _ZN4KWin13ShaderManager15s_shaderManagerE@ABI_1_0 4:4.8.2
 _ZN4KWin13ShaderManager16loadVertexShaderENS0_10ShaderTypeERK7QString@ABI_1_0 4:4.8.2
 _ZN4KWin13ShaderManager18loadFragmentShaderENS0_10ShaderTypeERK7QString@ABI_1_0 4:4.8.2
 _ZN4KWin13ShaderManager18loadShaderFromCodeERK10QByteArrayS3_@ABI_1_0 4:4.8.2
 _ZN4KWin13ShaderManager7cleanupEv@ABI_1_0 4:4.8.2
 _ZN4KWin13ShaderManager8instanceEv@ABI_1_0 4:4.8.2
 _ZN4KWin13ShaderManager9popShaderEv@ABI_1_0 4:4.8.2
 _ZN4KWin13ShaderManagerC1Ev@ABI_1_0 4:4.8.2
 _ZN4KWin13ShaderManagerC2Ev@ABI_1_0 4:4.8.2
 _ZN4KWin13ShaderManagerD1Ev@ABI_1_0 4:4.8.2
 _ZN4KWin13ShaderManagerD2Ev@ABI_1_0 4:4.8.2
 _ZN4KWin13glGetShaderivE@ABI_1_0 4:4.8.2
 _ZN4KWin13glLinkProgramE@ABI_1_0 4:4.8.2
 _ZN4KWin13hasEGLVersionEiii@ABI_1_0 4:4.8.2
 _ZN4KWin13hasGLXVersionEiii@ABI_1_0 4:4.8.2
 _ZN4KWin14GLRenderTarget10initStaticEv@ABI_1_0 4:4.8.2
 _ZN4KWin14GLRenderTarget10sSupportedE@ABI_1_0 4:4.8.2
 _ZN4KWin14GLRenderTarget13attachTextureERKNS_9GLTextureE@ABI_1_0 4:4.8.2
 _ZN4KWin14GLRenderTarget13blitSupportedEv@ABI_1_0 4:4.8.2
 _ZN4KWin14GLRenderTarget13s_oldViewportE@ABI_1_0 4:4.8.2
 _ZN4KWin14GLRenderTarget15popRenderTargetEv@ABI_1_0 4:4.8.2
 _ZN4KWin14GLRenderTarget15s_blitSupportedE@ABI_1_0 4:4.8.2
 _ZN4KWin14GLRenderTarget15s_renderTargetsE@ABI_1_0 4:4.8.2
 _ZN4KWin14GLRenderTarget16pushRenderTargetEPS0_@ABI_1_0 4:4.8.2
 _ZN4KWin14GLRenderTarget19blitFromFramebufferERK5QRectS3_j@ABI_1_0 4:4.8.2
 _ZN4KWin14GLRenderTarget19isRenderTargetBoundEv@ABI_1_0 4:4.8.2
 _ZN4KWin14GLRenderTarget6enableEv@ABI_1_0 4:4.8.2
 _ZN4KWin14GLRenderTarget7disableEv@ABI_1_0 4:4.8.2
 _ZN4KWin14GLRenderTarget7initFBOEv@ABI_1_0 4:4.8.2
 _ZN4KWin14GLRenderTargetC1ERKNS_9GLTextureE@ABI_1_0 4:4.8.2
 _ZN4KWin14GLRenderTargetC2ERKNS_9GLTextureE@ABI_1_0 4:4.8.2
 _ZN4KWin14GLRenderTargetD1Ev@ABI_1_0 4:4.8.2
 _ZN4KWin14GLRenderTargetD2Ev@ABI_1_0 4:4.8.2
 _ZN4KWin14GLVertexBuffer10initStaticEv@ABI_1_0 4:4.8.2
 _ZN4KWin14GLVertexBuffer11isSupportedEv@ABI_1_0 4:4.8.2
 _ZN4KWin14GLVertexBuffer11setUseColorEb@ABI_1_0 4:4.8.2
 _ZN4KWin14GLVertexBuffer15streamingBufferEv@ABI_1_0 4:4.8.2
 _ZN4KWin14GLVertexBuffer5resetEv@ABI_1_0 4:4.8.2
 _ZN4KWin14GLVertexBuffer6renderERK7QRegionj@ABI_1_0 4:4.8.2
 _ZN4KWin14GLVertexBuffer6renderEj@ABI_1_0 4:4.8.2
 _ZN4KWin14GLVertexBuffer7setDataEiiPKfS2_@ABI_1_0 4:4.8.2
 _ZN4KWin14GLVertexBuffer8setColorERK6QColorb@ABI_1_0 4:4.8.2
 _ZN4KWin14GLVertexBufferC1ENS0_9UsageHintE@ABI_1_0 4:4.8.2
 _ZN4KWin14GLVertexBufferC2ENS0_9UsageHintE@ABI_1_0 4:4.8.2
 _ZN4KWin14GLVertexBufferD1Ev@ABI_1_0 4:4.8.2
 _ZN4KWin14GLVertexBufferD2Ev@ABI_1_0 4:4.8.2
 _ZN4KWin14glAttachShaderE@ABI_1_0 4:4.8.2
 _ZN4KWin14glCreateShaderE@ABI_1_0 4:4.8.2
 _ZN4KWin14glDeleteShaderE@ABI_1_0 4:4.8.2
 _ZN4KWin14glGetProgramivE@ABI_1_0 4:4.8.2
 _ZN4KWin14glGetUniformfvE@ABI_1_0 4:4.8.2
 _ZN4KWin14glShaderSourceE@ABI_1_0 4:4.8.2
 _ZN4KWin14hasGLExtensionERK7QString@ABI_1_0 4:4.8.2
 _ZN4KWin14multiplyMatrixERK10QMatrix4x4@ABI_1_0 4:4.8.2
 _ZN4KWin15glActiveTextureE@ABI_1_0 4:4.8.2
 _ZN4KWin15glCompileShaderE@ABI_1_0 4:4.8.2
 _ZN4KWin15glCreateProgramE@ABI_1_0 4:4.8.2
 _ZN4KWin15glDeleteBuffersE@ABI_1_0 4:4.8.2
 _ZN4KWin15glDeleteProgramE@ABI_1_0 4:4.8.2
 _ZN4KWin15glIsFramebufferE@ABI_1_0 4:4.8.2
 _ZN4KWin15glXCreatePixmapE@ABI_1_0 4:4.8.2
 _ZN4KWin15glXCreateWindowE@ABI_1_0 4:4.8.2
 _ZN4KWin15glXGetFBConfigsE@ABI_1_0 4:4.8.2
 _ZN4KWin15glXGetVideoSyncE@ABI_1_0 4:4.8.2
 _ZN4KWin16GLTexturePrivate10initStaticEv@ABI_1_0 4:4.8.2
 _ZN4KWin16GLTexturePrivate12enableFilterEv@ABI_1_0 4:4.8.2
 _ZN4KWin16GLTexturePrivate20sSaturationSupportedE@ABI_1_0 4:4.8.2
 _ZN4KWin16GLTexturePrivate21sNPOTTextureSupportedE@ABI_1_0 4:4.8.2
 _ZN4KWin16GLTexturePrivate27sFramebufferObjectSupportedE@ABI_1_0 4:4.8.2
 _ZN4KWin16GLTexturePrivate4bindEv@ABI_1_0 4:4.8.2
 _ZN4KWin16GLTexturePrivate6unbindEv@ABI_1_0 4:4.8.2
 _ZN4KWin16GLTexturePrivate7releaseEv@ABI_1_0 4:4.8.2
 _ZN4KWin16GLTexturePrivateC1Ev@ABI_1_0 4:4.8.2
 _ZN4KWin16GLTexturePrivateC2Ev@ABI_1_0 4:4.8.2
 _ZN4KWin16GLTexturePrivateD0Ev@ABI_1_0 4:4.8.2
 _ZN4KWin16GLTexturePrivateD1Ev@ABI_1_0 4:4.8.2
 _ZN4KWin16GLTexturePrivateD2Ev@ABI_1_0 4:4.8.2
 _ZN4KWin16glBindProgramARBE@ABI_1_0 4:4.8.2
 _ZN4KWin16glGenProgramsARBE@ABI_1_0 4:4.8.2
 _ZN4KWin16glGenerateMipmapE@ABI_1_0 4:4.8.2
 _ZN4KWin16glIsRenderbufferE@ABI_1_0 4:4.8.2
 _ZN4KWin16glVertexAttrib1fE@ABI_1_0 4:4.8.2
 _ZN4KWin16glXCopySubBufferE@ABI_1_0 4:4.8.2
 _ZN4KWin16glXDestroyPixmapE@ABI_1_0 4:4.8.2
 _ZN4KWin16glXDestroyWindowE@ABI_1_0 4:4.8.2
 _ZN4KWin16glXQueryDrawableE@ABI_1_0 4:4.8.2
 _ZN4KWin16glXWaitVideoSyncE@ABI_1_0 4:4.8.2
 _ZN4KWin17glBindFramebufferE@ABI_1_0 4:4.8.2
 _ZN4KWin17glBlitFramebufferE@ABI_1_0 4:4.8.2
 _ZN4KWin17glGenFramebuffersE@ABI_1_0 4:4.8.2
 _ZN4KWin17glGetProgramivARBE@ABI_1_0 4:4.8.2
 _ZN4KWin17glValidateProgramE@ABI_1_0 4:4.8.2
 _ZN4KWin17glXGetProcAddressE@ABI_1_0 4:4.8.2
 _ZN4KWin17nearestPowerOfTwoEi@ABI_1_0 4:4.8.2
 _ZN4KWin18glBindRenderbufferE@ABI_1_0 4:4.8.2
 _ZN4KWin18glGenRenderbuffersE@ABI_1_0 4:4.8.2
 _ZN4KWin18glGetShaderInfoLogE@ABI_1_0 4:4.8.2
 _ZN4KWin18glProgramStringARBE@ABI_1_0 4:4.8.2
 _ZN4KWin18glResolveFunctionsEv@ABI_1_0 4:4.8.2
 _ZN4KWin18glUniformMatrix4fvE@ABI_1_0 4:4.8.2
 _ZN4KWin18glXBindTexImageEXTE@ABI_1_0 4:4.8.2
 _ZN4KWin19glDeleteProgramsARBE@ABI_1_0 4:4.8.2
 _ZN4KWin19glGetAttribLocationE@ABI_1_0 4:4.8.2
 _ZN4KWin19glGetProgramInfoLogE@ABI_1_0 4:4.8.2
 _ZN4KWin19glTextureUnitsCountE@ABI_1_0 4:4.8.2
 _ZN4KWin19glxResolveFunctionsEv@ABI_1_0 4:4.8.2
 _ZN4KWin20glBindAttribLocationE@ABI_1_0 4:4.8.2
 _ZN4KWin20glDeleteFramebuffersE@ABI_1_0 4:4.8.2
 _ZN4KWin20glGetUniformLocationE@ABI_1_0 4:4.8.2
 _ZN4KWin20glXGetFBConfigAttribE@ABI_1_0 4:4.8.2
 _ZN4KWin21glDeleteRenderbuffersE@ABI_1_0 4:4.8.2
 _ZN4KWin21glRenderbufferStorageE@ABI_1_0 4:4.8.2
 _ZN4KWin21glVertexAttribPointerE@ABI_1_0 4:4.8.2
 _ZN4KWin21glXReleaseTexImageEXTE@ABI_1_0 4:4.8.2
 _ZN4KWin22glFramebufferTexture1DE@ABI_1_0 4:4.8.2
 _ZN4KWin22glFramebufferTexture2DE@ABI_1_0 4:4.8.2
 _ZN4KWin22glFramebufferTexture3DE@ABI_1_0 4:4.8.2
 _ZN4KWin24glCheckFramebufferStatusE@ABI_1_0 4:4.8.2
 _ZN4KWin24glXGetVisualFromFBConfigE@ABI_1_0 4:4.8.2
 _ZN4KWin25glEnableVertexAttribArrayE@ABI_1_0 4:4.8.2
 _ZN4KWin25glFramebufferRenderbufferE@ABI_1_0 4:4.8.2
 _ZN4KWin26glDisableVertexAttribArrayE@ABI_1_0 4:4.8.2
 _ZN4KWin28glGetRenderbufferParameterivE@ABI_1_0 4:4.8.2
 _ZN4KWin28glProgramLocalParameter4fARBE@ABI_1_0 4:4.8.2
 _ZN4KWin37glGetFramebufferAttachmentParameterivE@ABI_1_0 4:4.8.2
 _ZN4KWin6initGLEv@ABI_1_0 4:4.8.2
 _ZN4KWin7initEGLEv@ABI_1_0 4:4.8.2
 _ZN4KWin7initGLXEv@ABI_1_0 4:4.8.2
 _ZN4KWin8GLShader10setUniformENS0_10IntUniformEi@ABI_1_0 4:4.8.2
 _ZN4KWin8GLShader10setUniformENS0_11Vec2UniformERK9QVector2D@ABI_1_0 4:4.8.2
 _ZN4KWin8GLShader10setUniformENS0_11Vec4UniformERK9QVector4D@ABI_1_0 4:4.8.2
 _ZN4KWin8GLShader10setUniformENS0_12FloatUniformEf@ABI_1_0 4:4.8.2
 _ZN4KWin8GLShader10setUniformENS0_13MatrixUniformERK10QMatrix4x4@ABI_1_0 4:4.8.2
 _ZN4KWin8GLShader10setUniformEPKcRK10QMatrix4x4@ABI_1_0 4:4.8.2
 _ZN4KWin8GLShader10setUniformEPKcRK6QColor@ABI_1_0 4:4.8.2
 _ZN4KWin8GLShader10setUniformEPKcRK9QVector2D@ABI_1_0 4:4.8.2
 _ZN4KWin8GLShader10setUniformEPKcRK9QVector3D@ABI_1_0 4:4.8.2
 _ZN4KWin8GLShader10setUniformEPKcRK9QVector4D@ABI_1_0 4:4.8.2
 _ZN4KWin8GLShader10setUniformEPKcf@ABI_1_0 4:4.8.2
 _ZN4KWin8GLShader10setUniformEPKci@ABI_1_0 4:4.8.2
 _ZN4KWin8GLShader10setUniformEiRK10QMatrix4x4@ABI_1_0 4:4.8.2
 _ZN4KWin8GLShader10setUniformEiRK6QColor@ABI_1_0 4:4.8.2
 _ZN4KWin8GLShader10setUniformEiRK9QVector2D@ABI_1_0 4:4.8.2
 _ZN4KWin8GLShader10setUniformEiRK9QVector3D@ABI_1_0 4:4.8.2
 _ZN4KWin8GLShader10setUniformEiRK9QVector4D@ABI_1_0 4:4.8.2
 _ZN4KWin8GLShader10setUniformEif@ABI_1_0 4:4.8.2
 _ZN4KWin8GLShader10setUniformEii@ABI_1_0 4:4.8.2
 _ZN4KWin8GLShader12setAttributeEPKcf@ABI_1_0 4:4.8.2
 _ZN4KWin8GLShader13loadFromFilesERK7QStringS3_@ABI_1_0 4:4.8.2
 _ZN4KWin8GLShader15uniformLocationEPKc@ABI_1_0 4:4.8.2
 _ZN4KWin8GLShader16resolveLocationsEv@ABI_1_0 4:4.8.2
 _ZN4KWin8GLShader17attributeLocationEPKc@ABI_1_0 4:4.8.2
 _ZN4KWin8GLShader19getUniformMatrix4x4EPKc@ABI_1_0 4:4.8.2
 _ZN4KWin8GLShader4bindEv@ABI_1_0 4:4.8.2
 _ZN4KWin8GLShader4loadERK10QByteArrayS3_@ABI_1_0 4:4.8.2
 _ZN4KWin8GLShader6unbindEv@ABI_1_0 4:4.8.2
 _ZN4KWin8GLShaderC1ERK7QStringS3_@ABI_1_0 4:4.8.2
 _ZN4KWin8GLShaderC1Ev@ABI_1_0 4:4.8.2
 _ZN4KWin8GLShaderC2ERK7QStringS3_@ABI_1_0 4:4.8.2
 _ZN4KWin8GLShaderC2Ev@ABI_1_0 4:4.8.2
 _ZN4KWin8GLShaderD1Ev@ABI_1_0 4:4.8.2
 _ZN4KWin8GLShaderD2Ev@ABI_1_0 4:4.8.2
 _ZN4KWin9GLTexture10setTextureEj@ABI_1_0 4:4.8.2
 _ZN4KWin9GLTexture11setWrapModeEj@ABI_1_0 4:4.8.2
 _ZN4KWin9GLTexture12setYInvertedEb@ABI_1_0 4:4.8.2
 _ZN4KWin9GLTexture19saturationSupportedEv@ABI_1_0 4:4.8.2
 _ZN4KWin9GLTexture20NPOTTextureSupportedEv@ABI_1_0 4:4.8.2
 _ZN4KWin9GLTexture26framebufferObjectSupportedEv@ABI_1_0 4:4.8.2
 _ZN4KWin9GLTexture4bindEv@ABI_1_0 4:4.8.2
 _ZN4KWin9GLTexture4loadERK6QImagej@ABI_1_0 4:4.8.2
 _ZN4KWin9GLTexture4loadERK7QPixmapj@ABI_1_0 4:4.8.2
 _ZN4KWin9GLTexture4loadERK7QString@ABI_1_0 4:4.8.2
 _ZN4KWin9GLTexture6renderE7QRegionRK5QRect@ABI_1_0 4:4.8.2
 _ZN4KWin9GLTexture6unbindEv@ABI_1_0 4:4.8.2
 _ZN4KWin9GLTexture7discardEv@ABI_1_0 4:4.8.2
 _ZN4KWin9GLTexture7releaseEv@ABI_1_0 4:4.8.2
 _ZN4KWin9GLTexture8setDirtyEv@ABI_1_0 4:4.8.2
 _ZN4KWin9GLTexture9setFilterEj@ABI_1_0 4:4.8.2
 _ZN4KWin9GLTexture9setTargetEj@ABI_1_0 4:4.8.2
 _ZN4KWin9GLTextureC1ERK6QImagej@ABI_1_0 4:4.8.2
 _ZN4KWin9GLTextureC1ERK7QPixmapj@ABI_1_0 4:4.8.2
 _ZN4KWin9GLTextureC1ERK7QString@ABI_1_0 4:4.8.2
 _ZN4KWin9GLTextureC1ERKS0_@ABI_1_0 4:4.8.2
 _ZN4KWin9GLTextureC1ERNS_16GLTexturePrivateE@ABI_1_0 4:4.8.2
 _ZN4KWin9GLTextureC1Eii@ABI_1_0 4:4.8.2
 _ZN4KWin9GLTextureC1Ev@ABI_1_0 4:4.8.2
 _ZN4KWin9GLTextureC2ERK6QImagej@ABI_1_0 4:4.8.2
 _ZN4KWin9GLTextureC2ERK7QPixmapj@ABI_1_0 4:4.8.2
 _ZN4KWin9GLTextureC2ERK7QString@ABI_1_0 4:4.8.2
 _ZN4KWin9GLTextureC2ERKS0_@ABI_1_0 4:4.8.2
 _ZN4KWin9GLTextureC2ERNS_16GLTexturePrivateE@ABI_1_0 4:4.8.2
 _ZN4KWin9GLTextureC2Eii@ABI_1_0 4:4.8.2
 _ZN4KWin9GLTextureC2Ev@ABI_1_0 4:4.8.2
 _ZN4KWin9GLTextureD0Ev@ABI_1_0 4:4.8.2
 _ZN4KWin9GLTextureD1Ev@ABI_1_0 4:4.8.2
 _ZN4KWin9GLTextureD2Ev@ABI_1_0 4:4.8.2
 _ZN4KWin9GLTextureaSERKS0_@ABI_1_0 4:4.8.2
 _ZN4KWin9cleanupGLEv@ABI_1_0 4:4.8.2
 _ZN4KWin9popMatrixEv@ABI_1_0 4:4.8.2
 _ZNK4KWin10GLPlatform11glslVersionEv@ABI_1_0 4:4.8.2
 _ZNK4KWin10GLPlatform11mesaVersionEv@ABI_1_0 4:4.8.2
 _ZNK4KWin10GLPlatform12isMesaDriverEv@ABI_1_0 4:4.8.2
 _ZNK4KWin10GLPlatform12printResultsEv@ABI_1_0 4:4.8.2
 _ZNK4KWin10GLPlatform13driverVersionEv@ABI_1_0 4:4.8.2
 _ZNK4KWin10GLPlatform13kernelVersionEv@ABI_1_0 4:4.8.2
 _ZNK4KWin10GLPlatform13serverVersionEv@ABI_1_0 4:4.8.2
 _ZNK4KWin10GLPlatform14galliumVersionEv@ABI_1_0 4:4.8.2
 _ZNK4KWin10GLPlatform15isGalliumDriverEv@ABI_1_0 4:4.8.2
 _ZNK4KWin10GLPlatform19isSoftwareEmulationEv@ABI_1_0 4:4.8.2
 _ZNK4KWin10GLPlatform6driverEv@ABI_1_0 4:4.8.2
 _ZNK4KWin10GLPlatform7isIntelEv@ABI_1_0 4:4.8.2
 _ZNK4KWin10GLPlatform8isNvidiaEv@ABI_1_0 4:4.8.2
 _ZNK4KWin10GLPlatform8isRadeonEv@ABI_1_0 4:4.8.2
 _ZNK4KWin10GLPlatform8supportsENS_9GLFeatureE@ABI_1_0 4:4.8.2
 _ZNK4KWin10GLPlatform9chipClassEv@ABI_1_0 4:4.8.2
 _ZNK4KWin10GLPlatform9glVersionEv@ABI_1_0 4:4.8.2
 _ZNK4KWin13ShaderManager13isShaderBoundEv@ABI_1_0 4:4.8.2
 _ZNK4KWin13ShaderManager13isShaderDebugEv@ABI_1_0 4:4.8.2
 _ZNK4KWin13ShaderManager14getBoundShaderEv@ABI_1_0 4:4.8.2
 _ZNK4KWin13ShaderManager7isValidEv@ABI_1_0 4:4.8.2
 _ZNK4KWin14GLVertexBuffer10isUseColorEv@ABI_1_0 4:4.8.2
 _ZNK4KWin16GLTexturePrivate17convertToGLFormatERK6QImage@ABI_1_0 4:4.8.2
 _ZNK4KWin8GLShader7compileEjjRK10QByteArray@ABI_1_0 4:4.8.2
 _ZNK4KWin9GLTexture11isYInvertedEv@ABI_1_0 4:4.8.2
 _ZNK4KWin9GLTexture4sizeEv@ABI_1_0 4:4.8.2
 _ZNK4KWin9GLTexture5widthEv@ABI_1_0 4:4.8.2
 _ZNK4KWin9GLTexture6filterEv@ABI_1_0 4:4.8.2
 _ZNK4KWin9GLTexture6heightEv@ABI_1_0 4:4.8.2
 _ZNK4KWin9GLTexture6isNullEv@ABI_1_0 4:4.8.2
 _ZNK4KWin9GLTexture6targetEv@ABI_1_0 4:4.8.2
 _ZNK4KWin9GLTexture7isDirtyEv@ABI_1_0 4:4.8.2
 _ZNK4KWin9GLTexture7textureEv@ABI_1_0 4:4.8.2
 _ZTIN4KWin16GLTexturePrivateE@ABI_1_0 4:4.8.2
 _ZTIN4KWin9GLTextureE@ABI_1_0 4:4.8.2
 _ZTSN4KWin16GLTexturePrivateE@ABI_1_0 4:4.8.2
 _ZTSN4KWin9GLTextureE@ABI_1_0 4:4.8.2
 _ZTVN4KWin16GLTexturePrivateE@ABI_1_0 4:4.8.2
 _ZTVN4KWin9GLTextureE@ABI_1_0 4:4.8.2
 dlrestrictions_data@ABI_1_0 4:4.8.2
