# SymbolsHelper-Confirmed: 4:4.6.5 amd64
libkephal.so.4abi1 libkephal4abi1 #MINVER#
* Build-Depends-Package: kdebase-workspace-dev
 ABI_4_1@ABI_4_1 4:4.6.1
 _ZN6Kephal11ScreenUtils10numScreensEv@ABI_4_1 4:4.6.1
 _ZN6Kephal11ScreenUtils10screenSizeEi@ABI_4_1 4:4.6.1
 _ZN6Kephal11ScreenUtils14screenGeometryEi@ABI_4_1 4:4.6.1
 _ZN6Kephal11ScreenUtils15desktopGeometryEv@ABI_4_1 4:4.6.1
 _ZN6Kephal11ScreenUtils15primaryScreenIdEv@ABI_4_1 4:4.6.1
 _ZN6Kephal11ScreenUtils8distanceERK5QRectRK6QPoint@ABI_4_1 4:4.6.1
 _ZN6Kephal11ScreenUtils8screenIdE6QPoint@ABI_4_1 4:4.6.1
 _ZN6Kephal6Screen11qt_metacallEN11QMetaObject4CallEiPPv@ABI_4_1 4:4.6.1
 _ZN6Kephal6Screen11qt_metacastEPKc@ABI_4_1 4:4.6.1
 _ZN6Kephal6Screen16staticMetaObjectE@ABI_4_1 4:4.6.1
 _ZN6Kephal6Screen4geomEv@ABI_4_1 4:4.6.1
 _ZN6Kephal6ScreenC1EP7QObject@ABI_4_1 4:4.6.1
 _ZN6Kephal6ScreenC2EP7QObject@ABI_4_1 4:4.6.1
 _ZN6Kephal6ScreenD0Ev@ABI_4_1 4:4.6.5
 _ZN6Kephal6ScreenD1Ev@ABI_4_1 4:4.6.5
 _ZN6Kephal6ScreenD2Ev@ABI_4_1 4:4.6.5
 _ZN6Kephal7Screens10s_instanceE@ABI_4_1 4:4.6.1
 _ZN6Kephal7Screens11qt_metacallEN11QMetaObject4CallEiPPv@ABI_4_1 4:4.6.1
 _ZN6Kephal7Screens11qt_metacastEPKc@ABI_4_1 4:4.6.1
 _ZN6Kephal7Screens11screenAddedEPNS_6ScreenE@ABI_4_1 4:4.6.1
 _ZN6Kephal7Screens11screenMovedEPNS_6ScreenE6QPointS3_@ABI_4_1 4:4.6.1
 _ZN6Kephal7Screens13primaryScreenEv@ABI_4_1 4:4.6.1
 _ZN6Kephal7Screens13screenRemovedEi@ABI_4_1 4:4.6.1
 _ZN6Kephal7Screens13screenResizedEPNS_6ScreenE5QSizeS3_@ABI_4_1 4:4.6.1
 _ZN6Kephal7Screens16staticMetaObjectE@ABI_4_1 4:4.6.1
 _ZN6Kephal7Screens4selfEv@ABI_4_1 4:4.6.1
 _ZN6Kephal7Screens6screenEi@ABI_4_1 4:4.6.1
 _ZN6Kephal7ScreensC1EP7QObject@ABI_4_1 4:4.6.1
 _ZN6Kephal7ScreensC2EP7QObject@ABI_4_1 4:4.6.1
 _ZN6Kephal7ScreensD0Ev@ABI_4_1 4:4.6.1
 _ZN6Kephal7ScreensD1Ev@ABI_4_1 4:4.6.1
 _ZN6Kephal7ScreensD2Ev@ABI_4_1 4:4.6.1
 _ZNK6Kephal6Screen10metaObjectEv@ABI_4_1 4:4.6.1
 _ZNK6Kephal6Screen9isPrimaryEv@ABI_4_1 4:4.6.1
 _ZNK6Kephal7Screens10metaObjectEv@ABI_4_1 4:4.6.1
 _ZTIN6Kephal6ScreenE@ABI_4_1 4:4.6.1
 _ZTIN6Kephal7ScreensE@ABI_4_1 4:4.6.1
 _ZTSN6Kephal6ScreenE@ABI_4_1 4:4.6.1
 _ZTSN6Kephal7ScreensE@ABI_4_1 4:4.6.1
 _ZTVN6Kephal6ScreenE@ABI_4_1 4:4.6.1
 _ZTVN6Kephal7ScreensE@ABI_4_1 4:4.6.1
 dlrestrictions_data@ABI_4_1 4:4.6.3
