# SymbolsHelper-Confirmed: 4:4.6.3 amd64
libksignalplotter.so.4 libksignalplotter4 #MINVER#
* Build-Depends-Package: kdebase-workspace-dev
 ABI_4_0@ABI_4_0 4:4.6.1
 _ZN14KSignalPlotter10paintEventEP11QPaintEvent@ABI_4_0 4:4.6.1
 _ZN14KSignalPlotter10removeBeamEi@ABI_4_0 4:4.6.1
 _ZN14KSignalPlotter11changeEventEP6QEvent@ABI_4_0 4:4.6.1
 (subst)_ZN14KSignalPlotter11changeRangeE{qreal}{qreal}@ABI_4_0 4:4.6.1
 _ZN14KSignalPlotter11qt_metacallEN11QMetaObject4CallEiPPv@ABI_4_0 4:4.6.1
 _ZN14KSignalPlotter11qt_metacastEPKc@ABI_4_0 4:4.6.1
 _ZN14KSignalPlotter11resizeEventEP12QResizeEvent@ABI_4_0 4:4.6.1
 _ZN14KSignalPlotter11setShowAxisEb@ABI_4_0 4:4.6.1
 _ZN14KSignalPlotter12reorderBeamsERK5QListIiE@ABI_4_0 4:4.6.1
 _ZN14KSignalPlotter12setBeamColorEiRK6QColor@ABI_4_0 4:4.6.1
 _ZN14KSignalPlotter12setThinFrameEb@ABI_4_0 4:4.6.1
 _ZN14KSignalPlotter13setStackGraphEb@ABI_4_0 4:4.6.1
 _ZN14KSignalPlotter14setFillOpacityEi@ABI_4_0 4:4.6.1
 (subst)_ZN14KSignalPlotter14setScaleDownByE{qreal}@ABI_4_0 4:4.6.1
 _ZN14KSignalPlotter14setSmoothGraphEb@ABI_4_0 4:4.6.1
 (subst)_ZN14KSignalPlotter15setMaximumValueE{qreal}@ABI_4_0 4:4.6.1
 (subst)_ZN14KSignalPlotter15setMinimumValueE{qreal}@ABI_4_0 4:4.6.1
 _ZN14KSignalPlotter15setUseAutoRangeEb@ABI_4_0 4:4.6.1
 _ZN14KSignalPlotter16axisScaleChangedEv@ABI_4_0 4:4.6.1
 _ZN14KSignalPlotter16setSvgBackgroundERK7QString@ABI_4_0 4:4.6.1
 _ZN14KSignalPlotter16staticMetaObjectE@ABI_4_0 4:4.6.1
 _ZN14KSignalPlotter18setHorizontalScaleEj@ABI_4_0 4:4.6.1
 _ZN14KSignalPlotter19setMaxAxisTextWidthEi@ABI_4_0 4:4.6.1
 _ZN14KSignalPlotter20setShowVerticalLinesEb@ABI_4_0 4:4.6.1
 _ZN14KSignalPlotter22setShowHorizontalLinesEb@ABI_4_0 4:4.6.1
 _ZN14KSignalPlotter22setVerticalLinesScrollEb@ABI_4_0 4:4.6.1
 _ZN14KSignalPlotter24setVerticalLinesDistanceEj@ABI_4_0 4:4.6.1
 _ZN14KSignalPlotter7addBeamERK6QColor@ABI_4_0 4:4.6.1
 _ZN14KSignalPlotter7setUnitERK16KLocalizedString@ABI_4_0 4:4.6.1
 (subst)_ZN14KSignalPlotter9addSampleERK5QListI{qreal}E@ABI_4_0 4:4.6.1
 _ZN14KSignalPlotterC1EP7QWidget@ABI_4_0 4:4.6.1
 _ZN14KSignalPlotterC2EP7QWidget@ABI_4_0 4:4.6.1
 _ZN14KSignalPlotterD0Ev@ABI_4_0 4:4.6.1
 _ZN14KSignalPlotterD1Ev@ABI_4_0 4:4.6.1
 _ZN14KSignalPlotterD2Ev@ABI_4_0 4:4.6.1
 _ZN22KGraphicsSignalPlotter10removeBeamEi@ABI_4_0 4:4.6.1
 _ZN22KGraphicsSignalPlotter11changeEventEP6QEvent@ABI_4_0 4:4.6.1
 (subst)_ZN22KGraphicsSignalPlotter11changeRangeE{qreal}{qreal}@ABI_4_0 4:4.6.1
 _ZN22KGraphicsSignalPlotter11qt_metacallEN11QMetaObject4CallEiPPv@ABI_4_0 4:4.6.1
 _ZN22KGraphicsSignalPlotter11qt_metacastEPKc@ABI_4_0 4:4.6.1
 _ZN22KGraphicsSignalPlotter11resizeEventEP25QGraphicsSceneResizeEvent@ABI_4_0 4:4.6.1
 _ZN22KGraphicsSignalPlotter11setShowAxisEb@ABI_4_0 4:4.6.1
 _ZN22KGraphicsSignalPlotter12reorderBeamsERK5QListIiE@ABI_4_0 4:4.6.1
 _ZN22KGraphicsSignalPlotter12setBeamColorEiRK6QColor@ABI_4_0 4:4.6.1
 _ZN22KGraphicsSignalPlotter12setThinFrameEb@ABI_4_0 4:4.6.1
 _ZN22KGraphicsSignalPlotter13setStackGraphEb@ABI_4_0 4:4.6.1
 _ZN22KGraphicsSignalPlotter14setFillOpacityEi@ABI_4_0 4:4.6.1
 (subst)_ZN22KGraphicsSignalPlotter14setScaleDownByE{qreal}@ABI_4_0 4:4.6.1
 _ZN22KGraphicsSignalPlotter14setSmoothGraphEb@ABI_4_0 4:4.6.1
 (subst)_ZN22KGraphicsSignalPlotter15setMaximumValueE{qreal}@ABI_4_0 4:4.6.1
 (subst)_ZN22KGraphicsSignalPlotter15setMinimumValueE{qreal}@ABI_4_0 4:4.6.1
 _ZN22KGraphicsSignalPlotter15setUseAutoRangeEb@ABI_4_0 4:4.6.1
 _ZN22KGraphicsSignalPlotter16axisScaleChangedEv@ABI_4_0 4:4.6.1
 _ZN22KGraphicsSignalPlotter16setSvgBackgroundERK7QString@ABI_4_0 4:4.6.1
 _ZN22KGraphicsSignalPlotter16staticMetaObjectE@ABI_4_0 4:4.6.1
 _ZN22KGraphicsSignalPlotter18setHorizontalScaleEj@ABI_4_0 4:4.6.1
 _ZN22KGraphicsSignalPlotter19setMaxAxisTextWidthEi@ABI_4_0 4:4.6.1
 _ZN22KGraphicsSignalPlotter20setShowVerticalLinesEb@ABI_4_0 4:4.6.1
 _ZN22KGraphicsSignalPlotter22setShowHorizontalLinesEb@ABI_4_0 4:4.6.1
 _ZN22KGraphicsSignalPlotter22setVerticalLinesScrollEb@ABI_4_0 4:4.6.1
 _ZN22KGraphicsSignalPlotter24setVerticalLinesDistanceEj@ABI_4_0 4:4.6.1
 _ZN22KGraphicsSignalPlotter5paintEP8QPainterPK24QStyleOptionGraphicsItemP7QWidget@ABI_4_0 4:4.6.1
 _ZN22KGraphicsSignalPlotter7addBeamERK6QColor@ABI_4_0 4:4.6.1
 _ZN22KGraphicsSignalPlotter7setUnitERK16KLocalizedString@ABI_4_0 4:4.6.1
 (subst)_ZN22KGraphicsSignalPlotter9addSampleERK5QListI{qreal}E@ABI_4_0 4:4.6.1
 _ZN22KGraphicsSignalPlotterC1EP13QGraphicsItem@ABI_4_0 4:4.6.1
 _ZN22KGraphicsSignalPlotterC2EP13QGraphicsItem@ABI_4_0 4:4.6.1
 _ZN22KGraphicsSignalPlotterD0Ev@ABI_4_0 4:4.6.1
 _ZN22KGraphicsSignalPlotterD1Ev@ABI_4_0 4:4.6.1
 _ZN22KGraphicsSignalPlotterD2Ev@ABI_4_0 4:4.6.1
 _ZNK14KSignalPlotter10metaObjectEv@ABI_4_0 4:4.6.1
 _ZNK14KSignalPlotter10stackGraphEv@ABI_4_0 4:4.6.1
 _ZNK14KSignalPlotter11fillOpacityEv@ABI_4_0 4:4.6.1
 _ZNK14KSignalPlotter11scaleDownByEv@ABI_4_0 4:4.6.1
 _ZNK14KSignalPlotter11smoothGraphEv@ABI_4_0 4:4.6.1
 _ZNK14KSignalPlotter12maximumValueEv@ABI_4_0 4:4.6.1
 _ZNK14KSignalPlotter12minimumValueEv@ABI_4_0 4:4.6.1
 _ZNK14KSignalPlotter12useAutoRangeEv@ABI_4_0 4:4.6.1
 _ZNK14KSignalPlotter13svgBackgroundEv@ABI_4_0 4:4.6.1
 (subst)_ZNK14KSignalPlotter13valueAsStringE{qreal}i@ABI_4_0 4:4.6.1
 _ZNK14KSignalPlotter15horizontalScaleEv@ABI_4_0 4:4.6.1
 _ZNK14KSignalPlotter16maxAxisTextWidthEv@ABI_4_0 4:4.6.1
 _ZNK14KSignalPlotter17lastValueAsStringEii@ABI_4_0 4:4.6.1
 _ZNK14KSignalPlotter17showVerticalLinesEv@ABI_4_0 4:4.6.1
 _ZNK14KSignalPlotter19showHorizontalLinesEv@ABI_4_0 4:4.6.1
 _ZNK14KSignalPlotter19verticalLinesScrollEv@ABI_4_0 4:4.6.1
 _ZNK14KSignalPlotter20currentAxisPrecisionEv@ABI_4_0 4:4.6.1
 _ZNK14KSignalPlotter21verticalLinesDistanceEv@ABI_4_0 4:4.6.1
 _ZNK14KSignalPlotter24currentMaximumRangeValueEv@ABI_4_0 4:4.6.1
 _ZNK14KSignalPlotter24currentMinimumRangeValueEv@ABI_4_0 4:4.6.1
 _ZNK14KSignalPlotter4unitEv@ABI_4_0 4:4.6.1
 _ZNK14KSignalPlotter8numBeamsEv@ABI_4_0 4:4.6.1
 _ZNK14KSignalPlotter8showAxisEv@ABI_4_0 4:4.6.1
 _ZNK14KSignalPlotter8sizeHintEv@ABI_4_0 4:4.6.1
 _ZNK14KSignalPlotter9beamColorEi@ABI_4_0 4:4.6.1
 _ZNK14KSignalPlotter9lastValueEi@ABI_4_0 4:4.6.1
 _ZNK14KSignalPlotter9thinFrameEv@ABI_4_0 4:4.6.1
 _ZNK22KGraphicsSignalPlotter10metaObjectEv@ABI_4_0 4:4.6.1
 _ZNK22KGraphicsSignalPlotter10opaqueAreaEv@ABI_4_0 4:4.6.1
 _ZNK22KGraphicsSignalPlotter10stackGraphEv@ABI_4_0 4:4.6.1
 _ZNK22KGraphicsSignalPlotter11fillOpacityEv@ABI_4_0 4:4.6.1
 _ZNK22KGraphicsSignalPlotter11scaleDownByEv@ABI_4_0 4:4.6.1
 _ZNK22KGraphicsSignalPlotter11smoothGraphEv@ABI_4_0 4:4.6.1
 _ZNK22KGraphicsSignalPlotter12maximumValueEv@ABI_4_0 4:4.6.1
 _ZNK22KGraphicsSignalPlotter12minimumValueEv@ABI_4_0 4:4.6.1
 _ZNK22KGraphicsSignalPlotter12useAutoRangeEv@ABI_4_0 4:4.6.1
 _ZNK22KGraphicsSignalPlotter13svgBackgroundEv@ABI_4_0 4:4.6.1
 (subst)_ZNK22KGraphicsSignalPlotter13valueAsStringE{qreal}i@ABI_4_0 4:4.6.1
 _ZNK22KGraphicsSignalPlotter15horizontalScaleEv@ABI_4_0 4:4.6.1
 _ZNK22KGraphicsSignalPlotter16maxAxisTextWidthEv@ABI_4_0 4:4.6.1
 _ZNK22KGraphicsSignalPlotter17lastValueAsStringEii@ABI_4_0 4:4.6.1
 _ZNK22KGraphicsSignalPlotter17showVerticalLinesEv@ABI_4_0 4:4.6.1
 _ZNK22KGraphicsSignalPlotter19showHorizontalLinesEv@ABI_4_0 4:4.6.1
 _ZNK22KGraphicsSignalPlotter19verticalLinesScrollEv@ABI_4_0 4:4.6.1
 _ZNK22KGraphicsSignalPlotter20currentAxisPrecisionEv@ABI_4_0 4:4.6.1
 _ZNK22KGraphicsSignalPlotter21verticalLinesDistanceEv@ABI_4_0 4:4.6.1
 _ZNK22KGraphicsSignalPlotter24currentMaximumRangeValueEv@ABI_4_0 4:4.6.1
 _ZNK22KGraphicsSignalPlotter24currentMinimumRangeValueEv@ABI_4_0 4:4.6.1
 _ZNK22KGraphicsSignalPlotter4unitEv@ABI_4_0 4:4.6.1
 _ZNK22KGraphicsSignalPlotter8numBeamsEv@ABI_4_0 4:4.6.1
 _ZNK22KGraphicsSignalPlotter8showAxisEv@ABI_4_0 4:4.6.1
 _ZNK22KGraphicsSignalPlotter8sizeHintEN2Qt8SizeHintERK6QSizeF@ABI_4_0 4:4.6.1
 _ZNK22KGraphicsSignalPlotter9beamColorEi@ABI_4_0 4:4.6.1
 _ZNK22KGraphicsSignalPlotter9lastValueEi@ABI_4_0 4:4.6.1
 _ZNK22KGraphicsSignalPlotter9thinFrameEv@ABI_4_0 4:4.6.1
 _ZTI14KSignalPlotter@ABI_4_0 4:4.6.1
 _ZTI22KGraphicsSignalPlotter@ABI_4_0 4:4.6.1
 _ZTS14KSignalPlotter@ABI_4_0 4:4.6.1
 _ZTS22KGraphicsSignalPlotter@ABI_4_0 4:4.6.1
 _ZTV14KSignalPlotter@ABI_4_0 4:4.6.1
 _ZTV22KGraphicsSignalPlotter@ABI_4_0 4:4.6.1
 dlrestrictions_data@ABI_4_0 4:4.6.3
 (c++)"non-virtual thunk to KGraphicsSignalPlotter::opaqueArea() const@ABI_4_0" 4:4.6.1
 (c++)"non-virtual thunk to KGraphicsSignalPlotter::paint(QPainter*, QStyleOptionGraphicsItem const*, QWidget*)@ABI_4_0" 4:4.6.1
 (c++)"non-virtual thunk to KGraphicsSignalPlotter::sizeHint(Qt::SizeHint, QSizeF const&) const@ABI_4_0" 4:4.6.1
 (c++)"non-virtual thunk to KGraphicsSignalPlotter::~KGraphicsSignalPlotter()@ABI_4_0" 4:4.6.1
 (c++)"non-virtual thunk to KSignalPlotter::~KSignalPlotter()@ABI_4_0" 4:4.6.1
