# SymbolsHelper-Confirmed: 4:4.8.4 hurd-i386
libkdecorations.so.4 libkdecorations4 #MINVER#
* Build-Depends-Package: kdebase-workspace-dev
 ABI_4_0@ABI_4_0 4:4.6.1
 _ZN11KDecoration10setDesktopEi@ABI_4_0 4:4.6.1
 _ZN11KDecoration11closeWindowEv@ABI_4_0 4:4.6.1
 _ZN11KDecoration11grabXServerEv@ABI_4_0 4:4.6.1
 _ZN11KDecoration11qt_metacallEN11QMetaObject4CallEiPPv@ABI_4_0 4:4.6.1
 _ZN11KDecoration11qt_metacastEPKc@ABI_4_0 4:4.6.1
 _ZN11KDecoration12setKeepAboveEb@ABI_4_0 4:4.6.1
 _ZN11KDecoration12setKeepBelowEb@ABI_4_0 4:4.6.1
 _ZN11KDecoration12windowDockedEN18KDecorationDefines8PositionE@ABI_4_0 4:4.6.1
 _ZN11KDecoration13setMainWidgetEP7QWidget@ABI_4_0 4:4.6.1
 _ZN11KDecoration13ungrabXServerEv@ABI_4_0 4:4.6.1
 _ZN11KDecoration14showWindowMenuE6QPoint@ABI_4_0 4:4.6.1
 _ZN11KDecoration14showWindowMenuERK5QRect@ABI_4_0 4:4.6.1
 _ZN11KDecoration15showContextHelpEv@ABI_4_0 4:4.6.1
 _ZN11KDecoration16createMainWidgetE6QFlagsIN2Qt10WindowTypeEE@ABI_4_0 4:4.6.1
 _ZN11KDecoration16keepAboveChangedEb@ABI_4_0 4:4.6.1
 _ZN11KDecoration16keepBelowChangedEb@ABI_4_0 4:4.6.1
 _ZN11KDecoration16staticMetaObjectE@ABI_4_0 4:4.6.1
 _ZN11KDecoration19toggleOnAllDesktopsEv@ABI_4_0 4:4.6.1
 _ZN11KDecoration20emitKeepAboveChangedEb@ABI_4_0 4:4.6.1
 _ZN11KDecoration20emitKeepBelowChangedEb@ABI_4_0 4:4.6.1
 _ZN11KDecoration22performWindowOperationEN18KDecorationDefines15WindowOperationE@ABI_4_0 4:4.6.1
 _ZN11KDecoration22processMousePressEventEP11QMouseEvent@ABI_4_0 4:4.6.1
 _ZN11KDecoration25titlebarDblClickOperationEv@ABI_4_0 4:4.6.1
 _ZN11KDecoration27titlebarMouseWheelOperationEi@ABI_4_0 4:4.6.1
 _ZN11KDecoration5resetEm@ABI_4_0 4:4.6.1
 _ZN11KDecoration7optionsEv@ABI_4_0 4:4.6.1
 _ZN11KDecoration7setMaskERK7QRegioni@ABI_4_0 4:4.6.1
 _ZN11KDecoration8maximizeE6QFlagsIN2Qt11MouseButtonEE@ABI_4_0 4:4.6.1
 _ZN11KDecoration8maximizeEN18KDecorationDefines12MaximizeModeE@ABI_4_0 4:4.6.1
 _ZN11KDecoration8minimizeEv@ABI_4_0 4:4.6.1
 _ZN11KDecoration8options_E@ABI_4_0 4:4.6.1
 _ZN11KDecoration8setShadeEb@ABI_4_0 4:4.6.1
 _ZN11KDecoration9clearMaskEv@ABI_4_0 4:4.6.1
 _ZN11KDecoration9drawboundERK5QRectb@ABI_4_0 4:4.6.1
 _ZN11KDecorationC1EP17KDecorationBridgeP18KDecorationFactory@ABI_4_0 4:4.6.1
 _ZN11KDecorationC2EP17KDecorationBridgeP18KDecorationFactory@ABI_4_0 4:4.6.1
 _ZN11KDecorationD0Ev@ABI_4_0 4:4.6.1
 _ZN11KDecorationD1Ev@ABI_4_0 4:4.6.1
 _ZN11KDecorationD2Ev@ABI_4_0 4:4.6.1
 _ZN17KCommonDecoration10addButtonsER7QVectorIP23KCommonDecorationButtonERK7QStringb@ABI_4_0 4:4.6.1
 _ZN17KCommonDecoration10decorationEv@ABI_4_0 4:4.6.1
 _ZN17KCommonDecoration10iconChangeEv@ABI_4_0 4:4.6.1
 _ZN17KCommonDecoration10setDesktopEi@ABI_4_0 4:4.6.1
 _ZN17KCommonDecoration10wheelEventEP11QWheelEvent@ABI_4_0 4:4.6.1
 _ZN17KCommonDecoration11closeWindowEv@ABI_4_0 4:4.6.1
 _ZN17KCommonDecoration11cornerShapeENS_12WindowCornerE@ABI_4_0 4:4.6.1
 _ZN17KCommonDecoration11eventFilterEP7QObjectP6QEvent@ABI_4_0 4:4.6.1
 _ZN17KCommonDecoration11grabXServerEv@ABI_4_0 4:4.6.1
 _ZN17KCommonDecoration11qt_metacallEN11QMetaObject4CallEiPPv@ABI_4_0 4:4.6.1
 _ZN17KCommonDecoration11qt_metacastEPKc@ABI_4_0 4:4.6.1
 _ZN17KCommonDecoration11resetLayoutEv@ABI_4_0 4:4.6.1
 _ZN17KCommonDecoration11resizeEventEP12QResizeEvent@ABI_4_0 4:4.6.1
 _ZN17KCommonDecoration11shadeChangeEv@ABI_4_0 4:4.6.1
 _ZN17KCommonDecoration12activeChangeEv@ABI_4_0 4:4.6.1
 _ZN17KCommonDecoration12objDestroyedEP7QObject@ABI_4_0 4:4.6.1
 _ZN17KCommonDecoration12setKeepAboveEb@ABI_4_0 4:4.6.1
 _ZN17KCommonDecoration12setKeepBelowEb@ABI_4_0 4:4.6.1
 _ZN17KCommonDecoration12slotMaximizeEv@ABI_4_0 4:4.6.1
 _ZN17KCommonDecoration12windowDockedEN18KDecorationDefines8PositionE@ABI_4_0 4:4.6.1
 _ZN17KCommonDecoration13captionChangeEv@ABI_4_0 4:4.6.1
 _ZN17KCommonDecoration13desktopChangeEv@ABI_4_0 4:4.6.1
 _ZN17KCommonDecoration13setMainWidgetEP7QWidget@ABI_4_0 4:4.6.1
 _ZN17KCommonDecoration13slotKeepAboveEv@ABI_4_0 4:4.6.1
 _ZN17KCommonDecoration13slotKeepBelowEv@ABI_4_0 4:4.6.1
 _ZN17KCommonDecoration13ungrabXServerEv@ABI_4_0 4:4.6.1
 _ZN17KCommonDecoration13updateCaptionEv@ABI_4_0 4:4.6.1
 _ZN17KCommonDecoration14maximizeChangeEv@ABI_4_0 4:4.6.1
 _ZN17KCommonDecoration14showWindowMenuE6QPoint@ABI_4_0 4:4.6.1
 _ZN17KCommonDecoration14showWindowMenuERK5QRect@ABI_4_0 4:4.6.1
 _ZN17KCommonDecoration15keepAboveChangeEb@ABI_4_0 4:4.6.1
 _ZN17KCommonDecoration15keepBelowChangeEb@ABI_4_0 4:4.6.1
 _ZN17KCommonDecoration15showContextHelpEv@ABI_4_0 4:4.6.1
 _ZN17KCommonDecoration16createMainWidgetE6QFlagsIN2Qt10WindowTypeEE@ABI_4_0 4:4.6.1
 _ZN17KCommonDecoration16keepAboveChangedEb@ABI_4_0 4:4.6.1
 _ZN17KCommonDecoration16keepBelowChangedEb@ABI_4_0 4:4.6.1
 _ZN17KCommonDecoration16staticMetaObjectE@ABI_4_0 4:4.6.1
 _ZN17KCommonDecoration17calcHiddenButtonsEv@ABI_4_0 4:4.6.1
 _ZN17KCommonDecoration17menuButtonPressedEv@ABI_4_0 4:4.6.1
 _ZN17KCommonDecoration17updateWindowShapeEv@ABI_4_0 4:4.6.1
 _ZN17KCommonDecoration18menuButtonReleasedEv@ABI_4_0 4:4.6.1
 _ZN17KCommonDecoration19toggleOnAllDesktopsEv@ABI_4_0 4:4.6.1
 _ZN17KCommonDecoration21mouseDoubleClickEventEP11QMouseEvent@ABI_4_0 4:4.6.1
 _ZN17KCommonDecoration22performWindowOperationEN18KDecorationDefines15WindowOperationE@ABI_4_0 4:4.6.1
 _ZN17KCommonDecoration22processMousePressEventEP11QMouseEvent@ABI_4_0 4:4.6.1
 _ZN17KCommonDecoration25titlebarDblClickOperationEv@ABI_4_0 4:4.6.1
 _ZN17KCommonDecoration27titlebarMouseWheelOperationEi@ABI_4_0 4:4.6.1
 _ZN17KCommonDecoration4initEv@ABI_4_0 4:4.6.1
 _ZN17KCommonDecoration4showEv@ABI_4_0 4:4.6.1
 _ZN17KCommonDecoration5resetEm@ABI_4_0 4:4.6.1
 _ZN17KCommonDecoration6resizeERK5QSize@ABI_4_0 4:4.6.1
 _ZN17KCommonDecoration6widgetEv@ABI_4_0 4:4.6.1
 _ZN17KCommonDecoration7optionsEv@ABI_4_0 4:4.6.1
 _ZN17KCommonDecoration7setMaskERK7QRegioni@ABI_4_0 4:4.6.1
 _ZN17KCommonDecoration8maximizeE6QFlagsIN2Qt11MouseButtonEE@ABI_4_0 4:4.6.1
 _ZN17KCommonDecoration8maximizeEN18KDecorationDefines12MaximizeModeE@ABI_4_0 4:4.6.1
 _ZN17KCommonDecoration8minimizeEv@ABI_4_0 4:4.6.1
 _ZN17KCommonDecoration8setShadeEb@ABI_4_0 4:4.6.1
 _ZN17KCommonDecoration9clearMaskEv@ABI_4_0 4:4.6.1
 _ZN17KCommonDecoration9drawboundERK5QRectb@ABI_4_0 4:4.6.1
 _ZN17KCommonDecoration9slotShadeEv@ABI_4_0 4:4.6.1
 _ZN17KCommonDecorationC1EP17KDecorationBridgeP18KDecorationFactory@ABI_4_0 4:4.6.1
 _ZN17KCommonDecorationC2EP17KDecorationBridgeP18KDecorationFactory@ABI_4_0 4:4.6.1
 _ZN17KCommonDecorationD0Ev@ABI_4_0 4:4.6.1
 _ZN17KCommonDecorationD1Ev@ABI_4_0 4:4.6.1
 _ZN17KCommonDecorationD2Ev@ABI_4_0 4:4.6.1
 _ZN18KDecorationDefines27clientGroupItemDragMimeTypeEv@ABI_4_0 4:4.6.1
 _ZN18KDecorationFactory13addDecorationEP11KDecoration@ABI_4_0 4:4.6.1
 _ZN18KDecorationFactory16removeDecorationEP11KDecoration@ABI_4_0 4:4.6.1
 _ZN18KDecorationFactory16resetDecorationsEm@ABI_4_0 4:4.6.1
 _ZN18KDecorationFactory17checkRequirementsEP19KDecorationProvides@ABI_4_0 4:4.6.1
 _ZN18KDecorationFactory17closeButtonCornerEv@ABI_4_0 4:4.8.1
 _ZN18KDecorationFactory20setCloseButtonCornerEN2Qt6CornerE@ABI_4_0 4:4.8.1
 _ZN18KDecorationFactory5resetEm@ABI_4_0 4:4.6.1
 _ZN18KDecorationFactoryC1Ev@ABI_4_0 4:4.6.1
 _ZN18KDecorationFactoryC2Ev@ABI_4_0 4:4.6.1
 _ZN18KDecorationFactoryD0Ev@ABI_4_0 4:4.6.1
 _ZN18KDecorationFactoryD1Ev@ABI_4_0 4:4.6.1
 _ZN18KDecorationFactoryD2Ev@ABI_4_0 4:4.6.1
 _ZN18KDecorationOptions13setBorderSizeEN18KDecorationDefines10BorderSizeE@ABI_4_0 4:4.6.1
 _ZN18KDecorationOptions14updateSettingsEP7KConfig@ABI_4_0 4:4.6.1
 _ZN18KDecorationOptions19setTitleButtonsLeftERK7QString@ABI_4_0 4:4.6.1
 _ZN18KDecorationOptions20setTitleButtonsRightERK7QString@ABI_4_0 4:4.6.1
 _ZN18KDecorationOptions23defaultTitleButtonsLeftEv@ABI_4_0 4:4.6.1
 _ZN18KDecorationOptions23setOpMaxButtonLeftClickEN18KDecorationDefines15WindowOperationE@ABI_4_0 4:4.6.1
 _ZN18KDecorationOptions24defaultTitleButtonsRightEv@ABI_4_0 4:4.6.1
 _ZN18KDecorationOptions24setCustomButtonPositionsEb@ABI_4_0 4:4.6.1
 _ZN18KDecorationOptions24setOpMaxButtonRightClickEN18KDecorationDefines15WindowOperationE@ABI_4_0 4:4.6.1
 _ZN18KDecorationOptions25setOpMaxButtonMiddleClickEN18KDecorationDefines15WindowOperationE@ABI_4_0 4:4.6.1
 _ZN18KDecorationOptionsC1Ev@ABI_4_0 4:4.6.1
 _ZN18KDecorationOptionsC2Ev@ABI_4_0 4:4.6.1
 _ZN18KDecorationOptionsD0Ev@ABI_4_0 4:4.6.1
 _ZN18KDecorationOptionsD1Ev@ABI_4_0 4:4.6.1
 _ZN18KDecorationOptionsD2Ev@ABI_4_0 4:4.6.1
 _ZN18KDecorationPlugins10loadPluginE7QString@ABI_4_0 4:4.6.1
 _ZN18KDecorationPlugins13currentPluginEv@ABI_4_0 4:4.6.1
 _ZN18KDecorationPlugins16createDecorationEP17KDecorationBridge@ABI_4_0 4:4.6.1
 _ZN18KDecorationPlugins21destroyPreviousPluginEv@ABI_4_0 4:4.6.1
 _ZN18KDecorationPlugins5errorERK7QString@ABI_4_0 4:4.6.1
 _ZN18KDecorationPlugins5resetEm@ABI_4_0 4:4.6.1
 _ZN18KDecorationPlugins7factoryEv@ABI_4_0 4:4.6.1
 _ZN18KDecorationPluginsC1ERK10KSharedPtrI13KSharedConfigE@ABI_4_0 4:4.6.1
 _ZN18KDecorationPluginsC2ERK10KSharedPtrI13KSharedConfigE@ABI_4_0 4:4.6.1
 _ZN18KDecorationPluginsD0Ev@ABI_4_0 4:4.6.1
 _ZN18KDecorationPluginsD1Ev@ABI_4_0 4:4.6.1
 _ZN18KDecorationPluginsD2Ev@ABI_4_0 4:4.6.1
 _ZN19KDecorationUnstable11qt_metacallEN11QMetaObject4CallEiPPv@ABI_4_0 4:4.6.1
 _ZN19KDecorationUnstable11qt_metacastEPKc@ABI_4_0 4:4.6.1
 _ZN19KDecorationUnstable16staticMetaObjectE@ABI_4_0 4:4.6.1
 _ZN19KDecorationUnstable17displayClientMenuEiRK6QPoint@ABI_4_0 4:4.6.1
 _ZN19KDecorationUnstable19isClientGroupActiveEv@ABI_4_0 4:4.6.1
 _ZN19KDecorationUnstable20closeClientGroupItemEi@ABI_4_0 4:4.6.1
 _ZN19KDecorationUnstable21closeAllInClientGroupEv@ABI_4_0 4:4.6.1
 _ZN19KDecorationUnstable21moveItemInClientGroupEii@ABI_4_0 4:4.6.1
 _ZN19KDecorationUnstable21moveItemToClientGroupEli@ABI_4_0 4:4.6.1
 _ZN19KDecorationUnstable21removeFromClientGroupEiRK5QRect@ABI_4_0 4:4.6.1
 _ZN19KDecorationUnstable22visibleClientGroupItemEv@ABI_4_0 4:4.6.1
 _ZN19KDecorationUnstable23buttonToWindowOperationE6QFlagsIN2Qt11MouseButtonEE@ABI_4_0 4:4.6.1
 _ZN19KDecorationUnstable25setVisibleClientGroupItemEi@ABI_4_0 4:4.6.1
 _ZN19KDecorationUnstable6itemIdEi@ABI_4_0 4:4.6.1
 _ZN19KDecorationUnstable6regionEN18KDecorationDefines6RegionE@ABI_4_0 4:4.8.1
 _ZN19KDecorationUnstableC1EP17KDecorationBridgeP18KDecorationFactory@ABI_4_0 4:4.6.1
 _ZN19KDecorationUnstableC2EP17KDecorationBridgeP18KDecorationFactory@ABI_4_0 4:4.6.1
 _ZN19KDecorationUnstableD0Ev@ABI_4_0 4:4.6.1
 _ZN19KDecorationUnstableD1Ev@ABI_4_0 4:4.6.1
 _ZN19KDecorationUnstableD2Ev@ABI_4_0 4:4.6.1
 _ZN23KCommonDecorationButton10setTipTextERK7QString@ABI_4_0 4:4.6.1
 _ZN23KCommonDecorationButton11qt_metacallEN11QMetaObject4CallEiPPv@ABI_4_0 4:4.6.1
 _ZN23KCommonDecorationButton11qt_metacastEPKc@ABI_4_0 4:4.6.1
 _ZN23KCommonDecorationButton15mousePressEventEP11QMouseEvent@ABI_4_0 4:4.6.1
 _ZN23KCommonDecorationButton15setToggleButtonEb@ABI_4_0 4:4.6.1
 _ZN23KCommonDecorationButton16staticMetaObjectE@ABI_4_0 4:4.6.1
 _ZN23KCommonDecorationButton17mouseReleaseEventEP11QMouseEvent@ABI_4_0 4:4.6.1
 _ZN23KCommonDecorationButton17setRealizeButtonsEi@ABI_4_0 4:4.6.1
 _ZN23KCommonDecorationButton5setOnEb@ABI_4_0 4:4.6.1
 _ZN23KCommonDecorationButton7setLeftEb@ABI_4_0 4:4.6.1
 _ZN23KCommonDecorationButton7setSizeERK5QSize@ABI_4_0 4:4.6.1
 _ZN23KCommonDecorationButtonC1E10ButtonTypeP17KCommonDecoration@ABI_4_0 4:4.6.1
 _ZN23KCommonDecorationButtonC2E10ButtonTypeP17KCommonDecoration@ABI_4_0 4:4.6.1
 _ZN23KCommonDecorationButtonD0Ev@ABI_4_0 4:4.6.1
 _ZN23KCommonDecorationButtonD1Ev@ABI_4_0 4:4.6.1
 _ZN23KCommonDecorationButtonD2Ev@ABI_4_0 4:4.6.1
 _ZN25KCommonDecorationUnstable11eventFilterEP7QObjectP6QEvent@ABI_4_0 4:4.6.1
 _ZN25KCommonDecorationUnstable11qt_metacallEN11QMetaObject4CallEiPPv@ABI_4_0 4:4.6.1
 _ZN25KCommonDecorationUnstable11qt_metacastEPKc@ABI_4_0 4:4.6.1
 _ZN25KCommonDecorationUnstable16staticMetaObjectE@ABI_4_0 4:4.6.1
 _ZN25KCommonDecorationUnstable17displayClientMenuEiRK6QPoint@ABI_4_0 4:4.6.1
 _ZN25KCommonDecorationUnstable19isClientGroupActiveEv@ABI_4_0 4:4.6.1
 _ZN25KCommonDecorationUnstable20closeClientGroupItemEi@ABI_4_0 4:4.6.1
 _ZN25KCommonDecorationUnstable21closeAllInClientGroupEv@ABI_4_0 4:4.6.1
 _ZN25KCommonDecorationUnstable21moveItemInClientGroupEii@ABI_4_0 4:4.6.1
 _ZN25KCommonDecorationUnstable21moveItemToClientGroupEli@ABI_4_0 4:4.6.1
 _ZN25KCommonDecorationUnstable21removeFromClientGroupEiRK5QRect@ABI_4_0 4:4.6.1
 _ZN25KCommonDecorationUnstable22visibleClientGroupItemEv@ABI_4_0 4:4.6.1
 _ZN25KCommonDecorationUnstable23buttonToWindowOperationE6QFlagsIN2Qt11MouseButtonEE@ABI_4_0 4:4.6.1
 _ZN25KCommonDecorationUnstable25setVisibleClientGroupItemEi@ABI_4_0 4:4.6.1
 _ZN25KCommonDecorationUnstable6itemIdEi@ABI_4_0 4:4.6.1
 _ZN25KCommonDecorationUnstableC1EP17KDecorationBridgeP18KDecorationFactory@ABI_4_0 4:4.6.1
 _ZN25KCommonDecorationUnstableC2EP17KDecorationBridgeP18KDecorationFactory@ABI_4_0 4:4.6.1
 _ZN25KCommonDecorationUnstableD0Ev@ABI_4_0 4:4.6.1
 _ZN25KCommonDecorationUnstableD1Ev@ABI_4_0 4:4.6.1
 _ZN25KCommonDecorationUnstableD2Ev@ABI_4_0 4:4.6.1
 _ZNK11KDecoration10isSetShadeEv@ABI_4_0 4:4.6.1
 _ZNK11KDecoration10metaObjectEv@ABI_4_0 4:4.6.1
 _ZNK11KDecoration10windowTypeEm@ABI_4_0 4:4.6.1
 _ZNK11KDecoration11isCloseableEv@ABI_4_0 4:4.6.1
 _ZNK11KDecoration11isResizableEv@ABI_4_0 4:4.6.1
 _ZNK11KDecoration11isShadeableEv@ABI_4_0 4:4.6.1
 _ZNK11KDecoration12iconGeometryEv@ABI_4_0 4:4.6.1
 _ZNK11KDecoration12maximizeModeEv@ABI_4_0 4:4.6.1
 _ZNK11KDecoration13initialWFlagsEv@ABI_4_0 4:4.6.1
 _ZNK11KDecoration13isMaximizableEv@ABI_4_0 4:4.6.1
 _ZNK11KDecoration13isMinimizableEv@ABI_4_0 4:4.6.1
 _ZNK11KDecoration13mousePositionERK6QPoint@ABI_4_0 4:4.6.1
 _ZNK11KDecoration15transparentRectEv@ABI_4_0 4:4.6.1
 _ZNK11KDecoration16unobscuredRegionERK7QRegion@ABI_4_0 4:4.6.1
 _ZNK11KDecoration19initialParentWidgetEv@ABI_4_0 4:4.6.1
 _ZNK11KDecoration19providesContextHelpEv@ABI_4_0 4:4.6.1
 _ZNK11KDecoration4iconEv@ABI_4_0 4:4.6.1
 _ZNK11KDecoration7captionEv@ABI_4_0 4:4.6.1
 _ZNK11KDecoration7desktopEv@ABI_4_0 4:4.6.1
 _ZNK11KDecoration7isModalEv@ABI_4_0 4:4.6.1
 _ZNK11KDecoration7isShadeEv@ABI_4_0 4:4.6.1
 _ZNK11KDecoration8geometryEv@ABI_4_0 4:4.6.1
 _ZNK11KDecoration8isActiveEv@ABI_4_0 4:4.6.1
 _ZNK11KDecoration8windowIdEv@ABI_4_0 4:4.6.1
 _ZNK11KDecoration9isMovableEv@ABI_4_0 4:4.6.1
 _ZNK11KDecoration9isPreviewEv@ABI_4_0 4:4.6.1
 _ZNK11KDecoration9keepAboveEv@ABI_4_0 4:4.6.1
 _ZNK11KDecoration9keepBelowEv@ABI_4_0 4:4.6.1
 _ZNK17KCommonDecoration10decorationEv@ABI_4_0 4:4.6.1
 _ZNK17KCommonDecoration10isSetShadeEv@ABI_4_0 4:4.6.1
 _ZNK17KCommonDecoration10metaObjectEv@ABI_4_0 4:4.6.1
 _ZNK17KCommonDecoration10moveWidgetEiiP7QWidget@ABI_4_0 4:4.6.1
 _ZNK17KCommonDecoration10windowTypeEm@ABI_4_0 4:4.6.1
 _ZNK17KCommonDecoration11isCloseableEv@ABI_4_0 4:4.6.1
 _ZNK17KCommonDecoration11isResizableEv@ABI_4_0 4:4.6.1
 _ZNK17KCommonDecoration11isShadeableEv@ABI_4_0 4:4.6.1
 _ZNK17KCommonDecoration11minimumSizeEv@ABI_4_0 4:4.6.1
 _ZNK17KCommonDecoration12iconGeometryEv@ABI_4_0 4:4.6.1
 _ZNK17KCommonDecoration12isToolWindowEv@ABI_4_0 4:4.6.1
 _ZNK17KCommonDecoration12layoutMetricENS_12LayoutMetricEbPK23KCommonDecorationButton@ABI_4_0 4:4.6.1
 _ZNK17KCommonDecoration12maximizeModeEv@ABI_4_0 4:4.6.1
 _ZNK17KCommonDecoration12resetButtonsEv@ABI_4_0 4:4.6.1
 _ZNK17KCommonDecoration12resizeWidgetEiiP7QWidget@ABI_4_0 4:4.6.1
 _ZNK17KCommonDecoration12updateLayoutEv@ABI_4_0 4:4.6.1
 _ZNK17KCommonDecoration13initialWFlagsEv@ABI_4_0 4:4.6.1
 _ZNK17KCommonDecoration13isMaximizableEv@ABI_4_0 4:4.6.1
 _ZNK17KCommonDecoration13isMinimizableEv@ABI_4_0 4:4.6.1
 _ZNK17KCommonDecoration13mousePositionERK6QPoint@ABI_4_0 4:4.6.1
 _ZNK17KCommonDecoration13updateButtonsEv@ABI_4_0 4:4.6.1
 _ZNK17KCommonDecoration15isOnAllDesktopsEv@ABI_4_0 4:4.6.1
 _ZNK17KCommonDecoration15transparentRectEv@ABI_4_0 4:4.6.1
 _ZNK17KCommonDecoration16buttonsLeftWidthEv@ABI_4_0 4:4.6.1
 _ZNK17KCommonDecoration16unobscuredRegionERK7QRegion@ABI_4_0 4:4.6.1
 _ZNK17KCommonDecoration17buttonsRightWidthEv@ABI_4_0 4:4.6.1
 _ZNK17KCommonDecoration18defaultButtonsLeftEv@ABI_4_0 4:4.6.1
 _ZNK17KCommonDecoration19decorationBehaviourENS_19DecorationBehaviourE@ABI_4_0 4:4.6.1
 _ZNK17KCommonDecoration19defaultButtonsRightEv@ABI_4_0 4:4.6.1
 _ZNK17KCommonDecoration19initialParentWidgetEv@ABI_4_0 4:4.6.1
 _ZNK17KCommonDecoration19providesContextHelpEv@ABI_4_0 4:4.6.1
 _ZNK17KCommonDecoration20buttonContainerWidthERK7QVectorIP23KCommonDecorationButtonEb@ABI_4_0 4:4.6.1
 _ZNK17KCommonDecoration4iconEv@ABI_4_0 4:4.6.1
 _ZNK17KCommonDecoration5widthEv@ABI_4_0 4:4.6.1
 _ZNK17KCommonDecoration6heightEv@ABI_4_0 4:4.6.1
 _ZNK17KCommonDecoration6widgetEv@ABI_4_0 4:4.6.1
 _ZNK17KCommonDecoration7bordersERiS0_S0_S0_@ABI_4_0 4:4.6.1
 _ZNK17KCommonDecoration7captionEv@ABI_4_0 4:4.6.1
 _ZNK17KCommonDecoration7desktopEv@ABI_4_0 4:4.6.1
 _ZNK17KCommonDecoration7factoryEv@ABI_4_0 4:4.6.1
 _ZNK17KCommonDecoration7isModalEv@ABI_4_0 4:4.6.1
 _ZNK17KCommonDecoration7isShadeEv@ABI_4_0 4:4.6.1
 _ZNK17KCommonDecoration8geometryEv@ABI_4_0 4:4.6.1
 _ZNK17KCommonDecoration8isActiveEv@ABI_4_0 4:4.6.1
 _ZNK17KCommonDecoration8windowIdEv@ABI_4_0 4:4.6.1
 _ZNK17KCommonDecoration9isMovableEv@ABI_4_0 4:4.6.1
 _ZNK17KCommonDecoration9isPreviewEv@ABI_4_0 4:4.6.1
 _ZNK17KCommonDecoration9keepAboveEv@ABI_4_0 4:4.6.1
 _ZNK17KCommonDecoration9keepBelowEv@ABI_4_0 4:4.6.1
 _ZNK17KCommonDecoration9titleRectEv@ABI_4_0 4:4.6.1
 _ZNK18KDecorationFactory10windowTypeEmP17KDecorationBridge@ABI_4_0 4:4.6.1
 _ZNK18KDecorationFactory11borderSizesEv@ABI_4_0 4:4.6.1
 _ZNK18KDecorationFactory6existsEPK11KDecoration@ABI_4_0 4:4.6.1
 _ZNK18KDecorationOptions12showTooltipsEv@ABI_4_0 4:4.6.1
 _ZNK18KDecorationOptions16titleButtonsLeftEv@ABI_4_0 4:4.6.1
 _ZNK18KDecorationOptions17titleButtonsRightEv@ABI_4_0 4:4.6.1
 _ZNK18KDecorationOptions19preferredBorderSizeEP18KDecorationFactory@ABI_4_0 4:4.6.1
 _ZNK18KDecorationOptions21customButtonPositionsEv@ABI_4_0 4:4.6.1
 _ZNK18KDecorationOptions23operationMaxButtonClickE6QFlagsIN2Qt11MouseButtonEE@ABI_4_0 4:4.6.1
 _ZNK18KDecorationOptions26moveResizeMaximizedWindowsEv@ABI_4_0 4:4.6.1
 _ZNK18KDecorationOptions4fontEbb@ABI_4_0 4:4.6.1
 _ZNK18KDecorationOptions5colorEN18KDecorationDefines9ColorTypeEb@ABI_4_0 4:4.6.1
 _ZNK18KDecorationOptions7paletteEN18KDecorationDefines9ColorTypeEb@ABI_4_0 4:4.6.1
 _ZNK19KDecorationUnstable10metaObjectEv@ABI_4_0 4:4.6.1
 _ZNK19KDecorationUnstable16clientGroupItemsEv@ABI_4_0 4:4.6.1
 _ZNK19KDecorationUnstable17compositingActiveEv@ABI_4_0 4:4.6.1
 _ZNK19KDecorationUnstable7paddingERiS0_S0_S0_@ABI_4_0 4:4.6.1
 _ZNK23KCommonDecorationButton10decorationEv@ABI_4_0 4:4.6.1
 _ZNK23KCommonDecorationButton10metaObjectEv@ABI_4_0 4:4.6.1
 _ZNK23KCommonDecorationButton4typeEv@ABI_4_0 4:4.6.1
 _ZNK23KCommonDecorationButton6isLeftEv@ABI_4_0 4:4.6.1
 _ZNK23KCommonDecorationButton8sizeHintEv@ABI_4_0 4:4.6.1
 _ZNK25KCommonDecorationUnstable10metaObjectEv@ABI_4_0 4:4.6.1
 _ZNK25KCommonDecorationUnstable16clientGroupItemsEv@ABI_4_0 4:4.6.1
 _ZNK25KCommonDecorationUnstable17compositingActiveEv@ABI_4_0 4:4.6.1
 _ZTI11KDecoration@ABI_4_0 4:4.6.1
 _ZTI17KCommonDecoration@ABI_4_0 4:4.6.1
 _ZTI18KDecorationDefines@ABI_4_0 4:4.6.1
 _ZTI18KDecorationFactory@ABI_4_0 4:4.6.1
 _ZTI18KDecorationOptions@ABI_4_0 4:4.6.1
 _ZTI18KDecorationPlugins@ABI_4_0 4:4.6.1
 _ZTI19KDecorationUnstable@ABI_4_0 4:4.6.1
 _ZTI23KCommonDecorationButton@ABI_4_0 4:4.6.1
 _ZTI25KCommonDecorationUnstable@ABI_4_0 4:4.6.1
 _ZTI25KDecorationBridgeUnstable@ABI_4_0 4:4.6.1
 _ZTS11KDecoration@ABI_4_0 4:4.6.1
 _ZTS17KCommonDecoration@ABI_4_0 4:4.6.1
 _ZTS18KDecorationDefines@ABI_4_0 4:4.6.1
 _ZTS18KDecorationFactory@ABI_4_0 4:4.6.1
 _ZTS18KDecorationOptions@ABI_4_0 4:4.6.1
 _ZTS18KDecorationPlugins@ABI_4_0 4:4.6.1
 _ZTS19KDecorationUnstable@ABI_4_0 4:4.6.1
 _ZTS23KCommonDecorationButton@ABI_4_0 4:4.6.1
 _ZTS25KCommonDecorationUnstable@ABI_4_0 4:4.6.1
 _ZTS25KDecorationBridgeUnstable@ABI_4_0 4:4.6.1
 _ZTV11KDecoration@ABI_4_0 4:4.6.1
 _ZTV17KCommonDecoration@ABI_4_0 4:4.6.1
 _ZTV18KDecorationFactory@ABI_4_0 4:4.6.1
 _ZTV18KDecorationOptions@ABI_4_0 4:4.6.1
 _ZTV18KDecorationPlugins@ABI_4_0 4:4.6.1
 _ZTV19KDecorationUnstable@ABI_4_0 4:4.6.1
 _ZTV23KCommonDecorationButton@ABI_4_0 4:4.6.1
 _ZTV25KCommonDecorationUnstable@ABI_4_0 4:4.6.1
 dlrestrictions_data@ABI_4_0 4:4.6.3
 (c++)"non-virtual thunk to KCommonDecorationButton::~KCommonDecorationButton()@ABI_4_0" 4:4.6.1
