# SymbolsHelper-Confirmed: 4:4.6.5 amd64
libplasma-geolocation-interface.so.4 libplasma-geolocation-interface4 #MINVER#
* Build-Depends-Package: kdebase-workspace-dev
 ABI_4_0@ABI_4_0 4:4.6.1
 _ZN19GeolocationProvider11qt_metacallEN11QMetaObject4CallEiPPv@ABI_4_0 4:4.6.1
 _ZN19GeolocationProvider11qt_metacastEPKc@ABI_4_0 4:4.6.1
 _ZN19GeolocationProvider11setAccuracyEi@ABI_4_0 4:4.6.1
 _ZN19GeolocationProvider13requestUpdateE6QFlagsINS_13UpdateTriggerEE@ABI_4_0 4:4.6.1
 _ZN19GeolocationProvider14setIsAvailableEb@ABI_4_0 4:4.6.1
 _ZN19GeolocationProvider16staticMetaObjectE@ABI_4_0 4:4.6.1
 _ZN19GeolocationProvider17setUpdateTriggersE6QFlagsINS_13UpdateTriggerEE@ABI_4_0 4:4.6.1
 _ZN19GeolocationProvider18populateSharedDataEv@ABI_4_0 4:4.6.1
 _ZN19GeolocationProvider19availabilityChangedEPS_@ABI_4_0 4:4.6.1
 _ZN19GeolocationProvider4initEP5QHashI7QString8QVariantEPS0_IS1_iE@ABI_4_0 4:4.6.1
 _ZN19GeolocationProvider4initEv@ABI_4_0 4:4.6.1
 _ZN19GeolocationProvider6updateEv@ABI_4_0 4:4.6.1
 _ZN19GeolocationProvider7setDataERK5QHashI7QString8QVariantE@ABI_4_0 4:4.6.1
 _ZN19GeolocationProvider7setDataERK7QStringRK8QVariant@ABI_4_0 4:4.6.1
 _ZN19GeolocationProvider7updatedEv@ABI_4_0 4:4.6.1
 _ZN19GeolocationProviderC1EP7QObjectRK5QListI8QVariantE@ABI_4_0 4:4.6.1
 _ZN19GeolocationProviderC2EP7QObjectRK5QListI8QVariantE@ABI_4_0 4:4.6.1
 _ZN19GeolocationProviderD0Ev@ABI_4_0 4:4.6.5
 _ZN19GeolocationProviderD1Ev@ABI_4_0 4:4.6.5
 _ZN19GeolocationProviderD2Ev@ABI_4_0 4:4.6.5
 _ZNK19GeolocationProvider10metaObjectEv@ABI_4_0 4:4.6.1
 _ZNK19GeolocationProvider11isAvailableEv@ABI_4_0 4:4.6.1
 _ZNK19GeolocationProvider14updateTriggersEv@ABI_4_0 4:4.6.1
 _ZNK19GeolocationProvider8accuracyEv@ABI_4_0 4:4.6.1
 _ZTI19GeolocationProvider@ABI_4_0 4:4.6.1
 _ZTS19GeolocationProvider@ABI_4_0 4:4.6.1
 _ZTV19GeolocationProvider@ABI_4_0 4:4.6.1
 dlrestrictions_data@ABI_4_0 4:4.6.3
