# SymbolsHelper-Confirmed: 4:4.6.5 amd64
libprocessui.so.4 libprocessui4a #MINVER#
* Build-Depends-Package: kdebase-workspace-dev
 ABI_4_0@ABI_4_0 4:4.6.1
 _ZN11KTextEditVT11qt_metacallEN11QMetaObject4CallEiPPv@ABI_4_0 4:4.6.1
 _ZN11KTextEditVT11qt_metacastEPKc@ABI_4_0 4:4.6.1
 _ZN11KTextEditVT12insertVTCharERK5QChar@ABI_4_0 4:4.6.1
 _ZN11KTextEditVT12insertVTTextERK10QByteArray@ABI_4_0 4:4.6.1
 _ZN11KTextEditVT12insertVTTextERK7QString@ABI_4_0 4:4.6.1
 _ZN11KTextEditVT16staticMetaObjectE@ABI_4_0 4:4.6.1
 _ZN11KTextEditVT23setParseAnsiEscapeCodesEb@ABI_4_0 4:4.6.1
 _ZN11KTextEditVTC1EP7QWidget@ABI_4_0 4:4.6.1
 _ZN11KTextEditVTC2EP7QWidget@ABI_4_0 4:4.6.1
 _ZN11KTextEditVTD0Ev@ABI_4_0 4:4.6.5
 _ZN11KTextEditVTD1Ev@ABI_4_0 4:4.6.5
 _ZN11KTextEditVTD2Ev@ABI_4_0 4:4.6.5
 _ZN12ProcessModel10getProcessEx@ABI_4_0 4:4.6.1
 _ZN12ProcessModel10setIoUnitsENS_5UnitsE@ABI_4_0 4:4.6.1
 _ZN12ProcessModel11qt_metacallEN11QMetaObject4CallEiPPv@ABI_4_0 4:4.6.1
 _ZN12ProcessModel11qt_metacastEPKc@ABI_4_0 4:4.6.1
 _ZN12ProcessModel11setupHeaderEv@ABI_4_0 4:4.6.1
 _ZN12ProcessModel13retranslateUiEv@ABI_4_0 4:4.6.1
 _ZN12ProcessModel13setShowTotalsEb@ABI_4_0 4:4.6.1
 _ZN12ProcessModel13setSimpleModeEb@ABI_4_0 4:4.6.1
 _ZN12ProcessModel16setIoInformationENS_13IoInformationE@ABI_4_0 4:4.6.1
 _ZN12ProcessModel16staticMetaObjectE@ABI_4_0 4:4.6.1
 _ZN12ProcessModel18setShowingTooltipsEb@ABI_4_0 4:4.6.1
 _ZN12ProcessModel21setNormalizedCPUUsageEb@ABI_4_0 4:4.6.1
 _ZN12ProcessModel25setShowCommandLineOptionsEb@ABI_4_0 4:4.6.1
 _ZN12ProcessModel6updateEl6QFlagsIN9KSysGuard9Processes10UpdateFlagEE@ABI_4_0 4:4.6.1
 _ZN12ProcessModel8setUnitsENS_5UnitsE@ABI_4_0 4:4.6.1
 _ZN12ProcessModelC1EP7QObjectRK7QString@ABI_4_0 4:4.6.1
 _ZN12ProcessModelC2EP7QObjectRK7QString@ABI_4_0 4:4.6.1
 _ZN12ProcessModelD0Ev@ABI_4_0 4:4.6.1
 _ZN12ProcessModelD1Ev@ABI_4_0 4:4.6.1
 _ZN12ProcessModelD2Ev@ABI_4_0 4:4.6.1
 _ZN13ProcessFilter11qt_metacallEN11QMetaObject4CallEiPPv@ABI_4_0 4:4.6.1
 _ZN13ProcessFilter11qt_metacastEPKc@ABI_4_0 4:4.6.1
 _ZN13ProcessFilter16staticMetaObjectE@ABI_4_0 4:4.6.1
 _ZN13ProcessFilter9setFilterENS_5StateE@ABI_4_0 4:4.6.1
 _ZN20KSysGuardProcessList10expandInitEv@ABI_4_0 4:4.6.1
 _ZN20KSysGuardProcessList10updateListEv@ABI_4_0 4:4.6.1
 _ZN20KSysGuardProcessList11changeEventEP6QEvent@ABI_4_0 4:4.6.1
 _ZN20KSysGuardProcessList11eventFilterEP7QObjectP6QEvent@ABI_4_0 4:4.6.1
 _ZN20KSysGuardProcessList11qt_metacallEN11QMetaObject4CallEiPPv@ABI_4_0 4:4.6.1
 _ZN20KSysGuardProcessList11qt_metacastEPKc@ABI_4_0 4:4.6.1
 _ZN20KSysGuardProcessList11setStateIntEi@ABI_4_0 4:4.6.1
 _ZN20KSysGuardProcessList12loadSettingsERK12KConfigGroup@ABI_4_0 4:4.6.1
 _ZN20KSysGuardProcessList12processModelEv@ABI_4_0 4:4.6.1
 _ZN20KSysGuardProcessList12rowsInsertedERK11QModelIndexii@ABI_4_0 4:4.6.1
 _ZN20KSysGuardProcessList12saveSettingsER12KConfigGroup@ABI_4_0 4:4.6.1
 _ZN20KSysGuardProcessList13killProcessesERK5QListIxEi@ABI_4_0 4:4.6.1
 _ZN20KSysGuardProcessList13retranslateUiEv@ABI_4_0 4:4.6.1
 _ZN20KSysGuardProcessList13setShowTotalsEb@ABI_4_0 4:4.6.1
 _ZN20KSysGuardProcessList15actionTriggeredEP7QObject@ABI_4_0 4:4.6.1
 _ZN20KSysGuardProcessList15reniceProcessesERK5QListIxEi@ABI_4_0 4:4.6.1
 _ZN20KSysGuardProcessList16selectionChangedEv@ABI_4_0 4:4.6.1
 _ZN20KSysGuardProcessList16staticMetaObjectE@ABI_4_0 4:4.6.1
 _ZN20KSysGuardProcessList17changeIoSchedulerERK5QListIxEN9KSysGuard7Process15IoPriorityClassEi@ABI_4_0 4:4.6.1
 _ZN20KSysGuardProcessList17expandAllChildrenERK11QModelIndex@ABI_4_0 4:4.6.1
 _ZN20KSysGuardProcessList17filterTextChangedERK7QString@ABI_4_0 4:4.6.1
 _ZN20KSysGuardProcessList18changeCpuSchedulerERK5QListIxEN9KSysGuard7Process9SchedulerEi@ABI_4_0 4:4.6.1
 _ZN20KSysGuardProcessList18processListChangedEv@ABI_4_0 4:4.6.1
 _ZN20KSysGuardProcessList18restoreHeaderStateERK10QByteArray@ABI_4_0 4:4.6.1
 _ZN20KSysGuardProcessList19setScriptingEnabledEb@ABI_4_0 4:4.6.1
 _ZN20KSysGuardProcessList20setKillButtonVisibleEb@ABI_4_0 4:4.6.1
 _ZN20KSysGuardProcessList21killSelectedProcessesEv@ABI_4_0 4:4.6.1
 _ZN20KSysGuardProcessList21showColumnContextMenuERK6QPoint@ABI_4_0 4:4.6.1
 _ZN20KSysGuardProcessList22selectAndJumpToProcessEi@ABI_4_0 4:4.6.1
 _ZN20KSysGuardProcessList22setUpdateIntervalMSecsEi@ABI_4_0 4:4.6.1
 _ZN20KSysGuardProcessList22showProcessContextMenuERK11QModelIndex@ABI_4_0 4:4.6.1
 _ZN20KSysGuardProcessList22showProcessContextMenuERK6QPoint@ABI_4_0 4:4.6.1
 _ZN20KSysGuardProcessList23reniceSelectedProcessesEv@ABI_4_0 4:4.6.1
 _ZN20KSysGuardProcessList29sendSignalToSelectedProcessesEib@ABI_4_0 4:4.6.2
 _ZN20KSysGuardProcessList7updatedEv@ABI_4_0 4:4.6.1
 _ZN20KSysGuardProcessList8setStateEN13ProcessFilter5StateE@ABI_4_0 4:4.6.1
 _ZN20KSysGuardProcessList8setUnitsEN12ProcessModel5UnitsE@ABI_4_0 4:4.6.1
 _ZN20KSysGuardProcessList9hideEventEP10QHideEvent@ABI_4_0 4:4.6.1
 _ZN20KSysGuardProcessList9showEventEP10QShowEvent@ABI_4_0 4:4.6.1
 _ZN20KSysGuardProcessListC1EP7QWidgetRK7QString@ABI_4_0 4:4.6.1
 _ZN20KSysGuardProcessListC2EP7QWidgetRK7QString@ABI_4_0 4:4.6.1
 _ZN20KSysGuardProcessListD0Ev@ABI_4_0 4:4.6.1
 _ZN20KSysGuardProcessListD1Ev@ABI_4_0 4:4.6.1
 _ZN20KSysGuardProcessListD2Ev@ABI_4_0 4:4.6.1
 _ZNK11KTextEditVT10metaObjectEv@ABI_4_0 4:4.6.1
 _ZNK11KTextEditVT20parseAnsiEscapeCodesEv@ABI_4_0 4:4.6.1
 _ZNK12ProcessModel10headerDataEiN2Qt11OrientationEi@ABI_4_0 4:4.6.1
 _ZNK12ProcessModel10metaObjectEv@ABI_4_0 4:4.6.1
 _ZNK12ProcessModel10showTotalsEv@ABI_4_0 4:4.6.1
 _ZNK12ProcessModel11columnCountERK11QModelIndex@ABI_4_0 4:4.6.1
 _ZNK12ProcessModel11hasChildrenERK11QModelIndex@ABI_4_0 4:4.6.1
 _ZNK12ProcessModel11isLocalhostEv@ABI_4_0 4:4.6.1
 _ZNK12ProcessModel11totalMemoryEv@ABI_4_0 4:4.6.1
 _ZNK12ProcessModel12canUserLoginEl@ABI_4_0 4:4.6.1
 _ZNK12ProcessModel12hasGUIWindowEx@ABI_4_0 4:4.6.1
 _ZNK12ProcessModel12isSimpleModeEv@ABI_4_0 4:4.6.1
 _ZNK12ProcessModel13ioInformationEv@ABI_4_0 4:4.6.1
 _ZNK12ProcessModel14getQModelIndexEPN9KSysGuard7ProcessEi@ABI_4_0 4:4.6.1
 _ZNK12ProcessModel16formatMemoryInfoExNS_5UnitsEb@ABI_4_0 4:4.6.1
 _ZNK12ProcessModel17getProcessAtIndexEi@ABI_4_0 4:4.6.1
 _ZNK12ProcessModel17isShowingTooltipsEv@ABI_4_0 4:4.6.1
 _ZNK12ProcessModel17processControllerEv@ABI_4_0 4:4.6.1
 _ZNK12ProcessModel19getStringForProcessEPN9KSysGuard7ProcessE@ABI_4_0 4:4.6.1
 _ZNK12ProcessModel20isNormalizedCPUUsageEv@ABI_4_0 4:4.6.1
 _ZNK12ProcessModel24isShowCommandLineOptionsEv@ABI_4_0 4:4.6.1
 _ZNK12ProcessModel4dataERK11QModelIndexi@ABI_4_0 4:4.6.1
 _ZNK12ProcessModel5flagsERK11QModelIndex@ABI_4_0 4:4.6.1
 _ZNK12ProcessModel5indexEiiRK11QModelIndex@ABI_4_0 4:4.6.1
 _ZNK12ProcessModel5unitsEv@ABI_4_0 4:4.6.1
 _ZNK12ProcessModel6parentERK11QModelIndex@ABI_4_0 4:4.6.1
 _ZNK12ProcessModel7ioUnitsEv@ABI_4_0 4:4.6.1
 _ZNK12ProcessModel8hostNameEv@ABI_4_0 4:4.6.1
 _ZNK12ProcessModel8lessThanERK11QModelIndexS2_@ABI_4_0 4:4.6.1
 _ZNK12ProcessModel8mimeDataERK5QListI11QModelIndexE@ABI_4_0 4:4.6.1
 _ZNK12ProcessModel8rowCountERK11QModelIndex@ABI_4_0 4:4.6.1
 _ZNK12ProcessModel9mimeTypesEv@ABI_4_0 4:4.6.1
 _ZNK13ProcessFilter10metaObjectEv@ABI_4_0 4:4.6.1
 _ZNK13ProcessFilter16filterAcceptsRowEiRK11QModelIndex@ABI_4_0 4:4.6.1
 _ZNK13ProcessFilter8lessThanERK11QModelIndexS2_@ABI_4_0 4:4.6.1
 _ZNK20KSysGuardProcessList10metaObjectEv@ABI_4_0 4:4.6.1
 _ZNK20KSysGuardProcessList10showTotalsEv@ABI_4_0 4:4.6.1
 _ZNK20KSysGuardProcessList14filterLineEditEv@ABI_4_0 4:4.6.1
 _ZNK20KSysGuardProcessList16scriptingEnabledEv@ABI_4_0 4:4.6.1
 _ZNK20KSysGuardProcessList17selectedProcessesEv@ABI_4_0 4:4.6.1
 _ZNK20KSysGuardProcessList19isKillButtonVisibleEv@ABI_4_0 4:4.6.1
 _ZNK20KSysGuardProcessList19updateIntervalMSecsEv@ABI_4_0 4:4.6.1
 _ZNK20KSysGuardProcessList21visibleProcessesCountEv@ABI_4_0 4:4.6.1
 _ZNK20KSysGuardProcessList5stateEv@ABI_4_0 4:4.6.1
 _ZNK20KSysGuardProcessList5unitsEv@ABI_4_0 4:4.6.1
 _ZNK20KSysGuardProcessList8treeViewEv@ABI_4_0 4:4.6.1
 _ZTI11KTextEditVT@ABI_4_0 4:4.6.1
 _ZTI12ProcessModel@ABI_4_0 4:4.6.1
 _ZTI13ProcessFilter@ABI_4_0 4:4.6.1
 _ZTI20KSysGuardProcessList@ABI_4_0 4:4.6.1
 _ZTS11KTextEditVT@ABI_4_0 4:4.6.1
 _ZTS12ProcessModel@ABI_4_0 4:4.6.1
 _ZTS13ProcessFilter@ABI_4_0 4:4.6.1
 _ZTS20KSysGuardProcessList@ABI_4_0 4:4.6.1
 _ZTV11KTextEditVT@ABI_4_0 4:4.6.1
 _ZTV12ProcessModel@ABI_4_0 4:4.6.1
 _ZTV13ProcessFilter@ABI_4_0 4:4.6.1
 _ZTV20KSysGuardProcessList@ABI_4_0 4:4.6.1
 dlrestrictions_data@ABI_4_0 4:4.6.3
 (c++)"non-virtual thunk to KSysGuardProcessList::~KSysGuardProcessList()@ABI_4_0" 4:4.6.1
 (c++)"non-virtual thunk to KTextEditVT::~KTextEditVT()@ABI_4_0" 4:4.6.5
