# SymbolsHelper-Confirmed: 4:4.8.3 amd64 hurd-i386 i386 ia64 kfreebsd-amd64 kfreebsd-i386 powerpc s390 s390x
libplasmaclock.so.4abi3 libplasmaclock4abi3 #MINVER#
 ABI_4_3@ABI_4_3 4:4.8.1
 _ZN11ClockApplet10popupEventEb@ABI_4_3 4:4.8.1
 _ZN11ClockApplet10wheelEventEP24QGraphicsSceneWheelEvent@ABI_4_3 4:4.8.1
 _ZN11ClockApplet11qt_metacallEN11QMetaObject4CallEiPPv@ABI_4_3 4:4.8.1
 _ZN11ClockApplet11qt_metacastEPKc@ABI_4_3 4:4.8.1
 _ZN11ClockApplet12focusInEventEP11QFocusEvent@ABI_4_3 4:4.8.1
 _ZN11ClockApplet13configChangedEv@ABI_4_3 4:4.8.1
 _ZN11ClockApplet13localTimezoneEv@ABI_4_3 4:4.8.1
 _ZN11ClockApplet13toolTipHiddenEv@ABI_4_3 4:4.8.1
 _ZN11ClockApplet14configAcceptedEv@ABI_4_3 4:4.8.1
 _ZN11ClockApplet14toolTipContentEv@ABI_4_3 4:4.8.1
 _ZN11ClockApplet15copyToClipboardEP7QAction@ABI_4_3 4:4.8.1
 _ZN11ClockApplet16constraintsEventE6QFlagsIN6Plasma10ConstraintEE@ABI_4_3 4:4.8.1
 _ZN11ClockApplet16staticMetaObjectE@ABI_4_3 4:4.8.1
 _ZN11ClockApplet16updateTipContentEv@ABI_4_3 4:4.8.1
 _ZN11ClockApplet17contextualActionsEv@ABI_4_3 4:4.8.1
 _ZN11ClockApplet17resetLastTimeSeenEv@ABI_4_3 4:4.8.1
 _ZN11ClockApplet17updateClockAppletERK5QHashI7QString8QVariantE@ABI_4_3 4:4.8.1
 _ZN11ClockApplet17updateClockAppletEv@ABI_4_3 4:4.8.1
 _ZN11ClockApplet18clockConfigChangedEv@ABI_4_3 4:4.8.1
 _ZN11ClockApplet18setCurrentTimezoneERK7QString@ABI_4_3 4:4.8.1
 _ZN11ClockApplet18toolTipAboutToShowEv@ABI_4_3 4:4.8.1
 _ZN11ClockApplet19clockConfigAcceptedEv@ABI_4_3 4:4.8.1
 _ZN11ClockApplet19updateClipboardMenuEv@ABI_4_3 4:4.8.1
 _ZN11ClockApplet20changeEngineTimezoneERK7QStringS2_@ABI_4_3 4:4.8.1
 _ZN11ClockApplet21updateClockDefaultsToEv@ABI_4_3 4:4.8.1
 _ZN11ClockApplet22launchTimeControlPanelEv@ABI_4_3 4:4.8.1
 _ZN11ClockApplet25localTimezoneUntranslatedEv@ABI_4_3 4:4.8.1
 _ZN11ClockApplet28createConfigurationInterfaceEP13KConfigDialog@ABI_4_3 4:4.8.1
 _ZN11ClockApplet33createClockConfigurationInterfaceEP13KConfigDialog@ABI_4_3 4:4.8.1
 _ZN11ClockApplet4initEv@ABI_4_3 4:4.8.1
 _ZN11ClockApplet9speakTimeERK5QTime@ABI_4_3 4:4.8.1
 _ZN11ClockAppletC1EP7QObjectRK5QListI8QVariantE@ABI_4_3 4:4.8.1
 _ZN11ClockAppletC2EP7QObjectRK5QListI8QVariantE@ABI_4_3 4:4.8.1
 _ZN11ClockAppletD0Ev@ABI_4_3 4:4.8.1
 _ZN11ClockAppletD1Ev@ABI_4_3 4:4.8.1
 _ZN11ClockAppletD2Ev@ABI_4_3 4:4.8.1
 _ZN6Plasma13CalendarTable10addHolidayE5QHashI7QString8QVariantE@ABI_4_3 4:4.8.1
 _ZN6Plasma13CalendarTable10wheelEventEP24QGraphicsSceneWheelEvent@ABI_4_3 4:4.8.1
 _ZN6Plasma13CalendarTable11dataUpdatedERK7QStringRK5QHashIS1_8QVariantE@ABI_4_3 4:4.8.1
 _ZN6Plasma13CalendarTable11dateChangedERK5QDate@ABI_4_3 4:4.8.1
 _ZN6Plasma13CalendarTable11dateChangedERK5QDateS3_@ABI_4_3 4:4.8.1
 _ZN6Plasma13CalendarTable11dateHoveredERK5QDate@ABI_4_3 4:4.8.1
 _ZN6Plasma13CalendarTable11paintBorderEP8QPainteriii6QFlagsINS0_8CellTypeEERK5QDate@ABI_4_3 4:4.8.1
 _ZN6Plasma13CalendarTable11qt_metacallEN11QMetaObject4CallEiPPv@ABI_4_3 4:4.8.1
 _ZN6Plasma13CalendarTable11qt_metacastEPKc@ABI_4_3 4:4.8.1
 _ZN6Plasma13CalendarTable11resizeEventEP25QGraphicsSceneResizeEvent@ABI_4_3 4:4.8.1
 _ZN6Plasma13CalendarTable11setCalendarEPK15KCalendarSystem@ABI_4_3 4:4.8.1
 _ZN6Plasma13CalendarTable11setCalendarERK7QString@ABI_4_3 4:4.8.1
 _ZN6Plasma13CalendarTable12dateSelectedERK5QDate@ABI_4_3 4:4.8.1
 _ZN6Plasma13CalendarTable12tableClickedEv@ABI_4_3 4:4.8.1
 _ZN6Plasma13CalendarTable13clearHolidaysEv@ABI_4_3 4:4.8.1
 _ZN6Plasma13CalendarTable13displayEventsEv@ABI_4_3 4:4.8.1
 _ZN6Plasma13CalendarTable13eventsChangedEv@ABI_4_3 4:4.8.1
 _ZN6Plasma13CalendarTable14configAcceptedE12KConfigGroup@ABI_4_3 4:4.8.1
 _ZN6Plasma13CalendarTable14hoverMoveEventEP24QGraphicsSceneHoverEvent@ABI_4_3 4:4.8.1
 _ZN6Plasma13CalendarTable14mouseMoveEventEP24QGraphicsSceneMouseEvent@ABI_4_3 4:4.8.1
 _ZN6Plasma13CalendarTable14setCurrentDateERK5QDate@ABI_4_3 4:4.8.1
 _ZN6Plasma13CalendarTable15displayHolidaysEv@ABI_4_3 4:4.8.1
 _ZN6Plasma13CalendarTable15mousePressEventEP24QGraphicsSceneMouseEvent@ABI_4_3 4:4.8.1
 _ZN6Plasma13CalendarTable16setDisplayEventsEb@ABI_4_3 4:4.8.1
 _ZN6Plasma13CalendarTable16staticMetaObjectE@ABI_4_3 4:4.8.1
 _ZN6Plasma13CalendarTable17addHolidaysRegionERK7QStringb@ABI_4_3 4:4.8.1
 _ZN6Plasma13CalendarTable17mouseReleaseEventEP24QGraphicsSceneMouseEvent@ABI_4_3 4:4.8.1
 _ZN6Plasma13CalendarTable18applyConfigurationE12KConfigGroup@ABI_4_3 4:4.8.1
 _ZN6Plasma13CalendarTable18setDisplayHolidaysEb@ABI_4_3 4:4.8.1
 _ZN6Plasma13CalendarTable18writeConfigurationE12KConfigGroup@ABI_4_3 4:4.8.1
 _ZN6Plasma13CalendarTable20clearHolidaysRegionsEv@ABI_4_3 4:4.8.1
 _ZN6Plasma13CalendarTable25setAutomaticUpdateEnabledEb@ABI_4_3 4:4.8.1
 _ZN6Plasma13CalendarTable28createConfigurationInterfaceEP13KConfigDialog@ABI_4_3 4:4.8.1
 _ZN6Plasma13CalendarTable5cellXEi@ABI_4_3 4:4.8.1
 _ZN6Plasma13CalendarTable5cellYEi@ABI_4_3 4:4.8.1
 _ZN6Plasma13CalendarTable5paintEP8QPainterPK24QStyleOptionGraphicsItemP7QWidget@ABI_4_3 4:4.8.1
 _ZN6Plasma13CalendarTable7setDateERK5QDate@ABI_4_3 4:4.8.1
 _ZN6Plasma13CalendarTable9paintCellEP8QPainteriii6QFlagsINS0_8CellTypeEERK5QDate@ABI_4_3 4:4.8.1
 _ZN6Plasma13CalendarTableC1EP15QGraphicsWidget@ABI_4_3 4:4.8.1
 _ZN6Plasma13CalendarTableC1ERK5QDateP15QGraphicsWidget@ABI_4_3 4:4.8.1
 _ZN6Plasma13CalendarTableC2EP15QGraphicsWidget@ABI_4_3 4:4.8.1
 _ZN6Plasma13CalendarTableC2ERK5QDateP15QGraphicsWidget@ABI_4_3 4:4.8.1
 _ZN6Plasma13CalendarTableD0Ev@ABI_4_3 4:4.8.1
 _ZN6Plasma13CalendarTableD1Ev@ABI_4_3 4:4.8.1
 _ZN6Plasma13CalendarTableD2Ev@ABI_4_3 4:4.8.1
 _ZN6Plasma8Calendar11dateChangedERK5QDate@ABI_4_3 4:4.8.1
 _ZN6Plasma8Calendar11dateChangedERK5QDateS3_@ABI_4_3 4:4.8.1
 _ZN6Plasma8Calendar11dateHoveredERK5QDate@ABI_4_3 4:4.8.1
 _ZN6Plasma8Calendar11dateUpdatedEv@ABI_4_3 4:4.8.1
 _ZN6Plasma8Calendar11qt_metacallEN11QMetaObject4CallEiPPv@ABI_4_3 4:4.8.1
 _ZN6Plasma8Calendar11qt_metacastEPKc@ABI_4_3 4:4.8.1
 _ZN6Plasma8Calendar11setCalendarEPK15KCalendarSystem@ABI_4_3 4:4.8.1
 _ZN6Plasma8Calendar11setCalendarERK7QString@ABI_4_3 4:4.8.1
 _ZN6Plasma8Calendar12focusInEventEP11QFocusEvent@ABI_4_3 4:4.8.1
 _ZN6Plasma8Calendar13focusOutEventEP11QFocusEvent@ABI_4_3 4:4.8.1
 _ZN6Plasma8Calendar13keyPressEventEP9QKeyEvent@ABI_4_3 4:4.8.1
 _ZN6Plasma8Calendar14configAcceptedE12KConfigGroup@ABI_4_3 4:4.8.1
 _ZN6Plasma8Calendar14monthTriggeredEv@ABI_4_3 4:4.8.1
 _ZN6Plasma8Calendar14setCurrentDateERK5QDate@ABI_4_3 4:4.8.1
 _ZN6Plasma8Calendar15hideYearSpinBoxEv@ABI_4_3 4:4.8.1
 _ZN6Plasma8Calendar15showYearSpinBoxEv@ABI_4_3 4:4.8.1
 _ZN6Plasma8Calendar16manualDateChangeEv@ABI_4_3 4:4.8.1
 _ZN6Plasma8Calendar16staticMetaObjectE@ABI_4_3 4:4.8.1
 _ZN6Plasma8Calendar17addHolidaysRegionERK7QStringb@ABI_4_3 4:4.8.1
 _ZN6Plasma8Calendar18applyConfigurationE12KConfigGroup@ABI_4_3 4:4.8.1
 _ZN6Plasma8Calendar18writeConfigurationE12KConfigGroup@ABI_4_3 4:4.8.1
 _ZN6Plasma8Calendar20clearHolidaysRegionsEv@ABI_4_3 4:4.8.1
 _ZN6Plasma8Calendar25setAutomaticUpdateEnabledEb@ABI_4_3 4:4.8.1
 _ZN6Plasma8Calendar28createConfigurationInterfaceEP13KConfigDialog@ABI_4_3 4:4.8.1
 _ZN6Plasma8Calendar7setDateERK5QDate@ABI_4_3 4:4.8.1
 _ZN6Plasma8Calendar8goToWeekEi@ABI_4_3 4:4.8.1
 _ZN6Plasma8Calendar8nextYearEv@ABI_4_3 4:4.8.1
 _ZN6Plasma8Calendar8prevYearEv@ABI_4_3 4:4.8.1
 _ZN6Plasma8Calendar9goToTodayEv@ABI_4_3 4:4.8.1
 _ZN6Plasma8Calendar9nextMonthEv@ABI_4_3 4:4.8.1
 _ZN6Plasma8Calendar9prevMonthEv@ABI_4_3 4:4.8.1
 _ZN6Plasma8CalendarC1EP15QGraphicsWidget@ABI_4_3 4:4.8.1
 _ZN6Plasma8CalendarC1ERK5QDateP15QGraphicsWidget@ABI_4_3 4:4.8.1
 _ZN6Plasma8CalendarC2EP15QGraphicsWidget@ABI_4_3 4:4.8.1
 _ZN6Plasma8CalendarC2ERK5QDateP15QGraphicsWidget@ABI_4_3 4:4.8.1
 _ZN6Plasma8CalendarD0Ev@ABI_4_3 4:4.8.1
 _ZN6Plasma8CalendarD1Ev@ABI_4_3 4:4.8.1
 _ZN6Plasma8CalendarD2Ev@ABI_4_3 4:4.8.1
 _ZNK11ClockApplet10metaObjectEv@ABI_4_3 4:4.8.1
 _ZNK11ClockApplet12lastTimeSeenEv@ABI_4_3 4:4.8.1
 _ZNK11ClockApplet14prettyTimezoneEv@ABI_4_3 4:4.8.1
 _ZNK11ClockApplet15currentTimezoneEv@ABI_4_3 4:4.8.1
 _ZNK11ClockApplet15isLocalTimezoneEv@ABI_4_3 4:4.8.1
 _ZNK11ClockApplet21shouldDisplayTimezoneEv@ABI_4_3 4:4.8.1
 _ZNK11ClockApplet8calendarEv@ABI_4_3 4:4.8.1
 (optional=templinst|arch=kfreebsd-amd64 kfreebsd-i386)_ZNK12KConfigGroup9readCheckIbEET_PKcRKS1_@ABI_4_3 4:4.8.3
 _ZNK6Plasma13CalendarTable10metaObjectEv@ABI_4_3 4:4.8.1
 _ZNK6Plasma13CalendarTable11currentDateEv@ABI_4_3 4:4.8.1
 _ZNK6Plasma13CalendarTable11dateDetailsERK5QDate@ABI_4_3 4:4.8.1
 _ZNK6Plasma13CalendarTable14dateHasDetailsERK5QDate@ABI_4_3 4:4.8.1
 _ZNK6Plasma13CalendarTable15holidaysRegionsEv@ABI_4_3 4:4.8.1
 _ZNK6Plasma13CalendarTable22holidaysRegionsDaysOffEv@ABI_4_3 4:4.8.1
 _ZNK6Plasma13CalendarTable24isAutomaticUpdateEnabledEv@ABI_4_3 4:4.8.1
 _ZNK6Plasma13CalendarTable26buildOccurrenceDescriptionERK5QHashI7QString8QVariantE@ABI_4_3 4:4.8.1
 _ZNK6Plasma13CalendarTable4dateEv@ABI_4_3 4:4.8.1
 _ZNK6Plasma13CalendarTable7endDateEv@ABI_4_3 4:4.8.1
 _ZNK6Plasma13CalendarTable8calendarEv@ABI_4_3 4:4.8.1
 _ZNK6Plasma13CalendarTable9startDateEv@ABI_4_3 4:4.8.1
 _ZNK6Plasma8Calendar10metaObjectEv@ABI_4_3 4:4.8.1
 _ZNK6Plasma8Calendar11currentDateEv@ABI_4_3 4:4.8.1
 _ZNK6Plasma8Calendar11dateDetailsERK5QDate@ABI_4_3 4:4.8.1
 _ZNK6Plasma8Calendar13calendarTableEv@ABI_4_3 4:4.8.1
 _ZNK6Plasma8Calendar14dateHasDetailsERK5QDate@ABI_4_3 4:4.8.1
 _ZNK6Plasma8Calendar15holidaysRegionsEv@ABI_4_3 4:4.8.1
 _ZNK6Plasma8Calendar23isDisplayingDateDetailsEv@ABI_4_3 4:4.8.1
 _ZNK6Plasma8Calendar24isAutomaticUpdateEnabledEv@ABI_4_3 4:4.8.1
 _ZNK6Plasma8Calendar4dateEv@ABI_4_3 4:4.8.1
 _ZNK6Plasma8Calendar8calendarEv@ABI_4_3 4:4.8.1
 _ZTI11ClockApplet@ABI_4_3 4:4.8.1
 _ZTIN6Plasma13CalendarTableE@ABI_4_3 4:4.8.1
 _ZTIN6Plasma8CalendarE@ABI_4_3 4:4.8.1
 _ZTS11ClockApplet@ABI_4_3 4:4.8.1
 _ZTSN6Plasma13CalendarTableE@ABI_4_3 4:4.8.1
 _ZTSN6Plasma8CalendarE@ABI_4_3 4:4.8.1
 _ZTV11ClockApplet@ABI_4_3 4:4.8.1
 _ZTVN6Plasma13CalendarTableE@ABI_4_3 4:4.8.1
 _ZTVN6Plasma8CalendarE@ABI_4_3 4:4.8.1
 dlrestrictions_data@ABI_4_3 4:4.8.1
 (c++)"non-virtual thunk to ClockApplet::focusInEvent(QFocusEvent*)@ABI_4_3" 4:4.8.1
 (c++)"non-virtual thunk to ClockApplet::wheelEvent(QGraphicsSceneWheelEvent*)@ABI_4_3" 4:4.8.1
 (c++)"non-virtual thunk to ClockApplet::~ClockApplet()@ABI_4_3" 4:4.8.1
 (c++)"non-virtual thunk to Plasma::Calendar::focusInEvent(QFocusEvent*)@ABI_4_3" 4:4.8.1
 (c++)"non-virtual thunk to Plasma::Calendar::focusOutEvent(QFocusEvent*)@ABI_4_3" 4:4.8.1
 (c++)"non-virtual thunk to Plasma::Calendar::keyPressEvent(QKeyEvent*)@ABI_4_3" 4:4.8.1
 (c++)"non-virtual thunk to Plasma::Calendar::~Calendar()@ABI_4_3" 4:4.8.1
 (c++)"non-virtual thunk to Plasma::CalendarTable::hoverMoveEvent(QGraphicsSceneHoverEvent*)@ABI_4_3" 4:4.8.1
 (c++)"non-virtual thunk to Plasma::CalendarTable::mouseMoveEvent(QGraphicsSceneMouseEvent*)@ABI_4_3" 4:4.8.1
 (c++)"non-virtual thunk to Plasma::CalendarTable::mousePressEvent(QGraphicsSceneMouseEvent*)@ABI_4_3" 4:4.8.1
 (c++)"non-virtual thunk to Plasma::CalendarTable::mouseReleaseEvent(QGraphicsSceneMouseEvent*)@ABI_4_3" 4:4.8.1
 (c++)"non-virtual thunk to Plasma::CalendarTable::paint(QPainter*, QStyleOptionGraphicsItem const*, QWidget*)@ABI_4_3" 4:4.8.1
 (c++)"non-virtual thunk to Plasma::CalendarTable::wheelEvent(QGraphicsSceneWheelEvent*)@ABI_4_3" 4:4.8.1
 (c++)"non-virtual thunk to Plasma::CalendarTable::~CalendarTable()@ABI_4_3" 4:4.8.1
