# SymbolsHelper-Confirmed: 4:4.8.4 armel armhf hurd-i386
libprocesscore.so.4abi1 libprocesscore4abi1 #MINVER#
* Build-Depends-Package: kdebase-workspace-dev
 ABI_4_1@ABI_4_1 4:4.6.1
 _ZN9KSysGuard7Process10setCommandE7QString@ABI_4_1 4:4.6.1
 _ZN9KSysGuard7Process10setSysTimeEx@ABI_4_1 4:4.6.1
 _ZN9KSysGuard7Process11setSysUsageEi@ABI_4_1 4:4.6.1
 _ZN9KSysGuard7Process11setUserTimeEx@ABI_4_1 4:4.6.1
 _ZN9KSysGuard7Process12setNiceLevelEi@ABI_4_1 4:4.6.1
 _ZN9KSysGuard7Process12setTracerpidEx@ABI_4_1 4:4.6.1
 _ZN9KSysGuard7Process12setUserUsageEi@ABI_4_1 4:4.6.1
 _ZN9KSysGuard7Process12setschedulerENS0_9SchedulerE@ABI_4_1 4:4.6.1
 _ZN9KSysGuard7Process13setNumThreadsEi@ABI_4_1 4:4.6.1
 _ZN9KSysGuard7Process14setIoniceLevelEi@ABI_4_1 4:4.6.1
 _ZN9KSysGuard7Process16setTotalSysUsageEi@ABI_4_1 4:4.6.1
 _ZN9KSysGuard7Process17setIoReadSyscallsEx@ABI_4_1 4:4.6.1
 _ZN9KSysGuard7Process17setTotalUserUsageEi@ABI_4_1 4:4.6.1
 _ZN9KSysGuard7Process18setIoPriorityClassENS0_15IoPriorityClassE@ABI_4_1 4:4.6.1
 _ZN9KSysGuard7Process18setIoWriteSyscallsEx@ABI_4_1 4:4.6.1
 _ZN9KSysGuard7Process19setIoCharactersReadEx@ABI_4_1 4:4.6.1
 _ZN9KSysGuard7Process21setIoReadSyscallsRateEl@ABI_4_1 4:4.6.1
 _ZN9KSysGuard7Process22setIoCharactersWrittenEx@ABI_4_1 4:4.6.1
 _ZN9KSysGuard7Process22setIoWriteSyscallsRateEl@ABI_4_1 4:4.6.1
 _ZN9KSysGuard7Process23setIoCharactersReadRateEl@ABI_4_1 4:4.6.1
 _ZN9KSysGuard7Process26setIoCharactersWrittenRateEl@ABI_4_1 4:4.6.1
 _ZN9KSysGuard7Process27setIoCharactersActuallyReadEx@ABI_4_1 4:4.6.1
 _ZN9KSysGuard7Process30setIoCharactersActuallyWrittenEx@ABI_4_1 4:4.6.1
 _ZN9KSysGuard7Process31setIoCharactersActuallyReadRateEl@ABI_4_1 4:4.6.1
 _ZN9KSysGuard7Process34setIoCharactersActuallyWrittenRateEl@ABI_4_1 4:4.6.1
 _ZN9KSysGuard7Process5clearEv@ABI_4_1 4:4.6.1
 _ZN9KSysGuard7Process6setGidEx@ABI_4_1 4:4.6.1
 _ZN9KSysGuard7Process6setTtyE10QByteArray@ABI_4_1 4:4.6.1
 _ZN9KSysGuard7Process6setUidEx@ABI_4_1 4:4.6.1
 _ZN9KSysGuard7Process7setEgidEx@ABI_4_1 4:4.6.1
 _ZN9KSysGuard7Process7setEuidEx@ABI_4_1 4:4.6.1
 _ZN9KSysGuard7Process7setNameE7QString@ABI_4_1 4:4.6.1
 _ZN9KSysGuard7Process7setSgidEx@ABI_4_1 4:4.6.1
 _ZN9KSysGuard7Process7setSuidEx@ABI_4_1 4:4.6.1
 _ZN9KSysGuard7Process8setFsgidEx@ABI_4_1 4:4.6.1
 _ZN9KSysGuard7Process8setFsuidEx@ABI_4_1 4:4.6.1
 _ZN9KSysGuard7Process8setLoginE7QString@ABI_4_1 4:4.6.1
 _ZN9KSysGuard7Process8setVmRSSEx@ABI_4_1 4:4.6.1
 _ZN9KSysGuard7Process9setStatusENS0_13ProcessStatusE@ABI_4_1 4:4.6.1
 _ZN9KSysGuard7Process9setVmSizeEx@ABI_4_1 4:4.6.1
 _ZN9KSysGuard7Process9setVmURSSEx@ABI_4_1 4:4.6.1
 _ZN9KSysGuard7ProcessC1Ev@ABI_4_1 4:4.6.1
 _ZN9KSysGuard7ProcessC1ExxPS0_@ABI_4_1 4:4.6.1
 _ZN9KSysGuard7ProcessC2Ev@ABI_4_1 4:4.6.1
 _ZN9KSysGuard7ProcessC2ExxPS0_@ABI_4_1 4:4.6.1
 _ZN9KSysGuard9Processes10addProcessEll@ABI_4_1 4:4.6.1
 _ZN9KSysGuard9Processes10runCommandERK7QStringi@ABI_4_1 4:4.6.1
 _ZN9KSysGuard9Processes10sendSignalEli@ABI_4_1 4:4.6.1
 _ZN9KSysGuard9Processes11killProcessEl@ABI_4_1 4:4.6.1
 _ZN9KSysGuard9Processes11qt_metacallEN11QMetaObject4CallEiPPv@ABI_4_1 4:4.6.1
 _ZN9KSysGuard9Processes11qt_metacastEPKc@ABI_4_1 4:4.6.1
 _ZN9KSysGuard9Processes11setNicenessEli@ABI_4_1 4:4.6.1
 _ZN9KSysGuard9Processes12setSchedulerElNS_7Process9SchedulerEi@ABI_4_1 4:4.6.1
 _ZN9KSysGuard9Processes13endAddProcessEv@ABI_4_1 4:4.6.1
 _ZN9KSysGuard9Processes13setIoNicenessElNS_7Process15IoPriorityClassEi@ABI_4_1 4:4.6.1
 _ZN9KSysGuard9Processes13updateProcessEPNS_7ProcessEl@ABI_4_1 4:4.6.1
 _ZN9KSysGuard9Processes14answerReceivedEiRK5QListI10QByteArrayE@ABI_4_1 4:4.6.1
 _ZN9KSysGuard9Processes14endMoveProcessEv@ABI_4_1 4:4.6.1
 _ZN9KSysGuard9Processes14processChangedEPNS_7ProcessEb@ABI_4_1 4:4.6.1
 _ZN9KSysGuard9Processes14setViewingTimeERK9QDateTime@ABI_4_1 4:4.6.1
 _ZN9KSysGuard9Processes14useCurrentDataEv@ABI_4_1 4:4.6.1
 _ZN9KSysGuard9Processes15beginAddProcessEPNS_7ProcessE@ABI_4_1 4:4.6.1
 _ZN9KSysGuard9Processes15loadHistoryFileERK7QString@ABI_4_1 4:4.6.1
 _ZN9KSysGuard9Processes16beginMoveProcessEPNS_7ProcessES2_@ABI_4_1 4:4.6.1
 _ZN9KSysGuard9Processes16endRemoveProcessEv@ABI_4_1 4:4.6.1
 _ZN9KSysGuard9Processes16processesUpdatedEv@ABI_4_1 4:4.6.1
 _ZN9KSysGuard9Processes16staticMetaObjectE@ABI_4_1 4:4.6.1
 _ZN9KSysGuard9Processes17updateProcessInfoEPNS_7ProcessE@ABI_4_1 4:4.6.1
 _ZN9KSysGuard9Processes18beginRemoveProcessEPNS_7ProcessE@ABI_4_1 4:4.6.1
 _ZN9KSysGuard9Processes18supportsIoNicenessEv@ABI_4_1 4:4.6.1
 _ZN9KSysGuard9Processes18updateAllProcessesEl6QFlagsINS0_10UpdateFlagEE@ABI_4_1 4:4.6.1
 _ZN9KSysGuard9Processes18updateOrAddProcessEl@ABI_4_1 4:4.6.1
 _ZN9KSysGuard9Processes19totalPhysicalMemoryEv@ABI_4_1 4:4.6.1
 _ZN9KSysGuard9Processes20numberProcessorCoresEv@ABI_4_1 4:4.6.1
 _ZN9KSysGuard9Processes7Private20markProcessesAsEndedEl@ABI_4_1 4:4.6.1
 _ZN9KSysGuard9Processes7PrivateD1Ev@ABI_4_1 4:4.6.1
 _ZN9KSysGuard9Processes7PrivateD2Ev@ABI_4_1 4:4.6.1
 _ZN9KSysGuard9ProcessesC1ERK7QStringP7QObject@ABI_4_1 4:4.6.1
 _ZN9KSysGuard9ProcessesC2ERK7QStringP7QObject@ABI_4_1 4:4.6.1
 _ZN9KSysGuard9ProcessesD0Ev@ABI_4_1 4:4.6.1
 _ZN9KSysGuard9ProcessesD1Ev@ABI_4_1 4:4.6.1
 _ZN9KSysGuard9ProcessesD2Ev@ABI_4_1 4:4.6.1
 _ZNK9KSysGuard7Process16translatedStatusEv@ABI_4_1 4:4.6.1
 _ZNK9KSysGuard7Process17niceLevelAsStringEv@ABI_4_1 4:4.6.1
 _ZNK9KSysGuard7Process17schedulerAsStringEv@ABI_4_1 4:4.6.1
 _ZNK9KSysGuard7Process19ioniceLevelAsStringEv@ABI_4_1 4:4.6.1
 _ZNK9KSysGuard7Process23ioPriorityClassAsStringEv@ABI_4_1 4:4.6.1
 _ZNK9KSysGuard9Processes10getProcessEl@ABI_4_1 4:4.6.1
 _ZNK9KSysGuard9Processes10metaObjectEv@ABI_4_1 4:4.6.1
 _ZNK9KSysGuard9Processes11viewingTimeEv@ABI_4_1 4:4.6.1
 _ZNK9KSysGuard9Processes12processCountEv@ABI_4_1 4:4.6.1
 _ZNK9KSysGuard9Processes15getAllProcessesEv@ABI_4_1 4:4.6.1
 _ZNK9KSysGuard9Processes15historyFileNameEv@ABI_4_1 4:4.6.1
 _ZNK9KSysGuard9Processes18historiesAvailableEv@ABI_4_1 4:4.6.1
 _ZNK9KSysGuard9Processes18isHistoryAvailableEv@ABI_4_1 4:4.6.1
 _ZNK9KSysGuard9Processes9lastErrorEv@ABI_4_1 4:4.6.2
 _ZTIN9KSysGuard9ProcessesE@ABI_4_1 4:4.6.1
 _ZTSN9KSysGuard9ProcessesE@ABI_4_1 4:4.6.1
 _ZTVN9KSysGuard9ProcessesE@ABI_4_1 4:4.6.1
 dlrestrictions_data@ABI_4_1 4:4.6.3
