# SymbolsHelper-Confirmed: 4:4.7.1 amd64
libsolidcontrol.so.4abi2 libsolidcontrol4abi2 #MINVER#
 ABI_4_2@ABI_4_2 4:4.7.1
 _ZN5Solid7Control10IPv4ConfigC1ERK5QListINS0_11IPv4AddressEERKS2_IjERK11QStringListRKS2_INS0_9IPv4RouteEE@ABI_4_2 4:4.7.1
 _ZN5Solid7Control10IPv4ConfigC1ERKS1_@ABI_4_2 4:4.7.1
 _ZN5Solid7Control10IPv4ConfigC1Ev@ABI_4_2 4:4.7.1
 _ZN5Solid7Control10IPv4ConfigC2ERK5QListINS0_11IPv4AddressEERKS2_IjERK11QStringListRKS2_INS0_9IPv4RouteEE@ABI_4_2 4:4.7.1
 _ZN5Solid7Control10IPv4ConfigC2ERKS1_@ABI_4_2 4:4.7.1
 _ZN5Solid7Control10IPv4ConfigC2Ev@ABI_4_2 4:4.7.1
 _ZN5Solid7Control10IPv4ConfigD1Ev@ABI_4_2 4:4.7.1
 _ZN5Solid7Control10IPv4ConfigD2Ev@ABI_4_2 4:4.7.1
 _ZN5Solid7Control10IPv4ConfigaSERKS1_@ABI_4_2 4:4.7.1
 _ZN5Solid7Control10Networking17releaseConnectionEv@ABI_4_2 4:4.7.1
 _ZN5Solid7Control10Networking17requestConnectionEP7QObjectPKc@ABI_4_2 4:4.7.1
 _ZN5Solid7Control11AccessPoint11qt_metacallEN11QMetaObject4CallEiPPv@ABI_4_2 4:4.7.1
 _ZN5Solid7Control11AccessPoint11qt_metacastEPKc@ABI_4_2 4:4.7.1
 _ZN5Solid7Control11AccessPoint12_k_destroyedEP7QObject@ABI_4_2 4:4.7.1
 _ZN5Solid7Control11AccessPoint14bitRateChangedEi@ABI_4_2 4:4.7.1
 _ZN5Solid7Control11AccessPoint16staticMetaObjectE@ABI_4_2 4:4.7.1
 _ZN5Solid7Control11AccessPoint21signalStrengthChangedEi@ABI_4_2 4:4.7.1
 _ZN5Solid7Control11AccessPointC1EP7QObject@ABI_4_2 4:4.7.1
 _ZN5Solid7Control11AccessPointC1ERKS1_@ABI_4_2 4:4.7.1
 _ZN5Solid7Control11AccessPointC1ERNS0_18AccessPointPrivateEP7QObject@ABI_4_2 4:4.7.1
 _ZN5Solid7Control11AccessPointC1ERNS0_18AccessPointPrivateERKS1_@ABI_4_2 4:4.7.1
 _ZN5Solid7Control11AccessPointC2EP7QObject@ABI_4_2 4:4.7.1
 _ZN5Solid7Control11AccessPointC2ERKS1_@ABI_4_2 4:4.7.1
 _ZN5Solid7Control11AccessPointC2ERNS0_18AccessPointPrivateEP7QObject@ABI_4_2 4:4.7.1
 _ZN5Solid7Control11AccessPointC2ERNS0_18AccessPointPrivateERKS1_@ABI_4_2 4:4.7.1
 _ZN5Solid7Control11AccessPointD0Ev@ABI_4_2 4:4.7.1
 _ZN5Solid7Control11AccessPointD1Ev@ABI_4_2 4:4.7.1
 _ZN5Solid7Control11AccessPointD2Ev@ABI_4_2 4:4.7.1
 _ZN5Solid7Control11IPv4AddressC1ERKS1_@ABI_4_2 4:4.7.1
 _ZN5Solid7Control11IPv4AddressC1Ejjj@ABI_4_2 4:4.7.1
 _ZN5Solid7Control11IPv4AddressC1Ev@ABI_4_2 4:4.7.1
 _ZN5Solid7Control11IPv4AddressC2ERKS1_@ABI_4_2 4:4.7.1
 _ZN5Solid7Control11IPv4AddressC2Ejjj@ABI_4_2 4:4.7.1
 _ZN5Solid7Control11IPv4AddressC2Ev@ABI_4_2 4:4.7.1
 _ZN5Solid7Control11IPv4AddressD1Ev@ABI_4_2 4:4.7.1
 _ZN5Solid7Control11IPv4AddressD2Ev@ABI_4_2 4:4.7.1
 _ZN5Solid7Control11IPv4AddressaSERKS1_@ABI_4_2 4:4.7.1
 _ZN5Solid7Control12ModemManager15modemInterfacesEv@ABI_4_2 4:4.7.1
 _ZN5Solid7Control12ModemManager18findModemInterfaceERK7QStringNS0_14ModemInterface16GsmInterfaceTypeE@ABI_4_2 4:4.7.1
 _ZN5Solid7Control12ModemManager8Notifier11qt_metacallEN11QMetaObject4CallEiPPv@ABI_4_2 4:4.7.1
 _ZN5Solid7Control12ModemManager8Notifier11qt_metacastEPKc@ABI_4_2 4:4.7.1
 _ZN5Solid7Control12ModemManager8Notifier13statusChangedENS_10Networking6StatusE@ABI_4_2 4:4.7.1
 _ZN5Solid7Control12ModemManager8Notifier16staticMetaObjectE@ABI_4_2 4:4.7.1
 _ZN5Solid7Control12ModemManager8Notifier19modemInterfaceAddedERK7QString@ABI_4_2 4:4.7.1
 _ZN5Solid7Control12ModemManager8Notifier21modemInterfaceRemovedERK7QString@ABI_4_2 4:4.7.1
 _ZN5Solid7Control12ModemManager8NotifierD0Ev@ABI_4_2 4:4.7.1
 _ZN5Solid7Control12ModemManager8NotifierD1Ev@ABI_4_2 4:4.7.1
 _ZN5Solid7Control12ModemManager8NotifierD2Ev@ABI_4_2 4:4.7.1
 _ZN5Solid7Control12ModemManager8notifierEv@ABI_4_2 4:4.7.1
 _ZN5Solid7Control14ModemInterface11qt_metacallEN11QMetaObject4CallEiPPv@ABI_4_2 4:4.7.1
 _ZN5Solid7Control14ModemInterface11qt_metacastEPKc@ABI_4_2 4:4.7.1
 _ZN5Solid7Control14ModemInterface11typeChangedENS1_4TypeE@ABI_4_2 4:4.7.1
 _ZN5Solid7Control14ModemInterface13deviceChangedERK7QString@ABI_4_2 4:4.7.1
 _ZN5Solid7Control14ModemInterface13driverChangedERK7QString@ABI_4_2 4:4.7.1
 _ZN5Solid7Control14ModemInterface14enabledChangedEb@ABI_4_2 4:4.7.1
 _ZN5Solid7Control14ModemInterface15ipMethodChangedENS1_6MethodE@ABI_4_2 4:4.7.1
 _ZN5Solid7Control14ModemInterface16staticMetaObjectE@ABI_4_2 4:4.7.1
 _ZN5Solid7Control14ModemInterface17slotDeviceChangedERK7QString@ABI_4_2 4:4.7.1
 _ZN5Solid7Control14ModemInterface17slotDriverChangedERK7QString@ABI_4_2 4:4.7.1
 _ZN5Solid7Control14ModemInterface19convertBandToStringENS1_4BandE@ABI_4_2 4:4.7.1
 _ZN5Solid7Control14ModemInterface19convertTypeToStringENS1_4TypeE@ABI_4_2 4:4.7.1
 _ZN5Solid7Control14ModemInterface19masterDeviceChangedERK7QString@ABI_4_2 4:4.7.1
 _ZN5Solid7Control14ModemInterface21unlockRequiredChangedERK7QString@ABI_4_2 4:4.7.1
 _ZN5Solid7Control14ModemInterface23slotMasterDeviceChangedERK7QString@ABI_4_2 4:4.7.1
 _ZN5Solid7Control14ModemInterface25slotUnlockRequiredChangedERK7QString@ABI_4_2 4:4.7.1
 _ZN5Solid7Control14ModemInterface26convertAllowedModeToStringENS1_11AllowedModeE@ABI_4_2 4:4.7.1
 _ZN5Solid7Control14ModemInterface31convertAccessTechnologyToStringENS1_16AccessTechnologyE@ABI_4_2 4:4.7.1
 _ZN5Solid7Control14ModemInterfaceC1EP7QObject@ABI_4_2 4:4.7.1
 _ZN5Solid7Control14ModemInterfaceC1ERKS1_@ABI_4_2 4:4.7.1
 _ZN5Solid7Control14ModemInterfaceC1ERNS0_21ModemInterfacePrivateEP7QObject@ABI_4_2 4:4.7.1
 _ZN5Solid7Control14ModemInterfaceC1ERNS0_21ModemInterfacePrivateERKS1_@ABI_4_2 4:4.7.1
 _ZN5Solid7Control14ModemInterfaceC2EP7QObject@ABI_4_2 4:4.7.1
 _ZN5Solid7Control14ModemInterfaceC2ERKS1_@ABI_4_2 4:4.7.1
 _ZN5Solid7Control14ModemInterfaceC2ERNS0_21ModemInterfacePrivateEP7QObject@ABI_4_2 4:4.7.1
 _ZN5Solid7Control14ModemInterfaceC2ERNS0_21ModemInterfacePrivateERKS1_@ABI_4_2 4:4.7.1
 _ZN5Solid7Control14ModemInterfaceD0Ev@ABI_4_2 4:4.7.1
 _ZN5Solid7Control14ModemInterfaceD1Ev@ABI_4_2 4:4.7.1
 _ZN5Solid7Control14ModemInterfaceD2Ev@ABI_4_2 4:4.7.1
 _ZN5Solid7Control14NetworkManager13isWwanEnabledEv@ABI_4_2 4:4.7.1
 _ZN5Solid7Control14NetworkManager14setWwanEnabledEb@ABI_4_2 4:4.7.1
 _ZN5Solid7Control14NetworkManager17activeConnectionsEv@ABI_4_2 4:4.7.1
 _ZN5Solid7Control14NetworkManager17isWirelessEnabledEv@ABI_4_2 4:4.7.1
 _ZN5Solid7Control14NetworkManager17networkInterfacesEv@ABI_4_2 4:4.7.1
 _ZN5Solid7Control14NetworkManager18activateConnectionERK7QStringS4_RK4QMapIS2_8QVariantE@ABI_4_2 4:4.7.1
 _ZN5Solid7Control14NetworkManager18setWirelessEnabledEb@ABI_4_2 4:4.7.1
 _ZN5Solid7Control14NetworkManager19isNetworkingEnabledEv@ABI_4_2 4:4.7.1
 _ZN5Solid7Control14NetworkManager20deactivateConnectionERK7QString@ABI_4_2 4:4.7.1
 _ZN5Solid7Control14NetworkManager20findNetworkInterfaceERK7QString@ABI_4_2 4:4.7.1
 _ZN5Solid7Control14NetworkManager20setNetworkingEnabledEb@ABI_4_2 4:4.7.1
 _ZN5Solid7Control14NetworkManager21isWwanHardwareEnabledEv@ABI_4_2 4:4.7.1
 _ZN5Solid7Control14NetworkManager23supportedInterfaceTypesEv@ABI_4_2 4:4.7.1
 _ZN5Solid7Control14NetworkManager25isWirelessHardwareEnabledEv@ABI_4_2 4:4.7.1
 _ZN5Solid7Control14NetworkManager6statusEv@ABI_4_2 4:4.7.1
 _ZN5Solid7Control14NetworkManager8Notifier11qt_metacallEN11QMetaObject4CallEiPPv@ABI_4_2 4:4.7.1
 _ZN5Solid7Control14NetworkManager8Notifier11qt_metacastEPKc@ABI_4_2 4:4.7.1
 _ZN5Solid7Control14NetworkManager8Notifier13statusChangedENS_10Networking6StatusE@ABI_4_2 4:4.7.1
 _ZN5Solid7Control14NetworkManager8Notifier16staticMetaObjectE@ABI_4_2 4:4.7.1
 _ZN5Solid7Control14NetworkManager8Notifier18wwanEnabledChangedEb@ABI_4_2 4:4.7.1
 _ZN5Solid7Control14NetworkManager8Notifier21networkInterfaceAddedERK7QString@ABI_4_2 4:4.7.1
 _ZN5Solid7Control14NetworkManager8Notifier22wirelessEnabledChangedEb@ABI_4_2 4:4.7.1
 _ZN5Solid7Control14NetworkManager8Notifier23networkInterfaceRemovedERK7QString@ABI_4_2 4:4.7.1
 _ZN5Solid7Control14NetworkManager8Notifier24activeConnectionsChangedEv@ABI_4_2 4:4.7.1
 _ZN5Solid7Control14NetworkManager8Notifier24networkingEnabledChangedEb@ABI_4_2 4:4.7.1
 _ZN5Solid7Control14NetworkManager8Notifier26wwanHardwareEnabledChangedEb@ABI_4_2 4:4.7.1
 _ZN5Solid7Control14NetworkManager8Notifier30wirelessHardwareEnabledChangedEb@ABI_4_2 4:4.7.1
 _ZN5Solid7Control14NetworkManager8NotifierD0Ev@ABI_4_2 4:4.7.1
 _ZN5Solid7Control14NetworkManager8NotifierD1Ev@ABI_4_2 4:4.7.1
 _ZN5Solid7Control14NetworkManager8NotifierD2Ev@ABI_4_2 4:4.7.1
 _ZN5Solid7Control14NetworkManager8notifierEv@ABI_4_2 4:4.7.1
 _ZN5Solid7Control16NetworkInterface11qt_metacallEN11QMetaObject4CallEiPPv@ABI_4_2 4:4.7.1
 _ZN5Solid7Control16NetworkInterface11qt_metacastEPKc@ABI_4_2 4:4.7.1
 _ZN5Solid7Control16NetworkInterface13linkUpChangedEb@ABI_4_2 4:4.7.1
 _ZN5Solid7Control16NetworkInterface16ipDetailsChangedEv@ABI_4_2 4:4.7.1
 _ZN5Solid7Control16NetworkInterface16staticMetaObjectE@ABI_4_2 4:4.7.1
 _ZN5Solid7Control16NetworkInterface22connectionStateChangedEi@ABI_4_2 4:4.7.1
 _ZN5Solid7Control16NetworkInterface22connectionStateChangedEiii@ABI_4_2 4:4.7.1
 _ZN5Solid7Control16NetworkInterfaceC1EP7QObject@ABI_4_2 4:4.7.1
 _ZN5Solid7Control16NetworkInterfaceC1ERKS1_@ABI_4_2 4:4.7.1
 _ZN5Solid7Control16NetworkInterfaceC1ERNS0_23NetworkInterfacePrivateEP7QObject@ABI_4_2 4:4.7.1
 _ZN5Solid7Control16NetworkInterfaceC1ERNS0_23NetworkInterfacePrivateERKS1_@ABI_4_2 4:4.7.1
 _ZN5Solid7Control16NetworkInterfaceC2EP7QObject@ABI_4_2 4:4.7.1
 _ZN5Solid7Control16NetworkInterfaceC2ERKS1_@ABI_4_2 4:4.7.1
 _ZN5Solid7Control16NetworkInterfaceC2ERNS0_23NetworkInterfacePrivateEP7QObject@ABI_4_2 4:4.7.1
 _ZN5Solid7Control16NetworkInterfaceC2ERNS0_23NetworkInterfacePrivateERKS1_@ABI_4_2 4:4.7.1
 _ZN5Solid7Control16NetworkInterfaceD0Ev@ABI_4_2 4:4.7.1
 _ZN5Solid7Control16NetworkInterfaceD1Ev@ABI_4_2 4:4.7.1
 _ZN5Solid7Control16NetworkInterfaceD2Ev@ABI_4_2 4:4.7.1
 _ZN5Solid7Control18BtNetworkInterface11qt_metacallEN11QMetaObject4CallEiPPv@ABI_4_2 4:4.7.1
 _ZN5Solid7Control18BtNetworkInterface11qt_metacastEPKc@ABI_4_2 4:4.7.1
 _ZN5Solid7Control18BtNetworkInterface12_k_destroyedEP7QObject@ABI_4_2 4:4.7.1
 _ZN5Solid7Control18BtNetworkInterface15makeConnectionsEP7QObject@ABI_4_2 4:4.7.1
 _ZN5Solid7Control18BtNetworkInterface16staticMetaObjectE@ABI_4_2 4:4.7.1
 _ZN5Solid7Control18BtNetworkInterfaceC1EP7QObject@ABI_4_2 4:4.7.1
 _ZN5Solid7Control18BtNetworkInterfaceC1ERKS1_@ABI_4_2 4:4.7.1
 _ZN5Solid7Control18BtNetworkInterfaceC1ERNS0_25BtNetworkInterfacePrivateEP7QObject@ABI_4_2 4:4.7.1
 _ZN5Solid7Control18BtNetworkInterfaceC1ERNS0_25BtNetworkInterfacePrivateERKS1_@ABI_4_2 4:4.7.1
 _ZN5Solid7Control18BtNetworkInterfaceC2EP7QObject@ABI_4_2 4:4.7.1
 _ZN5Solid7Control18BtNetworkInterfaceC2ERKS1_@ABI_4_2 4:4.7.1
 _ZN5Solid7Control18BtNetworkInterfaceC2ERNS0_25BtNetworkInterfacePrivateEP7QObject@ABI_4_2 4:4.7.1
 _ZN5Solid7Control18BtNetworkInterfaceC2ERNS0_25BtNetworkInterfacePrivateERKS1_@ABI_4_2 4:4.7.1
 _ZN5Solid7Control18BtNetworkInterfaceD0Ev@ABI_4_2 4:4.7.1
 _ZN5Solid7Control18BtNetworkInterfaceD1Ev@ABI_4_2 4:4.7.1
 _ZN5Solid7Control18BtNetworkInterfaceD2Ev@ABI_4_2 4:4.7.1
 _ZN5Solid7Control18ManagerBasePrivate24_k_forcePreloadedBackendEPKcP7QObject@ABI_4_2 4:4.7.1
 _ZN5Solid7Control18ModemCdmaInterface11qt_metacallEN11QMetaObject4CallEiPPv@ABI_4_2 4:4.7.1
 _ZN5Solid7Control18ModemCdmaInterface11qt_metacastEPKc@ABI_4_2 4:4.7.1
 _ZN5Solid7Control18ModemCdmaInterface12_k_destroyedEP7QObject@ABI_4_2 4:4.7.1
 _ZN5Solid7Control18ModemCdmaInterface15makeConnectionsEP7QObject@ABI_4_2 4:4.7.1
 _ZN5Solid7Control18ModemCdmaInterface16staticMetaObjectE@ABI_4_2 4:4.7.1
 _ZN5Solid7Control18ModemCdmaInterface20signalQualityChangedEj@ABI_4_2 4:4.7.1
 _ZN5Solid7Control18ModemCdmaInterface24registrationStateChangedENS1_17RegistrationStateES2_@ABI_4_2 4:4.7.1
 _ZN5Solid7Control18ModemCdmaInterfaceC1EP7QObject@ABI_4_2 4:4.7.1
 _ZN5Solid7Control18ModemCdmaInterfaceC1ERKS1_@ABI_4_2 4:4.7.1
 _ZN5Solid7Control18ModemCdmaInterfaceC2EP7QObject@ABI_4_2 4:4.7.1
 _ZN5Solid7Control18ModemCdmaInterfaceC2ERKS1_@ABI_4_2 4:4.7.1
 _ZN5Solid7Control18ModemCdmaInterfaceD0Ev@ABI_4_2 4:4.7.1
 _ZN5Solid7Control18ModemCdmaInterfaceD1Ev@ABI_4_2 4:4.7.1
 _ZN5Solid7Control18ModemCdmaInterfaceD2Ev@ABI_4_2 4:4.7.1
 _ZN5Solid7Control19GsmNetworkInterface11qt_metacallEN11QMetaObject4CallEiPPv@ABI_4_2 4:4.7.1
 _ZN5Solid7Control19GsmNetworkInterface11qt_metacastEPKc@ABI_4_2 4:4.7.1
 _ZN5Solid7Control19GsmNetworkInterface12_k_destroyedEP7QObject@ABI_4_2 4:4.7.1
 _ZN5Solid7Control19GsmNetworkInterface15makeConnectionsEP7QObject@ABI_4_2 4:4.7.1
 _ZN5Solid7Control19GsmNetworkInterface16staticMetaObjectE@ABI_4_2 4:4.7.1
 _ZN5Solid7Control19GsmNetworkInterface17getModemCardIfaceEv@ABI_4_2 4:4.7.1
 _ZN5Solid7Control19GsmNetworkInterface17setModemCardIfaceEPNS0_21ModemGsmCardInterfaceE@ABI_4_2 4:4.7.1
 _ZN5Solid7Control19GsmNetworkInterface20getModemNetworkIfaceEv@ABI_4_2 4:4.7.1
 _ZN5Solid7Control19GsmNetworkInterface20setModemNetworkIfaceEPNS0_24ModemGsmNetworkInterfaceE@ABI_4_2 4:4.7.1
 _ZN5Solid7Control19GsmNetworkInterfaceC1EP7QObject@ABI_4_2 4:4.7.1
 _ZN5Solid7Control19GsmNetworkInterfaceC1ERKS1_@ABI_4_2 4:4.7.1
 _ZN5Solid7Control19GsmNetworkInterfaceC1ERNS0_26GsmNetworkInterfacePrivateEP7QObject@ABI_4_2 4:4.7.1
 _ZN5Solid7Control19GsmNetworkInterfaceC1ERNS0_26GsmNetworkInterfacePrivateERKS1_@ABI_4_2 4:4.7.1
 _ZN5Solid7Control19GsmNetworkInterfaceC2EP7QObject@ABI_4_2 4:4.7.1
 _ZN5Solid7Control19GsmNetworkInterfaceC2ERKS1_@ABI_4_2 4:4.7.1
 _ZN5Solid7Control19GsmNetworkInterfaceC2ERNS0_26GsmNetworkInterfacePrivateEP7QObject@ABI_4_2 4:4.7.1
 _ZN5Solid7Control19GsmNetworkInterfaceC2ERNS0_26GsmNetworkInterfacePrivateERKS1_@ABI_4_2 4:4.7.1
 _ZN5Solid7Control19GsmNetworkInterfaceD0Ev@ABI_4_2 4:4.7.1
 _ZN5Solid7Control19GsmNetworkInterfaceD1Ev@ABI_4_2 4:4.7.1
 _ZN5Solid7Control19GsmNetworkInterfaceD2Ev@ABI_4_2 4:4.7.1
 _ZN5Solid7Control20CdmaNetworkInterface11qt_metacallEN11QMetaObject4CallEiPPv@ABI_4_2 4:4.7.1
 _ZN5Solid7Control20CdmaNetworkInterface11qt_metacastEPKc@ABI_4_2 4:4.7.1
 _ZN5Solid7Control20CdmaNetworkInterface12_k_destroyedEP7QObject@ABI_4_2 4:4.7.1
 _ZN5Solid7Control20CdmaNetworkInterface15makeConnectionsEP7QObject@ABI_4_2 4:4.7.1
 _ZN5Solid7Control20CdmaNetworkInterface16staticMetaObjectE@ABI_4_2 4:4.7.1
 _ZN5Solid7Control20CdmaNetworkInterfaceC1EP7QObject@ABI_4_2 4:4.7.1
 _ZN5Solid7Control20CdmaNetworkInterfaceC1ERKS1_@ABI_4_2 4:4.7.1
 _ZN5Solid7Control20CdmaNetworkInterfaceC1ERNS0_27CdmaNetworkInterfacePrivateEP7QObject@ABI_4_2 4:4.7.1
 _ZN5Solid7Control20CdmaNetworkInterfaceC1ERNS0_27CdmaNetworkInterfacePrivateERKS1_@ABI_4_2 4:4.7.1
 _ZN5Solid7Control20CdmaNetworkInterfaceC2EP7QObject@ABI_4_2 4:4.7.1
 _ZN5Solid7Control20CdmaNetworkInterfaceC2ERKS1_@ABI_4_2 4:4.7.1
 _ZN5Solid7Control20CdmaNetworkInterfaceC2ERNS0_27CdmaNetworkInterfacePrivateEP7QObject@ABI_4_2 4:4.7.1
 _ZN5Solid7Control20CdmaNetworkInterfaceC2ERNS0_27CdmaNetworkInterfacePrivateERKS1_@ABI_4_2 4:4.7.1
 _ZN5Solid7Control20CdmaNetworkInterfaceD0Ev@ABI_4_2 4:4.7.1
 _ZN5Solid7Control20CdmaNetworkInterfaceD1Ev@ABI_4_2 4:4.7.1
 _ZN5Solid7Control20CdmaNetworkInterfaceD2Ev@ABI_4_2 4:4.7.1
 _ZN5Solid7Control20ModemGsmHsoInterface11qt_metacallEN11QMetaObject4CallEiPPv@ABI_4_2 4:4.7.1
 _ZN5Solid7Control20ModemGsmHsoInterface11qt_metacastEPKc@ABI_4_2 4:4.7.1
 _ZN5Solid7Control20ModemGsmHsoInterface12_k_destroyedEP7QObject@ABI_4_2 4:4.7.1
 _ZN5Solid7Control20ModemGsmHsoInterface15makeConnectionsEP7QObject@ABI_4_2 4:4.7.1
 _ZN5Solid7Control20ModemGsmHsoInterface16staticMetaObjectE@ABI_4_2 4:4.7.1
 _ZN5Solid7Control20ModemGsmHsoInterfaceC1EP7QObject@ABI_4_2 4:4.7.1
 _ZN5Solid7Control20ModemGsmHsoInterfaceC1ERKS1_@ABI_4_2 4:4.7.1
 _ZN5Solid7Control20ModemGsmHsoInterfaceC2EP7QObject@ABI_4_2 4:4.7.1
 _ZN5Solid7Control20ModemGsmHsoInterfaceC2ERKS1_@ABI_4_2 4:4.7.1
 _ZN5Solid7Control20ModemGsmHsoInterfaceD0Ev@ABI_4_2 4:4.7.1
 _ZN5Solid7Control20ModemGsmHsoInterfaceD1Ev@ABI_4_2 4:4.7.1
 _ZN5Solid7Control20ModemGsmHsoInterfaceD2Ev@ABI_4_2 4:4.7.1
 _ZN5Solid7Control20ModemGsmSmsInterface11qt_metacallEN11QMetaObject4CallEiPPv@ABI_4_2 4:4.7.1
 _ZN5Solid7Control20ModemGsmSmsInterface11qt_metacastEPKc@ABI_4_2 4:4.7.1
 _ZN5Solid7Control20ModemGsmSmsInterface11smsReceivedEib@ABI_4_2 4:4.7.1
 _ZN5Solid7Control20ModemGsmSmsInterface12_k_destroyedEP7QObject@ABI_4_2 4:4.7.1
 _ZN5Solid7Control20ModemGsmSmsInterface15makeConnectionsEP7QObject@ABI_4_2 4:4.7.1
 _ZN5Solid7Control20ModemGsmSmsInterface16staticMetaObjectE@ABI_4_2 4:4.7.1
 _ZN5Solid7Control20ModemGsmSmsInterface9completedEib@ABI_4_2 4:4.7.1
 _ZN5Solid7Control20ModemGsmSmsInterfaceC1EP7QObject@ABI_4_2 4:4.7.1
 _ZN5Solid7Control20ModemGsmSmsInterfaceC1ERKS1_@ABI_4_2 4:4.7.1
 _ZN5Solid7Control20ModemGsmSmsInterfaceC2EP7QObject@ABI_4_2 4:4.7.1
 _ZN5Solid7Control20ModemGsmSmsInterfaceC2ERKS1_@ABI_4_2 4:4.7.1
 _ZN5Solid7Control20ModemGsmSmsInterfaceD0Ev@ABI_4_2 4:4.7.1
 _ZN5Solid7Control20ModemGsmSmsInterfaceD1Ev@ABI_4_2 4:4.7.1
 _ZN5Solid7Control20ModemGsmSmsInterfaceD2Ev@ABI_4_2 4:4.7.1
 _ZN5Solid7Control21ModemGsmCardInterface11qt_metacallEN11QMetaObject4CallEiPPv@ABI_4_2 4:4.7.1
 _ZN5Solid7Control21ModemGsmCardInterface11qt_metacastEPKc@ABI_4_2 4:4.7.1
 _ZN5Solid7Control21ModemGsmCardInterface12_k_destroyedEP7QObject@ABI_4_2 4:4.7.1
 _ZN5Solid7Control21ModemGsmCardInterface15makeConnectionsEP7QObject@ABI_4_2 4:4.7.1
 _ZN5Solid7Control21ModemGsmCardInterface16staticMetaObjectE@ABI_4_2 4:4.7.1
 _ZN5Solid7Control21ModemGsmCardInterface21supportedBandsChangedENS0_14ModemInterface4BandE@ABI_4_2 4:4.7.1
 _ZN5Solid7Control21ModemGsmCardInterface21supportedModesChangedENS0_14ModemInterface4ModeE@ABI_4_2 4:4.7.1
 _ZN5Solid7Control21ModemGsmCardInterfaceC1EP7QObject@ABI_4_2 4:4.7.1
 _ZN5Solid7Control21ModemGsmCardInterfaceC1ERKS1_@ABI_4_2 4:4.7.1
 _ZN5Solid7Control21ModemGsmCardInterfaceC2EP7QObject@ABI_4_2 4:4.7.1
 _ZN5Solid7Control21ModemGsmCardInterfaceC2ERKS1_@ABI_4_2 4:4.7.1
 _ZN5Solid7Control21ModemGsmCardInterfaceD0Ev@ABI_4_2 4:4.7.1
 _ZN5Solid7Control21ModemGsmCardInterfaceD1Ev@ABI_4_2 4:4.7.1
 _ZN5Solid7Control21ModemGsmCardInterfaceD2Ev@ABI_4_2 4:4.7.1
 _ZN5Solid7Control21ModemGsmUssdInterface11qt_metacallEN11QMetaObject4CallEiPPv@ABI_4_2 4:4.7.1
 _ZN5Solid7Control21ModemGsmUssdInterface11qt_metacastEPKc@ABI_4_2 4:4.7.1
 _ZN5Solid7Control21ModemGsmUssdInterface12_k_destroyedEP7QObject@ABI_4_2 4:4.7.1
 _ZN5Solid7Control21ModemGsmUssdInterface12stateChangedERK7QString@ABI_4_2 4:4.7.1
 _ZN5Solid7Control21ModemGsmUssdInterface15makeConnectionsEP7QObject@ABI_4_2 4:4.7.1
 _ZN5Solid7Control21ModemGsmUssdInterface16slotStateChangedERK7QString@ABI_4_2 4:4.7.1
 _ZN5Solid7Control21ModemGsmUssdInterface16staticMetaObjectE@ABI_4_2 4:4.7.1
 _ZN5Solid7Control21ModemGsmUssdInterface21networkRequestChangedERK7QString@ABI_4_2 4:4.7.1
 _ZN5Solid7Control21ModemGsmUssdInterface25slotNetworkRequestChangedERK7QString@ABI_4_2 4:4.7.1
 _ZN5Solid7Control21ModemGsmUssdInterface26networkNotificationChangedERK7QString@ABI_4_2 4:4.7.1
 _ZN5Solid7Control21ModemGsmUssdInterface30slotNetworkNotificationChangedERK7QString@ABI_4_2 4:4.7.1
 _ZN5Solid7Control21ModemGsmUssdInterfaceC1EP7QObject@ABI_4_2 4:4.7.1
 _ZN5Solid7Control21ModemGsmUssdInterfaceC1ERKS1_@ABI_4_2 4:4.7.1
 _ZN5Solid7Control21ModemGsmUssdInterfaceC2EP7QObject@ABI_4_2 4:4.7.1
 _ZN5Solid7Control21ModemGsmUssdInterfaceC2ERKS1_@ABI_4_2 4:4.7.1
 _ZN5Solid7Control21ModemGsmUssdInterfaceD0Ev@ABI_4_2 4:4.7.1
 _ZN5Solid7Control21ModemGsmUssdInterfaceD1Ev@ABI_4_2 4:4.7.1
 _ZN5Solid7Control21ModemGsmUssdInterfaceD2Ev@ABI_4_2 4:4.7.1
 _ZN5Solid7Control21ModemManagerInterface11deviceAddedER7QString@ABI_4_2 4:4.7.1
 _ZN5Solid7Control21ModemManagerInterface11qt_metacallEN11QMetaObject4CallEiPPv@ABI_4_2 4:4.7.1
 _ZN5Solid7Control21ModemManagerInterface11qt_metacastEPKc@ABI_4_2 4:4.7.1
 _ZN5Solid7Control21ModemManagerInterface13deviceRemovedER7QString@ABI_4_2 4:4.7.1
 _ZN5Solid7Control21ModemManagerInterface16staticMetaObjectE@ABI_4_2 4:4.7.1
 _ZN5Solid7Control21ModemManagerInterfaceC1EP7QObject@ABI_4_2 4:4.7.1
 _ZN5Solid7Control21ModemManagerInterfaceC1ERKS1_@ABI_4_2 4:4.7.1
 _ZN5Solid7Control21ModemManagerInterfaceC1ERNS0_28ModemManagerInterfacePrivateEP7QObject@ABI_4_2 4:4.7.1
 _ZN5Solid7Control21ModemManagerInterfaceC1ERNS0_28ModemManagerInterfacePrivateERKS1_@ABI_4_2 4:4.7.1
 _ZN5Solid7Control21ModemManagerInterfaceC2EP7QObject@ABI_4_2 4:4.7.1
 _ZN5Solid7Control21ModemManagerInterfaceC2ERKS1_@ABI_4_2 4:4.7.1
 _ZN5Solid7Control21ModemManagerInterfaceC2ERNS0_28ModemManagerInterfacePrivateEP7QObject@ABI_4_2 4:4.7.1
 _ZN5Solid7Control21ModemManagerInterfaceC2ERNS0_28ModemManagerInterfacePrivateERKS1_@ABI_4_2 4:4.7.1
 _ZN5Solid7Control21ModemManagerInterfaceD0Ev@ABI_4_2 4:4.7.1
 _ZN5Solid7Control21ModemManagerInterfaceD1Ev@ABI_4_2 4:4.7.1
 _ZN5Solid7Control21ModemManagerInterfaceD2Ev@ABI_4_2 4:4.7.1
 _ZN5Solid7Control21WiredNetworkInterface11qt_metacallEN11QMetaObject4CallEiPPv@ABI_4_2 4:4.7.1
 _ZN5Solid7Control21WiredNetworkInterface11qt_metacastEPKc@ABI_4_2 4:4.7.1
 _ZN5Solid7Control21WiredNetworkInterface12_k_destroyedEP7QObject@ABI_4_2 4:4.7.1
 _ZN5Solid7Control21WiredNetworkInterface14bitRateChangedEi@ABI_4_2 4:4.7.1
 _ZN5Solid7Control21WiredNetworkInterface14carrierChangedEb@ABI_4_2 4:4.7.1
 _ZN5Solid7Control21WiredNetworkInterface16staticMetaObjectE@ABI_4_2 4:4.7.1
 _ZN5Solid7Control21WiredNetworkInterfaceC1EP7QObject@ABI_4_2 4:4.7.1
 _ZN5Solid7Control21WiredNetworkInterfaceC1ERKS1_@ABI_4_2 4:4.7.1
 _ZN5Solid7Control21WiredNetworkInterfaceC1ERNS0_28WiredNetworkInterfacePrivateEP7QObject@ABI_4_2 4:4.7.1
 _ZN5Solid7Control21WiredNetworkInterfaceC1ERNS0_28WiredNetworkInterfacePrivateERKS1_@ABI_4_2 4:4.7.1
 _ZN5Solid7Control21WiredNetworkInterfaceC2EP7QObject@ABI_4_2 4:4.7.1
 _ZN5Solid7Control21WiredNetworkInterfaceC2ERKS1_@ABI_4_2 4:4.7.1
 _ZN5Solid7Control21WiredNetworkInterfaceC2ERNS0_28WiredNetworkInterfacePrivateEP7QObject@ABI_4_2 4:4.7.1
 _ZN5Solid7Control21WiredNetworkInterfaceC2ERNS0_28WiredNetworkInterfacePrivateERKS1_@ABI_4_2 4:4.7.1
 _ZN5Solid7Control21WiredNetworkInterfaceD0Ev@ABI_4_2 4:4.7.1
 _ZN5Solid7Control21WiredNetworkInterfaceD1Ev@ABI_4_2 4:4.7.1
 _ZN5Solid7Control21WiredNetworkInterfaceD2Ev@ABI_4_2 4:4.7.1
 _ZN5Solid7Control22ModemLocationInterface11qt_metacallEN11QMetaObject4CallEiPPv@ABI_4_2 4:4.7.1
 _ZN5Solid7Control22ModemLocationInterface11qt_metacastEPKc@ABI_4_2 4:4.7.1
 _ZN5Solid7Control22ModemLocationInterface12_k_destroyedEP7QObject@ABI_4_2 4:4.7.1
 _ZN5Solid7Control22ModemLocationInterface14enabledChangedEb@ABI_4_2 4:4.7.1
 _ZN5Solid7Control22ModemLocationInterface15locationChangedERK5QListI4QMapINS1_10CapabilityE8QVariantEE@ABI_4_2 4:4.7.1
 _ZN5Solid7Control22ModemLocationInterface15makeConnectionsEP7QObject@ABI_4_2 4:4.7.1
 _ZN5Solid7Control22ModemLocationInterface16staticMetaObjectE@ABI_4_2 4:4.7.1
 _ZN5Solid7Control22ModemLocationInterface19capabilitiesChangedENS1_10CapabilityE@ABI_4_2 4:4.7.1
 _ZN5Solid7Control22ModemLocationInterface19slotLocationChangedERK5QListI4QMapINS1_10CapabilityE8QVariantEE@ABI_4_2 4:4.7.1
 _ZN5Solid7Control22ModemLocationInterface22signalsLocationChangedEb@ABI_4_2 4:4.7.1
 _ZN5Solid7Control22ModemLocationInterfaceC1EP7QObject@ABI_4_2 4:4.7.1
 _ZN5Solid7Control22ModemLocationInterfaceC1ERKS1_@ABI_4_2 4:4.7.1
 _ZN5Solid7Control22ModemLocationInterfaceC2EP7QObject@ABI_4_2 4:4.7.1
 _ZN5Solid7Control22ModemLocationInterfaceC2ERKS1_@ABI_4_2 4:4.7.1
 _ZN5Solid7Control22ModemLocationInterfaceD0Ev@ABI_4_2 4:4.7.1
 _ZN5Solid7Control22ModemLocationInterfaceD1Ev@ABI_4_2 4:4.7.1
 _ZN5Solid7Control22ModemLocationInterfaceD2Ev@ABI_4_2 4:4.7.1
 _ZN5Solid7Control22SerialNetworkInterface11qt_metacallEN11QMetaObject4CallEiPPv@ABI_4_2 4:4.7.1
 _ZN5Solid7Control22SerialNetworkInterface11qt_metacastEPKc@ABI_4_2 4:4.7.1
 _ZN5Solid7Control22SerialNetworkInterface12_k_destroyedEP7QObject@ABI_4_2 4:4.7.1
 _ZN5Solid7Control22SerialNetworkInterface15makeConnectionsEP7QObject@ABI_4_2 4:4.7.1
 _ZN5Solid7Control22SerialNetworkInterface16staticMetaObjectE@ABI_4_2 4:4.7.1
 _ZN5Solid7Control22SerialNetworkInterface8pppStatsEjj@ABI_4_2 4:4.7.1
 _ZN5Solid7Control22SerialNetworkInterfaceC1EP7QObject@ABI_4_2 4:4.7.1
 _ZN5Solid7Control22SerialNetworkInterfaceC1ERKS1_@ABI_4_2 4:4.7.1
 _ZN5Solid7Control22SerialNetworkInterfaceC1ERNS0_29SerialNetworkInterfacePrivateEP7QObject@ABI_4_2 4:4.7.1
 _ZN5Solid7Control22SerialNetworkInterfaceC1ERNS0_29SerialNetworkInterfacePrivateERKS1_@ABI_4_2 4:4.7.1
 _ZN5Solid7Control22SerialNetworkInterfaceC2EP7QObject@ABI_4_2 4:4.7.1
 _ZN5Solid7Control22SerialNetworkInterfaceC2ERKS1_@ABI_4_2 4:4.7.1
 _ZN5Solid7Control22SerialNetworkInterfaceC2ERNS0_29SerialNetworkInterfacePrivateEP7QObject@ABI_4_2 4:4.7.1
 _ZN5Solid7Control22SerialNetworkInterfaceC2ERNS0_29SerialNetworkInterfacePrivateERKS1_@ABI_4_2 4:4.7.1
 _ZN5Solid7Control22SerialNetworkInterfaceD0Ev@ABI_4_2 4:4.7.1
 _ZN5Solid7Control22SerialNetworkInterfaceD1Ev@ABI_4_2 4:4.7.1
 _ZN5Solid7Control22SerialNetworkInterfaceD2Ev@ABI_4_2 4:4.7.1
 _ZN5Solid7Control24ModemGsmNetworkInterface11qt_metacallEN11QMetaObject4CallEiPPv@ABI_4_2 4:4.7.1
 _ZN5Solid7Control24ModemGsmNetworkInterface11qt_metacastEPKc@ABI_4_2 4:4.7.1
 _ZN5Solid7Control24ModemGsmNetworkInterface12_k_destroyedEP7QObject@ABI_4_2 4:4.7.1
 _ZN5Solid7Control24ModemGsmNetworkInterface15makeConnectionsEP7QObject@ABI_4_2 4:4.7.1
 _ZN5Solid7Control24ModemGsmNetworkInterface16staticMetaObjectE@ABI_4_2 4:4.7.1
 _ZN5Solid7Control24ModemGsmNetworkInterface18allowedModeChangedENS0_14ModemInterface11AllowedModeE@ABI_4_2 4:4.7.1
 _ZN5Solid7Control24ModemGsmNetworkInterface20signalQualityChangedEj@ABI_4_2 4:4.7.1
 _ZN5Solid7Control24ModemGsmNetworkInterface23accessTechnologyChangedENS0_14ModemInterface16AccessTechnologyE@ABI_4_2 4:4.7.1
 _ZN5Solid7Control24ModemGsmNetworkInterfaceC1EP7QObject@ABI_4_2 4:4.7.1
 _ZN5Solid7Control24ModemGsmNetworkInterfaceC1ERKS1_@ABI_4_2 4:4.7.1
 _ZN5Solid7Control24ModemGsmNetworkInterfaceC2EP7QObject@ABI_4_2 4:4.7.1
 _ZN5Solid7Control24ModemGsmNetworkInterfaceC2ERKS1_@ABI_4_2 4:4.7.1
 _ZN5Solid7Control24ModemGsmNetworkInterfaceD0Ev@ABI_4_2 4:4.7.1
 _ZN5Solid7Control24ModemGsmNetworkInterfaceD1Ev@ABI_4_2 4:4.7.1
 _ZN5Solid7Control24ModemGsmNetworkInterfaceD2Ev@ABI_4_2 4:4.7.1
 _ZN5Solid7Control24WirelessNetworkInterface11modeChangedENS1_13OperationModeE@ABI_4_2 4:4.7.1
 _ZN5Solid7Control24WirelessNetworkInterface11qt_metacallEN11QMetaObject4CallEiPPv@ABI_4_2 4:4.7.1
 _ZN5Solid7Control24WirelessNetworkInterface11qt_metacastEPKc@ABI_4_2 4:4.7.1
 _ZN5Solid7Control24WirelessNetworkInterface12_k_destroyedEP7QObject@ABI_4_2 4:4.7.1
 _ZN5Solid7Control24WirelessNetworkInterface14bitRateChangedEi@ABI_4_2 4:4.7.1
 _ZN5Solid7Control24WirelessNetworkInterface15makeConnectionsEP7QObject@ABI_4_2 4:4.7.1
 _ZN5Solid7Control24WirelessNetworkInterface16staticMetaObjectE@ABI_4_2 4:4.7.1
 _ZN5Solid7Control24WirelessNetworkInterface19_k_accessPointAddedERK7QString@ABI_4_2 4:4.7.1
 _ZN5Solid7Control24WirelessNetworkInterface19accessPointAppearedERK7QString@ABI_4_2 4:4.7.1
 _ZN5Solid7Control24WirelessNetworkInterface21_k_accessPointRemovedERK7QString@ABI_4_2 4:4.7.1
 _ZN5Solid7Control24WirelessNetworkInterface22accessPointDisappearedERK7QString@ABI_4_2 4:4.7.1
 _ZN5Solid7Control24WirelessNetworkInterface24activeAccessPointChangedERK7QString@ABI_4_2 4:4.7.1
 _ZN5Solid7Control24WirelessNetworkInterfaceC1EP7QObject@ABI_4_2 4:4.7.1
 _ZN5Solid7Control24WirelessNetworkInterfaceC1ERKS1_@ABI_4_2 4:4.7.1
 _ZN5Solid7Control24WirelessNetworkInterfaceC1ERNS0_31WirelessNetworkInterfacePrivateEP7QObject@ABI_4_2 4:4.7.1
 _ZN5Solid7Control24WirelessNetworkInterfaceC1ERNS0_31WirelessNetworkInterfacePrivateERKS1_@ABI_4_2 4:4.7.1
 _ZN5Solid7Control24WirelessNetworkInterfaceC2EP7QObject@ABI_4_2 4:4.7.1
 _ZN5Solid7Control24WirelessNetworkInterfaceC2ERKS1_@ABI_4_2 4:4.7.1
 _ZN5Solid7Control24WirelessNetworkInterfaceC2ERNS0_31WirelessNetworkInterfacePrivateEP7QObject@ABI_4_2 4:4.7.1
 _ZN5Solid7Control24WirelessNetworkInterfaceC2ERNS0_31WirelessNetworkInterfacePrivateERKS1_@ABI_4_2 4:4.7.1
 _ZN5Solid7Control24WirelessNetworkInterfaceD0Ev@ABI_4_2 4:4.7.1
 _ZN5Solid7Control24WirelessNetworkInterfaceD1Ev@ABI_4_2 4:4.7.1
 _ZN5Solid7Control24WirelessNetworkInterfaceD2Ev@ABI_4_2 4:4.7.1
 _ZN5Solid7Control25ModemGsmContactsInterface11qt_metacallEN11QMetaObject4CallEiPPv@ABI_4_2 4:4.7.1
 _ZN5Solid7Control25ModemGsmContactsInterface11qt_metacastEPKc@ABI_4_2 4:4.7.1
 _ZN5Solid7Control25ModemGsmContactsInterface12_k_destroyedEP7QObject@ABI_4_2 4:4.7.1
 _ZN5Solid7Control25ModemGsmContactsInterface15makeConnectionsEP7QObject@ABI_4_2 4:4.7.1
 _ZN5Solid7Control25ModemGsmContactsInterface16staticMetaObjectE@ABI_4_2 4:4.7.1
 _ZN5Solid7Control25ModemGsmContactsInterfaceC1EP7QObject@ABI_4_2 4:4.7.1
 _ZN5Solid7Control25ModemGsmContactsInterfaceC1ERKS1_@ABI_4_2 4:4.7.1
 _ZN5Solid7Control25ModemGsmContactsInterfaceC2EP7QObject@ABI_4_2 4:4.7.1
 _ZN5Solid7Control25ModemGsmContactsInterfaceC2ERKS1_@ABI_4_2 4:4.7.1
 _ZN5Solid7Control25ModemGsmContactsInterfaceD0Ev@ABI_4_2 4:4.7.1
 _ZN5Solid7Control25ModemGsmContactsInterfaceD1Ev@ABI_4_2 4:4.7.1
 _ZN5Solid7Control25ModemGsmContactsInterfaceD2Ev@ABI_4_2 4:4.7.1
 _ZN5Solid7Control9IPv4RouteC1ERKS1_@ABI_4_2 4:4.7.1
 _ZN5Solid7Control9IPv4RouteC1Ejjjj@ABI_4_2 4:4.7.1
 _ZN5Solid7Control9IPv4RouteC1Ev@ABI_4_2 4:4.7.1
 _ZN5Solid7Control9IPv4RouteC2ERKS1_@ABI_4_2 4:4.7.1
 _ZN5Solid7Control9IPv4RouteC2Ejjjj@ABI_4_2 4:4.7.1
 _ZN5Solid7Control9IPv4RouteC2Ev@ABI_4_2 4:4.7.1
 _ZN5Solid7Control9IPv4RouteD1Ev@ABI_4_2 4:4.7.1
 _ZN5Solid7Control9IPv4RouteD2Ev@ABI_4_2 4:4.7.1
 _ZN5Solid7Control9IPv4RouteaSERKS1_@ABI_4_2 4:4.7.1
 _ZNK5Solid7Control10IPv4Config11nameserversEv@ABI_4_2 4:4.7.1
 _ZNK5Solid7Control10IPv4Config6routesEv@ABI_4_2 4:4.7.1
 _ZNK5Solid7Control10IPv4Config7domainsEv@ABI_4_2 4:4.7.1
 _ZNK5Solid7Control10IPv4Config7isValidEv@ABI_4_2 4:4.7.1
 _ZNK5Solid7Control10IPv4Config9addressesEv@ABI_4_2 4:4.7.1
 _ZNK5Solid7Control11AccessPoint10maxBitRateEv@ABI_4_2 4:4.7.1
 _ZNK5Solid7Control11AccessPoint10metaObjectEv@ABI_4_2 4:4.7.1
 _ZNK5Solid7Control11AccessPoint11ssidChangedERK7QString@ABI_4_2 4:4.7.1
 _ZNK5Solid7Control11AccessPoint12capabilitiesEv@ABI_4_2 4:4.7.1
 _ZNK5Solid7Control11AccessPoint14signalStrengthEv@ABI_4_2 4:4.7.1
 _ZNK5Solid7Control11AccessPoint15hardwareAddressEv@ABI_4_2 4:4.7.1
 _ZNK5Solid7Control11AccessPoint15rsnFlagsChangedE6QFlagsINS1_7WpaFlagEE@ABI_4_2 4:4.7.1
 _ZNK5Solid7Control11AccessPoint15wpaFlagsChangedE6QFlagsINS1_7WpaFlagEE@ABI_4_2 4:4.7.1
 _ZNK5Solid7Control11AccessPoint16frequencyChangedEj@ABI_4_2 4:4.7.1
 _ZNK5Solid7Control11AccessPoint3uniEv@ABI_4_2 4:4.7.1
 _ZNK5Solid7Control11AccessPoint4modeEv@ABI_4_2 4:4.7.1
 _ZNK5Solid7Control11AccessPoint4ssidEv@ABI_4_2 4:4.7.1
 _ZNK5Solid7Control11AccessPoint7rawSsidEv@ABI_4_2 4:4.7.1
 _ZNK5Solid7Control11AccessPoint8rsnFlagsEv@ABI_4_2 4:4.7.1
 _ZNK5Solid7Control11AccessPoint8wpaFlagsEv@ABI_4_2 4:4.7.1
 _ZNK5Solid7Control11AccessPoint9frequencyEv@ABI_4_2 4:4.7.1
 _ZNK5Solid7Control11IPv4Address7addressEv@ABI_4_2 4:4.7.1
 _ZNK5Solid7Control11IPv4Address7gatewayEv@ABI_4_2 4:4.7.1
 _ZNK5Solid7Control11IPv4Address7isValidEv@ABI_4_2 4:4.7.1
 _ZNK5Solid7Control11IPv4Address7netMaskEv@ABI_4_2 4:4.7.1
 _ZNK5Solid7Control12ModemManager8Notifier10metaObjectEv@ABI_4_2 4:4.7.1
 _ZNK5Solid7Control14ModemInterface10metaObjectEv@ABI_4_2 4:4.7.1
 _ZNK5Solid7Control14ModemInterface12connectModemERK4QMapI7QString8QVariantE@ABI_4_2 4:4.7.1
 _ZNK5Solid7Control14ModemInterface12connectModemERK7QString@ABI_4_2 4:4.7.1
 _ZNK5Solid7Control14ModemInterface12getIp4ConfigEv@ABI_4_2 4:4.7.1
 _ZNK5Solid7Control14ModemInterface12masterDeviceEv@ABI_4_2 4:4.7.1
 _ZNK5Solid7Control14ModemInterface14unlockRequiredEv@ABI_4_2 4:4.7.1
 _ZNK5Solid7Control14ModemInterface15disconnectModemEv@ABI_4_2 4:4.7.1
 _ZNK5Solid7Control14ModemInterface3udiEv@ABI_4_2 4:4.7.1
 _ZNK5Solid7Control14ModemInterface4typeEv@ABI_4_2 4:4.7.1
 _ZNK5Solid7Control14ModemInterface6deviceEv@ABI_4_2 4:4.7.1
 _ZNK5Solid7Control14ModemInterface6driverEv@ABI_4_2 4:4.7.1
 _ZNK5Solid7Control14ModemInterface6enableEb@ABI_4_2 4:4.7.1
 _ZNK5Solid7Control14ModemInterface7enabledEv@ABI_4_2 4:4.7.1
 _ZNK5Solid7Control14ModemInterface7getInfoEv@ABI_4_2 4:4.7.1
 _ZNK5Solid7Control14ModemInterface8ipMethodEv@ABI_4_2 4:4.7.1
 _ZNK5Solid7Control14ModemInterface9getStatusEv@ABI_4_2 4:4.7.1
 _ZNK5Solid7Control14NetworkManager8Notifier10metaObjectEv@ABI_4_2 4:4.7.1
 _ZNK5Solid7Control16NetworkInterface10ipV4ConfigEv@ABI_4_2 4:4.7.1
 _ZNK5Solid7Control16NetworkInterface10metaObjectEv@ABI_4_2 4:4.7.1
 _ZNK5Solid7Control16NetworkInterface11designSpeedEv@ABI_4_2 4:4.7.1
 _ZNK5Solid7Control16NetworkInterface12capabilitiesEv@ABI_4_2 4:4.7.1
 _ZNK5Solid7Control16NetworkInterface13interfaceNameEv@ABI_4_2 4:4.7.1
 _ZNK5Solid7Control16NetworkInterface15connectionStateEv@ABI_4_2 4:4.7.1
 _ZNK5Solid7Control16NetworkInterface15firmwareMissingEv@ABI_4_2 4:4.7.1
 _ZNK5Solid7Control16NetworkInterface15ipInterfaceNameEv@ABI_4_2 4:4.7.1
 _ZNK5Solid7Control16NetworkInterface19disconnectInterfaceEv@ABI_4_2 4:4.7.1
 _ZNK5Solid7Control16NetworkInterface3udiEv@ABI_4_2 4:4.7.1
 _ZNK5Solid7Control16NetworkInterface3uniEv@ABI_4_2 4:4.7.1
 _ZNK5Solid7Control16NetworkInterface4typeEv@ABI_4_2 4:4.7.1
 _ZNK5Solid7Control16NetworkInterface6driverEv@ABI_4_2 4:4.7.1
 _ZNK5Solid7Control16NetworkInterface8isActiveEv@ABI_4_2 4:4.7.1
 _ZNK5Solid7Control18BtNetworkInterface10metaObjectEv@ABI_4_2 4:4.7.1
 _ZNK5Solid7Control18BtNetworkInterface14btCapabilitiesEv@ABI_4_2 4:4.7.1
 _ZNK5Solid7Control18BtNetworkInterface15hardwareAddressEv@ABI_4_2 4:4.7.1
 _ZNK5Solid7Control18BtNetworkInterface4nameEv@ABI_4_2 4:4.7.1
 _ZNK5Solid7Control18BtNetworkInterface4typeEv@ABI_4_2 4:4.7.1
 _ZNK5Solid7Control18ModemCdmaInterface10metaObjectEv@ABI_4_2 4:4.7.1
 _ZNK5Solid7Control18ModemCdmaInterface16getServingSystemEv@ABI_4_2 4:4.7.1
 _ZNK5Solid7Control18ModemCdmaInterface16getSignalQualityEv@ABI_4_2 4:4.7.1
 _ZNK5Solid7Control18ModemCdmaInterface20getRegistrationStateEv@ABI_4_2 4:4.7.1
 _ZNK5Solid7Control18ModemCdmaInterface4typeEv@ABI_4_2 4:4.7.1
 _ZNK5Solid7Control18ModemCdmaInterface6getEsnEv@ABI_4_2 4:4.7.1
 _ZNK5Solid7Control19GsmNetworkInterface10metaObjectEv@ABI_4_2 4:4.7.1
 _ZNK5Solid7Control19GsmNetworkInterface4typeEv@ABI_4_2 4:4.7.1
 _ZNK5Solid7Control20CdmaNetworkInterface10metaObjectEv@ABI_4_2 4:4.7.1
 _ZNK5Solid7Control20CdmaNetworkInterface4typeEv@ABI_4_2 4:4.7.1
 _ZNK5Solid7Control20ModemGsmHsoInterface10metaObjectEv@ABI_4_2 4:4.7.1
 _ZNK5Solid7Control20ModemGsmHsoInterface12authenticateERK7QStringS4_@ABI_4_2 4:4.7.1
 _ZNK5Solid7Control20ModemGsmSmsInterface10metaObjectEv@ABI_4_2 4:4.7.1
 _ZNK5Solid7Control20ModemGsmSmsInterface13setIndicationEiiiii@ABI_4_2 4:4.7.1
 _ZNK5Solid7Control20ModemGsmSmsInterface15sendFromStorageEi@ABI_4_2 4:4.7.1
 _ZNK5Solid7Control20ModemGsmSmsInterface3getEi@ABI_4_2 4:4.7.1
 _ZNK5Solid7Control20ModemGsmSmsInterface4listEv@ABI_4_2 4:4.7.1
 _ZNK5Solid7Control20ModemGsmSmsInterface4saveERK4QMapI7QString8QVariantE@ABI_4_2 4:4.7.1
 _ZNK5Solid7Control20ModemGsmSmsInterface4sendERK4QMapI7QString8QVariantE@ABI_4_2 4:4.7.1
 _ZNK5Solid7Control20ModemGsmSmsInterface7getSmscEv@ABI_4_2 4:4.7.1
 _ZNK5Solid7Control20ModemGsmSmsInterface9deleteSmsEi@ABI_4_2 4:4.7.1
 _ZNK5Solid7Control20ModemGsmSmsInterface9getFormatEv@ABI_4_2 4:4.7.1
 _ZNK5Solid7Control20ModemGsmSmsInterface9setFormatEi@ABI_4_2 4:4.7.1
 _ZNK5Solid7Control21ModemGsmCardInterface10metaObjectEv@ABI_4_2 4:4.7.1
 _ZNK5Solid7Control21ModemGsmCardInterface17getSupportedBandsEv@ABI_4_2 4:4.7.1
 _ZNK5Solid7Control21ModemGsmCardInterface17getSupportedModesEv@ABI_4_2 4:4.7.1
 _ZNK5Solid7Control21ModemGsmCardInterface7getImeiEv@ABI_4_2 4:4.7.1
 _ZNK5Solid7Control21ModemGsmCardInterface7getImsiEv@ABI_4_2 4:4.7.1
 _ZNK5Solid7Control21ModemGsmCardInterface7sendPinERK7QString@ABI_4_2 4:4.7.1
 _ZNK5Solid7Control21ModemGsmCardInterface7sendPukERK7QStringS4_@ABI_4_2 4:4.7.1
 _ZNK5Solid7Control21ModemGsmCardInterface9changePinERK7QStringS4_@ABI_4_2 4:4.7.1
 _ZNK5Solid7Control21ModemGsmCardInterface9enablePinERK7QStringb@ABI_4_2 4:4.7.1
 _ZNK5Solid7Control21ModemGsmUssdInterface10metaObjectEv@ABI_4_2 4:4.7.1
 _ZNK5Solid7Control21ModemGsmUssdInterface17getNetworkRequestEv@ABI_4_2 4:4.7.1
 _ZNK5Solid7Control21ModemGsmUssdInterface22getNetworkNotificationEv@ABI_4_2 4:4.7.1
 _ZNK5Solid7Control21ModemGsmUssdInterface6cancelEv@ABI_4_2 4:4.7.1
 _ZNK5Solid7Control21ModemGsmUssdInterface7respondE7QString@ABI_4_2 4:4.7.1
 _ZNK5Solid7Control21ModemGsmUssdInterface8getStateEv@ABI_4_2 4:4.7.1
 _ZNK5Solid7Control21ModemGsmUssdInterface8initiateERK7QString@ABI_4_2 4:4.7.1
 _ZNK5Solid7Control21ModemManagerInterface10metaObjectEv@ABI_4_2 4:4.7.1
 _ZNK5Solid7Control21WiredNetworkInterface10metaObjectEv@ABI_4_2 4:4.7.1
 _ZNK5Solid7Control21WiredNetworkInterface15hardwareAddressEv@ABI_4_2 4:4.7.1
 _ZNK5Solid7Control21WiredNetworkInterface4typeEv@ABI_4_2 4:4.7.1
 _ZNK5Solid7Control21WiredNetworkInterface7bitRateEv@ABI_4_2 4:4.7.1
 _ZNK5Solid7Control21WiredNetworkInterface7carrierEv@ABI_4_2 4:4.7.1
 _ZNK5Solid7Control22ModemLocationInterface10metaObjectEv@ABI_4_2 4:4.7.1
 _ZNK5Solid7Control22SerialNetworkInterface10metaObjectEv@ABI_4_2 4:4.7.1
 _ZNK5Solid7Control22SerialNetworkInterface4typeEv@ABI_4_2 4:4.7.1
 _ZNK5Solid7Control24ModemGsmNetworkInterface10metaObjectEv@ABI_4_2 4:4.7.1
 _ZNK5Solid7Control24ModemGsmNetworkInterface14getAllowedModeEv@ABI_4_2 4:4.7.1
 _ZNK5Solid7Control24ModemGsmNetworkInterface14setAllowedModeENS0_14ModemInterface11AllowedModeE@ABI_4_2 4:4.7.1
 _ZNK5Solid7Control24ModemGsmNetworkInterface16getSignalQualityEv@ABI_4_2 4:4.7.1
 _ZNK5Solid7Control24ModemGsmNetworkInterface17registerToNetworkERK7QString@ABI_4_2 4:4.7.1
 _ZNK5Solid7Control24ModemGsmNetworkInterface19getAccessTechnologyEv@ABI_4_2 4:4.7.1
 _ZNK5Solid7Control24ModemGsmNetworkInterface19getRegistrationInfoEv@ABI_4_2 4:4.7.1
 _ZNK5Solid7Control24ModemGsmNetworkInterface23registrationInfoChangedERKNS1_20RegistrationInfoTypeE@ABI_4_2 4:4.7.1
 _ZNK5Solid7Control24ModemGsmNetworkInterface4scanEv@ABI_4_2 4:4.7.1
 _ZNK5Solid7Control24ModemGsmNetworkInterface4typeEv@ABI_4_2 4:4.7.1
 _ZNK5Solid7Control24ModemGsmNetworkInterface6setApnERK7QString@ABI_4_2 4:4.7.1
 _ZNK5Solid7Control24ModemGsmNetworkInterface7getBandEv@ABI_4_2 4:4.7.1
 _ZNK5Solid7Control24ModemGsmNetworkInterface7setBandENS0_14ModemInterface4BandE@ABI_4_2 4:4.7.1
 _ZNK5Solid7Control24WirelessNetworkInterface10metaObjectEv@ABI_4_2 4:4.7.1
 _ZNK5Solid7Control24WirelessNetworkInterface12accessPointsEv@ABI_4_2 4:4.7.1
 _ZNK5Solid7Control24WirelessNetworkInterface15findAccessPointERK7QString@ABI_4_2 4:4.7.1
 _ZNK5Solid7Control24WirelessNetworkInterface15hardwareAddressEv@ABI_4_2 4:4.7.1
 _ZNK5Solid7Control24WirelessNetworkInterface17activeAccessPointEv@ABI_4_2 4:4.7.1
 _ZNK5Solid7Control24WirelessNetworkInterface20wirelessCapabilitiesEv@ABI_4_2 4:4.7.1
 _ZNK5Solid7Control24WirelessNetworkInterface25findRegisteredAccessPointERK7QString@ABI_4_2 4:4.7.1
 _ZNK5Solid7Control24WirelessNetworkInterface4modeEv@ABI_4_2 4:4.7.1
 _ZNK5Solid7Control24WirelessNetworkInterface4typeEv@ABI_4_2 4:4.7.1
 _ZNK5Solid7Control24WirelessNetworkInterface7bitRateEv@ABI_4_2 4:4.7.1
 _ZNK5Solid7Control25ModemGsmContactsInterface10addContactERK7QStringS4_@ABI_4_2 4:4.7.1
 _ZNK5Solid7Control25ModemGsmContactsInterface10metaObjectEv@ABI_4_2 4:4.7.1
 _ZNK5Solid7Control25ModemGsmContactsInterface13deleteContactEi@ABI_4_2 4:4.7.1
 _ZNK5Solid7Control25ModemGsmContactsInterface3getEi@ABI_4_2 4:4.7.1
 _ZNK5Solid7Control25ModemGsmContactsInterface4findERK7QString@ABI_4_2 4:4.7.1
 _ZNK5Solid7Control25ModemGsmContactsInterface4listEv@ABI_4_2 4:4.7.1
 _ZNK5Solid7Control25ModemGsmContactsInterface8getCountEv@ABI_4_2 4:4.7.1
 _ZNK5Solid7Control9IPv4Route5routeEv@ABI_4_2 4:4.7.1
 _ZNK5Solid7Control9IPv4Route6metricEv@ABI_4_2 4:4.7.1
 _ZNK5Solid7Control9IPv4Route6prefixEv@ABI_4_2 4:4.7.1
 _ZNK5Solid7Control9IPv4Route7isValidEv@ABI_4_2 4:4.7.1
 _ZNK5Solid7Control9IPv4Route7nextHopEv@ABI_4_2 4:4.7.1
 _ZTIN5Solid7Control11AccessPointE@ABI_4_2 4:4.7.1
 _ZTIN5Solid7Control12ModemManager8NotifierE@ABI_4_2 4:4.7.1
 _ZTIN5Solid7Control14ModemInterfaceE@ABI_4_2 4:4.7.1
 _ZTIN5Solid7Control14NetworkManager8NotifierE@ABI_4_2 4:4.7.1
 _ZTIN5Solid7Control16NetworkInterfaceE@ABI_4_2 4:4.7.1
 _ZTIN5Solid7Control18BtNetworkInterfaceE@ABI_4_2 4:4.7.1
 _ZTIN5Solid7Control18ModemCdmaInterfaceE@ABI_4_2 4:4.7.1
 _ZTIN5Solid7Control19GsmNetworkInterfaceE@ABI_4_2 4:4.7.1
 _ZTIN5Solid7Control20CdmaNetworkInterfaceE@ABI_4_2 4:4.7.1
 _ZTIN5Solid7Control20ModemGsmHsoInterfaceE@ABI_4_2 4:4.7.1
 _ZTIN5Solid7Control20ModemGsmSmsInterfaceE@ABI_4_2 4:4.7.1
 _ZTIN5Solid7Control21ModemGsmCardInterfaceE@ABI_4_2 4:4.7.1
 _ZTIN5Solid7Control21ModemGsmUssdInterfaceE@ABI_4_2 4:4.7.1
 _ZTIN5Solid7Control21ModemManagerInterfaceE@ABI_4_2 4:4.7.1
 _ZTIN5Solid7Control21WiredNetworkInterfaceE@ABI_4_2 4:4.7.1
 _ZTIN5Solid7Control22ModemLocationInterfaceE@ABI_4_2 4:4.7.1
 _ZTIN5Solid7Control22SerialNetworkInterfaceE@ABI_4_2 4:4.7.1
 _ZTIN5Solid7Control24ModemGsmNetworkInterfaceE@ABI_4_2 4:4.7.1
 _ZTIN5Solid7Control24WirelessNetworkInterfaceE@ABI_4_2 4:4.7.1
 _ZTIN5Solid7Control25ModemGsmContactsInterfaceE@ABI_4_2 4:4.7.1
 _ZTSN5Solid7Control11AccessPointE@ABI_4_2 4:4.7.1
 _ZTSN5Solid7Control12ModemManager8NotifierE@ABI_4_2 4:4.7.1
 _ZTSN5Solid7Control14ModemInterfaceE@ABI_4_2 4:4.7.1
 _ZTSN5Solid7Control14NetworkManager8NotifierE@ABI_4_2 4:4.7.1
 _ZTSN5Solid7Control16NetworkInterfaceE@ABI_4_2 4:4.7.1
 _ZTSN5Solid7Control18BtNetworkInterfaceE@ABI_4_2 4:4.7.1
 _ZTSN5Solid7Control18ModemCdmaInterfaceE@ABI_4_2 4:4.7.1
 _ZTSN5Solid7Control19GsmNetworkInterfaceE@ABI_4_2 4:4.7.1
 _ZTSN5Solid7Control20CdmaNetworkInterfaceE@ABI_4_2 4:4.7.1
 _ZTSN5Solid7Control20ModemGsmHsoInterfaceE@ABI_4_2 4:4.7.1
 _ZTSN5Solid7Control20ModemGsmSmsInterfaceE@ABI_4_2 4:4.7.1
 _ZTSN5Solid7Control21ModemGsmCardInterfaceE@ABI_4_2 4:4.7.1
 _ZTSN5Solid7Control21ModemGsmUssdInterfaceE@ABI_4_2 4:4.7.1
 _ZTSN5Solid7Control21ModemManagerInterfaceE@ABI_4_2 4:4.7.1
 _ZTSN5Solid7Control21WiredNetworkInterfaceE@ABI_4_2 4:4.7.1
 _ZTSN5Solid7Control22ModemLocationInterfaceE@ABI_4_2 4:4.7.1
 _ZTSN5Solid7Control22SerialNetworkInterfaceE@ABI_4_2 4:4.7.1
 _ZTSN5Solid7Control24ModemGsmNetworkInterfaceE@ABI_4_2 4:4.7.1
 _ZTSN5Solid7Control24WirelessNetworkInterfaceE@ABI_4_2 4:4.7.1
 _ZTSN5Solid7Control25ModemGsmContactsInterfaceE@ABI_4_2 4:4.7.1
 _ZTVN5Solid7Control11AccessPointE@ABI_4_2 4:4.7.1
 _ZTVN5Solid7Control12ModemManager8NotifierE@ABI_4_2 4:4.7.1
 _ZTVN5Solid7Control14ModemInterfaceE@ABI_4_2 4:4.7.1
 _ZTVN5Solid7Control14NetworkManager8NotifierE@ABI_4_2 4:4.7.1
 _ZTVN5Solid7Control16NetworkInterfaceE@ABI_4_2 4:4.7.1
 _ZTVN5Solid7Control18BtNetworkInterfaceE@ABI_4_2 4:4.7.1
 _ZTVN5Solid7Control18ModemCdmaInterfaceE@ABI_4_2 4:4.7.1
 _ZTVN5Solid7Control19GsmNetworkInterfaceE@ABI_4_2 4:4.7.1
 _ZTVN5Solid7Control20CdmaNetworkInterfaceE@ABI_4_2 4:4.7.1
 _ZTVN5Solid7Control20ModemGsmHsoInterfaceE@ABI_4_2 4:4.7.1
 _ZTVN5Solid7Control20ModemGsmSmsInterfaceE@ABI_4_2 4:4.7.1
 _ZTVN5Solid7Control21ModemGsmCardInterfaceE@ABI_4_2 4:4.7.1
 _ZTVN5Solid7Control21ModemGsmUssdInterfaceE@ABI_4_2 4:4.7.1
 _ZTVN5Solid7Control21ModemManagerInterfaceE@ABI_4_2 4:4.7.1
 _ZTVN5Solid7Control21WiredNetworkInterfaceE@ABI_4_2 4:4.7.1
 _ZTVN5Solid7Control22ModemLocationInterfaceE@ABI_4_2 4:4.7.1
 _ZTVN5Solid7Control22SerialNetworkInterfaceE@ABI_4_2 4:4.7.1
 _ZTVN5Solid7Control24ModemGsmNetworkInterfaceE@ABI_4_2 4:4.7.1
 _ZTVN5Solid7Control24WirelessNetworkInterfaceE@ABI_4_2 4:4.7.1
 _ZTVN5Solid7Control25ModemGsmContactsInterfaceE@ABI_4_2 4:4.7.1
 dlrestrictions_data@ABI_4_2 4:4.7.1
