# SymbolsHelper-Confirmed: 4:4.7.1 amd64
libsolidcontrolifaces.so.4abi2 libsolidcontrolifaces4abi2 #MINVER#
 ABI_4_2@ABI_4_2 4:4.7.1
 _ZN5Solid7Control6Ifaces11AccessPoint11qt_metacallEN11QMetaObject4CallEiPPv@ABI_4_2 4:4.7.1
 _ZN5Solid7Control6Ifaces11AccessPoint11qt_metacastEPKc@ABI_4_2 4:4.7.1
 _ZN5Solid7Control6Ifaces11AccessPoint11ssidChangedERK7QString@ABI_4_2 4:4.7.1
 _ZN5Solid7Control6Ifaces11AccessPoint14bitRateChangedEi@ABI_4_2 4:4.7.1
 _ZN5Solid7Control6Ifaces11AccessPoint15rsnFlagsChangedE6QFlagsINS0_11AccessPoint7WpaFlagEE@ABI_4_2 4:4.7.1
 _ZN5Solid7Control6Ifaces11AccessPoint15wpaFlagsChangedE6QFlagsINS0_11AccessPoint7WpaFlagEE@ABI_4_2 4:4.7.1
 _ZN5Solid7Control6Ifaces11AccessPoint16frequencyChangedEj@ABI_4_2 4:4.7.1
 _ZN5Solid7Control6Ifaces11AccessPoint16staticMetaObjectE@ABI_4_2 4:4.7.1
 _ZN5Solid7Control6Ifaces11AccessPoint21signalStrengthChangedEi@ABI_4_2 4:4.7.1
 _ZN5Solid7Control6Ifaces11AccessPointC1EP7QObject@ABI_4_2 4:4.7.1
 _ZN5Solid7Control6Ifaces11AccessPointC2EP7QObject@ABI_4_2 4:4.7.1
 _ZN5Solid7Control6Ifaces11AccessPointD0Ev@ABI_4_2 4:4.7.1
 _ZN5Solid7Control6Ifaces11AccessPointD1Ev@ABI_4_2 4:4.7.1
 _ZN5Solid7Control6Ifaces11AccessPointD2Ev@ABI_4_2 4:4.7.1
 _ZN5Solid7Control6Ifaces12ModemManager11deviceAddedERK7QString@ABI_4_2 4:4.7.1
 _ZN5Solid7Control6Ifaces12ModemManager11qt_metacallEN11QMetaObject4CallEiPPv@ABI_4_2 4:4.7.1
 _ZN5Solid7Control6Ifaces12ModemManager11qt_metacastEPKc@ABI_4_2 4:4.7.1
 _ZN5Solid7Control6Ifaces12ModemManager13deviceRemovedERK7QString@ABI_4_2 4:4.7.1
 _ZN5Solid7Control6Ifaces12ModemManager13statusChangedENS_10Networking6StatusE@ABI_4_2 4:4.7.1
 _ZN5Solid7Control6Ifaces12ModemManager16staticMetaObjectE@ABI_4_2 4:4.7.1
 _ZN5Solid7Control6Ifaces12ModemManagerC1EP7QObject@ABI_4_2 4:4.7.1
 _ZN5Solid7Control6Ifaces12ModemManagerC2EP7QObject@ABI_4_2 4:4.7.1
 _ZN5Solid7Control6Ifaces12ModemManagerD0Ev@ABI_4_2 4:4.7.1
 _ZN5Solid7Control6Ifaces12ModemManagerD1Ev@ABI_4_2 4:4.7.1
 _ZN5Solid7Control6Ifaces12ModemManagerD2Ev@ABI_4_2 4:4.7.1
 _ZN5Solid7Control6Ifaces14ModemInterfaceD0Ev@ABI_4_2 4:4.7.1
 _ZN5Solid7Control6Ifaces14ModemInterfaceD1Ev@ABI_4_2 4:4.7.1
 _ZN5Solid7Control6Ifaces14ModemInterfaceD2Ev@ABI_4_2 4:4.7.1
 _ZN5Solid7Control6Ifaces14NetworkManager11qt_metacallEN11QMetaObject4CallEiPPv@ABI_4_2 4:4.7.1
 _ZN5Solid7Control6Ifaces14NetworkManager11qt_metacastEPKc@ABI_4_2 4:4.7.1
 _ZN5Solid7Control6Ifaces14NetworkManager13statusChangedENS_10Networking6StatusE@ABI_4_2 4:4.7.1
 _ZN5Solid7Control6Ifaces14NetworkManager16staticMetaObjectE@ABI_4_2 4:4.7.1
 _ZN5Solid7Control6Ifaces14NetworkManager18wwanEnabledChangedEb@ABI_4_2 4:4.7.1
 _ZN5Solid7Control6Ifaces14NetworkManager21networkInterfaceAddedERK7QString@ABI_4_2 4:4.7.1
 _ZN5Solid7Control6Ifaces14NetworkManager22wirelessEnabledChangedEb@ABI_4_2 4:4.7.1
 _ZN5Solid7Control6Ifaces14NetworkManager23networkInterfaceRemovedERK7QString@ABI_4_2 4:4.7.1
 _ZN5Solid7Control6Ifaces14NetworkManager24activeConnectionsChangedEv@ABI_4_2 4:4.7.1
 _ZN5Solid7Control6Ifaces14NetworkManager24networkingEnabledChangedEb@ABI_4_2 4:4.7.1
 _ZN5Solid7Control6Ifaces14NetworkManager26wwanHardwareEnabledChangedEb@ABI_4_2 4:4.7.1
 _ZN5Solid7Control6Ifaces14NetworkManager30wirelessHardwareEnabledChangedEb@ABI_4_2 4:4.7.1
 _ZN5Solid7Control6Ifaces14NetworkManagerC1EP7QObject@ABI_4_2 4:4.7.1
 _ZN5Solid7Control6Ifaces14NetworkManagerC2EP7QObject@ABI_4_2 4:4.7.1
 _ZN5Solid7Control6Ifaces14NetworkManagerD0Ev@ABI_4_2 4:4.7.1
 _ZN5Solid7Control6Ifaces14NetworkManagerD1Ev@ABI_4_2 4:4.7.1
 _ZN5Solid7Control6Ifaces14NetworkManagerD2Ev@ABI_4_2 4:4.7.1
 _ZN5Solid7Control6Ifaces16NetworkInterfaceD0Ev@ABI_4_2 4:4.7.1
 _ZN5Solid7Control6Ifaces16NetworkInterfaceD1Ev@ABI_4_2 4:4.7.1
 _ZN5Solid7Control6Ifaces16NetworkInterfaceD2Ev@ABI_4_2 4:4.7.1
 _ZN5Solid7Control6Ifaces18BtNetworkInterfaceD0Ev@ABI_4_2 4:4.7.1
 _ZN5Solid7Control6Ifaces18BtNetworkInterfaceD1Ev@ABI_4_2 4:4.7.1
 _ZN5Solid7Control6Ifaces18BtNetworkInterfaceD2Ev@ABI_4_2 4:4.7.1
 _ZN5Solid7Control6Ifaces18ModemCdmaInterfaceD0Ev@ABI_4_2 4:4.7.1
 _ZN5Solid7Control6Ifaces18ModemCdmaInterfaceD1Ev@ABI_4_2 4:4.7.1
 _ZN5Solid7Control6Ifaces18ModemCdmaInterfaceD2Ev@ABI_4_2 4:4.7.1
 _ZN5Solid7Control6Ifaces19GsmNetworkInterfaceD0Ev@ABI_4_2 4:4.7.1
 _ZN5Solid7Control6Ifaces19GsmNetworkInterfaceD1Ev@ABI_4_2 4:4.7.1
 _ZN5Solid7Control6Ifaces19GsmNetworkInterfaceD2Ev@ABI_4_2 4:4.7.1
 _ZN5Solid7Control6Ifaces20CdmaNetworkInterfaceD0Ev@ABI_4_2 4:4.7.1
 _ZN5Solid7Control6Ifaces20CdmaNetworkInterfaceD1Ev@ABI_4_2 4:4.7.1
 _ZN5Solid7Control6Ifaces20CdmaNetworkInterfaceD2Ev@ABI_4_2 4:4.7.1
 _ZN5Solid7Control6Ifaces20ModemGsmHsoInterfaceD0Ev@ABI_4_2 4:4.7.1
 _ZN5Solid7Control6Ifaces20ModemGsmHsoInterfaceD1Ev@ABI_4_2 4:4.7.1
 _ZN5Solid7Control6Ifaces20ModemGsmHsoInterfaceD2Ev@ABI_4_2 4:4.7.1
 _ZN5Solid7Control6Ifaces20ModemGsmSmsInterfaceD0Ev@ABI_4_2 4:4.7.1
 _ZN5Solid7Control6Ifaces20ModemGsmSmsInterfaceD1Ev@ABI_4_2 4:4.7.1
 _ZN5Solid7Control6Ifaces20ModemGsmSmsInterfaceD2Ev@ABI_4_2 4:4.7.1
 _ZN5Solid7Control6Ifaces21ModemGsmCardInterfaceD0Ev@ABI_4_2 4:4.7.1
 _ZN5Solid7Control6Ifaces21ModemGsmCardInterfaceD1Ev@ABI_4_2 4:4.7.1
 _ZN5Solid7Control6Ifaces21ModemGsmCardInterfaceD2Ev@ABI_4_2 4:4.7.1
 _ZN5Solid7Control6Ifaces21ModemGsmUssdInterfaceD0Ev@ABI_4_2 4:4.7.1
 _ZN5Solid7Control6Ifaces21ModemGsmUssdInterfaceD1Ev@ABI_4_2 4:4.7.1
 _ZN5Solid7Control6Ifaces21ModemGsmUssdInterfaceD2Ev@ABI_4_2 4:4.7.1
 _ZN5Solid7Control6Ifaces21ModemManagerInterfaceD0Ev@ABI_4_2 4:4.7.1
 _ZN5Solid7Control6Ifaces21ModemManagerInterfaceD1Ev@ABI_4_2 4:4.7.1
 _ZN5Solid7Control6Ifaces21ModemManagerInterfaceD2Ev@ABI_4_2 4:4.7.1
 _ZN5Solid7Control6Ifaces21WiredNetworkInterfaceD0Ev@ABI_4_2 4:4.7.1
 _ZN5Solid7Control6Ifaces21WiredNetworkInterfaceD1Ev@ABI_4_2 4:4.7.1
 _ZN5Solid7Control6Ifaces21WiredNetworkInterfaceD2Ev@ABI_4_2 4:4.7.1
 _ZN5Solid7Control6Ifaces22ModemLocationInterfaceD0Ev@ABI_4_2 4:4.7.1
 _ZN5Solid7Control6Ifaces22ModemLocationInterfaceD1Ev@ABI_4_2 4:4.7.1
 _ZN5Solid7Control6Ifaces22ModemLocationInterfaceD2Ev@ABI_4_2 4:4.7.1
 _ZN5Solid7Control6Ifaces22SerialNetworkInterfaceD0Ev@ABI_4_2 4:4.7.1
 _ZN5Solid7Control6Ifaces22SerialNetworkInterfaceD1Ev@ABI_4_2 4:4.7.1
 _ZN5Solid7Control6Ifaces22SerialNetworkInterfaceD2Ev@ABI_4_2 4:4.7.1
 _ZN5Solid7Control6Ifaces24ModemGsmNetworkInterfaceD0Ev@ABI_4_2 4:4.7.1
 _ZN5Solid7Control6Ifaces24ModemGsmNetworkInterfaceD1Ev@ABI_4_2 4:4.7.1
 _ZN5Solid7Control6Ifaces24ModemGsmNetworkInterfaceD2Ev@ABI_4_2 4:4.7.1
 _ZN5Solid7Control6Ifaces24WirelessNetworkInterfaceD0Ev@ABI_4_2 4:4.7.1
 _ZN5Solid7Control6Ifaces24WirelessNetworkInterfaceD1Ev@ABI_4_2 4:4.7.1
 _ZN5Solid7Control6Ifaces24WirelessNetworkInterfaceD2Ev@ABI_4_2 4:4.7.1
 _ZN5Solid7Control6Ifaces25ModemGsmContactsInterfaceD0Ev@ABI_4_2 4:4.7.1
 _ZN5Solid7Control6Ifaces25ModemGsmContactsInterfaceD1Ev@ABI_4_2 4:4.7.1
 _ZN5Solid7Control6Ifaces25ModemGsmContactsInterfaceD2Ev@ABI_4_2 4:4.7.1
 _ZNK5Solid7Control6Ifaces11AccessPoint10metaObjectEv@ABI_4_2 4:4.7.1
 _ZNK5Solid7Control6Ifaces12ModemManager10metaObjectEv@ABI_4_2 4:4.7.1
 _ZNK5Solid7Control6Ifaces14NetworkManager10metaObjectEv@ABI_4_2 4:4.7.1
 _ZTIN5Solid7Control6Ifaces11AccessPointE@ABI_4_2 4:4.7.1
 _ZTIN5Solid7Control6Ifaces12ModemManagerE@ABI_4_2 4:4.7.1
 _ZTIN5Solid7Control6Ifaces14ModemInterfaceE@ABI_4_2 4:4.7.1
 _ZTIN5Solid7Control6Ifaces14NetworkManagerE@ABI_4_2 4:4.7.1
 _ZTIN5Solid7Control6Ifaces16NetworkInterfaceE@ABI_4_2 4:4.7.1
 _ZTIN5Solid7Control6Ifaces18BtNetworkInterfaceE@ABI_4_2 4:4.7.1
 _ZTIN5Solid7Control6Ifaces18ModemCdmaInterfaceE@ABI_4_2 4:4.7.1
 _ZTIN5Solid7Control6Ifaces19GsmNetworkInterfaceE@ABI_4_2 4:4.7.1
 _ZTIN5Solid7Control6Ifaces20CdmaNetworkInterfaceE@ABI_4_2 4:4.7.1
 _ZTIN5Solid7Control6Ifaces20ModemGsmHsoInterfaceE@ABI_4_2 4:4.7.1
 _ZTIN5Solid7Control6Ifaces20ModemGsmSmsInterfaceE@ABI_4_2 4:4.7.1
 _ZTIN5Solid7Control6Ifaces21ModemGsmCardInterfaceE@ABI_4_2 4:4.7.1
 _ZTIN5Solid7Control6Ifaces21ModemGsmUssdInterfaceE@ABI_4_2 4:4.7.1
 _ZTIN5Solid7Control6Ifaces21ModemManagerInterfaceE@ABI_4_2 4:4.7.1
 _ZTIN5Solid7Control6Ifaces21WiredNetworkInterfaceE@ABI_4_2 4:4.7.1
 _ZTIN5Solid7Control6Ifaces22ModemLocationInterfaceE@ABI_4_2 4:4.7.1
 _ZTIN5Solid7Control6Ifaces22SerialNetworkInterfaceE@ABI_4_2 4:4.7.1
 _ZTIN5Solid7Control6Ifaces24ModemGsmNetworkInterfaceE@ABI_4_2 4:4.7.1
 _ZTIN5Solid7Control6Ifaces24WirelessNetworkInterfaceE@ABI_4_2 4:4.7.1
 _ZTIN5Solid7Control6Ifaces25ModemGsmContactsInterfaceE@ABI_4_2 4:4.7.1
 _ZTSN5Solid7Control6Ifaces11AccessPointE@ABI_4_2 4:4.7.1
 _ZTSN5Solid7Control6Ifaces12ModemManagerE@ABI_4_2 4:4.7.1
 _ZTSN5Solid7Control6Ifaces14ModemInterfaceE@ABI_4_2 4:4.7.1
 _ZTSN5Solid7Control6Ifaces14NetworkManagerE@ABI_4_2 4:4.7.1
 _ZTSN5Solid7Control6Ifaces16NetworkInterfaceE@ABI_4_2 4:4.7.1
 _ZTSN5Solid7Control6Ifaces18BtNetworkInterfaceE@ABI_4_2 4:4.7.1
 _ZTSN5Solid7Control6Ifaces18ModemCdmaInterfaceE@ABI_4_2 4:4.7.1
 _ZTSN5Solid7Control6Ifaces19GsmNetworkInterfaceE@ABI_4_2 4:4.7.1
 _ZTSN5Solid7Control6Ifaces20CdmaNetworkInterfaceE@ABI_4_2 4:4.7.1
 _ZTSN5Solid7Control6Ifaces20ModemGsmHsoInterfaceE@ABI_4_2 4:4.7.1
 _ZTSN5Solid7Control6Ifaces20ModemGsmSmsInterfaceE@ABI_4_2 4:4.7.1
 _ZTSN5Solid7Control6Ifaces21ModemGsmCardInterfaceE@ABI_4_2 4:4.7.1
 _ZTSN5Solid7Control6Ifaces21ModemGsmUssdInterfaceE@ABI_4_2 4:4.7.1
 _ZTSN5Solid7Control6Ifaces21ModemManagerInterfaceE@ABI_4_2 4:4.7.1
 _ZTSN5Solid7Control6Ifaces21WiredNetworkInterfaceE@ABI_4_2 4:4.7.1
 _ZTSN5Solid7Control6Ifaces22ModemLocationInterfaceE@ABI_4_2 4:4.7.1
 _ZTSN5Solid7Control6Ifaces22SerialNetworkInterfaceE@ABI_4_2 4:4.7.1
 _ZTSN5Solid7Control6Ifaces24ModemGsmNetworkInterfaceE@ABI_4_2 4:4.7.1
 _ZTSN5Solid7Control6Ifaces24WirelessNetworkInterfaceE@ABI_4_2 4:4.7.1
 _ZTSN5Solid7Control6Ifaces25ModemGsmContactsInterfaceE@ABI_4_2 4:4.7.1
 _ZTTN5Solid7Control6Ifaces18BtNetworkInterfaceE@ABI_4_2 4:4.7.1
 _ZTTN5Solid7Control6Ifaces18ModemCdmaInterfaceE@ABI_4_2 4:4.7.1
 _ZTTN5Solid7Control6Ifaces19GsmNetworkInterfaceE@ABI_4_2 4:4.7.1
 _ZTTN5Solid7Control6Ifaces20CdmaNetworkInterfaceE@ABI_4_2 4:4.7.1
 _ZTTN5Solid7Control6Ifaces20ModemGsmHsoInterfaceE@ABI_4_2 4:4.7.1
 _ZTTN5Solid7Control6Ifaces20ModemGsmSmsInterfaceE@ABI_4_2 4:4.7.1
 _ZTTN5Solid7Control6Ifaces21ModemGsmCardInterfaceE@ABI_4_2 4:4.7.1
 _ZTTN5Solid7Control6Ifaces21ModemGsmUssdInterfaceE@ABI_4_2 4:4.7.1
 _ZTTN5Solid7Control6Ifaces21WiredNetworkInterfaceE@ABI_4_2 4:4.7.1
 _ZTTN5Solid7Control6Ifaces22ModemLocationInterfaceE@ABI_4_2 4:4.7.1
 _ZTTN5Solid7Control6Ifaces22SerialNetworkInterfaceE@ABI_4_2 4:4.7.1
 _ZTTN5Solid7Control6Ifaces24ModemGsmNetworkInterfaceE@ABI_4_2 4:4.7.1
 _ZTTN5Solid7Control6Ifaces24WirelessNetworkInterfaceE@ABI_4_2 4:4.7.1
 _ZTTN5Solid7Control6Ifaces25ModemGsmContactsInterfaceE@ABI_4_2 4:4.7.1
 _ZTVN5Solid7Control6Ifaces11AccessPointE@ABI_4_2 4:4.7.1
 _ZTVN5Solid7Control6Ifaces12ModemManagerE@ABI_4_2 4:4.7.1
 _ZTVN5Solid7Control6Ifaces14ModemInterfaceE@ABI_4_2 4:4.7.1
 _ZTVN5Solid7Control6Ifaces14NetworkManagerE@ABI_4_2 4:4.7.1
 _ZTVN5Solid7Control6Ifaces16NetworkInterfaceE@ABI_4_2 4:4.7.1
 _ZTVN5Solid7Control6Ifaces18BtNetworkInterfaceE@ABI_4_2 4:4.7.1
 _ZTVN5Solid7Control6Ifaces18ModemCdmaInterfaceE@ABI_4_2 4:4.7.1
 _ZTVN5Solid7Control6Ifaces19GsmNetworkInterfaceE@ABI_4_2 4:4.7.1
 _ZTVN5Solid7Control6Ifaces20CdmaNetworkInterfaceE@ABI_4_2 4:4.7.1
 _ZTVN5Solid7Control6Ifaces20ModemGsmHsoInterfaceE@ABI_4_2 4:4.7.1
 _ZTVN5Solid7Control6Ifaces20ModemGsmSmsInterfaceE@ABI_4_2 4:4.7.1
 _ZTVN5Solid7Control6Ifaces21ModemGsmCardInterfaceE@ABI_4_2 4:4.7.1
 _ZTVN5Solid7Control6Ifaces21ModemGsmUssdInterfaceE@ABI_4_2 4:4.7.1
 _ZTVN5Solid7Control6Ifaces21ModemManagerInterfaceE@ABI_4_2 4:4.7.1
 _ZTVN5Solid7Control6Ifaces21WiredNetworkInterfaceE@ABI_4_2 4:4.7.1
 _ZTVN5Solid7Control6Ifaces22ModemLocationInterfaceE@ABI_4_2 4:4.7.1
 _ZTVN5Solid7Control6Ifaces22SerialNetworkInterfaceE@ABI_4_2 4:4.7.1
 _ZTVN5Solid7Control6Ifaces24ModemGsmNetworkInterfaceE@ABI_4_2 4:4.7.1
 _ZTVN5Solid7Control6Ifaces24WirelessNetworkInterfaceE@ABI_4_2 4:4.7.1
 _ZTVN5Solid7Control6Ifaces25ModemGsmContactsInterfaceE@ABI_4_2 4:4.7.1
 (c++)"construction vtable for Solid::Control::Ifaces::GsmNetworkInterface-in-Solid::Control::Ifaces::BtNetworkInterface@ABI_4_2" 4:4.7.1
 (c++)"construction vtable for Solid::Control::Ifaces::SerialNetworkInterface-in-Solid::Control::Ifaces::BtNetworkInterface@ABI_4_2" 4:4.7.1
 (c++)"construction vtable for Solid::Control::Ifaces::SerialNetworkInterface-in-Solid::Control::Ifaces::CdmaNetworkInterface@ABI_4_2" 4:4.7.1
 (c++)"construction vtable for Solid::Control::Ifaces::SerialNetworkInterface-in-Solid::Control::Ifaces::GsmNetworkInterface@ABI_4_2" 4:4.7.1
 dlrestrictions_data@ABI_4_2 4:4.7.1
 (c++)"virtual thunk to Solid::Control::Ifaces::BtNetworkInterface::~BtNetworkInterface()@ABI_4_2" 4:4.7.1
 (c++)"virtual thunk to Solid::Control::Ifaces::CdmaNetworkInterface::~CdmaNetworkInterface()@ABI_4_2" 4:4.7.1
 (c++)"virtual thunk to Solid::Control::Ifaces::GsmNetworkInterface::~GsmNetworkInterface()@ABI_4_2" 4:4.7.1
 (c++)"virtual thunk to Solid::Control::Ifaces::ModemCdmaInterface::~ModemCdmaInterface()@ABI_4_2" 4:4.7.1
 (c++)"virtual thunk to Solid::Control::Ifaces::ModemGsmCardInterface::~ModemGsmCardInterface()@ABI_4_2" 4:4.7.1
 (c++)"virtual thunk to Solid::Control::Ifaces::ModemGsmContactsInterface::~ModemGsmContactsInterface()@ABI_4_2" 4:4.7.1
 (c++)"virtual thunk to Solid::Control::Ifaces::ModemGsmHsoInterface::~ModemGsmHsoInterface()@ABI_4_2" 4:4.7.1
 (c++)"virtual thunk to Solid::Control::Ifaces::ModemGsmNetworkInterface::~ModemGsmNetworkInterface()@ABI_4_2" 4:4.7.1
 (c++)"virtual thunk to Solid::Control::Ifaces::ModemGsmSmsInterface::~ModemGsmSmsInterface()@ABI_4_2" 4:4.7.1
 (c++)"virtual thunk to Solid::Control::Ifaces::ModemGsmUssdInterface::~ModemGsmUssdInterface()@ABI_4_2" 4:4.7.1
 (c++)"virtual thunk to Solid::Control::Ifaces::ModemLocationInterface::~ModemLocationInterface()@ABI_4_2" 4:4.7.1
 (c++)"virtual thunk to Solid::Control::Ifaces::SerialNetworkInterface::~SerialNetworkInterface()@ABI_4_2" 4:4.7.1
 (c++)"virtual thunk to Solid::Control::Ifaces::WiredNetworkInterface::~WiredNetworkInterface()@ABI_4_2" 4:4.7.1
 (c++)"virtual thunk to Solid::Control::Ifaces::WirelessNetworkInterface::~WirelessNetworkInterface()@ABI_4_2" 4:4.7.1
