# SymbolsHelper-Confirmed: 4:4.8.3 amd64
libtaskmanager.so.4abi3 libtaskmanager4abi3 #MINVER#
 ABI_4_3@ABI_4_3 4:4.8.3
 _ZN11TaskManager10TasksModel11qt_metacallEN11QMetaObject4CallEiPPv@ABI_4_3 4:4.8.3
 _ZN11TaskManager10TasksModel11qt_metacastEPKc@ABI_4_3 4:4.8.3
 _ZN11TaskManager10TasksModel16staticMetaObjectE@ABI_4_3 4:4.8.3
 _ZN11TaskManager10TasksModelC1EPNS_12GroupManagerEP7QObject@ABI_4_3 4:4.8.3
 _ZN11TaskManager10TasksModelC2EPNS_12GroupManagerEP7QObject@ABI_4_3 4:4.8.3
 _ZN11TaskManager10TasksModelD0Ev@ABI_4_3 4:4.8.3
 _ZN11TaskManager10TasksModelD1Ev@ABI_4_3 4:4.8.3
 _ZN11TaskManager10TasksModelD2Ev@ABI_4_3 4:4.8.3
 _ZN11TaskManager11TaskManager10isOnScreenEim@ABI_4_3 4:4.8.3
 _ZN11TaskManager11TaskManager11killStartupERK14KStartupInfoId@ABI_4_3 4:4.8.3
 _ZN11TaskManager11TaskManager11qt_metacallEN11QMetaObject4CallEiPPv@ABI_4_3 4:4.8.3
 _ZN11TaskManager11TaskManager11qt_metacastEPKc@ABI_4_3 4:4.8.3
 _ZN11TaskManager11TaskManager11taskChangedE6QFlagsINS_10TaskChangeEE@ABI_4_3 4:4.8.3
 _ZN11TaskManager11TaskManager11taskRemovedEPNS_4TaskE@ABI_4_3 4:4.8.3
 _ZN11TaskManager11TaskManager11windowAddedEm@ABI_4_3 4:4.8.3
 _ZN11TaskManager11TaskManager12startupAddedEPNS_7StartupE@ABI_4_3 4:4.8.3
 _ZN11TaskManager11TaskManager13gotNewStartupERK14KStartupInfoIdRK16KStartupInfoData@ABI_4_3 4:4.8.3
 _ZN11TaskManager11TaskManager13windowChangedEPNS_4TaskE6QFlagsINS_10TaskChangeEE@ABI_4_3 4:4.8.3
 _ZN11TaskManager11TaskManager13windowChangedEmPKm@ABI_4_3 4:4.8.3
 _ZN11TaskManager11TaskManager13windowRemovedEm@ABI_4_3 4:4.8.3
 _ZN11TaskManager11TaskManager14desktopChangedEi@ABI_4_3 4:4.8.3
 _ZN11TaskManager11TaskManager14startupRemovedEPNS_7StartupE@ABI_4_3 4:4.8.3
 _ZN11TaskManager11TaskManager15activityChangedERK7QString@ABI_4_3 4:4.8.3
 _ZN11TaskManager11TaskManager16configureStartupEv@ABI_4_3 4:4.8.3
 _ZN11TaskManager11TaskManager16gotStartupChangeERK14KStartupInfoIdRK16KStartupInfoData@ABI_4_3 4:4.8.3
 _ZN11TaskManager11TaskManager16setTrackGeometryEbRK5QUuid@ABI_4_3 4:4.8.3
 _ZN11TaskManager11TaskManager16staticMetaObjectE@ABI_4_3 4:4.8.3
 _ZN11TaskManager11TaskManager19activeWindowChangedEm@ABI_4_3 4:4.8.3
 _ZN11TaskManager11TaskManager21currentDesktopChangedEi@ABI_4_3 4:4.8.3
 _ZN11TaskManager11TaskManager4selfEv@ABI_4_3 4:4.8.3
 _ZN11TaskManager11TaskManager8findTaskEiRK6QPoint@ABI_4_3 4:4.8.3
 _ZN11TaskManager11TaskManager8findTaskEm@ABI_4_3 4:4.8.3
 _ZN11TaskManager11TaskManager9taskAddedEPNS_4TaskE@ABI_4_3 4:4.8.3
 _ZN11TaskManager11TaskManagerC1Ev@ABI_4_3 4:4.8.3
 _ZN11TaskManager11TaskManagerC2Ev@ABI_4_3 4:4.8.3
 _ZN11TaskManager11TaskManagerD0Ev@ABI_4_3 4:4.8.3
 _ZN11TaskManager11TaskManagerD1Ev@ABI_4_3 4:4.8.3
 _ZN11TaskManager11TaskManagerD2Ev@ABI_4_3 4:4.8.3
 _ZN11TaskManager11ToolTipMenu5eventEP6QEvent@ABI_4_3 4:4.8.3
 _ZN11TaskManager11ToolTipMenuC1EP7QWidgetRK7QString@ABI_4_3 4:4.8.3
 _ZN11TaskManager11ToolTipMenuC2EP7QWidgetRK7QString@ABI_4_3 4:4.8.3
 _ZN11TaskManager11ToolTipMenuD0Ev@ABI_4_3 4:4.8.3
 _ZN11TaskManager11ToolTipMenuD1Ev@ABI_4_3 4:4.8.3
 _ZN11TaskManager11ToolTipMenuD2Ev@ABI_4_3 4:4.8.3
 _ZN11TaskManager12AdvancedMenu11qt_metacallEN11QMetaObject4CallEiPPv@ABI_4_3 4:4.8.3
 _ZN11TaskManager12AdvancedMenu11qt_metacastEPKc@ABI_4_3 4:4.8.3
 _ZN11TaskManager12AdvancedMenu16staticMetaObjectE@ABI_4_3 4:4.8.3
 _ZN11TaskManager12AdvancedMenuC1EP7QWidgetPNS_21AbstractGroupableItemEPNS_12GroupManagerE@ABI_4_3 4:4.8.3
 _ZN11TaskManager12AdvancedMenuC2EP7QWidgetPNS_21AbstractGroupableItemEPNS_12GroupManagerE@ABI_4_3 4:4.8.3
 _ZN11TaskManager12AdvancedMenuD0Ev@ABI_4_3 4:4.8.3
 _ZN11TaskManager12AdvancedMenuD1Ev@ABI_4_3 4:4.8.3
 _ZN11TaskManager12AdvancedMenuD2Ev@ABI_4_3 4:4.8.3
 _ZN11TaskManager12DesktopsMenu11qt_metacallEN11QMetaObject4CallEiPPv@ABI_4_3 4:4.8.3
 _ZN11TaskManager12DesktopsMenu11qt_metacastEPKc@ABI_4_3 4:4.8.3
 _ZN11TaskManager12DesktopsMenu16staticMetaObjectE@ABI_4_3 4:4.8.3
 _ZN11TaskManager12DesktopsMenuC1EP7QWidgetPNS_21AbstractGroupableItemE@ABI_4_3 4:4.8.3
 _ZN11TaskManager12DesktopsMenuC2EP7QWidgetPNS_21AbstractGroupableItemE@ABI_4_3 4:4.8.3
 _ZN11TaskManager12DesktopsMenuD0Ev@ABI_4_3 4:4.8.3
 _ZN11TaskManager12DesktopsMenuD1Ev@ABI_4_3 4:4.8.3
 _ZN11TaskManager12DesktopsMenuD2Ev@ABI_4_3 4:4.8.3
 _ZN11TaskManager12GroupManager11addLauncherERK4KUrlRK5QIconRK7QStringS9_S9_i@ABI_4_3 4:4.8.3
 _ZN11TaskManager12GroupManager11qt_metacallEN11QMetaObject4CallEiPPv@ABI_4_3 4:4.8.3
 _ZN11TaskManager12GroupManager11qt_metacastEPKc@ABI_4_3 4:4.8.3
 _ZN11TaskManager12GroupManager12moveLauncherERK4KUrli@ABI_4_3 4:4.8.3
 _ZN11TaskManager12GroupManager12setFullLimitEi@ABI_4_3 4:4.8.3
 _ZN11TaskManager12GroupManager13configChangedEv@ABI_4_3 4:4.8.3
 _ZN11TaskManager12GroupManager14removeLauncherERK4KUrl@ABI_4_3 4:4.8.3
 _ZN11TaskManager12GroupManager16launchersChangedEv@ABI_4_3 4:4.8.3
 _ZN11TaskManager12GroupManager16setForceGroupingEb@ABI_4_3 4:4.8.3
 _ZN11TaskManager12GroupManager16staticMetaObjectE@ABI_4_3 4:4.8.3
 _ZN11TaskManager12GroupManager18readLauncherConfigERK12KConfigGroup@ABI_4_3 4:4.8.3
 _ZN11TaskManager12GroupManager18setLaunchersLockedEb@ABI_4_3 4:4.8.3
 _ZN11TaskManager12GroupManager18setSortingStrategyENS0_19TaskSortingStrategyE@ABI_4_3 4:4.8.3
 _ZN11TaskManager12GroupManager19setGroupingStrategyENS0_20TaskGroupingStrategyE@ABI_4_3 4:4.8.3
 _ZN11TaskManager12GroupManager20exportLauncherConfigERK12KConfigGroup@ABI_4_3 4:4.8.3
 _ZN11TaskManager12GroupManager20manualSortingRequestEPNS_21AbstractGroupableItemEi@ABI_4_3 4:4.8.3
 _ZN11TaskManager12GroupManager20setOnlyGroupWhenFullEb@ABI_4_3 4:4.8.3
 _ZN11TaskManager12GroupManager20setSeparateLaunchersEb@ABI_4_3 4:4.8.3
 _ZN11TaskManager12GroupManager20setShowOnlyMinimizedEb@ABI_4_3 4:4.8.3
 _ZN11TaskManager12GroupManager21manualGroupingRequestE5QListIPNS_21AbstractGroupableItemEE@ABI_4_3 4:4.8.3
 _ZN11TaskManager12GroupManager21manualGroupingRequestEPNS_21AbstractGroupableItemEPNS_9TaskGroupE@ABI_4_3 4:4.8.3
 _ZN11TaskManager12GroupManager24setShowOnlyCurrentScreenEb@ABI_4_3 4:4.8.3
 _ZN11TaskManager12GroupManager25setShowOnlyCurrentDesktopEb@ABI_4_3 4:4.8.3
 _ZN11TaskManager12GroupManager26setShowOnlyCurrentActivityEb@ABI_4_3 4:4.8.3
 _ZN11TaskManager12GroupManager28createConfigurationInterfaceEP13KConfigDialog@ABI_4_3 4:4.8.3
 _ZN11TaskManager12GroupManager6reloadEv@ABI_4_3 4:4.8.3
 _ZN11TaskManager12GroupManager9reconnectEv@ABI_4_3 4:4.8.3
 _ZN11TaskManager12GroupManager9setScreenEi@ABI_4_3 4:4.8.3
 _ZN11TaskManager12GroupManagerC1EP7QObject@ABI_4_3 4:4.8.3
 _ZN11TaskManager12GroupManagerC2EP7QObject@ABI_4_3 4:4.8.3
 _ZN11TaskManager12GroupManagerD0Ev@ABI_4_3 4:4.8.3
 _ZN11TaskManager12GroupManagerD1Ev@ABI_4_3 4:4.8.3
 _ZN11TaskManager12GroupManagerD2Ev@ABI_4_3 4:4.8.3
 _ZN11TaskManager12LauncherItem10setWmClassERK7QString@ABI_4_3 4:4.8.3
 _ZN11TaskManager12LauncherItem11qt_metacallEN11QMetaObject4CallEiPPv@ABI_4_3 4:4.8.3
 _ZN11TaskManager12LauncherItem11qt_metacastEPKc@ABI_4_3 4:4.8.3
 _ZN11TaskManager12LauncherItem12setMaximizedEb@ABI_4_3 4:4.8.3
 _ZN11TaskManager12LauncherItem12setMinimizedEb@ABI_4_3 4:4.8.3
 _ZN11TaskManager12LauncherItem12toggleShadedEv@ABI_4_3 4:4.8.3
 _ZN11TaskManager12LauncherItem13setFullScreenEb@ABI_4_3 4:4.8.3
 _ZN11TaskManager12LauncherItem14setAlwaysOnTopEb@ABI_4_3 4:4.8.3
 _ZN11TaskManager12LauncherItem14setGenericNameERK7QString@ABI_4_3 4:4.8.3
 _ZN11TaskManager12LauncherItem14setLauncherUrlERK4KUrl@ABI_4_3 4:4.8.3
 _ZN11TaskManager12LauncherItem15toggleMaximizedEv@ABI_4_3 4:4.8.3
 _ZN11TaskManager12LauncherItem15toggleMinimizedEv@ABI_4_3 4:4.8.3
 _ZN11TaskManager12LauncherItem16staticMetaObjectE@ABI_4_3 4:4.8.3
 _ZN11TaskManager12LauncherItem16toggleFullScreenEv@ABI_4_3 4:4.8.3
 _ZN11TaskManager12LauncherItem17toggleAlwaysOnTopEv@ABI_4_3 4:4.8.3
 _ZN11TaskManager12LauncherItem18associationChangedEv@ABI_4_3 4:4.8.3
 _ZN11TaskManager12LauncherItem18setKeptBelowOthersEb@ABI_4_3 4:4.8.3
 _ZN11TaskManager12LauncherItem21toggleKeptBelowOthersEv@ABI_4_3 4:4.8.3
 _ZN11TaskManager12LauncherItem22associateItemIfMatchesEPNS_21AbstractGroupableItemE@ABI_4_3 4:4.8.3
 _ZN11TaskManager12LauncherItem22removeItemIfAssociatedEPNS_21AbstractGroupableItemE@ABI_4_3 4:4.8.3
 _ZN11TaskManager12LauncherItem5closeEv@ABI_4_3 4:4.8.3
 _ZN11TaskManager12LauncherItem6launchEv@ABI_4_3 4:4.8.3
 _ZN11TaskManager12LauncherItem7setIconERK5QIcon@ABI_4_3 4:4.8.3
 _ZN11TaskManager12LauncherItem7setNameERK7QString@ABI_4_3 4:4.8.3
 _ZN11TaskManager12LauncherItem9setShadedEb@ABI_4_3 4:4.8.3
 _ZN11TaskManager12LauncherItem9toDesktopEi@ABI_4_3 4:4.8.3
 _ZN11TaskManager12LauncherItemC1EP7QObjectRK4KUrl@ABI_4_3 4:4.8.3
 _ZN11TaskManager12LauncherItemC2EP7QObjectRK4KUrl@ABI_4_3 4:4.8.3
 _ZN11TaskManager12LauncherItemD0Ev@ABI_4_3 4:4.8.3
 _ZN11TaskManager12LauncherItemD1Ev@ABI_4_3 4:4.8.3
 _ZN11TaskManager12LauncherItemD2Ev@ABI_4_3 4:4.8.3
 _ZN11TaskManager14GroupPopupMenu11qt_metacallEN11QMetaObject4CallEiPPv@ABI_4_3 4:4.8.3
 _ZN11TaskManager14GroupPopupMenu11qt_metacastEPKc@ABI_4_3 4:4.8.3
 _ZN11TaskManager14GroupPopupMenu16staticMetaObjectE@ABI_4_3 4:4.8.3
 _ZN11TaskManager14GroupPopupMenuC1EP7QWidgetPNS_9TaskGroupEPNS_12GroupManagerE@ABI_4_3 4:4.8.3
 _ZN11TaskManager14GroupPopupMenuC2EP7QWidgetPNS_9TaskGroupEPNS_12GroupManagerE@ABI_4_3 4:4.8.3
 _ZN11TaskManager14GroupPopupMenuD0Ev@ABI_4_3 4:4.8.3
 _ZN11TaskManager14GroupPopupMenuD1Ev@ABI_4_3 4:4.8.3
 _ZN11TaskManager14GroupPopupMenuD2Ev@ABI_4_3 4:4.8.3
 _ZN11TaskManager20GroupingStrategyMenu11qt_metacallEN11QMetaObject4CallEiPPv@ABI_4_3 4:4.8.3
 _ZN11TaskManager20GroupingStrategyMenu11qt_metacastEPKc@ABI_4_3 4:4.8.3
 _ZN11TaskManager20GroupingStrategyMenu16staticMetaObjectE@ABI_4_3 4:4.8.3
 _ZN11TaskManager20GroupingStrategyMenuC1EP7QWidgetPNS_21AbstractGroupableItemEPNS_12GroupManagerE@ABI_4_3 4:4.8.3
 _ZN11TaskManager20GroupingStrategyMenuC2EP7QWidgetPNS_21AbstractGroupableItemEPNS_12GroupManagerE@ABI_4_3 4:4.8.3
 _ZN11TaskManager20GroupingStrategyMenuD0Ev@ABI_4_3 4:4.8.3
 _ZN11TaskManager20GroupingStrategyMenuD1Ev@ABI_4_3 4:4.8.3
 _ZN11TaskManager20GroupingStrategyMenuD2Ev@ABI_4_3 4:4.8.3
 _ZN11TaskManager21AbstractGroupableItem11qt_metacallEN11QMetaObject4CallEiPPv@ABI_4_3 4:4.8.3
 _ZN11TaskManager21AbstractGroupableItem11qt_metacastEPKc@ABI_4_3 4:4.8.3
 _ZN11TaskManager21AbstractGroupableItem14setParentGroupEPNS_9TaskGroupE@ABI_4_3 4:4.8.3
 _ZN11TaskManager21AbstractGroupableItem16staticMetaObjectE@ABI_4_3 4:4.8.3
 _ZN11TaskManager21AbstractGroupableItem7Private8m_nextIdE@ABI_4_3 4:4.8.3
 _ZN11TaskManager21AbstractGroupableItem7changedE6QFlagsINS_10TaskChangeEE@ABI_4_3 4:4.8.3
 _ZN11TaskManager21AbstractGroupableItem9destroyedEPS0_@ABI_4_3 4:4.8.3
 _ZN11TaskManager21AbstractGroupableItemC1EP7QObject@ABI_4_3 4:4.8.3
 _ZN11TaskManager21AbstractGroupableItemC2EP7QObject@ABI_4_3 4:4.8.3
 _ZN11TaskManager21AbstractGroupableItemD0Ev@ABI_4_3 4:4.8.3
 _ZN11TaskManager21AbstractGroupableItemD1Ev@ABI_4_3 4:4.8.3
 _ZN11TaskManager21AbstractGroupableItemD2Ev@ABI_4_3 4:4.8.3
 _ZN11TaskManager23AbstractSortingStrategy10handleItemEPNS_21AbstractGroupableItemE@ABI_4_3 4:4.8.3
 _ZN11TaskManager23AbstractSortingStrategy11handleGroupEPNS_9TaskGroupE@ABI_4_3 4:4.8.3
 _ZN11TaskManager23AbstractSortingStrategy11qt_metacallEN11QMetaObject4CallEiPPv@ABI_4_3 4:4.8.3
 _ZN11TaskManager23AbstractSortingStrategy11qt_metacastEPKc@ABI_4_3 4:4.8.3
 _ZN11TaskManager23AbstractSortingStrategy11removeGroupEv@ABI_4_3 4:4.8.3
 _ZN11TaskManager23AbstractSortingStrategy16staticMetaObjectE@ABI_4_3 4:4.8.3
 _ZN11TaskManager23AbstractSortingStrategy20manualSortingRequestEPNS_21AbstractGroupableItemEi@ABI_4_3 4:4.8.3
 _ZN11TaskManager23AbstractSortingStrategy5checkEPNS_21AbstractGroupableItemE@ABI_4_3 4:4.8.3
 _ZN11TaskManager23AbstractSortingStrategy7setTypeENS_12GroupManager19TaskSortingStrategyE@ABI_4_3 4:4.8.3
 _ZN11TaskManager23AbstractSortingStrategy8moveItemEPNS_21AbstractGroupableItemEi@ABI_4_3 4:4.8.3
 _ZN11TaskManager23AbstractSortingStrategy9sortItemsER5QListIPNS_21AbstractGroupableItemEE@ABI_4_3 4:4.8.3
 _ZN11TaskManager23AbstractSortingStrategyC1EP7QObject@ABI_4_3 4:4.8.3
 _ZN11TaskManager23AbstractSortingStrategyC2EP7QObject@ABI_4_3 4:4.8.3
 _ZN11TaskManager23AbstractSortingStrategyD0Ev@ABI_4_3 4:4.8.3
 _ZN11TaskManager23AbstractSortingStrategyD1Ev@ABI_4_3 4:4.8.3
 _ZN11TaskManager23AbstractSortingStrategyD2Ev@ABI_4_3 4:4.8.3
 _ZN11TaskManager24AbstractGroupingStrategy10checkGroupEv@ABI_4_3 4:4.8.3
 _ZN11TaskManager24AbstractGroupingStrategy10closeGroupEPNS_9TaskGroupE@ABI_4_3 4:4.8.3
 _ZN11TaskManager24AbstractGroupingStrategy11createGroupE5QListIPNS_21AbstractGroupableItemEE@ABI_4_3 4:4.8.3
 _ZN11TaskManager24AbstractGroupingStrategy11qt_metacallEN11QMetaObject4CallEiPPv@ABI_4_3 4:4.8.3
 _ZN11TaskManager24AbstractGroupingStrategy11qt_metacastEPKc@ABI_4_3 4:4.8.3
 _ZN11TaskManager24AbstractGroupingStrategy12groupRemovedEPNS_9TaskGroupE@ABI_4_3 4:4.8.3
 _ZN11TaskManager24AbstractGroupingStrategy14desktopChangedEi@ABI_4_3 4:4.8.3
 _ZN11TaskManager24AbstractGroupingStrategy15iconSuggestionsEPNS_9TaskGroupE@ABI_4_3 4:4.8.3
 _ZN11TaskManager24AbstractGroupingStrategy15nameSuggestionsEPNS_9TaskGroupE@ABI_4_3 4:4.8.3
 _ZN11TaskManager24AbstractGroupingStrategy15strategyActionsEP7QObjectPNS_21AbstractGroupableItemE@ABI_4_3 4:4.8.3
 _ZN11TaskManager24AbstractGroupingStrategy16staticMetaObjectE@ABI_4_3 4:4.8.3
 _ZN11TaskManager24AbstractGroupingStrategy21manualGroupingRequestE5QListIPNS_21AbstractGroupableItemEE@ABI_4_3 4:4.8.3
 _ZN11TaskManager24AbstractGroupingStrategy21manualGroupingRequestEPNS_21AbstractGroupableItemEPNS_9TaskGroupE@ABI_4_3 4:4.8.3
 _ZN11TaskManager24AbstractGroupingStrategy7destroyEv@ABI_4_3 4:4.8.3
 _ZN11TaskManager24AbstractGroupingStrategy7setIconERK5QIconPNS_9TaskGroupE@ABI_4_3 4:4.8.3
 _ZN11TaskManager24AbstractGroupingStrategy7setNameERK7QStringPNS_9TaskGroupE@ABI_4_3 4:4.8.3
 _ZN11TaskManager24AbstractGroupingStrategy7setTypeENS_12GroupManager20TaskGroupingStrategyE@ABI_4_3 4:4.8.3
 _ZN11TaskManager24AbstractGroupingStrategyC1EPNS_12GroupManagerE@ABI_4_3 4:4.8.3
 _ZN11TaskManager24AbstractGroupingStrategyC2EPNS_12GroupManagerE@ABI_4_3 4:4.8.3
 _ZN11TaskManager24AbstractGroupingStrategyD0Ev@ABI_4_3 4:4.8.3
 _ZN11TaskManager24AbstractGroupingStrategyD1Ev@ABI_4_3 4:4.8.3
 _ZN11TaskManager24AbstractGroupingStrategyD2Ev@ABI_4_3 4:4.8.3
 _ZN11TaskManager4Task10timerEventEP11QTimerEvent@ABI_4_3 4:4.8.3
 _ZN11TaskManager4Task11deactivatedEv@ABI_4_3 4:4.8.3
 _ZN11TaskManager4Task11qt_metacallEN11QMetaObject4CallEiPPv@ABI_4_3 4:4.8.3
 _ZN11TaskManager4Task11qt_metacastEPKc@ABI_4_3 4:4.8.3
 _ZN11TaskManager4Task11refreshIconEv@ABI_4_3 4:4.8.3
 _ZN11TaskManager4Task12addTransientEmRK10NETWinInfo@ABI_4_3 4:4.8.3
 _ZN11TaskManager4Task12setIconifiedEb@ABI_4_3 4:4.8.3
 _ZN11TaskManager4Task12setMaximizedEb@ABI_4_3 4:4.8.3
 _ZN11TaskManager4Task12toggleShadedEv@ABI_4_3 4:4.8.3
 _ZN11TaskManager4Task13groupMimetypeEv@ABI_4_3 4:4.8.3
 _ZN11TaskManager4Task13setFullScreenEb@ABI_4_3 4:4.8.3
 _ZN11TaskManager4Task14idFromMimeDataEPK9QMimeDataPb@ABI_4_3 4:4.8.3
 _ZN11TaskManager4Task14setAlwaysOnTopEb@ABI_4_3 4:4.8.3
 _ZN11TaskManager4Task15clearPixmapDataEv@ABI_4_3 4:4.8.3
 _ZN11TaskManager4Task15idsFromMimeDataEPK9QMimeDataPb@ABI_4_3 4:4.8.3
 _ZN11TaskManager4Task15removeTransientEm@ABI_4_3 4:4.8.3
 _ZN11TaskManager4Task15toggleIconifiedEv@ABI_4_3 4:4.8.3
 _ZN11TaskManager4Task15toggleMaximizedEv@ABI_4_3 4:4.8.3
 _ZN11TaskManager4Task16WindowPropertiesC1Ejj@ABI_4_3 4:4.8.3
 _ZN11TaskManager4Task16WindowPropertiesC2Ejj@ABI_4_3 4:4.8.3
 _ZN11TaskManager4Task16staticMetaObjectE@ABI_4_3 4:4.8.3
 _ZN11TaskManager4Task16toCurrentDesktopEv@ABI_4_3 4:4.8.3
 _ZN11TaskManager4Task16toggleFullScreenEv@ABI_4_3 4:4.8.3
 _ZN11TaskManager4Task17refreshActivitiesEv@ABI_4_3 4:4.8.3
 _ZN11TaskManager4Task17toggleAlwaysOnTopEv@ABI_4_3 4:4.8.3
 _ZN11TaskManager4Task18setKeptBelowOthersEb@ABI_4_3 4:4.8.3
 _ZN11TaskManager4Task19publishIconGeometryE5QRect@ABI_4_3 4:4.8.3
 _ZN11TaskManager4Task21toggleKeptBelowOthersEv@ABI_4_3 4:4.8.3
 _ZN11TaskManager4Task22activateRaiseOrIconifyEv@ABI_4_3 4:4.8.3
 _ZN11TaskManager4Task27updateDemandsAttentionStateEm@ABI_4_3 4:4.8.3
 _ZN11TaskManager4Task4iconEiib@ABI_4_3 4:4.8.3
 _ZN11TaskManager4Task4iconEv@ABI_4_3 4:4.8.3
 _ZN11TaskManager4Task4moveEv@ABI_4_3 4:4.8.3
 _ZN11TaskManager4Task5closeEv@ABI_4_3 4:4.8.3
 _ZN11TaskManager4Task5lowerEv@ABI_4_3 4:4.8.3
 _ZN11TaskManager4Task5raiseEv@ABI_4_3 4:4.8.3
 _ZN11TaskManager4Task6resizeEv@ABI_4_3 4:4.8.3
 _ZN11TaskManager4Task7changedE6QFlagsINS_10TaskChangeEE@ABI_4_3 4:4.8.3
 _ZN11TaskManager4Task7idMatchERK7QStringS3_@ABI_4_3 4:4.8.3
 _ZN11TaskManager4Task7refreshENS0_16WindowPropertiesE@ABI_4_3 4:4.8.3
 _ZN11TaskManager4Task7restoreEv@ABI_4_3 4:4.8.3
 _ZN11TaskManager4Task8activateEv@ABI_4_3 4:4.8.3
 _ZN11TaskManager4Task8bestIconEiRb@ABI_4_3 4:4.8.3
 _ZN11TaskManager4Task8mimetypeEv@ABI_4_3 4:4.8.3
 _ZN11TaskManager4Task9activatedEv@ABI_4_3 4:4.8.3
 _ZN11TaskManager4Task9setActiveEb@ABI_4_3 4:4.8.3
 _ZN11TaskManager4Task9setShadedEb@ABI_4_3 4:4.8.3
 _ZN11TaskManager4Task9toDesktopEi@ABI_4_3 4:4.8.3
 _ZN11TaskManager4TaskC1EmP7QObjectPKc@ABI_4_3 4:4.8.3
 _ZN11TaskManager4TaskC2EmP7QObjectPKc@ABI_4_3 4:4.8.3
 _ZN11TaskManager4TaskD0Ev@ABI_4_3 4:4.8.3
 _ZN11TaskManager4TaskD1Ev@ABI_4_3 4:4.8.3
 _ZN11TaskManager4TaskD2Ev@ABI_4_3 4:4.8.3
 _ZN11TaskManager7Startup11qt_metacallEN11QMetaObject4CallEiPPv@ABI_4_3 4:4.8.3
 _ZN11TaskManager7Startup11qt_metacastEPKc@ABI_4_3 4:4.8.3
 _ZN11TaskManager7Startup14addWindowMatchEm@ABI_4_3 4:4.8.3
 _ZN11TaskManager7Startup15clearPixmapDataEv@ABI_4_3 4:4.8.3
 _ZN11TaskManager7Startup16staticMetaObjectE@ABI_4_3 4:4.8.3
 _ZN11TaskManager7Startup6updateERK16KStartupInfoData@ABI_4_3 4:4.8.3
 _ZN11TaskManager7Startup7changedE6QFlagsINS_10TaskChangeEE@ABI_4_3 4:4.8.3
 _ZN11TaskManager7StartupC1ERK14KStartupInfoIdRK16KStartupInfoDataP7QObjectPKc@ABI_4_3 4:4.8.3
 _ZN11TaskManager7StartupC2ERK14KStartupInfoIdRK16KStartupInfoDataP7QObjectPKc@ABI_4_3 4:4.8.3
 _ZN11TaskManager7StartupD0Ev@ABI_4_3 4:4.8.3
 _ZN11TaskManager7StartupD1Ev@ABI_4_3 4:4.8.3
 _ZN11TaskManager7StartupD2Ev@ABI_4_3 4:4.8.3
 _ZN11TaskManager8TaskItem11qt_metacallEN11QMetaObject4CallEiPPv@ABI_4_3 4:4.8.3
 _ZN11TaskManager8TaskItem11qt_metacastEPKc@ABI_4_3 4:4.8.3
 _ZN11TaskManager8TaskItem12setMaximizedEb@ABI_4_3 4:4.8.3
 _ZN11TaskManager8TaskItem12setMinimizedEb@ABI_4_3 4:4.8.3
 _ZN11TaskManager8TaskItem12toggleShadedEv@ABI_4_3 4:4.8.3
 _ZN11TaskManager8TaskItem13setFullScreenEb@ABI_4_3 4:4.8.3
 _ZN11TaskManager8TaskItem13taskDestroyedEv@ABI_4_3 4:4.8.3
 _ZN11TaskManager8TaskItem14gotTaskPointerEv@ABI_4_3 4:4.8.3
 _ZN11TaskManager8TaskItem14setAlwaysOnTopEb@ABI_4_3 4:4.8.3
 _ZN11TaskManager8TaskItem14setLauncherUrlEPKNS_21AbstractGroupableItemE@ABI_4_3 4:4.8.3
 _ZN11TaskManager8TaskItem14setLauncherUrlERK4KUrl@ABI_4_3 4:4.8.3
 _ZN11TaskManager8TaskItem14setTaskPointerEPNS_4TaskE@ABI_4_3 4:4.8.3
 _ZN11TaskManager8TaskItem15toggleMaximizedEv@ABI_4_3 4:4.8.3
 _ZN11TaskManager8TaskItem15toggleMinimizedEv@ABI_4_3 4:4.8.3
 _ZN11TaskManager8TaskItem16staticMetaObjectE@ABI_4_3 4:4.8.3
 _ZN11TaskManager8TaskItem16toggleFullScreenEv@ABI_4_3 4:4.8.3
 _ZN11TaskManager8TaskItem17toggleAlwaysOnTopEv@ABI_4_3 4:4.8.3
 _ZN11TaskManager8TaskItem18resetLauncherCheckEv@ABI_4_3 4:4.8.3
 _ZN11TaskManager8TaskItem18setKeptBelowOthersEb@ABI_4_3 4:4.8.3
 _ZN11TaskManager8TaskItem21toggleKeptBelowOthersEv@ABI_4_3 4:4.8.3
 _ZN11TaskManager8TaskItem5closeEv@ABI_4_3 4:4.8.3
 _ZN11TaskManager8TaskItem9setShadedEb@ABI_4_3 4:4.8.3
 _ZN11TaskManager8TaskItem9toDesktopEi@ABI_4_3 4:4.8.3
 _ZN11TaskManager8TaskItemC1EP7QObjectPNS_4TaskE@ABI_4_3 4:4.8.3
 _ZN11TaskManager8TaskItemC1EP7QObjectPNS_7StartupE@ABI_4_3 4:4.8.3
 _ZN11TaskManager8TaskItemC2EP7QObjectPNS_4TaskE@ABI_4_3 4:4.8.3
 _ZN11TaskManager8TaskItemC2EP7QObjectPNS_7StartupE@ABI_4_3 4:4.8.3
 _ZN11TaskManager8TaskItemD0Ev@ABI_4_3 4:4.8.3
 _ZN11TaskManager8TaskItemD1Ev@ABI_4_3 4:4.8.3
 _ZN11TaskManager8TaskItemD2Ev@ABI_4_3 4:4.8.3
 _ZN11TaskManager9BasicMenu11qt_metacallEN11QMetaObject4CallEiPPv@ABI_4_3 4:4.8.3
 _ZN11TaskManager9BasicMenu11qt_metacastEPKc@ABI_4_3 4:4.8.3
 _ZN11TaskManager9BasicMenu16staticMetaObjectE@ABI_4_3 4:4.8.3
 _ZN11TaskManager9BasicMenuC1EP7QWidgetPNS_12LauncherItemEPNS_12GroupManagerE5QListIP7QActionESA_@ABI_4_3 4:4.8.3
 _ZN11TaskManager9BasicMenuC1EP7QWidgetPNS_8TaskItemEPNS_12GroupManagerE5QListIP7QActionESA_@ABI_4_3 4:4.8.3
 _ZN11TaskManager9BasicMenuC1EP7QWidgetPNS_9TaskGroupEPNS_12GroupManagerE5QListIP7QActionESA_@ABI_4_3 4:4.8.3
 _ZN11TaskManager9BasicMenuC2EP7QWidgetPNS_12LauncherItemEPNS_12GroupManagerE5QListIP7QActionESA_@ABI_4_3 4:4.8.3
 _ZN11TaskManager9BasicMenuC2EP7QWidgetPNS_8TaskItemEPNS_12GroupManagerE5QListIP7QActionESA_@ABI_4_3 4:4.8.3
 _ZN11TaskManager9BasicMenuC2EP7QWidgetPNS_9TaskGroupEPNS_12GroupManagerE5QListIP7QActionESA_@ABI_4_3 4:4.8.3
 _ZN11TaskManager9BasicMenuD0Ev@ABI_4_3 4:4.8.3
 _ZN11TaskManager9BasicMenuD1Ev@ABI_4_3 4:4.8.3
 _ZN11TaskManager9BasicMenuD2Ev@ABI_4_3 4:4.8.3
 _ZN11TaskManager9TaskGroup11itemRemovedEPNS_21AbstractGroupableItemE@ABI_4_3 4:4.8.3
 _ZN11TaskManager9TaskGroup11qt_metacallEN11QMetaObject4CallEiPPv@ABI_4_3 4:4.8.3
 _ZN11TaskManager9TaskGroup11qt_metacastEPKc@ABI_4_3 4:4.8.3
 _ZN11TaskManager9TaskGroup12setMaximizedEb@ABI_4_3 4:4.8.3
 _ZN11TaskManager9TaskGroup12setMinimizedEb@ABI_4_3 4:4.8.3
 _ZN11TaskManager9TaskGroup12toggleShadedEv@ABI_4_3 4:4.8.3
 _ZN11TaskManager9TaskGroup13setFullScreenEb@ABI_4_3 4:4.8.3
 _ZN11TaskManager9TaskGroup14getMemberByWIdEm@ABI_4_3 4:4.8.3
 _ZN11TaskManager9TaskGroup14movedToDesktopEi@ABI_4_3 4:4.8.3
 _ZN11TaskManager9TaskGroup14setAlwaysOnTopEb@ABI_4_3 4:4.8.3
 _ZN11TaskManager9TaskGroup15itemAboutToMoveEPNS_21AbstractGroupableItemEii@ABI_4_3 4:4.8.3
 _ZN11TaskManager9TaskGroup15toggleMaximizedEv@ABI_4_3 4:4.8.3
 _ZN11TaskManager9TaskGroup15toggleMinimizedEv@ABI_4_3 4:4.8.3
 _ZN11TaskManager9TaskGroup16groupEditRequestEv@ABI_4_3 4:4.8.3
 _ZN11TaskManager9TaskGroup16staticMetaObjectE@ABI_4_3 4:4.8.3
 _ZN11TaskManager9TaskGroup16toggleFullScreenEv@ABI_4_3 4:4.8.3
 _ZN11TaskManager9TaskGroup17toggleAlwaysOnTopEv@ABI_4_3 4:4.8.3
 _ZN11TaskManager9TaskGroup18itemAboutToBeAddedEPNS_21AbstractGroupableItemEi@ABI_4_3 4:4.8.3
 _ZN11TaskManager9TaskGroup18setKeptBelowOthersEb@ABI_4_3 4:4.8.3
 _ZN11TaskManager9TaskGroup19itemPositionChangedEPNS_21AbstractGroupableItemE@ABI_4_3 4:4.8.3
 _ZN11TaskManager9TaskGroup20itemAboutToBeRemovedEPNS_21AbstractGroupableItemE@ABI_4_3 4:4.8.3
 _ZN11TaskManager9TaskGroup21toggleKeptBelowOthersEv@ABI_4_3 4:4.8.3
 _ZN11TaskManager9TaskGroup3addEPNS_21AbstractGroupableItemEi@ABI_4_3 4:4.8.3
 _ZN11TaskManager9TaskGroup5clearEv@ABI_4_3 4:4.8.3
 _ZN11TaskManager9TaskGroup5closeEv@ABI_4_3 4:4.8.3
 _ZN11TaskManager9TaskGroup6removeEPNS_21AbstractGroupableItemE@ABI_4_3 4:4.8.3
 _ZN11TaskManager9TaskGroup7Private11itemChangedE6QFlagsINS_10TaskChangeEE@ABI_4_3 4:4.8.3
 _ZN11TaskManager9TaskGroup7Private13itemDestroyedEPNS_21AbstractGroupableItemE@ABI_4_3 4:4.8.3
 _ZN11TaskManager9TaskGroup7Private14signalRemovalsEv@ABI_4_3 4:4.8.3
 _ZN11TaskManager9TaskGroup7setIconERK5QIcon@ABI_4_3 4:4.8.3
 _ZN11TaskManager9TaskGroup7setNameERK7QString@ABI_4_3 4:4.8.3
 _ZN11TaskManager9TaskGroup8moveItemEii@ABI_4_3 4:4.8.3
 _ZN11TaskManager9TaskGroup9checkIconEPS0_@ABI_4_3 4:4.8.3
 _ZN11TaskManager9TaskGroup9itemAddedEPNS_21AbstractGroupableItemE@ABI_4_3 4:4.8.3
 _ZN11TaskManager9TaskGroup9setShadedEb@ABI_4_3 4:4.8.3
 _ZN11TaskManager9TaskGroup9toDesktopEi@ABI_4_3 4:4.8.3
 _ZN11TaskManager9TaskGroup9totalSizeEv@ABI_4_3 4:4.8.3
 _ZN11TaskManager9TaskGroupC1EPNS_12GroupManagerE@ABI_4_3 4:4.8.3
 _ZN11TaskManager9TaskGroupC1EPNS_12GroupManagerERK7QString@ABI_4_3 4:4.8.3
 _ZN11TaskManager9TaskGroupC2EPNS_12GroupManagerE@ABI_4_3 4:4.8.3
 _ZN11TaskManager9TaskGroupC2EPNS_12GroupManagerERK7QString@ABI_4_3 4:4.8.3
 _ZN11TaskManager9TaskGroupD0Ev@ABI_4_3 4:4.8.3
 _ZN11TaskManager9TaskGroupD1Ev@ABI_4_3 4:4.8.3
 _ZN11TaskManager9TaskGroupD2Ev@ABI_4_3 4:4.8.3
 _ZNK11TaskManager10TasksModel10metaObjectEv@ABI_4_3 4:4.8.3
 _ZNK11TaskManager10TasksModel11columnCountERK11QModelIndex@ABI_4_3 4:4.8.3
 _ZNK11TaskManager10TasksModel4dataERK11QModelIndexi@ABI_4_3 4:4.8.3
 _ZNK11TaskManager10TasksModel5indexEiiRK11QModelIndex@ABI_4_3 4:4.8.3
 _ZNK11TaskManager10TasksModel6parentERK11QModelIndex@ABI_4_3 4:4.8.3
 _ZNK11TaskManager10TasksModel8rowCountERK11QModelIndex@ABI_4_3 4:4.8.3
 _ZNK11TaskManager11TaskManager10metaObjectEv@ABI_4_3 4:4.8.3
 _ZNK11TaskManager11TaskManager11desktopNameEi@ABI_4_3 4:4.8.3
 _ZNK11TaskManager11TaskManager13trackGeometryEv@ABI_4_3 4:4.8.3
 _ZNK11TaskManager11TaskManager14currentDesktopEv@ABI_4_3 4:4.8.3
 _ZNK11TaskManager11TaskManager15currentActivityEv@ABI_4_3 4:4.8.3
 _ZNK11TaskManager11TaskManager16numberOfDesktopsEv@ABI_4_3 4:4.8.3
 _ZNK11TaskManager11TaskManager5tasksEv@ABI_4_3 4:4.8.3
 _ZNK11TaskManager11TaskManager7isOnTopEPKNS_4TaskE@ABI_4_3 4:4.8.3
 _ZNK11TaskManager11TaskManager8startupsEv@ABI_4_3 4:4.8.3
 _ZNK11TaskManager12AdvancedMenu10metaObjectEv@ABI_4_3 4:4.8.3
 _ZNK11TaskManager12DesktopsMenu10metaObjectEv@ABI_4_3 4:4.8.3
 _ZNK11TaskManager12GroupManager10metaObjectEv@ABI_4_3 4:4.8.3
 _ZNK11TaskManager12GroupManager10taskSorterEv@ABI_4_3 4:4.8.3
 _ZNK11TaskManager12GroupManager11taskGrouperEv@ABI_4_3 4:4.8.3
 _ZNK11TaskManager12GroupManager13forceGroupingEv@ABI_4_3 4:4.8.3
 _ZNK11TaskManager12GroupManager13launcherCountEv@ABI_4_3 4:4.8.3
 _ZNK11TaskManager12GroupManager13launcherIndexERK4KUrl@ABI_4_3 4:4.8.3
 _ZNK11TaskManager12GroupManager14launcherExistsERK4KUrl@ABI_4_3 4:4.8.3
 _ZNK11TaskManager12GroupManager15launcherWmClassERK4KUrl@ABI_4_3 4:4.8.3
 _ZNK11TaskManager12GroupManager15launchersLockedEv@ABI_4_3 4:4.8.3
 _ZNK11TaskManager12GroupManager15sortingStrategyEv@ABI_4_3 4:4.8.3
 _ZNK11TaskManager12GroupManager16groupingStrategyEv@ABI_4_3 4:4.8.3
 _ZNK11TaskManager12GroupManager17onlyGroupWhenFullEv@ABI_4_3 4:4.8.3
 _ZNK11TaskManager12GroupManager17separateLaunchersEv@ABI_4_3 4:4.8.3
 _ZNK11TaskManager12GroupManager17showOnlyMinimizedEv@ABI_4_3 4:4.8.3
 _ZNK11TaskManager12GroupManager18launcherForWmClassERK7QString@ABI_4_3 4:4.8.3
 _ZNK11TaskManager12GroupManager21showOnlyCurrentScreenEv@ABI_4_3 4:4.8.3
 _ZNK11TaskManager12GroupManager22showOnlyCurrentDesktopEv@ABI_4_3 4:4.8.3
 _ZNK11TaskManager12GroupManager23showOnlyCurrentActivityEv@ABI_4_3 4:4.8.3
 _ZNK11TaskManager12GroupManager28isItemAssociatedWithLauncherEPNS_21AbstractGroupableItemE@ABI_4_3 4:4.8.3
 _ZNK11TaskManager12GroupManager6configEv@ABI_4_3 4:4.8.3
 _ZNK11TaskManager12GroupManager6screenEv@ABI_4_3 4:4.8.3
 _ZNK11TaskManager12GroupManager9rootGroupEv@ABI_4_3 4:4.8.3
 _ZNK11TaskManager12LauncherItem10metaObjectEv@ABI_4_3 4:4.8.3
 _ZNK11TaskManager12LauncherItem10shouldShowEPKNS_12GroupManagerE@ABI_4_3 4:4.8.3
 _ZNK11TaskManager12LauncherItem11addMimeDataEP9QMimeData@ABI_4_3 4:4.8.3
 _ZNK11TaskManager12LauncherItem11genericNameEv@ABI_4_3 4:4.8.3
 _ZNK11TaskManager12LauncherItem11isGroupItemEv@ABI_4_3 4:4.8.3
 _ZNK11TaskManager12LauncherItem11isMaximizedEv@ABI_4_3 4:4.8.3
 _ZNK11TaskManager12LauncherItem11isMinimizedEv@ABI_4_3 4:4.8.3
 _ZNK11TaskManager12LauncherItem11launcherUrlEv@ABI_4_3 4:4.8.3
 _ZNK11TaskManager12LauncherItem12isAssociatedEPNS_21AbstractGroupableItemE@ABI_4_3 4:4.8.3
 _ZNK11TaskManager12LauncherItem12isFullScreenEv@ABI_4_3 4:4.8.3
 _ZNK11TaskManager12LauncherItem13isAlwaysOnTopEv@ABI_4_3 4:4.8.3
 _ZNK11TaskManager12LauncherItem15isOnAllDesktopsEv@ABI_4_3 4:4.8.3
 _ZNK11TaskManager12LauncherItem16demandsAttentionEv@ABI_4_3 4:4.8.3
 _ZNK11TaskManager12LauncherItem17isActionSupportedEN3NET6ActionE@ABI_4_3 4:4.8.3
 _ZNK11TaskManager12LauncherItem17isKeptBelowOthersEv@ABI_4_3 4:4.8.3
 _ZNK11TaskManager12LauncherItem18defaultApplicationEv@ABI_4_3 4:4.8.3
 _ZNK11TaskManager12LauncherItem18isOnCurrentDesktopEv@ABI_4_3 4:4.8.3
 _ZNK11TaskManager12LauncherItem4iconEv@ABI_4_3 4:4.8.3
 _ZNK11TaskManager12LauncherItem4nameEv@ABI_4_3 4:4.8.3
 _ZNK11TaskManager12LauncherItem7desktopEv@ABI_4_3 4:4.8.3
 _ZNK11TaskManager12LauncherItem7isValidEv@ABI_4_3 4:4.8.3
 _ZNK11TaskManager12LauncherItem7wmClassEv@ABI_4_3 4:4.8.3
 _ZNK11TaskManager12LauncherItem8isActiveEv@ABI_4_3 4:4.8.3
 _ZNK11TaskManager12LauncherItem8isShadedEv@ABI_4_3 4:4.8.3
 _ZNK11TaskManager12LauncherItem8itemTypeEv@ABI_4_3 4:4.8.3
 _ZNK11TaskManager14GroupPopupMenu10metaObjectEv@ABI_4_3 4:4.8.3
 _ZNK11TaskManager20GroupingStrategyMenu10metaObjectEv@ABI_4_3 4:4.8.3
 _ZNK11TaskManager21AbstractGroupableItem10metaObjectEv@ABI_4_3 4:4.8.3
 _ZNK11TaskManager21AbstractGroupableItem11parentGroupEv@ABI_4_3 4:4.8.3
 _ZNK11TaskManager21AbstractGroupableItem13isGroupMemberEPNS_9TaskGroupE@ABI_4_3 4:4.8.3
 _ZNK11TaskManager21AbstractGroupableItem13isStartupItemEv@ABI_4_3 4:4.8.3
 _ZNK11TaskManager21AbstractGroupableItem2idEv@ABI_4_3 4:4.8.3
 _ZNK11TaskManager21AbstractGroupableItem4iconEv@ABI_4_3 4:4.8.3
 _ZNK11TaskManager21AbstractGroupableItem4nameEv@ABI_4_3 4:4.8.3
 _ZNK11TaskManager21AbstractGroupableItem6winIdsEv@ABI_4_3 4:4.8.3
 _ZNK11TaskManager21AbstractGroupableItem9isGroupedEv@ABI_4_3 4:4.8.3
 _ZNK11TaskManager23AbstractSortingStrategy10metaObjectEv@ABI_4_3 4:4.8.3
 _ZNK11TaskManager23AbstractSortingStrategy4typeEv@ABI_4_3 4:4.8.3
 _ZNK11TaskManager24AbstractGroupingStrategy10metaObjectEv@ABI_4_3 4:4.8.3
 _ZNK11TaskManager24AbstractGroupingStrategy4typeEv@ABI_4_3 4:4.8.3
 _ZNK11TaskManager24AbstractGroupingStrategy9rootGroupEv@ABI_4_3 4:4.8.3
 _ZNK11TaskManager4Task10activitiesEv@ABI_4_3 4:4.8.3
 _ZNK11TaskManager4Task10classClassEv@ABI_4_3 4:4.8.3
 _ZNK11TaskManager4Task10isModifiedEv@ABI_4_3 4:4.8.3
 _ZNK11TaskManager4Task10isOnScreenEi@ABI_4_3 4:4.8.3
 _ZNK11TaskManager4Task10metaObjectEv@ABI_4_3 4:4.8.3
 _ZNK11TaskManager4Task10transientsEv@ABI_4_3 4:4.8.3
 _ZNK11TaskManager4Task11addMimeDataEP9QMimeData@ABI_4_3 4:4.8.3
 _ZNK11TaskManager4Task11isIconifiedEv@ABI_4_3 4:4.8.3
 _ZNK11TaskManager4Task11isMaximizedEv@ABI_4_3 4:4.8.3
 _ZNK11TaskManager4Task11isMinimizedEv@ABI_4_3 4:4.8.3
 _ZNK11TaskManager4Task11showInPagerEv@ABI_4_3 4:4.8.3
 _ZNK11TaskManager4Task11visibleNameEv@ABI_4_3 4:4.8.3
 _ZNK11TaskManager4Task12hasTransientEm@ABI_4_3 4:4.8.3
 _ZNK11TaskManager4Task12isFullScreenEv@ABI_4_3 4:4.8.3
 _ZNK11TaskManager4Task13isAlwaysOnTopEv@ABI_4_3 4:4.8.3
 _ZNK11TaskManager4Task13showInTaskbarEv@ABI_4_3 4:4.8.3
 _ZNK11TaskManager4Task15isOnAllDesktopsEv@ABI_4_3 4:4.8.3
 _ZNK11TaskManager4Task16demandsAttentionEv@ABI_4_3 4:4.8.3
 _ZNK11TaskManager4Task17isKeptBelowOthersEv@ABI_4_3 4:4.8.3
 _ZNK11TaskManager4Task17isOnAllActivitiesEv@ABI_4_3 4:4.8.3
 _ZNK11TaskManager4Task18isOnCurrentDesktopEv@ABI_4_3 4:4.8.3
 _ZNK11TaskManager4Task19isOnCurrentActivityEv@ABI_4_3 4:4.8.3
 _ZNK11TaskManager4Task20visibleNameWithStateEv@ABI_4_3 4:4.8.3
 _ZNK11TaskManager4Task3pidEv@ABI_4_3 4:4.8.3
 _ZNK11TaskManager4Task4infoEv@ABI_4_3 4:4.8.3
 _ZNK11TaskManager4Task4nameEv@ABI_4_3 4:4.8.3
 _ZNK11TaskManager4Task6pixmapEv@ABI_4_3 4:4.8.3
 _ZNK11TaskManager4Task6windowEv@ABI_4_3 4:4.8.3
 _ZNK11TaskManager4Task7desktopEv@ABI_4_3 4:4.8.3
 _ZNK11TaskManager4Task7isOnTopEv@ABI_4_3 4:4.8.3
 _ZNK11TaskManager4Task8geometryEv@ABI_4_3 4:4.8.3
 _ZNK11TaskManager4Task8isActiveEv@ABI_4_3 4:4.8.3
 _ZNK11TaskManager4Task8isShadedEv@ABI_4_3 4:4.8.3
 _ZNK11TaskManager4Task9classNameEv@ABI_4_3 4:4.8.3
 _ZNK11TaskManager7Startup10metaObjectEv@ABI_4_3 4:4.8.3
 _ZNK11TaskManager7Startup13matchesWindowEm@ABI_4_3 4:4.8.3
 _ZNK11TaskManager7Startup2idEv@ABI_4_3 4:4.8.3
 _ZNK11TaskManager7Startup3binEv@ABI_4_3 4:4.8.3
 _ZNK11TaskManager7Startup4iconEv@ABI_4_3 4:4.8.3
 _ZNK11TaskManager7Startup4textEv@ABI_4_3 4:4.8.3
 _ZNK11TaskManager7Startup7wmClassEv@ABI_4_3 4:4.8.3
 _ZNK11TaskManager7Startup9desktopIdEv@ABI_4_3 4:4.8.3
 _ZNK11TaskManager8TaskItem10metaObjectEv@ABI_4_3 4:4.8.3
 _ZNK11TaskManager8TaskItem11addMimeDataEP9QMimeData@ABI_4_3 4:4.8.3
 _ZNK11TaskManager8TaskItem11isGroupItemEv@ABI_4_3 4:4.8.3
 _ZNK11TaskManager8TaskItem11isMaximizedEv@ABI_4_3 4:4.8.3
 _ZNK11TaskManager8TaskItem11isMinimizedEv@ABI_4_3 4:4.8.3
 _ZNK11TaskManager8TaskItem11launcherUrlEv@ABI_4_3 4:4.8.3
 _ZNK11TaskManager8TaskItem12isFullScreenEv@ABI_4_3 4:4.8.3
 _ZNK11TaskManager8TaskItem13isAlwaysOnTopEv@ABI_4_3 4:4.8.3
 _ZNK11TaskManager8TaskItem13isStartupItemEv@ABI_4_3 4:4.8.3
 _ZNK11TaskManager8TaskItem15isOnAllDesktopsEv@ABI_4_3 4:4.8.3
 _ZNK11TaskManager8TaskItem16demandsAttentionEv@ABI_4_3 4:4.8.3
 _ZNK11TaskManager8TaskItem17isActionSupportedEN3NET6ActionE@ABI_4_3 4:4.8.3
 _ZNK11TaskManager8TaskItem17isKeptBelowOthersEv@ABI_4_3 4:4.8.3
 _ZNK11TaskManager8TaskItem18isOnCurrentDesktopEv@ABI_4_3 4:4.8.3
 _ZNK11TaskManager8TaskItem4iconEv@ABI_4_3 4:4.8.3
 _ZNK11TaskManager8TaskItem4nameEv@ABI_4_3 4:4.8.3
 _ZNK11TaskManager8TaskItem4taskEv@ABI_4_3 4:4.8.3
 _ZNK11TaskManager8TaskItem6winIdsEv@ABI_4_3 4:4.8.3
 _ZNK11TaskManager8TaskItem7desktopEv@ABI_4_3 4:4.8.3
 _ZNK11TaskManager8TaskItem7startupEv@ABI_4_3 4:4.8.3
 _ZNK11TaskManager8TaskItem8isActiveEv@ABI_4_3 4:4.8.3
 _ZNK11TaskManager8TaskItem8isShadedEv@ABI_4_3 4:4.8.3
 _ZNK11TaskManager8TaskItem8itemTypeEv@ABI_4_3 4:4.8.3
 _ZNK11TaskManager8TaskItem8taskNameEv@ABI_4_3 4:4.8.3
 _ZNK11TaskManager9BasicMenu10metaObjectEv@ABI_4_3 4:4.8.3
 _ZNK11TaskManager9TaskGroup10metaObjectEv@ABI_4_3 4:4.8.3
 _ZNK11TaskManager9TaskGroup11addMimeDataEP9QMimeData@ABI_4_3 4:4.8.3
 _ZNK11TaskManager9TaskGroup11isGroupItemEv@ABI_4_3 4:4.8.3
 _ZNK11TaskManager9TaskGroup11isMaximizedEv@ABI_4_3 4:4.8.3
 _ZNK11TaskManager9TaskGroup11isMinimizedEv@ABI_4_3 4:4.8.3
 _ZNK11TaskManager9TaskGroup11isRootGroupEv@ABI_4_3 4:4.8.3
 _ZNK11TaskManager9TaskGroup11launcherUrlEv@ABI_4_3 4:4.8.3
 _ZNK11TaskManager9TaskGroup12directMemberEPNS_21AbstractGroupableItemE@ABI_4_3 4:4.8.3
 _ZNK11TaskManager9TaskGroup12isFullScreenEv@ABI_4_3 4:4.8.3
 _ZNK11TaskManager9TaskGroup13isAlwaysOnTopEv@ABI_4_3 4:4.8.3
 _ZNK11TaskManager9TaskGroup15hasDirectMemberEPNS_21AbstractGroupableItemE@ABI_4_3 4:4.8.3
 _ZNK11TaskManager9TaskGroup15isOnAllDesktopsEv@ABI_4_3 4:4.8.3
 _ZNK11TaskManager9TaskGroup16demandsAttentionEv@ABI_4_3 4:4.8.3
 _ZNK11TaskManager9TaskGroup17isActionSupportedEN3NET6ActionE@ABI_4_3 4:4.8.3
 _ZNK11TaskManager9TaskGroup17isKeptBelowOthersEv@ABI_4_3 4:4.8.3
 _ZNK11TaskManager9TaskGroup18directMemberwinIdsEv@ABI_4_3 4:4.8.3
 _ZNK11TaskManager9TaskGroup18isOnCurrentDesktopEv@ABI_4_3 4:4.8.3
 _ZNK11TaskManager9TaskGroup4iconEv@ABI_4_3 4:4.8.3
 _ZNK11TaskManager9TaskGroup4nameEv@ABI_4_3 4:4.8.3
 _ZNK11TaskManager9TaskGroup6winIdsEv@ABI_4_3 4:4.8.3
 _ZNK11TaskManager9TaskGroup7desktopEv@ABI_4_3 4:4.8.3
 _ZNK11TaskManager9TaskGroup7managerEv@ABI_4_3 4:4.8.3
 _ZNK11TaskManager9TaskGroup7membersEv@ABI_4_3 4:4.8.3
 _ZNK11TaskManager9TaskGroup8isActiveEv@ABI_4_3 4:4.8.3
 _ZNK11TaskManager9TaskGroup8isShadedEv@ABI_4_3 4:4.8.3
 _ZNK11TaskManager9TaskGroup8itemTypeEv@ABI_4_3 4:4.8.3
 _ZNK11TaskManager9TaskGroup9hasMemberEPNS_21AbstractGroupableItemE@ABI_4_3 4:4.8.3
 _ZTIN11TaskManager10TasksModelE@ABI_4_3 4:4.8.3
 _ZTIN11TaskManager11TaskManagerE@ABI_4_3 4:4.8.3
 _ZTIN11TaskManager11ToolTipMenuE@ABI_4_3 4:4.8.3
 _ZTIN11TaskManager12AdvancedMenuE@ABI_4_3 4:4.8.3
 _ZTIN11TaskManager12DesktopsMenuE@ABI_4_3 4:4.8.3
 _ZTIN11TaskManager12GroupManagerE@ABI_4_3 4:4.8.3
 _ZTIN11TaskManager12LauncherItemE@ABI_4_3 4:4.8.3
 _ZTIN11TaskManager14GroupPopupMenuE@ABI_4_3 4:4.8.3
 _ZTIN11TaskManager20GroupingStrategyMenuE@ABI_4_3 4:4.8.3
 _ZTIN11TaskManager21AbstractGroupableItemE@ABI_4_3 4:4.8.3
 _ZTIN11TaskManager23AbstractSortingStrategyE@ABI_4_3 4:4.8.3
 _ZTIN11TaskManager24AbstractGroupingStrategyE@ABI_4_3 4:4.8.3
 _ZTIN11TaskManager4TaskE@ABI_4_3 4:4.8.3
 _ZTIN11TaskManager7StartupE@ABI_4_3 4:4.8.3
 _ZTIN11TaskManager8TaskItemE@ABI_4_3 4:4.8.3
 _ZTIN11TaskManager9BasicMenuE@ABI_4_3 4:4.8.3
 _ZTIN11TaskManager9TaskGroupE@ABI_4_3 4:4.8.3
 _ZTSN11TaskManager10TasksModelE@ABI_4_3 4:4.8.3
 _ZTSN11TaskManager11TaskManagerE@ABI_4_3 4:4.8.3
 _ZTSN11TaskManager11ToolTipMenuE@ABI_4_3 4:4.8.3
 _ZTSN11TaskManager12AdvancedMenuE@ABI_4_3 4:4.8.3
 _ZTSN11TaskManager12DesktopsMenuE@ABI_4_3 4:4.8.3
 _ZTSN11TaskManager12GroupManagerE@ABI_4_3 4:4.8.3
 _ZTSN11TaskManager12LauncherItemE@ABI_4_3 4:4.8.3
 _ZTSN11TaskManager14GroupPopupMenuE@ABI_4_3 4:4.8.3
 _ZTSN11TaskManager20GroupingStrategyMenuE@ABI_4_3 4:4.8.3
 _ZTSN11TaskManager21AbstractGroupableItemE@ABI_4_3 4:4.8.3
 _ZTSN11TaskManager23AbstractSortingStrategyE@ABI_4_3 4:4.8.3
 _ZTSN11TaskManager24AbstractGroupingStrategyE@ABI_4_3 4:4.8.3
 _ZTSN11TaskManager4TaskE@ABI_4_3 4:4.8.3
 _ZTSN11TaskManager7StartupE@ABI_4_3 4:4.8.3
 _ZTSN11TaskManager8TaskItemE@ABI_4_3 4:4.8.3
 _ZTSN11TaskManager9BasicMenuE@ABI_4_3 4:4.8.3
 _ZTSN11TaskManager9TaskGroupE@ABI_4_3 4:4.8.3
 _ZTVN11TaskManager10TasksModelE@ABI_4_3 4:4.8.3
 _ZTVN11TaskManager11TaskManagerE@ABI_4_3 4:4.8.3
 _ZTVN11TaskManager11ToolTipMenuE@ABI_4_3 4:4.8.3
 _ZTVN11TaskManager12AdvancedMenuE@ABI_4_3 4:4.8.3
 _ZTVN11TaskManager12DesktopsMenuE@ABI_4_3 4:4.8.3
 _ZTVN11TaskManager12GroupManagerE@ABI_4_3 4:4.8.3
 _ZTVN11TaskManager12LauncherItemE@ABI_4_3 4:4.8.3
 _ZTVN11TaskManager14GroupPopupMenuE@ABI_4_3 4:4.8.3
 _ZTVN11TaskManager20GroupingStrategyMenuE@ABI_4_3 4:4.8.3
 _ZTVN11TaskManager21AbstractGroupableItemE@ABI_4_3 4:4.8.3
 _ZTVN11TaskManager23AbstractSortingStrategyE@ABI_4_3 4:4.8.3
 _ZTVN11TaskManager24AbstractGroupingStrategyE@ABI_4_3 4:4.8.3
 _ZTVN11TaskManager4TaskE@ABI_4_3 4:4.8.3
 _ZTVN11TaskManager7StartupE@ABI_4_3 4:4.8.3
 _ZTVN11TaskManager8TaskItemE@ABI_4_3 4:4.8.3
 _ZTVN11TaskManager9BasicMenuE@ABI_4_3 4:4.8.3
 _ZTVN11TaskManager9TaskGroupE@ABI_4_3 4:4.8.3
 dlrestrictions_data@ABI_4_3 4:4.8.3
 (c++)"non-virtual thunk to TaskManager::AdvancedMenu::~AdvancedMenu()@ABI_4_3" 4:4.8.3
 (c++)"non-virtual thunk to TaskManager::BasicMenu::~BasicMenu()@ABI_4_3" 4:4.8.3
 (c++)"non-virtual thunk to TaskManager::DesktopsMenu::~DesktopsMenu()@ABI_4_3" 4:4.8.3
 (c++)"non-virtual thunk to TaskManager::GroupPopupMenu::~GroupPopupMenu()@ABI_4_3" 4:4.8.3
 (c++)"non-virtual thunk to TaskManager::GroupingStrategyMenu::~GroupingStrategyMenu()@ABI_4_3" 4:4.8.3
 (c++)"non-virtual thunk to TaskManager::ToolTipMenu::~ToolTipMenu()@ABI_4_3" 4:4.8.3
