libbt.so.0 libbt0 #MINVER#
 _ZN2bt10ColorCache4findEjiii@Base 0.70.1
 _ZN2bt10ColorCache5clearEb@Base 0.70.1
 _ZN2bt10ColorCache7releaseEjiii@Base 0.70.1
 _ZN2bt10ColorCacheC1ERKNS_7DisplayE@Base 0.70.1
 _ZN2bt10ColorCacheC2ERKNS_7DisplayE@Base 0.70.1
 _ZN2bt10ColorCacheD1Ev@Base 0.70.1
 _ZN2bt10ColorCacheD2Ev@Base 0.70.1
 _ZN2bt10ScreenInfoC1ERNS_7DisplayEj@Base 0.70.1
 _ZN2bt10ScreenInfoC2ERNS_7DisplayEj@Base 0.70.1
 _ZN2bt10drawBitmapERKNS_6BitmapERKNS_3PenEmRKNS_4RectE@Base 0.70.1
 (arch=!amd64 !ia64 !kfreebsd-amd64 !s390 !s390x !alpha !ppc64 !sparc64)_ZN2bt10ellideTextERKSbIjSt11char_traitsIjESaIjEEjS5_@Base 0.70.1
 _ZN2bt10ellideTextERKSbIjSt11char_traitsIjESaIjEEjS5_jRKNS_4FontE@Base 0.70.1
 (arch=amd64 ia64 kfreebsd-amd64 s390 s390x alpha ppc64 sparc64)_ZN2bt10ellideTextERKSbIjSt11char_traitsIjESaIjEEmS5_@Base 0.70.1
 _ZN2bt10hasUnicodeEv@Base 0.70.1
 _ZN2bt10parse_xlfdERKSs@Base 0.70.1
 _ZN2bt10startupShmERKNS_7DisplayE@Base 0.70.1
 _ZN2bt10textHeightEjRKNS_4FontE@Base 0.70.1
 _ZN2bt10textIndentEjRKNS_4FontE@Base 0.70.1
 _ZN2bt11Application11removeTimerEPNS_5TimerE@Base 0.70.1
 _ZN2bt11Application12adjustTimersERKNS_7timevalE@Base 0.70.1
 _ZN2bt11Application13process_eventEP7_XEvent@Base 0.70.1
 _ZN2bt11Application14process_signalEi@Base 0.70.1
 _ZN2bt11Application16findEventHandlerEm@Base 0.70.1
 _ZN2bt11Application18insertEventHandlerEmPNS_12EventHandlerE@Base 0.70.1
 _ZN2bt11Application18removeEventHandlerEm@Base 0.70.1
 _ZN2bt11Application3runEv@Base 0.70.1
 _ZN2bt11Application7startupEv@Base 0.70.1
 _ZN2bt11Application8addTimerEPNS_5TimerE@Base 0.70.1
 _ZN2bt11Application8openMenuEPNS_4MenuE@Base 0.70.1
 _ZN2bt11Application8shutdownEv@Base 0.70.1
 _ZN2bt11Application9closeMenuEPNS_4MenuE@Base 0.70.1
 _ZN2bt11ApplicationC1ERKSsPKcb@Base 0.70.1
 _ZN2bt11ApplicationC2ERKSsPKcb@Base 0.70.1
 _ZN2bt11ApplicationD0Ev@Base 0.70.1
 _ZN2bt11ApplicationD1Ev@Base 0.70.1
 _ZN2bt11ApplicationD2Ev@Base 0.70.1
 _ZN2bt11PixmapCache10cacheLimitEv@Base 0.70.1
 _ZN2bt11PixmapCache10clearCacheEv@Base 0.70.1
 _ZN2bt11PixmapCache11memoryUsageEv@Base 0.70.1
 _ZN2bt11PixmapCache13setCacheLimitEm@Base 0.70.1
 _ZN2bt11PixmapCache4findEjRKNS_7TextureEjjm@Base 0.70.1
 _ZN2bt11PixmapCache7releaseEm@Base 0.70.1
 _ZN2bt11XColorTable3mapERjS1_S1_@Base 0.70.1
 _ZN2bt11XColorTable5pixelEjjj@Base 0.70.1
 _ZN2bt11XColorTableC1ERKNS_7DisplayEjj@Base 0.70.1
 _ZN2bt11XColorTableC2ERKNS_7DisplayEjj@Base 0.70.1
 _ZN2bt11XColorTableD1Ev@Base 0.70.1
 _ZN2bt11XColorTableD2Ev@Base 0.70.1
 _ZN2bt11drawTextureEjRKNS_7TextureEmRKNS_4RectES5_m@Base 0.70.1
 _ZN2bt11expandTildeERKSs@Base 0.70.1
 _ZN2bt12BitmapLoader4loadEjPKhii@Base 0.70.1
 _ZN2bt12BitmapLoader6unloadERm@Base 0.70.1
 _ZN2bt12EventHandler10shapeEventEPK7_XEvent@Base 0.70.1
 _ZN2bt12EventHandler11exposeEventEPK12XExposeEvent@Base 0.70.1
 _ZN2bt12EventHandler13keyPressEventEPK9XKeyEvent@Base 0.70.1
 _ZN2bt12EventHandler14mapNotifyEventEPK9XMapEvent@Base 0.70.1
 _ZN2bt12EventHandler15keyReleaseEventEPK9XKeyEvent@Base 0.70.1
 _ZN2bt12EventHandler16buttonPressEventEPK12XButtonEvent@Base 0.70.1
 _ZN2bt12EventHandler16enterNotifyEventEPK14XCrossingEvent@Base 0.70.1
 _ZN2bt12EventHandler16leaveNotifyEventEPK14XCrossingEvent@Base 0.70.1
 _ZN2bt12EventHandler16unmapNotifyEventEPK11XUnmapEvent@Base 0.70.1
 _ZN2bt12EventHandler17motionNotifyEventEPK12XMotionEvent@Base 0.70.1
 _ZN2bt12EventHandler18buttonReleaseEventEPK12XButtonEvent@Base 0.70.1
 _ZN2bt12EventHandler18clientMessageEventEPK19XClientMessageEvent@Base 0.70.1
 _ZN2bt12EventHandler18destroyNotifyEventEPK19XDestroyWindowEvent@Base 0.70.1
 _ZN2bt12EventHandler19propertyNotifyEventEPK14XPropertyEvent@Base 0.70.1
 _ZN2bt12EventHandler19reparentNotifyEventEPK14XReparentEvent@Base 0.70.1
 _ZN2bt12EventHandler20configureNotifyEventEPK15XConfigureEvent@Base 0.70.1
 _ZN2bt12EventHandlerD0Ev@Base 0.70.1
 _ZN2bt12EventHandlerD1Ev@Base 0.70.1
 _ZN2bt12EventHandlerD2Ev@Base 0.70.1
 (arch=any-i386)_ZN2bt12_timer_queueIPNS_5TimerESt6vectorIS2_SaIS2_EENS_13TimerLessThanEED1Ev@Base 0.70.1
 (arch=any-i386)_ZN2bt12_timer_queueIPNS_5TimerESt6vectorIS2_SaIS2_EENS_13TimerLessThanEED2Ev@Base 0.70.1
 _ZN2bt13alignResourceERKNS_8ResourceEPKcS4_NS_9AlignmentE@Base 0.70.1
 _ZN2bt14createPenCacheERKNS_7DisplayE@Base 0.70.1
 _ZN2bt14createShmImageERKNS_7DisplayERKNS_10ScreenInfoEjj@Base 0.70.1
 _ZN2bt15PenCacheContext3setERKNS_5ColorEiii@Base 0.70.1
 _ZN2bt15PenCacheContextD1Ev@Base 0.70.1
 _ZN2bt15PenCacheContextD2Ev@Base 0.70.1
 _ZN2bt15RealPixmapCache4findEjRKNS_7TextureEjjm@Base 0.70.1
 _ZN2bt15RealPixmapCache5clearEb@Base 0.70.1
 _ZN2bt15RealPixmapCache7releaseEm@Base 0.70.1
 (optional|arch=!any-i386)_ZN2bt15RealPixmapCache9CacheItemD1Ev@Base 0.70.1
 (optional|arch=!any-i386)_ZN2bt15RealPixmapCache9CacheItemD2Ev@Base 0.70.1
 _ZN2bt15RealPixmapCacheC1ERKNS_7DisplayE@Base 0.70.1
 _ZN2bt15RealPixmapCacheC2ERKNS_7DisplayE@Base 0.70.1
 _ZN2bt15RealPixmapCacheD1Ev@Base 0.70.1
 _ZN2bt15RealPixmapCacheD2Ev@Base 0.70.1
 _ZN2bt15XftCacheContext3setEm@Base 0.70.1
 _ZN2bt15XftCacheContextD1Ev@Base 0.70.1
 _ZN2bt15XftCacheContextD2Ev@Base 0.70.1
 _ZN2bt15createFontCacheERKNS_7DisplayE@Base 0.70.1
 _ZN2bt15destroyPenCacheEv@Base 0.70.1
 _ZN2bt15destroyShmImageERKNS_7DisplayEP7_XImage@Base 0.70.1
 _ZN2bt15textureResourceERKNS_7DisplayEjRKNS_8ResourceERKSsS7_RKNS_7TextureE@Base 0.70.1
 _ZN2bt15textureResourceERKNS_7DisplayEjRKNS_8ResourceERKSsS7_S7_@Base 0.70.1
 _ZN2bt16createColorCacheERKNS_7DisplayE@Base 0.70.1
 _ZN2bt16destroyFontCacheEv@Base 0.70.1
 _ZN2bt16normalizeTimevalERKNS_7timevalE@Base 0.70.1
 _ZN2bt17createPixmapCacheERKNS_7DisplayE@Base 0.70.1
 _ZN2bt17destroyColorCacheEv@Base 0.70.1
 _ZN2bt18createBitmapLoaderERKNS_7DisplayE@Base 0.70.1
 _ZN2bt18destroyColorTablesEv@Base 0.70.1
 _ZN2bt18destroyPixmapCacheEv@Base 0.70.1
 _ZN2bt19destroyBitmapLoaderEv@Base 0.70.1
 _ZN2bt20textPropertyToStringEP9_XDisplayR13XTextProperty@Base 0.70.1
 _ZN2bt3Pen10clearCacheEv@Base 0.70.1
 _ZN2bt3Pen12setLineWidthEi@Base 0.70.1
 _ZN2bt3Pen13setGCFunctionEi@Base 0.70.1
 _ZN2bt3Pen16setSubWindowModeEi@Base 0.70.1
 _ZN2bt3PenC1EjRKNS_5ColorE@Base 0.70.1
 _ZN2bt3PenC2EjRKNS_5ColorE@Base 0.70.1
 _ZN2bt3PenD1Ev@Base 0.70.1
 _ZN2bt3PenD2Ev@Base 0.70.1
 _ZN2bt3XDG7BaseDir10configDirsEv@Base 0.70.1
 _ZN2bt3XDG7BaseDir10configHomeEv@Base 0.70.1
 _ZN2bt3XDG7BaseDir13writeDataFileERKSs@Base 0.70.1
 _ZN2bt3XDG7BaseDir14writeCacheFileERKSs@Base 0.70.1
 _ZN2bt3XDG7BaseDir15writeConfigFileERKSs@Base 0.70.1
 _ZN2bt3XDG7BaseDir8dataDirsEv@Base 0.70.1
 _ZN2bt3XDG7BaseDir8dataHomeEv@Base 0.70.1
 _ZN2bt3XDG7BaseDir9cacheHomeEv@Base 0.70.1
 _ZN2bt4EWMHC1ERKNS_7DisplayE@Base 0.70.1
 _ZN2bt4EWMHC2ERKNS_7DisplayE@Base 0.70.1
 _ZN2bt4Font10clearCacheEv@Base 0.70.1
 _ZN2bt4Font6unloadEv@Base 0.70.1
 _ZN2bt4Menu10changeItemEjRKSbIjSt11char_traitsIjESaIjEEj@Base 0.70.1
 _ZN2bt4Menu10insertItemERKNS_8MenuItemEjj@Base 0.70.1
 _ZN2bt4Menu10removeItemEj@Base 0.70.1
 _ZN2bt4Menu10updateSizeEv@Base 0.70.1
 _ZN2bt4Menu11exposeEventEPK12XExposeEvent@Base 0.70.1
 _ZN2bt4Menu11itemClickedEjj@Base 0.70.1
 _ZN2bt4Menu11reconfigureEv@Base 0.70.1
 _ZN2bt4Menu11removeIndexEj@Base 0.70.1
 _ZN2bt4Menu12activateItemERKNS_4RectERNS_8MenuItemE@Base 0.70.1
 _ZN2bt4Menu12positionRectERNS_4RectERiS3_@Base 0.70.1
 _ZN2bt4Menu12titleClickedEj@Base 0.70.1
 _ZN2bt4Menu13activateIndexEj@Base 0.70.1
 _ZN2bt4Menu13keyPressEventEPK9XKeyEvent@Base 0.70.1
 _ZN2bt4Menu13updatePixmapsEv@Base 0.70.1
 _ZN2bt4Menu14deactivateItemERKNS_4RectERNS_8MenuItemEb@Base 0.70.1
 _ZN2bt4Menu14invalidateSizeEv@Base 0.70.1
 _ZN2bt4Menu14setItemCheckedEjb@Base 0.70.1
 _ZN2bt4Menu14setItemEnabledEjb@Base 0.70.1
 _ZN2bt4Menu15activateSubmenuEv@Base 0.70.1
 _ZN2bt4Menu16buttonPressEventEPK12XButtonEvent@Base 0.70.1
 _ZN2bt4Menu16leaveNotifyEventEPK14XCrossingEvent@Base 0.70.1
 _ZN2bt4Menu17motionNotifyEventEPK12XMotionEvent@Base 0.70.1
 _ZN2bt4Menu17showActiveSubmenuEv@Base 0.70.1
 _ZN2bt4Menu18buttonReleaseEventEPK12XButtonEvent@Base 0.70.1
 _ZN2bt4Menu20removeItemByIteratorERSt14_List_iteratorINS_8MenuItemEE@Base 0.70.1
 _ZN2bt4Menu4hideEv@Base 0.70.1
 _ZN2bt4Menu4moveEii@Base 0.70.1
 _ZN2bt4Menu4showEv@Base 0.70.1
 _ZN2bt4Menu5clearEv@Base 0.70.1
 _ZN2bt4Menu5popupEiiRKNS_4RectEb@Base 0.70.1
 _ZN2bt4Menu5popupEiib@Base 0.70.1
 _ZN2bt4Menu7hideAllEv@Base 0.70.1
 _ZN2bt4Menu7refreshEv@Base 0.70.1
 _ZN2bt4Menu7tearOffEv@Base 0.70.1
 _ZN2bt4Menu8findItemEjRNS_4RectE@Base 0.70.1
 _ZN2bt4Menu8verifyIdEj@Base 0.70.1
 _ZN2bt4Menu9hideTitleEv@Base 0.70.1
 _ZN2bt4Menu9showTitleEv@Base 0.70.1
 _ZN2bt4MenuC1ERNS_11ApplicationEj@Base 0.70.1
 _ZN2bt4MenuC2ERNS_11ApplicationEj@Base 0.70.1
 _ZN2bt4MenuD0Ev@Base 0.70.1
 _ZN2bt4MenuD1Ev@Base 0.70.1
 _ZN2bt4MenuD2Ev@Base 0.70.1
 _ZN2bt4Rect4setXEi@Base 0.70.1
 _ZN2bt4Rect4setYEi@Base 0.70.1
 _ZN2bt4Rect6setPosEii@Base 0.70.1
 _ZN2bt4Rect7setRectEiijj@Base 0.70.1
 _ZN2bt4Rect7setSizeEjj@Base 0.70.1
 _ZN2bt4Rect8setWidthEj@Base 0.70.1
 _ZN2bt4Rect9setCoordsEiiii@Base 0.70.1
 _ZN2bt4Rect9setHeightEj@Base 0.70.1
 _ZN2bt5Color10clearCacheEv@Base 0.70.1
 _ZN2bt5Color10deallocateEv@Base 0.70.1
 _ZN2bt5Color10namedColorERKNS_7DisplayEjRKSs@Base 0.70.1
 _ZN2bt5Image10cdgradientERKNS_5ColorES3_b@Base 0.70.1
 _ZN2bt5Image10pcgradientERKNS_5ColorES3_b@Base 0.70.1
 _ZN2bt5Image11raisedBevelEj@Base 0.70.1
 _ZN2bt5Image11sunkenBevelEj@Base 0.70.1
 _ZN2bt5Image12renderPixmapERKNS_7DisplayEj@Base 0.70.1
 _ZN2bt5Image13OrderedDitherEPNS_11XColorTableEjjPh@Base 0.70.1
 _ZN2bt5Image17global_ditherModeE@Base 0.70.1
 _ZN2bt5Image20FloydSteinbergDitherEPNS_11XColorTableEjjPh@Base 0.70.1
 _ZN2bt5Image20global_maximumColorsE@Base 0.70.1
 _ZN2bt5Image6renderERKNS_7DisplayEjRKNS_7TextureE@Base 0.70.1
 _ZN2bt5Image9dgradientERKNS_5ColorES3_b@Base 0.70.1
 _ZN2bt5Image9egradientERKNS_5ColorES3_b@Base 0.70.1
 _ZN2bt5Image9hgradientERKNS_5ColorES3_b@Base 0.70.1
 _ZN2bt5Image9pgradientERKNS_5ColorES3_b@Base 0.70.1
 _ZN2bt5Image9rgradientERKNS_5ColorES3_b@Base 0.70.1
 _ZN2bt5Image9vgradientERKNS_5ColorES3_b@Base 0.70.1
 _ZN2bt5ImageC1Ejj@Base 0.70.1
 _ZN2bt5ImageC2Ejj@Base 0.70.1
 _ZN2bt5ImageD1Ev@Base 0.70.1
 _ZN2bt5ImageD2Ev@Base 0.70.1
 _ZN2bt5Timer10setTimeoutERKNS_7timevalE@Base 0.70.1
 _ZN2bt5Timer10setTimeoutEl@Base 0.70.1
 _ZN2bt5Timer11fireTimeoutEv@Base 0.70.1
 _ZN2bt5Timer15adjustStartTimeERKNS_7timevalE@Base 0.70.1
 _ZN2bt5Timer4haltEv@Base 0.70.1
 _ZN2bt5Timer4stopEv@Base 0.70.1
 _ZN2bt5Timer5startEv@Base 0.70.1
 _ZN2bt5TimerC1EPNS_17TimerQueueManagerEPNS_14TimeoutHandlerE@Base 0.70.1
 _ZN2bt5TimerC2EPNS_17TimerQueueManagerEPNS_14TimeoutHandlerE@Base 0.70.1
 _ZN2bt5TimerD0Ev@Base 0.70.1
 _ZN2bt5TimerD1Ev@Base 0.70.1
 _ZN2bt5TimerD2Ev@Base 0.70.1
 _ZN2bt5bexecERKSsS1_@Base 0.70.1
 _ZN2bt6Bitmap10rightArrowEj@Base 0.70.1
 _ZN2bt6Bitmap4loadEjPKhjj@Base 0.70.1
 _ZN2bt6Bitmap7upArrowEj@Base 0.70.1
 _ZN2bt6Bitmap9checkMarkEj@Base 0.70.1
 _ZN2bt6Bitmap9downArrowEj@Base 0.70.1
 _ZN2bt6Bitmap9leftArrowEj@Base 0.70.1
 _ZN2bt6BitmapC1EjPKhjj@Base 0.70.1
 _ZN2bt6BitmapC2EjPKhjj@Base 0.70.1
 _ZN2bt6BitmapD1Ev@Base 0.70.1
 _ZN2bt6BitmapD2Ev@Base 0.70.1
 _ZN2bt6toUtf8ERKSbIjSt11char_traitsIjESaIjEE@Base 0.70.1
 _ZN2bt7DisplayC1EPKcb@Base 0.70.1
 _ZN2bt7DisplayC2EPKcb@Base 0.70.1
 _ZN2bt7DisplayD1Ev@Base 0.70.1
 _ZN2bt7DisplayD2Ev@Base 0.70.1
 _ZN2bt7Texture14setDescriptionERKSs@Base 0.70.1
 _ZN2bt7Texture9setColor1ERKNS_5ColorE@Base 0.70.1
 _ZN2bt7TextureD1Ev@Base 0.70.1
 _ZN2bt7TextureD2Ev@Base 0.70.1
 _ZN2bt7TextureaSERKS0_@Base 0.70.1
 _ZN2bt7dirnameERKSs@Base 0.70.1
 _ZN2bt7timevalC1ERK7timeval@Base 0.70.1
 _ZN2bt7timevalC2ERK7timeval@Base 0.70.1
 _ZN2bt7timevalaSERK7timeval@Base 0.70.1
 _ZN2bt7timevalltERKS0_@Base 0.70.1
 _ZN2bt7timevalmIERKS0_@Base 0.70.1
 _ZN2bt7timevalmiERKS0_@Base 0.70.1
 _ZN2bt7timevalpLERKS0_@Base 0.70.1
 _ZN2bt7timevalplERKS0_@Base 0.70.1
 _ZN2bt7toUtf32ERKSs@Base 0.70.1
 _ZN2bt7tolowerERKSs@Base 0.70.1
 _ZN2bt8PenCache11nextContextEj@Base 0.70.1
 _ZN2bt8PenCache14nextXftContextEj@Base 0.70.1
 _ZN2bt8PenCache4findEjRKNS_5ColorEiii@Base 0.70.1
 _ZN2bt8PenCache5purgeEv@Base 0.70.1
 _ZN2bt8PenCache7findXftEjm@Base 0.70.1
 _ZN2bt8PenCache7releaseEPNS_12PenCacheItemE@Base 0.70.1
 _ZN2bt8PenCache7releaseEPNS_12XftCacheItemE@Base 0.70.1
 _ZN2bt8PenCache7releaseEPNS_15PenCacheContextE@Base 0.70.1
 _ZN2bt8PenCache7releaseEPNS_15XftCacheContextE@Base 0.70.1
 _ZN2bt8PenCacheC1ERKNS_7DisplayE@Base 0.70.1
 _ZN2bt8PenCacheC2ERKNS_7DisplayE@Base 0.70.1
 _ZN2bt8PenCacheD1Ev@Base 0.70.1
 _ZN2bt8PenCacheD2Ev@Base 0.70.1
 _ZN2bt8Resource4loadERKSs@Base 0.70.1
 _ZN2bt8Resource4saveERKSs@Base 0.70.1
 _ZN2bt8Resource5mergeERKSs@Base 0.70.1
 _ZN2bt8Resource5writeEPKcRKSs@Base 0.70.1
 _ZN2bt8Resource5writeEPKcS2_@Base 0.70.1
 _ZN2bt8Resource5writeEPKcb@Base 0.70.1
 _ZN2bt8Resource5writeEPKcd@Base 0.70.1
 _ZN2bt8Resource5writeEPKci@Base 0.70.1
 _ZN2bt8Resource5writeEPKcj@Base 0.70.1
 _ZN2bt8Resource5writeEPKcl@Base 0.70.1
 _ZN2bt8Resource5writeEPKcm@Base 0.70.1
 _ZN2bt8ResourceC1ERKSs@Base 0.70.1
 _ZN2bt8ResourceC1Ev@Base 0.70.1
 _ZN2bt8ResourceC2ERKSs@Base 0.70.1
 _ZN2bt8ResourceC2Ev@Base 0.70.1
 _ZN2bt8ResourceD1Ev@Base 0.70.1
 _ZN2bt8ResourceD2Ev@Base 0.70.1
 _ZN2bt8basenameERKSs@Base 0.70.1
 _ZN2bt8drawTextERKNS_4FontERKNS_3PenEmRKNS_4RectENS_9AlignmentERKSbIjSt11char_traitsIjESaIjEE@Base 0.70.1
 _ZN2bt8textRectEjRKNS_4FontERKSbIjSt11char_traitsIjESaIjEE@Base 0.70.1
 _ZN2bt8toLocaleERKSbIjSt11char_traitsIjESaIjEE@Base 0.70.1
 _ZN2bt9FontCache11findFontSetERKSs@Base 0.70.1
 _ZN2bt9FontCache11findXftFontERKSsj@Base 0.70.1
 _ZN2bt9FontCache5clearEb@Base 0.70.1
 _ZN2bt9FontCache7releaseERKSsj@Base 0.70.1
 (arch=any-i386)_ZN2bt9FontCache8FontNameD1Ev@Base 0.70.1
 (arch=any-i386)_ZN2bt9FontCache8FontNameD2Ev@Base 0.70.1
 _ZN2bt9FontCacheC1ERKNS_7DisplayE@Base 0.70.1
 _ZN2bt9FontCacheC2ERKNS_7DisplayE@Base 0.70.1
 _ZN2bt9FontCacheD1Ev@Base 0.70.1
 _ZN2bt9FontCacheD2Ev@Base 0.70.1
 _ZN2bt9MenuDelay7timeoutEPNS_5TimerE@Base 0.70.1
 _ZN2bt9MenuStyle3getERNS_11ApplicationEj@Base 0.70.1
 _ZN2bt9MenuStyle4loadERKNS_8ResourceE@Base 0.70.1
 (arch=any-i386)_ZN2bt9MenuStyle6_titleD1Ev@Base 0.70.1
 (arch=any-i386)_ZN2bt9MenuStyle6_titleD2Ev@Base 0.70.1
 _ZN2bt9MenuStyle6stylesE@Base 0.70.1
 _ZN2bt9MenuStyleC1ERNS_11ApplicationEj@Base 0.70.1
 _ZN2bt9MenuStyleC2ERNS_11ApplicationEj@Base 0.70.1
 _ZN2bt9itostringEl@Base 0.70.1
 _ZN2bt9itostringEm@Base 0.70.1
 _ZN2bt9mkdirhierERKSsi@Base 0.70.1
 _ZN2bt9toUnicodeERKSs@Base 0.70.1
 (arch=any-i386)_ZN9__gnu_cxx11char_traitsIjE4copyEPjPKjj@Base 0.70.1
 (arch=!any-i386 !alpha !armel !armhf !ia64 !m68k !mips !mipsel !powerpc !powerpcspe !ppc64 !s390 !s390x !sh4 !sparc !sparc64)_ZN9__gnu_cxx11char_traitsIjE4copyEPjPKjm@Base 0.70.1
 _ZNK2bt11Application10grabButtonEjjmbjiimmb@Base 0.70.1
 _ZNK2bt11Application12ungrabButtonEjjm@Base 0.70.1
 _ZNK2bt11Application8XDisplayEv@Base 0.70.1
 _ZNK2bt3Pen2gcEv@Base 0.70.1
 _ZNK2bt3Pen7displayEv@Base 0.70.1
 _ZNK2bt3Pen7xftDrawEm@Base 0.70.1
 _ZNK2bt3Pen8XDisplayEv@Base 0.70.1
 _ZNK2bt4EWMH10readWMNameEmRSbIjSt11char_traitsIjESaIjEE@Base 0.70.1
 _ZNK2bt4EWMH10setWMStateEmRSt6vectorImSaImEE@Base 0.70.1
 _ZNK2bt4EWMH11getPropertyEmmmPPh@Base 0.70.1
 _ZNK2bt4EWMH11readWMStateEmRSt6vectorImSaImEE@Base 0.70.1
 _ZNK2bt4EWMH11readWMStrutEmPNS0_5StrutE@Base 0.70.1
 _ZNK2bt4EWMH11setPropertyEmmmPKhm@Base 0.70.1
 _ZNK2bt4EWMH11setWorkareaEmPmj@Base 0.70.1
 _ZNK2bt4EWMH12setSupportedEmPmj@Base 0.70.1
 _ZNK2bt4EWMH12setWMDesktopEmj@Base 0.70.1
 _ZNK2bt4EWMH13readSupportedEmRSt6vectorImSaImEE@Base 0.70.1
 _ZNK2bt4EWMH13readWMDesktopEmRj@Base 0.70.1
 _ZNK2bt4EWMH13setClientListEmRSt6vectorImSaImEE@Base 0.70.1
 _ZNK2bt4EWMH14readClientListEmRSt6vectorImSaImEE@Base 0.70.1
 _ZNK2bt4EWMH14readWMIconNameEmRSbIjSt11char_traitsIjESaIjEE@Base 0.70.1
 _ZNK2bt4EWMH14readWMUserTimeEmRm@Base 0.70.1
 _ZNK2bt4EWMH14removePropertyEmm@Base 0.70.1
 _ZNK2bt4EWMH15getListPropertyEmmmPPhPm@Base 0.70.1
 _ZNK2bt4EWMH15setActiveWindowEmm@Base 0.70.1
 _ZNK2bt4EWMH15setDesktopNamesEmRKSt6vectorISbIjSt11char_traitsIjESaIjEESaIS5_EE@Base 0.70.1
 _ZNK2bt4EWMH15setVirtualRootsEmRSt6vectorImSaImEE@Base 0.70.1
 _ZNK2bt4EWMH16readDesktopNamesEmRSt6vectorISbIjSt11char_traitsIjESaIjEESaIS5_EE@Base 0.70.1
 _ZNK2bt4EWMH16readVirtualRootsEmRSt6vectorImSaImEE@Base 0.70.1
 _ZNK2bt4EWMH16readWMWindowTypeEmRSt6vectorImSaImEE@Base 0.70.1
 _ZNK2bt4EWMH16setWMVisibleNameEmRKSbIjSt11char_traitsIjESaIjEE@Base 0.70.1
 _ZNK2bt4EWMH17setCurrentDesktopEmj@Base 0.70.1
 _ZNK2bt4EWMH18readCurrentDesktopEmPj@Base 0.70.1
 _ZNK2bt4EWMH18readWMIconGeometryEmRiS1_RjS2_@Base 0.70.1
 _ZNK2bt4EWMH18readWMStrutPartialEmPNS0_12StrutPartialE@Base 0.70.1
 _ZNK2bt4EWMH18setDesktopGeometryEmjj@Base 0.70.1
 _ZNK2bt4EWMH18setDesktopViewportEmii@Base 0.70.1
 _ZNK2bt4EWMH19readDesktopGeometryEmPjS1_@Base 0.70.1
 _ZNK2bt4EWMH19readDesktopViewportEmPiS1_@Base 0.70.1
 _ZNK2bt4EWMH19setNumberOfDesktopsEmj@Base 0.70.1
 _ZNK2bt4EWMH19setWMAllowedActionsEmRSt6vectorImSaImEE@Base 0.70.1
 _ZNK2bt4EWMH20readNumberOfDesktopsEmPj@Base 0.70.1
 _ZNK2bt4EWMH20setSupportingWMCheckEmm@Base 0.70.1
 _ZNK2bt4EWMH20setWMVisibleIconNameEmRKSbIjSt11char_traitsIjESaIjEE@Base 0.70.1
 _ZNK2bt4EWMH21readSupportingWMCheckEmPm@Base 0.70.1
 _ZNK2bt4EWMH21setClientListStackingEmRSt6vectorImSaImEE@Base 0.70.1
 _ZNK2bt4EWMH22readClientListStackingEmRSt6vectorImSaImEE@Base 0.70.1
 _ZNK2bt4EWMH23isSupportedWMWindowTypeEm@Base 0.70.1
 _ZNK2bt4EWMH9readWMPidEmRj@Base 0.70.1
 _ZNK2bt4EWMH9setWMNameEmRKSbIjSt11char_traitsIjESaIjEE@Base 0.70.1
 _ZNK2bt4Font7fontSetEv@Base 0.70.1
 _ZNK2bt4Font7xftFontEj@Base 0.70.1
 _ZNK2bt4Menu13isItemCheckedEj@Base 0.70.1
 _ZNK2bt4Menu13isItemEnabledEj@Base 0.70.1
 _ZNK2bt4Menu8geometryEv@Base 0.70.1
 _ZNK2bt4Rect10intersectsERKS0_@Base 0.70.1
 _ZNK2bt4Rect6insideERKS0_@Base 0.70.1
 _ZNK2bt4Rect8containsEii@Base 0.70.1
 _ZNK2bt4RectanERKS0_@Base 0.70.1
 _ZNK2bt4RectorERKS0_@Base 0.70.1
 _ZNK2bt5Color5pixelEj@Base 0.70.1
 _ZNK2bt5Timer10shouldFireERKNS_7timevalE@Base 0.70.1
 _ZNK2bt5Timer13timeRemainingERKNS_7timevalE@Base 0.70.1
 _ZNK2bt5Timer8endpointEv@Base 0.70.1
 _ZNK2bt7Display10screenInfoEj@Base 0.70.1
 _ZNK2bt7timevalcv7timevalEv@Base 0.70.1
 _ZNK2bt8Resource4readEPKcS2_S2_@Base 0.70.1
 _ZNK2bt8Resource4readEPKcS2_b@Base 0.70.1
 _ZNK2bt8Resource4readEPKcS2_d@Base 0.70.1
 _ZNK2bt8Resource4readEPKcS2_i@Base 0.70.1
 _ZNK2bt8Resource4readEPKcS2_j@Base 0.70.1
 _ZNK2bt8Resource4readEPKcS2_l@Base 0.70.1
 _ZNK2bt8Resource4readEPKcS2_m@Base 0.70.1
 _ZNK2bt8Resource4readERKSsS2_S2_@Base 0.70.1
 _ZNK2bt9MenuStyle10itemMarginEv@Base 0.70.1
 _ZNK2bt9MenuStyle11frameMarginEv@Base 0.70.1
 _ZNK2bt9MenuStyle11titleMarginEv@Base 0.70.1
 _ZNK2bt9MenuStyle15separatorHeightEv@Base 0.70.1
 _ZNK2bt9MenuStyle8drawItemEmRKNS_4RectERKNS_8MenuItemEm@Base 0.70.1
 _ZNK2bt9MenuStyle8itemRectERKNS_8MenuItemE@Base 0.70.1
 _ZNK2bt9MenuStyle9drawTitleEmRKNS_4RectERKSbIjSt11char_traitsIjESaIjEE@Base 0.70.1
 _ZNK2bt9MenuStyle9titleRectERKSbIjSt11char_traitsIjESaIjEE@Base 0.70.1
 (arch=any-i386)_ZNSbIjSt11char_traitsIjESaIjEE12_M_leak_hardEv@Base 0.70.1
 (arch=any-i386)_ZNSbIjSt11char_traitsIjESaIjEE15_M_replace_safeEjjPKjj@Base 0.70.1
 (arch=!any-i386 !alpha !armel !armhf !ia64 !m68k !mips !mipsel !powerpc !powerpcspe !ppc64 !s390 !s390x !sh4 !sparc !sparc64)_ZNSbIjSt11char_traitsIjESaIjEE15_M_replace_safeEmmPKjm@Base 0.70.1
 _ZNSbIjSt11char_traitsIjESaIjEE4_Rep20_S_empty_rep_storageE@Base 0.70.1
 (arch=!amd64 !ia64 !kfreebsd-amd64 !s390 !s390x !alpha !ppc64 !sparc64 !any-i386)_ZNSbIjSt11char_traitsIjESaIjEE4_Rep8_M_cloneERKS1_j@Base 0.70.1
 (optional|arch=!any-i386 !armel !armhf !m68k !mips !mipsel !powerpc !powerpcspe !sh4 !sparc)_ZNSbIjSt11char_traitsIjESaIjEE4_Rep8_M_cloneERKS1_m@Base 0.70.1
 (arch=!amd64 !ia64 !kfreebsd-amd64 !s390 !s390x !alpha !ppc64 !sparc64 !any-i386)_ZNSbIjSt11char_traitsIjESaIjEE6appendEjj@Base 0.70.1
 (optional|arch=!any-i386 !armel !armhf !m68k !mips !mipsel !powerpc !powerpcspe !sh4 !sparc)_ZNSbIjSt11char_traitsIjESaIjEE6appendEmj@Base 0.70.1
 (arch=any-i386)_ZNSbIjSt11char_traitsIjESaIjEE6assignERKS2_@Base 0.70.1
 (arch=any-i386)_ZNSbIjSt11char_traitsIjESaIjEE6resizeEjj@Base 0.70.1
 (arch=!any-i386 !alpha !armel !armhf !ia64 !m68k !mips !mipsel !powerpc !powerpcspe !ppc64 !s390 !s390x !sh4 !sparc !sparc64)_ZNSbIjSt11char_traitsIjESaIjEE6resizeEmj@Base 0.70.1
 (arch=!amd64 !ia64 !kfreebsd-amd64 !s390 !s390x !alpha !ppc64 !sparc64)_ZNSbIjSt11char_traitsIjESaIjEE7replaceEjjPKjj@Base 0.70.1
 (arch=amd64 ia64 kfreebsd-amd64 s390 s390x alpha ppc64 sparc64)_ZNSbIjSt11char_traitsIjESaIjEE7replaceEmmPKjm@Base 0.70.1
 (arch=!amd64 !ia64 !kfreebsd-amd64 !s390 !s390x !alpha !ppc64 !sparc64)_ZNSbIjSt11char_traitsIjESaIjEE7reserveEj@Base 0.70.1
 (arch=amd64 ia64 kfreebsd-amd64 s390 s390x alpha ppc64 sparc64)_ZNSbIjSt11char_traitsIjESaIjEE7reserveEm@Base 0.70.1
 (arch=!amd64 !ia64 !kfreebsd-amd64 !s390 !s390x !alpha !ppc64 !sparc64)_ZNSbIjSt11char_traitsIjESaIjEE9_M_mutateEjjj@Base 0.70.1
 (arch=amd64 ia64 kfreebsd-amd64 s390 s390x alpha ppc64 sparc64)_ZNSbIjSt11char_traitsIjESaIjEE9_M_mutateEmmm@Base 0.70.1
 _ZNSbIjSt11char_traitsIjESaIjEEC1ERKS2_@Base 0.70.1
 _ZNSbIjSt11char_traitsIjESaIjEEC2ERKS2_@Base 0.70.1
 _ZNSbIjSt11char_traitsIjESaIjEED1Ev@Base 0.70.1
 _ZNSbIjSt11char_traitsIjESaIjEED2Ev@Base 0.70.1
 (arch=any-i386)_ZNSs12_S_constructIPcEES0_T_S1_RKSaIcESt20forward_iterator_tag@Base 0.70.1
 (optional|arch=!any-i386)_ZNSsC1IN9__gnu_cxx17__normal_iteratorIPKcSsEEEET_S5_RKSaIcE@Base 0.70.1
 (optional|arch=!any-i386)_ZNSsC2IN9__gnu_cxx17__normal_iteratorIPKcSsEEEET_S5_RKSaIcE@Base 0.70.1
 (arch=any-i386)_ZNSt10_List_baseIN2bt15RealPixmapCache9CacheItemESaIS2_EE8_M_clearEv@Base 0.70.1
 (arch=any-i386)_ZNSt10_List_baseIN2bt8MenuItemESaIS1_EE8_M_clearEv@Base 0.70.1
 (arch=any-i386)_ZNSt10_List_baseISsSaISsEE8_M_clearEv@Base 0.70.1
 (optional|arch=!any-i386)_ZNSt10_List_baseISsSaISsEED1Ev@Base 0.70.1
 (optional|arch=!any-i386)_ZNSt10_List_baseISsSaISsEED2Ev@Base 0.70.1
 (arch=!amd64 !ia64 !kfreebsd-amd64 !s390 !s390x !alpha !ppc64 !sparc64)_ZNSt11_Deque_baseIPN2bt4MenuESaIS2_EE17_M_initialize_mapEj@Base 0.70.1
 (arch=amd64 ia64 kfreebsd-amd64 s390 s390x alpha ppc64 sparc64)_ZNSt11_Deque_baseIPN2bt4MenuESaIS2_EE17_M_initialize_mapEm@Base 0.70.1
 (arch=any-i386)_ZNSt11_Deque_baseIPN2bt4MenuESaIS2_EED1Ev@Base 0.70.1
 (arch=any-i386)_ZNSt11_Deque_baseIPN2bt4MenuESaIS2_EED2Ev@Base 0.70.1
 (arch=any-i386)_ZNSt12_Destroy_auxILb0EE9__destroyIPSbIjSt11char_traitsIjESaIjEEEEvT_S7_@Base 0.70.1
 (arch=any-i386)_ZNSt12_Destroy_auxILb0EE9__destroyIPSsEEvT_S3_@Base 0.70.1
 (optional|arch=!any-i386)_ZNSt4listIN2bt15RealPixmapCache9CacheItemESaIS2_EED1Ev@Base 0.70.1
 (optional|arch=!any-i386)_ZNSt4listIN2bt15RealPixmapCache9CacheItemESaIS2_EED2Ev@Base 0.70.1
 (optional|arch=!any-i386)_ZNSt4listIN2bt8MenuItemESaIS1_EE6insertESt14_List_iteratorIS1_ERKS1_@Base 0.70.1
 (optional|arch=!any-i386)_ZNSt4listIN2bt8MenuItemESaIS1_EED1Ev@Base 0.70.1
 (optional|arch=!any-i386)_ZNSt4listIN2bt8MenuItemESaIS1_EED2Ev@Base 0.70.1
 _ZNSt4listISsSaISsEED1Ev@Base 0.70.1
 _ZNSt4listISsSaISsEED2Ev@Base 0.70.1
 (arch=any-i386)_ZNSt4pairIKN2bt9FontCache8FontNameENS1_7FontRefEED1Ev@Base 0.70.1
 (arch=any-i386)_ZNSt4pairIKN2bt9FontCache8FontNameENS1_7FontRefEED2Ev@Base 0.70.1
 (arch=!amd64 !ia64 !kfreebsd-amd64 !s390 !s390x !alpha !ppc64 !sparc64 !any-i386)_ZNSt5dequeIPN2bt4MenuESaIS2_EE17_M_reallocate_mapEjb@Base 0.70.1
 (optional|arch=!any-i386 !armel !armhf !m68k !mips !mipsel !powerpc !powercpspe !sh4 !sparc)_ZNSt5dequeIPN2bt4MenuESaIS2_EE17_M_reallocate_mapEmb@Base 0.70.1
 (optional|arch=!any-i386)_ZNSt5dequeIPN2bt4MenuESaIS2_EED1Ev@Base 0.70.1
 (optional|arch=!any-i386)_ZNSt5dequeIPN2bt4MenuESaIS2_EED2Ev@Base 0.70.1
 (arch=!amd64 !ia64 !kfreebsd-amd64 !s390 !s390x !alpha !ppc64 !sparc64)_ZNSt6vectorIPN2bt11XColorTableESaIS2_EE14_M_fill_insertEN9__gnu_cxx17__normal_iteratorIPS2_S4_EEjRKS2_@Base 0.70.1
 (arch=amd64 ia64 kfreebsd-amd64 s390 s390x alpha ppc64 sparc64)_ZNSt6vectorIPN2bt11XColorTableESaIS2_EE14_M_fill_insertEN9__gnu_cxx17__normal_iteratorIPS2_S4_EEmRKS2_@Base 0.70.1
 _ZNSt6vectorIPN2bt11XColorTableESaIS2_EED1Ev@Base 0.70.1
 _ZNSt6vectorIPN2bt11XColorTableESaIS2_EED2Ev@Base 0.70.1
 _ZNSt6vectorIPN2bt5TimerESaIS2_EE13_M_insert_auxEN9__gnu_cxx17__normal_iteratorIPS2_S4_EERKS2_@Base 0.70.1
 (arch=!armel !armhf)_ZNSt6vectorIPN2bt5TimerESaIS2_EED1Ev@Base 0.70.1
 (arch=!armel !armhf)_ZNSt6vectorIPN2bt5TimerESaIS2_EED2Ev@Base 0.70.1
 _ZNSt6vectorISbIjSt11char_traitsIjESaIjEESaIS3_EE13_M_insert_auxEN9__gnu_cxx17__normal_iteratorIPS3_S5_EERKS3_@Base 0.70.1
 _ZNSt6vectorISsSaISsEED1Ev@Base 0.70.1
 _ZNSt6vectorISsSaISsEED2Ev@Base 0.70.1
 (arch=!amd64 !ia64 !kfreebsd-amd64 !s390 !s390x !alpha !ppc64 !sparc64)_ZNSt6vectorIbSaIbEE14_M_fill_insertESt13_Bit_iteratorjb@Base 0.70.1
 (arch=amd64 ia64 kfreebsd-amd64 s390 s390x alpha ppc64 sparc64)_ZNSt6vectorIbSaIbEE14_M_fill_insertESt13_Bit_iteratormb@Base 0.70.1
 (arch=any-i386)_ZNSt6vectorIbSaIbEED1Ev@Base 0.70.1
 (arch=any-i386)_ZNSt6vectorIbSaIbEED2Ev@Base 0.70.1
 _ZNSt6vectorIhSaIhEED1Ev@Base 0.70.1
 _ZNSt6vectorIhSaIhEED2Ev@Base 0.70.1
 _ZNSt6vectorImSaImEE13_M_assign_auxIPmEEvT_S4_St20forward_iterator_tag@Base 0.70.1
 (arch=!amd64 !ia64 !kfreebsd-amd64 !s390 !s390x !alpha !ppc64 !sparc64)_ZNSt6vectorImSaImEE14_M_fill_insertEN9__gnu_cxx17__normal_iteratorIPmS1_EEjRKm@Base 0.70.1
 (arch=amd64 ia64 kfreebsd-amd64 s390 s390x alpha ppc64 sparc64)_ZNSt6vectorImSaImEE14_M_fill_insertEN9__gnu_cxx17__normal_iteratorIPmS1_EEmRKm@Base 0.70.1
 (arch=!amd64 !ia64 !kfreebsd-amd64 !s390 !s390x !alpha !ppc64 !sparc64)_ZNSt6vectorImSaImEE7reserveEj@Base 0.70.1
 (arch=amd64 ia64 kfreebsd-amd64 s390 s390x alpha ppc64 sparc64)_ZNSt6vectorImSaImEE7reserveEm@Base 0.70.1
 (arch=any-i386)_ZNSt6vectorImSaImEED1Ev@Base 0.70.1
 (arch=any-i386)_ZNSt6vectorImSaImEED2Ev@Base 0.70.1
 _ZNSt8_Rb_treeIN2bt10ColorCache3RGBESt4pairIKS2_NS1_8PixelRefEESt10_Select1stIS6_ESt4lessIS2_ESaIS6_EE10_M_insert_EPKSt18_Rb_tree_node_baseSF_RKS6_@Base 0.70.1
 _ZNSt8_Rb_treeIN2bt10ColorCache3RGBESt4pairIKS2_NS1_8PixelRefEESt10_Select1stIS6_ESt4lessIS2_ESaIS6_EE16_M_insert_uniqueERKS6_@Base 0.70.1
 (arch=any-i386)_ZNSt8_Rb_treeIN2bt10ColorCache3RGBESt4pairIKS2_NS1_8PixelRefEESt10_Select1stIS6_ESt4lessIS2_ESaIS6_EE4findERS4_@Base 0.70.1
 _ZNSt8_Rb_treeIN2bt10ColorCache3RGBESt4pairIKS2_NS1_8PixelRefEESt10_Select1stIS6_ESt4lessIS2_ESaIS6_EE8_M_eraseEPSt13_Rb_tree_nodeIS6_E@Base 0.70.1
 _ZNSt8_Rb_treeIN2bt9FontCache8FontNameESt4pairIKS2_NS1_7FontRefEESt10_Select1stIS6_ESt4lessIS2_ESaIS6_EE10_M_insert_EPKSt18_Rb_tree_node_baseSF_RKS6_@Base 0.70.1
 _ZNSt8_Rb_treeIN2bt9FontCache8FontNameESt4pairIKS2_NS1_7FontRefEESt10_Select1stIS6_ESt4lessIS2_ESaIS6_EE16_M_insert_uniqueERKS6_@Base 0.70.1
 (arch=any-i386)_ZNSt8_Rb_treeIN2bt9FontCache8FontNameESt4pairIKS2_NS1_7FontRefEESt10_Select1stIS6_ESt4lessIS2_ESaIS6_EE4findERS4_@Base 0.70.1
 _ZNSt8_Rb_treeIN2bt9FontCache8FontNameESt4pairIKS2_NS1_7FontRefEESt10_Select1stIS6_ESt4lessIS2_ESaIS6_EE8_M_eraseEPSt13_Rb_tree_nodeIS6_E@Base 0.70.1
 _ZNSt8_Rb_treeImSt4pairIKmPN2bt12EventHandlerEESt10_Select1stIS5_ESt4lessImESaIS5_EE10_M_insert_EPKSt18_Rb_tree_node_baseSE_RKS5_@Base 0.70.1
 (optional|arch=!any-i386)_ZNSt8_Rb_treeImSt4pairIKmPN2bt12EventHandlerEESt10_Select1stIS5_ESt4lessImESaIS5_EE16_M_insert_uniqueERKS5_@Base 0.70.1
 (optional|arch=!any-i386)_ZNSt8_Rb_treeImSt4pairIKmPN2bt12EventHandlerEESt10_Select1stIS5_ESt4lessImESaIS5_EE5eraseERS1_@Base 0.70.1
 _ZNSt8_Rb_treeImSt4pairIKmPN2bt12EventHandlerEESt10_Select1stIS5_ESt4lessImESaIS5_EE8_M_eraseEPSt13_Rb_tree_nodeIS5_E@Base 0.70.1
 (arch=!amd64 !ia64 !kfreebsd-amd64 !s390x !alpha !ppc64 !sparc64)_ZSt11__push_heapIN9__gnu_cxx17__normal_iteratorIPPN2bt5TimerESt6vectorIS4_SaIS4_EEEEiS4_NS2_13TimerLessThanEEvT_T0_SC_T1_T2_@Base 0.70.1
 (arch=amd64 ia64 kfreebsd-amd64 s390x alpha ppc64 sparc64)_ZSt11__push_heapIN9__gnu_cxx17__normal_iteratorIPPN2bt5TimerESt6vectorIS4_SaIS4_EEEElS4_NS2_13TimerLessThanEEvT_T0_SC_T1_T2_@Base 0.70.1
 (arch=!amd64 !ia64 !kfreebsd-amd64 !s390x !alpha !ppc64 !sparc64)_ZSt13__adjust_heapIN9__gnu_cxx17__normal_iteratorIPPN2bt5TimerESt6vectorIS4_SaIS4_EEEEiS4_NS2_13TimerLessThanEEvT_T0_SC_T1_T2_@Base 0.70.1
 (arch=amd64 ia64 kfreebsd-amd64 s390x alpha ppc64 sparc64)_ZSt13__adjust_heapIN9__gnu_cxx17__normal_iteratorIPPN2bt5TimerESt6vectorIS4_SaIS4_EEEElS4_NS2_13TimerLessThanEEvT_T0_SC_T1_T2_@Base 0.70.1
 (optional|arch=!any-i386)_ZSt6__findIN9__gnu_cxx17__normal_iteratorIPKcSsEEcET_S5_S5_RKT0_St26random_access_iterator_tag@Base 0.70.1
 (optional|arch=!any-i386)_ZSt6__findIN9__gnu_cxx17__normal_iteratorIPPN2bt5TimerESt6vectorIS4_SaIS4_EEEES4_ET_SA_SA_RKT0_St26random_access_iterator_tag@Base 0.70.1
 _ZSt6__findISt13_Bit_iteratorbET_S1_S1_RKT0_St26random_access_iterator_tag@Base 0.70.1
 (arch=any-i386)_ZSt6removeIN9__gnu_cxx17__normal_iteratorIPPN2bt5TimerESt6vectorIS4_SaIS4_EEEES4_ET_SA_SA_RKT0_@Base 0.70.1
 (arch=armel armhf)_ZSt8_DestroyIPSsEvT_S1_@Base 0.70.1-4
 (arch=any-i386)_ZSt9make_heapIN9__gnu_cxx17__normal_iteratorIPPN2bt5TimerESt6vectorIS4_SaIS4_EEEENS2_13TimerLessThanEEvT_SB_T0_@Base 0.70.1
 _ZStplIcSt11char_traitsIcESaIcEESbIT_T0_T1_ERKS6_S8_@Base 0.70.1
 (optional|arch=!any-i386)_ZStplIjSt11char_traitsIjESaIjEESbIT_T0_T1_ERKS6_S8_@Base 0.70.1
 _ZTIN2bt11ApplicationE@Base 0.70.1
 _ZTIN2bt12EventHandlerE@Base 0.70.1
 _ZTIN2bt14TimeoutHandlerE@Base 0.70.1
 _ZTIN2bt17TimerQueueManagerE@Base 0.70.1
 _ZTIN2bt4MenuE@Base 0.70.1
 _ZTIN2bt5TimerE@Base 0.70.1
 _ZTIN2bt6NoCopyE@Base 0.70.1
 _ZTIN2bt9MenuDelayE@Base 0.70.1
 _ZTSN2bt11ApplicationE@Base 0.70.1
 _ZTSN2bt12EventHandlerE@Base 0.70.1
 _ZTSN2bt14TimeoutHandlerE@Base 0.70.1
 _ZTSN2bt17TimerQueueManagerE@Base 0.70.1
 _ZTSN2bt4MenuE@Base 0.70.1
 _ZTSN2bt5TimerE@Base 0.70.1
 _ZTSN2bt6NoCopyE@Base 0.70.1
 _ZTSN2bt9MenuDelayE@Base 0.70.1
 _ZTVN2bt11ApplicationE@Base 0.70.1
 _ZTVN2bt12EventHandlerE@Base 0.70.1
 _ZTVN2bt14TimeoutHandlerE@Base 0.70.1
 _ZTVN2bt17TimerQueueManagerE@Base 0.70.1
 _ZTVN2bt4MenuE@Base 0.70.1
 _ZTVN2bt5TimerE@Base 0.70.1
 _ZTVN2bt9MenuDelayE@Base 0.70.1
