# SymbolsHelper-Confirmed: 4.6.3 amd64
libQtAssistantClient.so.4 libqtassistantclient4 #MINVER#
 (optional=external)_ZN10QByteArrayD1Ev@Base 4.6.3
 (optional=external)_ZN10QByteArrayD2Ev@Base 4.6.3
 _ZN16QAssistantClient11qt_metacallEN11QMetaObject4CallEiPPv@Base 4.6.3
 _ZN16QAssistantClient11qt_metacastEPKc@Base 4.6.3
 _ZN16QAssistantClient11socketErrorEv@Base 4.6.3
 _ZN16QAssistantClient12readStdErrorEv@Base 4.6.3
 _ZN16QAssistantClient12setArgumentsERK11QStringList@Base 4.6.3
 _ZN16QAssistantClient13openAssistantEv@Base 4.6.3
 _ZN16QAssistantClient14closeAssistantEv@Base 4.6.3
 _ZN16QAssistantClient15assistantClosedEv@Base 4.6.3
 _ZN16QAssistantClient15assistantOpenedEv@Base 4.6.3
 _ZN16QAssistantClient15socketConnectedEv@Base 4.6.3
 _ZN16QAssistantClient16staticMetaObjectE@Base 4.6.3
 _ZN16QAssistantClient22socketConnectionClosedEv@Base 4.6.3
 _ZN16QAssistantClient5errorERK7QString@Base 4.6.3
 _ZN16QAssistantClient8readPortEv@Base 4.6.3
 _ZN16QAssistantClient8showPageERK7QString@Base 4.6.3
 _ZN16QAssistantClient9procErrorEN8QProcess12ProcessErrorE@Base 4.6.3
 _ZN16QAssistantClientC1ERK7QStringP7QObject@Base 4.6.3
 _ZN16QAssistantClientC2ERK7QStringP7QObject@Base 4.6.3
 _ZN16QAssistantClientD0Ev@Base 4.6.3
 _ZN16QAssistantClientD1Ev@Base 4.6.3
 _ZN16QAssistantClientD2Ev@Base 4.6.3
 (optional=templinst)_ZN4QMapIPK16QAssistantClientP23QAssistantClientPrivateE13detach_helperEv@Base 4.6.3
 (optional=templinst)_ZN4QMapIPK16QAssistantClientP23QAssistantClientPrivateE6removeERKS2_@Base 4.6.3
 (optional=templinst)_ZN5QListI7QStringE13detach_helperEi@Base 4.6.3
 (optional=templinst)_ZN5QListI7QStringE13detach_helperEv@Base 4.6.3
 (optional=templinst)_ZN5QListI7QStringE18detach_helper_growEii@Base 4.6.3
 (optional=templinst)_ZN5QListI7QStringE6appendERKS0_@Base 4.6.3
 (optional=templinst)_ZN5QListI7QStringED1Ev@Base 4.6.3
 (optional=templinst)_ZN5QListI7QStringED2Ev@Base 4.6.3
 (optional=external)_ZN7QStringD1Ev@Base 4.6.3
 (optional=external)_ZN7QStringD2Ev@Base 4.6.3
 _ZNK16QAssistantClient10metaObjectEv@Base 4.6.3
 _ZNK16QAssistantClient6isOpenEv@Base 4.6.3
 (optional=templinst)_ZNK4QMapIPK16QAssistantClientP23QAssistantClientPrivateE15mutableFindNodeEPPN8QMapData4NodeERKS2_@Base 4.6.3
 _ZTI16QAssistantClient@Base 4.6.3
 _ZTS16QAssistantClient@Base 4.6.3
 _ZTV16QAssistantClient@Base 4.6.3
