# SymbolsHelper-Confirmed: 4:4.6.1 amd64
libkonqsidebarplugin.so.4 libkonqsidebarplugin4a #MINVER#
 ABI_4_0@ABI_4_0 4:4.6.1
 _ZN17KonqSidebarModule10enableCopyEb@ABI_4_0 4:4.6.1
 _ZN17KonqSidebarModule10setCaptionERK7QString@ABI_4_0 4:4.6.1
 _ZN17KonqSidebarModule11configGroupEv@ABI_4_0 4:4.6.1
 _ZN17KonqSidebarModule11enablePasteEb@ABI_4_0 4:4.6.1
 _ZN17KonqSidebarModule11openPreviewERK13KFileItemList@ABI_4_0 4:4.6.1
 _ZN17KonqSidebarModule11qt_metacallEN11QMetaObject4CallEiPPv@ABI_4_0 4:4.6.1
 _ZN17KonqSidebarModule11qt_metacastEPKc@ABI_4_0 4:4.6.1
 _ZN17KonqSidebarModule12enableActionEPS_PKcb@ABI_4_0 4:4.6.1
 _ZN17KonqSidebarModule13handlePreviewERK13KFileItemList@ABI_4_0 4:4.6.1
 _ZN17KonqSidebarModule13showPopupMenuERK6QPointRK13KFileItemListRKN6KParts16OpenUrlArgumentsERKNS6_16BrowserArgumentsE6QFlagsINS6_16BrowserExtension9PopupFlagEERK4QMapI7QString5QListIP7QActionEE@ABI_4_0 4:4.6.1
 _ZN17KonqSidebarModule14openUrlRequestERK4KUrlRKN6KParts16OpenUrlArgumentsERKNS3_16BrowserArgumentsE@ABI_4_0 4:4.6.1
 _ZN17KonqSidebarModule15createNewWindowERK4KUrlRKN6KParts16OpenUrlArgumentsERKNS3_16BrowserArgumentsERKNS3_10WindowArgsE@ABI_4_0 4:4.6.1
 _ZN17KonqSidebarModule16staticMetaObjectE@ABI_4_0 4:4.6.1
 _ZN17KonqSidebarModule17submitFormRequestEPKcRK7QStringRK10QByteArrayS4_S4_S4_@ABI_4_0 4:4.6.1
 _ZN17KonqSidebarModule22openPreviewOnMouseOverERK9KFileItem@ABI_4_0 4:4.6.1
 _ZN17KonqSidebarModule24handlePreviewOnMouseOverERK9KFileItem@ABI_4_0 4:4.6.1
 _ZN17KonqSidebarModule7openUrlERK4KUrl@ABI_4_0 4:4.6.1
 _ZN17KonqSidebarModule7setIconERK7QString@ABI_4_0 4:4.6.1
 _ZN17KonqSidebarModule7startedEPN3KIO3JobE@ABI_4_0 4:4.6.1
 _ZN17KonqSidebarModule9completedEv@ABI_4_0 4:4.6.1
 _ZN17KonqSidebarModule9enableCutEb@ABI_4_0 4:4.6.1
 _ZN17KonqSidebarModule9popupMenuEPS_RK6QPointRK13KFileItemListRKN6KParts16OpenUrlArgumentsERKNS7_16BrowserArgumentsE6QFlagsINS7_16BrowserExtension9PopupFlagEERK4QMapI7QString5QListIP7QActionEE@ABI_4_0 4:4.6.1
 _ZN17KonqSidebarModuleC1ERK14KComponentDataP7QObjectRK12KConfigGroup@ABI_4_0 4:4.6.1
 _ZN17KonqSidebarModuleC2ERK14KComponentDataP7QObjectRK12KConfigGroup@ABI_4_0 4:4.6.1
 _ZN17KonqSidebarModuleD0Ev@ABI_4_0 4:4.6.1
 _ZN17KonqSidebarModuleD1Ev@ABI_4_0 4:4.6.1
 _ZN17KonqSidebarModuleD2Ev@ABI_4_0 4:4.6.1
 _ZN17KonqSidebarPlugin11qt_metacallEN11QMetaObject4CallEiPPv@ABI_4_0 4:4.6.1
 _ZN17KonqSidebarPlugin11qt_metacastEPKc@ABI_4_0 4:4.6.1
 _ZN17KonqSidebarPlugin16staticMetaObjectE@ABI_4_0 4:4.6.1
 _ZNK17KonqSidebarModule10metaObjectEv@ABI_4_0 4:4.6.1
 _ZNK17KonqSidebarModule12isCutEnabledEv@ABI_4_0 4:4.6.1
 _ZNK17KonqSidebarModule13isCopyEnabledEv@ABI_4_0 4:4.6.1
 _ZNK17KonqSidebarModule14isPasteEnabledEv@ABI_4_0 4:4.6.1
 _ZNK17KonqSidebarModule19parentComponentDataEv@ABI_4_0 4:4.6.1
 _ZNK17KonqSidebarPlugin10metaObjectEv@ABI_4_0 4:4.6.1
 _ZTI17KonqSidebarModule@ABI_4_0 4:4.6.1
 _ZTI17KonqSidebarPlugin@ABI_4_0 4:4.6.1
 _ZTS17KonqSidebarModule@ABI_4_0 4:4.6.1
 _ZTS17KonqSidebarPlugin@ABI_4_0 4:4.6.1
 _ZTV17KonqSidebarModule@ABI_4_0 4:4.6.1
 _ZTV17KonqSidebarPlugin@ABI_4_0 4:4.6.1
 dlrestrictions_data@ABI_4_0 4:4.6.3
