# SymbolsHelper-Confirmed: 4:4.8.2 amd64
libkonq.so.5abi1 libkonq5abi1 #MINVER#
 ABI_5_1@ABI_5_1 4:4.6.1
 (arch=kfreebsd-amd64 kfreebsd-i386)_ZN11KMountPoint4ListD1Ev@ABI_5_1 4:4.7.2
 (arch=kfreebsd-amd64 kfreebsd-i386)_ZN11KMountPoint4ListD2Ev@ABI_5_1 4:4.7.2
 _ZN12KonqMimeData16populateMimeDataEP9QMimeDataRKN4KUrl4ListES5_b@ABI_5_1 4:4.6.1
 _ZN12KonqMimeData17addIsCutSelectionEP9QMimeDatab@ABI_5_1 4:4.6.1
 _ZN12KonqMimeData20decodeIsCutSelectionEPK9QMimeData@ABI_5_1 4:4.6.1
 (arch=kfreebsd-amd64 kfreebsd-i386)_ZN13KFileItemListD1Ev@ABI_5_1 4:4.7.2
 (arch=kfreebsd-amd64 kfreebsd-i386)_ZN13KFileItemListD2Ev@ABI_5_1 4:4.7.2
 _ZN13KonqPopupMenu11qt_metacallEN11QMetaObject4CallEiPPv@ABI_5_1 4:4.6.1
 _ZN13KonqPopupMenu11qt_metacastEPKc@ABI_5_1 4:4.6.1
 _ZN13KonqPopupMenu11setURLTitleERK7QString@ABI_5_1 4:4.6.1
 _ZN13KonqPopupMenu16staticMetaObjectE@ABI_5_1 4:4.6.1
 _ZN13KonqPopupMenuC1ERK13KFileItemListRK4KUrlR17KActionCollectionP12KNewFileMenuj6QFlagsIN6KParts16BrowserExtension9PopupFlagEEP7QWidgetP16KBookmarkManagerRK4QMapI7QString5QListIP7QActionEE@ABI_5_1 4:4.6.1
 _ZN13KonqPopupMenuC2ERK13KFileItemListRK4KUrlR17KActionCollectionP12KNewFileMenuj6QFlagsIN6KParts16BrowserExtension9PopupFlagEEP7QWidgetP16KBookmarkManagerRK4QMapI7QString5QListIP7QActionEE@ABI_5_1 4:4.6.1
 _ZN13KonqPopupMenuD0Ev@ABI_5_1 4:4.6.1
 _ZN13KonqPopupMenuD1Ev@ABI_5_1 4:4.6.1
 _ZN13KonqPopupMenuD2Ev@ABI_5_1 4:4.6.1
 _ZN14KonqCopyToMenu11setReadOnlyEb@ABI_5_1 4:4.6.1
 _ZN14KonqCopyToMenu12addActionsToEP5QMenu@ABI_5_1 4:4.6.1
 _ZN14KonqCopyToMenu7setUrlsERKN4KUrl4ListE@ABI_5_1 4:4.6.1
 _ZN14KonqCopyToMenu8setItemsERK13KFileItemList@ABI_5_1 4:4.6.1
 _ZN14KonqCopyToMenuC1EP7QWidget@ABI_5_1 4:4.6.1
 _ZN14KonqCopyToMenuC1Ev@ABI_5_1 4:4.6.1
 _ZN14KonqCopyToMenuC2EP7QWidget@ABI_5_1 4:4.6.1
 _ZN14KonqCopyToMenuC2Ev@ABI_5_1 4:4.6.1
 _ZN14KonqCopyToMenuD1Ev@ABI_5_1 4:4.6.1
 _ZN14KonqCopyToMenuD2Ev@ABI_5_1 4:4.6.1
 _ZN14KonqOperations10emptyTrashEP7QWidget@ABI_5_1 4:4.6.1
 _ZN14KonqOperations10slotResultEP4KJob@ABI_5_1 4:4.6.1
 _ZN14KonqOperations11qt_metacallEN11QMetaObject4CallEiPPv@ABI_5_1 4:4.6.1
 _ZN14KonqOperations11qt_metacastEPKc@ABI_5_1 4:4.6.1
 _ZN14KonqOperations12editMimeTypeERK7QStringP7QWidget@ABI_5_1 4:4.6.1
 _ZN14KonqOperations12setOperationEPN3KIO3JobENS_9OperationERK4KUrl@ABI_5_1 4:4.6.1
 _ZN14KonqOperations12statFinishedERK9KFileItem@ABI_5_1 4:4.6.1
 _ZN14KonqOperations13aboutToCreateERK6QPointRK5QListIN3KIO8CopyInfoEE@ABI_5_1 4:4.6.1
 _ZN14KonqOperations14doDropFileCopyEv@ABI_5_1 4:4.6.1
 _ZN14KonqOperations14slotStatResultEP4KJob@ABI_5_1 4:4.6.1
 _ZN14KonqOperations16staticMetaObjectE@ABI_5_1 4:4.6.1
 _ZN14KonqOperations17_addPluginActionsER5QListIP7QActionERK4KUrlRK23KFileItemListProperties@ABI_5_1 4:4.6.1
 _ZN14KonqOperations17slotAboutToCreateEPN3KIO3JobERK5QListINS0_8CopyInfoEE@ABI_5_1 4:4.6.1
 _ZN14KonqOperations19restoreTrashedItemsERKN4KUrl4ListEP7QWidget@ABI_5_1 4:4.6.1
 _ZN14KonqOperations20_restoreTrashedItemsERKN4KUrl4ListE@ABI_5_1 4:4.6.1
 _ZN14KonqOperations21askDeleteConfirmationERKN4KUrl4ListEiNS_16ConfirmationTypeEP7QWidget@ABI_5_1 4:4.6.1
 _ZN14KonqOperations3delEP7QWidgetNS_9OperationERKN4KUrl4ListE@ABI_5_1 4:4.6.1
 _ZN14KonqOperations4_delENS_9OperationERKN4KUrl4ListENS_16ConfirmationTypeE@ABI_5_1 4:4.6.1
 _ZN14KonqOperations4copyEP7QWidgetNS_9OperationERKN4KUrl4ListERKS3_@ABI_5_1 4:4.6.1
 _ZN14KonqOperations5mkdirEP7QWidgetRK4KUrl@ABI_5_1 4:4.6.1
 _ZN14KonqOperations6doDropERK9KFileItemRK4KUrlP10QDropEventP7QWidget@ABI_5_1 4:4.6.1
 _ZN14KonqOperations6doDropERK9KFileItemRK4KUrlP10QDropEventP7QWidgetRK5QListIP7QActionE@ABI_5_1 4:4.6.1
 _ZN14KonqOperations6newDirEP7QWidgetRK4KUrl6QFlagsINS_10NewDirFlagEE@ABI_5_1 4:4.6.1
 _ZN14KonqOperations6newDirEP7QWidgetRK4KUrl@ABI_5_1 4:4.6.1
 _ZN14KonqOperations6renameEP7QWidgetRK4KUrlRK7QString@ABI_5_1 4:4.6.1
 _ZN14KonqOperations6renameEP7QWidgetRK4KUrlS4_@ABI_5_1 4:4.6.1
 _ZN14KonqOperations7doPasteEP7QWidgetRK4KUrlRK6QPoint@ABI_5_1 4:4.6.1
 _ZN14KonqOperations7statUrlERK4KUrlPK7QObjectPKcP7QWidget@ABI_5_1 4:4.6.1
 _ZN14KonqOperations8_statUrlERK4KUrlPK7QObjectPKc@ABI_5_1 4:4.6.1
 _ZN14KonqOperations9asyncDropERK9KFileItem@ABI_5_1 4:4.6.1
 _ZN14KonqOperations9pasteInfoERK4KUrl@ABI_5_1 4:4.6.1
 _ZN14KonqOperationsC1EP7QWidget@ABI_5_1 4:4.6.1
 _ZN14KonqOperationsC2EP7QWidget@ABI_5_1 4:4.6.1
 _ZN14KonqOperationsD0Ev@ABI_5_1 4:4.6.1
 _ZN14KonqOperationsD1Ev@ABI_5_1 4:4.6.1
 _ZN14KonqOperationsD2Ev@ABI_5_1 4:4.6.1
 _ZN15KonqConfigEvent17s_configEventNameE@ABI_5_1 4:4.6.1
 _ZN15KonqHistoryList11removeEntryERK4KUrl@ABI_5_1 4:4.6.1
 _ZN15KonqHistoryList9findEntryERK4KUrl@ABI_5_1 4:4.6.1
 _ZN15KonqMenuActions12addActionsToEP5QMenu@ABI_5_1 4:4.6.1
 _ZN15KonqMenuActions15setParentWidgetEP7QWidget@ABI_5_1 4:4.6.1
 _ZN15KonqMenuActions16setPopupMenuInfoERK24KonqPopupMenuInformation@ABI_5_1 4:4.6.1
 _ZN15KonqMenuActions20addOpenWithActionsToEP5QMenuRK7QString@ABI_5_1 4:4.6.1
 _ZN15KonqMenuActions21setItemListPropertiesERK23KFileItemListProperties@ABI_5_1 4:4.6.1
 _ZN15KonqMenuActions23preferredOpenWithActionERK7QString@ABI_5_1 4:4.6.1
 _ZN15KonqMenuActionsC1Ev@ABI_5_1 4:4.6.1
 _ZN15KonqMenuActionsC2Ev@ABI_5_1 4:4.6.1
 _ZN15KonqMenuActionsD1Ev@ABI_5_1 4:4.6.1
 _ZN15KonqMenuActionsD2Ev@ABI_5_1 4:4.6.1
 _ZN16KonqHistoryEntry4loadER11QDataStreamNS_5FlagsE@ABI_5_1 4:4.6.1
 _ZN16KonqHistoryEntryC1ERKS_@ABI_5_1 4:4.6.1
 _ZN16KonqHistoryEntryC1Ev@ABI_5_1 4:4.6.1
 _ZN16KonqHistoryEntryC2ERKS_@ABI_5_1 4:4.6.1
 _ZN16KonqHistoryEntryC2Ev@ABI_5_1 4:4.6.1
 _ZN16KonqHistoryEntryD1Ev@ABI_5_1 4:4.6.1
 _ZN16KonqHistoryEntryD2Ev@ABI_5_1 4:4.6.1
 _ZN19KonqHistoryProvider10entryAddedERK16KonqHistoryEntry@ABI_5_1 4:4.6.1
 _ZN19KonqHistoryProvider11loadHistoryEv@ABI_5_1 4:4.6.1
 _ZN19KonqHistoryProvider11qt_metacallEN11QMetaObject4CallEiPPv@ABI_5_1 4:4.6.1
 _ZN19KonqHistoryProvider11qt_metacastEPKc@ABI_5_1 4:4.6.1
 _ZN19KonqHistoryProvider11removeEntryEN5QListI16KonqHistoryEntryE8iteratorE@ABI_5_1 4:4.6.1
 _ZN19KonqHistoryProvider12entryRemovedERK16KonqHistoryEntry@ABI_5_1 4:4.6.1
 _ZN19KonqHistoryProvider13emitSetMaxAgeEi@ABI_5_1 4:4.6.1
 _ZN19KonqHistoryProvider15emitSetMaxCountEi@ABI_5_1 4:4.6.1
 _ZN19KonqHistoryProvider16emitAddToHistoryERK16KonqHistoryEntry@ABI_5_1 4:4.6.1
 _ZN19KonqHistoryProvider16staticMetaObjectE@ABI_5_1 4:4.6.1
 _ZN19KonqHistoryProvider17finishAddingEntryERK16KonqHistoryEntryb@ABI_5_1 4:4.6.1
 _ZN19KonqHistoryProvider21emitRemoveFromHistoryERK4KUrl@ABI_5_1 4:4.6.1
 _ZN19KonqHistoryProvider25emitRemoveListFromHistoryERKN4KUrl4ListE@ABI_5_1 4:4.6.1
 _ZN19KonqHistoryProvider9emitClearEv@ABI_5_1 4:4.6.1
 _ZN19KonqHistoryProvider9findEntryERK4KUrl@ABI_5_1 4:4.6.1
 _ZN19KonqHistoryProviderC1EP7QObject@ABI_5_1 4:4.6.1
 _ZN19KonqHistoryProviderC2EP7QObject@ABI_5_1 4:4.6.1
 _ZN19KonqHistoryProviderD0Ev@ABI_5_1 4:4.6.1
 _ZN19KonqHistoryProviderD1Ev@ABI_5_1 4:4.6.1
 _ZN19KonqHistoryProviderD2Ev@ABI_5_1 4:4.6.1
 _ZN19KonqPopupMenuPlugin11qt_metacallEN11QMetaObject4CallEiPPv@ABI_5_1 4:4.6.1
 _ZN19KonqPopupMenuPlugin11qt_metacastEPKc@ABI_5_1 4:4.6.1
 _ZN19KonqPopupMenuPlugin16staticMetaObjectE@ABI_5_1 4:4.6.1
 _ZN19KonqPopupMenuPluginC1EP7QObject@ABI_5_1 4:4.6.1
 _ZN19KonqPopupMenuPluginC2EP7QObject@ABI_5_1 4:4.6.1
 _ZN19KonqPopupMenuPluginD0Ev@ABI_5_1 4:4.6.1
 _ZN19KonqPopupMenuPluginD1Ev@ABI_5_1 4:4.6.1
 _ZN19KonqPopupMenuPluginD2Ev@ABI_5_1 4:4.6.1
 _ZN21KVersionControlPlugin11infoMessageERK7QString@ABI_5_1 4:4.6.1
 _ZN21KVersionControlPlugin11qt_metacallEN11QMetaObject4CallEiPPv@ABI_5_1 4:4.6.1
 _ZN21KVersionControlPlugin11qt_metacastEPKc@ABI_5_1 4:4.6.1
 _ZN21KVersionControlPlugin12errorMessageERK7QString@ABI_5_1 4:4.6.1
 _ZN21KVersionControlPlugin16staticMetaObjectE@ABI_5_1 4:4.6.1
 _ZN21KVersionControlPlugin20versionStatesChangedEv@ABI_5_1 4:4.6.1
 _ZN21KVersionControlPlugin25operationCompletedMessageERK7QString@ABI_5_1 4:4.6.1
 _ZN21KVersionControlPluginC1EP7QObject@ABI_5_1 4:4.6.1
 _ZN21KVersionControlPluginC2EP7QObject@ABI_5_1 4:4.6.1
 _ZN21KVersionControlPluginD0Ev@ABI_5_1 4:4.6.1
 _ZN21KVersionControlPluginD1Ev@ABI_5_1 4:4.6.1
 _ZN21KVersionControlPluginD2Ev@ABI_5_1 4:4.6.1
 _ZN22KVersionControlPlugin211infoMessageERK7QString@ABI_5_1 4:4.8.1
 _ZN22KVersionControlPlugin211qt_metacallEN11QMetaObject4CallEiPPv@ABI_5_1 4:4.8.1
 _ZN22KVersionControlPlugin211qt_metacastEPKc@ABI_5_1 4:4.8.1
 _ZN22KVersionControlPlugin212errorMessageERK7QString@ABI_5_1 4:4.8.1
 _ZN22KVersionControlPlugin212versionStateERK9KFileItem@ABI_5_1 4:4.8.1
 _ZN22KVersionControlPlugin216staticMetaObjectE@ABI_5_1 4:4.8.1
 _ZN22KVersionControlPlugin218contextMenuActionsERK13KFileItemList@ABI_5_1 4:4.8.1
 _ZN22KVersionControlPlugin218contextMenuActionsERK7QString@ABI_5_1 4:4.8.1
 _ZN22KVersionControlPlugin219itemVersionsChangedEv@ABI_5_1 4:4.8.1
 _ZN22KVersionControlPlugin225operationCompletedMessageERK7QString@ABI_5_1 4:4.8.1
 _ZN22KVersionControlPlugin2C1EP7QObject@ABI_5_1 4:4.8.1
 _ZN22KVersionControlPlugin2C2EP7QObject@ABI_5_1 4:4.8.1
 _ZN22KVersionControlPlugin2D0Ev@ABI_5_1 4:4.8.1
 _ZN22KVersionControlPlugin2D1Ev@ABI_5_1 4:4.8.1
 _ZN22KVersionControlPlugin2D2Ev@ABI_5_1 4:4.8.1
 _ZN22KonqDndPopupMenuPlugin11qt_metacallEN11QMetaObject4CallEiPPv@ABI_5_1 4:4.6.1
 _ZN22KonqDndPopupMenuPlugin11qt_metacastEPKc@ABI_5_1 4:4.6.1
 _ZN22KonqDndPopupMenuPlugin16staticMetaObjectE@ABI_5_1 4:4.6.1
 _ZN22KonqDndPopupMenuPluginC1EP7QObject@ABI_5_1 4:4.6.1
 _ZN22KonqDndPopupMenuPluginC2EP7QObject@ABI_5_1 4:4.6.1
 _ZN22KonqDndPopupMenuPluginD0Ev@ABI_5_1 4:4.6.1
 _ZN22KonqDndPopupMenuPluginD1Ev@ABI_5_1 4:4.6.1
 _ZN22KonqDndPopupMenuPluginD2Ev@ABI_5_1 4:4.6.1
 _ZN22KonqFileMouseOverEvent28s_fileItemMouseOverEventNameE@ABI_5_1 4:4.6.1
 _ZN22KonqFileSelectionEvent28s_fileItemSelectionEventNameE@ABI_5_1 4:4.6.1
 _ZN24KonqFileItemCapabilities8setItemsERK13KFileItemList@ABI_5_1 4:4.6.1
 _ZN24KonqFileItemCapabilitiesC1ERK13KFileItemList@ABI_5_1 4:4.6.1
 _ZN24KonqFileItemCapabilitiesC1ERKS_@ABI_5_1 4:4.6.1
 _ZN24KonqFileItemCapabilitiesC1Ev@ABI_5_1 4:4.6.1
 _ZN24KonqFileItemCapabilitiesC2ERK13KFileItemList@ABI_5_1 4:4.6.1
 _ZN24KonqFileItemCapabilitiesC2ERKS_@ABI_5_1 4:4.6.1
 _ZN24KonqFileItemCapabilitiesC2Ev@ABI_5_1 4:4.6.1
 _ZN24KonqFileItemCapabilitiesD0Ev@ABI_5_1 4:4.6.1
 _ZN24KonqFileItemCapabilitiesD1Ev@ABI_5_1 4:4.6.1
 _ZN24KonqFileItemCapabilitiesD2Ev@ABI_5_1 4:4.6.1
 _ZN24KonqFileItemCapabilitiesaSERKS_@ABI_5_1 4:4.6.1
 _ZN24KonqPopupMenuInformation15setParentWidgetEP7QWidget@ABI_5_1 4:4.6.1
 _ZN24KonqPopupMenuInformation21setItemListPropertiesERK23KFileItemListProperties@ABI_5_1 4:4.6.1
 _ZN24KonqPopupMenuInformation8setItemsERK13KFileItemList@ABI_5_1 4:4.6.1
 _ZN24KonqPopupMenuInformationC1ERKS_@ABI_5_1 4:4.6.1
 _ZN24KonqPopupMenuInformationC1Ev@ABI_5_1 4:4.6.1
 _ZN24KonqPopupMenuInformationC2ERKS_@ABI_5_1 4:4.6.1
 _ZN24KonqPopupMenuInformationC2Ev@ABI_5_1 4:4.6.1
 _ZN24KonqPopupMenuInformationD1Ev@ABI_5_1 4:4.6.1
 _ZN24KonqPopupMenuInformationD2Ev@ABI_5_1 4:4.6.1
 _ZN24KonqPopupMenuInformationaSERKS_@ABI_5_1 4:4.6.1
 _ZN25KonqNameAndUrlInputDialog11qt_metacallEN11QMetaObject4CallEiPPv@ABI_5_1 4:4.6.1
 _ZN25KonqNameAndUrlInputDialog11qt_metacastEPKc@ABI_5_1 4:4.6.1
 _ZN25KonqNameAndUrlInputDialog15setSuggestedUrlERK4KUrl@ABI_5_1 4:4.6.1
 _ZN25KonqNameAndUrlInputDialog16setSuggestedNameERK7QString@ABI_5_1 4:4.6.1
 _ZN25KonqNameAndUrlInputDialog16staticMetaObjectE@ABI_5_1 4:4.6.1
 _ZN25KonqNameAndUrlInputDialogC1ERK7QStringS2_RK4KUrlP7QWidget@ABI_5_1 4:4.6.1
 _ZN25KonqNameAndUrlInputDialogC2ERK7QStringS2_RK4KUrlP7QWidget@ABI_5_1 4:4.6.1
 _ZN25KonqNameAndUrlInputDialogD0Ev@ABI_5_1 4:4.6.1
 _ZN25KonqNameAndUrlInputDialogD1Ev@ABI_5_1 4:4.6.1
 _ZN25KonqNameAndUrlInputDialogD2Ev@ABI_5_1 4:4.6.1
 _ZN25KonqStatusBarMessageLabel10paintEventEP11QPaintEvent@ABI_5_1 4:4.6.1
 _ZN25KonqStatusBarMessageLabel10setMessageERK7QStringNS_4TypeE@ABI_5_1 4:4.6.1
 _ZN25KonqStatusBarMessageLabel11qt_metacallEN11QMetaObject4CallEiPPv@ABI_5_1 4:4.6.1
 _ZN25KonqStatusBarMessageLabel11qt_metacastEPKc@ABI_5_1 4:4.6.1
 _ZN25KonqStatusBarMessageLabel11resizeEventEP12QResizeEvent@ABI_5_1 4:4.6.1
 _ZN25KonqStatusBarMessageLabel14setDefaultTextERK7QString@ABI_5_1 4:4.6.1
 _ZN25KonqStatusBarMessageLabel16staticMetaObjectE@ABI_5_1 4:4.6.1
 _ZN25KonqStatusBarMessageLabel17assureVisibleTextEv@ABI_5_1 4:4.6.1
 _ZN25KonqStatusBarMessageLabel17closeErrorMessageEv@ABI_5_1 4:4.6.1
 _ZN25KonqStatusBarMessageLabel18showPendingMessageEv@ABI_5_1 4:4.6.1
 _ZN25KonqStatusBarMessageLabel20setMinimumTextHeightEi@ABI_5_1 4:4.6.1
 _ZN25KonqStatusBarMessageLabel25updateCloseButtonPositionEv@ABI_5_1 4:4.6.1
 _ZN25KonqStatusBarMessageLabel5resetEv@ABI_5_1 4:4.6.1
 _ZN25KonqStatusBarMessageLabel9timerDoneEv@ABI_5_1 4:4.6.1
 _ZN25KonqStatusBarMessageLabelC1EP7QWidget@ABI_5_1 4:4.6.1
 _ZN25KonqStatusBarMessageLabelC2EP7QWidget@ABI_5_1 4:4.6.1
 _ZN25KonqStatusBarMessageLabelD0Ev@ABI_5_1 4:4.6.1
 _ZN25KonqStatusBarMessageLabelD1Ev@ABI_5_1 4:4.6.1
 _ZN25KonqStatusBarMessageLabelD2Ev@ABI_5_1 4:4.6.1
 (arch=kfreebsd-amd64 kfreebsd-i386)_ZN4KUrl4ListD1Ev@ABI_5_1 4:4.7.2
 (arch=kfreebsd-amd64 kfreebsd-i386)_ZN4KUrl4ListD2Ev@ABI_5_1 4:4.7.2
 _ZN8KNewMenu11qt_metacallEN11QMetaObject4CallEiPPv@ABI_5_1 4:4.6.1
 _ZN8KNewMenu11qt_metacastEPKc@ABI_5_1 4:4.6.1
 _ZN8KNewMenu16staticMetaObjectE@ABI_5_1 4:4.6.1
 _ZN8KNewMenuC1EP17KActionCollectionP7QWidgetRK7QString@ABI_5_1 4:4.6.1
 _ZN8KNewMenuC2EP17KActionCollectionP7QWidgetRK7QString@ABI_5_1 4:4.6.1
 _ZN8KNewMenuD0Ev@ABI_5_1 4:4.6.5
 _ZN8KNewMenuD1Ev@ABI_5_1 4:4.6.5
 _ZN8KNewMenuD2Ev@ABI_5_1 4:4.6.5
 _ZNK13KonqPopupMenu10metaObjectEv@ABI_5_1 4:4.6.1
 _ZNK13KonqPopupMenu15fileItemActionsEv@ABI_5_1 4:4.8.2
 _ZNK14KonqOperations10metaObjectEv@ABI_5_1 4:4.6.1
 _ZNK14KonqOperations11droppedUrlsEv@ABI_5_1 4:4.6.1
 _ZNK14KonqOperations12dropPositionEv@ABI_5_1 4:4.6.1
 _ZNK14KonqOperations12parentWidgetEv@ABI_5_1 4:4.6.1
 _ZNK15KonqHistoryList14constFindEntryERK4KUrl@ABI_5_1 4:4.6.1
 _ZNK16KonqHistoryEntry4saveER11QDataStreamNS_5FlagsE@ABI_5_1 4:4.6.1
 _ZNK16KonqHistoryEntryeqERKS_@ABI_5_1 4:4.6.1
 _ZNK19KonqHistoryProvider10metaObjectEv@ABI_5_1 4:4.6.1
 _ZNK19KonqHistoryProvider14constFindEntryERK4KUrl@ABI_5_1 4:4.6.1
 _ZNK19KonqHistoryProvider6maxAgeEv@ABI_5_1 4:4.6.1
 _ZNK19KonqHistoryProvider7entriesEv@ABI_5_1 4:4.6.1
 _ZNK19KonqHistoryProvider8maxCountEv@ABI_5_1 4:4.6.1
 _ZNK19KonqPopupMenuPlugin10metaObjectEv@ABI_5_1 4:4.6.1
 _ZNK21KVersionControlPlugin10metaObjectEv@ABI_5_1 4:4.6.1
 _ZNK22KVersionControlPlugin210metaObjectEv@ABI_5_1 4:4.8.1
 _ZNK22KonqDndPopupMenuPlugin10metaObjectEv@ABI_5_1 4:4.6.1
 _ZNK24KonqFileItemCapabilities14supportsMovingEv@ABI_5_1 4:4.6.1
 _ZNK24KonqFileItemCapabilities15supportsReadingEv@ABI_5_1 4:4.6.1
 _ZNK24KonqFileItemCapabilities15supportsWritingEv@ABI_5_1 4:4.6.1
 _ZNK24KonqFileItemCapabilities16supportsDeletingEv@ABI_5_1 4:4.6.1
 _ZNK24KonqFileItemCapabilities7isLocalEv@ABI_5_1 4:4.6.1
 _ZNK24KonqPopupMenuInformation11isDirectoryEv@ABI_5_1 4:4.6.1
 _ZNK24KonqPopupMenuInformation12capabilitiesEv@ABI_5_1 4:4.6.1
 _ZNK24KonqPopupMenuInformation12parentWidgetEv@ABI_5_1 4:4.6.1
 _ZNK24KonqPopupMenuInformation18itemListPropertiesEv@ABI_5_1 4:4.6.1
 _ZNK24KonqPopupMenuInformation5itemsEv@ABI_5_1 4:4.6.1
 _ZNK24KonqPopupMenuInformation7urlListEv@ABI_5_1 4:4.6.1
 _ZNK24KonqPopupMenuInformation8mimeTypeEv@ABI_5_1 4:4.6.1
 _ZNK24KonqPopupMenuInformation9mimeGroupEv@ABI_5_1 4:4.6.1
 _ZNK25KonqNameAndUrlInputDialog10metaObjectEv@ABI_5_1 4:4.6.1
 _ZNK25KonqNameAndUrlInputDialog3urlEv@ABI_5_1 4:4.6.1
 _ZNK25KonqNameAndUrlInputDialog4nameEv@ABI_5_1 4:4.6.1
 _ZNK25KonqStatusBarMessageLabel10metaObjectEv@ABI_5_1 4:4.6.1
 _ZNK25KonqStatusBarMessageLabel11defaultTextEv@ABI_5_1 4:4.6.1
 _ZNK25KonqStatusBarMessageLabel15minimumSizeHintEv@ABI_5_1 4:4.6.1
 _ZNK25KonqStatusBarMessageLabel17minimumTextHeightEv@ABI_5_1 4:4.6.1
 _ZNK25KonqStatusBarMessageLabel18availableTextWidthEv@ABI_5_1 4:4.6.1
 _ZNK25KonqStatusBarMessageLabel4textEv@ABI_5_1 4:4.6.1
 _ZNK25KonqStatusBarMessageLabel4typeEv@ABI_5_1 4:4.6.1
 _ZNK25KonqStatusBarMessageLabel8sizeHintEv@ABI_5_1 4:4.6.1
 _ZNK8KNewMenu10metaObjectEv@ABI_5_1 4:4.6.1
 _ZTI13KonqPopupMenu@ABI_5_1 4:4.6.1
 _ZTI14KonqOperations@ABI_5_1 4:4.6.1
 _ZTI19KonqHistoryProvider@ABI_5_1 4:4.6.1
 _ZTI19KonqPopupMenuPlugin@ABI_5_1 4:4.6.1
 _ZTI21KVersionControlPlugin@ABI_5_1 4:4.6.1
 _ZTI22KVersionControlPlugin2@ABI_5_1 4:4.8.1
 _ZTI22KonqDndPopupMenuPlugin@ABI_5_1 4:4.6.1
 _ZTI24KonqFileItemCapabilities@ABI_5_1 4:4.6.1
 _ZTI25KonqNameAndUrlInputDialog@ABI_5_1 4:4.6.1
 _ZTI25KonqStatusBarMessageLabel@ABI_5_1 4:4.6.1
 _ZTI8KNewMenu@ABI_5_1 4:4.6.1
 _ZTS13KonqPopupMenu@ABI_5_1 4:4.6.1
 _ZTS14KonqOperations@ABI_5_1 4:4.6.1
 _ZTS19KonqHistoryProvider@ABI_5_1 4:4.6.1
 _ZTS19KonqPopupMenuPlugin@ABI_5_1 4:4.6.1
 _ZTS21KVersionControlPlugin@ABI_5_1 4:4.6.1
 _ZTS22KVersionControlPlugin2@ABI_5_1 4:4.8.1
 _ZTS22KonqDndPopupMenuPlugin@ABI_5_1 4:4.6.1
 _ZTS24KonqFileItemCapabilities@ABI_5_1 4:4.6.1
 _ZTS25KonqNameAndUrlInputDialog@ABI_5_1 4:4.6.1
 _ZTS25KonqStatusBarMessageLabel@ABI_5_1 4:4.6.1
 _ZTS8KNewMenu@ABI_5_1 4:4.6.1
 _ZTV13KonqPopupMenu@ABI_5_1 4:4.6.1
 _ZTV14KonqOperations@ABI_5_1 4:4.6.1
 _ZTV19KonqHistoryProvider@ABI_5_1 4:4.6.1
 _ZTV19KonqPopupMenuPlugin@ABI_5_1 4:4.6.1
 _ZTV21KVersionControlPlugin@ABI_5_1 4:4.6.1
 _ZTV22KVersionControlPlugin2@ABI_5_1 4:4.8.1
 _ZTV22KonqDndPopupMenuPlugin@ABI_5_1 4:4.6.1
 _ZTV24KonqFileItemCapabilities@ABI_5_1 4:4.6.1
 _ZTV25KonqNameAndUrlInputDialog@ABI_5_1 4:4.6.1
 _ZTV25KonqStatusBarMessageLabel@ABI_5_1 4:4.6.1
 _ZTV8KNewMenu@ABI_5_1 4:4.6.1
 dlrestrictions_data@ABI_5_1 4:4.6.3
 (c++)"non-virtual thunk to KonqNameAndUrlInputDialog::~KonqNameAndUrlInputDialog()@ABI_5_1" 4:4.6.1
 (c++)"non-virtual thunk to KonqPopupMenu::~KonqPopupMenu()@ABI_5_1" 4:4.6.1
 (c++)"non-virtual thunk to KonqStatusBarMessageLabel::~KonqStatusBarMessageLabel()@ABI_5_1" 4:4.6.1
