librime.so.0 librime0 #MINVER#
 RimeCleanupAllSessions@Base 0.9.8
 RimeCleanupStaleSessions@Base 0.9.8
 RimeClearComposition@Base 0.9.8
 RimeCommitComposition@Base 0.9.8
 RimeConfigBeginMap@Base 0.9.8
 RimeConfigClose@Base 0.9.8
 RimeConfigEnd@Base 0.9.8
 RimeConfigGetBool@Base 0.9.8
 RimeConfigGetDouble@Base 0.9.8
 RimeConfigGetInt@Base 0.9.8
 RimeConfigGetString@Base 0.9.8
 RimeConfigNext@Base 0.9.8
 RimeConfigOpen@Base 0.9.8
 RimeConfigUpdateSignature@Base 0.9.8
 RimeCreateSession@Base 0.9.8
 RimeDeployConfigFile@Base 0.9.8
 RimeDeploySchema@Base 0.9.8
 RimeDeployWorkspace@Base 0.9.8
 RimeDeployerInitialize@Base 0.9.8
 RimeDestroySession@Base 0.9.8
 RimeFinalize@Base 0.9.8
 RimeFindSession@Base 0.9.8
 RimeFreeCommit@Base 0.9.8
 RimeFreeContext@Base 0.9.8
 RimeFreeSchemaList@Base 0.9.8
 RimeFreeStatus@Base 0.9.8
 RimeGetCommit@Base 0.9.8
 RimeGetContext@Base 0.9.8
 RimeGetCurrentSchema@Base 0.9.8
 RimeGetOption@Base 0.9.8
 RimeGetProperty@Base 0.9.8
 RimeGetSchemaList@Base 0.9.8
 RimeGetStatus@Base 0.9.8
 RimeInitialize@Base 0.9.8
 RimeIsMaintenancing@Base 0.9.8
 RimeJoinMaintenanceThread@Base 0.9.8
 RimePrebuildAllSchemas@Base 0.9.8
 RimeProcessKey@Base 0.9.8
 RimeSelectSchema@Base 0.9.8
 RimeSetNotificationHandler@Base 0.9.8
 RimeSetOption@Base 0.9.8
 RimeSetProperty@Base 0.9.8
 RimeSetupLogging@Base 0.9.8
 RimeSimulateKeySequence@Base 0.9.8
 RimeStartMaintenance@Base 0.9.8
 RimeStartMaintenanceOnWorkspaceChange@Base 0.9.8
 RimeSyncUserData@Base 0.9.8
 _Z14RimeGetKeyNamei@Base 0.9.8
 _Z19RimeGetModifierNamei@Base 0.9.8
 _Z20RimeGetKeycodeByNamePKc@Base 0.9.8
 _Z21RimeGetModifierByNamePKc@Base 0.9.8
 _ZGVN5boost12interprocess13mapped_region16page_size_holderILi0EE8PageSizeE@Base 0.9.8
 _ZGVN5boost16exception_detail37exception_ptr_static_exception_objectINS0_10bad_alloc_EE1eE@Base 0.9.8
 _ZGVN5boost16exception_detail37exception_ptr_static_exception_objectINS0_14bad_exception_EE1eE@Base 0.9.8
 _ZGVZN5boost16exception_detail27get_static_exception_objectINS0_10bad_alloc_EEENS_13exception_ptrEvE2ep@Base 0.9.8
 _ZGVZN5boost16exception_detail27get_static_exception_objectINS0_14bad_exception_EEENS_13exception_ptrEvE2ep@Base 0.9.8
 _ZN12kyotocabinet10hashmurmurEPKvm@Base 0.9.8
 _ZN12kyotocabinet10readfixnumEPKvm@Base 0.9.8
 _ZN12kyotocabinet10vstrprintfEPSsPKcP13__va_list_tag@Base 0.9.8
 _ZN12kyotocabinet11AtomicInt6412secure_leastEl@Base 0.9.8
 _ZN12kyotocabinet11AtomicInt64D1Ev@Base 0.9.8
 _ZN12kyotocabinet11AtomicInt64D2Ev@Base 0.9.8
 _ZN12kyotocabinet11AtomicInt64aSERKS0_@Base 0.9.8
 _ZN12kyotocabinet11ScopedMutexD1Ev@Base 0.9.8
 _ZN12kyotocabinet11ScopedMutexD2Ev@Base 0.9.8
 _ZN12kyotocabinet11writefixnumEPvmm@Base 0.9.8
 _ZN12kyotocabinet11writevarnumEPvm@Base 0.9.8
 _ZN12kyotocabinet12ScopedRWLockD1Ev@Base 0.9.8
 _ZN12kyotocabinet12ScopedRWLockD2Ev@Base 0.9.8
 _ZN12kyotocabinet13LinkedHashMapIlPNS_7PlantDBINS_6HashDBELh49EE8LeafNodeENSt3tr14hashIlEESt8equal_toIlEE3getERKlNSB_8MoveModeE@Base 0.9.8
 _ZN12kyotocabinet13LinkedHashMapIlPNS_7PlantDBINS_6HashDBELh49EE8LeafNodeENSt3tr14hashIlEESt8equal_toIlEE3setERKlRKS5_NSB_8MoveModeE@Base 0.9.8
 _ZN12kyotocabinet13LinkedHashMapIlPNS_7PlantDBINS_6HashDBELh49EE8LeafNodeENSt3tr14hashIlEESt8equal_toIlEE6removeERKl@Base 0.9.8
 _ZN12kyotocabinet13LinkedHashMapIlPNS_7PlantDBINS_6HashDBELh49EE8LeafNodeENSt3tr14hashIlEESt8equal_toIlEE7migrateERKlPSB_NSB_8MoveModeE@Base 0.9.8
 _ZN12kyotocabinet13LinkedHashMapIlPNS_7PlantDBINS_6HashDBELh49EE9InnerNodeENSt3tr14hashIlEESt8equal_toIlEE3getERKlNSB_8MoveModeE@Base 0.9.8
 _ZN12kyotocabinet13LinkedHashMapIlPNS_7PlantDBINS_6HashDBELh49EE9InnerNodeENSt3tr14hashIlEESt8equal_toIlEE3setERKlRKS5_NSB_8MoveModeE@Base 0.9.8
 _ZN12kyotocabinet13LinkedHashMapIlPNS_7PlantDBINS_6HashDBELh49EE9InnerNodeENSt3tr14hashIlEESt8equal_toIlEE6removeERKl@Base 0.9.8
 _ZN12kyotocabinet2DB6CursorD0Ev@Base 0.9.8
 _ZN12kyotocabinet2DB6CursorD1Ev@Base 0.9.8
 _ZN12kyotocabinet2DB6CursorD2Ev@Base 0.9.8
 _ZN12kyotocabinet2DB7Visitor10visit_fullEPKcmS3_mPm@Base 0.9.8
 _ZN12kyotocabinet2DB7Visitor11visit_afterEv@Base 0.9.8
 _ZN12kyotocabinet2DB7Visitor11visit_emptyEPKcmPm@Base 0.9.8
 _ZN12kyotocabinet2DB7Visitor12visit_beforeEv@Base 0.9.8
 _ZN12kyotocabinet2DB7VisitorD0Ev@Base 0.9.8
 _ZN12kyotocabinet2DB7VisitorD1Ev@Base 0.9.8
 _ZN12kyotocabinet2DB7VisitorD2Ev@Base 0.9.8
 _ZN12kyotocabinet2DBD0Ev@Base 0.9.8
 _ZN12kyotocabinet2DBD1Ev@Base 0.9.8
 _ZN12kyotocabinet2DBD2Ev@Base 0.9.8
 _ZN12kyotocabinet3TSDINS_7BasicDB5ErrorEE12delete_valueEPv@Base 0.9.8
 _ZN12kyotocabinet3TSDINS_7BasicDB5ErrorEED1Ev@Base 0.9.8
 _ZN12kyotocabinet3TSDINS_7BasicDB5ErrorEED2Ev@Base 0.9.8
 _ZN12kyotocabinet6HashDB10get_bucketEl@Base 0.9.8
 _ZN12kyotocabinet6HashDB10set_bucketEll@Base 0.9.8
 _ZN12kyotocabinet6HashDB11accept_bulkERKSt6vectorISsSaISsEEPNS_2DB7VisitorEb@Base 0.9.8
 _ZN12kyotocabinet6HashDB11accept_implEPKcmPNS_2DB7VisitorEljb@Base 0.9.8
 _ZN12kyotocabinet6HashDB11defrag_implEl@Base 0.9.8
 _ZN12kyotocabinet6HashDB11read_recordEPNS0_6RecordEPc@Base 0.9.8
 _ZN12kyotocabinet6HashDB11reorganizedEv@Base 0.9.8
 _ZN12kyotocabinet6HashDB11synchronizeEbPNS_7BasicDB13FileProcessorEPNS1_15ProgressCheckerE@Base 0.9.8
 _ZN12kyotocabinet6HashDB11tune_defragEl@Base 0.9.8
 _ZN12kyotocabinet6HashDB11tune_loggerEPNS_7BasicDB6LoggerEj@Base 0.9.8
 _ZN12kyotocabinet6HashDB12copy_recordsEPS0_@Base 0.9.8
 _ZN12kyotocabinet6HashDB12iterate_implEPNS_2DB7VisitorEPNS_7BasicDB15ProgressCheckerE@Base 0.9.8
 _ZN12kyotocabinet6HashDB12shift_recordEPNS0_6RecordEl@Base 0.9.8
 _ZN12kyotocabinet6HashDB12trim_cursorsEv@Base 0.9.8
 _ZN12kyotocabinet6HashDB12tune_bucketsEl@Base 0.9.8
 _ZN12kyotocabinet6HashDB12tune_optionsEa@Base 0.9.8
 _ZN12kyotocabinet6HashDB12write_recordEPNS0_6RecordEb@Base 0.9.8
 _ZN12kyotocabinet6HashDB13adjust_recordEPNS0_6RecordE@Base 0.9.8
 _ZN12kyotocabinet6HashDB13calc_checksumEv@Base 0.9.8
 _ZN12kyotocabinet6HashDB13report_binaryEPKciS2_NS_7BasicDB6Logger4KindES2_S2_m@Base 0.9.8
 _ZN12kyotocabinet6HashDB13report_valistEPKciS2_NS_7BasicDB6Logger4KindES2_P13__va_list_tag@Base 0.9.8
 _ZN12kyotocabinet6HashDB13scan_parallelEPNS_2DB7VisitorEmPNS_7BasicDB15ProgressCheckerE@Base 0.9.8
 _ZN12kyotocabinet6HashDB14dump_auto_metaEv@Base 0.9.8
 _ZN12kyotocabinet6HashDB14tune_alignmentEa@Base 0.9.8
 _ZN12kyotocabinet6HashDB15end_transactionEb@Base 0.9.8
 _ZN12kyotocabinet6HashDB15reorganize_fileERKSs@Base 0.9.8
 _ZN12kyotocabinet6HashDB16calc_record_sizeEmm@Base 0.9.8
 _ZN12kyotocabinet6HashDB16read_record_bodyEPNS0_6RecordE@Base 0.9.8
 _ZN12kyotocabinet6HashDB16synchronize_implEbPNS_7BasicDB13FileProcessorEPNS1_15ProgressCheckerE@Base 0.9.8
 _ZN12kyotocabinet6HashDB16synchronize_metaEv@Base 0.9.8
 _ZN12kyotocabinet6HashDB16trim_free_blocksEll@Base 0.9.8
 _ZN12kyotocabinet6HashDB16write_free_blockElmPc@Base 0.9.8
 _ZN12kyotocabinet6HashDB17abort_transactionEv@Base 0.9.8
 _ZN12kyotocabinet6HashDB17begin_transactionEb@Base 0.9.8
 _ZN12kyotocabinet6HashDB17insert_free_blockElm@Base 0.9.8
 _ZN12kyotocabinet6HashDB17tune_meta_triggerEPNS_7BasicDB11MetaTriggerE@Base 0.9.8
 _ZN12kyotocabinet6HashDB18commit_transactionEv@Base 0.9.8
 _ZN12kyotocabinet6HashDB18scan_parallel_implEPNS_2DB7VisitorEmPNS_7BasicDB15ProgressCheckerE@Base 0.9.8
 _ZN12kyotocabinet6HashDB21begin_transaction_tryEb@Base 0.9.8
 _ZN12kyotocabinet6HashDB22abort_auto_transactionEv@Base 0.9.8
 _ZN12kyotocabinet6HashDB22begin_auto_transactionEv@Base 0.9.8
 _ZN12kyotocabinet6HashDB22begin_transaction_implEv@Base 0.9.8
 _ZN12kyotocabinet6HashDB22dump_empty_free_blocksEv@Base 0.9.8
 _ZN12kyotocabinet6HashDB23commit_auto_transactionEv@Base 0.9.8
 _ZN12kyotocabinet6HashDB3logEPKciS2_NS_7BasicDB6Logger4KindES2_@Base 0.9.8
 _ZN12kyotocabinet6HashDB4openERKSsj@Base 0.9.8
 _ZN12kyotocabinet6HashDB4pathEv@Base 0.9.8
 _ZN12kyotocabinet6HashDB4sizeEv@Base 0.9.8
 _ZN12kyotocabinet6HashDB4typeEv@Base 0.9.8
 _ZN12kyotocabinet6HashDB5clearEv@Base 0.9.8
 _ZN12kyotocabinet6HashDB5closeEv@Base 0.9.8
 _ZN12kyotocabinet6HashDB5countEv@Base 0.9.8
 _ZN12kyotocabinet6HashDB6Cursor2dbEv@Base 0.9.8
 _ZN12kyotocabinet6HashDB6Cursor4jumpEPKcm@Base 0.9.8
 _ZN12kyotocabinet6HashDB6Cursor4jumpERKSs@Base 0.9.8
 _ZN12kyotocabinet6HashDB6Cursor4jumpEv@Base 0.9.8
 _ZN12kyotocabinet6HashDB6Cursor4stepEv@Base 0.9.8
 _ZN12kyotocabinet6HashDB6Cursor6acceptEPNS_2DB7VisitorEbb@Base 0.9.8
 _ZN12kyotocabinet6HashDB6Cursor9jump_backEPKcm@Base 0.9.8
 _ZN12kyotocabinet6HashDB6Cursor9jump_backERKSs@Base 0.9.8
 _ZN12kyotocabinet6HashDB6Cursor9jump_backEv@Base 0.9.8
 _ZN12kyotocabinet6HashDB6Cursor9step_backEv@Base 0.9.8
 _ZN12kyotocabinet6HashDB6Cursor9step_implEPNS0_6RecordEPcl@Base 0.9.8
 _ZN12kyotocabinet6HashDB6CursorC1EPS0_@Base 0.9.8
 _ZN12kyotocabinet6HashDB6CursorC2EPS0_@Base 0.9.8
 _ZN12kyotocabinet6HashDB6CursorD0Ev@Base 0.9.8
 _ZN12kyotocabinet6HashDB6CursorD1Ev@Base 0.9.8
 _ZN12kyotocabinet6HashDB6CursorD2Ev@Base 0.9.8
 _ZN12kyotocabinet6HashDB6acceptEPKcmPNS_2DB7VisitorEb@Base 0.9.8
 _ZN12kyotocabinet6HashDB6cursorEv@Base 0.9.8
 _ZN12kyotocabinet6HashDB6occupyEbPNS_7BasicDB13FileProcessorE@Base 0.9.8
 _ZN12kyotocabinet6HashDB6reportEPKciS2_NS_7BasicDB6Logger4KindES2_z@Base 0.9.8
 _ZN12kyotocabinet6HashDB6statusEPSt3mapISsSsSt4lessISsESaISt4pairIKSsSsEEE@Base 0.9.8
 _ZN12kyotocabinet6HashDB7iterateEPNS_2DB7VisitorEbPNS_7BasicDB15ProgressCheckerE@Base 0.9.8
 _ZN12kyotocabinet6HashDB8Repeater10visit_fullEPKcmS3_mPm@Base 0.9.8
 _ZN12kyotocabinet6HashDB8RepeaterD0Ev@Base 0.9.8
 _ZN12kyotocabinet6HashDB8RepeaterD1Ev@Base 0.9.8
 _ZN12kyotocabinet6HashDB8RepeaterD2Ev@Base 0.9.8
 _ZN12kyotocabinet6HashDB8set_flagEhb@Base 0.9.8
 _ZN12kyotocabinet6HashDB8tune_fbpEa@Base 0.9.8
 _ZN12kyotocabinet6HashDB8tune_mapEl@Base 0.9.8
 _ZN12kyotocabinet6HashDB9calc_metaEv@Base 0.9.8
 _ZN12kyotocabinet6HashDB9cut_chainEPNS0_6RecordEPcll@Base 0.9.8
 _ZN12kyotocabinet6HashDB9dump_metaEv@Base 0.9.8
 _ZN12kyotocabinet6HashDB9load_metaEv@Base 0.9.8
 _ZN12kyotocabinet6HashDB9recoveredEv@Base 0.9.8
 _ZN12kyotocabinet6HashDB9set_chainEll@Base 0.9.8
 _ZN12kyotocabinet6HashDB9set_errorEPKciS2_NS_7BasicDB5Error4CodeES2_@Base 0.9.8
 _ZN12kyotocabinet6HashDB9trim_fileERKSs@Base 0.9.8
 _ZN12kyotocabinet6HashDB9tune_typeEa@Base 0.9.8
 _ZN12kyotocabinet6HashDBC1Ev@Base 0.9.8
 _ZN12kyotocabinet6HashDBC2Ev@Base 0.9.8
 _ZN12kyotocabinet6HashDBD0Ev@Base 0.9.8
 _ZN12kyotocabinet6HashDBD1Ev@Base 0.9.8
 _ZN12kyotocabinet6HashDBD2Ev@Base 0.9.8
 _ZN12kyotocabinet7BasicDB13FileProcessorD0Ev@Base 0.9.8
 _ZN12kyotocabinet7BasicDB13FileProcessorD1Ev@Base 0.9.8
 _ZN12kyotocabinet7BasicDB13FileProcessorD2Ev@Base 0.9.8
 _ZN12kyotocabinet7BasicDB13dump_snapshotEPSoPNS0_15ProgressCheckerE@Base 0.9.8
 _ZN12kyotocabinet7BasicDB13dump_snapshotERKSsPNS0_15ProgressCheckerE@Base 0.9.8
 _ZN12kyotocabinet7BasicDB13load_snapshotEPSiPNS0_15ProgressCheckerE@Base 0.9.8
 _ZN12kyotocabinet7BasicDB13load_snapshotERKSsPNS0_15ProgressCheckerE@Base 0.9.8
 _ZN12kyotocabinet7BasicDB15ProgressCheckerD0Ev@Base 0.9.8
 _ZN12kyotocabinet7BasicDB15ProgressCheckerD1Ev@Base 0.9.8
 _ZN12kyotocabinet7BasicDB15ProgressCheckerD2Ev@Base 0.9.8
 _ZN12kyotocabinet7BasicDB16increment_doubleEPKcmdd@Base 0.9.8
 _ZN12kyotocabinet7BasicDB16increment_doubleERKSsdd@Base 0.9.8
 _ZN12kyotocabinet7BasicDB3addEPKcmS2_m@Base 0.9.8
 _ZN12kyotocabinet7BasicDB3addERKSsS2_@Base 0.9.8
 _ZN12kyotocabinet7BasicDB3casEPKcmS2_mS2_m@Base 0.9.8
 _ZN12kyotocabinet7BasicDB3casERKSsS2_S2_@Base 0.9.8
 _ZN12kyotocabinet7BasicDB3getEPKcmPcm@Base 0.9.8
 _ZN12kyotocabinet7BasicDB3getEPKcmPm@Base 0.9.8
 _ZN12kyotocabinet7BasicDB3getERKSsPSs@Base 0.9.8
 _ZN12kyotocabinet7BasicDB3setEPKcmS2_m@Base 0.9.8
 _ZN12kyotocabinet7BasicDB3setERKSsS2_@Base 0.9.8
 _ZN12kyotocabinet7BasicDB5Error8codenameENS1_4CodeE@Base 0.9.8
 _ZN12kyotocabinet7BasicDB5checkEPKcm@Base 0.9.8
 _ZN12kyotocabinet7BasicDB5checkERKSs@Base 0.9.8
 _ZN12kyotocabinet7BasicDB6Cursor13set_value_strERKSsb@Base 0.9.8
 _ZN12kyotocabinet7BasicDB6Cursor3getEPSsS2_b@Base 0.9.8
 _ZN12kyotocabinet7BasicDB6Cursor3getEPmPPKcS2_b@Base 0.9.8
 _ZN12kyotocabinet7BasicDB6Cursor6removeEv@Base 0.9.8
 _ZN12kyotocabinet7BasicDB6Cursor7get_keyEPSsb@Base 0.9.8
 _ZN12kyotocabinet7BasicDB6Cursor7get_keyEPmb@Base 0.9.8
 _ZN12kyotocabinet7BasicDB6Cursor9get_valueEPSsb@Base 0.9.8
 _ZN12kyotocabinet7BasicDB6Cursor9get_valueEPmb@Base 0.9.8
 _ZN12kyotocabinet7BasicDB6Cursor9set_valueEPKcmb@Base 0.9.8
 _ZN12kyotocabinet7BasicDB6CursorD0Ev@Base 0.9.8
 _ZN12kyotocabinet7BasicDB6CursorD1Ev@Base 0.9.8
 _ZN12kyotocabinet7BasicDB6CursorD2Ev@Base 0.9.8
 _ZN12kyotocabinet7BasicDB6appendEPKcmS2_m@Base 0.9.8
 _ZN12kyotocabinet7BasicDB6appendERKSsS2_@Base 0.9.8
 _ZN12kyotocabinet7BasicDB6removeEPKcm@Base 0.9.8
 _ZN12kyotocabinet7BasicDB6removeERKSs@Base 0.9.8
 _ZN12kyotocabinet7BasicDB7replaceEPKcmS2_m@Base 0.9.8
 _ZN12kyotocabinet7BasicDB7replaceERKSsS2_@Base 0.9.8
 _ZN12kyotocabinet7BasicDB9incrementEPKcmll@Base 0.9.8
 _ZN12kyotocabinet7BasicDB9incrementERKSsll@Base 0.9.8
 _ZN12kyotocabinet7BasicDBD0Ev@Base 0.9.8
 _ZN12kyotocabinet7BasicDBD1Ev@Base 0.9.8
 _ZN12kyotocabinet7BasicDBD2Ev@Base 0.9.8
 _ZN12kyotocabinet7PlantDBINS_6HashDBELh49EE11accept_bulkERKSt6vectorISsSaISsEEPNS_2DB7VisitorEb@Base 0.9.8
 _ZN12kyotocabinet7PlantDBINS_6HashDBELh49EE11accept_implEPNS2_8LeafNodeEPNS2_6RecordEPNS_2DB7VisitorE@Base 0.9.8
 _ZN12kyotocabinet7PlantDBINS_6HashDBELh49EE11search_treeEPNS2_4LinkEbPlPi@Base 0.9.8
 _ZN12kyotocabinet7PlantDBINS_6HashDBELh49EE11synchronizeEbPNS_7BasicDB13FileProcessorEPNS3_15ProgressCheckerE@Base 0.9.8
 _ZN12kyotocabinet7PlantDBINS_6HashDBELh49EE11tune_defragEl@Base 0.9.8
 _ZN12kyotocabinet7PlantDBINS_6HashDBELh49EE11tune_loggerEPNS_7BasicDB6LoggerEj@Base 0.9.8
 _ZN12kyotocabinet7PlantDBINS_6HashDBELh49EE12recalc_countEv@Base 0.9.8
 _ZN12kyotocabinet7PlantDBINS_6HashDBELh49EE13scan_parallelEPNS_2DB7VisitorEmPNS_7BasicDB15ProgressCheckerE@Base 0.9.8
 _ZN12kyotocabinet7PlantDBINS_6HashDBELh49EE13sub_link_treeEPNS2_9InnerNodeElPli@Base 0.9.8
 _ZN12kyotocabinet7PlantDBINS_6HashDBELh49EE14escape_cursorsEll@Base 0.9.8
 _ZN12kyotocabinet7PlantDBINS_6HashDBELh49EE14escape_cursorsEllPNS2_6RecordE@Base 0.9.8
 _ZN12kyotocabinet7PlantDBINS_6HashDBELh49EE14load_leaf_nodeElb@Base 0.9.8
 _ZN12kyotocabinet7PlantDBINS_6HashDBELh49EE14save_leaf_nodeEPNS2_8LeafNodeE@Base 0.9.8
 _ZN12kyotocabinet7PlantDBINS_6HashDBELh49EE15disable_cursorsEv@Base 0.9.8
 _ZN12kyotocabinet7PlantDBINS_6HashDBELh49EE15end_transactionEb@Base 0.9.8
 _ZN12kyotocabinet7PlantDBINS_6HashDBELh49EE15flush_leaf_nodeEPNS2_8LeafNodeEb@Base 0.9.8
 _ZN12kyotocabinet7PlantDBINS_6HashDBELh49EE15load_inner_nodeEl@Base 0.9.8
 _ZN12kyotocabinet7PlantDBINS_6HashDBELh49EE15reorganize_fileEj@Base 0.9.8
 _ZN12kyotocabinet7PlantDBINS_6HashDBELh49EE15reorganize_treeEPNS2_8LeafNodeEPli@Base 0.9.8
 _ZN12kyotocabinet7PlantDBINS_6HashDBELh49EE16clean_leaf_cacheEv@Base 0.9.8
 _ZN12kyotocabinet7PlantDBINS_6HashDBELh49EE16create_leaf_nodeEll@Base 0.9.8
 _ZN12kyotocabinet7PlantDBINS_6HashDBELh49EE16divide_leaf_nodeEPNS2_8LeafNodeE@Base 0.9.8
 _ZN12kyotocabinet7PlantDBINS_6HashDBELh49EE16flush_inner_nodeEPNS2_9InnerNodeEb@Base 0.9.8
 _ZN12kyotocabinet7PlantDBINS_6HashDBELh49EE16flush_leaf_cacheEb@Base 0.9.8
 _ZN12kyotocabinet7PlantDBINS_6HashDBELh49EE17abort_transactionEv@Base 0.9.8
 _ZN12kyotocabinet7PlantDBINS_6HashDBELh49EE17begin_transactionEb@Base 0.9.8
 _ZN12kyotocabinet7PlantDBINS_6HashDBELh49EE17clean_inner_cacheEv@Base 0.9.8
 _ZN12kyotocabinet7PlantDBINS_6HashDBELh49EE17create_inner_nodeEl@Base 0.9.8
 _ZN12kyotocabinet7PlantDBINS_6HashDBELh49EE17create_leaf_cacheEv@Base 0.9.8
 _ZN12kyotocabinet7PlantDBINS_6HashDBELh49EE17delete_leaf_cacheEv@Base 0.9.8
 _ZN12kyotocabinet7PlantDBINS_6HashDBELh49EE17flush_inner_cacheEb@Base 0.9.8
 _ZN12kyotocabinet7PlantDBINS_6HashDBELh49EE17tune_meta_triggerEPNS_7BasicDB11MetaTriggerE@Base 0.9.8
 _ZN12kyotocabinet7PlantDBINS_6HashDBELh49EE18commit_transactionEv@Base 0.9.8
 _ZN12kyotocabinet7PlantDBINS_6HashDBELh49EE18create_inner_cacheEv@Base 0.9.8
 _ZN12kyotocabinet7PlantDBINS_6HashDBELh49EE18delete_inner_cacheEv@Base 0.9.8
 _ZN12kyotocabinet7PlantDBINS_6HashDBELh49EE19add_link_inner_nodeEPNS2_9InnerNodeElPKcm@Base 0.9.8
 _ZN12kyotocabinet7PlantDBINS_6HashDBELh49EE20calc_leaf_cache_sizeEv@Base 0.9.8
 _ZN12kyotocabinet7PlantDBINS_6HashDBELh49EE21begin_transaction_tryEb@Base 0.9.8
 _ZN12kyotocabinet7PlantDBINS_6HashDBELh49EE21clean_leaf_cache_partEPNS2_8LeafSlotE@Base 0.9.8
 _ZN12kyotocabinet7PlantDBINS_6HashDBELh49EE22begin_transaction_implEb@Base 0.9.8
 _ZN12kyotocabinet7PlantDBINS_6HashDBELh49EE24fix_auto_synchronizationEv@Base 0.9.8
 _ZN12kyotocabinet7PlantDBINS_6HashDBELh49EE25fix_auto_transaction_treeEv@Base 0.9.8
 _ZN12kyotocabinet7PlantDBINS_6HashDBELh49EE3logEPKciS4_NS_7BasicDB6Logger4KindES4_@Base 0.9.8
 _ZN12kyotocabinet7PlantDBINS_6HashDBELh49EE4openERKSsj@Base 0.9.8
 _ZN12kyotocabinet7PlantDBINS_6HashDBELh49EE4pathEv@Base 0.9.8
 _ZN12kyotocabinet7PlantDBINS_6HashDBELh49EE4sizeEv@Base 0.9.8
 _ZN12kyotocabinet7PlantDBINS_6HashDBELh49EE5clearEv@Base 0.9.8
 _ZN12kyotocabinet7PlantDBINS_6HashDBELh49EE5closeEv@Base 0.9.8
 _ZN12kyotocabinet7PlantDBINS_6HashDBELh49EE5countEv@Base 0.9.8
 _ZN12kyotocabinet7PlantDBINS_6HashDBELh49EE6Cursor11accept_atomEPNS_2DB7VisitorEbPb@Base 0.9.8
 _ZN12kyotocabinet7PlantDBINS_6HashDBELh49EE6Cursor11accept_specEPNS_2DB7VisitorEbbPb@Base 0.9.8
 _ZN12kyotocabinet7PlantDBINS_6HashDBELh49EE6Cursor12set_positionEPKcml@Base 0.9.8
 _ZN12kyotocabinet7PlantDBINS_6HashDBELh49EE6Cursor12set_positionEPNS2_6RecordEl@Base 0.9.8
 _ZN12kyotocabinet7PlantDBINS_6HashDBELh49EE6Cursor12set_positionEl@Base 0.9.8
 _ZN12kyotocabinet7PlantDBINS_6HashDBELh49EE6Cursor14clear_positionEv@Base 0.9.8
 _ZN12kyotocabinet7PlantDBINS_6HashDBELh49EE6Cursor15adjust_positionEv@Base 0.9.8
 _ZN12kyotocabinet7PlantDBINS_6HashDBELh49EE6Cursor17set_position_backEl@Base 0.9.8
 _ZN12kyotocabinet7PlantDBINS_6HashDBELh49EE6Cursor18back_position_atomEv@Base 0.9.8
 _ZN12kyotocabinet7PlantDBINS_6HashDBELh49EE6Cursor18back_position_specEPb@Base 0.9.8
 _ZN12kyotocabinet7PlantDBINS_6HashDBELh49EE6Cursor2dbEv@Base 0.9.8
 _ZN12kyotocabinet7PlantDBINS_6HashDBELh49EE6Cursor4jumpEPKcm@Base 0.9.8
 _ZN12kyotocabinet7PlantDBINS_6HashDBELh49EE6Cursor4jumpERKSs@Base 0.9.8
 _ZN12kyotocabinet7PlantDBINS_6HashDBELh49EE6Cursor4jumpEv@Base 0.9.8
 _ZN12kyotocabinet7PlantDBINS_6HashDBELh49EE6Cursor4stepEv@Base 0.9.8
 _ZN12kyotocabinet7PlantDBINS_6HashDBELh49EE6Cursor6acceptEPNS_2DB7VisitorEbb@Base 0.9.8
 _ZN12kyotocabinet7PlantDBINS_6HashDBELh49EE6Cursor9jump_backEPKcm@Base 0.9.8
 _ZN12kyotocabinet7PlantDBINS_6HashDBELh49EE6Cursor9jump_backERKSs@Base 0.9.8
 _ZN12kyotocabinet7PlantDBINS_6HashDBELh49EE6Cursor9jump_backEv@Base 0.9.8
 _ZN12kyotocabinet7PlantDBINS_6HashDBELh49EE6Cursor9step_backEv@Base 0.9.8
 _ZN12kyotocabinet7PlantDBINS_6HashDBELh49EE6CursorC1EPS2_@Base 0.9.8
 _ZN12kyotocabinet7PlantDBINS_6HashDBELh49EE6CursorC2EPS2_@Base 0.9.8
 _ZN12kyotocabinet7PlantDBINS_6HashDBELh49EE6CursorD0Ev@Base 0.9.8
 _ZN12kyotocabinet7PlantDBINS_6HashDBELh49EE6CursorD1Ev@Base 0.9.8
 _ZN12kyotocabinet7PlantDBINS_6HashDBELh49EE6CursorD2Ev@Base 0.9.8
 _ZN12kyotocabinet7PlantDBINS_6HashDBELh49EE6acceptEPKcmPNS_2DB7VisitorEb@Base 0.9.8
 _ZN12kyotocabinet7PlantDBINS_6HashDBELh49EE6cursorEv@Base 0.9.8
 _ZN12kyotocabinet7PlantDBINS_6HashDBELh49EE6occupyEbPNS_7BasicDB13FileProcessorE@Base 0.9.8
 _ZN12kyotocabinet7PlantDBINS_6HashDBELh49EE6reportEPKciS4_NS_7BasicDB6Logger4KindES4_z@Base 0.9.8
 _ZN12kyotocabinet7PlantDBINS_6HashDBELh49EE6statusEPSt3mapISsSsSt4lessISsESaISt4pairIKSsSsEEE@Base 0.9.8
 _ZN12kyotocabinet7PlantDBINS_6HashDBELh49EE7iterateEPNS_2DB7VisitorEbPNS_7BasicDB15ProgressCheckerE@Base 0.9.8
 _ZN12kyotocabinet7PlantDBINS_6HashDBELh49EE8LeafNodeD1Ev@Base 0.9.8
 _ZN12kyotocabinet7PlantDBINS_6HashDBELh49EE8LeafNodeD2Ev@Base 0.9.8
 _ZN12kyotocabinet7PlantDBINS_6HashDBELh49EE8tune_mapEl@Base 0.9.8
 _ZN12kyotocabinet7PlantDBINS_6HashDBELh49EE9InnerNodeD1Ev@Base 0.9.8
 _ZN12kyotocabinet7PlantDBINS_6HashDBELh49EE9InnerNodeD2Ev@Base 0.9.8
 _ZN12kyotocabinet7PlantDBINS_6HashDBELh49EE9dump_metaEv@Base 0.9.8
 _ZN12kyotocabinet7PlantDBINS_6HashDBELh49EE9load_metaEv@Base 0.9.8
 _ZN12kyotocabinet7PlantDBINS_6HashDBELh49EE9set_errorEPKciS4_NS_7BasicDB5Error4CodeES4_@Base 0.9.8
 _ZN12kyotocabinet7PlantDBINS_6HashDBELh49EEC1Ev@Base 0.9.8
 _ZN12kyotocabinet7PlantDBINS_6HashDBELh49EEC2Ev@Base 0.9.8
 _ZN12kyotocabinet7PlantDBINS_6HashDBELh49EED0Ev@Base 0.9.8
 _ZN12kyotocabinet7PlantDBINS_6HashDBELh49EED1Ev@Base 0.9.8
 _ZN12kyotocabinet7PlantDBINS_6HashDBELh49EED2Ev@Base 0.9.8
 _ZN12kyotocabinet9strprintfEPKcz@Base 0.9.8
 _ZN12kyotocabinet9strprintfEPSsPKcz@Base 0.9.8
 _ZN22RimeConfigIteratorImplIN4rime10ConfigListEED1Ev@Base 0.9.8
 _ZN22RimeConfigIteratorImplIN4rime10ConfigListEED2Ev@Base 0.9.8
 _ZN22RimeConfigIteratorImplIN4rime9ConfigMapEEC1ERS1_RKSs@Base 0.9.8
 _ZN22RimeConfigIteratorImplIN4rime9ConfigMapEEC2ERS1_RKSs@Base 0.9.8
 _ZN22RimeConfigIteratorImplIN4rime9ConfigMapEED1Ev@Base 0.9.8
 _ZN22RimeConfigIteratorImplIN4rime9ConfigMapEED2Ev@Base 0.9.8
 _ZN4YAML13ConvertScalarISsEEbRKNS_4NodeERT_@Base 0.9.8
 _ZN4YAML13InvalidScalarC1ERKNS_4MarkE@Base 0.9.8
 _ZN4YAML13InvalidScalarC2ERKNS_4MarkE@Base 0.9.8
 _ZN4YAML13InvalidScalarD0Ev@Base 0.9.8
 _ZN4YAML13InvalidScalarD1Ev@Base 0.9.8
 _ZN4YAML13InvalidScalarD2Ev@Base 0.9.8
 _ZN4YAML14BadDereferenceD0Ev@Base 0.9.8
 _ZN4YAML14BadDereferenceD1Ev@Base 0.9.8
 _ZN4YAML14BadDereferenceD2Ev@Base 0.9.8
 _ZN4YAML23RepresentationExceptionD0Ev@Base 0.9.8
 _ZN4YAML23RepresentationExceptionD1Ev@Base 0.9.8
 _ZN4YAML23RepresentationExceptionD2Ev@Base 0.9.8
 _ZN4YAML7ConvertIdEEbRKSsRT_PNS_9enable_ifINS_10is_numericIS3_EEvE4typeE@Base 0.9.8
 _ZN4YAML9Exception10build_whatERKNS_4MarkERKSs@Base 0.9.8
 _ZN4YAML9ExceptionC1ERKNS_4MarkERKSs@Base 0.9.8
 _ZN4YAML9ExceptionC2ERKNS_4MarkERKSs@Base 0.9.8
 _ZN4YAML9ExceptionD0Ev@Base 0.9.8
 _ZN4YAML9ExceptionD1Ev@Base 0.9.8
 _ZN4YAML9ExceptionD2Ev@Base 0.9.8
 _ZN4rime10ConfigData10EmitScalarERKSsPN4YAML7EmitterE@Base 0.9.8
 _ZN4rime10ConfigData10SaveToFileERKSs@Base 0.9.8
 _ZN4rime10ConfigData12LoadFromFileERKSs@Base 0.9.8
 _ZN4rime10ConfigData15ConvertFromYamlERKN4YAML4NodeE@Base 0.9.8
 _ZN4rime10ConfigData8EmitYamlERKN5boost10shared_ptrINS_10ConfigItemEEEPN4YAML7EmitterE@Base 0.9.8
 _ZN4rime10ConfigData8TraverseERKSs@Base 0.9.8
 _ZN4rime10ConfigDataD1Ev@Base 0.9.8
 _ZN4rime10ConfigDataD2Ev@Base 0.9.8
 _ZN4rime10ConfigItemD0Ev@Base 0.9.8
 _ZN4rime10ConfigItemD1Ev@Base 0.9.8
 _ZN4rime10ConfigItemD2Ev@Base 0.9.8
 _ZN4rime10ConfigList3endEv@Base 0.9.8
 _ZN4rime10ConfigList5ClearEv@Base 0.9.8
 _ZN4rime10ConfigList5SetAtEmRKN5boost10shared_ptrINS_10ConfigItemEEE@Base 0.9.8
 _ZN4rime10ConfigList5beginEv@Base 0.9.8
 _ZN4rime10ConfigList6AppendERKN5boost10shared_ptrINS_10ConfigItemEEE@Base 0.9.8
 _ZN4rime10ConfigList6ResizeEm@Base 0.9.8
 _ZN4rime10ConfigListD0Ev@Base 0.9.8
 _ZN4rime10ConfigListD1Ev@Base 0.9.8
 _ZN4rime10ConfigListD2Ev@Base 0.9.8
 _ZN4rime10Customizer16UpdateConfigFileEv@Base 0.9.8
 _ZN4rime10CustomizerC1ERKN5boost10filesystem4pathES5_RKSs@Base 0.9.8
 _ZN4rime10CustomizerC2ERKN5boost10filesystem4pathES5_RKSs@Base 0.9.8
 _ZN4rime10CustomizerD1Ev@Base 0.9.8
 _ZN4rime10CustomizerD2Ev@Base 0.9.8
 _ZN4rime10Derivation5ParseERKSt6vectorISsSaISsEE@Base 0.9.8
 _ZN4rime10Derivation8deletionEv@Base 0.9.8
 _ZN4rime10DerivationD0Ev@Base 0.9.8
 _ZN4rime10DerivationD1Ev@Base 0.9.8
 _ZN4rime10DerivationD2Ev@Base 0.9.8
 _ZN4rime10Dictionary11LookupWordsEPNS_17DictEntryIteratorERKSsbm@Base 0.9.8
 _ZN4rime10Dictionary4LoadEv@Base 0.9.8
 _ZN4rime10Dictionary6DecodeERKNS_4CodeEPNS_10dictionary7RawCodeE@Base 0.9.8
 _ZN4rime10Dictionary6LookupERKNS_13SyllableGraphEmd@Base 0.9.8
 _ZN4rime10Dictionary6RemoveEv@Base 0.9.8
 _ZN4rime10DictionaryC1ERKSsRKN5boost10shared_ptrINS_5TableEEERKNS4_INS_5PrismEEE@Base 0.9.8
 _ZN4rime10DictionaryC2ERKSsRKN5boost10shared_ptrINS_5TableEEERKNS4_INS_5PrismEEE@Base 0.9.8
 _ZN4rime10DictionaryD0Ev@Base 0.9.8
 _ZN4rime10DictionaryD1Ev@Base 0.9.8
 _ZN4rime10DictionaryD2Ev@Base 0.9.8
 _ZN4rime10KeyBindingD1Ev@Base 0.9.8
 _ZN4rime10KeyBindingD2Ev@Base 0.9.8
 _ZN4rime10MappedFile10CopyStringERKSsPNS_6StringE@Base 0.9.8
 _ZN4rime10MappedFile11ShrinkToFitEv@Base 0.9.8
 _ZN4rime10MappedFile12CreateStringERKSs@Base 0.9.8
 _ZN4rime10MappedFile12OpenReadOnlyEv@Base 0.9.8
 _ZN4rime10MappedFile13OpenReadWriteEv@Base 0.9.8
 _ZN4rime10MappedFile5CloseEv@Base 0.9.8
 _ZN4rime10MappedFile5FlushEv@Base 0.9.8
 _ZN4rime10MappedFile6CreateEm@Base 0.9.8
 _ZN4rime10MappedFile6RemoveEv@Base 0.9.8
 _ZN4rime10MappedFile6ResizeEm@Base 0.9.8
 _ZN4rime10MappedFile8AllocateIcEEPT_m@Base 0.9.8
 _ZN4rime10MappedFileC1ERKSs@Base 0.9.8
 _ZN4rime10MappedFileC2ERKSs@Base 0.9.8
 _ZN4rime10MappedFileD0Ev@Base 0.9.8
 _ZN4rime10MappedFileD1Ev@Base 0.9.8
 _ZN4rime10MappedFileD2Ev@Base 0.9.8
 _ZN4rime10Projection4LoadEN5boost10shared_ptrINS_10ConfigListEEE@Base 0.9.8
 _ZN4rime10Projection5ApplyEPNS_6ScriptE@Base 0.9.8
 _ZN4rime10Projection5ApplyEPSs@Base 0.9.8
 _ZN4rime10Punctuator14AlternatePunctERKSsRKN5boost10shared_ptrINS_10ConfigItemEEE@Base 0.9.8
 _ZN4rime10Punctuator15AutoCommitPunctERKN5boost10shared_ptrINS_10ConfigItemEEE@Base 0.9.8
 _ZN4rime10Punctuator15ProcessKeyEventERKNS_8KeyEventE@Base 0.9.8
 _ZN4rime10Punctuator18ConfirmUniquePunctERKN5boost10shared_ptrINS_10ConfigItemEEE@Base 0.9.8
 _ZN4rime10Punctuator9PairPunctERKN5boost10shared_ptrINS_10ConfigItemEEE@Base 0.9.8
 _ZN4rime10PunctuatorC1EPNS_6EngineE@Base 0.9.8
 _ZN4rime10PunctuatorC2EPNS_6EngineE@Base 0.9.8
 _ZN4rime10PunctuatorD0Ev@Base 0.9.8
 _ZN4rime10PunctuatorD1Ev@Base 0.9.8
 _ZN4rime10PunctuatorD2Ev@Base 0.9.8
 _ZN4rime10Recognizer15ProcessKeyEventERKNS_8KeyEventE@Base 0.9.8
 _ZN4rime10RecognizerC1EPNS_6EngineE@Base 0.9.8
 _ZN4rime10RecognizerC2EPNS_6EngineE@Base 0.9.8
 _ZN4rime10RecognizerD0Ev@Base 0.9.8
 _ZN4rime10RecognizerD1Ev@Base 0.9.8
 _ZN4rime10RecognizerD2Ev@Base 0.9.8
 _ZN4rime10SchemaInfoC1ERKS0_@Base 0.9.8
 _ZN4rime10SchemaInfoC2ERKS0_@Base 0.9.8
 _ZN4rime10SchemaInfoD1Ev@Base 0.9.8
 _ZN4rime10SchemaInfoD2Ev@Base 0.9.8
 _ZN4rime10SchemaInfoaSERKS0_@Base 0.9.8
 _ZN4rime10Simplifier10InitializeEv@Base 0.9.8
 _ZN4rime10Simplifier7ConvertERKN5boost10shared_ptrINS_9CandidateEEEPSt6vectorIS4_SaIS4_EE@Base 0.9.8
 _ZN4rime10Simplifier7ProceedEPSt6vectorIN5boost10shared_ptrINS_9CandidateEEESaIS5_EES8_@Base 0.9.8
 _ZN4rime10SimplifierC1EPNS_6EngineE@Base 0.9.8
 _ZN4rime10SimplifierC2EPNS_6EngineE@Base 0.9.8
 _ZN4rime10SimplifierD0Ev@Base 0.9.8
 _ZN4rime10SimplifierD1Ev@Base 0.9.8
 _ZN4rime10SimplifierD2Ev@Base 0.9.8
 _ZN4rime10TranslatorD0Ev@Base 0.9.8
 _ZN4rime10TranslatorD1Ev@Base 0.9.8
 _ZN4rime10TranslatorD2Ev@Base 0.9.8
 _ZN4rime10Uniquifier7ProceedEPSt6vectorIN5boost10shared_ptrINS_9CandidateEEESaIS5_EES8_@Base 0.9.8
 _ZN4rime10UniquifierC1EPNS_6EngineE@Base 0.9.8
 _ZN4rime10UniquifierC2EPNS_6EngineE@Base 0.9.8
 _ZN4rime10UniquifierD0Ev@Base 0.9.8
 _ZN4rime10UniquifierD1Ev@Base 0.9.8
 _ZN4rime10UniquifierD2Ev@Base 0.9.8
 _ZN4rime10Vocabulary13LocateEntriesERKNS_4CodeE@Base 0.9.8
 _ZN4rime10Vocabulary14SortHomophonesEv@Base 0.9.8
 _ZN4rime10dictionary12RawDictEntryC1ERKS1_@Base 0.9.8
 _ZN4rime10dictionary12RawDictEntryC2ERKS1_@Base 0.9.8
 _ZN4rime10dictionary12RawDictEntryD1Ev@Base 0.9.8
 _ZN4rime10dictionary12RawDictEntryD2Ev@Base 0.9.8
 _ZN4rime10dictionary16match_extra_codeEPKNS_4ListIijEEmRKNS_13SyllableGraphEm@Base 0.9.8
 _ZN4rime10dictionary29compare_chunk_by_head_elementERKNS0_5ChunkES3_@Base 0.9.8
 _ZN4rime10dictionary5ChunkD1Ev@Base 0.9.8
 _ZN4rime10dictionary5ChunkD2Ev@Base 0.9.8
 _ZN4rime10dictionary7RawCode10FromStringERKSs@Base 0.9.8
 _ZN4rime11Calculation8additionEv@Base 0.9.8
 _ZN4rime11Calculation8deletionEv@Base 0.9.8
 _ZN4rime11CalculationD0Ev@Base 0.9.8
 _ZN4rime11CalculationD1Ev@Base 0.9.8
 _ZN4rime11CalculationD2Ev@Base 0.9.8
 _ZN4rime11CompositionC1Ev@Base 0.9.8
 _ZN4rime11CompositionC2Ev@Base 0.9.8
 _ZN4rime11CompositionD0Ev@Base 0.9.8
 _ZN4rime11CompositionD1Ev@Base 0.9.8
 _ZN4rime11CompositionD2Ev@Base 0.9.8
 _ZN4rime11ConfigValue6SetIntEi@Base 0.9.8
 _ZN4rime11ConfigValue7SetBoolEb@Base 0.9.8
 _ZN4rime11ConfigValue9SetDoubleEd@Base 0.9.8
 _ZN4rime11ConfigValue9SetStringEPKc@Base 0.9.8
 _ZN4rime11ConfigValue9SetStringERKSs@Base 0.9.8
 _ZN4rime11ConfigValueC1EPKc@Base 0.9.8
 _ZN4rime11ConfigValueC1ERKSs@Base 0.9.8
 _ZN4rime11ConfigValueC1Eb@Base 0.9.8
 _ZN4rime11ConfigValueC1Ed@Base 0.9.8
 _ZN4rime11ConfigValueC1Ei@Base 0.9.8
 _ZN4rime11ConfigValueC2EPKc@Base 0.9.8
 _ZN4rime11ConfigValueC2ERKSs@Base 0.9.8
 _ZN4rime11ConfigValueC2Eb@Base 0.9.8
 _ZN4rime11ConfigValueC2Ed@Base 0.9.8
 _ZN4rime11ConfigValueC2Ei@Base 0.9.8
 _ZN4rime11ConfigValueD0Ev@Base 0.9.8
 _ZN4rime11ConfigValueD1Ev@Base 0.9.8
 _ZN4rime11ConfigValueD2Ev@Base 0.9.8
 _ZN4rime11KeyBindings10LoadConfigEPNS_6SchemaE@Base 0.9.8
 _ZN4rime11KeyBindings12LoadBindingsERKN5boost10shared_ptrINS_10ConfigListEEE@Base 0.9.8
 _ZN4rime11KeySequence5ParseERKSs@Base 0.9.8
 _ZN4rime11KeySequenceC1ERKSs@Base 0.9.8
 _ZN4rime11KeySequenceC2ERKSs@Base 0.9.8
 _ZN4rime11KeySequenceD1Ev@Base 0.9.8
 _ZN4rime11KeySequenceD2Ev@Base 0.9.8
 _ZN4rime11PunctConfig10LoadConfigEPNS_6EngineEb@Base 0.9.8
 _ZN4rime11PunctConfig18GetPunctDefinitionESs@Base 0.9.8
 _ZN4rime11PunctConfigD1Ev@Base 0.9.8
 _ZN4rime11PunctConfigD2Ev@Base 0.9.8
 _ZN4rime11Syllabifier18BuildSyllableGraphERKSsRNS_5PrismEPNS_13SyllableGraphE@Base 0.9.8
 _ZN4rime11Syllabifier24CheckOverlappedSpellingsEPNS_13SyllableGraphEmm@Base 0.9.8
 _ZN4rime11Syllabifier9TransposeEPNS_13SyllableGraphE@Base 0.9.8
 _ZN4rime11Translation7CompareEN5boost10shared_ptrIS0_EERKSt6vectorINS2_INS_9CandidateEEESaIS6_EE@Base 0.9.8
 _ZN4rime11TranslationD0Ev@Base 0.9.8
 _ZN4rime11TranslationD1Ev@Base 0.9.8
 _ZN4rime11TranslationD2Ev@Base 0.9.8
 _ZN4rime12Abbreviation5ApplyEPNS_8SpellingE@Base 0.9.8
 _ZN4rime12Abbreviation5ParseERKSt6vectorISsSaISsEE@Base 0.9.8
 _ZN4rime12AbbreviationD0Ev@Base 0.9.8
 _ZN4rime12AbbreviationD1Ev@Base 0.9.8
 _ZN4rime12AbbreviationD2Ev@Base 0.9.8
 _ZN4rime12AbcSegmentor7ProceedEPNS_12SegmentationE@Base 0.9.8
 _ZN4rime12AbcSegmentorC1EPNS_6EngineE@Base 0.9.8
 _ZN4rime12AbcSegmentorC2EPNS_6EngineE@Base 0.9.8
 _ZN4rime12AbcSegmentorD0Ev@Base 0.9.8
 _ZN4rime12AbcSegmentorD1Ev@Base 0.9.8
 _ZN4rime12AbcSegmentorD2Ev@Base 0.9.8
 _ZN4rime12CleanUpTrash3RunEPNS_8DeployerE@Base 0.9.8
 _ZN4rime12CleanUpTrashD0Ev@Base 0.9.8
 _ZN4rime12CleanUpTrashD1Ev@Base 0.9.8
 _ZN4rime12CleanUpTrashD2Ev@Base 0.9.8
 _ZN4rime12CommitRecordD1Ev@Base 0.9.8
 _ZN4rime12CommitRecordD2Ev@Base 0.9.8
 _ZN4rime12DictCompiler10BuildPrismERKSsjj@Base 0.9.8
 _ZN4rime12DictCompiler10BuildTableERKSsj@Base 0.9.8
 _ZN4rime12DictCompiler22BuildReverseLookupDictEPNS_6TreeDbEj@Base 0.9.8
 _ZN4rime12DictCompiler7CompileERKSsS2_@Base 0.9.8
 _ZN4rime12DictCompilerC1EPNS_10DictionaryE@Base 0.9.8
 _ZN4rime12DictCompilerC2EPNS_10DictionaryE@Base 0.9.8
 _ZN4rime12DictCompilerD1Ev@Base 0.9.8
 _ZN4rime12DictCompilerD2Ev@Base 0.9.8
 _ZN4rime12DictSettings12LoadFromFileERKSs@Base 0.9.8
 _ZN4rime12DictSettingsC1Ev@Base 0.9.8
 _ZN4rime12DictSettingsC2Ev@Base 0.9.8
 _ZN4rime12DictSettingsD1Ev@Base 0.9.8
 _ZN4rime12DictSettingsD2Ev@Base 0.9.8
 _ZN4rime12SchemaUpdate3RunEPNS_8DeployerE@Base 0.9.8
 _ZN4rime12SchemaUpdateD0Ev@Base 0.9.8
 _ZN4rime12SchemaUpdateD1Ev@Base 0.9.8
 _ZN4rime12SchemaUpdateD2Ev@Base 0.9.8
 _ZN4rime12Segmentation10AddSegmentERKNS_7SegmentE@Base 0.9.8
 _ZN4rime12Segmentation4TrimEv@Base 0.9.8
 _ZN4rime12Segmentation5ResetERKSs@Base 0.9.8
 _ZN4rime12Segmentation5ResetEm@Base 0.9.8
 _ZN4rime12Segmentation7ForwardEv@Base 0.9.8
 _ZN4rime12SegmentationC1Ev@Base 0.9.8
 _ZN4rime12SegmentationC2Ev@Base 0.9.8
 _ZN4rime12SegmentationD0Ev@Base 0.9.8
 _ZN4rime12SegmentationD1Ev@Base 0.9.8
 _ZN4rime12SegmentationD2Ev@Base 0.9.8
 _ZN4rime12SetupLoggingEPKc@Base 0.9.8
 _ZN4rime12TableVisitor4WalkEid@Base 0.9.8
 _ZN4rime12TableVisitor5ResetEv@Base 0.9.8
 _ZN4rime12TableVisitor8BackdateEv@Base 0.9.8
 _ZN4rime12TableVisitorC1EPNS_5ArrayINS_5table13HeadIndexNodeEjEE@Base 0.9.8
 _ZN4rime12TableVisitorC2EPNS_5ArrayINS_5table13HeadIndexNodeEjEE@Base 0.9.8
 _ZN4rime12TableVisitorD1Ev@Base 0.9.8
 _ZN4rime12TableVisitorD2Ev@Base 0.9.8
 _ZN4rime12UniqueFilter4NextEv@Base 0.9.8
 _ZN4rime12UniqueFilter4PeekEv@Base 0.9.8
 _ZN4rime12UniqueFilterC1EN5boost10shared_ptrINS_11TranslationEEE@Base 0.9.8
 _ZN4rime12UniqueFilterC2EN5boost10shared_ptrINS_11TranslationEEE@Base 0.9.8
 _ZN4rime12UniqueFilterD0Ev@Base 0.9.8
 _ZN4rime12UniqueFilterD1Ev@Base 0.9.8
 _ZN4rime12UniqueFilterD2Ev@Base 0.9.8
 _ZN4rime12UserDictSync3RunEPNS_8DeployerE@Base 0.9.8
 _ZN4rime12UserDictSyncD0Ev@Base 0.9.8
 _ZN4rime12UserDictSyncD1Ev@Base 0.9.8
 _ZN4rime12UserDictSyncD2Ev@Base 0.9.8
 _ZN4rime13AsciiComposer10LoadConfigEPNS_6SchemaE@Base 0.9.8
 _ZN4rime13AsciiComposer15OnContextUpdateEPNS_7ContextE@Base 0.9.8
 _ZN4rime13AsciiComposer15ProcessCapsLockERKNS_8KeyEventE@Base 0.9.8
 _ZN4rime13AsciiComposer15ProcessKeyEventERKNS_8KeyEventE@Base 0.9.8
 _ZN4rime13AsciiComposer15SwitchAsciiModeEbNS_20AsciiModeSwitchStyleE@Base 0.9.8
 _ZN4rime13AsciiComposer22ToggleAsciiModeWithKeyEi@Base 0.9.8
 _ZN4rime13AsciiComposerC1EPNS_6EngineE@Base 0.9.8
 _ZN4rime13AsciiComposerC2EPNS_6EngineE@Base 0.9.8
 _ZN4rime13AsciiComposerD0Ev@Base 0.9.8
 _ZN4rime13AsciiComposerD1Ev@Base 0.9.8
 _ZN4rime13AsciiComposerD2Ev@Base 0.9.8
 _ZN4rime13CharsetFilter19LocateNextCandidateEv@Base 0.9.8
 _ZN4rime13CharsetFilter4NextEv@Base 0.9.8
 _ZN4rime13CharsetFilter4PeekEv@Base 0.9.8
 _ZN4rime13CharsetFilter6PassedERKSs@Base 0.9.8
 _ZN4rime13CharsetFilterC1EN5boost10shared_ptrINS_11TranslationEEE@Base 0.9.8
 _ZN4rime13CharsetFilterC2EN5boost10shared_ptrINS_11TranslationEEE@Base 0.9.8
 _ZN4rime13CharsetFilterD0Ev@Base 0.9.8
 _ZN4rime13CharsetFilterD1Ev@Base 0.9.8
 _ZN4rime13CharsetFilterD2Ev@Base 0.9.8
 _ZN4rime13ChordComposer10ClearChordEv@Base 0.9.8
 _ZN4rime13ChordComposer11FinishChordEv@Base 0.9.8
 _ZN4rime13ChordComposer11UpdateChordEv@Base 0.9.8
 _ZN4rime13ChordComposer14SerializeChordEv@Base 0.9.8
 _ZN4rime13ChordComposer15ProcessKeyEventERKNS_8KeyEventE@Base 0.9.8
 _ZN4rime13ChordComposer18DeleteLastSyllableEv@Base 0.9.8
 _ZN4rime13ChordComposerC1EPNS_6EngineE@Base 0.9.8
 _ZN4rime13ChordComposerC2EPNS_6EngineE@Base 0.9.8
 _ZN4rime13ChordComposerD0Ev@Base 0.9.8
 _ZN4rime13ChordComposerD1Ev@Base 0.9.8
 _ZN4rime13ChordComposerD2Ev@Base 0.9.8
 _ZN4rime13CommitHistory4PushERKNS_11CompositionERKSs@Base 0.9.8
 _ZN4rime13CommitHistory4PushERKNS_12CommitRecordE@Base 0.9.8
 _ZN4rime13CommitHistory4PushERKNS_8KeyEventE@Base 0.9.8
 _ZN4rime13ComponentBaseD0Ev@Base 0.9.8
 _ZN4rime13ComponentBaseD1Ev@Base 0.9.8
 _ZN4rime13ComponentBaseD2Ev@Base 0.9.8
 _ZN4rime13ConfigItemRef12set_modifiedEv@Base 0.9.8
 _ZN4rime13ConfigItemRef5AsMapEv@Base 0.9.8
 _ZN4rime13ConfigItemRef5ClearEv@Base 0.9.8
 _ZN4rime13ConfigItemRef6AppendERKN5boost10shared_ptrINS_10ConfigItemEEE@Base 0.9.8
 _ZN4rime13ConfigItemRef6AsListEv@Base 0.9.8
 _ZN4rime13DictEntryList4SortEv@Base 0.9.8
 _ZN4rime13DictEntryList5SortNEm@Base 0.9.8
 _ZN4rime13ExpressEditor11OnBackSpaceEPNS_7ContextE@Base 0.9.8
 _ZN4rime13ExpressEditor6OnCharEPNS_7ContextEi@Base 0.9.8
 _ZN4rime13ExpressEditor8OnReturnEPNS_7ContextE@Base 0.9.8
 _ZN4rime13ExpressEditorC1EPNS_6EngineE@Base 0.9.8
 _ZN4rime13ExpressEditorC2EPNS_6EngineE@Base 0.9.8
 _ZN4rime13ExpressEditorD0Ev@Base 0.9.8
 _ZN4rime13ExpressEditorD1Ev@Base 0.9.8
 _ZN4rime13ExpressEditorD2Ev@Base 0.9.8
 _ZN4rime13FluencyEditorC1EPNS_6EngineE@Base 0.9.8
 _ZN4rime13FluencyEditorC2EPNS_6EngineE@Base 0.9.8
 _ZN4rime13FluencyEditorD0Ev@Base 0.9.8
 _ZN4rime13FluencyEditorD1Ev@Base 0.9.8
 _ZN4rime13FluencyEditorD2Ev@Base 0.9.8
 _ZN4rime13SyllableGraphC1Ev@Base 0.9.8
 _ZN4rime13SyllableGraphC2Ev@Base 0.9.8
 _ZN4rime13SyllableGraphD1Ev@Base 0.9.8
 _ZN4rime13SyllableGraphD2Ev@Base 0.9.8
 _ZN4rime13TableAccessor4NextEv@Base 0.9.8
 _ZN4rime13TableAccessorC1ERKNS_4CodeEPKNS_4ListINS_5table5EntryEjEEd@Base 0.9.8
 _ZN4rime13TableAccessorC1ERKNS_4CodeEPKNS_5ArrayINS_5table13TailIndexNodeEjEEd@Base 0.9.8
 _ZN4rime13TableAccessorC1Ev@Base 0.9.8
 _ZN4rime13TableAccessorC2ERKNS_4CodeEPKNS_4ListINS_5table5EntryEjEEd@Base 0.9.8
 _ZN4rime13TableAccessorC2ERKNS_4CodeEPKNS_5ArrayINS_5table13TailIndexNodeEjEEd@Base 0.9.8
 _ZN4rime13TableAccessorC2Ev@Base 0.9.8
 _ZN4rime13TableAccessorD1Ev@Base 0.9.8
 _ZN4rime13TableAccessorD2Ev@Base 0.9.8
 _ZN4rime14AsciiSegmentor7ProceedEPNS_12SegmentationE@Base 0.9.8
 _ZN4rime14AsciiSegmentorC1EPNS_6EngineE@Base 0.9.8
 _ZN4rime14AsciiSegmentorC2EPNS_6EngineE@Base 0.9.8
 _ZN4rime14AsciiSegmentorD0Ev@Base 0.9.8
 _ZN4rime14AsciiSegmentorD1Ev@Base 0.9.8
 _ZN4rime14AsciiSegmentorD2Ev@Base 0.9.8
 _ZN4rime14ConcreteEngine10set_schemaEPNS_6SchemaE@Base 0.9.8
 _ZN4rime14ConcreteEngine14OnOptionUpdateEPNS_7ContextERKSs@Base 0.9.8
 _ZN4rime14ConcreteEngine15OnContextUpdateEPNS_7ContextE@Base 0.9.8
 _ZN4rime14ConcreteEngine15ProcessKeyEventERKNS_8KeyEventE@Base 0.9.8
 _ZN4rime14ConcreteEngine16FilterCandidatesEPSt6vectorIN5boost10shared_ptrINS_9CandidateEEESaIS5_EES8_@Base 0.9.8
 _ZN4rime14ConcreteEngine17InitializeOptionsEv@Base 0.9.8
 _ZN4rime14ConcreteEngine17TranslateSegmentsEPNS_11CompositionE@Base 0.9.8
 _ZN4rime14ConcreteEngine20InitializeComponentsEv@Base 0.9.8
 _ZN4rime14ConcreteEngine21CalculateSegmentationEPNS_11CompositionE@Base 0.9.8
 _ZN4rime14ConcreteEngine7ComposeEPNS_7ContextE@Base 0.9.8
 _ZN4rime14ConcreteEngine8OnCommitEPNS_7ContextE@Base 0.9.8
 _ZN4rime14ConcreteEngine8OnSelectEPNS_7ContextE@Base 0.9.8
 _ZN4rime14ConcreteEngineC1EPNS_6SchemaE@Base 0.9.8
 _ZN4rime14ConcreteEngineC2EPNS_6SchemaE@Base 0.9.8
 _ZN4rime14ConcreteEngineD0Ev@Base 0.9.8
 _ZN4rime14ConcreteEngineD1Ev@Base 0.9.8
 _ZN4rime14ConcreteEngineD2Ev@Base 0.9.8
 _ZN4rime14CustomSettings10IsFirstRunEv@Base 0.9.8
 _ZN4rime14CustomSettings4LoadEv@Base 0.9.8
 _ZN4rime14CustomSettings4SaveEv@Base 0.9.8
 _ZN4rime14CustomSettings6GetMapERKSs@Base 0.9.8
 _ZN4rime14CustomSettings7GetListERKSs@Base 0.9.8
 _ZN4rime14CustomSettings8GetValueERKSs@Base 0.9.8
 _ZN4rime14CustomSettings9CustomizeERKSsRKN5boost10shared_ptrINS_10ConfigItemEEE@Base 0.9.8
 _ZN4rime14CustomSettingsC1EPNS_8DeployerERKSsS4_@Base 0.9.8
 _ZN4rime14CustomSettingsC2EPNS_8DeployerERKSsS4_@Base 0.9.8
 _ZN4rime14CustomSettingsD0Ev@Base 0.9.8
 _ZN4rime14CustomSettingsD1Ev@Base 0.9.8
 _ZN4rime14CustomSettingsD2Ev@Base 0.9.8
 _ZN4rime14DeploymentTaskD0Ev@Base 0.9.8
 _ZN4rime14DeploymentTaskD1Ev@Base 0.9.8
 _ZN4rime14DeploymentTaskD2Ev@Base 0.9.8
 _ZN4rime14EchoTranslator5QueryERKSsRKNS_7SegmentEPSs@Base 0.9.8
 _ZN4rime14EchoTranslatorD0Ev@Base 0.9.8
 _ZN4rime14EchoTranslatorD1Ev@Base 0.9.8
 _ZN4rime14EchoTranslatorD2Ev@Base 0.9.8
 _ZN4rime14EntryCollector11CreateEntryERKSsS2_S2_@Base 0.9.8
 _ZN4rime14EntryCollector20LoadPresetVocabularyEPNS_12DictSettingsE@Base 0.9.8
 _ZN4rime14EntryCollector6EncodeERKSsS2_mPNS_10dictionary7RawCodeE@Base 0.9.8
 _ZN4rime14EntryCollector7CollectERKSs@Base 0.9.8
 _ZN4rime14EntryCollectorC1Ev@Base 0.9.8
 _ZN4rime14EntryCollectorC2Ev@Base 0.9.8
 _ZN4rime14EntryCollectorD1Ev@Base 0.9.8
 _ZN4rime14EntryCollectorD2Ev@Base 0.9.8
 _ZN4rime14MappedFileImplC1ERKSsNS0_8OpenModeE@Base 0.9.8
 _ZN4rime14MappedFileImplC2ERKSsNS0_8OpenModeE@Base 0.9.8
 _ZN4rime14MappedFileImplD1Ev@Base 0.9.8
 _ZN4rime14MappedFileImplD2Ev@Base 0.9.8
 _ZN4rime14PunctSegmentor7ProceedEPNS_12SegmentationE@Base 0.9.8
 _ZN4rime14PunctSegmentorC1EPNS_6EngineE@Base 0.9.8
 _ZN4rime14PunctSegmentorC2EPNS_6EngineE@Base 0.9.8
 _ZN4rime14PunctSegmentorD0Ev@Base 0.9.8
 _ZN4rime14PunctSegmentorD1Ev@Base 0.9.8
 _ZN4rime14PunctSegmentorD2Ev@Base 0.9.8
 _ZN4rime14R10nTranslator13FormatPreeditERKSs@Base 0.9.8
 _ZN4rime14R10nTranslator5QueryERKSsRKNS_7SegmentEPSs@Base 0.9.8
 _ZN4rime14R10nTranslator5SpellERKNS_4CodeE@Base 0.9.8
 _ZN4rime14R10nTranslator8MemorizeERKNS_9DictEntryERKSt6vectorIPS2_SaIS5_EE@Base 0.9.8
 _ZN4rime14R10nTranslatorC1EPNS_6EngineE@Base 0.9.8
 _ZN4rime14R10nTranslatorC2EPNS_6EngineE@Base 0.9.8
 _ZN4rime14R10nTranslatorD0Ev@Base 0.9.8
 _ZN4rime14R10nTranslatorD1Ev@Base 0.9.8
 _ZN4rime14R10nTranslatorD2Ev@Base 0.9.8
 _ZN4rime14SwitcherOption5ApplyEPNS_6EngineEPNS_6ConfigE@Base 0.9.8
 _ZN4rime14SwitcherOptionD0Ev@Base 0.9.8
 _ZN4rime14SwitcherOptionD1Ev@Base 0.9.8
 _ZN4rime14SwitcherOptionD2Ev@Base 0.9.8
 _ZN4rime14Transformation5ApplyEPNS_8SpellingE@Base 0.9.8
 _ZN4rime14Transformation5ParseERKSt6vectorISsSaISsEE@Base 0.9.8
 _ZN4rime14TransformationD0Ev@Base 0.9.8
 _ZN4rime14TransformationD1Ev@Base 0.9.8
 _ZN4rime14TransformationD2Ev@Base 0.9.8
 _ZN4rime14TreeDbAccessor13GetNextRecordEPSsS1_@Base 0.9.8
 _ZN4rime14TreeDbAccessor5ResetEv@Base 0.9.8
 _ZN4rime14TreeDbAccessor7ForwardERKSs@Base 0.9.8
 _ZN4rime14TreeDbAccessor8BackwardERKSs@Base 0.9.8
 _ZN4rime14TreeDbAccessor9exhaustedEv@Base 0.9.8
 _ZN4rime14TreeDbAccessorC1EPN12kyotocabinet2DB6CursorERKSs@Base 0.9.8
 _ZN4rime14TreeDbAccessorC2EPN12kyotocabinet2DB6CursorERKSs@Base 0.9.8
 _ZN4rime14TreeDbAccessorD1Ev@Base 0.9.8
 _ZN4rime14TreeDbAccessorD2Ev@Base 0.9.8
 _ZN4rime14UserDictionary10InitializeEv@Base 0.9.8
 _ZN4rime14UserDictionary11LookupWordsEPNS_21UserDictEntryIteratorERKSsbmPSs@Base 0.9.8
 _ZN4rime14UserDictionary11UpdateEntryERKNS_9DictEntryEi@Base 0.9.8
 _ZN4rime14UserDictionary12UnpackValuesERKSsPiPdPm@Base 0.9.8
 _ZN4rime14UserDictionary14FetchTickCountEv@Base 0.9.8
 _ZN4rime14UserDictionary14NewTransactionEv@Base 0.9.8
 _ZN4rime14UserDictionary15CreateDictEntryERKSsS2_mdPSs@Base 0.9.8
 _ZN4rime14UserDictionary15UpdateTickCountEm@Base 0.9.8
 _ZN4rime14UserDictionary21TranslateCodeToStringERKNS_4CodeEPSs@Base 0.9.8
 _ZN4rime14UserDictionary23RevertRecentTransactionEv@Base 0.9.8
 _ZN4rime14UserDictionary24CommitPendingTransactionEv@Base 0.9.8
 _ZN4rime14UserDictionary4LoadEv@Base 0.9.8
 _ZN4rime14UserDictionary6AttachERKN5boost10shared_ptrINS_5TableEEERKNS2_INS_5PrismEEE@Base 0.9.8
 _ZN4rime14UserDictionary6LookupERKNS_13SyllableGraphEmmd@Base 0.9.8
 _ZN4rime14UserDictionary9DfsLookupERKNS_13SyllableGraphEmRKSsPNS_8DfsStateE@Base 0.9.8
 _ZN4rime14UserDictionaryC1ERKN5boost10shared_ptrINS_6UserDbEEE@Base 0.9.8
 _ZN4rime14UserDictionaryC2ERKN5boost10shared_ptrINS_6UserDbEEE@Base 0.9.8
 _ZN4rime14UserDictionaryD0Ev@Base 0.9.8
 _ZN4rime14UserDictionaryD1Ev@Base 0.9.8
 _ZN4rime14UserDictionaryD2Ev@Base 0.9.8
 _ZN4rime14VocabularyPageD1Ev@Base 0.9.8
 _ZN4rime14VocabularyPageD2Ev@Base 0.9.8
 _ZN4rime15ConfigComponent17GetConfigFilePathERKSs@Base 0.9.8
 _ZN4rime15ConfigComponent6CreateERKSs@Base 0.9.8
 _ZN4rime15ConfigComponentD0Ev@Base 0.9.8
 _ZN4rime15ConfigComponentD1Ev@Base 0.9.8
 _ZN4rime15ConfigComponentD2Ev@Base 0.9.8
 _ZN4rime15EchoTranslation7CompareEN5boost10shared_ptrINS_11TranslationEEERKSt6vectorINS2_INS_9CandidateEEESaIS7_EE@Base 0.9.8
 _ZN4rime15EchoTranslationD0Ev@Base 0.9.8
 _ZN4rime15EchoTranslationD1Ev@Base 0.9.8
 _ZN4rime15EchoTranslationD2Ev@Base 0.9.8
 _ZN4rime15FifoTranslation4NextEv@Base 0.9.8
 _ZN4rime15FifoTranslation4PeekEv@Base 0.9.8
 _ZN4rime15FifoTranslationD0Ev@Base 0.9.8
 _ZN4rime15FifoTranslationD1Ev@Base 0.9.8
 _ZN4rime15FifoTranslationD2Ev@Base 0.9.8
 _ZN4rime15PunctTranslator20TranslatePairedPunctERKSsRKNS_7SegmentERKN5boost10shared_ptrINS_9ConfigMapEEE@Base 0.9.8
 _ZN4rime15PunctTranslator20TranslateUniquePunctERKSsRKNS_7SegmentERKN5boost10shared_ptrINS_11ConfigValueEEE@Base 0.9.8
 _ZN4rime15PunctTranslator24TranslateAutoCommitPunctERKSsRKNS_7SegmentERKN5boost10shared_ptrINS_9ConfigMapEEE@Base 0.9.8
 _ZN4rime15PunctTranslator25TranslateAlternatingPunctERKSsRKNS_7SegmentERKN5boost10shared_ptrINS_10ConfigListEEE@Base 0.9.8
 _ZN4rime15PunctTranslator5QueryERKSsRKNS_7SegmentEPSs@Base 0.9.8
 _ZN4rime15PunctTranslatorC1EPNS_6EngineE@Base 0.9.8
 _ZN4rime15PunctTranslatorC2EPNS_6EngineE@Base 0.9.8
 _ZN4rime15PunctTranslatorD0Ev@Base 0.9.8
 _ZN4rime15PunctTranslatorD1Ev@Base 0.9.8
 _ZN4rime15PunctTranslatorD2Ev@Base 0.9.8
 _ZN4rime15R10nTranslation10CheckEmptyEv@Base 0.9.8
 _ZN4rime15R10nTranslation12MakeSentenceEPNS_10DictionaryEPNS_14UserDictionaryE@Base 0.9.8
 _ZN4rime15R10nTranslation4NextEv@Base 0.9.8
 _ZN4rime15R10nTranslation4PeekEv@Base 0.9.8
 _ZN4rime15R10nTranslation8EvaluateEPNS_10DictionaryEPNS_14UserDictionaryE@Base 0.9.8
 _ZN4rime15R10nTranslationD0Ev@Base 0.9.8
 _ZN4rime15R10nTranslationD1Ev@Base 0.9.8
 _ZN4rime15R10nTranslationD2Ev@Base 0.9.8
 _ZN4rime15ShadowCandidateC1ERKN5boost10shared_ptrINS_9CandidateEEERKSsS8_S8_@Base 0.9.8
 _ZN4rime15ShadowCandidateC2ERKN5boost10shared_ptrINS_9CandidateEEERKSsS8_S8_@Base 0.9.8
 _ZN4rime15ShadowCandidateD0Ev@Base 0.9.8
 _ZN4rime15ShadowCandidateD1Ev@Base 0.9.8
 _ZN4rime15ShadowCandidateD2Ev@Base 0.9.8
 _ZN4rime15SimpleCandidateC1ESsmmRKSsS2_S2_@Base 0.9.8
 _ZN4rime15SimpleCandidateC2ESsmmRKSsS2_S2_@Base 0.9.8
 _ZN4rime15SimpleCandidateD0Ev@Base 0.9.8
 _ZN4rime15SimpleCandidateD1Ev@Base 0.9.8
 _ZN4rime15SimpleCandidateD2Ev@Base 0.9.8
 _ZN4rime15TableTranslator12MakeSentenceERKSsm@Base 0.9.8
 _ZN4rime15TableTranslator5QueryERKSsRKNS_7SegmentEPSs@Base 0.9.8
 _ZN4rime15TableTranslator8MemorizeERKNS_9DictEntryERKSt6vectorIPS2_SaIS5_EE@Base 0.9.8
 _ZN4rime15TableTranslatorC1EPNS_6EngineE@Base 0.9.8
 _ZN4rime15TableTranslatorC2EPNS_6EngineE@Base 0.9.8
 _ZN4rime15TableTranslatorD0Ev@Base 0.9.8
 _ZN4rime15TableTranslatorD1Ev@Base 0.9.8
 _ZN4rime15TableTranslatorD2Ev@Base 0.9.8
 _ZN4rime15Transliteration5ApplyEPNS_8SpellingE@Base 0.9.8
 _ZN4rime15Transliteration5ParseERKSt6vectorISsSaISsEE@Base 0.9.8
 _ZN4rime15TransliterationD0Ev@Base 0.9.8
 _ZN4rime15TransliterationD1Ev@Base 0.9.8
 _ZN4rime15TransliterationD2Ev@Base 0.9.8
 _ZN4rime15UserDictManager11SynchronizeERKSs@Base 0.9.8
 _ZN4rime15UserDictManager14SynchronizeAllEv@Base 0.9.8
 _ZN4rime15UserDictManager15GetUserDictListEPSt6vectorISsSaISsEE@Base 0.9.8
 _ZN4rime15UserDictManager15UpgradeUserDictERKSs@Base 0.9.8
 _ZN4rime15UserDictManager6BackupERKSs@Base 0.9.8
 _ZN4rime15UserDictManager6ExportERKSsS2_@Base 0.9.8
 _ZN4rime15UserDictManager6ImportERKSsS2_@Base 0.9.8
 _ZN4rime15UserDictManager7RestoreERKSs@Base 0.9.8
 _ZN4rime15UserDictManagerC1EPNS_8DeployerE@Base 0.9.8
 _ZN4rime15UserDictManagerC2EPNS_8DeployerE@Base 0.9.8
 _ZN4rime15UserDictManagerD1Ev@Base 0.9.8
 _ZN4rime15UserDictManagerD2Ev@Base 0.9.8
 _ZN4rime15WorkspaceUpdate13GetSchemaPathEPNS_8DeployerERKSsb@Base 0.9.8
 _ZN4rime15WorkspaceUpdate3RunEPNS_8DeployerE@Base 0.9.8
 _ZN4rime15WorkspaceUpdateD0Ev@Base 0.9.8
 _ZN4rime15WorkspaceUpdateD1Ev@Base 0.9.8
 _ZN4rime15WorkspaceUpdateD2Ev@Base 0.9.8
 _ZN4rime15get_first_entryINS_17DictEntryIteratorEEEN5boost10shared_ptrINS_9DictEntryEEERT_b@Base 0.9.8
 _ZN4rime15get_first_entryINS_21UserDictEntryIteratorEEEN5boost10shared_ptrINS_9DictEntryEEERT_b@Base 0.9.8
 _ZN4rime16CleanOldLogFiles3RunEPNS_8DeployerE@Base 0.9.8
 _ZN4rime16CleanOldLogFilesD0Ev@Base 0.9.8
 _ZN4rime16CleanOldLogFilesD1Ev@Base 0.9.8
 _ZN4rime16CleanOldLogFilesD2Ev@Base 0.9.8
 _ZN4rime16ConfigFileUpdate3RunEPNS_8DeployerE@Base 0.9.8
 _ZN4rime16ConfigFileUpdateC1ERKSsS2_@Base 0.9.8
 _ZN4rime16ConfigFileUpdateC2ERKSsS2_@Base 0.9.8
 _ZN4rime16ConfigFileUpdateD0Ev@Base 0.9.8
 _ZN4rime16ConfigFileUpdateD1Ev@Base 0.9.8
 _ZN4rime16ConfigFileUpdateD2Ev@Base 0.9.8
 _ZN4rime16PresetVocabulary12GetNextEntryEPSsS1_@Base 0.9.8
 _ZN4rime16PresetVocabulary17GetWeightForEntryERKSsPd@Base 0.9.8
 _ZN4rime16PresetVocabulary17IsQualifiedPhraseERKSsS2_@Base 0.9.8
 _ZN4rime16PresetVocabulary5ResetEv@Base 0.9.8
 _ZN4rime16PresetVocabulary6CreateEv@Base 0.9.8
 _ZN4rime16PresetVocabularyC1ERKN5boost10shared_ptrIN12kyotocabinet7PlantDBINS3_6HashDBELh49EEEEE@Base 0.9.8
 _ZN4rime16PresetVocabularyC2ERKN5boost10shared_ptrIN12kyotocabinet7PlantDBINS3_6HashDBELh49EEEEE@Base 0.9.8
 _ZN4rime16PresetVocabularyD1Ev@Base 0.9.8
 _ZN4rime16PresetVocabularyD2Ev@Base 0.9.8
 _ZN4rime16SpellingAccessor4NextEv@Base 0.9.8
 _ZN4rime16SpellingAccessorC1EPNS_5ArrayINS_4ListINS_5prism18SpellingDescriptorEjEEjEEi@Base 0.9.8
 _ZN4rime16SpellingAccessorC2EPNS_5ArrayINS_4ListINS_5prism18SpellingDescriptorEjEEjEEi@Base 0.9.8
 _ZN4rime16SwitcherSettings10SetHotkeysERKSs@Base 0.9.8
 _ZN4rime16SwitcherSettings20GetHotkeysFromConfigEv@Base 0.9.8
 _ZN4rime16SwitcherSettings28GetSelectedSchemasFromConfigEv@Base 0.9.8
 _ZN4rime16SwitcherSettings32GetAvailableSchemasFromDirectoryERKN5boost10filesystem4pathE@Base 0.9.8
 _ZN4rime16SwitcherSettings4LoadEv@Base 0.9.8
 _ZN4rime16SwitcherSettings6SelectERKSt6vectorISsSaISsEE@Base 0.9.8
 _ZN4rime16SwitcherSettingsC1EPNS_8DeployerE@Base 0.9.8
 _ZN4rime16SwitcherSettingsC2EPNS_8DeployerE@Base 0.9.8
 _ZN4rime16SwitcherSettingsD0Ev@Base 0.9.8
 _ZN4rime16SwitcherSettingsD1Ev@Base 0.9.8
 _ZN4rime16SwitcherSettingsD2Ev@Base 0.9.8
 _ZN4rime16TableTranslation10CheckEmptyEv@Base 0.9.8
 _ZN4rime16TableTranslation13PreferedEntryEb@Base 0.9.8
 _ZN4rime16TableTranslation16PreferUserPhraseEv@Base 0.9.8
 _ZN4rime16TableTranslation20FetchMoreUserPhrasesEv@Base 0.9.8
 _ZN4rime16TableTranslation21FetchMoreTableEntriesEv@Base 0.9.8
 _ZN4rime16TableTranslation4NextEv@Base 0.9.8
 _ZN4rime16TableTranslation4PeekEv@Base 0.9.8
 _ZN4rime16TableTranslationC1EPNS_17TranslatorOptionsEPNS_8LanguageERKSsmmS6_@Base 0.9.8
 _ZN4rime16TableTranslationC1EPNS_17TranslatorOptionsEPNS_8LanguageERKSsmmS6_RKNS_17DictEntryIteratorERKNS_21UserDictEntryIteratorE@Base 0.9.8
 _ZN4rime16TableTranslationC2EPNS_17TranslatorOptionsEPNS_8LanguageERKSsmmS6_@Base 0.9.8
 _ZN4rime16TableTranslationC2EPNS_17TranslatorOptionsEPNS_8LanguageERKSsmmS6_RKNS_17DictEntryIteratorERKNS_21UserDictEntryIteratorE@Base 0.9.8
 _ZN4rime16TableTranslationD0Ev@Base 0.9.8
 _ZN4rime16TableTranslationD1Ev@Base 0.9.8
 _ZN4rime16TableTranslationD2Ev@Base 0.9.8
 _ZN4rime16dereference_lessIN5boost10shared_ptrINS_9DictEntryEEEEEbRKT_S7_@Base 0.9.8
 _ZN4rime17BackupConfigFiles3RunEPNS_8DeployerE@Base 0.9.8
 _ZN4rime17BackupConfigFilesD0Ev@Base 0.9.8
 _ZN4rime17BackupConfigFilesD1Ev@Base 0.9.8
 _ZN4rime17BackupConfigFilesD2Ev@Base 0.9.8
 _ZN4rime17ConfigDataManager13GetConfigDataERKSs@Base 0.9.8
 _ZN4rime17ConfigDataManager16ReloadConfigDataERKSs@Base 0.9.8
 _ZN4rime17ConfigDataManager9instance_E@Base 0.9.8
 _ZN4rime17DictEntryIterator4NextEv@Base 0.9.8
 _ZN4rime17DictEntryIterator4PeekEv@Base 0.9.8
 _ZN4rime17DictEntryIterator4SkipEm@Base 0.9.8
 _ZN4rime17DictEntryIterator4SortEv@Base 0.9.8
 _ZN4rime17DictEntryIterator8AddChunkERKNS_10dictionary5ChunkE@Base 0.9.8
 _ZN4rime17DictEntryIteratorC1ERKS0_@Base 0.9.8
 _ZN4rime17DictEntryIteratorC1Ev@Base 0.9.8
 _ZN4rime17DictEntryIteratorC2ERKS0_@Base 0.9.8
 _ZN4rime17DictEntryIteratorC2Ev@Base 0.9.8
 _ZN4rime17DictEntryIteratorD1Ev@Base 0.9.8
 _ZN4rime17DictEntryIteratorD2Ev@Base 0.9.8
 _ZN4rime17DictEntryIteratoraSERS0_@Base 0.9.8
 _ZN4rime17FallbackSegmentor7ProceedEPNS_12SegmentationE@Base 0.9.8
 _ZN4rime17FallbackSegmentorC1EPNS_6EngineE@Base 0.9.8
 _ZN4rime17FallbackSegmentorC2EPNS_6EngineE@Base 0.9.8
 _ZN4rime17FallbackSegmentorD0Ev@Base 0.9.8
 _ZN4rime17FallbackSegmentorD1Ev@Base 0.9.8
 _ZN4rime17FallbackSegmentorD2Ev@Base 0.9.8
 _ZN4rime17TranslatorOptionsC1EPNS_6EngineERKSs@Base 0.9.8
 _ZN4rime17TranslatorOptionsC2EPNS_6EngineERKSs@Base 0.9.8
 _ZN4rime17TranslatorOptionsD1Ev@Base 0.9.8
 _ZN4rime17TranslatorOptionsD2Ev@Base 0.9.8
 _ZN4rime17TrivialTranslator5QueryERKSsRKNS_7SegmentEPSs@Base 0.9.8
 _ZN4rime17TrivialTranslator9TranslateERKSs@Base 0.9.8
 _ZN4rime17TrivialTranslatorC1EPNS_6EngineE@Base 0.9.8
 _ZN4rime17TrivialTranslatorC2EPNS_6EngineE@Base 0.9.8
 _ZN4rime17TrivialTranslatorD0Ev@Base 0.9.8
 _ZN4rime17TrivialTranslatorD1Ev@Base 0.9.8
 _ZN4rime17TrivialTranslatorD2Ev@Base 0.9.8
 _ZN4rime17UniqueTranslation4NextEv@Base 0.9.8
 _ZN4rime17UniqueTranslation4PeekEv@Base 0.9.8
 _ZN4rime17UniqueTranslationD0Ev@Base 0.9.8
 _ZN4rime17UniqueTranslationD1Ev@Base 0.9.8
 _ZN4rime17UniqueTranslationD2Ev@Base 0.9.8
 _ZN4rime17UserDictUpgration3RunEPNS_8DeployerE@Base 0.9.8
 _ZN4rime17UserDictUpgrationD0Ev@Base 0.9.8
 _ZN4rime17UserDictUpgrationD1Ev@Base 0.9.8
 _ZN4rime17UserDictUpgrationD2Ev@Base 0.9.8
 _ZN4rime18DictEntryCollectorD1Ev@Base 0.9.8
 _ZN4rime18DictEntryCollectorD2Ev@Base 0.9.8
 _ZN4rime18InstallationUpdate3RunEPNS_8DeployerE@Base 0.9.8
 _ZN4rime18InstallationUpdateD0Ev@Base 0.9.8
 _ZN4rime18InstallationUpdateD1Ev@Base 0.9.8
 _ZN4rime18InstallationUpdateD2Ev@Base 0.9.8
 _ZN4rime18PrebuildAllSchemas3RunEPNS_8DeployerE@Base 0.9.8
 _ZN4rime18PrebuildAllSchemasD0Ev@Base 0.9.8
 _ZN4rime18PrebuildAllSchemasD1Ev@Base 0.9.8
 _ZN4rime18PrebuildAllSchemasD2Ev@Base 0.9.8
 _ZN4rime18RecognizerPatterns10LoadConfigEPNS_6ConfigE@Base 0.9.8
 _ZN4rime18RegisterComponentsEv@Base 0.9.8
 _ZN4rime19DictionaryComponent24CreateDictionaryWithNameERKSsS2_@Base 0.9.8
 _ZN4rime19DictionaryComponent26CreateDictionaryFromConfigEPNS_6ConfigERKSs@Base 0.9.8
 _ZN4rime19DictionaryComponent6CreateEPNS_6SchemaE@Base 0.9.8
 _ZN4rime19DictionaryComponentC1Ev@Base 0.9.8
 _ZN4rime19DictionaryComponentC2Ev@Base 0.9.8
 _ZN4rime19DictionaryComponentD0Ev@Base 0.9.8
 _ZN4rime19DictionaryComponentD1Ev@Base 0.9.8
 _ZN4rime19DictionaryComponentD2Ev@Base 0.9.8
 _ZN4rime19SentenceTranslation10CheckEmptyEv@Base 0.9.8
 _ZN4rime19SentenceTranslation15PrepareSentenceEv@Base 0.9.8
 _ZN4rime19SentenceTranslation4NextEv@Base 0.9.8
 _ZN4rime19SentenceTranslation4PeekEv@Base 0.9.8
 _ZN4rime19SentenceTranslationC1EPNS_15TableTranslatorEN5boost10shared_ptrINS_8SentenceEEEPNS_18DictEntryCollectorEPNS_22UserDictEntryCollectorERKSsm@Base 0.9.8
 _ZN4rime19SentenceTranslationC2EPNS_15TableTranslatorEN5boost10shared_ptrINS_8SentenceEEEPNS_18DictEntryCollectorEPNS_22UserDictEntryCollectorERKSsm@Base 0.9.8
 _ZN4rime19SentenceTranslationD0Ev@Base 0.9.8
 _ZN4rime19SentenceTranslationD1Ev@Base 0.9.8
 _ZN4rime19SentenceTranslationD2Ev@Base 0.9.8
 _ZN4rime19UniquifiedCandidateD0Ev@Base 0.9.8
 _ZN4rime19UniquifiedCandidateD1Ev@Base 0.9.8
 _ZN4rime19UniquifiedCandidateD2Ev@Base 0.9.8
 _ZN4rime20CompareVersionStringERKSsS1_@Base 0.9.8
 _ZN4rime20CreatePunctCandidateERKSsRKNS_7SegmentE@Base 0.9.8
 _ZN4rime20LazyTableTranslation20FetchMoreUserPhrasesEv@Base 0.9.8
 _ZN4rime20LazyTableTranslation21FetchMoreTableEntriesEv@Base 0.9.8
 _ZN4rime20LazyTableTranslationC1EPNS_15TableTranslatorERKSsmmS4_b@Base 0.9.8
 _ZN4rime20LazyTableTranslationC2EPNS_15TableTranslatorERKSsmmS4_b@Base 0.9.8
 _ZN4rime20LazyTableTranslationD0Ev@Base 0.9.8
 _ZN4rime20LazyTableTranslationD1Ev@Base 0.9.8
 _ZN4rime20LazyTableTranslationD2Ev@Base 0.9.8
 _ZN4rime21UserDictEntryIterator3AddERKN5boost10shared_ptrINS_9DictEntryEEE@Base 0.9.8
 _ZN4rime21UserDictEntryIterator4NextEv@Base 0.9.8
 _ZN4rime21UserDictEntryIterator4PeekEv@Base 0.9.8
 _ZN4rime21UserDictEntryIterator5SortNEm@Base 0.9.8
 _ZN4rime21UserDictEntryIterator7ReleaseEPNS_13DictEntryListE@Base 0.9.8
 _ZN4rime21UserDictEntryIteratorD1Ev@Base 0.9.8
 _ZN4rime21UserDictEntryIteratorD2Ev@Base 0.9.8
 _ZN4rime22UserDictEntryCollectorD1Ev@Base 0.9.8
 _ZN4rime22UserDictEntryCollectorD2Ev@Base 0.9.8
 _ZN4rime23ReverseLookupDictionary13ReverseLookupERKSsPSs@Base 0.9.8
 _ZN4rime23ReverseLookupDictionary4LoadEv@Base 0.9.8
 _ZN4rime23ReverseLookupDictionaryC1ERKN5boost10shared_ptrINS_6TreeDbEEE@Base 0.9.8
 _ZN4rime23ReverseLookupDictionaryC2ERKN5boost10shared_ptrINS_6TreeDbEEE@Base 0.9.8
 _ZN4rime23ReverseLookupTranslator10InitializeEv@Base 0.9.8
 _ZN4rime23ReverseLookupTranslator5QueryERKSsRKNS_7SegmentEPSs@Base 0.9.8
 _ZN4rime23ReverseLookupTranslatorC1EPNS_6EngineE@Base 0.9.8
 _ZN4rime23ReverseLookupTranslatorC2EPNS_6EngineE@Base 0.9.8
 _ZN4rime23ReverseLookupTranslatorD0Ev@Base 0.9.8
 _ZN4rime23ReverseLookupTranslatorD1Ev@Base 0.9.8
 _ZN4rime23ReverseLookupTranslatorD2Ev@Base 0.9.8
 _ZN4rime23UserDictionaryComponent6CreateEPNS_6SchemaE@Base 0.9.8
 _ZN4rime23UserDictionaryComponentC1Ev@Base 0.9.8
 _ZN4rime23UserDictionaryComponentC2Ev@Base 0.9.8
 _ZN4rime23UserDictionaryComponentD0Ev@Base 0.9.8
 _ZN4rime23UserDictionaryComponentD1Ev@Base 0.9.8
 _ZN4rime23UserDictionaryComponentD2Ev@Base 0.9.8
 _ZN4rime24ReverseLookupTranslation4PeekEv@Base 0.9.8
 _ZN4rime24ReverseLookupTranslation7CompareEN5boost10shared_ptrINS_11TranslationEEERKSt6vectorINS2_INS_9CandidateEEESaIS7_EE@Base 0.9.8
 _ZN4rime24ReverseLookupTranslationD0Ev@Base 0.9.8
 _ZN4rime24ReverseLookupTranslationD1Ev@Base 0.9.8
 _ZN4rime24ReverseLookupTranslationD2Ev@Base 0.9.8
 _ZN4rime30SymlinkingPrebuiltDictionaries3RunEPNS_8DeployerE@Base 0.9.8
 _ZN4rime30SymlinkingPrebuiltDictionariesD0Ev@Base 0.9.8
 _ZN4rime30SymlinkingPrebuiltDictionariesD1Ev@Base 0.9.8
 _ZN4rime30SymlinkingPrebuiltDictionariesD2Ev@Base 0.9.8
 _ZN4rime32ReverseLookupDictionaryComponent6CreateEPNS_6SchemaE@Base 0.9.8
 _ZN4rime32ReverseLookupDictionaryComponentC1Ev@Base 0.9.8
 _ZN4rime32ReverseLookupDictionaryComponentC2Ev@Base 0.9.8
 _ZN4rime32ReverseLookupDictionaryComponentD0Ev@Base 0.9.8
 _ZN4rime32ReverseLookupDictionaryComponentD1Ev@Base 0.9.8
 _ZN4rime32ReverseLookupDictionaryComponentD2Ev@Base 0.9.8
 _ZN4rime4Code11CreateIndexEPS0_@Base 0.9.8
 _ZN4rime4CodeD1Ev@Base 0.9.8
 _ZN4rime4CodeD2Ev@Base 0.9.8
 _ZN4rime4Menu10CreatePageEmm@Base 0.9.8
 _ZN4rime4Menu14AddTranslationEN5boost10shared_ptrINS_11TranslationEEE@Base 0.9.8
 _ZN4rime4Menu14GetCandidateAtEm@Base 0.9.8
 _ZN4rime4Menu7PrepareEm@Base 0.9.8
 _ZN4rime4MenuD1Ev@Base 0.9.8
 _ZN4rime4MenuD2Ev@Base 0.9.8
 _ZN4rime4Poet12MakeSentenceERKSt3mapIiNS_22UserDictEntryCollectorESt4lessIiESaISt4pairIKiS2_EEEm@Base 0.9.8
 _ZN4rime4algo9formula_pEdddd@Base 0.9.8
 _ZN4rime5ClassINS_10DictionaryEPNS_6SchemaEE9ComponentD0Ev@Base 0.9.8
 _ZN4rime5ClassINS_10DictionaryEPNS_6SchemaEE9ComponentD1Ev@Base 0.9.8
 _ZN4rime5ClassINS_10DictionaryEPNS_6SchemaEE9ComponentD2Ev@Base 0.9.8
 _ZN4rime5ClassINS_10TranslatorEPNS_6EngineEE9ComponentD0Ev@Base 0.9.8
 _ZN4rime5ClassINS_10TranslatorEPNS_6EngineEE9ComponentD1Ev@Base 0.9.8
 _ZN4rime5ClassINS_10TranslatorEPNS_6EngineEE9ComponentD2Ev@Base 0.9.8
 _ZN4rime5ClassINS_14UserDictionaryEPNS_6SchemaEE9ComponentD0Ev@Base 0.9.8
 _ZN4rime5ClassINS_14UserDictionaryEPNS_6SchemaEE9ComponentD1Ev@Base 0.9.8
 _ZN4rime5ClassINS_14UserDictionaryEPNS_6SchemaEE9ComponentD2Ev@Base 0.9.8
 _ZN4rime5ClassINS_23ReverseLookupDictionaryEPNS_6SchemaEE7RequireERKSs@Base 0.9.8
 _ZN4rime5ClassINS_23ReverseLookupDictionaryEPNS_6SchemaEE9ComponentD0Ev@Base 0.9.8
 _ZN4rime5ClassINS_23ReverseLookupDictionaryEPNS_6SchemaEE9ComponentD1Ev@Base 0.9.8
 _ZN4rime5ClassINS_23ReverseLookupDictionaryEPNS_6SchemaEE9ComponentD2Ev@Base 0.9.8
 _ZN4rime5ClassINS_6ConfigERKSsE7RequireES3_@Base 0.9.8
 _ZN4rime5ClassINS_6ConfigERKSsE9ComponentD0Ev@Base 0.9.8
 _ZN4rime5ClassINS_6ConfigERKSsE9ComponentD1Ev@Base 0.9.8
 _ZN4rime5ClassINS_6ConfigERKSsE9ComponentD2Ev@Base 0.9.8
 _ZN4rime5ClassINS_6FilterEPNS_6EngineEE9ComponentD0Ev@Base 0.9.8
 _ZN4rime5ClassINS_6FilterEPNS_6EngineEE9ComponentD1Ev@Base 0.9.8
 _ZN4rime5ClassINS_6FilterEPNS_6EngineEE9ComponentD2Ev@Base 0.9.8
 _ZN4rime5ClassINS_9ProcessorEPNS_6EngineEE9ComponentD0Ev@Base 0.9.8
 _ZN4rime5ClassINS_9ProcessorEPNS_6EngineEE9ComponentD1Ev@Base 0.9.8
 _ZN4rime5ClassINS_9ProcessorEPNS_6EngineEE9ComponentD2Ev@Base 0.9.8
 _ZN4rime5ClassINS_9SegmentorEPNS_6EngineEE9ComponentD0Ev@Base 0.9.8
 _ZN4rime5ClassINS_9SegmentorEPNS_6EngineEE9ComponentD1Ev@Base 0.9.8
 _ZN4rime5ClassINS_9SegmentorEPNS_6EngineEE9ComponentD2Ev@Base 0.9.8
 _ZN4rime5Prism12ExpandSearchERKSsPSt6vectorIN5Darts15DoubleArrayImplIvvivE16result_pair_typeESaIS7_EEm@Base 0.9.8
 _ZN4rime5Prism13QuerySpellingEi@Base 0.9.8
 _ZN4rime5Prism18CommonPrefixSearchERKSsPSt6vectorIN5Darts15DoubleArrayImplIvvivE16result_pair_typeESaIS7_EE@Base 0.9.8
 _ZN4rime5Prism4LoadEv@Base 0.9.8
 _ZN4rime5Prism4SaveEv@Base 0.9.8
 _ZN4rime5Prism5BuildERKSt3setISsSt4lessISsESaISsEEPKNS_6ScriptEjj@Base 0.9.8
 _ZN4rime5Prism6HasKeyERKSs@Base 0.9.8
 _ZN4rime5Prism8GetValueERKSsPi@Base 0.9.8
 _ZN4rime5PrismD0Ev@Base 0.9.8
 _ZN4rime5PrismD1Ev@Base 0.9.8
 _ZN4rime5PrismD2Ev@Base 0.9.8
 _ZN4rime5Table10BuildEntryERKNS_9DictEntryEPNS_5table5EntryE@Base 0.9.8
 _ZN4rime5Table10QueryWordsEi@Base 0.9.8
 _ZN4rime5Table12GetSyllabaryEPSt3setISsSt4lessISsESaISsEE@Base 0.9.8
 _ZN4rime5Table12QueryPhrasesERKNS_4CodeE@Base 0.9.8
 _ZN4rime5Table14BuildEntryListERKNS_13DictEntryListEPNS_4ListINS_5table5EntryEjEE@Base 0.9.8
 _ZN4rime5Table14BuildHeadIndexERKNS_10VocabularyEm@Base 0.9.8
 _ZN4rime5Table14BuildTailIndexERKNS_4CodeERKNS_10VocabularyE@Base 0.9.8
 _ZN4rime5Table15BuildTrunkIndexERKNS_4CodeERKNS_10VocabularyE@Base 0.9.8
 _ZN4rime5Table15GetSyllableByIdEi@Base 0.9.8
 _ZN4rime5Table4LoadEv@Base 0.9.8
 _ZN4rime5Table4SaveEv@Base 0.9.8
 _ZN4rime5Table5BuildERKSt3setISsSt4lessISsESaISsEERKNS_10VocabularyEmj@Base 0.9.8
 _ZN4rime5Table5QueryERKNS_13SyllableGraphEmPSt3mapIiSt6vectorINS_13TableAccessorESaIS6_EESt4lessIiESaISt4pairIKiS8_EEE@Base 0.9.8
 _ZN4rime5TableD0Ev@Base 0.9.8
 _ZN4rime5TableD1Ev@Base 0.9.8
 _ZN4rime5TableD2Ev@Base 0.9.8
 _ZN4rime6Config10SaveToFileERKSs@Base 0.9.8
 _ZN4rime6Config12LoadFromFileERKSs@Base 0.9.8
 _ZN4rime6Config5IsMapERKSs@Base 0.9.8
 _ZN4rime6Config6GetIntERKSsPi@Base 0.9.8
 _ZN4rime6Config6GetMapERKSs@Base 0.9.8
 _ZN4rime6Config6IsListERKSs@Base 0.9.8
 _ZN4rime6Config6IsNullERKSs@Base 0.9.8
 _ZN4rime6Config6SetIntERKSsi@Base 0.9.8
 _ZN4rime6Config7GetBoolERKSsPb@Base 0.9.8
 _ZN4rime6Config7GetListERKSs@Base 0.9.8
 _ZN4rime6Config7IsValueERKSs@Base 0.9.8
 _ZN4rime6Config7SetBoolERKSsb@Base 0.9.8
 _ZN4rime6Config7SetItemERKN5boost10shared_ptrINS_10ConfigItemEEE@Base 0.9.8
 _ZN4rime6Config7SetItemERKSsRKN5boost10shared_ptrINS_10ConfigItemEEE@Base 0.9.8
 _ZN4rime6Config8GetValueERKSs@Base 0.9.8
 _ZN4rime6Config9GetDoubleERKSsPd@Base 0.9.8
 _ZN4rime6Config9GetStringERKSsPSs@Base 0.9.8
 _ZN4rime6Config9SetDoubleERKSsd@Base 0.9.8
 _ZN4rime6Config9SetStringERKSsPKc@Base 0.9.8
 _ZN4rime6Config9SetStringERKSsS2_@Base 0.9.8
 _ZN4rime6ConfigC1ERKSs@Base 0.9.8
 _ZN4rime6ConfigC1Ev@Base 0.9.8
 _ZN4rime6ConfigC2ERKSs@Base 0.9.8
 _ZN4rime6ConfigC2Ev@Base 0.9.8
 _ZN4rime6ConfigD0Ev@Base 0.9.8
 _ZN4rime6ConfigD1Ev@Base 0.9.8
 _ZN4rime6ConfigD2Ev@Base 0.9.8
 _ZN4rime6Editor11OnBackSpaceEPNS_7ContextE@Base 0.9.8
 _ZN4rime6Editor15ProcessKeyEventERKNS_8KeyEventE@Base 0.9.8
 _ZN4rime6Editor6OnCharEPNS_7ContextEi@Base 0.9.8
 _ZN4rime6Editor7OnSpaceEPNS_7ContextE@Base 0.9.8
 _ZN4rime6Editor8OnReturnEPNS_7ContextE@Base 0.9.8
 _ZN4rime6EditorC1EPNS_6EngineEb@Base 0.9.8
 _ZN4rime6EditorC2EPNS_6EngineEb@Base 0.9.8
 _ZN4rime6EditorD0Ev@Base 0.9.8
 _ZN4rime6EditorD1Ev@Base 0.9.8
 _ZN4rime6EditorD2Ev@Base 0.9.8
 _ZN4rime6Engine10set_schemaEPNS_6SchemaE@Base 0.9.8
 _ZN4rime6Engine6CreateEPNS_6SchemaE@Base 0.9.8
 _ZN4rime6EngineC1EPNS_6SchemaE@Base 0.9.8
 _ZN4rime6EngineC2EPNS_6SchemaE@Base 0.9.8
 _ZN4rime6EngineD0Ev@Base 0.9.8
 _ZN4rime6EngineD1Ev@Base 0.9.8
 _ZN4rime6EngineD2Ev@Base 0.9.8
 _ZN4rime6FilterD0Ev@Base 0.9.8
 _ZN4rime6FilterD1Ev@Base 0.9.8
 _ZN4rime6FilterD2Ev@Base 0.9.8
 _ZN4rime6Memory13OnDeleteEntryEPNS_7ContextE@Base 0.9.8
 _ZN4rime6Memory14OnUnhandledKeyEPNS_7ContextERKNS_8KeyEventE@Base 0.9.8
 _ZN4rime6Memory8OnCommitEPNS_7ContextE@Base 0.9.8
 _ZN4rime6MemoryC1EPNS_6EngineE@Base 0.9.8
 _ZN4rime6MemoryC2EPNS_6EngineE@Base 0.9.8
 _ZN4rime6MemoryD0Ev@Base 0.9.8
 _ZN4rime6MemoryD1Ev@Base 0.9.8
 _ZN4rime6MemoryD2Ev@Base 0.9.8
 _ZN4rime6Opencc11ConvertTextERKSsPSsPb@Base 0.9.8
 _ZN4rime6OpenccC1ERKSs@Base 0.9.8
 _ZN4rime6OpenccC2ERKSs@Base 0.9.8
 _ZN4rime6OpenccD1Ev@Base 0.9.8
 _ZN4rime6OpenccD2Ev@Base 0.9.8
 _ZN4rime6Phrase11set_commentERKSs@Base 0.9.8
 _ZN4rime6Phrase11set_preeditERKSs@Base 0.9.8
 _ZN4rime6PhraseC1EPNS_8LanguageERKSsmmRKN5boost10shared_ptrINS_9DictEntryEEE@Base 0.9.8
 _ZN4rime6PhraseC2EPNS_8LanguageERKSsmmRKN5boost10shared_ptrINS_9DictEntryEEE@Base 0.9.8
 _ZN4rime6PhraseD0Ev@Base 0.9.8
 _ZN4rime6PhraseD1Ev@Base 0.9.8
 _ZN4rime6PhraseD2Ev@Base 0.9.8
 _ZN4rime6Schema22FetchUsefulConfigItemsEv@Base 0.9.8
 _ZN4rime6SchemaC1ERKSs@Base 0.9.8
 _ZN4rime6SchemaC1Ev@Base 0.9.8
 _ZN4rime6SchemaC2ERKSs@Base 0.9.8
 _ZN4rime6SchemaC2Ev@Base 0.9.8
 _ZN4rime6SchemaD1Ev@Base 0.9.8
 _ZN4rime6SchemaD2Ev@Base 0.9.8
 _ZN4rime6Script11AddSyllableERKSs@Base 0.9.8
 _ZN4rime6Script5MergeERKSsRKNS_18SpellingPropertiesERKSt6vectorINS_8SpellingESaIS7_EE@Base 0.9.8
 _ZN4rime6TreeDb10InitializeEv@Base 0.9.8
 _ZN4rime6TreeDb12OpenReadOnlyEv@Base 0.9.8
 _ZN4rime6TreeDb12OpenRepairedEv@Base 0.9.8
 _ZN4rime6TreeDb14CreateMetadataEv@Base 0.9.8
 _ZN4rime6TreeDb16AbortTransactionEv@Base 0.9.8
 _ZN4rime6TreeDb16BeginTransactionEv@Base 0.9.8
 _ZN4rime6TreeDb17CommitTransactionEv@Base 0.9.8
 _ZN4rime6TreeDb19RecoverFromSnapshotEv@Base 0.9.8
 _ZN4rime6TreeDb4OpenEv@Base 0.9.8
 _ZN4rime6TreeDb5CloseEv@Base 0.9.8
 _ZN4rime6TreeDb5EraseERKSs@Base 0.9.8
 _ZN4rime6TreeDb5FetchERKSsPSs@Base 0.9.8
 _ZN4rime6TreeDb5QueryERKSs@Base 0.9.8
 _ZN4rime6TreeDb6BackupEv@Base 0.9.8
 _ZN4rime6TreeDb6RemoveEv@Base 0.9.8
 _ZN4rime6TreeDb6UpdateERKSsS2_@Base 0.9.8
 _ZN4rime6TreeDb7RestoreERKSs@Base 0.9.8
 _ZN4rime6TreeDbC1ERKSs@Base 0.9.8
 _ZN4rime6TreeDbC2ERKSs@Base 0.9.8
 _ZN4rime6TreeDbD0Ev@Base 0.9.8
 _ZN4rime6TreeDbD1Ev@Base 0.9.8
 _ZN4rime6TreeDbD2Ev@Base 0.9.8
 _ZN4rime6UserDb14CreateMetadataEv@Base 0.9.8
 _ZN4rime6UserDbC1ERKSs@Base 0.9.8
 _ZN4rime6UserDbC2ERKSs@Base 0.9.8
 _ZN4rime6UserDbD0Ev@Base 0.9.8
 _ZN4rime6UserDbD1Ev@Base 0.9.8
 _ZN4rime6UserDbD2Ev@Base 0.9.8
 _ZN4rime7Context10set_optionERKSsb@Base 0.9.8
 _ZN4rime7Context11DeleteInputEm@Base 0.9.8
 _ZN4rime7Context11compositionEv@Base 0.9.8
 _ZN4rime7Context12set_propertyERKSsS2_@Base 0.9.8
 _ZN4rime7Context13set_caret_posEm@Base 0.9.8
 _ZN4rime7Context15set_compositionEPNS_11CompositionE@Base 0.9.8
 _ZN4rime7Context20ClearPreviousSegmentEv@Base 0.9.8
 _ZN4rime7Context21ClearTransientOptionsEv@Base 0.9.8
 _ZN4rime7Context21ReopenPreviousSegmentEv@Base 0.9.8
 _ZN4rime7Context22DeleteCurrentSelectionEv@Base 0.9.8
 _ZN4rime7Context23ConfirmCurrentSelectionEv@Base 0.9.8
 _ZN4rime7Context23ReopenPreviousSelectionEv@Base 0.9.8
 _ZN4rime7Context24ConfirmPreviousSelectionEv@Base 0.9.8
 _ZN4rime7Context28ClearNonConfirmedCompositionEv@Base 0.9.8
 _ZN4rime7Context30RefreshNonConfirmedCompositionEv@Base 0.9.8
 _ZN4rime7Context5ClearEv@Base 0.9.8
 _ZN4rime7Context6CommitEv@Base 0.9.8
 _ZN4rime7Context6SelectEm@Base 0.9.8
 _ZN4rime7Context8PopInputEm@Base 0.9.8
 _ZN4rime7Context9PushInputERKSs@Base 0.9.8
 _ZN4rime7Context9PushInputEc@Base 0.9.8
 _ZN4rime7Context9set_inputERKSs@Base 0.9.8
 _ZN4rime7ContextC1Ev@Base 0.9.8
 _ZN4rime7ContextC2Ev@Base 0.9.8
 _ZN4rime7ContextD1Ev@Base 0.9.8
 _ZN4rime7ContextD2Ev@Base 0.9.8
 _ZN4rime7Erasion5ApplyEPNS_8SpellingE@Base 0.9.8
 _ZN4rime7Erasion5ParseERKSt6vectorISsSaISsEE@Base 0.9.8
 _ZN4rime7Erasion8additionEv@Base 0.9.8
 _ZN4rime7ErasionD0Ev@Base 0.9.8
 _ZN4rime7ErasionD1Ev@Base 0.9.8
 _ZN4rime7ErasionD2Ev@Base 0.9.8
 _ZN4rime7Matcher7ProceedEPNS_12SegmentationE@Base 0.9.8
 _ZN4rime7MatcherC1EPNS_6EngineE@Base 0.9.8
 _ZN4rime7MatcherC2EPNS_6EngineE@Base 0.9.8
 _ZN4rime7MatcherD0Ev@Base 0.9.8
 _ZN4rime7MatcherD1Ev@Base 0.9.8
 _ZN4rime7MatcherD2Ev@Base 0.9.8
 _ZN4rime7PreeditD1Ev@Base 0.9.8
 _ZN4rime7PreeditD2Ev@Base 0.9.8
 _ZN4rime7SegmentD1Ev@Base 0.9.8
 _ZN4rime7SegmentD2Ev@Base 0.9.8
 _ZN4rime7SegmentaSERKS0_@Base 0.9.8
 _ZN4rime7Service10GetSessionEm@Base 0.9.8
 _ZN4rime7Service11StopServiceEv@Base 0.9.8
 _ZN4rime7Service12StartServiceEv@Base 0.9.8
 _ZN4rime7Service13CreateSessionEv@Base 0.9.8
 _ZN4rime7Service14DestroySessionEm@Base 0.9.8
 _ZN4rime7Service18CleanupAllSessionsEv@Base 0.9.8
 _ZN4rime7Service20CleanupStaleSessionsEv@Base 0.9.8
 _ZN4rime7Service22SetNotificationHandlerERKN5boost8functionIFvmPKcS4_EEE@Base 0.9.8
 _ZN4rime7Service24ClearNotificationHandlerEv@Base 0.9.8
 _ZN4rime7Service6NotifyEmRKSsS2_@Base 0.9.8
 _ZN4rime7Service8disabledEv@Base 0.9.8
 _ZN4rime7Service8instanceEv@Base 0.9.8
 _ZN4rime7Service9instance_E@Base 0.9.8
 _ZN4rime7ServiceC1Ev@Base 0.9.8
 _ZN4rime7ServiceC2Ev@Base 0.9.8
 _ZN4rime7ServiceD1Ev@Base 0.9.8
 _ZN4rime7ServiceD2Ev@Base 0.9.8
 _ZN4rime7Session11ApplySchemaEPNS_6SchemaE@Base 0.9.8
 _ZN4rime7Session15ProcessKeyEventERKNS_8KeyEventE@Base 0.9.8
 _ZN4rime7Session15ResetCommitTextEv@Base 0.9.8
 _ZN4rime7Session16ClearCompositionEv@Base 0.9.8
 _ZN4rime7Session17CommitCompositionEv@Base 0.9.8
 _ZN4rime7Session8ActivateEv@Base 0.9.8
 _ZN4rime7Session8OnCommitERKSs@Base 0.9.8
 _ZN4rime7SessionC1Ev@Base 0.9.8
 _ZN4rime7SessionC2Ev@Base 0.9.8
 _ZN4rime7SessionD1Ev@Base 0.9.8
 _ZN4rime7SessionD2Ev@Base 0.9.8
 _ZN4rime7Speller15ProcessKeyEventERKNS_8KeyEventE@Base 0.9.8
 _ZN4rime7SpellerC1EPNS_6EngineE@Base 0.9.8
 _ZN4rime7SpellerC2EPNS_6EngineE@Base 0.9.8
 _ZN4rime7SpellerD0Ev@Base 0.9.8
 _ZN4rime7SpellerD1Ev@Base 0.9.8
 _ZN4rime7SpellerD2Ev@Base 0.9.8
 _ZN4rime8Calculus5ParseERKSs@Base 0.9.8
 _ZN4rime8Calculus8RegisterERKSsPFPNS_11CalculationERKSt6vectorISsSaISsEEE@Base 0.9.8
 _ZN4rime8CalculusC1Ev@Base 0.9.8
 _ZN4rime8CalculusC2Ev@Base 0.9.8
 _ZN4rime8ChecksumERKSs@Base 0.9.8
 _ZN4rime8ChecksumERKSt6vectorISsSaISsEE@Base 0.9.8
 _ZN4rime8Deployer12ScheduleTaskERKN5boost10shared_ptrINS_14DeploymentTaskEEE@Base 0.9.8
 _ZN4rime8Deployer15HasPendingTasksEv@Base 0.9.8
 _ZN4rime8Deployer15IsMaintenancingEv@Base 0.9.8
 _ZN4rime8Deployer16StartMaintenanceEv@Base 0.9.8
 _ZN4rime8Deployer21JoinMaintenanceThreadEv@Base 0.9.8
 _ZN4rime8Deployer3RunEv@Base 0.9.8
 _ZN4rime8Deployer8NextTaskEv@Base 0.9.8
 _ZN4rime8DeployerC1Ev@Base 0.9.8
 _ZN4rime8DeployerC2Ev@Base 0.9.8
 _ZN4rime8DeployerD1Ev@Base 0.9.8
 _ZN4rime8DeployerD2Ev@Base 0.9.8
 _ZN4rime8DfsState12RecruitEntryEm@Base 0.9.8
 _ZN4rime8DfsState9NextEntryEv@Base 0.9.8
 _ZN4rime8DfsStateD1Ev@Base 0.9.8
 _ZN4rime8DfsStateD2Ev@Base 0.9.8
 _ZN4rime8KeyEvent5ParseERKSs@Base 0.9.8
 _ZN4rime8KeyEventC1ERKSs@Base 0.9.8
 _ZN4rime8KeyEventC2ERKSs@Base 0.9.8
 _ZN4rime8Patterns4LoadEN5boost10shared_ptrINS_10ConfigListEEE@Base 0.9.8
 _ZN4rime8Registry10UnregisterERKSs@Base 0.9.8
 _ZN4rime8Registry4FindERKSs@Base 0.9.8
 _ZN4rime8Registry5ClearEv@Base 0.9.8
 _ZN4rime8Registry8RegisterERKSsPNS_13ComponentBaseE@Base 0.9.8
 _ZN4rime8Registry9instance_E@Base 0.9.8
 _ZN4rime8Selector10CursorDownEPNS_7ContextE@Base 0.9.8
 _ZN4rime8Selector15ProcessKeyEventERKNS_8KeyEventE@Base 0.9.8
 _ZN4rime8Selector17SelectCandidateAtEPNS_7ContextEi@Base 0.9.8
 _ZN4rime8Selector3EndEPNS_7ContextE@Base 0.9.8
 _ZN4rime8Selector4HomeEPNS_7ContextE@Base 0.9.8
 _ZN4rime8Selector6PageUpEPNS_7ContextE@Base 0.9.8
 _ZN4rime8Selector8CursorUpEPNS_7ContextE@Base 0.9.8
 _ZN4rime8Selector8PageDownEPNS_7ContextE@Base 0.9.8
 _ZN4rime8SelectorC1EPNS_6EngineE@Base 0.9.8
 _ZN4rime8SelectorC2EPNS_6EngineE@Base 0.9.8
 _ZN4rime8SelectorD0Ev@Base 0.9.8
 _ZN4rime8SelectorD1Ev@Base 0.9.8
 _ZN4rime8SelectorD2Ev@Base 0.9.8
 _ZN4rime8Sentence6ExtendERKNS_9DictEntryEm@Base 0.9.8
 _ZN4rime8Sentence6OffsetEm@Base 0.9.8
 _ZN4rime8SentenceC1EPNS_8LanguageE@Base 0.9.8
 _ZN4rime8SentenceC2EPNS_8LanguageE@Base 0.9.8
 _ZN4rime8SentenceD0Ev@Base 0.9.8
 _ZN4rime8SentenceD1Ev@Base 0.9.8
 _ZN4rime8SentenceD2Ev@Base 0.9.8
 _ZN4rime8SpellingD1Ev@Base 0.9.8
 _ZN4rime8SpellingD2Ev@Base 0.9.8
 _ZN4rime8Switcher10DeactivateEv@Base 0.9.8
 _ZN4rime8Switcher11ApplySchemaEPNS_6SchemaE@Base 0.9.8
 _ZN4rime8Switcher12CreateSchemaEv@Base 0.9.8
 _ZN4rime8Switcher12LoadSettingsEv@Base 0.9.8
 _ZN4rime8Switcher15ProcessKeyEventERKNS_8KeyEventE@Base 0.9.8
 _ZN4rime8Switcher19HighlightNextSchemaEv@Base 0.9.8
 _ZN4rime8Switcher23InitializeSubProcessorsEv@Base 0.9.8
 _ZN4rime8Switcher6AttachEPNS_6EngineE@Base 0.9.8
 _ZN4rime8Switcher8ActivateEv@Base 0.9.8
 _ZN4rime8Switcher8OnSelectEPNS_7ContextE@Base 0.9.8
 _ZN4rime8SwitcherC1Ev@Base 0.9.8
 _ZN4rime8SwitcherC2Ev@Base 0.9.8
 _ZN4rime8SwitcherD0Ev@Base 0.9.8
 _ZN4rime8SwitcherD1Ev@Base 0.9.8
 _ZN4rime8SwitcherD2Ev@Base 0.9.8
 _ZN4rime9Candidate19GetGenuineCandidateERKN5boost10shared_ptrIS0_EE@Base 0.9.8
 _ZN4rime9CandidateD0Ev@Base 0.9.8
 _ZN4rime9CandidateD1Ev@Base 0.9.8
 _ZN4rime9CandidateD2Ev@Base 0.9.8
 _ZN4rime9ComponentINS_10PunctuatorEE6CreateEPNS_6EngineE@Base 0.9.8
 _ZN4rime9ComponentINS_10PunctuatorEED0Ev@Base 0.9.8
 _ZN4rime9ComponentINS_10PunctuatorEED1Ev@Base 0.9.8
 _ZN4rime9ComponentINS_10PunctuatorEED2Ev@Base 0.9.8
 _ZN4rime9ComponentINS_10RecognizerEE6CreateEPNS_6EngineE@Base 0.9.8
 _ZN4rime9ComponentINS_10RecognizerEED0Ev@Base 0.9.8
 _ZN4rime9ComponentINS_10RecognizerEED1Ev@Base 0.9.8
 _ZN4rime9ComponentINS_10RecognizerEED2Ev@Base 0.9.8
 _ZN4rime9ComponentINS_10SimplifierEE6CreateEPNS_6EngineE@Base 0.9.8
 _ZN4rime9ComponentINS_10SimplifierEED0Ev@Base 0.9.8
 _ZN4rime9ComponentINS_10SimplifierEED1Ev@Base 0.9.8
 _ZN4rime9ComponentINS_10SimplifierEED2Ev@Base 0.9.8
 _ZN4rime9ComponentINS_10UniquifierEE6CreateEPNS_6EngineE@Base 0.9.8
 _ZN4rime9ComponentINS_10UniquifierEED0Ev@Base 0.9.8
 _ZN4rime9ComponentINS_10UniquifierEED1Ev@Base 0.9.8
 _ZN4rime9ComponentINS_10UniquifierEED2Ev@Base 0.9.8
 _ZN4rime9ComponentINS_12AbcSegmentorEE6CreateEPNS_6EngineE@Base 0.9.8
 _ZN4rime9ComponentINS_12AbcSegmentorEED0Ev@Base 0.9.8
 _ZN4rime9ComponentINS_12AbcSegmentorEED1Ev@Base 0.9.8
 _ZN4rime9ComponentINS_12AbcSegmentorEED2Ev@Base 0.9.8
 _ZN4rime9ComponentINS_13AsciiComposerEE6CreateEPNS_6EngineE@Base 0.9.8
 _ZN4rime9ComponentINS_13AsciiComposerEED0Ev@Base 0.9.8
 _ZN4rime9ComponentINS_13AsciiComposerEED1Ev@Base 0.9.8
 _ZN4rime9ComponentINS_13AsciiComposerEED2Ev@Base 0.9.8
 _ZN4rime9ComponentINS_13ChordComposerEE6CreateEPNS_6EngineE@Base 0.9.8
 _ZN4rime9ComponentINS_13ChordComposerEED0Ev@Base 0.9.8
 _ZN4rime9ComponentINS_13ChordComposerEED1Ev@Base 0.9.8
 _ZN4rime9ComponentINS_13ChordComposerEED2Ev@Base 0.9.8
 _ZN4rime9ComponentINS_13ExpressEditorEE6CreateEPNS_6EngineE@Base 0.9.8
 _ZN4rime9ComponentINS_13ExpressEditorEED0Ev@Base 0.9.8
 _ZN4rime9ComponentINS_13ExpressEditorEED1Ev@Base 0.9.8
 _ZN4rime9ComponentINS_13ExpressEditorEED2Ev@Base 0.9.8
 _ZN4rime9ComponentINS_13FluencyEditorEE6CreateEPNS_6EngineE@Base 0.9.8
 _ZN4rime9ComponentINS_13FluencyEditorEED0Ev@Base 0.9.8
 _ZN4rime9ComponentINS_13FluencyEditorEED1Ev@Base 0.9.8
 _ZN4rime9ComponentINS_13FluencyEditorEED2Ev@Base 0.9.8
 _ZN4rime9ComponentINS_14AsciiSegmentorEE6CreateEPNS_6EngineE@Base 0.9.8
 _ZN4rime9ComponentINS_14AsciiSegmentorEED0Ev@Base 0.9.8
 _ZN4rime9ComponentINS_14AsciiSegmentorEED1Ev@Base 0.9.8
 _ZN4rime9ComponentINS_14AsciiSegmentorEED2Ev@Base 0.9.8
 _ZN4rime9ComponentINS_14EchoTranslatorEE6CreateEPNS_6EngineE@Base 0.9.8
 _ZN4rime9ComponentINS_14EchoTranslatorEED0Ev@Base 0.9.8
 _ZN4rime9ComponentINS_14EchoTranslatorEED1Ev@Base 0.9.8
 _ZN4rime9ComponentINS_14EchoTranslatorEED2Ev@Base 0.9.8
 _ZN4rime9ComponentINS_14PunctSegmentorEE6CreateEPNS_6EngineE@Base 0.9.8
 _ZN4rime9ComponentINS_14PunctSegmentorEED0Ev@Base 0.9.8
 _ZN4rime9ComponentINS_14PunctSegmentorEED1Ev@Base 0.9.8
 _ZN4rime9ComponentINS_14PunctSegmentorEED2Ev@Base 0.9.8
 _ZN4rime9ComponentINS_14R10nTranslatorEE6CreateEPNS_6EngineE@Base 0.9.8
 _ZN4rime9ComponentINS_14R10nTranslatorEED0Ev@Base 0.9.8
 _ZN4rime9ComponentINS_14R10nTranslatorEED1Ev@Base 0.9.8
 _ZN4rime9ComponentINS_14R10nTranslatorEED2Ev@Base 0.9.8
 _ZN4rime9ComponentINS_15PunctTranslatorEE6CreateEPNS_6EngineE@Base 0.9.8
 _ZN4rime9ComponentINS_15PunctTranslatorEED0Ev@Base 0.9.8
 _ZN4rime9ComponentINS_15PunctTranslatorEED1Ev@Base 0.9.8
 _ZN4rime9ComponentINS_15PunctTranslatorEED2Ev@Base 0.9.8
 _ZN4rime9ComponentINS_15TableTranslatorEE6CreateEPNS_6EngineE@Base 0.9.8
 _ZN4rime9ComponentINS_15TableTranslatorEED0Ev@Base 0.9.8
 _ZN4rime9ComponentINS_15TableTranslatorEED1Ev@Base 0.9.8
 _ZN4rime9ComponentINS_15TableTranslatorEED2Ev@Base 0.9.8
 _ZN4rime9ComponentINS_17FallbackSegmentorEE6CreateEPNS_6EngineE@Base 0.9.8
 _ZN4rime9ComponentINS_17FallbackSegmentorEED0Ev@Base 0.9.8
 _ZN4rime9ComponentINS_17FallbackSegmentorEED1Ev@Base 0.9.8
 _ZN4rime9ComponentINS_17FallbackSegmentorEED2Ev@Base 0.9.8
 _ZN4rime9ComponentINS_23ReverseLookupTranslatorEE6CreateEPNS_6EngineE@Base 0.9.8
 _ZN4rime9ComponentINS_23ReverseLookupTranslatorEED0Ev@Base 0.9.8
 _ZN4rime9ComponentINS_23ReverseLookupTranslatorEED1Ev@Base 0.9.8
 _ZN4rime9ComponentINS_23ReverseLookupTranslatorEED2Ev@Base 0.9.8
 _ZN4rime9ComponentINS_7MatcherEE6CreateEPNS_6EngineE@Base 0.9.8
 _ZN4rime9ComponentINS_7MatcherEED0Ev@Base 0.9.8
 _ZN4rime9ComponentINS_7MatcherEED1Ev@Base 0.9.8
 _ZN4rime9ComponentINS_7MatcherEED2Ev@Base 0.9.8
 _ZN4rime9ComponentINS_7SpellerEE6CreateEPNS_6EngineE@Base 0.9.8
 _ZN4rime9ComponentINS_7SpellerEED0Ev@Base 0.9.8
 _ZN4rime9ComponentINS_7SpellerEED1Ev@Base 0.9.8
 _ZN4rime9ComponentINS_7SpellerEED2Ev@Base 0.9.8
 _ZN4rime9ComponentINS_8SelectorEE6CreateEPNS_6EngineE@Base 0.9.8
 _ZN4rime9ComponentINS_8SelectorEED0Ev@Base 0.9.8
 _ZN4rime9ComponentINS_8SelectorEED1Ev@Base 0.9.8
 _ZN4rime9ComponentINS_8SelectorEED2Ev@Base 0.9.8
 _ZN4rime9ComponentINS_9KeyBinderEE6CreateEPNS_6EngineE@Base 0.9.8
 _ZN4rime9ComponentINS_9KeyBinderEED0Ev@Base 0.9.8
 _ZN4rime9ComponentINS_9KeyBinderEED1Ev@Base 0.9.8
 _ZN4rime9ComponentINS_9KeyBinderEED2Ev@Base 0.9.8
 _ZN4rime9ComponentINS_9NavigatorEE6CreateEPNS_6EngineE@Base 0.9.8
 _ZN4rime9ComponentINS_9NavigatorEED0Ev@Base 0.9.8
 _ZN4rime9ComponentINS_9NavigatorEED1Ev@Base 0.9.8
 _ZN4rime9ComponentINS_9NavigatorEED2Ev@Base 0.9.8
 _ZN4rime9ConfigMap3SetERKSsRKN5boost10shared_ptrINS_10ConfigItemEEE@Base 0.9.8
 _ZN4rime9ConfigMap3endEv@Base 0.9.8
 _ZN4rime9ConfigMap5ClearEv@Base 0.9.8
 _ZN4rime9ConfigMap5beginEv@Base 0.9.8
 _ZN4rime9ConfigMapD0Ev@Base 0.9.8
 _ZN4rime9ConfigMapD1Ev@Base 0.9.8
 _ZN4rime9ConfigMapD2Ev@Base 0.9.8
 _ZN4rime9DictEntryC1ERKS0_@Base 0.9.8
 _ZN4rime9DictEntryC2ERKS0_@Base 0.9.8
 _ZN4rime9DictEntryD1Ev@Base 0.9.8
 _ZN4rime9DictEntryD2Ev@Base 0.9.8
 _ZN4rime9DictEntryaSERKS0_@Base 0.9.8
 _ZN4rime9KeyBinder15ProcessKeyEventERKNS_8KeyEventE@Base 0.9.8
 _ZN4rime9KeyBinder20ReinterpretPagingKeyERKNS_8KeyEventE@Base 0.9.8
 _ZN4rime9KeyBinderC1EPNS_6EngineE@Base 0.9.8
 _ZN4rime9KeyBinderC2EPNS_6EngineE@Base 0.9.8
 _ZN4rime9KeyBinderD0Ev@Base 0.9.8
 _ZN4rime9KeyBinderD1Ev@Base 0.9.8
 _ZN4rime9KeyBinderD2Ev@Base 0.9.8
 _ZN4rime9MessengerD1Ev@Base 0.9.8
 _ZN4rime9MessengerD2Ev@Base 0.9.8
 _ZN4rime9Navigator15ProcessKeyEventERKNS_8KeyEventE@Base 0.9.8
 _ZN4rime9Navigator3EndEPNS_7ContextE@Base 0.9.8
 _ZN4rime9Navigator4HomeEPNS_7ContextE@Base 0.9.8
 _ZN4rime9Navigator4LeftEPNS_7ContextE@Base 0.9.8
 _ZN4rime9Navigator5RightEPNS_7ContextE@Base 0.9.8
 _ZN4rime9NavigatorD0Ev@Base 0.9.8
 _ZN4rime9NavigatorD1Ev@Base 0.9.8
 _ZN4rime9NavigatorD2Ev@Base 0.9.8
 _ZN4rime9Processor15ProcessKeyEventERKNS_8KeyEventE@Base 0.9.8
 _ZN4rime9ProcessorD0Ev@Base 0.9.8
 _ZN4rime9ProcessorD1Ev@Base 0.9.8
 _ZN4rime9ProcessorD2Ev@Base 0.9.8
 _ZN4rime9SegmentorD0Ev@Base 0.9.8
 _ZN4rime9SegmentorD1Ev@Base 0.9.8
 _ZN4rime9SegmentorD2Ev@Base 0.9.8
 _ZN4rime9Signature4SignEPNS_6ConfigEPNS_8DeployerE@Base 0.9.8
 _ZN4rime9SignatureD1Ev@Base 0.9.8
 _ZN4rime9SignatureD2Ev@Base 0.9.8
 _ZN4rimelsERSoRKNS_12SegmentationE@Base 0.9.8
 _ZN4rimelsERSoRKNS_8KeyEventE@Base 0.9.8
 _ZN4utf89unchecked4nextIPKcEEjRT_@Base 0.9.8
 _ZN4utf89unchecked8utf32to8IPcPjEET_T0_S5_S4_@Base 0.9.8
 _ZN5Darts15DoubleArrayImplIvvivED0Ev@Base 0.9.8
 _ZN5Darts15DoubleArrayImplIvvivED1Ev@Base 0.9.8
 _ZN5Darts15DoubleArrayImplIvvivED2Ev@Base 0.9.8
 _ZN5Darts7Details11DawgBuilderD1Ev@Base 0.9.8
 _ZN5Darts7Details11DawgBuilderD2Ev@Base 0.9.8
 _ZN5Darts7Details18DoubleArrayBuilder10build_dawgIiEEvRKNS0_6KeysetIT_EEPNS0_11DawgBuilderE@Base 0.9.8
 _ZN5Darts7Details18DoubleArrayBuilder15build_from_dawgERKNS0_11DawgBuilderEjj@Base 0.9.8
 _ZN5Darts7Details18DoubleArrayBuilder17arrange_from_dawgERKNS0_11DawgBuilderEjj@Base 0.9.8
 _ZN5Darts7Details18DoubleArrayBuilder17build_from_keysetIiEEvRKNS0_6KeysetIT_EE@Base 0.9.8
 _ZN5Darts7Details18DoubleArrayBuilder17build_from_keysetIiEEvRKNS0_6KeysetIT_EEmmmj@Base 0.9.8
 _ZN5Darts7Details18DoubleArrayBuilder19arrange_from_keysetIiEEjRKNS0_6KeysetIT_EEmmmj@Base 0.9.8
 _ZN5Darts7Details18DoubleArrayBuilder5buildIiEEvRKNS0_6KeysetIT_EE@Base 0.9.8
 _ZN5Darts7Details18DoubleArrayBuilder9fix_blockEj@Base 0.9.8
 _ZN5Darts7Details18DoubleArrayBuilderD1Ev@Base 0.9.8
 _ZN5Darts7Details18DoubleArrayBuilderD2Ev@Base 0.9.8
 _ZN5Darts7Details8AutoPoolINS0_22DoubleArrayBuilderUnitEE10resize_bufEm@Base 0.9.8
 _ZN5Darts7Details8AutoPoolINS0_22DoubleArrayBuilderUnitEED1Ev@Base 0.9.8
 _ZN5Darts7Details8AutoPoolINS0_22DoubleArrayBuilderUnitEED2Ev@Base 0.9.8
 _ZN5Darts7Details8AutoPoolINS0_8DawgNodeEE10resize_bufEm@Base 0.9.8
 _ZN5Darts7Details8AutoPoolINS0_8DawgNodeEED1Ev@Base 0.9.8
 _ZN5Darts7Details8AutoPoolINS0_8DawgNodeEED2Ev@Base 0.9.8
 _ZN5Darts7Details8AutoPoolINS0_8DawgUnitEE10resize_bufEm@Base 0.9.8
 _ZN5Darts7Details8AutoPoolINS0_8DawgUnitEED1Ev@Base 0.9.8
 _ZN5Darts7Details8AutoPoolINS0_8DawgUnitEED2Ev@Base 0.9.8
 _ZN5Darts7Details8AutoPoolIhE10resize_bufEm@Base 0.9.8
 _ZN5Darts7Details8AutoPoolIhED1Ev@Base 0.9.8
 _ZN5Darts7Details8AutoPoolIhED2Ev@Base 0.9.8
 _ZN5Darts7Details8AutoPoolIjE10resize_bufEm@Base 0.9.8
 _ZN5Darts7Details8AutoPoolIjED1Ev@Base 0.9.8
 _ZN5Darts7Details8AutoPoolIjED2Ev@Base 0.9.8
 _ZN5Darts7Details9AutoArrayIcE5clearEv@Base 0.9.8
 _ZN5Darts7Details9AutoArrayIjE5clearEv@Base 0.9.8
 _ZN5Darts7Details9AutoStackIjED1Ev@Base 0.9.8
 _ZN5Darts7Details9AutoStackIjED2Ev@Base 0.9.8
 _ZN5Darts7Details9BitVectorD1Ev@Base 0.9.8
 _ZN5Darts7Details9BitVectorD2Ev@Base 0.9.8
 _ZN5Darts7Details9ExceptionD0Ev@Base 0.9.8
 _ZN5Darts7Details9ExceptionD1Ev@Base 0.9.8
 _ZN5Darts7Details9ExceptionD2Ev@Base 0.9.8
 _ZN5boost10filesystem12is_directoryERKNS0_4pathE@Base 0.9.8
 _ZN5boost10filesystem15directory_entryD1Ev@Base 0.9.8
 _ZN5boost10filesystem15directory_entryD2Ev@Base 0.9.8
 _ZN5boost10filesystem18directory_iteratorC1ERKNS0_4pathE@Base 0.9.8
 _ZN5boost10filesystem18directory_iteratorC2ERKNS0_4pathE@Base 0.9.8
 _ZN5boost10filesystem18directory_iteratorD1Ev@Base 0.9.8
 _ZN5boost10filesystem18directory_iteratorD2Ev@Base 0.9.8
 _ZN5boost10filesystem4path5clearEv@Base 0.9.8
 _ZN5boost10filesystem4pathD1Ev@Base 0.9.8
 _ZN5boost10filesystem4pathD2Ev@Base 0.9.8
 _ZN5boost10filesystem4pathaSERKS1_@Base 0.9.8
 _ZN5boost10filesystem4pathdVISsEENS_9enable_ifINS0_11path_traits11is_pathableINS_5decayIT_E4typeEEERS1_E4typeERKS7_@Base 0.9.8
 _ZN5boost10filesystem6detail11dir_itr_impD1Ev@Base 0.9.8
 _ZN5boost10filesystem6detail11dir_itr_impD2Ev@Base 0.9.8
 _ZN5boost10filesystem6existsERKNS0_4pathE@Base 0.9.8
 _ZN5boost10filesystemdvERKNS0_4pathES3_@Base 0.9.8
 _ZN5boost10lock_errorC1EiPKc@Base 0.9.8
 _ZN5boost10lock_errorC2EiPKc@Base 0.9.8
 _ZN5boost10lock_errorD0Ev@Base 0.9.8
 _ZN5boost10lock_errorD1Ev@Base 0.9.8
 _ZN5boost10lock_errorD2Ev@Base 0.9.8
 _ZN5boost10posix_time11from_time_tEl@Base 0.9.8
 _ZN5boost10scoped_ptrIN4rime10DictionaryEE5resetEPS2_@Base 0.9.8
 _ZN5boost10scoped_ptrIN4rime11KeyBindingsEED1Ev@Base 0.9.8
 _ZN5boost10scoped_ptrIN4rime11KeyBindingsEED2Ev@Base 0.9.8
 _ZN5boost10scoped_ptrIN4rime17ConfigDataManagerEE5resetEPS2_@Base 0.9.8
 _ZN5boost10scoped_ptrIN4rime17ConfigDataManagerEED1Ev@Base 0.9.8
 _ZN5boost10scoped_ptrIN4rime17ConfigDataManagerEED2Ev@Base 0.9.8
 _ZN5boost10scoped_ptrIN4rime23ReverseLookupDictionaryEE5resetEPS2_@Base 0.9.8
 _ZN5boost10scoped_ptrIN4rime4PageEED1Ev@Base 0.9.8
 _ZN5boost10scoped_ptrIN4rime4PageEED2Ev@Base 0.9.8
 _ZN5boost10scoped_ptrIN4rime6OpenccEED1Ev@Base 0.9.8
 _ZN5boost10scoped_ptrIN4rime6OpenccEED2Ev@Base 0.9.8
 _ZN5boost10scoped_ptrIN4rime6SchemaEED1Ev@Base 0.9.8
 _ZN5boost10scoped_ptrIN4rime6SchemaEED2Ev@Base 0.9.8
 _ZN5boost10scoped_ptrIN4rime7ContextEED1Ev@Base 0.9.8
 _ZN5boost10scoped_ptrIN4rime7ContextEED2Ev@Base 0.9.8
 _ZN5boost10scoped_ptrIN4rime7ServiceEE5resetEPS2_@Base 0.9.8
 _ZN5boost10scoped_ptrIN4rime7ServiceEED1Ev@Base 0.9.8
 _ZN5boost10scoped_ptrIN4rime7ServiceEED2Ev@Base 0.9.8
 _ZN5boost10scoped_ptrIN4rime8RegistryEE5resetEPS2_@Base 0.9.8
 _ZN5boost10scoped_ptrIN4rime8RegistryEED1Ev@Base 0.9.8
 _ZN5boost10scoped_ptrIN4rime8RegistryEED2Ev@Base 0.9.8
 _ZN5boost10scoped_ptrINS_12interprocess12file_mappingEED1Ev@Base 0.9.8
 _ZN5boost10scoped_ptrINS_12interprocess12file_mappingEED2Ev@Base 0.9.8
 _ZN5boost10scoped_ptrINS_12interprocess13mapped_regionEED1Ev@Base 0.9.8
 _ZN5boost10scoped_ptrINS_12interprocess13mapped_regionEED2Ev@Base 0.9.8
 _ZN5boost10scoped_ptrINS_13match_resultsIN9__gnu_cxx17__normal_iteratorIPKcSsEESaINS_9sub_matchIS6_EEEEEED1Ev@Base 0.9.8
 _ZN5boost10scoped_ptrINS_13match_resultsIN9__gnu_cxx17__normal_iteratorIPKcSsEESaINS_9sub_matchIS6_EEEEEED2Ev@Base 0.9.8
 _ZN5boost10shared_ptrIKNS_16exception_detail10clone_baseEEC1INS1_10clone_implINS1_10bad_alloc_EEEEEPT_@Base 0.9.8
 _ZN5boost10shared_ptrIKNS_16exception_detail10clone_baseEEC1INS1_10clone_implINS1_14bad_exception_EEEEEPT_@Base 0.9.8
 _ZN5boost10shared_ptrIKNS_16exception_detail10clone_baseEEC2INS1_10clone_implINS1_10bad_alloc_EEEEEPT_@Base 0.9.8
 _ZN5boost10shared_ptrIKNS_16exception_detail10clone_baseEEC2INS1_10clone_implINS1_14bad_exception_EEEEEPT_@Base 0.9.8
 _ZN5boost10shared_ptrIN12kyotocabinet7PlantDBINS1_6HashDBELh49EEEED1Ev@Base 0.9.8
 _ZN5boost10shared_ptrIN12kyotocabinet7PlantDBINS1_6HashDBELh49EEEED2Ev@Base 0.9.8
 _ZN5boost10shared_ptrIN4rime10ConfigDataEED1Ev@Base 0.9.8
 _ZN5boost10shared_ptrIN4rime10ConfigDataEED2Ev@Base 0.9.8
 _ZN5boost10shared_ptrIN4rime10ConfigDataEEaSERKS3_@Base 0.9.8
 _ZN5boost10shared_ptrIN4rime10ConfigItemEED1Ev@Base 0.9.8
 _ZN5boost10shared_ptrIN4rime10ConfigItemEED2Ev@Base 0.9.8
 _ZN5boost10shared_ptrIN4rime10ConfigItemEEaSERKS3_@Base 0.9.8
 _ZN5boost10shared_ptrIN4rime10ConfigItemEEaSINS1_9ConfigMapEEERS3_RKNS0_IT_EE@Base 0.9.8
 _ZN5boost10shared_ptrIN4rime10ConfigListEED1Ev@Base 0.9.8
 _ZN5boost10shared_ptrIN4rime10ConfigListEED2Ev@Base 0.9.8
 _ZN5boost10shared_ptrIN4rime10ConfigListEEaSERKS3_@Base 0.9.8
 _ZN5boost10shared_ptrIN4rime10TranslatorEEaSERKS3_@Base 0.9.8
 _ZN5boost10shared_ptrIN4rime10VocabularyEED1Ev@Base 0.9.8
 _ZN5boost10shared_ptrIN4rime10VocabularyEED2Ev@Base 0.9.8
 _ZN5boost10shared_ptrIN4rime11ConfigValueEED1Ev@Base 0.9.8
 _ZN5boost10shared_ptrIN4rime11ConfigValueEED2Ev@Base 0.9.8
 _ZN5boost10shared_ptrIN4rime11TranslationEED1Ev@Base 0.9.8
 _ZN5boost10shared_ptrIN4rime11TranslationEED2Ev@Base 0.9.8
 _ZN5boost10shared_ptrIN4rime11TranslationEEaSERKS3_@Base 0.9.8
 _ZN5boost10shared_ptrIN4rime11TranslationEEaSINS1_12UniqueFilterEEERS3_RKNS0_IT_EE@Base 0.9.8
 _ZN5boost10shared_ptrIN4rime11TranslationEEaSINS1_13CharsetFilterEEERS3_RKNS0_IT_EE@Base 0.9.8
 _ZN5boost10shared_ptrIN4rime11TranslationEEaSINS1_16TableTranslationEEERS3_RKNS0_IT_EE@Base 0.9.8
 _ZN5boost10shared_ptrIN4rime11TranslationEEaSINS1_20LazyTableTranslationEEERS3_RKNS0_IT_EE@Base 0.9.8
 _ZN5boost10shared_ptrIN4rime12CleanUpTrashEED1Ev@Base 0.9.8
 _ZN5boost10shared_ptrIN4rime12CleanUpTrashEED2Ev@Base 0.9.8
 _ZN5boost10shared_ptrIN4rime12UniqueFilterEED1Ev@Base 0.9.8
 _ZN5boost10shared_ptrIN4rime12UniqueFilterEED2Ev@Base 0.9.8
 _ZN5boost10shared_ptrIN4rime12UserDictSyncEED1Ev@Base 0.9.8
 _ZN5boost10shared_ptrIN4rime12UserDictSyncEED2Ev@Base 0.9.8
 _ZN5boost10shared_ptrIN4rime13CharsetFilterEED1Ev@Base 0.9.8
 _ZN5boost10shared_ptrIN4rime13CharsetFilterEED2Ev@Base 0.9.8
 _ZN5boost10shared_ptrIN4rime13DictEntryListEED1Ev@Base 0.9.8
 _ZN5boost10shared_ptrIN4rime13DictEntryListEED2Ev@Base 0.9.8
 _ZN5boost10shared_ptrIN4rime13DictEntryListEEaSERKS3_@Base 0.9.8
 _ZN5boost10shared_ptrIN4rime14DeploymentTaskEED1Ev@Base 0.9.8
 _ZN5boost10shared_ptrIN4rime14DeploymentTaskEED2Ev@Base 0.9.8
 _ZN5boost10shared_ptrIN4rime14DeploymentTaskEEaSERKS3_@Base 0.9.8
 _ZN5boost10shared_ptrIN4rime14SwitcherOptionEED1Ev@Base 0.9.8
 _ZN5boost10shared_ptrIN4rime14SwitcherOptionEED2Ev@Base 0.9.8
 _ZN5boost10shared_ptrIN4rime14TreeDbAccessorEED1Ev@Base 0.9.8
 _ZN5boost10shared_ptrIN4rime14TreeDbAccessorEED2Ev@Base 0.9.8
 _ZN5boost10shared_ptrIN4rime14TreeDbAccessorEEaSERKS3_@Base 0.9.8
 _ZN5boost10shared_ptrIN4rime15EchoTranslationEED1Ev@Base 0.9.8
 _ZN5boost10shared_ptrIN4rime15EchoTranslationEED2Ev@Base 0.9.8
 _ZN5boost10shared_ptrIN4rime15FifoTranslationEED1Ev@Base 0.9.8
 _ZN5boost10shared_ptrIN4rime15FifoTranslationEED2Ev@Base 0.9.8
 _ZN5boost10shared_ptrIN4rime15R10nTranslationEED1Ev@Base 0.9.8
 _ZN5boost10shared_ptrIN4rime15R10nTranslationEED2Ev@Base 0.9.8
 _ZN5boost10shared_ptrIN4rime15ShadowCandidateEED1Ev@Base 0.9.8
 _ZN5boost10shared_ptrIN4rime15ShadowCandidateEED2Ev@Base 0.9.8
 _ZN5boost10shared_ptrIN4rime15SimpleCandidateEED1Ev@Base 0.9.8
 _ZN5boost10shared_ptrIN4rime15SimpleCandidateEED2Ev@Base 0.9.8
 _ZN5boost10shared_ptrIN4rime15SyllabificationEEaSERKS3_@Base 0.9.8
 _ZN5boost10shared_ptrIN4rime15WorkspaceUpdateEED1Ev@Base 0.9.8
 _ZN5boost10shared_ptrIN4rime15WorkspaceUpdateEED2Ev@Base 0.9.8
 _ZN5boost10shared_ptrIN4rime16TableTranslationEED1Ev@Base 0.9.8
 _ZN5boost10shared_ptrIN4rime16TableTranslationEED2Ev@Base 0.9.8
 _ZN5boost10shared_ptrIN4rime17BackupConfigFilesEED1Ev@Base 0.9.8
 _ZN5boost10shared_ptrIN4rime17BackupConfigFilesEED2Ev@Base 0.9.8
 _ZN5boost10shared_ptrIN4rime17UniqueTranslationEED1Ev@Base 0.9.8
 _ZN5boost10shared_ptrIN4rime17UniqueTranslationEED2Ev@Base 0.9.8
 _ZN5boost10shared_ptrIN4rime17UserDictUpgrationEED1Ev@Base 0.9.8
 _ZN5boost10shared_ptrIN4rime17UserDictUpgrationEED2Ev@Base 0.9.8
 _ZN5boost10shared_ptrIN4rime18DictEntryCollectorEED1Ev@Base 0.9.8
 _ZN5boost10shared_ptrIN4rime18DictEntryCollectorEED2Ev@Base 0.9.8
 _ZN5boost10shared_ptrIN4rime18InstallationUpdateEED1Ev@Base 0.9.8
 _ZN5boost10shared_ptrIN4rime18InstallationUpdateEED2Ev@Base 0.9.8
 _ZN5boost10shared_ptrIN4rime19UniquifiedCandidateEED1Ev@Base 0.9.8
 _ZN5boost10shared_ptrIN4rime19UniquifiedCandidateEED2Ev@Base 0.9.8
 _ZN5boost10shared_ptrIN4rime20LazyTableTranslationEED1Ev@Base 0.9.8
 _ZN5boost10shared_ptrIN4rime20LazyTableTranslationEED2Ev@Base 0.9.8
 _ZN5boost10shared_ptrIN4rime22UserDictEntryCollectorEED1Ev@Base 0.9.8
 _ZN5boost10shared_ptrIN4rime22UserDictEntryCollectorEED2Ev@Base 0.9.8
 _ZN5boost10shared_ptrIN4rime22UserDictEntryCollectorEEaSERKS3_@Base 0.9.8
 _ZN5boost10shared_ptrIN4rime24ReverseLookupTranslationEED1Ev@Base 0.9.8
 _ZN5boost10shared_ptrIN4rime24ReverseLookupTranslationEED2Ev@Base 0.9.8
 _ZN5boost10shared_ptrIN4rime4MenuEED1Ev@Base 0.9.8
 _ZN5boost10shared_ptrIN4rime4MenuEED2Ev@Base 0.9.8
 _ZN5boost10shared_ptrIN4rime5PrismEED1Ev@Base 0.9.8
 _ZN5boost10shared_ptrIN4rime5PrismEED2Ev@Base 0.9.8
 _ZN5boost10shared_ptrIN4rime5PrismEEaSERKS3_@Base 0.9.8
 _ZN5boost10shared_ptrIN4rime5TableEED1Ev@Base 0.9.8
 _ZN5boost10shared_ptrIN4rime5TableEED2Ev@Base 0.9.8
 _ZN5boost10shared_ptrIN4rime5TableEEaSERKS3_@Base 0.9.8
 _ZN5boost10shared_ptrIN4rime6FilterEEaSERKS3_@Base 0.9.8
 _ZN5boost10shared_ptrIN4rime6PhraseEED1Ev@Base 0.9.8
 _ZN5boost10shared_ptrIN4rime6PhraseEED2Ev@Base 0.9.8
 _ZN5boost10shared_ptrIN4rime6PhraseEEaSERKS3_@Base 0.9.8
 _ZN5boost10shared_ptrIN4rime6TreeDbEED1Ev@Base 0.9.8
 _ZN5boost10shared_ptrIN4rime6TreeDbEED2Ev@Base 0.9.8
 _ZN5boost10shared_ptrIN4rime6TreeDbEEaSERKS3_@Base 0.9.8
 _ZN5boost10shared_ptrIN4rime6UserDbEED1Ev@Base 0.9.8
 _ZN5boost10shared_ptrIN4rime6UserDbEED2Ev@Base 0.9.8
 _ZN5boost10shared_ptrIN4rime6UserDbEEaSERKS3_@Base 0.9.8
 _ZN5boost10shared_ptrIN4rime7SessionEED1Ev@Base 0.9.8
 _ZN5boost10shared_ptrIN4rime7SessionEED2Ev@Base 0.9.8
 _ZN5boost10shared_ptrIN4rime7SessionEEaSERKS3_@Base 0.9.8
 _ZN5boost10shared_ptrIN4rime8SentenceEE5resetEv@Base 0.9.8
 _ZN5boost10shared_ptrIN4rime8SentenceEED1Ev@Base 0.9.8
 _ZN5boost10shared_ptrIN4rime8SentenceEED2Ev@Base 0.9.8
 _ZN5boost10shared_ptrIN4rime8SentenceEEaSERKS3_@Base 0.9.8
 _ZN5boost10shared_ptrIN4rime9CandidateEED1Ev@Base 0.9.8
 _ZN5boost10shared_ptrIN4rime9CandidateEED2Ev@Base 0.9.8
 _ZN5boost10shared_ptrIN4rime9CandidateEEaSERKS3_@Base 0.9.8
 _ZN5boost10shared_ptrIN4rime9ConfigMapEED1Ev@Base 0.9.8
 _ZN5boost10shared_ptrIN4rime9ConfigMapEED2Ev@Base 0.9.8
 _ZN5boost10shared_ptrIN4rime9ConfigMapEEaSERKS3_@Base 0.9.8
 _ZN5boost10shared_ptrIN4rime9DictEntryEED1Ev@Base 0.9.8
 _ZN5boost10shared_ptrIN4rime9DictEntryEED2Ev@Base 0.9.8
 _ZN5boost10shared_ptrIN4rime9DictEntryEEaSERKS3_@Base 0.9.8
 _ZN5boost10shared_ptrIN4rime9ProcessorEED1Ev@Base 0.9.8
 _ZN5boost10shared_ptrIN4rime9ProcessorEED2Ev@Base 0.9.8
 _ZN5boost10shared_ptrIN4rime9ProcessorEEaSERKS3_@Base 0.9.8
 _ZN5boost10shared_ptrIN4rime9SegmentorEEaSERKS3_@Base 0.9.8
 _ZN5boost10shared_ptrINS_10filesystem6detail11dir_itr_impEED1Ev@Base 0.9.8
 _ZN5boost10shared_ptrINS_10filesystem6detail11dir_itr_impEED2Ev@Base 0.9.8
 _ZN5boost10shared_ptrINS_29regex_iterator_implementationIN9__gnu_cxx17__normal_iteratorIPKcSsEEcNS_12regex_traitsIcNS_16cpp_regex_traitsIcEEEEEEE5resetEv@Base 0.9.8
 _ZN5boost10shared_ptrINS_29regex_iterator_implementationIN9__gnu_cxx17__normal_iteratorIPKcSsEEcNS_12regex_traitsIcNS_16cpp_regex_traitsIcEEEEEEED1Ev@Base 0.9.8
 _ZN5boost10shared_ptrINS_29regex_iterator_implementationIN9__gnu_cxx17__normal_iteratorIPKcSsEEcNS_12regex_traitsIcNS_16cpp_regex_traitsIcEEEEEEED2Ev@Base 0.9.8
 _ZN5boost10shared_ptrINS_6detail16thread_data_baseEED1Ev@Base 0.9.8
 _ZN5boost10shared_ptrINS_6detail16thread_data_baseEED2Ev@Base 0.9.8
 _ZN5boost10shared_ptrINS_6random23mersenne_twister_engineIjLm32ELm624ELm397ELm31ELj2567483615ELm11ELj4294967295ELm7ELj2636928640ELm15ELj4022730752ELm18ELj1812433253EEEED1Ev@Base 0.9.8
 _ZN5boost10shared_ptrINS_6random23mersenne_twister_engineIjLm32ELm624ELm397ELm31ELj2567483615ELm11ELj4294967295ELm7ELj2636928640ELm15ELj4022730752ELm18ELj1812433253EEEED2Ev@Base 0.9.8
 _ZN5boost10shared_ptrINS_7signals6detail9slot_base6data_tEE5resetIS4_EEvPT_@Base 0.9.8
 _ZN5boost10shared_ptrINS_9re_detail20named_subexpressionsEEaSERKS3_@Base 0.9.8
 _ZN5boost10shared_ptrINS_9re_detail26basic_regex_implementationIcNS_12regex_traitsIcNS_16cpp_regex_traitsIcEEEEEEED1Ev@Base 0.9.8
 _ZN5boost10shared_ptrINS_9re_detail26basic_regex_implementationIcNS_12regex_traitsIcNS_16cpp_regex_traitsIcEEEEEEED2Ev@Base 0.9.8
 _ZN5boost10shared_ptrINS_9re_detail26basic_regex_implementationIcNS_12regex_traitsIcNS_16cpp_regex_traitsIcEEEEEEEaSERKS8_@Base 0.9.8
 _ZN5boost10shared_ptrIvED1Ev@Base 0.9.8
 _ZN5boost10shared_ptrIvED2Ev@Base 0.9.8
 _ZN5boost11basic_regexIcNS_12regex_traitsIcNS_16cpp_regex_traitsIcEEEEED1Ev@Base 0.9.8
 _ZN5boost11basic_regexIcNS_12regex_traitsIcNS_16cpp_regex_traitsIcEEEEED2Ev@Base 0.9.8
 _ZN5boost11make_sharedIN4rime10ConfigDataEEENS_6detail15sp_if_not_arrayIT_E4typeEv@Base 0.9.8
 _ZN5boost11make_sharedIN4rime10ConfigListEEENS_6detail15sp_if_not_arrayIT_E4typeEv@Base 0.9.8
 _ZN5boost11make_sharedIN4rime10VocabularyEEENS_6detail15sp_if_not_arrayIT_E4typeEv@Base 0.9.8
 _ZN5boost11make_sharedIN4rime11ConfigValueEPKcEENS_6detail15sp_if_not_arrayIT_E4typeERKT0_@Base 0.9.8
 _ZN5boost11make_sharedIN4rime11ConfigValueESsEENS_6detail15sp_if_not_arrayIT_E4typeERKT0_@Base 0.9.8
 _ZN5boost11make_sharedIN4rime11ConfigValueEbEENS_6detail15sp_if_not_arrayIT_E4typeERKT0_@Base 0.9.8
 _ZN5boost11make_sharedIN4rime11ConfigValueEdEENS_6detail15sp_if_not_arrayIT_E4typeERKT0_@Base 0.9.8
 _ZN5boost11make_sharedIN4rime11ConfigValueEiEENS_6detail15sp_if_not_arrayIT_E4typeERKT0_@Base 0.9.8
 _ZN5boost11make_sharedIN4rime12CleanUpTrashEEENS_6detail15sp_if_not_arrayIT_E4typeEv@Base 0.9.8
 _ZN5boost11make_sharedIN4rime12UniqueFilterENS_10shared_ptrINS1_11TranslationEEEEENS_6detail15sp_if_not_arrayIT_E4typeERKT0_@Base 0.9.8
 _ZN5boost11make_sharedIN4rime12UniqueFilterENS_10shared_ptrINS1_15R10nTranslationEEEEENS_6detail15sp_if_not_arrayIT_E4typeERKT0_@Base 0.9.8
 _ZN5boost11make_sharedIN4rime12UserDictSyncEEENS_6detail15sp_if_not_arrayIT_E4typeEv@Base 0.9.8
 _ZN5boost11make_sharedIN4rime13CharsetFilterENS_10shared_ptrINS1_11TranslationEEEEENS_6detail15sp_if_not_arrayIT_E4typeERKT0_@Base 0.9.8
 _ZN5boost11make_sharedIN4rime13DictEntryListEEENS_6detail15sp_if_not_arrayIT_E4typeEv@Base 0.9.8
 _ZN5boost11make_sharedIN4rime14SwitcherOptionEPNS1_6SchemaEEENS_6detail15sp_if_not_arrayIT_E4typeERKT0_@Base 0.9.8
 _ZN5boost11make_sharedIN4rime14SwitcherOptionESsSsSsbbEENS_6detail15sp_if_not_arrayIT_E4typeERKT0_RKT1_RKT2_RKT3_RKT4_@Base 0.9.8
 _ZN5boost11make_sharedIN4rime14TreeDbAccessorEPN12kyotocabinet2DB6CursorESsEENS_6detail15sp_if_not_arrayIT_E4typeERKT0_RKT1_@Base 0.9.8
 _ZN5boost11make_sharedIN4rime15EchoTranslationENS_10shared_ptrINS1_9CandidateEEEEENS_6detail15sp_if_not_arrayIT_E4typeERKT0_@Base 0.9.8
 _ZN5boost11make_sharedIN4rime15FifoTranslationEEENS_6detail15sp_if_not_arrayIT_E4typeEv@Base 0.9.8
 _ZN5boost11make_sharedIN4rime15R10nTranslationEPNS1_14R10nTranslatorESsmEENS_6detail15sp_if_not_arrayIT_E4typeERKT0_RKT1_RKT2_@Base 0.9.8
 _ZN5boost11make_sharedIN4rime15ShadowCandidateENS_10shared_ptrINS1_9CandidateEEEA14_cSsSsEENS_6detail15sp_if_not_arrayIT_E4typeERKT0_RKT1_RKT2_RKT3_@Base 0.9.8
 _ZN5boost11make_sharedIN4rime15SimpleCandidateEA15_cmmSsSsSsEENS_6detail15sp_if_not_arrayIT_E4typeERKT0_RKT1_RKT2_RKT3_RKT4_RKT5_@Base 0.9.8
 _ZN5boost11make_sharedIN4rime15SimpleCandidateEA4_cmmSsEENS_6detail15sp_if_not_arrayIT_E4typeERKT0_RKT1_RKT2_RKT3_@Base 0.9.8
 _ZN5boost11make_sharedIN4rime15SimpleCandidateEA4_cmmSsS3_EENS_6detail15sp_if_not_arrayIT_E4typeERKT0_RKT1_RKT2_RKT3_RKT4_@Base 0.9.8
 _ZN5boost11make_sharedIN4rime15SimpleCandidateEA6_cmmSsPKcSsEENS_6detail15sp_if_not_arrayIT_E4typeERKT0_RKT1_RKT2_RKT3_RKT4_RKT5_@Base 0.9.8
 _ZN5boost11make_sharedIN4rime15WorkspaceUpdateEEENS_6detail15sp_if_not_arrayIT_E4typeEv@Base 0.9.8
 _ZN5boost11make_sharedIN4rime16TableTranslationEPNS1_15TableTranslatorEPNS1_8LanguageESsmmSsNS1_17DictEntryIteratorENS1_21UserDictEntryIteratorEEENS_6detail15sp_if_not_arrayIT_E4typeERKT0_RKT1_RKT2_RKT3_RKT4_RKT5_RKT6_RKT7_@Base 0.9.8
 _ZN5boost11make_sharedIN4rime17BackupConfigFilesEEENS_6detail15sp_if_not_arrayIT_E4typeEv@Base 0.9.8
 _ZN5boost11make_sharedIN4rime17UniqueTranslationENS_10shared_ptrINS1_9CandidateEEEEENS_6detail15sp_if_not_arrayIT_E4typeERKT0_@Base 0.9.8
 _ZN5boost11make_sharedIN4rime17UserDictUpgrationEEENS_6detail15sp_if_not_arrayIT_E4typeEv@Base 0.9.8
 _ZN5boost11make_sharedIN4rime18DictEntryCollectorEEENS_6detail15sp_if_not_arrayIT_E4typeEv@Base 0.9.8
 _ZN5boost11make_sharedIN4rime18InstallationUpdateEEENS_6detail15sp_if_not_arrayIT_E4typeEv@Base 0.9.8
 _ZN5boost11make_sharedIN4rime19SentenceTranslationEPNS1_15TableTranslatorENS_10shared_ptrINS1_8SentenceEEEPNS1_18DictEntryCollectorEPNS1_22UserDictEntryCollectorESsmEENS_6detail15sp_if_not_arrayIT_E4typeERKT0_RKT1_RKT2_RKT3_RKT4_RKT5_@Base 0.9.8
 _ZN5boost11make_sharedIN4rime19UniquifiedCandidateENS_10shared_ptrINS1_9CandidateEEEA11_cEENS_6detail15sp_if_not_arrayIT_E4typeERKT0_RKT1_@Base 0.9.8
 _ZN5boost11make_sharedIN4rime20LazyTableTranslationEPNS1_15TableTranslatorESsmmSsbEENS_6detail15sp_if_not_arrayIT_E4typeERKT0_RKT1_RKT2_RKT3_RKT4_RKT5_@Base 0.9.8
 _ZN5boost11make_sharedIN4rime22UserDictEntryCollectorEEENS_6detail15sp_if_not_arrayIT_E4typeEv@Base 0.9.8
 _ZN5boost11make_sharedIN4rime24ReverseLookupTranslationEPNS1_23ReverseLookupDictionaryEPNS1_17TranslatorOptionsESsmmSsNS1_17DictEntryIteratorEbEENS_6detail15sp_if_not_arrayIT_E4typeERKT0_RKT1_RKT2_RKT3_RKT4_RKT5_RKT6_RKT7_@Base 0.9.8
 _ZN5boost11make_sharedIN4rime4MenuEEENS_6detail15sp_if_not_arrayIT_E4typeEv@Base 0.9.8
 _ZN5boost11make_sharedIN4rime5PrismESsEENS_6detail15sp_if_not_arrayIT_E4typeERKT0_@Base 0.9.8
 _ZN5boost11make_sharedIN4rime5TableESsEENS_6detail15sp_if_not_arrayIT_E4typeERKT0_@Base 0.9.8
 _ZN5boost11make_sharedIN4rime6PhraseEPNS1_8LanguageEA6_cmmNS_10shared_ptrINS1_9DictEntryEEEEENS_6detail15sp_if_not_arrayIT_E4typeERKT0_RKT1_RKT2_RKT3_RKT4_@Base 0.9.8
 _ZN5boost11make_sharedIN4rime6PhraseEPNS1_8LanguageEA7_cmmNS_10shared_ptrINS1_9DictEntryEEEEENS_6detail15sp_if_not_arrayIT_E4typeERKT0_RKT1_RKT2_RKT3_RKT4_@Base 0.9.8
 _ZN5boost11make_sharedIN4rime6PhraseEPNS1_8LanguageEPKcmmNS_10shared_ptrINS1_9DictEntryEEEEENS_6detail15sp_if_not_arrayIT_E4typeERKT0_RKT1_RKT2_RKT3_RKT4_@Base 0.9.8
 _ZN5boost11make_sharedIN4rime6TreeDbESsEENS_6detail15sp_if_not_arrayIT_E4typeERKT0_@Base 0.9.8
 _ZN5boost11make_sharedIN4rime6UserDbESsEENS_6detail15sp_if_not_arrayIT_E4typeERKT0_@Base 0.9.8
 _ZN5boost11make_sharedIN4rime7SessionEEENS_6detail15sp_if_not_arrayIT_E4typeEv@Base 0.9.8
 _ZN5boost11make_sharedIN4rime8SentenceEPNS1_8LanguageEEENS_6detail15sp_if_not_arrayIT_E4typeERKT0_@Base 0.9.8
 _ZN5boost11make_sharedIN4rime9ConfigMapEEENS_6detail15sp_if_not_arrayIT_E4typeEv@Base 0.9.8
 _ZN5boost11make_sharedIN4rime9DictEntryEEENS_6detail15sp_if_not_arrayIT_E4typeEv@Base 0.9.8
 _ZN5boost11make_sharedIN4rime9DictEntryES2_EENS_6detail15sp_if_not_arrayIT_E4typeERKT0_@Base 0.9.8
 _ZN5boost11regex_matchISt11char_traitsIcESaIcEcNS_12regex_traitsIcNS_16cpp_regex_traitsIcEEEEEEbRKSbIT1_T_T0_ERKNS_11basic_regexIS8_T2_EENS_15regex_constants12_match_flagsE@Base 0.9.8
 _ZN5boost12bad_weak_ptrD0Ev@Base 0.9.8
 _ZN5boost12bad_weak_ptrD1Ev@Base 0.9.8
 _ZN5boost12bad_weak_ptrD2Ev@Base 0.9.8
 _ZN5boost12basic_formatIcSt11char_traitsIcESaIcEE18make_or_reuse_dataEm@Base 0.9.8
 _ZN5boost12basic_formatIcSt11char_traitsIcESaIcEE5clearEv@Base 0.9.8
 _ZN5boost12basic_formatIcSt11char_traitsIcESaIcEE5parseERKSs@Base 0.9.8
 _ZN5boost12basic_formatIcSt11char_traitsIcESaIcEEC1EPKc@Base 0.9.8
 _ZN5boost12basic_formatIcSt11char_traitsIcESaIcEEC1ERKSs@Base 0.9.8
 _ZN5boost12basic_formatIcSt11char_traitsIcESaIcEEC2EPKc@Base 0.9.8
 _ZN5boost12basic_formatIcSt11char_traitsIcESaIcEEC2ERKSs@Base 0.9.8
 _ZN5boost12basic_formatIcSt11char_traitsIcESaIcEED1Ev@Base 0.9.8
 _ZN5boost12basic_formatIcSt11char_traitsIcESaIcEED2Ev@Base 0.9.8
 _ZN5boost12interprocess13mapped_region16page_size_holderILi0EE8PageSizeE@Base 0.9.8
 _ZN5boost12interprocess22interprocess_exceptionC1ERKNS0_10error_infoEPKc@Base 0.9.8
 _ZN5boost12interprocess22interprocess_exceptionC2ERKNS0_10error_infoEPKc@Base 0.9.8
 _ZN5boost12interprocess22interprocess_exceptionD0Ev@Base 0.9.8
 _ZN5boost12interprocess22interprocess_exceptionD1Ev@Base 0.9.8
 _ZN5boost12interprocess22interprocess_exceptionD2Ev@Base 0.9.8
 _ZN5boost12regex_searchIN9__gnu_cxx17__normal_iteratorIPKcSsEESaINS_9sub_matchIS5_EEEcNS_12regex_traitsIcNS_16cpp_regex_traitsIcEEEEEEbT_SD_RNS_13match_resultsISD_T0_EERKNS_11basic_regexIT1_T2_EENS_15regex_constants12_match_flagsESD_@Base 0.9.8
 _ZN5boost13exception_ptrD1Ev@Base 0.9.8
 _ZN5boost13exception_ptrD2Ev@Base 0.9.8
 _ZN5boost13match_resultsIN9__gnu_cxx17__normal_iteratorIPKcSsEESaINS_9sub_matchIS5_EEEE10set_secondES5_@Base 0.9.8
 _ZN5boost13match_resultsIN9__gnu_cxx17__normal_iteratorIPKcSsEESaINS_9sub_matchIS5_EEEE10set_secondES5_mbb@Base 0.9.8
 _ZN5boost13match_resultsIN9__gnu_cxx17__normal_iteratorIPKcSsEESaINS_9sub_matchIS5_EEEE17raise_logic_errorEv@Base 0.9.8
 _ZN5boost13match_resultsIN9__gnu_cxx17__normal_iteratorIPKcSsEESaINS_9sub_matchIS5_EEEE8set_sizeEmS5_S5_@Base 0.9.8
 _ZN5boost13match_resultsIN9__gnu_cxx17__normal_iteratorIPKcSsEESaINS_9sub_matchIS5_EEEE9set_firstES5_@Base 0.9.8
 _ZN5boost13match_resultsIN9__gnu_cxx17__normal_iteratorIPKcSsEESaINS_9sub_matchIS5_EEEE9set_firstES5_mb@Base 0.9.8
 _ZN5boost13match_resultsIN9__gnu_cxx17__normal_iteratorIPKcSsEESaINS_9sub_matchIS5_EEEEC1ERKS9_@Base 0.9.8
 _ZN5boost13match_resultsIN9__gnu_cxx17__normal_iteratorIPKcSsEESaINS_9sub_matchIS5_EEEEC2ERKS9_@Base 0.9.8
 _ZN5boost13match_resultsIN9__gnu_cxx17__normal_iteratorIPKcSsEESaINS_9sub_matchIS5_EEEED1Ev@Base 0.9.8
 _ZN5boost13match_resultsIN9__gnu_cxx17__normal_iteratorIPKcSsEESaINS_9sub_matchIS5_EEEED2Ev@Base 0.9.8
 _ZN5boost13match_resultsIN9__gnu_cxx17__normal_iteratorIPKcSsEESaINS_9sub_matchIS5_EEEEaSERKS9_@Base 0.9.8
 _ZN5boost13regex_replaceINS_12regex_traitsIcNS_16cpp_regex_traitsIcEEEEcSsEESbIT0_St11char_traitsIS5_ESaIS5_EERKS9_RKNS_11basic_regexIS5_T_EET1_NS_15regex_constants12_match_flagsE@Base 0.9.8
 _ZN5boost13regex_replaceINS_9re_detail19string_out_iteratorISsEEN9__gnu_cxx17__normal_iteratorIPKcSsEENS_12regex_traitsIcNS_16cpp_regex_traitsIcEEEEcSsEET_SD_T0_SE_RKNS_11basic_regexIT2_T1_EET3_NS_15regex_constants12_match_flagsE@Base 0.9.8
 _ZN5boost14checked_deleteIN4rime23ReverseLookupDictionaryEEEvPT_@Base 0.9.8
 _ZN5boost14checked_deleteINS_10filesystem6detail11dir_itr_impEEEvPT_@Base 0.9.8
 _ZN5boost14checked_deleteINS_29regex_iterator_implementationIN9__gnu_cxx17__normal_iteratorIPKcSsEEcNS_12regex_traitsIcNS_16cpp_regex_traitsIcEEEEEEEEvPT_@Base 0.9.8
 _ZN5boost14checked_deleteINS_7signals6detail9slot_base6data_tEEEvPT_@Base 0.9.8
 _ZN5boost14iterator_rangeIN9__gnu_cxx17__normal_iteratorIPcSsEEEC1ISsEERT_NS_21iterator_range_detail9range_tagE@Base 0.9.8
 _ZN5boost14iterator_rangeIN9__gnu_cxx17__normal_iteratorIPcSsEEEC2ISsEERT_NS_21iterator_range_detail9range_tagE@Base 0.9.8
 _ZN5boost14regex_iteratorIN9__gnu_cxx17__normal_iteratorIPKcSsEEcNS_12regex_traitsIcNS_16cpp_regex_traitsIcEEEEEC1ES5_S5_RKNS_11basic_regexIcS9_EENS_15regex_constants12_match_flagsE@Base 0.9.8
 _ZN5boost14regex_iteratorIN9__gnu_cxx17__normal_iteratorIPKcSsEEcNS_12regex_traitsIcNS_16cpp_regex_traitsIcEEEEEC2ES5_S5_RKNS_11basic_regexIcS9_EENS_15regex_constants12_match_flagsE@Base 0.9.8
 _ZN5boost14regex_iteratorIN9__gnu_cxx17__normal_iteratorIPKcSsEEcNS_12regex_traitsIcNS_16cpp_regex_traitsIcEEEEED1Ev@Base 0.9.8
 _ZN5boost14regex_iteratorIN9__gnu_cxx17__normal_iteratorIPKcSsEEcNS_12regex_traitsIcNS_16cpp_regex_traitsIcEEEEED2Ev@Base 0.9.8
 _ZN5boost15foreach_detail_14simple_variantIN4rime10VocabularyEEC1ERKS3_@Base 0.9.8
 _ZN5boost15foreach_detail_14simple_variantIN4rime10VocabularyEEC2ERKS3_@Base 0.9.8
 _ZN5boost15foreach_detail_14simple_variantIN4rime10VocabularyEED1Ev@Base 0.9.8
 _ZN5boost15foreach_detail_14simple_variantIN4rime10VocabularyEED2Ev@Base 0.9.8
 _ZN5boost15foreach_detail_14simple_variantIN4rime11CompositionEEC1ERKS3_@Base 0.9.8
 _ZN5boost15foreach_detail_14simple_variantIN4rime11CompositionEEC2ERKS3_@Base 0.9.8
 _ZN5boost15foreach_detail_14simple_variantIN4rime12SegmentationEEC1ERKS3_@Base 0.9.8
 _ZN5boost15foreach_detail_14simple_variantIN4rime12SegmentationEEC2ERKS3_@Base 0.9.8
 _ZN5boost15foreach_detail_14simple_variantIN4rime13CommitHistoryEEC1ERKS3_@Base 0.9.8
 _ZN5boost15foreach_detail_14simple_variantIN4rime13CommitHistoryEEC2ERKS3_@Base 0.9.8
 _ZN5boost15foreach_detail_14simple_variantIN4rime13DictEntryListEEC1ERKS3_@Base 0.9.8
 _ZN5boost15foreach_detail_14simple_variantIN4rime13DictEntryListEEC2ERKS3_@Base 0.9.8
 _ZN5boost15foreach_detail_14simple_variantIN4rime13DictEntryListEED1Ev@Base 0.9.8
 _ZN5boost15foreach_detail_14simple_variantIN4rime13DictEntryListEED2Ev@Base 0.9.8
 _ZN5boost15foreach_detail_14simple_variantIN4rime18RecognizerPatternsEEC1ERKS3_@Base 0.9.8
 _ZN5boost15foreach_detail_14simple_variantIN4rime18RecognizerPatternsEEC2ERKS3_@Base 0.9.8
 _ZN5boost15foreach_detail_14simple_variantIN4rime4CodeEEC1ERKS3_@Base 0.9.8
 _ZN5boost15foreach_detail_14simple_variantIN4rime4CodeEEC2ERKS3_@Base 0.9.8
 _ZN5boost15foreach_detail_14simple_variantIN4rime4CodeEED1Ev@Base 0.9.8
 _ZN5boost15foreach_detail_14simple_variantIN4rime4CodeEED2Ev@Base 0.9.8
 _ZN5boost15foreach_detail_14simple_variantIN4rime8PatternsEEC1ERKS3_@Base 0.9.8
 _ZN5boost15foreach_detail_14simple_variantIN4rime8PatternsEEC2ERKS3_@Base 0.9.8
 _ZN5boost15foreach_detail_14simple_variantIN4rime8PatternsEED1Ev@Base 0.9.8
 _ZN5boost15foreach_detail_14simple_variantIN4rime8PatternsEED2Ev@Base 0.9.8
 _ZN5boost15foreach_detail_14simple_variantISt3mapIiSt6vectorIPKN4rime18SpellingPropertiesESaIS7_EESt4lessIiESaISt4pairIKiS9_EEEEC1ERKSG_@Base 0.9.8
 _ZN5boost15foreach_detail_14simple_variantISt3mapIiSt6vectorIPKN4rime18SpellingPropertiesESaIS7_EESt4lessIiESaISt4pairIKiS9_EEEEC2ERKSG_@Base 0.9.8
 _ZN5boost15foreach_detail_14simple_variantISt3mapImN4rime12SpellingTypeESt4lessImESaISt4pairIKmS4_EEEEC1ERKSB_@Base 0.9.8
 _ZN5boost15foreach_detail_14simple_variantISt3mapImN4rime12SpellingTypeESt4lessImESaISt4pairIKmS4_EEEEC2ERKSB_@Base 0.9.8
 _ZN5boost15foreach_detail_14simple_variantISt3mapImN4rime12SpellingTypeESt4lessImESaISt4pairIKmS4_EEEED1Ev@Base 0.9.8
 _ZN5boost15foreach_detail_14simple_variantISt3mapImN4rime12SpellingTypeESt4lessImESaISt4pairIKmS4_EEEED2Ev@Base 0.9.8
 _ZN5boost15foreach_detail_14simple_variantISt3mapImS2_IiN4rime18SpellingPropertiesESt4lessIiESaISt4pairIKiS4_EEES5_ImESaIS7_IKmSB_EEEEC1ERKSG_@Base 0.9.8
 _ZN5boost15foreach_detail_14simple_variantISt3mapImS2_IiN4rime18SpellingPropertiesESt4lessIiESaISt4pairIKiS4_EEES5_ImESaIS7_IKmSB_EEEEC2ERKSG_@Base 0.9.8
 _ZN5boost15foreach_detail_14simple_variantISt6vectorIN4rime8SpellingESaIS4_EEED1Ev@Base 0.9.8
 _ZN5boost15foreach_detail_14simple_variantISt6vectorIN4rime8SpellingESaIS4_EEED2Ev@Base 0.9.8
 _ZN5boost15foreach_detail_14simple_variantISt6vectorIPKN4rime18SpellingPropertiesESaIS6_EEEC1ERKS8_@Base 0.9.8
 _ZN5boost15foreach_detail_14simple_variantISt6vectorIPKN4rime18SpellingPropertiesESaIS6_EEEC2ERKS8_@Base 0.9.8
 _ZN5boost15foreach_detail_14simple_variantISt6vectorIPKN4rime18SpellingPropertiesESaIS6_EEED1Ev@Base 0.9.8
 _ZN5boost15foreach_detail_14simple_variantISt6vectorIPKN4rime18SpellingPropertiesESaIS6_EEED2Ev@Base 0.9.8
 _ZN5boost15foreach_detail_14simple_variantISt6vectorIPKN4rime9DictEntryESaIS6_EEEC1ERKS8_@Base 0.9.8
 _ZN5boost15foreach_detail_14simple_variantISt6vectorIPKN4rime9DictEntryESaIS6_EEEC2ERKS8_@Base 0.9.8
 _ZN5boost15foreach_detail_14simple_variantISt6vectorIPKN4rime9DictEntryESaIS6_EEED1Ev@Base 0.9.8
 _ZN5boost15foreach_detail_14simple_variantISt6vectorIPKN4rime9DictEntryESaIS6_EEED2Ev@Base 0.9.8
 _ZN5boost15foreach_detail_14simple_variantISt6vectorISsSaISsEEED1Ev@Base 0.9.8
 _ZN5boost15foreach_detail_14simple_variantISt6vectorISsSaISsEEED2Ev@Base 0.9.8
 _ZN5boost15foreach_detail_14simple_variantISt6vectorImSaImEEEC1ERKS4_@Base 0.9.8
 _ZN5boost15foreach_detail_14simple_variantISt6vectorImSaImEEEC2ERKS4_@Base 0.9.8
 _ZN5boost15foreach_detail_14simple_variantISt6vectorImSaImEEED1Ev@Base 0.9.8
 _ZN5boost15foreach_detail_14simple_variantISt6vectorImSaImEEED2Ev@Base 0.9.8
 _ZN5boost15foreach_detail_8auto_anyINS0_14simple_variantIN4rime10VocabularyEEEED1Ev@Base 0.9.8
 _ZN5boost15foreach_detail_8auto_anyINS0_14simple_variantIN4rime10VocabularyEEEED2Ev@Base 0.9.8
 _ZN5boost15foreach_detail_8auto_anyINS0_14simple_variantIN4rime4CodeEEEED1Ev@Base 0.9.8
 _ZN5boost15foreach_detail_8auto_anyINS0_14simple_variantIN4rime4CodeEEEED2Ev@Base 0.9.8
 _ZN5boost15foreach_detail_8auto_anyINS0_14simple_variantIN4rime8PatternsEEEED1Ev@Base 0.9.8
 _ZN5boost15foreach_detail_8auto_anyINS0_14simple_variantIN4rime8PatternsEEEED2Ev@Base 0.9.8
 _ZN5boost15foreach_detail_8auto_anyINS0_14simple_variantISt3mapIiN4rime22UserDictEntryCollectorESt4lessIiESaISt4pairIKiS5_EEEEEED1Ev@Base 0.9.8
 _ZN5boost15foreach_detail_8auto_anyINS0_14simple_variantISt3mapIiN4rime22UserDictEntryCollectorESt4lessIiESaISt4pairIKiS5_EEEEEED2Ev@Base 0.9.8
 _ZN5boost15foreach_detail_8auto_anyINS0_14simple_variantISt6vectorIN4rime8SpellingESaIS5_EEEEED1Ev@Base 0.9.8
 _ZN5boost15foreach_detail_8auto_anyINS0_14simple_variantISt6vectorIN4rime8SpellingESaIS5_EEEEED2Ev@Base 0.9.8
 _ZN5boost15foreach_detail_8auto_anyINS0_14simple_variantISt6vectorIPKN4rime18SpellingPropertiesESaIS7_EEEEED1Ev@Base 0.9.8
 _ZN5boost15foreach_detail_8auto_anyINS0_14simple_variantISt6vectorIPKN4rime18SpellingPropertiesESaIS7_EEEEED2Ev@Base 0.9.8
 _ZN5boost15foreach_detail_8auto_anyINS0_14simple_variantISt6vectorIPKN4rime9DictEntryESaIS7_EEEEED1Ev@Base 0.9.8
 _ZN5boost15foreach_detail_8auto_anyINS0_14simple_variantISt6vectorIPKN4rime9DictEntryESaIS7_EEEEED2Ev@Base 0.9.8
 _ZN5boost15foreach_detail_8auto_anyINS0_14simple_variantISt6vectorImSaImEEEEED1Ev@Base 0.9.8
 _ZN5boost15foreach_detail_8auto_anyINS0_14simple_variantISt6vectorImSaImEEEEED2Ev@Base 0.9.8
 _ZN5boost15throw_exceptionINS_10lock_errorEEEvRKT_@Base 0.9.8
 _ZN5boost15throw_exceptionINS_16bad_lexical_castEEEvRKT_@Base 0.9.8
 _ZN5boost15throw_exceptionINS_16exception_detail19error_info_injectorISt13runtime_errorEEEEvRKT_@Base 0.9.8
 _ZN5boost15throw_exceptionINS_17bad_function_callEEEvRKT_@Base 0.9.8
 _ZN5boost15throw_exceptionINS_21thread_resource_errorEEEvRKT_@Base 0.9.8
 _ZN5boost15throw_exceptionINS_2io12too_few_argsEEEvRKT_@Base 0.9.8
 _ZN5boost15throw_exceptionINS_2io13too_many_argsEEEvRKT_@Base 0.9.8
 _ZN5boost15throw_exceptionINS_2io17bad_format_stringEEEvRKT_@Base 0.9.8
 _ZN5boost15throw_exceptionINS_9gregorian16bad_day_of_monthEEEvRKT_@Base 0.9.8
 _ZN5boost15throw_exceptionINS_9gregorian8bad_yearEEEvRKT_@Base 0.9.8
 _ZN5boost15throw_exceptionINS_9gregorian9bad_monthEEEvRKT_@Base 0.9.8
 _ZN5boost15throw_exceptionISt11logic_errorEEvRKT_@Base 0.9.8
 _ZN5boost15throw_exceptionISt13runtime_errorEEvRKT_@Base 0.9.8
 _ZN5boost16bad_lexical_castD0Ev@Base 0.9.8
 _ZN5boost16bad_lexical_castD1Ev@Base 0.9.8
 _ZN5boost16bad_lexical_castD2Ev@Base 0.9.8
 _ZN5boost16base_from_memberINS_10shared_ptrINS_2io18basic_altstringbufIcSt11char_traitsIcESaIcEEEEELi0EED1Ev@Base 0.9.8
 _ZN5boost16base_from_memberINS_10shared_ptrINS_2io18basic_altstringbufIcSt11char_traitsIcESaIcEEEEELi0EED2Ev@Base 0.9.8
 _ZN5boost16exception_detail10bad_alloc_D0Ev@Base 0.9.8
 _ZN5boost16exception_detail10bad_alloc_D1Ev@Base 0.9.8
 _ZN5boost16exception_detail10bad_alloc_D2Ev@Base 0.9.8
 _ZN5boost16exception_detail10clone_baseD0Ev@Base 0.9.8
 _ZN5boost16exception_detail10clone_baseD1Ev@Base 0.9.8
 _ZN5boost16exception_detail10clone_baseD2Ev@Base 0.9.8
 _ZN5boost16exception_detail10clone_implINS0_10bad_alloc_EEC1ERKS2_@Base 0.9.8
 _ZN5boost16exception_detail10clone_implINS0_10bad_alloc_EEC1ERKS3_@Base 0.9.8
 _ZN5boost16exception_detail10clone_implINS0_10bad_alloc_EED0Ev@Base 0.9.8
 _ZN5boost16exception_detail10clone_implINS0_10bad_alloc_EED1Ev@Base 0.9.8
 _ZN5boost16exception_detail10clone_implINS0_14bad_exception_EEC1ERKS2_@Base 0.9.8
 _ZN5boost16exception_detail10clone_implINS0_14bad_exception_EEC1ERKS3_@Base 0.9.8
 _ZN5boost16exception_detail10clone_implINS0_14bad_exception_EED0Ev@Base 0.9.8
 _ZN5boost16exception_detail10clone_implINS0_14bad_exception_EED1Ev@Base 0.9.8
 _ZN5boost16exception_detail10clone_implINS0_19error_info_injectorINS_10lock_errorEEEED0Ev@Base 0.9.8
 _ZN5boost16exception_detail10clone_implINS0_19error_info_injectorINS_10lock_errorEEEED1Ev@Base 0.9.8
 _ZN5boost16exception_detail10clone_implINS0_19error_info_injectorINS_12bad_weak_ptrEEEED0Ev@Base 0.9.8
 _ZN5boost16exception_detail10clone_implINS0_19error_info_injectorINS_12bad_weak_ptrEEEED1Ev@Base 0.9.8
 _ZN5boost16exception_detail10clone_implINS0_19error_info_injectorINS_16bad_lexical_castEEEED0Ev@Base 0.9.8
 _ZN5boost16exception_detail10clone_implINS0_19error_info_injectorINS_16bad_lexical_castEEEED1Ev@Base 0.9.8
 _ZN5boost16exception_detail10clone_implINS0_19error_info_injectorINS_17bad_function_callEEEED0Ev@Base 0.9.8
 _ZN5boost16exception_detail10clone_implINS0_19error_info_injectorINS_17bad_function_callEEEED1Ev@Base 0.9.8
 _ZN5boost16exception_detail10clone_implINS0_19error_info_injectorINS_21thread_resource_errorEEEED0Ev@Base 0.9.8
 _ZN5boost16exception_detail10clone_implINS0_19error_info_injectorINS_21thread_resource_errorEEEED1Ev@Base 0.9.8
 _ZN5boost16exception_detail10clone_implINS0_19error_info_injectorINS_2io12too_few_argsEEEED0Ev@Base 0.9.8
 _ZN5boost16exception_detail10clone_implINS0_19error_info_injectorINS_2io12too_few_argsEEEED1Ev@Base 0.9.8
 _ZN5boost16exception_detail10clone_implINS0_19error_info_injectorINS_2io13too_many_argsEEEED0Ev@Base 0.9.8
 _ZN5boost16exception_detail10clone_implINS0_19error_info_injectorINS_2io13too_many_argsEEEED1Ev@Base 0.9.8
 _ZN5boost16exception_detail10clone_implINS0_19error_info_injectorINS_2io17bad_format_stringEEEED0Ev@Base 0.9.8
 _ZN5boost16exception_detail10clone_implINS0_19error_info_injectorINS_2io17bad_format_stringEEEED1Ev@Base 0.9.8
 _ZN5boost16exception_detail10clone_implINS0_19error_info_injectorINS_9gregorian16bad_day_of_monthEEEED0Ev@Base 0.9.8
 _ZN5boost16exception_detail10clone_implINS0_19error_info_injectorINS_9gregorian16bad_day_of_monthEEEED1Ev@Base 0.9.8
 _ZN5boost16exception_detail10clone_implINS0_19error_info_injectorINS_9gregorian8bad_yearEEEED0Ev@Base 0.9.8
 _ZN5boost16exception_detail10clone_implINS0_19error_info_injectorINS_9gregorian8bad_yearEEEED1Ev@Base 0.9.8
 _ZN5boost16exception_detail10clone_implINS0_19error_info_injectorINS_9gregorian9bad_monthEEEED0Ev@Base 0.9.8
 _ZN5boost16exception_detail10clone_implINS0_19error_info_injectorINS_9gregorian9bad_monthEEEED1Ev@Base 0.9.8
 _ZN5boost16exception_detail10clone_implINS0_19error_info_injectorISt11logic_errorEEED0Ev@Base 0.9.8
 _ZN5boost16exception_detail10clone_implINS0_19error_info_injectorISt11logic_errorEEED1Ev@Base 0.9.8
 _ZN5boost16exception_detail10clone_implINS0_19error_info_injectorISt13runtime_errorEEED0Ev@Base 0.9.8
 _ZN5boost16exception_detail10clone_implINS0_19error_info_injectorISt13runtime_errorEEED1Ev@Base 0.9.8
 _ZN5boost16exception_detail12refcount_ptrINS0_20error_info_containerEE7releaseEv@Base 0.9.8
 _ZN5boost16exception_detail14bad_exception_D0Ev@Base 0.9.8
 _ZN5boost16exception_detail14bad_exception_D1Ev@Base 0.9.8
 _ZN5boost16exception_detail14bad_exception_D2Ev@Base 0.9.8
 _ZN5boost16exception_detail16throw_exception_ISt13runtime_errorEEvRKT_PKcS7_i@Base 0.9.8
 _ZN5boost16exception_detail19error_info_injectorINS_10lock_errorEEC1ERKS3_@Base 0.9.8
 _ZN5boost16exception_detail19error_info_injectorINS_10lock_errorEEC2ERKS3_@Base 0.9.8
 _ZN5boost16exception_detail19error_info_injectorINS_10lock_errorEED0Ev@Base 0.9.8
 _ZN5boost16exception_detail19error_info_injectorINS_10lock_errorEED1Ev@Base 0.9.8
 _ZN5boost16exception_detail19error_info_injectorINS_10lock_errorEED2Ev@Base 0.9.8
 _ZN5boost16exception_detail19error_info_injectorINS_12bad_weak_ptrEED0Ev@Base 0.9.8
 _ZN5boost16exception_detail19error_info_injectorINS_12bad_weak_ptrEED1Ev@Base 0.9.8
 _ZN5boost16exception_detail19error_info_injectorINS_12bad_weak_ptrEED2Ev@Base 0.9.8
 _ZN5boost16exception_detail19error_info_injectorINS_16bad_lexical_castEED0Ev@Base 0.9.8
 _ZN5boost16exception_detail19error_info_injectorINS_16bad_lexical_castEED1Ev@Base 0.9.8
 _ZN5boost16exception_detail19error_info_injectorINS_16bad_lexical_castEED2Ev@Base 0.9.8
 _ZN5boost16exception_detail19error_info_injectorINS_17bad_function_callEEC1ERKS3_@Base 0.9.8
 _ZN5boost16exception_detail19error_info_injectorINS_17bad_function_callEEC2ERKS3_@Base 0.9.8
 _ZN5boost16exception_detail19error_info_injectorINS_17bad_function_callEED0Ev@Base 0.9.8
 _ZN5boost16exception_detail19error_info_injectorINS_17bad_function_callEED1Ev@Base 0.9.8
 _ZN5boost16exception_detail19error_info_injectorINS_17bad_function_callEED2Ev@Base 0.9.8
 _ZN5boost16exception_detail19error_info_injectorINS_21thread_resource_errorEEC1ERKS3_@Base 0.9.8
 _ZN5boost16exception_detail19error_info_injectorINS_21thread_resource_errorEEC2ERKS3_@Base 0.9.8
 _ZN5boost16exception_detail19error_info_injectorINS_21thread_resource_errorEED0Ev@Base 0.9.8
 _ZN5boost16exception_detail19error_info_injectorINS_21thread_resource_errorEED1Ev@Base 0.9.8
 _ZN5boost16exception_detail19error_info_injectorINS_21thread_resource_errorEED2Ev@Base 0.9.8
 _ZN5boost16exception_detail19error_info_injectorINS_2io12too_few_argsEED0Ev@Base 0.9.8
 _ZN5boost16exception_detail19error_info_injectorINS_2io12too_few_argsEED1Ev@Base 0.9.8
 _ZN5boost16exception_detail19error_info_injectorINS_2io12too_few_argsEED2Ev@Base 0.9.8
 _ZN5boost16exception_detail19error_info_injectorINS_2io13too_many_argsEED0Ev@Base 0.9.8
 _ZN5boost16exception_detail19error_info_injectorINS_2io13too_many_argsEED1Ev@Base 0.9.8
 _ZN5boost16exception_detail19error_info_injectorINS_2io13too_many_argsEED2Ev@Base 0.9.8
 _ZN5boost16exception_detail19error_info_injectorINS_2io17bad_format_stringEED0Ev@Base 0.9.8
 _ZN5boost16exception_detail19error_info_injectorINS_2io17bad_format_stringEED1Ev@Base 0.9.8
 _ZN5boost16exception_detail19error_info_injectorINS_2io17bad_format_stringEED2Ev@Base 0.9.8
 _ZN5boost16exception_detail19error_info_injectorINS_9gregorian16bad_day_of_monthEEC1ERKS4_@Base 0.9.8
 _ZN5boost16exception_detail19error_info_injectorINS_9gregorian16bad_day_of_monthEEC2ERKS4_@Base 0.9.8
 _ZN5boost16exception_detail19error_info_injectorINS_9gregorian16bad_day_of_monthEED0Ev@Base 0.9.8
 _ZN5boost16exception_detail19error_info_injectorINS_9gregorian16bad_day_of_monthEED1Ev@Base 0.9.8
 _ZN5boost16exception_detail19error_info_injectorINS_9gregorian16bad_day_of_monthEED2Ev@Base 0.9.8
 _ZN5boost16exception_detail19error_info_injectorINS_9gregorian8bad_yearEEC1ERKS4_@Base 0.9.8
 _ZN5boost16exception_detail19error_info_injectorINS_9gregorian8bad_yearEEC2ERKS4_@Base 0.9.8
 _ZN5boost16exception_detail19error_info_injectorINS_9gregorian8bad_yearEED0Ev@Base 0.9.8
 _ZN5boost16exception_detail19error_info_injectorINS_9gregorian8bad_yearEED1Ev@Base 0.9.8
 _ZN5boost16exception_detail19error_info_injectorINS_9gregorian8bad_yearEED2Ev@Base 0.9.8
 _ZN5boost16exception_detail19error_info_injectorINS_9gregorian9bad_monthEEC1ERKS4_@Base 0.9.8
 _ZN5boost16exception_detail19error_info_injectorINS_9gregorian9bad_monthEEC2ERKS4_@Base 0.9.8
 _ZN5boost16exception_detail19error_info_injectorINS_9gregorian9bad_monthEED0Ev@Base 0.9.8
 _ZN5boost16exception_detail19error_info_injectorINS_9gregorian9bad_monthEED1Ev@Base 0.9.8
 _ZN5boost16exception_detail19error_info_injectorINS_9gregorian9bad_monthEED2Ev@Base 0.9.8
 _ZN5boost16exception_detail19error_info_injectorISt11logic_errorEC1ERKS3_@Base 0.9.8
 _ZN5boost16exception_detail19error_info_injectorISt11logic_errorEC2ERKS3_@Base 0.9.8
 _ZN5boost16exception_detail19error_info_injectorISt11logic_errorED0Ev@Base 0.9.8
 _ZN5boost16exception_detail19error_info_injectorISt11logic_errorED1Ev@Base 0.9.8
 _ZN5boost16exception_detail19error_info_injectorISt11logic_errorED2Ev@Base 0.9.8
 _ZN5boost16exception_detail19error_info_injectorISt13runtime_errorEC1ERKS3_@Base 0.9.8
 _ZN5boost16exception_detail19error_info_injectorISt13runtime_errorEC2ERKS3_@Base 0.9.8
 _ZN5boost16exception_detail19error_info_injectorISt13runtime_errorED0Ev@Base 0.9.8
 _ZN5boost16exception_detail19error_info_injectorISt13runtime_errorED1Ev@Base 0.9.8
 _ZN5boost16exception_detail19error_info_injectorISt13runtime_errorED2Ev@Base 0.9.8
 _ZN5boost16exception_detail20copy_boost_exceptionEPNS_9exceptionEPKS1_@Base 0.9.8
 _ZN5boost16exception_detail27get_static_exception_objectINS0_10bad_alloc_EEENS_13exception_ptrEv@Base 0.9.8
 _ZN5boost16exception_detail27get_static_exception_objectINS0_14bad_exception_EEENS_13exception_ptrEv@Base 0.9.8
 _ZN5boost16exception_detail37exception_ptr_static_exception_objectINS0_10bad_alloc_EE1eE@Base 0.9.8
 _ZN5boost16exception_detail37exception_ptr_static_exception_objectINS0_14bad_exception_EE1eE@Base 0.9.8
 _ZN5boost16thread_exceptionD0Ev@Base 0.9.8
 _ZN5boost16thread_exceptionD1Ev@Base 0.9.8
 _ZN5boost16thread_exceptionD2Ev@Base 0.9.8
 _ZN5boost17bad_function_callC1Ev@Base 0.9.8
 _ZN5boost17bad_function_callC2Ev@Base 0.9.8
 _ZN5boost17bad_function_callD0Ev@Base 0.9.8
 _ZN5boost17bad_function_callD1Ev@Base 0.9.8
 _ZN5boost17bad_function_callD2Ev@Base 0.9.8
 _ZN5boost18condition_variableC1Ev@Base 0.9.8
 _ZN5boost18condition_variableC2Ev@Base 0.9.8
 _ZN5boost18condition_variableD1Ev@Base 0.9.8
 _ZN5boost18condition_variableD2Ev@Base 0.9.8
 _ZN5boost18transform_iteratorINS_9algorithm6detail20copy_iterator_rangeFISsN9__gnu_cxx17__normal_iteratorIPKcSsEEEENS1_14split_iteratorIS8_EENS_11use_defaultESC_ED1Ev@Base 0.9.8
 _ZN5boost18transform_iteratorINS_9algorithm6detail20copy_iterator_rangeFISsN9__gnu_cxx17__normal_iteratorIPKcSsEEEENS1_14split_iteratorIS8_EENS_11use_defaultESC_ED2Ev@Base 0.9.8
 _ZN5boost18transform_iteratorINS_9algorithm6detail20copy_iterator_rangeFISsN9__gnu_cxx17__normal_iteratorIPcSsEEEENS1_14split_iteratorIS7_EENS_11use_defaultESB_ED1Ev@Base 0.9.8
 _ZN5boost18transform_iteratorINS_9algorithm6detail20copy_iterator_rangeFISsN9__gnu_cxx17__normal_iteratorIPcSsEEEENS1_14split_iteratorIS7_EENS_11use_defaultESB_ED2Ev@Base 0.9.8
 _ZN5boost20dynamic_pointer_castIN4rime10ConfigListENS1_10ConfigItemEEENS_10shared_ptrIT_EERKNS4_IT0_EE@Base 0.9.8
 _ZN5boost20dynamic_pointer_castIN4rime11ConfigValueENS1_10ConfigItemEEENS_10shared_ptrIT_EERKNS4_IT0_EE@Base 0.9.8
 _ZN5boost20dynamic_pointer_castIN4rime14SwitcherOptionENS1_9CandidateEEENS_10shared_ptrIT_EERKNS4_IT0_EE@Base 0.9.8
 _ZN5boost20dynamic_pointer_castIN4rime6PhraseENS1_9CandidateEEENS_10shared_ptrIT_EERKNS4_IT0_EE@Base 0.9.8
 _ZN5boost20dynamic_pointer_castIN4rime9ConfigMapENS1_10ConfigItemEEENS_10shared_ptrIT_EERKNS4_IT0_EE@Base 0.9.8
 _ZN5boost21thread_resource_errorC1EiPKc@Base 0.9.8
 _ZN5boost21thread_resource_errorC1Ev@Base 0.9.8
 _ZN5boost21thread_resource_errorC2EiPKc@Base 0.9.8
 _ZN5boost21thread_resource_errorC2Ev@Base 0.9.8
 _ZN5boost21thread_resource_errorD0Ev@Base 0.9.8
 _ZN5boost21thread_resource_errorD1Ev@Base 0.9.8
 _ZN5boost21thread_resource_errorD2Ev@Base 0.9.8
 _ZN5boost23enable_shared_from_thisIN4rime15R10nTranslationEE16shared_from_thisEv@Base 0.9.8
 _ZN5boost23enable_shared_from_thisIN4rime15R10nTranslationEED1Ev@Base 0.9.8
 _ZN5boost23enable_shared_from_thisIN4rime15R10nTranslationEED2Ev@Base 0.9.8
 _ZN5boost23enable_shared_from_thisINS_6detail16thread_data_baseEED1Ev@Base 0.9.8
 _ZN5boost23enable_shared_from_thisINS_6detail16thread_data_baseEED2Ev@Base 0.9.8
 _ZN5boost29regex_iterator_implementationIN9__gnu_cxx17__normal_iteratorIPKcSsEEcNS_12regex_traitsIcNS_16cpp_regex_traitsIcEEEEE7compareERKSA_@Base 0.9.8
 _ZN5boost29regex_iterator_implementationIN9__gnu_cxx17__normal_iteratorIPKcSsEEcNS_12regex_traitsIcNS_16cpp_regex_traitsIcEEEEED1Ev@Base 0.9.8
 _ZN5boost29regex_iterator_implementationIN9__gnu_cxx17__normal_iteratorIPKcSsEEcNS_12regex_traitsIcNS_16cpp_regex_traitsIcEEEEED2Ev@Base 0.9.8
 _ZN5boost2io12format_errorD0Ev@Base 0.9.8
 _ZN5boost2io12format_errorD1Ev@Base 0.9.8
 _ZN5boost2io12format_errorD2Ev@Base 0.9.8
 _ZN5boost2io12too_few_argsD0Ev@Base 0.9.8
 _ZN5boost2io12too_few_argsD1Ev@Base 0.9.8
 _ZN5boost2io12too_few_argsD2Ev@Base 0.9.8
 _ZN5boost2io13too_many_argsD0Ev@Base 0.9.8
 _ZN5boost2io13too_many_argsD1Ev@Base 0.9.8
 _ZN5boost2io13too_many_argsD2Ev@Base 0.9.8
 _ZN5boost2io17bad_format_stringD0Ev@Base 0.9.8
 _ZN5boost2io17bad_format_stringD1Ev@Base 0.9.8
 _ZN5boost2io17bad_format_stringD2Ev@Base 0.9.8
 _ZN5boost2io18basic_altstringbufIcSt11char_traitsIcESaIcEE12clear_bufferEv@Base 0.9.8
 _ZN5boost2io18basic_altstringbufIcSt11char_traitsIcESaIcEE7seekoffElSt12_Ios_SeekdirSt13_Ios_Openmode@Base 0.9.8
 _ZN5boost2io18basic_altstringbufIcSt11char_traitsIcESaIcEE7seekposESt4fposI11__mbstate_tESt13_Ios_Openmode@Base 0.9.8
 _ZN5boost2io18basic_altstringbufIcSt11char_traitsIcESaIcEE8overflowEi@Base 0.9.8
 _ZN5boost2io18basic_altstringbufIcSt11char_traitsIcESaIcEE9pbackfailEi@Base 0.9.8
 _ZN5boost2io18basic_altstringbufIcSt11char_traitsIcESaIcEE9underflowEv@Base 0.9.8
 _ZN5boost2io18basic_altstringbufIcSt11char_traitsIcESaIcEED0Ev@Base 0.9.8
 _ZN5boost2io18basic_altstringbufIcSt11char_traitsIcESaIcEED1Ev@Base 0.9.8
 _ZN5boost2io18basic_altstringbufIcSt11char_traitsIcESaIcEED2Ev@Base 0.9.8
 _ZN5boost2io22basic_oaltstringstreamIcSt11char_traitsIcESaIcEEC1EPNS0_18basic_altstringbufIcS3_S4_EE@Base 0.9.8
 _ZN5boost2io22basic_oaltstringstreamIcSt11char_traitsIcESaIcEED0Ev@Base 0.9.8
 _ZN5boost2io22basic_oaltstringstreamIcSt11char_traitsIcESaIcEED1Ev@Base 0.9.8
 _ZN5boost2io6detail10distributeIcSt11char_traitsIcESaIcERKSsEEvRNS_12basic_formatIT_T0_T1_EET2_@Base 0.9.8
 _ZN5boost2io6detail10distributeIcSt11char_traitsIcESaIcERdEEvRNS_12basic_formatIT_T0_T1_EET2_@Base 0.9.8
 _ZN5boost2io6detail10distributeIcSt11char_traitsIcESaIcERiEEvRNS_12basic_formatIT_T0_T1_EET2_@Base 0.9.8
 _ZN5boost2io6detail10distributeIcSt11char_traitsIcESaIcERmEEvRNS_12basic_formatIT_T0_T1_EET2_@Base 0.9.8
 _ZN5boost2io6detail11format_itemIcSt11char_traitsIcESaIcEEC1ERKS6_@Base 0.9.8
 _ZN5boost2io6detail11format_itemIcSt11char_traitsIcESaIcEEC2ERKS6_@Base 0.9.8
 _ZN5boost2io6detail11format_itemIcSt11char_traitsIcESaIcEED1Ev@Base 0.9.8
 _ZN5boost2io6detail11format_itemIcSt11char_traitsIcESaIcEED2Ev@Base 0.9.8
 _ZN5boost2io6detail13skip_asteriskIN9__gnu_cxx17__normal_iteratorIPKcSsEESt5ctypeIcEEET_SA_SA_RKT0_@Base 0.9.8
 _ZN5boost2io6detail21maybe_throw_exceptionEhmm@Base 0.9.8
 _ZN5boost2io6detail22parse_printf_directiveIcSt11char_traitsIcESaIcEN9__gnu_cxx17__normal_iteratorIPKcSsEESt5ctypeIcEEEbRT2_RKSD_PNS1_11format_itemIT_T0_T1_EERKT3_mh@Base 0.9.8
 _ZN5boost2io6detail24upper_bound_from_fstringISsSt5ctypeIcEEEiRKT_NS5_10value_typeERKT0_h@Base 0.9.8
 _ZN5boost2io6detail3putIcSt11char_traitsIcESaIcERKSsEEvT2_RKNS1_11format_itemIT_T0_T1_EERNS_12basic_formatISA_SB_SC_E11string_typeERNSH_20internal_streambuf_tEPSt6locale@Base 0.9.8
 _ZN5boost2io6detail3putIcSt11char_traitsIcESaIcERKiEEvT2_RKNS1_11format_itemIT_T0_T1_EERNS_12basic_formatISA_SB_SC_E11string_typeERNSH_20internal_streambuf_tEPSt6locale@Base 0.9.8
 _ZN5boost2io6detail3putIcSt11char_traitsIcESaIcERdEEvT2_RKNS1_11format_itemIT_T0_T1_EERNS_12basic_formatIS9_SA_SB_E11string_typeERNSG_20internal_streambuf_tEPSt6locale@Base 0.9.8
 _ZN5boost2io6detail3putIcSt11char_traitsIcESaIcERiEEvT2_RKNS1_11format_itemIT_T0_T1_EERNS_12basic_formatIS9_SA_SB_E11string_typeERNSG_20internal_streambuf_tEPSt6locale@Base 0.9.8
 _ZN5boost2io6detail3putIcSt11char_traitsIcESaIcERmEEvT2_RKNS1_11format_itemIT_T0_T1_EERNS_12basic_formatIS9_SA_SB_E11string_typeERNSG_20internal_streambuf_tEPSt6locale@Base 0.9.8
 _ZN5boost2io6detail4feedIcSt11char_traitsIcESaIcERKiEERNS_12basic_formatIT_T0_T1_EESD_T2_@Base 0.9.8
 _ZN5boost2io6detail4feedIcSt11char_traitsIcESaIcERdEERNS_12basic_formatIT_T0_T1_EESC_T2_@Base 0.9.8
 _ZN5boost2io6detail4feedIcSt11char_traitsIcESaIcERiEERNS_12basic_formatIT_T0_T1_EESC_T2_@Base 0.9.8
 _ZN5boost2io6detail4feedIcSt11char_traitsIcESaIcERmEERNS_12basic_formatIT_T0_T1_EESC_T2_@Base 0.9.8
 _ZN5boost2io6detail6mk_strIcSt11char_traitsIcESaIcEEEvRSbIT_T0_T1_EPKS6_NS9_9size_typeElS6_St13_Ios_FmtflagsS6_b@Base 0.9.8
 _ZN5boost2io6detail7str2intIiN9__gnu_cxx17__normal_iteratorIPKcSsEESt5ctypeIcEEET0_RKSA_SC_RT_RKT1_@Base 0.9.8
 _ZN5boost2io6detail7str2intIlN9__gnu_cxx17__normal_iteratorIPKcSsEESt5ctypeIcEEET0_RKSA_SC_RT_RKT1_@Base 0.9.8
 _ZN5boost3any11placeholderD0Ev@Base 0.9.8
 _ZN5boost3any11placeholderD1Ev@Base 0.9.8
 _ZN5boost3any11placeholderD2Ev@Base 0.9.8
 _ZN5boost3any6holderINS_10last_valueIvEEED0Ev@Base 0.9.8
 _ZN5boost3any6holderINS_10last_valueIvEEED1Ev@Base 0.9.8
 _ZN5boost3any6holderINS_10last_valueIvEEED2Ev@Base 0.9.8
 _ZN5boost3any6holderINS_8functionIFvPN4rime7ContextEEEEED0Ev@Base 0.9.8
 _ZN5boost3any6holderINS_8functionIFvPN4rime7ContextEEEEED1Ev@Base 0.9.8
 _ZN5boost3any6holderINS_8functionIFvPN4rime7ContextEEEEED2Ev@Base 0.9.8
 _ZN5boost3any6holderINS_8functionIFvPN4rime7ContextERKNS3_8KeyEventEEEEED0Ev@Base 0.9.8
 _ZN5boost3any6holderINS_8functionIFvPN4rime7ContextERKNS3_8KeyEventEEEEED1Ev@Base 0.9.8
 _ZN5boost3any6holderINS_8functionIFvPN4rime7ContextERKNS3_8KeyEventEEEEED2Ev@Base 0.9.8
 _ZN5boost3any6holderINS_8functionIFvPN4rime7ContextERKSsEEEED0Ev@Base 0.9.8
 _ZN5boost3any6holderINS_8functionIFvPN4rime7ContextERKSsEEEED1Ev@Base 0.9.8
 _ZN5boost3any6holderINS_8functionIFvPN4rime7ContextERKSsEEEED2Ev@Base 0.9.8
 _ZN5boost3any6holderINS_8functionIFvRKSsEEEED0Ev@Base 0.9.8
 _ZN5boost3any6holderINS_8functionIFvRKSsEEEED1Ev@Base 0.9.8
 _ZN5boost3any6holderINS_8functionIFvRKSsEEEED2Ev@Base 0.9.8
 _ZN5boost3any6holderINS_8functionIFvRKSsS4_EEEED0Ev@Base 0.9.8
 _ZN5boost3any6holderINS_8functionIFvRKSsS4_EEEED1Ev@Base 0.9.8
 _ZN5boost3any6holderINS_8functionIFvRKSsS4_EEEED2Ev@Base 0.9.8
 _ZN5boost3anyC1INS_8functionIFvPN4rime7ContextEEEEEERKT_@Base 0.9.8
 _ZN5boost3anyC1INS_8functionIFvPN4rime7ContextERKSsEEEEERKT_@Base 0.9.8
 _ZN5boost3anyC1INS_8functionIFvRKSsEEEEERKT_@Base 0.9.8
 _ZN5boost3anyC1INS_8functionIFvRKSsS4_EEEEERKT_@Base 0.9.8
 _ZN5boost3anyC2INS_8functionIFvPN4rime7ContextEEEEEERKT_@Base 0.9.8
 _ZN5boost3anyC2INS_8functionIFvPN4rime7ContextERKSsEEEEERKT_@Base 0.9.8
 _ZN5boost3anyC2INS_8functionIFvRKSsEEEEERKT_@Base 0.9.8
 _ZN5boost3anyC2INS_8functionIFvRKSsS4_EEEEERKT_@Base 0.9.8
 _ZN5boost4bindIvN4rime14ConcreteEngineEPNS1_7ContextERKSsPS2_NS_3argILi1EEENS8_ILi2EEEEENS_3_bi6bind_tIT_NS_4_mfi3mf2ISD_T0_T1_T2_EENSB_9list_av_3IT3_T4_T5_E4typeEEEMSG_FSD_SH_SI_ESL_SM_SN_@Base 0.9.8
 _ZN5boost4bindIvN4rime14ConcreteEngineEPSt6vectorINS_10shared_ptrINS1_9CandidateEEESaIS6_EES9_PS2_NS_3argILi1EEENSB_ILi2EEEEENS_3_bi6bind_tIT_NS_4_mfi3mf2ISG_T0_T1_T2_EENSE_9list_av_3IT3_T4_T5_E4typeEEEMSJ_FSG_SK_SL_ESO_SP_SQ_@Base 0.9.8
 _ZN5boost4bindIvN4rime7ServiceEmRKSsS4_PS2_iNS_3argILi1EEENS6_ILi2EEEEENS_3_bi6bind_tIT_NS_4_mfi3mf3ISB_T0_T1_T2_T3_EENS9_9list_av_4IT4_T5_T6_T7_E4typeEEEMSE_FSB_SF_SG_SH_ESK_SL_SM_SN_@Base 0.9.8
 _ZN5boost4bindIvN4rime7ServiceEmRKSsS4_PS2_mNS_3argILi1EEENS6_ILi2EEEEENS_3_bi6bind_tIT_NS_4_mfi3mf3ISB_T0_T1_T2_T3_EENS9_9list_av_4IT4_T5_T6_T7_E4typeEEEMSE_FSB_SF_SG_SH_ESK_SL_SM_SN_@Base 0.9.8
 _ZN5boost4bindIvN4rime7SessionERKSsPS2_NS_3argILi1EEEEENS_3_bi6bind_tIT_NS_4_mfi3mf1ISA_T0_T1_EENS8_9list_av_2IT2_T3_E4typeEEEMSD_FSA_SE_ESH_SI_@Base 0.9.8
 _ZN5boost4slotINS_8functionIFvPN4rime7ContextEEEEEC1INS_3_bi6bind_tIvNS_4_mfi3mf1IvNS2_14ConcreteEngineES4_EENS9_5list2INS9_5valueIPSD_EENS_3argILi1EEEEEEEEERKT_@Base 0.9.8
 _ZN5boost4slotINS_8functionIFvPN4rime7ContextEEEEEC2INS_3_bi6bind_tIvNS_4_mfi3mf1IvNS2_14ConcreteEngineES4_EENS9_5list2INS9_5valueIPSD_EENS_3argILi1EEEEEEEEERKT_@Base 0.9.8
 _ZN5boost4slotINS_8functionIFvPN4rime7ContextEEEEED1Ev@Base 0.9.8
 _ZN5boost4slotINS_8functionIFvPN4rime7ContextEEEEED2Ev@Base 0.9.8
 _ZN5boost4slotINS_8functionIFvPN4rime7ContextERKNS2_8KeyEventEEEEED1Ev@Base 0.9.8
 _ZN5boost4slotINS_8functionIFvPN4rime7ContextERKNS2_8KeyEventEEEEED2Ev@Base 0.9.8
 _ZN5boost4slotINS_8functionIFvPN4rime7ContextERKSsEEEEC1INS_3_bi6bind_tIvNS_4_mfi3mf2IvNS2_14ConcreteEngineES4_S6_EENSB_5list3INSB_5valueIPSF_EENS_3argILi1EEENSL_ILi2EEEEEEEEERKT_@Base 0.9.8
 _ZN5boost4slotINS_8functionIFvPN4rime7ContextERKSsEEEEC2INS_3_bi6bind_tIvNS_4_mfi3mf2IvNS2_14ConcreteEngineES4_S6_EENSB_5list3INSB_5valueIPSF_EENS_3argILi1EEENSL_ILi2EEEEEEEEERKT_@Base 0.9.8
 _ZN5boost4slotINS_8functionIFvPN4rime7ContextERKSsEEEED1Ev@Base 0.9.8
 _ZN5boost4slotINS_8functionIFvPN4rime7ContextERKSsEEEED2Ev@Base 0.9.8
 _ZN5boost4slotINS_8functionIFvRKSsEEEEC1INS_3_bi6bind_tIvNS_4_mfi3mf1IvN4rime7SessionES3_EENS8_5list2INS8_5valueIPSD_EENS_3argILi1EEEEEEEEERKT_@Base 0.9.8
 _ZN5boost4slotINS_8functionIFvRKSsEEEEC2INS_3_bi6bind_tIvNS_4_mfi3mf1IvN4rime7SessionES3_EENS8_5list2INS8_5valueIPSD_EENS_3argILi1EEEEEEEEERKT_@Base 0.9.8
 _ZN5boost4slotINS_8functionIFvRKSsEEEED1Ev@Base 0.9.8
 _ZN5boost4slotINS_8functionIFvRKSsEEEED2Ev@Base 0.9.8
 _ZN5boost4slotINS_8functionIFvRKSsS3_EEEEC1INS_3_bi6bind_tIvNS_4_mfi3mf3IvN4rime7ServiceEmS3_S3_EENS8_5list4INS8_5valueIPSD_EENSG_IiEENS_3argILi1EEENSK_ILi2EEEEEEEEERKT_@Base 0.9.8
 _ZN5boost4slotINS_8functionIFvRKSsS3_EEEEC1INS_3_bi6bind_tIvNS_4_mfi3mf3IvN4rime7ServiceEmS3_S3_EENS8_5list4INS8_5valueIPSD_EENSG_ImEENS_3argILi1EEENSK_ILi2EEEEEEEEERKT_@Base 0.9.8
 _ZN5boost4slotINS_8functionIFvRKSsS3_EEEEC2INS_3_bi6bind_tIvNS_4_mfi3mf3IvN4rime7ServiceEmS3_S3_EENS8_5list4INS8_5valueIPSD_EENSG_IiEENS_3argILi1EEENSK_ILi2EEEEEEEEERKT_@Base 0.9.8
 _ZN5boost4slotINS_8functionIFvRKSsS3_EEEEC2INS_3_bi6bind_tIvNS_4_mfi3mf3IvN4rime7ServiceEmS3_S3_EENS8_5list4INS8_5valueIPSD_EENSG_ImEENS_3argILi1EEENSK_ILi2EEEEEEEEERKT_@Base 0.9.8
 _ZN5boost4slotINS_8functionIFvRKSsS3_EEEED1Ev@Base 0.9.8
 _ZN5boost4slotINS_8functionIFvRKSsS3_EEEED2Ev@Base 0.9.8
 _ZN5boost5mutex4lockEv@Base 0.9.8
 _ZN5boost5mutex6unlockEv@Base 0.9.8
 _ZN5boost5mutexD1Ev@Base 0.9.8
 _ZN5boost5mutexD2Ev@Base 0.9.8
 _ZN5boost5uuids22basic_random_generatorINS_6random23mersenne_twister_engineIjLm32ELm624ELm397ELm31ELj2567483615ELm11ELj4294967295ELm7ELj2636928640ELm15ELj4022730752ELm18ELj1812433253EEEEC1Ev@Base 0.9.8
 _ZN5boost5uuids22basic_random_generatorINS_6random23mersenne_twister_engineIjLm32ELm624ELm397ELm31ELj2567483615ELm11ELj4294967295ELm7ELj2636928640ELm15ELj4022730752ELm18ELj1812433253EEEEC2Ev@Base 0.9.8
 _ZN5boost5uuids22basic_random_generatorINS_6random23mersenne_twister_engineIjLm32ELm624ELm397ELm31ELj2567483615ELm11ELj4294967295ELm7ELj2636928640ELm15ELj4022730752ELm18ELj1812433253EEEED1Ev@Base 0.9.8
 _ZN5boost5uuids22basic_random_generatorINS_6random23mersenne_twister_engineIjLm32ELm624ELm397ELm31ELj2567483615ELm11ELj4294967295ELm7ELj2636928640ELm15ELj4022730752ELm18ELj1812433253EEEED2Ev@Base 0.9.8
 _ZN5boost5uuids22basic_random_generatorINS_6random23mersenne_twister_engineIjLm32ELm624ELm397ELm31ELj2567483615ELm11ELj4294967295ELm7ELj2636928640ELm15ELj4022730752ELm18ELj1812433253EEEEclEv@Base 0.9.8
 _ZN5boost5uuids6detail4seedINS_6random23mersenne_twister_engineIjLm32ELm624ELm397ELm31ELj2567483615ELm11ELj4294967295ELm7ELj2636928640ELm15ELj4022730752ELm18ELj1812433253EEEEEvRT_@Base 0.9.8
 _ZN5boost5uuids6detail4sha110get_digestERA5_j@Base 0.9.8
 _ZN5boost5uuids6detail4sha113process_blockEPKvS4_@Base 0.9.8
 _ZN5boost5uuids6detail4sha113process_blockEv@Base 0.9.8
 _ZN5boost5uuids6detail8seed_rng19sha1_random_digest_Ev@Base 0.9.8
 _ZN5boost5uuids6detail8seed_rngD1Ev@Base 0.9.8
 _ZN5boost5uuids6detail8seed_rngD2Ev@Base 0.9.8
 _ZN5boost5uuids9to_stringERKNS0_4uuidE@Base 0.9.8
 _ZN5boost6detail10weak_countaSERKNS0_12shared_countE@Base 0.9.8
 _ZN5boost6detail11crc_table_tILm32ELj79764919ELb1EE10init_tableEv@Base 0.9.8
 _ZN5boost6detail11crc_table_tILm32ELj79764919ELb1EE6table_E@Base 0.9.8
 _ZN5boost6detail11thread_dataINS_3_bi6bind_tIbNS_4_mfi3mf0IbN4rime8DeployerEEENS2_5list1INS2_5valueIPS7_EEEEEEE3runEv@Base 0.9.8
 _ZN5boost6detail11thread_dataINS_3_bi6bind_tIbNS_4_mfi3mf0IbN4rime8DeployerEEENS2_5list1INS2_5valueIPS7_EEEEEEED0Ev@Base 0.9.8
 _ZN5boost6detail11thread_dataINS_3_bi6bind_tIbNS_4_mfi3mf0IbN4rime8DeployerEEENS2_5list1INS2_5valueIPS7_EEEEEEED1Ev@Base 0.9.8
 _ZN5boost6detail11thread_dataINS_3_bi6bind_tIbNS_4_mfi3mf0IbN4rime8DeployerEEENS2_5list1INS2_5valueIPS7_EEEEEEED2Ev@Base 0.9.8
 _ZN5boost6detail12shared_countC1ERKNS0_10weak_countENS0_14sp_nothrow_tagE@Base 0.9.8
 _ZN5boost6detail12shared_countC1INS_10filesystem6detail11dir_itr_impEEEPT_@Base 0.9.8
 _ZN5boost6detail12shared_countC1INS_16exception_detail10clone_implINS3_10bad_alloc_EEEEEPT_@Base 0.9.8
 _ZN5boost6detail12shared_countC1INS_16exception_detail10clone_implINS3_14bad_exception_EEEEEPT_@Base 0.9.8
 _ZN5boost6detail12shared_countC1INS_6random23mersenne_twister_engineIjLm32ELm624ELm397ELm31ELj2567483615ELm11ELj4294967295ELm7ELj2636928640ELm15ELj4022730752ELm18ELj1812433253EEEEEPT_@Base 0.9.8
 _ZN5boost6detail12shared_countC1IPN4rime10ConfigDataENS0_13sp_ms_deleterIS4_EEEET_NS0_14sp_inplace_tagIT0_EE@Base 0.9.8
 _ZN5boost6detail12shared_countC1IPN4rime10ConfigListENS0_13sp_ms_deleterIS4_EEEET_NS0_14sp_inplace_tagIT0_EE@Base 0.9.8
 _ZN5boost6detail12shared_countC1IPN4rime11ConfigValueENS0_13sp_ms_deleterIS4_EEEET_NS0_14sp_inplace_tagIT0_EE@Base 0.9.8
 _ZN5boost6detail12shared_countC1IPN4rime12CleanUpTrashENS0_13sp_ms_deleterIS4_EEEET_NS0_14sp_inplace_tagIT0_EE@Base 0.9.8
 _ZN5boost6detail12shared_countC1IPN4rime12UniqueFilterENS0_13sp_ms_deleterIS4_EEEET_NS0_14sp_inplace_tagIT0_EE@Base 0.9.8
 _ZN5boost6detail12shared_countC1IPN4rime12UserDictSyncENS0_13sp_ms_deleterIS4_EEEET_NS0_14sp_inplace_tagIT0_EE@Base 0.9.8
 _ZN5boost6detail12shared_countC1IPN4rime13CharsetFilterENS0_13sp_ms_deleterIS4_EEEET_NS0_14sp_inplace_tagIT0_EE@Base 0.9.8
 _ZN5boost6detail12shared_countC1IPN4rime15R10nTranslationENS0_13sp_ms_deleterIS4_EEEET_NS0_14sp_inplace_tagIT0_EE@Base 0.9.8
 _ZN5boost6detail12shared_countC1IPN4rime15ShadowCandidateENS0_13sp_ms_deleterIS4_EEEET_NS0_14sp_inplace_tagIT0_EE@Base 0.9.8
 _ZN5boost6detail12shared_countC1IPN4rime15WorkspaceUpdateENS0_13sp_ms_deleterIS4_EEEET_NS0_14sp_inplace_tagIT0_EE@Base 0.9.8
 _ZN5boost6detail12shared_countC1IPN4rime16TableTranslationENS0_13sp_ms_deleterIS4_EEEET_NS0_14sp_inplace_tagIT0_EE@Base 0.9.8
 _ZN5boost6detail12shared_countC1IPN4rime17BackupConfigFilesENS0_13sp_ms_deleterIS4_EEEET_NS0_14sp_inplace_tagIT0_EE@Base 0.9.8
 _ZN5boost6detail12shared_countC1IPN4rime17UserDictUpgrationENS0_13sp_ms_deleterIS4_EEEET_NS0_14sp_inplace_tagIT0_EE@Base 0.9.8
 _ZN5boost6detail12shared_countC1IPN4rime18DictEntryCollectorENS0_13sp_ms_deleterIS4_EEEET_NS0_14sp_inplace_tagIT0_EE@Base 0.9.8
 _ZN5boost6detail12shared_countC1IPN4rime18InstallationUpdateENS0_13sp_ms_deleterIS4_EEEET_NS0_14sp_inplace_tagIT0_EE@Base 0.9.8
 _ZN5boost6detail12shared_countC1IPN4rime19SentenceTranslationENS0_13sp_ms_deleterIS4_EEEET_NS0_14sp_inplace_tagIT0_EE@Base 0.9.8
 _ZN5boost6detail12shared_countC1IPN4rime20LazyTableTranslationENS0_13sp_ms_deleterIS4_EEEET_NS0_14sp_inplace_tagIT0_EE@Base 0.9.8
 _ZN5boost6detail12shared_countC1IPN4rime5PrismENS0_13sp_ms_deleterIS4_EEEET_NS0_14sp_inplace_tagIT0_EE@Base 0.9.8
 _ZN5boost6detail12shared_countC1IPN4rime5TableENS0_13sp_ms_deleterIS4_EEEET_NS0_14sp_inplace_tagIT0_EE@Base 0.9.8
 _ZN5boost6detail12shared_countC1IPN4rime6PhraseENS0_13sp_ms_deleterIS4_EEEET_NS0_14sp_inplace_tagIT0_EE@Base 0.9.8
 _ZN5boost6detail12shared_countC1IPN4rime8SentenceENS0_13sp_ms_deleterIS4_EEEET_NS0_14sp_inplace_tagIT0_EE@Base 0.9.8
 _ZN5boost6detail12shared_countC1IPN4rime9ConfigMapENS0_13sp_ms_deleterIS4_EEEET_NS0_14sp_inplace_tagIT0_EE@Base 0.9.8
 _ZN5boost6detail12shared_countC1IPN4rime9DictEntryENS0_13sp_ms_deleterIS4_EEEET_NS0_14sp_inplace_tagIT0_EE@Base 0.9.8
 _ZN5boost6detail12shared_countC2ERKNS0_10weak_countENS0_14sp_nothrow_tagE@Base 0.9.8
 _ZN5boost6detail12shared_countC2INS_10filesystem6detail11dir_itr_impEEEPT_@Base 0.9.8
 _ZN5boost6detail12shared_countC2INS_16exception_detail10clone_implINS3_10bad_alloc_EEEEEPT_@Base 0.9.8
 _ZN5boost6detail12shared_countC2INS_16exception_detail10clone_implINS3_14bad_exception_EEEEEPT_@Base 0.9.8
 _ZN5boost6detail12shared_countC2INS_6random23mersenne_twister_engineIjLm32ELm624ELm397ELm31ELj2567483615ELm11ELj4294967295ELm7ELj2636928640ELm15ELj4022730752ELm18ELj1812433253EEEEEPT_@Base 0.9.8
 _ZN5boost6detail12shared_countC2IPN4rime10ConfigDataENS0_13sp_ms_deleterIS4_EEEET_NS0_14sp_inplace_tagIT0_EE@Base 0.9.8
 _ZN5boost6detail12shared_countC2IPN4rime10ConfigListENS0_13sp_ms_deleterIS4_EEEET_NS0_14sp_inplace_tagIT0_EE@Base 0.9.8
 _ZN5boost6detail12shared_countC2IPN4rime11ConfigValueENS0_13sp_ms_deleterIS4_EEEET_NS0_14sp_inplace_tagIT0_EE@Base 0.9.8
 _ZN5boost6detail12shared_countC2IPN4rime12CleanUpTrashENS0_13sp_ms_deleterIS4_EEEET_NS0_14sp_inplace_tagIT0_EE@Base 0.9.8
 _ZN5boost6detail12shared_countC2IPN4rime12UniqueFilterENS0_13sp_ms_deleterIS4_EEEET_NS0_14sp_inplace_tagIT0_EE@Base 0.9.8
 _ZN5boost6detail12shared_countC2IPN4rime12UserDictSyncENS0_13sp_ms_deleterIS4_EEEET_NS0_14sp_inplace_tagIT0_EE@Base 0.9.8
 _ZN5boost6detail12shared_countC2IPN4rime13CharsetFilterENS0_13sp_ms_deleterIS4_EEEET_NS0_14sp_inplace_tagIT0_EE@Base 0.9.8
 _ZN5boost6detail12shared_countC2IPN4rime15R10nTranslationENS0_13sp_ms_deleterIS4_EEEET_NS0_14sp_inplace_tagIT0_EE@Base 0.9.8
 _ZN5boost6detail12shared_countC2IPN4rime15ShadowCandidateENS0_13sp_ms_deleterIS4_EEEET_NS0_14sp_inplace_tagIT0_EE@Base 0.9.8
 _ZN5boost6detail12shared_countC2IPN4rime15WorkspaceUpdateENS0_13sp_ms_deleterIS4_EEEET_NS0_14sp_inplace_tagIT0_EE@Base 0.9.8
 _ZN5boost6detail12shared_countC2IPN4rime16TableTranslationENS0_13sp_ms_deleterIS4_EEEET_NS0_14sp_inplace_tagIT0_EE@Base 0.9.8
 _ZN5boost6detail12shared_countC2IPN4rime17BackupConfigFilesENS0_13sp_ms_deleterIS4_EEEET_NS0_14sp_inplace_tagIT0_EE@Base 0.9.8
 _ZN5boost6detail12shared_countC2IPN4rime17UserDictUpgrationENS0_13sp_ms_deleterIS4_EEEET_NS0_14sp_inplace_tagIT0_EE@Base 0.9.8
 _ZN5boost6detail12shared_countC2IPN4rime18DictEntryCollectorENS0_13sp_ms_deleterIS4_EEEET_NS0_14sp_inplace_tagIT0_EE@Base 0.9.8
 _ZN5boost6detail12shared_countC2IPN4rime18InstallationUpdateENS0_13sp_ms_deleterIS4_EEEET_NS0_14sp_inplace_tagIT0_EE@Base 0.9.8
 _ZN5boost6detail12shared_countC2IPN4rime19SentenceTranslationENS0_13sp_ms_deleterIS4_EEEET_NS0_14sp_inplace_tagIT0_EE@Base 0.9.8
 _ZN5boost6detail12shared_countC2IPN4rime20LazyTableTranslationENS0_13sp_ms_deleterIS4_EEEET_NS0_14sp_inplace_tagIT0_EE@Base 0.9.8
 _ZN5boost6detail12shared_countC2IPN4rime5PrismENS0_13sp_ms_deleterIS4_EEEET_NS0_14sp_inplace_tagIT0_EE@Base 0.9.8
 _ZN5boost6detail12shared_countC2IPN4rime5TableENS0_13sp_ms_deleterIS4_EEEET_NS0_14sp_inplace_tagIT0_EE@Base 0.9.8
 _ZN5boost6detail12shared_countC2IPN4rime6PhraseENS0_13sp_ms_deleterIS4_EEEET_NS0_14sp_inplace_tagIT0_EE@Base 0.9.8
 _ZN5boost6detail12shared_countC2IPN4rime8SentenceENS0_13sp_ms_deleterIS4_EEEET_NS0_14sp_inplace_tagIT0_EE@Base 0.9.8
 _ZN5boost6detail12shared_countC2IPN4rime9ConfigMapENS0_13sp_ms_deleterIS4_EEEET_NS0_14sp_inplace_tagIT0_EE@Base 0.9.8
 _ZN5boost6detail12shared_countC2IPN4rime9DictEntryENS0_13sp_ms_deleterIS4_EEEET_NS0_14sp_inplace_tagIT0_EE@Base 0.9.8
 _ZN5boost6detail12shared_countD1Ev@Base 0.9.8
 _ZN5boost6detail12shared_countD2Ev@Base 0.9.8
 _ZN5boost6detail13sp_ms_deleterIN4rime10ConfigDataEE7destroyEv@Base 0.9.8
 _ZN5boost6detail13sp_ms_deleterIN4rime10ConfigListEE7destroyEv@Base 0.9.8
 _ZN5boost6detail13sp_ms_deleterIN4rime10VocabularyEE7destroyEv@Base 0.9.8
 _ZN5boost6detail13sp_ms_deleterIN4rime11ConfigValueEE7destroyEv@Base 0.9.8
 _ZN5boost6detail13sp_ms_deleterIN4rime12CleanUpTrashEE7destroyEv@Base 0.9.8
 _ZN5boost6detail13sp_ms_deleterIN4rime12UniqueFilterEE7destroyEv@Base 0.9.8
 _ZN5boost6detail13sp_ms_deleterIN4rime12UserDictSyncEE7destroyEv@Base 0.9.8
 _ZN5boost6detail13sp_ms_deleterIN4rime13CharsetFilterEE7destroyEv@Base 0.9.8
 _ZN5boost6detail13sp_ms_deleterIN4rime13DictEntryListEE7destroyEv@Base 0.9.8
 _ZN5boost6detail13sp_ms_deleterIN4rime14SwitcherOptionEE7destroyEv@Base 0.9.8
 _ZN5boost6detail13sp_ms_deleterIN4rime14TreeDbAccessorEE7destroyEv@Base 0.9.8
 _ZN5boost6detail13sp_ms_deleterIN4rime15EchoTranslationEE7destroyEv@Base 0.9.8
 _ZN5boost6detail13sp_ms_deleterIN4rime15FifoTranslationEE7destroyEv@Base 0.9.8
 _ZN5boost6detail13sp_ms_deleterIN4rime15R10nTranslationEE7destroyEv@Base 0.9.8
 _ZN5boost6detail13sp_ms_deleterIN4rime15ShadowCandidateEE7destroyEv@Base 0.9.8
 _ZN5boost6detail13sp_ms_deleterIN4rime15SimpleCandidateEE7destroyEv@Base 0.9.8
 _ZN5boost6detail13sp_ms_deleterIN4rime15WorkspaceUpdateEE7destroyEv@Base 0.9.8
 _ZN5boost6detail13sp_ms_deleterIN4rime16TableTranslationEE7destroyEv@Base 0.9.8
 _ZN5boost6detail13sp_ms_deleterIN4rime17BackupConfigFilesEE7destroyEv@Base 0.9.8
 _ZN5boost6detail13sp_ms_deleterIN4rime17UniqueTranslationEE7destroyEv@Base 0.9.8
 _ZN5boost6detail13sp_ms_deleterIN4rime17UserDictUpgrationEE7destroyEv@Base 0.9.8
 _ZN5boost6detail13sp_ms_deleterIN4rime18DictEntryCollectorEE7destroyEv@Base 0.9.8
 _ZN5boost6detail13sp_ms_deleterIN4rime18InstallationUpdateEE7destroyEv@Base 0.9.8
 _ZN5boost6detail13sp_ms_deleterIN4rime19SentenceTranslationEE7destroyEv@Base 0.9.8
 _ZN5boost6detail13sp_ms_deleterIN4rime19UniquifiedCandidateEE7destroyEv@Base 0.9.8
 _ZN5boost6detail13sp_ms_deleterIN4rime20LazyTableTranslationEE7destroyEv@Base 0.9.8
 _ZN5boost6detail13sp_ms_deleterIN4rime22UserDictEntryCollectorEE7destroyEv@Base 0.9.8
 _ZN5boost6detail13sp_ms_deleterIN4rime24ReverseLookupTranslationEE7destroyEv@Base 0.9.8
 _ZN5boost6detail13sp_ms_deleterIN4rime4MenuEE7destroyEv@Base 0.9.8
 _ZN5boost6detail13sp_ms_deleterIN4rime5PrismEE7destroyEv@Base 0.9.8
 _ZN5boost6detail13sp_ms_deleterIN4rime5TableEE7destroyEv@Base 0.9.8
 _ZN5boost6detail13sp_ms_deleterIN4rime6PhraseEE7destroyEv@Base 0.9.8
 _ZN5boost6detail13sp_ms_deleterIN4rime6TreeDbEE7destroyEv@Base 0.9.8
 _ZN5boost6detail13sp_ms_deleterIN4rime6UserDbEE7destroyEv@Base 0.9.8
 _ZN5boost6detail13sp_ms_deleterIN4rime7SessionEE7destroyEv@Base 0.9.8
 _ZN5boost6detail13sp_ms_deleterIN4rime8SentenceEE7destroyEv@Base 0.9.8
 _ZN5boost6detail13sp_ms_deleterIN4rime9ConfigMapEE7destroyEv@Base 0.9.8
 _ZN5boost6detail13sp_ms_deleterIN4rime9DictEntryEE7destroyEv@Base 0.9.8
 _ZN5boost6detail15lcast_ret_floatISt11char_traitsIcEdcEEbRT0_PKT1_S8_@Base 0.9.8
 _ZN5boost6detail15sp_counted_base12weak_releaseEv@Base 0.9.8
 _ZN5boost6detail15sp_counted_base7destroyEv@Base 0.9.8
 _ZN5boost6detail15sp_counted_base7releaseEv@Base 0.9.8
 _ZN5boost6detail15sp_counted_baseD0Ev@Base 0.9.8
 _ZN5boost6detail15sp_counted_baseD1Ev@Base 0.9.8
 _ZN5boost6detail15sp_counted_baseD2Ev@Base 0.9.8
 _ZN5boost6detail16put_inf_nan_implIcdEEbPT_RS3_RKT0_PKS2_S9_@Base 0.9.8
 _ZN5boost6detail16thread_data_base25notify_all_at_thread_exitEPNS_18condition_variableEPNS_5mutexE@Base 0.9.8
 _ZN5boost6detail16thread_data_baseC1Ev@Base 0.9.8
 _ZN5boost6detail16thread_data_baseC2Ev@Base 0.9.8
 _ZN5boost6detail17sp_counted_impl_pIN12kyotocabinet7PlantDBINS2_6HashDBELh49EEEE11get_deleterERKSt9type_info@Base 0.9.8
 _ZN5boost6detail17sp_counted_impl_pIN12kyotocabinet7PlantDBINS2_6HashDBELh49EEEE19get_untyped_deleterEv@Base 0.9.8
 _ZN5boost6detail17sp_counted_impl_pIN12kyotocabinet7PlantDBINS2_6HashDBELh49EEEE7disposeEv@Base 0.9.8
 _ZN5boost6detail17sp_counted_impl_pIN12kyotocabinet7PlantDBINS2_6HashDBELh49EEEED0Ev@Base 0.9.8
 _ZN5boost6detail17sp_counted_impl_pIN12kyotocabinet7PlantDBINS2_6HashDBELh49EEEED1Ev@Base 0.9.8
 _ZN5boost6detail17sp_counted_impl_pIN12kyotocabinet7PlantDBINS2_6HashDBELh49EEEED2Ev@Base 0.9.8
 _ZN5boost6detail17sp_counted_impl_pIN4rime10TranslatorEE11get_deleterERKSt9type_info@Base 0.9.8
 _ZN5boost6detail17sp_counted_impl_pIN4rime10TranslatorEE19get_untyped_deleterEv@Base 0.9.8
 _ZN5boost6detail17sp_counted_impl_pIN4rime10TranslatorEE7disposeEv@Base 0.9.8
 _ZN5boost6detail17sp_counted_impl_pIN4rime10TranslatorEED0Ev@Base 0.9.8
 _ZN5boost6detail17sp_counted_impl_pIN4rime10TranslatorEED1Ev@Base 0.9.8
 _ZN5boost6detail17sp_counted_impl_pIN4rime10TranslatorEED2Ev@Base 0.9.8
 _ZN5boost6detail17sp_counted_impl_pIN4rime11CalculationEE11get_deleterERKSt9type_info@Base 0.9.8
 _ZN5boost6detail17sp_counted_impl_pIN4rime11CalculationEE19get_untyped_deleterEv@Base 0.9.8
 _ZN5boost6detail17sp_counted_impl_pIN4rime11CalculationEE7disposeEv@Base 0.9.8
 _ZN5boost6detail17sp_counted_impl_pIN4rime11CalculationEED0Ev@Base 0.9.8
 _ZN5boost6detail17sp_counted_impl_pIN4rime11CalculationEED1Ev@Base 0.9.8
 _ZN5boost6detail17sp_counted_impl_pIN4rime11CalculationEED2Ev@Base 0.9.8
 _ZN5boost6detail17sp_counted_impl_pIN4rime15FifoTranslationEE11get_deleterERKSt9type_info@Base 0.9.8
 _ZN5boost6detail17sp_counted_impl_pIN4rime15FifoTranslationEE19get_untyped_deleterEv@Base 0.9.8
 _ZN5boost6detail17sp_counted_impl_pIN4rime15FifoTranslationEE7disposeEv@Base 0.9.8
 _ZN5boost6detail17sp_counted_impl_pIN4rime15FifoTranslationEED0Ev@Base 0.9.8
 _ZN5boost6detail17sp_counted_impl_pIN4rime15FifoTranslationEED1Ev@Base 0.9.8
 _ZN5boost6detail17sp_counted_impl_pIN4rime15FifoTranslationEED2Ev@Base 0.9.8
 _ZN5boost6detail17sp_counted_impl_pIN4rime6FilterEE11get_deleterERKSt9type_info@Base 0.9.8
 _ZN5boost6detail17sp_counted_impl_pIN4rime6FilterEE19get_untyped_deleterEv@Base 0.9.8
 _ZN5boost6detail17sp_counted_impl_pIN4rime6FilterEE7disposeEv@Base 0.9.8
 _ZN5boost6detail17sp_counted_impl_pIN4rime6FilterEED0Ev@Base 0.9.8
 _ZN5boost6detail17sp_counted_impl_pIN4rime6FilterEED1Ev@Base 0.9.8
 _ZN5boost6detail17sp_counted_impl_pIN4rime6FilterEED2Ev@Base 0.9.8
 _ZN5boost6detail17sp_counted_impl_pIN4rime9ProcessorEE11get_deleterERKSt9type_info@Base 0.9.8
 _ZN5boost6detail17sp_counted_impl_pIN4rime9ProcessorEE19get_untyped_deleterEv@Base 0.9.8
 _ZN5boost6detail17sp_counted_impl_pIN4rime9ProcessorEE7disposeEv@Base 0.9.8
 _ZN5boost6detail17sp_counted_impl_pIN4rime9ProcessorEED0Ev@Base 0.9.8
 _ZN5boost6detail17sp_counted_impl_pIN4rime9ProcessorEED1Ev@Base 0.9.8
 _ZN5boost6detail17sp_counted_impl_pIN4rime9ProcessorEED2Ev@Base 0.9.8
 _ZN5boost6detail17sp_counted_impl_pIN4rime9SegmentorEE11get_deleterERKSt9type_info@Base 0.9.8
 _ZN5boost6detail17sp_counted_impl_pIN4rime9SegmentorEE19get_untyped_deleterEv@Base 0.9.8
 _ZN5boost6detail17sp_counted_impl_pIN4rime9SegmentorEE7disposeEv@Base 0.9.8
 _ZN5boost6detail17sp_counted_impl_pIN4rime9SegmentorEED0Ev@Base 0.9.8
 _ZN5boost6detail17sp_counted_impl_pIN4rime9SegmentorEED1Ev@Base 0.9.8
 _ZN5boost6detail17sp_counted_impl_pIN4rime9SegmentorEED2Ev@Base 0.9.8
 _ZN5boost6detail17sp_counted_impl_pINS0_11thread_dataINS_3_bi6bind_tIbNS_4_mfi3mf0IbN4rime8DeployerEEENS3_5list1INS3_5valueIPS8_EEEEEEEEE11get_deleterERKSt9type_info@Base 0.9.8
 _ZN5boost6detail17sp_counted_impl_pINS0_11thread_dataINS_3_bi6bind_tIbNS_4_mfi3mf0IbN4rime8DeployerEEENS3_5list1INS3_5valueIPS8_EEEEEEEEE19get_untyped_deleterEv@Base 0.9.8
 _ZN5boost6detail17sp_counted_impl_pINS0_11thread_dataINS_3_bi6bind_tIbNS_4_mfi3mf0IbN4rime8DeployerEEENS3_5list1INS3_5valueIPS8_EEEEEEEEE7disposeEv@Base 0.9.8
 _ZN5boost6detail17sp_counted_impl_pINS0_11thread_dataINS_3_bi6bind_tIbNS_4_mfi3mf0IbN4rime8DeployerEEENS3_5list1INS3_5valueIPS8_EEEEEEEEED0Ev@Base 0.9.8
 _ZN5boost6detail17sp_counted_impl_pINS0_11thread_dataINS_3_bi6bind_tIbNS_4_mfi3mf0IbN4rime8DeployerEEENS3_5list1INS3_5valueIPS8_EEEEEEEEED1Ev@Base 0.9.8
 _ZN5boost6detail17sp_counted_impl_pINS0_11thread_dataINS_3_bi6bind_tIbNS_4_mfi3mf0IbN4rime8DeployerEEENS3_5list1INS3_5valueIPS8_EEEEEEEEED2Ev@Base 0.9.8
 _ZN5boost6detail17sp_counted_impl_pINS_10filesystem6detail11dir_itr_impEE11get_deleterERKSt9type_info@Base 0.9.8
 _ZN5boost6detail17sp_counted_impl_pINS_10filesystem6detail11dir_itr_impEE19get_untyped_deleterEv@Base 0.9.8
 _ZN5boost6detail17sp_counted_impl_pINS_10filesystem6detail11dir_itr_impEE7disposeEv@Base 0.9.8
 _ZN5boost6detail17sp_counted_impl_pINS_10filesystem6detail11dir_itr_impEED0Ev@Base 0.9.8
 _ZN5boost6detail17sp_counted_impl_pINS_10filesystem6detail11dir_itr_impEED1Ev@Base 0.9.8
 _ZN5boost6detail17sp_counted_impl_pINS_10filesystem6detail11dir_itr_impEED2Ev@Base 0.9.8
 _ZN5boost6detail17sp_counted_impl_pINS_16exception_detail10clone_implINS2_10bad_alloc_EEEE11get_deleterERKSt9type_info@Base 0.9.8
 _ZN5boost6detail17sp_counted_impl_pINS_16exception_detail10clone_implINS2_10bad_alloc_EEEE19get_untyped_deleterEv@Base 0.9.8
 _ZN5boost6detail17sp_counted_impl_pINS_16exception_detail10clone_implINS2_10bad_alloc_EEEE7disposeEv@Base 0.9.8
 _ZN5boost6detail17sp_counted_impl_pINS_16exception_detail10clone_implINS2_10bad_alloc_EEEED0Ev@Base 0.9.8
 _ZN5boost6detail17sp_counted_impl_pINS_16exception_detail10clone_implINS2_10bad_alloc_EEEED1Ev@Base 0.9.8
 _ZN5boost6detail17sp_counted_impl_pINS_16exception_detail10clone_implINS2_10bad_alloc_EEEED2Ev@Base 0.9.8
 _ZN5boost6detail17sp_counted_impl_pINS_16exception_detail10clone_implINS2_14bad_exception_EEEE11get_deleterERKSt9type_info@Base 0.9.8
 _ZN5boost6detail17sp_counted_impl_pINS_16exception_detail10clone_implINS2_14bad_exception_EEEE19get_untyped_deleterEv@Base 0.9.8
 _ZN5boost6detail17sp_counted_impl_pINS_16exception_detail10clone_implINS2_14bad_exception_EEEE7disposeEv@Base 0.9.8
 _ZN5boost6detail17sp_counted_impl_pINS_16exception_detail10clone_implINS2_14bad_exception_EEEED0Ev@Base 0.9.8
 _ZN5boost6detail17sp_counted_impl_pINS_16exception_detail10clone_implINS2_14bad_exception_EEEED1Ev@Base 0.9.8
 _ZN5boost6detail17sp_counted_impl_pINS_16exception_detail10clone_implINS2_14bad_exception_EEEED2Ev@Base 0.9.8
 _ZN5boost6detail17sp_counted_impl_pINS_29regex_iterator_implementationIN9__gnu_cxx17__normal_iteratorIPKcSsEEcNS_12regex_traitsIcNS_16cpp_regex_traitsIcEEEEEEE11get_deleterERKSt9type_info@Base 0.9.8
 _ZN5boost6detail17sp_counted_impl_pINS_29regex_iterator_implementationIN9__gnu_cxx17__normal_iteratorIPKcSsEEcNS_12regex_traitsIcNS_16cpp_regex_traitsIcEEEEEEE19get_untyped_deleterEv@Base 0.9.8
 _ZN5boost6detail17sp_counted_impl_pINS_29regex_iterator_implementationIN9__gnu_cxx17__normal_iteratorIPKcSsEEcNS_12regex_traitsIcNS_16cpp_regex_traitsIcEEEEEEE7disposeEv@Base 0.9.8
 _ZN5boost6detail17sp_counted_impl_pINS_29regex_iterator_implementationIN9__gnu_cxx17__normal_iteratorIPKcSsEEcNS_12regex_traitsIcNS_16cpp_regex_traitsIcEEEEEEED0Ev@Base 0.9.8
 _ZN5boost6detail17sp_counted_impl_pINS_29regex_iterator_implementationIN9__gnu_cxx17__normal_iteratorIPKcSsEEcNS_12regex_traitsIcNS_16cpp_regex_traitsIcEEEEEEED1Ev@Base 0.9.8
 _ZN5boost6detail17sp_counted_impl_pINS_29regex_iterator_implementationIN9__gnu_cxx17__normal_iteratorIPKcSsEEcNS_12regex_traitsIcNS_16cpp_regex_traitsIcEEEEEEED2Ev@Base 0.9.8
 _ZN5boost6detail17sp_counted_impl_pINS_6random23mersenne_twister_engineIjLm32ELm624ELm397ELm31ELj2567483615ELm11ELj4294967295ELm7ELj2636928640ELm15ELj4022730752ELm18ELj1812433253EEEE11get_deleterERKSt9type_info@Base 0.9.8
 _ZN5boost6detail17sp_counted_impl_pINS_6random23mersenne_twister_engineIjLm32ELm624ELm397ELm31ELj2567483615ELm11ELj4294967295ELm7ELj2636928640ELm15ELj4022730752ELm18ELj1812433253EEEE19get_untyped_deleterEv@Base 0.9.8
 _ZN5boost6detail17sp_counted_impl_pINS_6random23mersenne_twister_engineIjLm32ELm624ELm397ELm31ELj2567483615ELm11ELj4294967295ELm7ELj2636928640ELm15ELj4022730752ELm18ELj1812433253EEEE7disposeEv@Base 0.9.8
 _ZN5boost6detail17sp_counted_impl_pINS_6random23mersenne_twister_engineIjLm32ELm624ELm397ELm31ELj2567483615ELm11ELj4294967295ELm7ELj2636928640ELm15ELj4022730752ELm18ELj1812433253EEEED0Ev@Base 0.9.8
 _ZN5boost6detail17sp_counted_impl_pINS_6random23mersenne_twister_engineIjLm32ELm624ELm397ELm31ELj2567483615ELm11ELj4294967295ELm7ELj2636928640ELm15ELj4022730752ELm18ELj1812433253EEEED1Ev@Base 0.9.8
 _ZN5boost6detail17sp_counted_impl_pINS_6random23mersenne_twister_engineIjLm32ELm624ELm397ELm31ELj2567483615ELm11ELj4294967295ELm7ELj2636928640ELm15ELj4022730752ELm18ELj1812433253EEEED2Ev@Base 0.9.8
 _ZN5boost6detail17sp_counted_impl_pINS_7signals6detail9slot_base6data_tEE11get_deleterERKSt9type_info@Base 0.9.8
 _ZN5boost6detail17sp_counted_impl_pINS_7signals6detail9slot_base6data_tEE19get_untyped_deleterEv@Base 0.9.8
 _ZN5boost6detail17sp_counted_impl_pINS_7signals6detail9slot_base6data_tEE7disposeEv@Base 0.9.8
 _ZN5boost6detail17sp_counted_impl_pINS_7signals6detail9slot_base6data_tEED0Ev@Base 0.9.8
 _ZN5boost6detail17sp_counted_impl_pINS_7signals6detail9slot_base6data_tEED1Ev@Base 0.9.8
 _ZN5boost6detail17sp_counted_impl_pINS_7signals6detail9slot_base6data_tEED2Ev@Base 0.9.8
 _ZN5boost6detail18lcast_put_unsignedISt11char_traitsIcEjcEEPT1_T0_S5_@Base 0.9.8
 _ZN5boost6detail18lcast_put_unsignedISt11char_traitsIcEmcEEPT1_T0_S5_@Base 0.9.8
 _ZN5boost6detail18lcast_ret_unsignedISt11char_traitsIcEjcEEbRT0_PKT1_S8_@Base 0.9.8
 _ZN5boost6detail18lcast_ret_unsignedISt11char_traitsIcEmcEEbRT0_PKT1_S8_@Base 0.9.8
 _ZN5boost6detail18parse_inf_nan_implIcdEEbPKT_S4_RT0_S4_S4_S4_S4_S2_S2_@Base 0.9.8
 _ZN5boost6detail18sp_counted_impl_pdIPN4rime10ConfigDataENS0_13sp_ms_deleterIS3_EEE11get_deleterERKSt9type_info@Base 0.9.8
 _ZN5boost6detail18sp_counted_impl_pdIPN4rime10ConfigDataENS0_13sp_ms_deleterIS3_EEE19get_untyped_deleterEv@Base 0.9.8
 _ZN5boost6detail18sp_counted_impl_pdIPN4rime10ConfigDataENS0_13sp_ms_deleterIS3_EEE7disposeEv@Base 0.9.8
 _ZN5boost6detail18sp_counted_impl_pdIPN4rime10ConfigDataENS0_13sp_ms_deleterIS3_EEED0Ev@Base 0.9.8
 _ZN5boost6detail18sp_counted_impl_pdIPN4rime10ConfigDataENS0_13sp_ms_deleterIS3_EEED1Ev@Base 0.9.8
 _ZN5boost6detail18sp_counted_impl_pdIPN4rime10ConfigDataENS0_13sp_ms_deleterIS3_EEED2Ev@Base 0.9.8
 _ZN5boost6detail18sp_counted_impl_pdIPN4rime10ConfigListENS0_13sp_ms_deleterIS3_EEE11get_deleterERKSt9type_info@Base 0.9.8
 _ZN5boost6detail18sp_counted_impl_pdIPN4rime10ConfigListENS0_13sp_ms_deleterIS3_EEE19get_untyped_deleterEv@Base 0.9.8
 _ZN5boost6detail18sp_counted_impl_pdIPN4rime10ConfigListENS0_13sp_ms_deleterIS3_EEE7disposeEv@Base 0.9.8
 _ZN5boost6detail18sp_counted_impl_pdIPN4rime10ConfigListENS0_13sp_ms_deleterIS3_EEED0Ev@Base 0.9.8
 _ZN5boost6detail18sp_counted_impl_pdIPN4rime10ConfigListENS0_13sp_ms_deleterIS3_EEED1Ev@Base 0.9.8
 _ZN5boost6detail18sp_counted_impl_pdIPN4rime10ConfigListENS0_13sp_ms_deleterIS3_EEED2Ev@Base 0.9.8
 _ZN5boost6detail18sp_counted_impl_pdIPN4rime10VocabularyENS0_13sp_ms_deleterIS3_EEE11get_deleterERKSt9type_info@Base 0.9.8
 _ZN5boost6detail18sp_counted_impl_pdIPN4rime10VocabularyENS0_13sp_ms_deleterIS3_EEE19get_untyped_deleterEv@Base 0.9.8
 _ZN5boost6detail18sp_counted_impl_pdIPN4rime10VocabularyENS0_13sp_ms_deleterIS3_EEE7disposeEv@Base 0.9.8
 _ZN5boost6detail18sp_counted_impl_pdIPN4rime10VocabularyENS0_13sp_ms_deleterIS3_EEED0Ev@Base 0.9.8
 _ZN5boost6detail18sp_counted_impl_pdIPN4rime10VocabularyENS0_13sp_ms_deleterIS3_EEED1Ev@Base 0.9.8
 _ZN5boost6detail18sp_counted_impl_pdIPN4rime10VocabularyENS0_13sp_ms_deleterIS3_EEED2Ev@Base 0.9.8
 _ZN5boost6detail18sp_counted_impl_pdIPN4rime11ConfigValueENS0_13sp_ms_deleterIS3_EEE11get_deleterERKSt9type_info@Base 0.9.8
 _ZN5boost6detail18sp_counted_impl_pdIPN4rime11ConfigValueENS0_13sp_ms_deleterIS3_EEE19get_untyped_deleterEv@Base 0.9.8
 _ZN5boost6detail18sp_counted_impl_pdIPN4rime11ConfigValueENS0_13sp_ms_deleterIS3_EEE7disposeEv@Base 0.9.8
 _ZN5boost6detail18sp_counted_impl_pdIPN4rime11ConfigValueENS0_13sp_ms_deleterIS3_EEED0Ev@Base 0.9.8
 _ZN5boost6detail18sp_counted_impl_pdIPN4rime11ConfigValueENS0_13sp_ms_deleterIS3_EEED1Ev@Base 0.9.8
 _ZN5boost6detail18sp_counted_impl_pdIPN4rime11ConfigValueENS0_13sp_ms_deleterIS3_EEED2Ev@Base 0.9.8
 _ZN5boost6detail18sp_counted_impl_pdIPN4rime12CleanUpTrashENS0_13sp_ms_deleterIS3_EEE11get_deleterERKSt9type_info@Base 0.9.8
 _ZN5boost6detail18sp_counted_impl_pdIPN4rime12CleanUpTrashENS0_13sp_ms_deleterIS3_EEE19get_untyped_deleterEv@Base 0.9.8
 _ZN5boost6detail18sp_counted_impl_pdIPN4rime12CleanUpTrashENS0_13sp_ms_deleterIS3_EEE7disposeEv@Base 0.9.8
 _ZN5boost6detail18sp_counted_impl_pdIPN4rime12CleanUpTrashENS0_13sp_ms_deleterIS3_EEED0Ev@Base 0.9.8
 _ZN5boost6detail18sp_counted_impl_pdIPN4rime12CleanUpTrashENS0_13sp_ms_deleterIS3_EEED1Ev@Base 0.9.8
 _ZN5boost6detail18sp_counted_impl_pdIPN4rime12CleanUpTrashENS0_13sp_ms_deleterIS3_EEED2Ev@Base 0.9.8
 _ZN5boost6detail18sp_counted_impl_pdIPN4rime12UniqueFilterENS0_13sp_ms_deleterIS3_EEE11get_deleterERKSt9type_info@Base 0.9.8
 _ZN5boost6detail18sp_counted_impl_pdIPN4rime12UniqueFilterENS0_13sp_ms_deleterIS3_EEE19get_untyped_deleterEv@Base 0.9.8
 _ZN5boost6detail18sp_counted_impl_pdIPN4rime12UniqueFilterENS0_13sp_ms_deleterIS3_EEE7disposeEv@Base 0.9.8
 _ZN5boost6detail18sp_counted_impl_pdIPN4rime12UniqueFilterENS0_13sp_ms_deleterIS3_EEED0Ev@Base 0.9.8
 _ZN5boost6detail18sp_counted_impl_pdIPN4rime12UniqueFilterENS0_13sp_ms_deleterIS3_EEED1Ev@Base 0.9.8
 _ZN5boost6detail18sp_counted_impl_pdIPN4rime12UniqueFilterENS0_13sp_ms_deleterIS3_EEED2Ev@Base 0.9.8
 _ZN5boost6detail18sp_counted_impl_pdIPN4rime12UserDictSyncENS0_13sp_ms_deleterIS3_EEE11get_deleterERKSt9type_info@Base 0.9.8
 _ZN5boost6detail18sp_counted_impl_pdIPN4rime12UserDictSyncENS0_13sp_ms_deleterIS3_EEE19get_untyped_deleterEv@Base 0.9.8
 _ZN5boost6detail18sp_counted_impl_pdIPN4rime12UserDictSyncENS0_13sp_ms_deleterIS3_EEE7disposeEv@Base 0.9.8
 _ZN5boost6detail18sp_counted_impl_pdIPN4rime12UserDictSyncENS0_13sp_ms_deleterIS3_EEED0Ev@Base 0.9.8
 _ZN5boost6detail18sp_counted_impl_pdIPN4rime12UserDictSyncENS0_13sp_ms_deleterIS3_EEED1Ev@Base 0.9.8
 _ZN5boost6detail18sp_counted_impl_pdIPN4rime12UserDictSyncENS0_13sp_ms_deleterIS3_EEED2Ev@Base 0.9.8
 _ZN5boost6detail18sp_counted_impl_pdIPN4rime13CharsetFilterENS0_13sp_ms_deleterIS3_EEE11get_deleterERKSt9type_info@Base 0.9.8
 _ZN5boost6detail18sp_counted_impl_pdIPN4rime13CharsetFilterENS0_13sp_ms_deleterIS3_EEE19get_untyped_deleterEv@Base 0.9.8
 _ZN5boost6detail18sp_counted_impl_pdIPN4rime13CharsetFilterENS0_13sp_ms_deleterIS3_EEE7disposeEv@Base 0.9.8
 _ZN5boost6detail18sp_counted_impl_pdIPN4rime13CharsetFilterENS0_13sp_ms_deleterIS3_EEED0Ev@Base 0.9.8
 _ZN5boost6detail18sp_counted_impl_pdIPN4rime13CharsetFilterENS0_13sp_ms_deleterIS3_EEED1Ev@Base 0.9.8
 _ZN5boost6detail18sp_counted_impl_pdIPN4rime13CharsetFilterENS0_13sp_ms_deleterIS3_EEED2Ev@Base 0.9.8
 _ZN5boost6detail18sp_counted_impl_pdIPN4rime13DictEntryListENS0_13sp_ms_deleterIS3_EEE11get_deleterERKSt9type_info@Base 0.9.8
 _ZN5boost6detail18sp_counted_impl_pdIPN4rime13DictEntryListENS0_13sp_ms_deleterIS3_EEE19get_untyped_deleterEv@Base 0.9.8
 _ZN5boost6detail18sp_counted_impl_pdIPN4rime13DictEntryListENS0_13sp_ms_deleterIS3_EEE7disposeEv@Base 0.9.8
 _ZN5boost6detail18sp_counted_impl_pdIPN4rime13DictEntryListENS0_13sp_ms_deleterIS3_EEED0Ev@Base 0.9.8
 _ZN5boost6detail18sp_counted_impl_pdIPN4rime13DictEntryListENS0_13sp_ms_deleterIS3_EEED1Ev@Base 0.9.8
 _ZN5boost6detail18sp_counted_impl_pdIPN4rime13DictEntryListENS0_13sp_ms_deleterIS3_EEED2Ev@Base 0.9.8
 _ZN5boost6detail18sp_counted_impl_pdIPN4rime14SwitcherOptionENS0_13sp_ms_deleterIS3_EEE11get_deleterERKSt9type_info@Base 0.9.8
 _ZN5boost6detail18sp_counted_impl_pdIPN4rime14SwitcherOptionENS0_13sp_ms_deleterIS3_EEE19get_untyped_deleterEv@Base 0.9.8
 _ZN5boost6detail18sp_counted_impl_pdIPN4rime14SwitcherOptionENS0_13sp_ms_deleterIS3_EEE7disposeEv@Base 0.9.8
 _ZN5boost6detail18sp_counted_impl_pdIPN4rime14SwitcherOptionENS0_13sp_ms_deleterIS3_EEED0Ev@Base 0.9.8
 _ZN5boost6detail18sp_counted_impl_pdIPN4rime14SwitcherOptionENS0_13sp_ms_deleterIS3_EEED1Ev@Base 0.9.8
 _ZN5boost6detail18sp_counted_impl_pdIPN4rime14SwitcherOptionENS0_13sp_ms_deleterIS3_EEED2Ev@Base 0.9.8
 _ZN5boost6detail18sp_counted_impl_pdIPN4rime14TreeDbAccessorENS0_13sp_ms_deleterIS3_EEE11get_deleterERKSt9type_info@Base 0.9.8
 _ZN5boost6detail18sp_counted_impl_pdIPN4rime14TreeDbAccessorENS0_13sp_ms_deleterIS3_EEE19get_untyped_deleterEv@Base 0.9.8
 _ZN5boost6detail18sp_counted_impl_pdIPN4rime14TreeDbAccessorENS0_13sp_ms_deleterIS3_EEE7disposeEv@Base 0.9.8
 _ZN5boost6detail18sp_counted_impl_pdIPN4rime14TreeDbAccessorENS0_13sp_ms_deleterIS3_EEED0Ev@Base 0.9.8
 _ZN5boost6detail18sp_counted_impl_pdIPN4rime14TreeDbAccessorENS0_13sp_ms_deleterIS3_EEED1Ev@Base 0.9.8
 _ZN5boost6detail18sp_counted_impl_pdIPN4rime14TreeDbAccessorENS0_13sp_ms_deleterIS3_EEED2Ev@Base 0.9.8
 _ZN5boost6detail18sp_counted_impl_pdIPN4rime15EchoTranslationENS0_13sp_ms_deleterIS3_EEE11get_deleterERKSt9type_info@Base 0.9.8
 _ZN5boost6detail18sp_counted_impl_pdIPN4rime15EchoTranslationENS0_13sp_ms_deleterIS3_EEE19get_untyped_deleterEv@Base 0.9.8
 _ZN5boost6detail18sp_counted_impl_pdIPN4rime15EchoTranslationENS0_13sp_ms_deleterIS3_EEE7disposeEv@Base 0.9.8
 _ZN5boost6detail18sp_counted_impl_pdIPN4rime15EchoTranslationENS0_13sp_ms_deleterIS3_EEED0Ev@Base 0.9.8
 _ZN5boost6detail18sp_counted_impl_pdIPN4rime15EchoTranslationENS0_13sp_ms_deleterIS3_EEED1Ev@Base 0.9.8
 _ZN5boost6detail18sp_counted_impl_pdIPN4rime15EchoTranslationENS0_13sp_ms_deleterIS3_EEED2Ev@Base 0.9.8
 _ZN5boost6detail18sp_counted_impl_pdIPN4rime15FifoTranslationENS0_13sp_ms_deleterIS3_EEE11get_deleterERKSt9type_info@Base 0.9.8
 _ZN5boost6detail18sp_counted_impl_pdIPN4rime15FifoTranslationENS0_13sp_ms_deleterIS3_EEE19get_untyped_deleterEv@Base 0.9.8
 _ZN5boost6detail18sp_counted_impl_pdIPN4rime15FifoTranslationENS0_13sp_ms_deleterIS3_EEE7disposeEv@Base 0.9.8
 _ZN5boost6detail18sp_counted_impl_pdIPN4rime15FifoTranslationENS0_13sp_ms_deleterIS3_EEED0Ev@Base 0.9.8
 _ZN5boost6detail18sp_counted_impl_pdIPN4rime15FifoTranslationENS0_13sp_ms_deleterIS3_EEED1Ev@Base 0.9.8
 _ZN5boost6detail18sp_counted_impl_pdIPN4rime15FifoTranslationENS0_13sp_ms_deleterIS3_EEED2Ev@Base 0.9.8
 _ZN5boost6detail18sp_counted_impl_pdIPN4rime15R10nTranslationENS0_13sp_ms_deleterIS3_EEE11get_deleterERKSt9type_info@Base 0.9.8
 _ZN5boost6detail18sp_counted_impl_pdIPN4rime15R10nTranslationENS0_13sp_ms_deleterIS3_EEE19get_untyped_deleterEv@Base 0.9.8
 _ZN5boost6detail18sp_counted_impl_pdIPN4rime15R10nTranslationENS0_13sp_ms_deleterIS3_EEE7disposeEv@Base 0.9.8
 _ZN5boost6detail18sp_counted_impl_pdIPN4rime15R10nTranslationENS0_13sp_ms_deleterIS3_EEED0Ev@Base 0.9.8
 _ZN5boost6detail18sp_counted_impl_pdIPN4rime15R10nTranslationENS0_13sp_ms_deleterIS3_EEED1Ev@Base 0.9.8
 _ZN5boost6detail18sp_counted_impl_pdIPN4rime15R10nTranslationENS0_13sp_ms_deleterIS3_EEED2Ev@Base 0.9.8
 _ZN5boost6detail18sp_counted_impl_pdIPN4rime15ShadowCandidateENS0_13sp_ms_deleterIS3_EEE11get_deleterERKSt9type_info@Base 0.9.8
 _ZN5boost6detail18sp_counted_impl_pdIPN4rime15ShadowCandidateENS0_13sp_ms_deleterIS3_EEE19get_untyped_deleterEv@Base 0.9.8
 _ZN5boost6detail18sp_counted_impl_pdIPN4rime15ShadowCandidateENS0_13sp_ms_deleterIS3_EEE7disposeEv@Base 0.9.8
 _ZN5boost6detail18sp_counted_impl_pdIPN4rime15ShadowCandidateENS0_13sp_ms_deleterIS3_EEED0Ev@Base 0.9.8
 _ZN5boost6detail18sp_counted_impl_pdIPN4rime15ShadowCandidateENS0_13sp_ms_deleterIS3_EEED1Ev@Base 0.9.8
 _ZN5boost6detail18sp_counted_impl_pdIPN4rime15ShadowCandidateENS0_13sp_ms_deleterIS3_EEED2Ev@Base 0.9.8
 _ZN5boost6detail18sp_counted_impl_pdIPN4rime15SimpleCandidateENS0_13sp_ms_deleterIS3_EEE11get_deleterERKSt9type_info@Base 0.9.8
 _ZN5boost6detail18sp_counted_impl_pdIPN4rime15SimpleCandidateENS0_13sp_ms_deleterIS3_EEE19get_untyped_deleterEv@Base 0.9.8
 _ZN5boost6detail18sp_counted_impl_pdIPN4rime15SimpleCandidateENS0_13sp_ms_deleterIS3_EEE7disposeEv@Base 0.9.8
 _ZN5boost6detail18sp_counted_impl_pdIPN4rime15SimpleCandidateENS0_13sp_ms_deleterIS3_EEED0Ev@Base 0.9.8
 _ZN5boost6detail18sp_counted_impl_pdIPN4rime15SimpleCandidateENS0_13sp_ms_deleterIS3_EEED1Ev@Base 0.9.8
 _ZN5boost6detail18sp_counted_impl_pdIPN4rime15SimpleCandidateENS0_13sp_ms_deleterIS3_EEED2Ev@Base 0.9.8
 _ZN5boost6detail18sp_counted_impl_pdIPN4rime15WorkspaceUpdateENS0_13sp_ms_deleterIS3_EEE11get_deleterERKSt9type_info@Base 0.9.8
 _ZN5boost6detail18sp_counted_impl_pdIPN4rime15WorkspaceUpdateENS0_13sp_ms_deleterIS3_EEE19get_untyped_deleterEv@Base 0.9.8
 _ZN5boost6detail18sp_counted_impl_pdIPN4rime15WorkspaceUpdateENS0_13sp_ms_deleterIS3_EEE7disposeEv@Base 0.9.8
 _ZN5boost6detail18sp_counted_impl_pdIPN4rime15WorkspaceUpdateENS0_13sp_ms_deleterIS3_EEED0Ev@Base 0.9.8
 _ZN5boost6detail18sp_counted_impl_pdIPN4rime15WorkspaceUpdateENS0_13sp_ms_deleterIS3_EEED1Ev@Base 0.9.8
 _ZN5boost6detail18sp_counted_impl_pdIPN4rime15WorkspaceUpdateENS0_13sp_ms_deleterIS3_EEED2Ev@Base 0.9.8
 _ZN5boost6detail18sp_counted_impl_pdIPN4rime16TableTranslationENS0_13sp_ms_deleterIS3_EEE11get_deleterERKSt9type_info@Base 0.9.8
 _ZN5boost6detail18sp_counted_impl_pdIPN4rime16TableTranslationENS0_13sp_ms_deleterIS3_EEE19get_untyped_deleterEv@Base 0.9.8
 _ZN5boost6detail18sp_counted_impl_pdIPN4rime16TableTranslationENS0_13sp_ms_deleterIS3_EEE7disposeEv@Base 0.9.8
 _ZN5boost6detail18sp_counted_impl_pdIPN4rime16TableTranslationENS0_13sp_ms_deleterIS3_EEED0Ev@Base 0.9.8
 _ZN5boost6detail18sp_counted_impl_pdIPN4rime16TableTranslationENS0_13sp_ms_deleterIS3_EEED1Ev@Base 0.9.8
 _ZN5boost6detail18sp_counted_impl_pdIPN4rime16TableTranslationENS0_13sp_ms_deleterIS3_EEED2Ev@Base 0.9.8
 _ZN5boost6detail18sp_counted_impl_pdIPN4rime17BackupConfigFilesENS0_13sp_ms_deleterIS3_EEE11get_deleterERKSt9type_info@Base 0.9.8
 _ZN5boost6detail18sp_counted_impl_pdIPN4rime17BackupConfigFilesENS0_13sp_ms_deleterIS3_EEE19get_untyped_deleterEv@Base 0.9.8
 _ZN5boost6detail18sp_counted_impl_pdIPN4rime17BackupConfigFilesENS0_13sp_ms_deleterIS3_EEE7disposeEv@Base 0.9.8
 _ZN5boost6detail18sp_counted_impl_pdIPN4rime17BackupConfigFilesENS0_13sp_ms_deleterIS3_EEED0Ev@Base 0.9.8
 _ZN5boost6detail18sp_counted_impl_pdIPN4rime17BackupConfigFilesENS0_13sp_ms_deleterIS3_EEED1Ev@Base 0.9.8
 _ZN5boost6detail18sp_counted_impl_pdIPN4rime17BackupConfigFilesENS0_13sp_ms_deleterIS3_EEED2Ev@Base 0.9.8
 _ZN5boost6detail18sp_counted_impl_pdIPN4rime17UniqueTranslationENS0_13sp_ms_deleterIS3_EEE11get_deleterERKSt9type_info@Base 0.9.8
 _ZN5boost6detail18sp_counted_impl_pdIPN4rime17UniqueTranslationENS0_13sp_ms_deleterIS3_EEE19get_untyped_deleterEv@Base 0.9.8
 _ZN5boost6detail18sp_counted_impl_pdIPN4rime17UniqueTranslationENS0_13sp_ms_deleterIS3_EEE7disposeEv@Base 0.9.8
 _ZN5boost6detail18sp_counted_impl_pdIPN4rime17UniqueTranslationENS0_13sp_ms_deleterIS3_EEED0Ev@Base 0.9.8
 _ZN5boost6detail18sp_counted_impl_pdIPN4rime17UniqueTranslationENS0_13sp_ms_deleterIS3_EEED1Ev@Base 0.9.8
 _ZN5boost6detail18sp_counted_impl_pdIPN4rime17UniqueTranslationENS0_13sp_ms_deleterIS3_EEED2Ev@Base 0.9.8
 _ZN5boost6detail18sp_counted_impl_pdIPN4rime17UserDictUpgrationENS0_13sp_ms_deleterIS3_EEE11get_deleterERKSt9type_info@Base 0.9.8
 _ZN5boost6detail18sp_counted_impl_pdIPN4rime17UserDictUpgrationENS0_13sp_ms_deleterIS3_EEE19get_untyped_deleterEv@Base 0.9.8
 _ZN5boost6detail18sp_counted_impl_pdIPN4rime17UserDictUpgrationENS0_13sp_ms_deleterIS3_EEE7disposeEv@Base 0.9.8
 _ZN5boost6detail18sp_counted_impl_pdIPN4rime17UserDictUpgrationENS0_13sp_ms_deleterIS3_EEED0Ev@Base 0.9.8
 _ZN5boost6detail18sp_counted_impl_pdIPN4rime17UserDictUpgrationENS0_13sp_ms_deleterIS3_EEED1Ev@Base 0.9.8
 _ZN5boost6detail18sp_counted_impl_pdIPN4rime17UserDictUpgrationENS0_13sp_ms_deleterIS3_EEED2Ev@Base 0.9.8
 _ZN5boost6detail18sp_counted_impl_pdIPN4rime18DictEntryCollectorENS0_13sp_ms_deleterIS3_EEE11get_deleterERKSt9type_info@Base 0.9.8
 _ZN5boost6detail18sp_counted_impl_pdIPN4rime18DictEntryCollectorENS0_13sp_ms_deleterIS3_EEE19get_untyped_deleterEv@Base 0.9.8
 _ZN5boost6detail18sp_counted_impl_pdIPN4rime18DictEntryCollectorENS0_13sp_ms_deleterIS3_EEE7disposeEv@Base 0.9.8
 _ZN5boost6detail18sp_counted_impl_pdIPN4rime18DictEntryCollectorENS0_13sp_ms_deleterIS3_EEED0Ev@Base 0.9.8
 _ZN5boost6detail18sp_counted_impl_pdIPN4rime18DictEntryCollectorENS0_13sp_ms_deleterIS3_EEED1Ev@Base 0.9.8
 _ZN5boost6detail18sp_counted_impl_pdIPN4rime18DictEntryCollectorENS0_13sp_ms_deleterIS3_EEED2Ev@Base 0.9.8
 _ZN5boost6detail18sp_counted_impl_pdIPN4rime18InstallationUpdateENS0_13sp_ms_deleterIS3_EEE11get_deleterERKSt9type_info@Base 0.9.8
 _ZN5boost6detail18sp_counted_impl_pdIPN4rime18InstallationUpdateENS0_13sp_ms_deleterIS3_EEE19get_untyped_deleterEv@Base 0.9.8
 _ZN5boost6detail18sp_counted_impl_pdIPN4rime18InstallationUpdateENS0_13sp_ms_deleterIS3_EEE7disposeEv@Base 0.9.8
 _ZN5boost6detail18sp_counted_impl_pdIPN4rime18InstallationUpdateENS0_13sp_ms_deleterIS3_EEED0Ev@Base 0.9.8
 _ZN5boost6detail18sp_counted_impl_pdIPN4rime18InstallationUpdateENS0_13sp_ms_deleterIS3_EEED1Ev@Base 0.9.8
 _ZN5boost6detail18sp_counted_impl_pdIPN4rime18InstallationUpdateENS0_13sp_ms_deleterIS3_EEED2Ev@Base 0.9.8
 _ZN5boost6detail18sp_counted_impl_pdIPN4rime19SentenceTranslationENS0_13sp_ms_deleterIS3_EEE11get_deleterERKSt9type_info@Base 0.9.8
 _ZN5boost6detail18sp_counted_impl_pdIPN4rime19SentenceTranslationENS0_13sp_ms_deleterIS3_EEE19get_untyped_deleterEv@Base 0.9.8
 _ZN5boost6detail18sp_counted_impl_pdIPN4rime19SentenceTranslationENS0_13sp_ms_deleterIS3_EEE7disposeEv@Base 0.9.8
 _ZN5boost6detail18sp_counted_impl_pdIPN4rime19SentenceTranslationENS0_13sp_ms_deleterIS3_EEED0Ev@Base 0.9.8
 _ZN5boost6detail18sp_counted_impl_pdIPN4rime19SentenceTranslationENS0_13sp_ms_deleterIS3_EEED1Ev@Base 0.9.8
 _ZN5boost6detail18sp_counted_impl_pdIPN4rime19SentenceTranslationENS0_13sp_ms_deleterIS3_EEED2Ev@Base 0.9.8
 _ZN5boost6detail18sp_counted_impl_pdIPN4rime19UniquifiedCandidateENS0_13sp_ms_deleterIS3_EEE11get_deleterERKSt9type_info@Base 0.9.8
 _ZN5boost6detail18sp_counted_impl_pdIPN4rime19UniquifiedCandidateENS0_13sp_ms_deleterIS3_EEE19get_untyped_deleterEv@Base 0.9.8
 _ZN5boost6detail18sp_counted_impl_pdIPN4rime19UniquifiedCandidateENS0_13sp_ms_deleterIS3_EEE7disposeEv@Base 0.9.8
 _ZN5boost6detail18sp_counted_impl_pdIPN4rime19UniquifiedCandidateENS0_13sp_ms_deleterIS3_EEED0Ev@Base 0.9.8
 _ZN5boost6detail18sp_counted_impl_pdIPN4rime19UniquifiedCandidateENS0_13sp_ms_deleterIS3_EEED1Ev@Base 0.9.8
 _ZN5boost6detail18sp_counted_impl_pdIPN4rime19UniquifiedCandidateENS0_13sp_ms_deleterIS3_EEED2Ev@Base 0.9.8
 _ZN5boost6detail18sp_counted_impl_pdIPN4rime20LazyTableTranslationENS0_13sp_ms_deleterIS3_EEE11get_deleterERKSt9type_info@Base 0.9.8
 _ZN5boost6detail18sp_counted_impl_pdIPN4rime20LazyTableTranslationENS0_13sp_ms_deleterIS3_EEE19get_untyped_deleterEv@Base 0.9.8
 _ZN5boost6detail18sp_counted_impl_pdIPN4rime20LazyTableTranslationENS0_13sp_ms_deleterIS3_EEE7disposeEv@Base 0.9.8
 _ZN5boost6detail18sp_counted_impl_pdIPN4rime20LazyTableTranslationENS0_13sp_ms_deleterIS3_EEED0Ev@Base 0.9.8
 _ZN5boost6detail18sp_counted_impl_pdIPN4rime20LazyTableTranslationENS0_13sp_ms_deleterIS3_EEED1Ev@Base 0.9.8
 _ZN5boost6detail18sp_counted_impl_pdIPN4rime20LazyTableTranslationENS0_13sp_ms_deleterIS3_EEED2Ev@Base 0.9.8
 _ZN5boost6detail18sp_counted_impl_pdIPN4rime22UserDictEntryCollectorENS0_13sp_ms_deleterIS3_EEE11get_deleterERKSt9type_info@Base 0.9.8
 _ZN5boost6detail18sp_counted_impl_pdIPN4rime22UserDictEntryCollectorENS0_13sp_ms_deleterIS3_EEE19get_untyped_deleterEv@Base 0.9.8
 _ZN5boost6detail18sp_counted_impl_pdIPN4rime22UserDictEntryCollectorENS0_13sp_ms_deleterIS3_EEE7disposeEv@Base 0.9.8
 _ZN5boost6detail18sp_counted_impl_pdIPN4rime22UserDictEntryCollectorENS0_13sp_ms_deleterIS3_EEED0Ev@Base 0.9.8
 _ZN5boost6detail18sp_counted_impl_pdIPN4rime22UserDictEntryCollectorENS0_13sp_ms_deleterIS3_EEED1Ev@Base 0.9.8
 _ZN5boost6detail18sp_counted_impl_pdIPN4rime22UserDictEntryCollectorENS0_13sp_ms_deleterIS3_EEED2Ev@Base 0.9.8
 _ZN5boost6detail18sp_counted_impl_pdIPN4rime24ReverseLookupTranslationENS0_13sp_ms_deleterIS3_EEE11get_deleterERKSt9type_info@Base 0.9.8
 _ZN5boost6detail18sp_counted_impl_pdIPN4rime24ReverseLookupTranslationENS0_13sp_ms_deleterIS3_EEE19get_untyped_deleterEv@Base 0.9.8
 _ZN5boost6detail18sp_counted_impl_pdIPN4rime24ReverseLookupTranslationENS0_13sp_ms_deleterIS3_EEE7disposeEv@Base 0.9.8
 _ZN5boost6detail18sp_counted_impl_pdIPN4rime24ReverseLookupTranslationENS0_13sp_ms_deleterIS3_EEED0Ev@Base 0.9.8
 _ZN5boost6detail18sp_counted_impl_pdIPN4rime24ReverseLookupTranslationENS0_13sp_ms_deleterIS3_EEED1Ev@Base 0.9.8
 _ZN5boost6detail18sp_counted_impl_pdIPN4rime24ReverseLookupTranslationENS0_13sp_ms_deleterIS3_EEED2Ev@Base 0.9.8
 _ZN5boost6detail18sp_counted_impl_pdIPN4rime4MenuENS0_13sp_ms_deleterIS3_EEE11get_deleterERKSt9type_info@Base 0.9.8
 _ZN5boost6detail18sp_counted_impl_pdIPN4rime4MenuENS0_13sp_ms_deleterIS3_EEE19get_untyped_deleterEv@Base 0.9.8
 _ZN5boost6detail18sp_counted_impl_pdIPN4rime4MenuENS0_13sp_ms_deleterIS3_EEE7disposeEv@Base 0.9.8
 _ZN5boost6detail18sp_counted_impl_pdIPN4rime4MenuENS0_13sp_ms_deleterIS3_EEED0Ev@Base 0.9.8
 _ZN5boost6detail18sp_counted_impl_pdIPN4rime4MenuENS0_13sp_ms_deleterIS3_EEED1Ev@Base 0.9.8
 _ZN5boost6detail18sp_counted_impl_pdIPN4rime4MenuENS0_13sp_ms_deleterIS3_EEED2Ev@Base 0.9.8
 _ZN5boost6detail18sp_counted_impl_pdIPN4rime5PrismENS0_13sp_ms_deleterIS3_EEE11get_deleterERKSt9type_info@Base 0.9.8
 _ZN5boost6detail18sp_counted_impl_pdIPN4rime5PrismENS0_13sp_ms_deleterIS3_EEE19get_untyped_deleterEv@Base 0.9.8
 _ZN5boost6detail18sp_counted_impl_pdIPN4rime5PrismENS0_13sp_ms_deleterIS3_EEE7disposeEv@Base 0.9.8
 _ZN5boost6detail18sp_counted_impl_pdIPN4rime5PrismENS0_13sp_ms_deleterIS3_EEED0Ev@Base 0.9.8
 _ZN5boost6detail18sp_counted_impl_pdIPN4rime5PrismENS0_13sp_ms_deleterIS3_EEED1Ev@Base 0.9.8
 _ZN5boost6detail18sp_counted_impl_pdIPN4rime5PrismENS0_13sp_ms_deleterIS3_EEED2Ev@Base 0.9.8
 _ZN5boost6detail18sp_counted_impl_pdIPN4rime5TableENS0_13sp_ms_deleterIS3_EEE11get_deleterERKSt9type_info@Base 0.9.8
 _ZN5boost6detail18sp_counted_impl_pdIPN4rime5TableENS0_13sp_ms_deleterIS3_EEE19get_untyped_deleterEv@Base 0.9.8
 _ZN5boost6detail18sp_counted_impl_pdIPN4rime5TableENS0_13sp_ms_deleterIS3_EEE7disposeEv@Base 0.9.8
 _ZN5boost6detail18sp_counted_impl_pdIPN4rime5TableENS0_13sp_ms_deleterIS3_EEED0Ev@Base 0.9.8
 _ZN5boost6detail18sp_counted_impl_pdIPN4rime5TableENS0_13sp_ms_deleterIS3_EEED1Ev@Base 0.9.8
 _ZN5boost6detail18sp_counted_impl_pdIPN4rime5TableENS0_13sp_ms_deleterIS3_EEED2Ev@Base 0.9.8
 _ZN5boost6detail18sp_counted_impl_pdIPN4rime6PhraseENS0_13sp_ms_deleterIS3_EEE11get_deleterERKSt9type_info@Base 0.9.8
 _ZN5boost6detail18sp_counted_impl_pdIPN4rime6PhraseENS0_13sp_ms_deleterIS3_EEE19get_untyped_deleterEv@Base 0.9.8
 _ZN5boost6detail18sp_counted_impl_pdIPN4rime6PhraseENS0_13sp_ms_deleterIS3_EEE7disposeEv@Base 0.9.8
 _ZN5boost6detail18sp_counted_impl_pdIPN4rime6PhraseENS0_13sp_ms_deleterIS3_EEED0Ev@Base 0.9.8
 _ZN5boost6detail18sp_counted_impl_pdIPN4rime6PhraseENS0_13sp_ms_deleterIS3_EEED1Ev@Base 0.9.8
 _ZN5boost6detail18sp_counted_impl_pdIPN4rime6PhraseENS0_13sp_ms_deleterIS3_EEED2Ev@Base 0.9.8
 _ZN5boost6detail18sp_counted_impl_pdIPN4rime6TreeDbENS0_13sp_ms_deleterIS3_EEE11get_deleterERKSt9type_info@Base 0.9.8
 _ZN5boost6detail18sp_counted_impl_pdIPN4rime6TreeDbENS0_13sp_ms_deleterIS3_EEE19get_untyped_deleterEv@Base 0.9.8
 _ZN5boost6detail18sp_counted_impl_pdIPN4rime6TreeDbENS0_13sp_ms_deleterIS3_EEE7disposeEv@Base 0.9.8
 _ZN5boost6detail18sp_counted_impl_pdIPN4rime6TreeDbENS0_13sp_ms_deleterIS3_EEED0Ev@Base 0.9.8
 _ZN5boost6detail18sp_counted_impl_pdIPN4rime6TreeDbENS0_13sp_ms_deleterIS3_EEED1Ev@Base 0.9.8
 _ZN5boost6detail18sp_counted_impl_pdIPN4rime6TreeDbENS0_13sp_ms_deleterIS3_EEED2Ev@Base 0.9.8
 _ZN5boost6detail18sp_counted_impl_pdIPN4rime6UserDbENS0_13sp_ms_deleterIS3_EEE11get_deleterERKSt9type_info@Base 0.9.8
 _ZN5boost6detail18sp_counted_impl_pdIPN4rime6UserDbENS0_13sp_ms_deleterIS3_EEE19get_untyped_deleterEv@Base 0.9.8
 _ZN5boost6detail18sp_counted_impl_pdIPN4rime6UserDbENS0_13sp_ms_deleterIS3_EEE7disposeEv@Base 0.9.8
 _ZN5boost6detail18sp_counted_impl_pdIPN4rime6UserDbENS0_13sp_ms_deleterIS3_EEED0Ev@Base 0.9.8
 _ZN5boost6detail18sp_counted_impl_pdIPN4rime6UserDbENS0_13sp_ms_deleterIS3_EEED1Ev@Base 0.9.8
 _ZN5boost6detail18sp_counted_impl_pdIPN4rime6UserDbENS0_13sp_ms_deleterIS3_EEED2Ev@Base 0.9.8
 _ZN5boost6detail18sp_counted_impl_pdIPN4rime7SessionENS0_13sp_ms_deleterIS3_EEE11get_deleterERKSt9type_info@Base 0.9.8
 _ZN5boost6detail18sp_counted_impl_pdIPN4rime7SessionENS0_13sp_ms_deleterIS3_EEE19get_untyped_deleterEv@Base 0.9.8
 _ZN5boost6detail18sp_counted_impl_pdIPN4rime7SessionENS0_13sp_ms_deleterIS3_EEE7disposeEv@Base 0.9.8
 _ZN5boost6detail18sp_counted_impl_pdIPN4rime7SessionENS0_13sp_ms_deleterIS3_EEED0Ev@Base 0.9.8
 _ZN5boost6detail18sp_counted_impl_pdIPN4rime7SessionENS0_13sp_ms_deleterIS3_EEED1Ev@Base 0.9.8
 _ZN5boost6detail18sp_counted_impl_pdIPN4rime7SessionENS0_13sp_ms_deleterIS3_EEED2Ev@Base 0.9.8
 _ZN5boost6detail18sp_counted_impl_pdIPN4rime8SentenceENS0_13sp_ms_deleterIS3_EEE11get_deleterERKSt9type_info@Base 0.9.8
 _ZN5boost6detail18sp_counted_impl_pdIPN4rime8SentenceENS0_13sp_ms_deleterIS3_EEE19get_untyped_deleterEv@Base 0.9.8
 _ZN5boost6detail18sp_counted_impl_pdIPN4rime8SentenceENS0_13sp_ms_deleterIS3_EEE7disposeEv@Base 0.9.8
 _ZN5boost6detail18sp_counted_impl_pdIPN4rime8SentenceENS0_13sp_ms_deleterIS3_EEED0Ev@Base 0.9.8
 _ZN5boost6detail18sp_counted_impl_pdIPN4rime8SentenceENS0_13sp_ms_deleterIS3_EEED1Ev@Base 0.9.8
 _ZN5boost6detail18sp_counted_impl_pdIPN4rime8SentenceENS0_13sp_ms_deleterIS3_EEED2Ev@Base 0.9.8
 _ZN5boost6detail18sp_counted_impl_pdIPN4rime9ConfigMapENS0_13sp_ms_deleterIS3_EEE11get_deleterERKSt9type_info@Base 0.9.8
 _ZN5boost6detail18sp_counted_impl_pdIPN4rime9ConfigMapENS0_13sp_ms_deleterIS3_EEE19get_untyped_deleterEv@Base 0.9.8
 _ZN5boost6detail18sp_counted_impl_pdIPN4rime9ConfigMapENS0_13sp_ms_deleterIS3_EEE7disposeEv@Base 0.9.8
 _ZN5boost6detail18sp_counted_impl_pdIPN4rime9ConfigMapENS0_13sp_ms_deleterIS3_EEED0Ev@Base 0.9.8
 _ZN5boost6detail18sp_counted_impl_pdIPN4rime9ConfigMapENS0_13sp_ms_deleterIS3_EEED1Ev@Base 0.9.8
 _ZN5boost6detail18sp_counted_impl_pdIPN4rime9ConfigMapENS0_13sp_ms_deleterIS3_EEED2Ev@Base 0.9.8
 _ZN5boost6detail18sp_counted_impl_pdIPN4rime9DictEntryENS0_13sp_ms_deleterIS3_EEE11get_deleterERKSt9type_info@Base 0.9.8
 _ZN5boost6detail18sp_counted_impl_pdIPN4rime9DictEntryENS0_13sp_ms_deleterIS3_EEE19get_untyped_deleterEv@Base 0.9.8
 _ZN5boost6detail18sp_counted_impl_pdIPN4rime9DictEntryENS0_13sp_ms_deleterIS3_EEE7disposeEv@Base 0.9.8
 _ZN5boost6detail18sp_counted_impl_pdIPN4rime9DictEntryENS0_13sp_ms_deleterIS3_EEED0Ev@Base 0.9.8
 _ZN5boost6detail18sp_counted_impl_pdIPN4rime9DictEntryENS0_13sp_ms_deleterIS3_EEED1Ev@Base 0.9.8
 _ZN5boost6detail18sp_counted_impl_pdIPN4rime9DictEntryENS0_13sp_ms_deleterIS3_EEED2Ev@Base 0.9.8
 _ZN5boost6detail18sp_counted_impl_pdIPNS_2io18basic_altstringbufIcSt11char_traitsIcESaIcEEENS2_22basic_oaltstringstreamIcS5_S6_E5No_OpEE11get_deleterERKSt9type_info@Base 0.9.8
 _ZN5boost6detail18sp_counted_impl_pdIPNS_2io18basic_altstringbufIcSt11char_traitsIcESaIcEEENS2_22basic_oaltstringstreamIcS5_S6_E5No_OpEE19get_untyped_deleterEv@Base 0.9.8
 _ZN5boost6detail18sp_counted_impl_pdIPNS_2io18basic_altstringbufIcSt11char_traitsIcESaIcEEENS2_22basic_oaltstringstreamIcS5_S6_E5No_OpEE7disposeEv@Base 0.9.8
 _ZN5boost6detail18sp_counted_impl_pdIPNS_2io18basic_altstringbufIcSt11char_traitsIcESaIcEEENS2_22basic_oaltstringstreamIcS5_S6_E5No_OpEED0Ev@Base 0.9.8
 _ZN5boost6detail18sp_counted_impl_pdIPNS_2io18basic_altstringbufIcSt11char_traitsIcESaIcEEENS2_22basic_oaltstringstreamIcS5_S6_E5No_OpEED1Ev@Base 0.9.8
 _ZN5boost6detail18sp_counted_impl_pdIPNS_2io18basic_altstringbufIcSt11char_traitsIcESaIcEEENS2_22basic_oaltstringstreamIcS5_S6_E5No_OpEED2Ev@Base 0.9.8
 _ZN5boost6detail20lexical_cast_do_castISsmE17lexical_cast_implERKm@Base 0.9.8
 _ZN5boost6detail20lexical_cast_do_castIdSsE17lexical_cast_implERKSs@Base 0.9.8
 _ZN5boost6detail20lexical_cast_do_castIiSsE17lexical_cast_implERKSs@Base 0.9.8
 _ZN5boost6detail20lexical_cast_do_castIjSsE17lexical_cast_implERKSs@Base 0.9.8
 _ZN5boost6detail20lexical_cast_do_castImSsE17lexical_cast_implERKSs@Base 0.9.8
 _ZN5boost6detail20sp_pointer_constructINS0_16thread_data_baseENS0_11thread_dataINS_3_bi6bind_tIbNS_4_mfi3mf0IbN4rime8DeployerEEENS4_5list1INS4_5valueIPS9_EEEEEEEEEEvPNS_10shared_ptrIT_EEPT0_RNS0_12shared_countE@Base 0.9.8
 _ZN5boost6detail26lexical_stream_limited_srcIcSt11char_traitsIcELb0EE10shr_signedIiEEbRT_@Base 0.9.8
 _ZN5boost6detail8function15functor_managerINS_3_bi6bind_tIvNS_4_mfi3mf1IvN4rime13AsciiComposerEPNS7_7ContextEEENS3_5list2INS3_5valueIPS8_EENS_3argILi1EEEEEEEE6manageERKNS1_15function_bufferERSL_NS1_30functor_manager_operation_typeE@Base 0.9.8
 _ZN5boost6detail8function15functor_managerINS_3_bi6bind_tIvNS_4_mfi3mf1IvN4rime14ConcreteEngineEPNS7_7ContextEEENS3_5list2INS3_5valueIPS8_EENS_3argILi1EEEEEEEE6manageERKNS1_15function_bufferERSL_NS1_30functor_manager_operation_typeE@Base 0.9.8
 _ZN5boost6detail8function15functor_managerINS_3_bi6bind_tIvNS_4_mfi3mf1IvN4rime6MemoryEPNS7_7ContextEEENS3_5list2INS3_5valueIPS8_EENS_3argILi1EEEEEEEE6manageERKNS1_15function_bufferERSL_NS1_30functor_manager_operation_typeE@Base 0.9.8
 _ZN5boost6detail8function15functor_managerINS_3_bi6bind_tIvNS_4_mfi3mf1IvN4rime7SessionERKSsEENS3_5list2INS3_5valueIPS8_EENS_3argILi1EEEEEEEE6manageERKNS1_15function_bufferERSL_NS1_30functor_manager_operation_typeE@Base 0.9.8
 _ZN5boost6detail8function15functor_managerINS_3_bi6bind_tIvNS_4_mfi3mf1IvN4rime8SwitcherEPNS7_7ContextEEENS3_5list2INS3_5valueIPS8_EENS_3argILi1EEEEEEEE6manageERKNS1_15function_bufferERSL_NS1_30functor_manager_operation_typeE@Base 0.9.8
 _ZN5boost6detail8function15functor_managerINS_3_bi6bind_tIvNS_4_mfi3mf2IvN4rime14ConcreteEngineEPNS7_7ContextERKSsEENS3_5list3INS3_5valueIPS8_EENS_3argILi1EEENSI_ILi2EEEEEEEE6manageERKNS1_15function_bufferERSO_NS1_30functor_manager_operation_typeE@Base 0.9.8
 _ZN5boost6detail8function15functor_managerINS_3_bi6bind_tIvNS_4_mfi3mf2IvN4rime14ConcreteEngineEPSt6vectorINS_10shared_ptrINS7_9CandidateEEESaISC_EESF_EENS3_5list3INS3_5valueIPS8_EENS_3argILi1EEENSL_ILi2EEEEEEEE6manageERKNS1_15function_bufferERSR_NS1_30functor_manager_operation_typeE@Base 0.9.8
 _ZN5boost6detail8function15functor_managerINS_3_bi6bind_tIvNS_4_mfi3mf2IvN4rime6MemoryEPNS7_7ContextERKNS7_8KeyEventEEENS3_5list3INS3_5valueIPS8_EENS_3argILi1EEENSJ_ILi2EEEEEEEE6manageERKNS1_15function_bufferERSP_NS1_30functor_manager_operation_typeE@Base 0.9.8
 _ZN5boost6detail8function15functor_managerINS_3_bi6bind_tIvNS_4_mfi3mf3IvN4rime7ServiceEmRKSsSA_EENS3_5list4INS3_5valueIPS8_EENSD_IiEENS_3argILi1EEENSH_ILi2EEEEEEEE6manageERKNS1_15function_bufferERSN_NS1_30functor_manager_operation_typeE@Base 0.9.8
 _ZN5boost6detail8function15functor_managerINS_3_bi6bind_tIvNS_4_mfi3mf3IvN4rime7ServiceEmRKSsSA_EENS3_5list4INS3_5valueIPS8_EENSD_IiEENS_3argILi1EEENSH_ILi2EEEEEEEE7managerERKNS1_15function_bufferERSN_NS1_30functor_manager_operation_typeEN4mpl_5bool_ILb0EEE@Base 0.9.8
 _ZN5boost6detail8function15functor_managerINS_3_bi6bind_tIvNS_4_mfi3mf3IvN4rime7ServiceEmRKSsSA_EENS3_5list4INS3_5valueIPS8_EENSD_ImEENS_3argILi1EEENSH_ILi2EEEEEEEE6manageERKNS1_15function_bufferERSN_NS1_30functor_manager_operation_typeE@Base 0.9.8
 _ZN5boost6detail8function15functor_managerINS_3_bi6bind_tIvNS_4_mfi3mf3IvN4rime7ServiceEmRKSsSA_EENS3_5list4INS3_5valueIPS8_EENSD_ImEENS_3argILi1EEENSH_ILi2EEEEEEEE7managerERKNS1_15function_bufferERSN_NS1_30functor_manager_operation_typeEN4mpl_5bool_ILb0EEE@Base 0.9.8
 _ZN5boost6detail8function15functor_managerINS_3_bi6bind_tIvPFvPvmPKcS7_ENS3_5list4INS3_5valueIS5_EENS_3argILi1EEENSD_ILi2EEENSD_ILi3EEEEEEEE6manageERKNS1_15function_bufferERSK_NS1_30functor_manager_operation_typeE@Base 0.9.8
 _ZN5boost6detail8function15functor_managerINS_7signals6detail20group_bridge_compareISt4lessIiEiEEE6manageERKNS1_15function_bufferERSA_NS1_30functor_manager_operation_typeE@Base 0.9.8
 _ZN5boost6detail8function15functor_managerINS_9algorithm6detail13token_finderFINS4_10is_any_ofFIcEEEEE6manageERKNS1_15function_bufferERSA_NS1_30functor_manager_operation_typeE@Base 0.9.8
 _ZN5boost6detail8function15functor_managerINS_9algorithm6detail13token_finderFINS4_10is_any_ofFIcEEEEE7managerERKNS1_15function_bufferERSA_NS1_30functor_manager_operation_typeEN4mpl_5bool_ILb0EEE@Base 0.9.8
 _ZN5boost6detail8function15functor_managerINS_9algorithm6detail13token_finderFINS4_14is_classifiedFEEEE6manageERKNS1_15function_bufferERS9_NS1_30functor_manager_operation_typeE@Base 0.9.8
 _ZN5boost6detail8function15functor_managerINS_9algorithm6detail13token_finderFINS4_14is_from_rangeFIcEEEEE6manageERKNS1_15function_bufferERSA_NS1_30functor_manager_operation_typeE@Base 0.9.8
 _ZN5boost6detail8function16has_empty_targetEz@Base 0.9.8
 _ZN5boost6detail8function21function_obj_invoker2INS_7signals6detail20group_bridge_compareISt4lessIiEiEEbNS4_12stored_groupES9_E6invokeERNS1_15function_bufferES9_S9_@Base 0.9.8
 _ZN5boost6detail8function21function_obj_invoker2INS_9algorithm6detail13token_finderFINS4_10is_any_ofFIcEEEENS_14iterator_rangeIN9__gnu_cxx17__normal_iteratorIPKcSsEEEESE_SE_E6invokeERNS1_15function_bufferESE_SE_@Base 0.9.8
 _ZN5boost6detail8function21function_obj_invoker2INS_9algorithm6detail13token_finderFINS4_10is_any_ofFIcEEEENS_14iterator_rangeIN9__gnu_cxx17__normal_iteratorIPcSsEEEESD_SD_E6invokeERNS1_15function_bufferESD_SD_@Base 0.9.8
 _ZN5boost6detail8function21function_obj_invoker2INS_9algorithm6detail13token_finderFINS4_14is_classifiedFEEENS_14iterator_rangeIN9__gnu_cxx17__normal_iteratorIPKcSsEEEESD_SD_E6invokeERNS1_15function_bufferESD_SD_@Base 0.9.8
 _ZN5boost6detail8function21function_obj_invoker2INS_9algorithm6detail13token_finderFINS4_14is_from_rangeFIcEEEENS_14iterator_rangeIN9__gnu_cxx17__normal_iteratorIPKcSsEEEESE_SE_E6invokeERNS1_15function_bufferESE_SE_@Base 0.9.8
 _ZN5boost6detail8function22functor_manager_commonINS_3_bi6bind_tIvNS_4_mfi3mf1IvN4rime14ConcreteEngineEPNS7_7ContextEEENS3_5list2INS3_5valueIPS8_EENS_3argILi1EEEEEEEE12manage_smallERKNS1_15function_bufferERSL_NS1_30functor_manager_operation_typeE@Base 0.9.8
 _ZN5boost6detail8function22functor_manager_commonINS_3_bi6bind_tIvNS_4_mfi3mf1IvN4rime7SessionERKSsEENS3_5list2INS3_5valueIPS8_EENS_3argILi1EEEEEEEE12manage_smallERKNS1_15function_bufferERSL_NS1_30functor_manager_operation_typeE@Base 0.9.8
 _ZN5boost6detail8function22functor_manager_commonINS_3_bi6bind_tIvNS_4_mfi3mf2IvN4rime14ConcreteEngineEPNS7_7ContextERKSsEENS3_5list3INS3_5valueIPS8_EENS_3argILi1EEENSI_ILi2EEEEEEEE12manage_smallERKNS1_15function_bufferERSO_NS1_30functor_manager_operation_typeE@Base 0.9.8
 _ZN5boost6detail8function22functor_manager_commonINS_3_bi6bind_tIvNS_4_mfi3mf2IvN4rime14ConcreteEngineEPSt6vectorINS_10shared_ptrINS7_9CandidateEEESaISC_EESF_EENS3_5list3INS3_5valueIPS8_EENS_3argILi1EEENSL_ILi2EEEEEEEE12manage_smallERKNS1_15function_bufferERSR_NS1_30functor_manager_operation_typeE@Base 0.9.8
 _ZN5boost6detail8function22functor_manager_commonINS_3_bi6bind_tIvPFvPvmPKcS7_ENS3_5list4INS3_5valueIS5_EENS_3argILi1EEENSD_ILi2EEENSD_ILi3EEEEEEEE12manage_smallERKNS1_15function_bufferERSK_NS1_30functor_manager_operation_typeE@Base 0.9.8
 _ZN5boost6detail8function22functor_manager_commonINS_7signals6detail20group_bridge_compareISt4lessIiEiEEE12manage_smallERKNS1_15function_bufferERSA_NS1_30functor_manager_operation_typeE@Base 0.9.8
 _ZN5boost6detail8function22functor_manager_commonINS_9algorithm6detail13token_finderFINS4_14is_classifiedFEEEE12manage_smallERKNS1_15function_bufferERS9_NS1_30functor_manager_operation_typeE@Base 0.9.8
 _ZN5boost6detail8function22functor_manager_commonINS_9algorithm6detail13token_finderFINS4_14is_from_rangeFIcEEEEE12manage_smallERKNS1_15function_bufferERSA_NS1_30functor_manager_operation_typeE@Base 0.9.8
 _ZN5boost6detail8function26void_function_obj_invoker1INS_3_bi6bind_tIvNS_4_mfi3mf1IvN4rime13AsciiComposerEPNS7_7ContextEEENS3_5list2INS3_5valueIPS8_EENS_3argILi1EEEEEEEvSA_E6invokeERNS1_15function_bufferESA_@Base 0.9.8
 _ZN5boost6detail8function26void_function_obj_invoker1INS_3_bi6bind_tIvNS_4_mfi3mf1IvN4rime14ConcreteEngineEPNS7_7ContextEEENS3_5list2INS3_5valueIPS8_EENS_3argILi1EEEEEEEvSA_E6invokeERNS1_15function_bufferESA_@Base 0.9.8
 _ZN5boost6detail8function26void_function_obj_invoker1INS_3_bi6bind_tIvNS_4_mfi3mf1IvN4rime6MemoryEPNS7_7ContextEEENS3_5list2INS3_5valueIPS8_EENS_3argILi1EEEEEEEvSA_E6invokeERNS1_15function_bufferESA_@Base 0.9.8
 _ZN5boost6detail8function26void_function_obj_invoker1INS_3_bi6bind_tIvNS_4_mfi3mf1IvN4rime7SessionERKSsEENS3_5list2INS3_5valueIPS8_EENS_3argILi1EEEEEEEvSA_E6invokeERNS1_15function_bufferESA_@Base 0.9.8
 _ZN5boost6detail8function26void_function_obj_invoker1INS_3_bi6bind_tIvNS_4_mfi3mf1IvN4rime8SwitcherEPNS7_7ContextEEENS3_5list2INS3_5valueIPS8_EENS_3argILi1EEEEEEEvSA_E6invokeERNS1_15function_bufferESA_@Base 0.9.8
 _ZN5boost6detail8function26void_function_obj_invoker2INS_3_bi6bind_tIvNS_4_mfi3mf2IvN4rime14ConcreteEngineEPNS7_7ContextERKSsEENS3_5list3INS3_5valueIPS8_EENS_3argILi1EEENSI_ILi2EEEEEEEvSA_SC_E6invokeERNS1_15function_bufferESA_SC_@Base 0.9.8
 _ZN5boost6detail8function26void_function_obj_invoker2INS_3_bi6bind_tIvNS_4_mfi3mf2IvN4rime14ConcreteEngineEPSt6vectorINS_10shared_ptrINS7_9CandidateEEESaISC_EESF_EENS3_5list3INS3_5valueIPS8_EENS_3argILi1EEENSL_ILi2EEEEEEEvSF_SF_E6invokeERNS1_15function_bufferESF_SF_@Base 0.9.8
 _ZN5boost6detail8function26void_function_obj_invoker2INS_3_bi6bind_tIvNS_4_mfi3mf2IvN4rime6MemoryEPNS7_7ContextERKNS7_8KeyEventEEENS3_5list3INS3_5valueIPS8_EENS_3argILi1EEENSJ_ILi2EEEEEEEvSA_SD_E6invokeERNS1_15function_bufferESA_SD_@Base 0.9.8
 _ZN5boost6detail8function26void_function_obj_invoker2INS_3_bi6bind_tIvNS_4_mfi3mf3IvN4rime7ServiceEmRKSsSA_EENS3_5list4INS3_5valueIPS8_EENSD_IiEENS_3argILi1EEENSH_ILi2EEEEEEEvSA_SA_E6invokeERNS1_15function_bufferESA_SA_@Base 0.9.8
 _ZN5boost6detail8function26void_function_obj_invoker2INS_3_bi6bind_tIvNS_4_mfi3mf3IvN4rime7ServiceEmRKSsSA_EENS3_5list4INS3_5valueIPS8_EENSD_ImEENS_3argILi1EEENSH_ILi2EEEEEEEvSA_SA_E6invokeERNS1_15function_bufferESA_SA_@Base 0.9.8
 _ZN5boost6detail8function26void_function_obj_invoker3INS_3_bi6bind_tIvPFvPvmPKcS7_ENS3_5list4INS3_5valueIS5_EENS_3argILi1EEENSD_ILi2EEENSD_ILi3EEEEEEEvmS7_S7_E6invokeERNS1_15function_bufferEmS7_S7_@Base 0.9.8
 _ZN5boost6random23mersenne_twister_engineIjLm32ELm624ELm397ELm31ELj2567483615ELm11ELj4294967295ELm7ELj2636928640ELm15ELj4022730752ELm18ELj1812433253EE4seedINS_5uuids6detail18generator_iteratorINS5_8seed_rngEEEEEvRT_S9_@Base 0.9.8
 _ZN5boost6random23mersenne_twister_engineIjLm32ELm624ELm397ELm31ELj2567483615ELm11ELj4294967295ELm7ELj2636928640ELm15ELj4022730752ELm18ELj1812433253EE5twistEv@Base 0.9.8
 _ZN5boost6random23mersenne_twister_engineIjLm32ELm624ELm397ELm31ELj2567483615ELm11ELj4294967295ELm7ELj2636928640ELm15ELj4022730752ELm18ELj1812433253EEclEv@Base 0.9.8
 _ZN5boost6random6detail19fill_array_int_implILi32ELm624ENS_5uuids6detail18generator_iteratorINS4_8seed_rngEEEjEEvRT1_S8_RAT0__T2_@Base 0.9.8
 _ZN5boost6random6detail20generate_uniform_intINS0_23mersenne_twister_engineIjLm32ELm624ELm397ELm31ELj2567483615ELm11ELj4294967295ELm7ELj2636928640ELm15ELj4022730752ELm18ELj1812433253EEEmEET0_RT_S5_S5_N4mpl_5bool_ILb1EEE@Base 0.9.8
 _ZN5boost6signalIFvPN4rime7ContextEENS_10last_valueIvEEiSt4lessIiENS_8functionIS4_EEED1Ev@Base 0.9.8
 _ZN5boost6signalIFvPN4rime7ContextEENS_10last_valueIvEEiSt4lessIiENS_8functionIS4_EEED2Ev@Base 0.9.8
 _ZN5boost6system10error_code21unspecified_bool_trueEv@Base 0.9.8
 _ZN5boost6system12system_errorC1ENS0_10error_codeEPKc@Base 0.9.8
 _ZN5boost6system12system_errorC1ERKS1_@Base 0.9.8
 _ZN5boost6system12system_errorC2ENS0_10error_codeEPKc@Base 0.9.8
 _ZN5boost6system12system_errorC2ERKS1_@Base 0.9.8
 _ZN5boost6system12system_errorD0Ev@Base 0.9.8
 _ZN5boost6system12system_errorD1Ev@Base 0.9.8
 _ZN5boost6system12system_errorD2Ev@Base 0.9.8
 _ZN5boost6system14error_categoryD0Ev@Base 0.9.8
 _ZN5boost6system14error_categoryD1Ev@Base 0.9.8
 _ZN5boost6system14error_categoryD2Ev@Base 0.9.8
 _ZN5boost6thread10timed_joinINS_9date_time18subsecond_durationINS_10posix_time13time_durationELl1000EEEEEbRKT_@Base 0.9.8
 _ZN5boost6thread17do_try_join_untilERK8timespec@Base 0.9.8
 _ZN5boost6thread4joinEv@Base 0.9.8
 _ZN5boost6threadC1INS_3_bi6bind_tIbNS_4_mfi3mf0IbN4rime8DeployerEEENS2_5list1INS2_5valueIPS7_EEEEEEEET_NS_12disable_if_cIXsrNS_13thread_detail14is_convertibleIRSF_NS_6detail13thread_move_tISF_EEEE5valueEPNS0_5dummyEE4typeE@Base 0.9.8
 _ZN5boost6threadC2INS_3_bi6bind_tIbNS_4_mfi3mf0IbN4rime8DeployerEEENS2_5list1INS2_5valueIPS7_EEEEEEEET_NS_12disable_if_cIXsrNS_13thread_detail14is_convertibleIRSF_NS_6detail13thread_move_tISF_EEEE5valueEPNS0_5dummyEE4typeE@Base 0.9.8
 _ZN5boost6threadD1Ev@Base 0.9.8
 _ZN5boost6threadD2Ev@Base 0.9.8
 _ZN5boost7signal1IvPN4rime7ContextENS_10last_valueIvEEiSt4lessIiENS_8functionIFvS3_EEEE7connectERKNS_4slotISA_EENS_7signals16connect_positionE@Base 0.9.8
 _ZN5boost7signal1IvPN4rime7ContextENS_10last_valueIvEEiSt4lessIiENS_8functionIFvS3_EEEEclES3_@Base 0.9.8
 _ZN5boost7signal1IvRKSsNS_10last_valueIvEEiSt4lessIiENS_8functionIFvS2_EEEE7connectERKNS_4slotIS9_EENS_7signals16connect_positionE@Base 0.9.8
 _ZN5boost7signal1IvRKSsNS_10last_valueIvEEiSt4lessIiENS_8functionIFvS2_EEEEC1ERKS4_RKS6_@Base 0.9.8
 _ZN5boost7signal1IvRKSsNS_10last_valueIvEEiSt4lessIiENS_8functionIFvS2_EEEEC2ERKS4_RKS6_@Base 0.9.8
 _ZN5boost7signal1IvRKSsNS_10last_valueIvEEiSt4lessIiENS_8functionIFvS2_EEEED1Ev@Base 0.9.8
 _ZN5boost7signal1IvRKSsNS_10last_valueIvEEiSt4lessIiENS_8functionIFvS2_EEEED2Ev@Base 0.9.8
 _ZN5boost7signal1IvRKSsNS_10last_valueIvEEiSt4lessIiENS_8functionIFvS2_EEEEclES2_@Base 0.9.8
 _ZN5boost7signal2IvPN4rime7ContextERKNS1_8KeyEventENS_10last_valueIvEEiSt4lessIiENS_8functionIFvS3_S6_EEEE7connectERKNS_4slotISD_EENS_7signals16connect_positionE@Base 0.9.8
 _ZN5boost7signal2IvPN4rime7ContextERKNS1_8KeyEventENS_10last_valueIvEEiSt4lessIiENS_8functionIFvS3_S6_EEEEclES3_S6_@Base 0.9.8
 _ZN5boost7signal2IvPN4rime7ContextERKSsNS_10last_valueIvEEiSt4lessIiENS_8functionIFvS3_S5_EEEE7connectERKNS_4slotISC_EENS_7signals16connect_positionE@Base 0.9.8
 _ZN5boost7signal2IvPN4rime7ContextERKSsNS_10last_valueIvEEiSt4lessIiENS_8functionIFvS3_S5_EEEED1Ev@Base 0.9.8
 _ZN5boost7signal2IvPN4rime7ContextERKSsNS_10last_valueIvEEiSt4lessIiENS_8functionIFvS3_S5_EEEED2Ev@Base 0.9.8
 _ZN5boost7signal2IvPN4rime7ContextERKSsNS_10last_valueIvEEiSt4lessIiENS_8functionIFvS3_S5_EEEEclES3_S5_@Base 0.9.8
 _ZN5boost7signal2IvRKSsS2_NS_10last_valueIvEEiSt4lessIiENS_8functionIFvS2_S2_EEEE7connectERKNS_4slotIS9_EENS_7signals16connect_positionE@Base 0.9.8
 _ZN5boost7signal2IvRKSsS2_NS_10last_valueIvEEiSt4lessIiENS_8functionIFvS2_S2_EEEEC1ERKS4_RKS6_@Base 0.9.8
 _ZN5boost7signal2IvRKSsS2_NS_10last_valueIvEEiSt4lessIiENS_8functionIFvS2_S2_EEEEC2ERKS4_RKS6_@Base 0.9.8
 _ZN5boost7signal2IvRKSsS2_NS_10last_valueIvEEiSt4lessIiENS_8functionIFvS2_S2_EEEEclES2_S2_@Base 0.9.8
 _ZN5boost7signals6detail18slot_call_iteratorINS1_11call_bound1IvE6callerIRKSsNS_8functionIFvS7_EEEEENS1_23named_slot_map_iteratorEEC1ESC_SC_SB_RNS_8optionalINS1_8unusableEEE@Base 0.9.8
 _ZN5boost7signals6detail18slot_call_iteratorINS1_11call_bound1IvE6callerIRKSsNS_8functionIFvS7_EEEEENS1_23named_slot_map_iteratorEEC2ESC_SC_SB_RNS_8optionalINS1_8unusableEEE@Base 0.9.8
 _ZN5boost7signals6detail18slot_call_iteratorINS1_11call_bound2IvE6callerIPN4rime7ContextERKNS6_8KeyEventENS_8functionIFvS8_SB_EEEEENS1_23named_slot_map_iteratorEEC1ESG_SG_SF_RNS_8optionalINS1_8unusableEEE@Base 0.9.8
 _ZN5boost7signals6detail18slot_call_iteratorINS1_11call_bound2IvE6callerIPN4rime7ContextERKNS6_8KeyEventENS_8functionIFvS8_SB_EEEEENS1_23named_slot_map_iteratorEEC2ESG_SG_SF_RNS_8optionalINS1_8unusableEEE@Base 0.9.8
 _ZN5boost7signals6detail18slot_call_iteratorINS1_11call_bound2IvE6callerIRKSsS7_NS_8functionIFvS7_S7_EEEEENS1_23named_slot_map_iteratorEEC1ESC_SC_SB_RNS_8optionalINS1_8unusableEEE@Base 0.9.8
 _ZN5boost7signals6detail18slot_call_iteratorINS1_11call_bound2IvE6callerIRKSsS7_NS_8functionIFvS7_S7_EEEEENS1_23named_slot_map_iteratorEEC2ESC_SC_SB_RNS_8optionalINS1_8unusableEEE@Base 0.9.8
 _ZN5boost7signals6detail23named_slot_map_iterator15init_next_groupEv@Base 0.9.8
 _ZN5boost7signals6detail9slot_baseD1Ev@Base 0.9.8
 _ZN5boost7signals6detail9slot_baseD2Ev@Base 0.9.8
 _ZN5boost8functionIFvmPKcS2_EEaSERKS4_@Base 0.9.8
 _ZN5boost8optionalISt6localeED1Ev@Base 0.9.8
 _ZN5boost8optionalISt6localeED2Ev@Base 0.9.8
 _ZN5boost8weak_ptrIN4rime10ConfigDataEED1Ev@Base 0.9.8
 _ZN5boost8weak_ptrIN4rime10ConfigDataEED2Ev@Base 0.9.8
 _ZN5boost8weak_ptrIN4rime5PrismEED1Ev@Base 0.9.8
 _ZN5boost8weak_ptrIN4rime5PrismEED2Ev@Base 0.9.8
 _ZN5boost8weak_ptrIN4rime5PrismEEaSIS2_EERS3_RKNS_10shared_ptrIT_EE@Base 0.9.8
 _ZN5boost8weak_ptrIN4rime5TableEED1Ev@Base 0.9.8
 _ZN5boost8weak_ptrIN4rime5TableEED2Ev@Base 0.9.8
 _ZN5boost8weak_ptrIN4rime5TableEEaSIS2_EERS3_RKNS_10shared_ptrIT_EE@Base 0.9.8
 _ZN5boost8weak_ptrIN4rime6TreeDbEEaSIS2_EERS3_RKNS_10shared_ptrIT_EE@Base 0.9.8
 _ZN5boost8weak_ptrIN4rime6UserDbEEaSIS2_EERS3_RKNS_10shared_ptrIT_EE@Base 0.9.8
 _ZN5boost9algorithm10erase_lastISsA5_cEEvRT_RKT0_@Base 0.9.8
 _ZN5boost9algorithm10erase_lastISsA8_cEEvRT_RKT0_@Base 0.9.8
 _ZN5boost9algorithm10iter_splitISt6vectorISsSaISsEEKSsNS0_6detail13token_finderFINS6_10is_any_ofFIcEEEEEERT_SC_RT0_T1_@Base 0.9.8
 _ZN5boost9algorithm10iter_splitISt6vectorISsSaISsEEKSsNS0_6detail13token_finderFINS6_14is_classifiedFEEEEERT_SB_RT0_T1_@Base 0.9.8
 _ZN5boost9algorithm10iter_splitISt6vectorISsSaISsEEKSsNS0_6detail13token_finderFINS6_14is_from_rangeFIcEEEEEERT_SC_RT0_T1_@Base 0.9.8
 _ZN5boost9algorithm10iter_splitISt6vectorISsSaISsEESsNS0_6detail13token_finderFINS5_10is_any_ofFIcEEEEEERT_SB_RT0_T1_@Base 0.9.8
 _ZN5boost9algorithm11find_formatISsNS0_6detail12last_finderFIPKcNS0_8is_equalEEENS2_13empty_formatFIcEEEEvRT_T0_T1_@Base 0.9.8
 _ZN5boost9algorithm11starts_withISsA3_cNS0_8is_equalEEEbRKT_RKT0_T1_@Base 0.9.8
 _ZN5boost9algorithm11starts_withISsSsEEbRKT_RKT0_@Base 0.9.8
 _ZN5boost9algorithm12token_finderINS0_6detail10is_any_ofFIcEEEENS2_13token_finderFIT_EES6_NS0_24token_compress_mode_typeE@Base 0.9.8
 _ZN5boost9algorithm12trim_left_ifISsNS0_6detail14is_classifiedFEEEvRT_T0_@Base 0.9.8
 _ZN5boost9algorithm13trim_right_ifISsNS0_6detail10is_any_ofFIcEEEEvRT_T0_@Base 0.9.8
 _ZN5boost9algorithm13trim_right_ifISsNS0_6detail14is_classifiedFEEEvRT_T0_@Base 0.9.8
 _ZN5boost9algorithm14split_iteratorIN9__gnu_cxx17__normal_iteratorIPKcSsEEE9incrementEv@Base 0.9.8
 _ZN5boost9algorithm14split_iteratorIN9__gnu_cxx17__normal_iteratorIPKcSsEEEC1INS0_6detail13token_finderFINS9_10is_any_ofFIcEEEEEES6_S6_T_@Base 0.9.8
 _ZN5boost9algorithm14split_iteratorIN9__gnu_cxx17__normal_iteratorIPKcSsEEEC1INS0_6detail13token_finderFINS9_14is_classifiedFEEEEES6_S6_T_@Base 0.9.8
 _ZN5boost9algorithm14split_iteratorIN9__gnu_cxx17__normal_iteratorIPKcSsEEEC2INS0_6detail13token_finderFINS9_10is_any_ofFIcEEEEEES6_S6_T_@Base 0.9.8
 _ZN5boost9algorithm14split_iteratorIN9__gnu_cxx17__normal_iteratorIPKcSsEEEC2INS0_6detail13token_finderFINS9_14is_classifiedFEEEEES6_S6_T_@Base 0.9.8
 _ZN5boost9algorithm14split_iteratorIN9__gnu_cxx17__normal_iteratorIPKcSsEEED1Ev@Base 0.9.8
 _ZN5boost9algorithm14split_iteratorIN9__gnu_cxx17__normal_iteratorIPKcSsEEED2Ev@Base 0.9.8
 _ZN5boost9algorithm14split_iteratorIN9__gnu_cxx17__normal_iteratorIPcSsEEE9incrementEv@Base 0.9.8
 _ZN5boost9algorithm14split_iteratorIN9__gnu_cxx17__normal_iteratorIPcSsEEEC1INS0_6detail13token_finderFINS8_10is_any_ofFIcEEEEEES5_S5_T_@Base 0.9.8
 _ZN5boost9algorithm14split_iteratorIN9__gnu_cxx17__normal_iteratorIPcSsEEEC2INS0_6detail13token_finderFINS8_10is_any_ofFIcEEEEEES5_S5_T_@Base 0.9.8
 _ZN5boost9algorithm14split_iteratorIN9__gnu_cxx17__normal_iteratorIPcSsEEED1Ev@Base 0.9.8
 _ZN5boost9algorithm14split_iteratorIN9__gnu_cxx17__normal_iteratorIPcSsEEED2Ev@Base 0.9.8
 _ZN5boost9algorithm3allISsNS0_6detail8pred_orFINS2_14is_classifiedFENS2_10is_any_ofFIcEEEEEEbRKT_T0_@Base 0.9.8
 _ZN5boost9algorithm4joinIN4rime10dictionary7RawCodeEA2_cEENS_11range_valueIT_E4typeERKS7_RKT0_@Base 0.9.8
 _ZN5boost9algorithm4joinIN4rime10dictionary7RawCodeESsEENS_11range_valueIT_E4typeERKS6_RKT0_@Base 0.9.8
 _ZN5boost9algorithm4joinISt6vectorISsSaISsEEA2_cEENS_11range_valueIT_E4typeERKS7_RKT0_@Base 0.9.8
 _ZN5boost9algorithm4trimISsEEvRT_RKSt6locale@Base 0.9.8
 _ZN5boost9algorithm5splitISt6vectorISsSaISsEEKSsNS0_6detail10is_any_ofFIcEEEERT_SA_RT0_T1_NS0_24token_compress_mode_typeE@Base 0.9.8
 _ZN5boost9algorithm5splitISt6vectorISsSaISsEEKSsNS0_6detail14is_classifiedFEEERT_S9_RT0_T1_NS0_24token_compress_mode_typeE@Base 0.9.8
 _ZN5boost9algorithm5splitISt6vectorISsSaISsEESsNS0_6detail10is_any_ofFIcEEEERT_S9_RT0_T1_NS0_24token_compress_mode_typeE@Base 0.9.8
 _ZN5boost9algorithm6detail10is_any_ofFIcEC1ERKS3_@Base 0.9.8
 _ZN5boost9algorithm6detail10is_any_ofFIcEC1INS_14iterator_rangeIN9__gnu_cxx17__normal_iteratorIPKcSsEEEEEERKT_@Base 0.9.8
 _ZN5boost9algorithm6detail10is_any_ofFIcEC1INS_14iterator_rangeIPKcEEEERKT_@Base 0.9.8
 _ZN5boost9algorithm6detail10is_any_ofFIcEC2ERKS3_@Base 0.9.8
 _ZN5boost9algorithm6detail10is_any_ofFIcEC2INS_14iterator_rangeIN9__gnu_cxx17__normal_iteratorIPKcSsEEEEEERKT_@Base 0.9.8
 _ZN5boost9algorithm6detail10is_any_ofFIcEC2INS_14iterator_rangeIPKcEEEERKT_@Base 0.9.8
 _ZN5boost9algorithm6detail10is_any_ofFIcED1Ev@Base 0.9.8
 _ZN5boost9algorithm6detail10is_any_ofFIcED2Ev@Base 0.9.8
 _ZN5boost9algorithm6detail13token_finderFINS1_10is_any_ofFIcEEEC1ERKS5_@Base 0.9.8
 _ZN5boost9algorithm6detail13token_finderFINS1_10is_any_ofFIcEEEC2ERKS5_@Base 0.9.8
 _ZN5boost9algorithm6detail13token_finderFINS1_10is_any_ofFIcEEED1Ev@Base 0.9.8
 _ZN5boost9algorithm6detail13token_finderFINS1_10is_any_ofFIcEEED2Ev@Base 0.9.8
 _ZN5boost9algorithm6detail13token_finderFINS1_14is_classifiedFEEC1ERKS4_@Base 0.9.8
 _ZN5boost9algorithm6detail13token_finderFINS1_14is_classifiedFEEC2ERKS4_@Base 0.9.8
 _ZN5boost9algorithm6detail14is_classifiedFD1Ev@Base 0.9.8
 _ZN5boost9algorithm6detail14is_classifiedFD2Ev@Base 0.9.8
 _ZN5boost9algorithm6detail18find_iterator_baseIN9__gnu_cxx17__normal_iteratorIPKcSsEEEC1INS1_13token_finderFINS1_10is_any_ofFIcEEEEEET_i@Base 0.9.8
 _ZN5boost9algorithm6detail18find_iterator_baseIN9__gnu_cxx17__normal_iteratorIPKcSsEEEC1INS1_13token_finderFINS1_14is_classifiedFEEEEET_i@Base 0.9.8
 _ZN5boost9algorithm6detail18find_iterator_baseIN9__gnu_cxx17__normal_iteratorIPKcSsEEEC2INS1_13token_finderFINS1_10is_any_ofFIcEEEEEET_i@Base 0.9.8
 _ZN5boost9algorithm6detail18find_iterator_baseIN9__gnu_cxx17__normal_iteratorIPKcSsEEEC2INS1_13token_finderFINS1_14is_classifiedFEEEEET_i@Base 0.9.8
 _ZN5boost9algorithm6detail18find_iterator_baseIN9__gnu_cxx17__normal_iteratorIPcSsEEEC1INS1_13token_finderFINS1_10is_any_ofFIcEEEEEET_i@Base 0.9.8
 _ZN5boost9algorithm6detail18find_iterator_baseIN9__gnu_cxx17__normal_iteratorIPcSsEEEC2INS1_13token_finderFINS1_10is_any_ofFIcEEEEEET_i@Base 0.9.8
 _ZN5boost9algorithm6detail21find_format_all_impl2ISsNS1_13first_finderFIPKcNS0_8is_equalEEENS1_13const_formatFINS_14iterator_rangeIS5_EEEENS9_IN9__gnu_cxx17__normal_iteratorIPcSsEEEESA_EEvRT_T0_T1_T2_T3_@Base 0.9.8
 _ZN5boost9algorithm6detail8pred_orFINS1_14is_classifiedFENS1_10is_any_ofFIcEEEC1ES3_S5_@Base 0.9.8
 _ZN5boost9algorithm6detail8pred_orFINS1_14is_classifiedFENS1_10is_any_ofFIcEEEC2ES3_S5_@Base 0.9.8
 _ZN5boost9algorithm6detail8pred_orFINS1_14is_classifiedFENS1_10is_any_ofFIcEEED1Ev@Base 0.9.8
 _ZN5boost9algorithm6detail8pred_orFINS1_14is_classifiedFENS1_10is_any_ofFIcEEED2Ev@Base 0.9.8
 _ZN5boost9algorithm7trim_ifISsNS0_6detail14is_classifiedFEEEvRT_T0_@Base 0.9.8
 _ZN5boost9algorithm8to_lowerISsEEvRT_RKSt6locale@Base 0.9.8
 _ZN5boost9algorithm9ends_withISsA13_cNS0_8is_equalEEEbRKT_RKT0_T1_@Base 0.9.8
 _ZN5boost9algorithm9ends_withISsA21_cNS0_8is_equalEEEbRKT_RKT0_T1_@Base 0.9.8
 _ZN5boost9algorithm9ends_withISsSsNS0_8is_equalEEEbRKT_RKT0_T1_@Base 0.9.8
 _ZN5boost9algorithm9is_any_ofIA2_cEENS0_6detail10is_any_ofFINS_11range_valueIT_E4typeEEERKS6_@Base 0.9.8
 _ZN5boost9algorithm9is_any_ofISsEENS0_6detail10is_any_ofFINS_11range_valueIT_E4typeEEERKS5_@Base 0.9.8
 _ZN5boost9algorithmooINS0_6detail14is_classifiedFENS2_10is_any_ofFIcEEEENS2_8pred_orFIT_T0_EERKNS0_16predicate_facadeIS7_EERKNSA_IS8_EE@Base 0.9.8
 _ZN5boost9assertion6detail20assertion_failed_msgEPKcS3_S3_S3_l@Base 0.9.8
 _ZN5boost9date_time14microsec_clockINS_10posix_time5ptimeEE11create_timeEPFP2tmPKlS6_E@Base 0.9.8
 _ZN5boost9date_time19counted_time_systemINS0_16counted_time_repINS_10posix_time33millisec_posix_time_system_configEEEE14subtract_timesERKS5_S8_@Base 0.9.8
 _ZN5boost9date_time19counted_time_systemINS0_16counted_time_repINS_10posix_time33millisec_posix_time_system_configEEEE17add_time_durationERKS5_NS3_13time_durationE@Base 0.9.8
 _ZN5boost9date_time6c_time6gmtimeEPKlP2tm@Base 0.9.8
 _ZN5boost9exceptionD0Ev@Base 0.9.8
 _ZN5boost9exceptionD1Ev@Base 0.9.8
 _ZN5boost9exceptionD2Ev@Base 0.9.8
 _ZN5boost9function1IvPN4rime7ContextEE5clearEv@Base 0.9.8
 _ZN5boost9function1IvRKSsE5clearEv@Base 0.9.8
 _ZN5boost9function2INS_14iterator_rangeIN9__gnu_cxx17__normal_iteratorIPKcSsEEEES6_S6_E5clearEv@Base 0.9.8
 _ZN5boost9function2INS_14iterator_rangeIN9__gnu_cxx17__normal_iteratorIPKcSsEEEES6_S6_E9assign_toINS_9algorithm6detail13token_finderFINSB_10is_any_ofFIcEEEEEEvT_@Base 0.9.8
 _ZN5boost9function2INS_14iterator_rangeIN9__gnu_cxx17__normal_iteratorIPKcSsEEEES6_S6_E9assign_toINS_9algorithm6detail13token_finderFINSB_14is_classifiedFEEEEEvT_@Base 0.9.8
 _ZN5boost9function2INS_14iterator_rangeIN9__gnu_cxx17__normal_iteratorIPKcSsEEEES6_S6_EC1INS_9algorithm6detail13token_finderFINSB_10is_any_ofFIcEEEEEET_NS_11enable_if_cIXsrNS_11type_traits7ice_notIXsrNS_11is_integralISG_EE5valueEEE5valueEiE4typeE@Base 0.9.8
 _ZN5boost9function2INS_14iterator_rangeIN9__gnu_cxx17__normal_iteratorIPKcSsEEEES6_S6_EC2INS_9algorithm6detail13token_finderFINSB_10is_any_ofFIcEEEEEET_NS_11enable_if_cIXsrNS_11type_traits7ice_notIXsrNS_11is_integralISG_EE5valueEEE5valueEiE4typeE@Base 0.9.8
 _ZN5boost9function2INS_14iterator_rangeIN9__gnu_cxx17__normal_iteratorIPcSsEEEES5_S5_E5clearEv@Base 0.9.8
 _ZN5boost9function2INS_14iterator_rangeIN9__gnu_cxx17__normal_iteratorIPcSsEEEES5_S5_E9assign_toINS_9algorithm6detail13token_finderFINSA_10is_any_ofFIcEEEEEEvT_@Base 0.9.8
 _ZN5boost9function2INS_14iterator_rangeIN9__gnu_cxx17__normal_iteratorIPcSsEEEES5_S5_EC1INS_9algorithm6detail13token_finderFINSA_10is_any_ofFIcEEEEEET_NS_11enable_if_cIXsrNS_11type_traits7ice_notIXsrNS_11is_integralISF_EE5valueEEE5valueEiE4typeE@Base 0.9.8
 _ZN5boost9function2INS_14iterator_rangeIN9__gnu_cxx17__normal_iteratorIPcSsEEEES5_S5_EC2INS_9algorithm6detail13token_finderFINSA_10is_any_ofFIcEEEEEET_NS_11enable_if_cIXsrNS_11type_traits7ice_notIXsrNS_11is_integralISF_EE5valueEEE5valueEiE4typeE@Base 0.9.8
 _ZN5boost9function2IbNS_7signals6detail12stored_groupES3_E5clearEv@Base 0.9.8
 _ZN5boost9function2IvPN4rime7ContextERKSsE5clearEv@Base 0.9.8
 _ZN5boost9function2IvPSt6vectorINS_10shared_ptrIN4rime9CandidateEEESaIS5_EES8_E5dummy7nonnullEv@Base 0.9.8
 _ZN5boost9function2IvRKSsS2_E5clearEv@Base 0.9.8
 _ZN5boost9function3IvmPKcS2_E11move_assignERS3_@Base 0.9.8
 _ZN5boost9function3IvmPKcS2_E4swapERS3_@Base 0.9.8
 _ZN5boost9function3IvmPKcS2_E5clearEv@Base 0.9.8
 _ZN5boost9function3IvmPKcS2_E5dummy7nonnullEv@Base 0.9.8
 _ZN5boost9gregorian16bad_day_of_monthC1Ev@Base 0.9.8
 _ZN5boost9gregorian16bad_day_of_monthC2Ev@Base 0.9.8
 _ZN5boost9gregorian16bad_day_of_monthD0Ev@Base 0.9.8
 _ZN5boost9gregorian16bad_day_of_monthD1Ev@Base 0.9.8
 _ZN5boost9gregorian16bad_day_of_monthD2Ev@Base 0.9.8
 _ZN5boost9gregorian4dateC1ENS0_9greg_yearENS0_10greg_monthENS0_8greg_dayE@Base 0.9.8
 _ZN5boost9gregorian4dateC2ENS0_9greg_yearENS0_10greg_monthENS0_8greg_dayE@Base 0.9.8
 _ZN5boost9gregorian8bad_yearC1Ev@Base 0.9.8
 _ZN5boost9gregorian8bad_yearC2Ev@Base 0.9.8
 _ZN5boost9gregorian8bad_yearD0Ev@Base 0.9.8
 _ZN5boost9gregorian8bad_yearD1Ev@Base 0.9.8
 _ZN5boost9gregorian8bad_yearD2Ev@Base 0.9.8
 _ZN5boost9gregorian9bad_monthC1Ev@Base 0.9.8
 _ZN5boost9gregorian9bad_monthC2Ev@Base 0.9.8
 _ZN5boost9gregorian9bad_monthD0Ev@Base 0.9.8
 _ZN5boost9gregorian9bad_monthD1Ev@Base 0.9.8
 _ZN5boost9gregorian9bad_monthD2Ev@Base 0.9.8
 _ZN5boost9re_detail11raise_errorINS_20regex_traits_wrapperINS_12regex_traitsIcNS_16cpp_regex_traitsIcEEEEEEEEvRKT_NS_15regex_constants10error_typeE@Base 0.9.8
 _ZN5boost9re_detail12perl_matcherIN9__gnu_cxx17__normal_iteratorIPKcSsEESaINS_9sub_matchIS6_EEENS_12regex_traitsIcNS_16cpp_regex_traitsIcEEEEE10match_jumpEv@Base 0.9.8
 _ZN5boost9re_detail12perl_matcherIN9__gnu_cxx17__normal_iteratorIPKcSsEESaINS_9sub_matchIS6_EEENS_12regex_traitsIcNS_16cpp_regex_traitsIcEEEEE10match_wildEv@Base 0.9.8
 _ZN5boost9re_detail12perl_matcherIN9__gnu_cxx17__normal_iteratorIPKcSsEESaINS_9sub_matchIS6_EEENS_12regex_traitsIcNS_16cpp_regex_traitsIcEEEEE10unwind_altEb@Base 0.9.8
 _ZN5boost9re_detail12perl_matcherIN9__gnu_cxx17__normal_iteratorIPKcSsEESaINS_9sub_matchIS6_EEENS_12regex_traitsIcNS_16cpp_regex_traitsIcEEEEE10unwind_endEb@Base 0.9.8
 _ZN5boost9re_detail12perl_matcherIN9__gnu_cxx17__normal_iteratorIPKcSsEESaINS_9sub_matchIS6_EEENS_12regex_traitsIcNS_16cpp_regex_traitsIcEEEEE11match_matchEv@Base 0.9.8
 _ZN5boost9re_detail12perl_matcherIN9__gnu_cxx17__normal_iteratorIPKcSsEESaINS_9sub_matchIS6_EEENS_12regex_traitsIcNS_16cpp_regex_traitsIcEEEEE12extend_stackEv@Base 0.9.8
 _ZN5boost9re_detail12perl_matcherIN9__gnu_cxx17__normal_iteratorIPKcSsEESaINS_9sub_matchIS6_EEENS_12regex_traitsIcNS_16cpp_regex_traitsIcEEEEE12match_prefixEv@Base 0.9.8
 _ZN5boost9re_detail12perl_matcherIN9__gnu_cxx17__normal_iteratorIPKcSsEESaINS_9sub_matchIS6_EEENS_12regex_traitsIcNS_16cpp_regex_traitsIcEEEEE12unwind_parenEb@Base 0.9.8
 _ZN5boost9re_detail12perl_matcherIN9__gnu_cxx17__normal_iteratorIPKcSsEESaINS_9sub_matchIS6_EEENS_12regex_traitsIcNS_16cpp_regex_traitsIcEEEEE13match_backrefEv@Base 0.9.8
 _ZN5boost9re_detail12perl_matcherIN9__gnu_cxx17__normal_iteratorIPKcSsEESaINS_9sub_matchIS6_EEENS_12regex_traitsIcNS_16cpp_regex_traitsIcEEEEE13match_endmarkEv@Base 0.9.8
 _ZN5boost9re_detail12perl_matcherIN9__gnu_cxx17__normal_iteratorIPKcSsEESaINS_9sub_matchIS6_EEENS_12regex_traitsIcNS_16cpp_regex_traitsIcEEEEE13match_literalEv@Base 0.9.8
 _ZN5boost9re_detail12perl_matcherIN9__gnu_cxx17__normal_iteratorIPKcSsEESaINS_9sub_matchIS6_EEENS_12regex_traitsIcNS_16cpp_regex_traitsIcEEEEE14match_backstepEv@Base 0.9.8
 _ZN5boost9re_detail12perl_matcherIN9__gnu_cxx17__normal_iteratorIPKcSsEESaINS_9sub_matchIS6_EEENS_12regex_traitsIcNS_16cpp_regex_traitsIcEEEEE14match_end_lineEv@Base 0.9.8
 _ZN5boost9re_detail12perl_matcherIN9__gnu_cxx17__normal_iteratorIPKcSsEESaINS_9sub_matchIS6_EEENS_12regex_traitsIcNS_16cpp_regex_traitsIcEEEEE14match_long_setEv@Base 0.9.8
 _ZN5boost9re_detail12perl_matcherIN9__gnu_cxx17__normal_iteratorIPKcSsEESaINS_9sub_matchIS6_EEENS_12regex_traitsIcNS_16cpp_regex_traitsIcEEEEE14match_word_endEv@Base 0.9.8
 _ZN5boost9re_detail12perl_matcherIN9__gnu_cxx17__normal_iteratorIPKcSsEESaINS_9sub_matchIS6_EEENS_12regex_traitsIcNS_16cpp_regex_traitsIcEEEEE14push_assertionEPKNS0_14re_syntax_baseEb@Base 0.9.8
 _ZN5boost9re_detail12perl_matcherIN9__gnu_cxx17__normal_iteratorIPKcSsEESaINS_9sub_matchIS6_EEENS_12regex_traitsIcNS_16cpp_regex_traitsIcEEEEE14push_recursionEiPKNS0_14re_syntax_baseEPNS_13match_resultsIS6_S9_EE@Base 0.9.8
 _ZN5boost9re_detail12perl_matcherIN9__gnu_cxx17__normal_iteratorIPKcSsEESaINS_9sub_matchIS6_EEENS_12regex_traitsIcNS_16cpp_regex_traitsIcEEEEE15match_combiningEv@Base 0.9.8
 _ZN5boost9re_detail12perl_matcherIN9__gnu_cxx17__normal_iteratorIPKcSsEESaINS_9sub_matchIS6_EEENS_12regex_traitsIcNS_16cpp_regex_traitsIcEEEEE15match_recursionEv@Base 0.9.8
 _ZN5boost9re_detail12perl_matcherIN9__gnu_cxx17__normal_iteratorIPKcSsEESaINS_9sub_matchIS6_EEENS_12regex_traitsIcNS_16cpp_regex_traitsIcEEEEE15match_startmarkEv@Base 0.9.8
 _ZN5boost9re_detail12perl_matcherIN9__gnu_cxx17__normal_iteratorIPKcSsEESaINS_9sub_matchIS6_EEENS_12regex_traitsIcNS_16cpp_regex_traitsIcEEEEE16find_restart_anyEv@Base 0.9.8
 _ZN5boost9re_detail12perl_matcherIN9__gnu_cxx17__normal_iteratorIPKcSsEESaINS_9sub_matchIS6_EEENS_12regex_traitsIcNS_16cpp_regex_traitsIcEEEEE16find_restart_bufEv@Base 0.9.8
 _ZN5boost9re_detail12perl_matcherIN9__gnu_cxx17__normal_iteratorIPKcSsEESaINS_9sub_matchIS6_EEENS_12regex_traitsIcNS_16cpp_regex_traitsIcEEEEE16find_restart_litEv@Base 0.9.8
 _ZN5boost9re_detail12perl_matcherIN9__gnu_cxx17__normal_iteratorIPKcSsEESaINS_9sub_matchIS6_EEENS_12regex_traitsIcNS_16cpp_regex_traitsIcEEEEE16match_all_statesEv@Base 0.9.8
 _ZN5boost9re_detail12perl_matcherIN9__gnu_cxx17__normal_iteratorIPKcSsEESaINS_9sub_matchIS6_EEENS_12regex_traitsIcNS_16cpp_regex_traitsIcEEEEE16match_buffer_endEv@Base 0.9.8
 _ZN5boost9re_detail12perl_matcherIN9__gnu_cxx17__normal_iteratorIPKcSsEESaINS_9sub_matchIS6_EEENS_12regex_traitsIcNS_16cpp_regex_traitsIcEEEEE16match_set_repeatEv@Base 0.9.8
 _ZN5boost9re_detail12perl_matcherIN9__gnu_cxx17__normal_iteratorIPKcSsEESaINS_9sub_matchIS6_EEENS_12regex_traitsIcNS_16cpp_regex_traitsIcEEEEE16match_start_lineEv@Base 0.9.8
 _ZN5boost9re_detail12perl_matcherIN9__gnu_cxx17__normal_iteratorIPKcSsEESaINS_9sub_matchIS6_EEENS_12regex_traitsIcNS_16cpp_regex_traitsIcEEEEE16match_word_startEv@Base 0.9.8
 _ZN5boost9re_detail12perl_matcherIN9__gnu_cxx17__normal_iteratorIPKcSsEESaINS_9sub_matchIS6_EEENS_12regex_traitsIcNS_16cpp_regex_traitsIcEEEEE16unwind_assertionEb@Base 0.9.8
 _ZN5boost9re_detail12perl_matcherIN9__gnu_cxx17__normal_iteratorIPKcSsEESaINS_9sub_matchIS6_EEENS_12regex_traitsIcNS_16cpp_regex_traitsIcEEEEE16unwind_recursionEb@Base 0.9.8
 _ZN5boost9re_detail12perl_matcherIN9__gnu_cxx17__normal_iteratorIPKcSsEESaINS_9sub_matchIS6_EEENS_12regex_traitsIcNS_16cpp_regex_traitsIcEEEEE17find_restart_lineEv@Base 0.9.8
 _ZN5boost9re_detail12perl_matcherIN9__gnu_cxx17__normal_iteratorIPKcSsEESaINS_9sub_matchIS6_EEENS_12regex_traitsIcNS_16cpp_regex_traitsIcEEEEE17find_restart_wordEv@Base 0.9.8
 _ZN5boost9re_detail12perl_matcherIN9__gnu_cxx17__normal_iteratorIPKcSsEESaINS_9sub_matchIS6_EEENS_12regex_traitsIcNS_16cpp_regex_traitsIcEEEEE17match_char_repeatEv@Base 0.9.8
 _ZN5boost9re_detail12perl_matcherIN9__gnu_cxx17__normal_iteratorIPKcSsEESaINS_9sub_matchIS6_EEENS_12regex_traitsIcNS_16cpp_regex_traitsIcEEEEE17match_toggle_caseEv@Base 0.9.8
 _ZN5boost9re_detail12perl_matcherIN9__gnu_cxx17__normal_iteratorIPKcSsEESaINS_9sub_matchIS6_EEENS_12regex_traitsIcNS_16cpp_regex_traitsIcEEEEE17match_within_wordEv@Base 0.9.8
 _ZN5boost9re_detail12perl_matcherIN9__gnu_cxx17__normal_iteratorIPKcSsEESaINS_9sub_matchIS6_EEENS_12regex_traitsIcNS_16cpp_regex_traitsIcEEEEE18match_buffer_startEv@Base 0.9.8
 _ZN5boost9re_detail12perl_matcherIN9__gnu_cxx17__normal_iteratorIPKcSsEESaINS_9sub_matchIS6_EEENS_12regex_traitsIcNS_16cpp_regex_traitsIcEEEEE18push_matched_parenEiRKS8_@Base 0.9.8
 _ZN5boost9re_detail12perl_matcherIN9__gnu_cxx17__normal_iteratorIPKcSsEESaINS_9sub_matchIS6_EEENS_12regex_traitsIcNS_16cpp_regex_traitsIcEEEEE18push_single_repeatEmPKNS0_9re_repeatES6_i@Base 0.9.8
 _ZN5boost9re_detail12perl_matcherIN9__gnu_cxx17__normal_iteratorIPKcSsEESaINS_9sub_matchIS6_EEENS_12regex_traitsIcNS_16cpp_regex_traitsIcEEEEE18unwind_char_repeatEb@Base 0.9.8
 _ZN5boost9re_detail12perl_matcherIN9__gnu_cxx17__normal_iteratorIPKcSsEESaINS_9sub_matchIS6_EEENS_12regex_traitsIcNS_16cpp_regex_traitsIcEEEEE18unwind_extra_blockEb@Base 0.9.8
 _ZN5boost9re_detail12perl_matcherIN9__gnu_cxx17__normal_iteratorIPKcSsEESaINS_9sub_matchIS6_EEENS_12regex_traitsIcNS_16cpp_regex_traitsIcEEEEE19match_word_boundaryEv@Base 0.9.8
 _ZN5boost9re_detail12perl_matcherIN9__gnu_cxx17__normal_iteratorIPKcSsEESaINS_9sub_matchIS6_EEENS_12regex_traitsIcNS_16cpp_regex_traitsIcEEEEE19push_repeater_countEiPPNS0_14repeater_countIS6_EE@Base 0.9.8
 _ZN5boost9re_detail12perl_matcherIN9__gnu_cxx17__normal_iteratorIPKcSsEESaINS_9sub_matchIS6_EEENS_12regex_traitsIcNS_16cpp_regex_traitsIcEEEEE20match_assert_backrefEv@Base 0.9.8
 _ZN5boost9re_detail12perl_matcherIN9__gnu_cxx17__normal_iteratorIPKcSsEESaINS_9sub_matchIS6_EEENS_12regex_traitsIcNS_16cpp_regex_traitsIcEEEEE20unwind_recursion_popEb@Base 0.9.8
 _ZN5boost9re_detail12perl_matcherIN9__gnu_cxx17__normal_iteratorIPKcSsEESaINS_9sub_matchIS6_EEENS_12regex_traitsIcNS_16cpp_regex_traitsIcEEEEE21match_dot_repeat_fastEv@Base 0.9.8
 _ZN5boost9re_detail12perl_matcherIN9__gnu_cxx17__normal_iteratorIPKcSsEESaINS_9sub_matchIS6_EEENS_12regex_traitsIcNS_16cpp_regex_traitsIcEEEEE21match_dot_repeat_slowEv@Base 0.9.8
 _ZN5boost9re_detail12perl_matcherIN9__gnu_cxx17__normal_iteratorIPKcSsEESaINS_9sub_matchIS6_EEENS_12regex_traitsIcNS_16cpp_regex_traitsIcEEEEE21match_long_set_repeatEv@Base 0.9.8
 _ZN5boost9re_detail12perl_matcherIN9__gnu_cxx17__normal_iteratorIPKcSsEESaINS_9sub_matchIS6_EEENS_12regex_traitsIcNS_16cpp_regex_traitsIcEEEEE21match_soft_buffer_endEv@Base 0.9.8
 _ZN5boost9re_detail12perl_matcherIN9__gnu_cxx17__normal_iteratorIPKcSsEESaINS_9sub_matchIS6_EEENS_12regex_traitsIcNS_16cpp_regex_traitsIcEEEEE22match_restart_continueEv@Base 0.9.8
 _ZN5boost9re_detail12perl_matcherIN9__gnu_cxx17__normal_iteratorIPKcSsEESaINS_9sub_matchIS6_EEENS_12regex_traitsIcNS_16cpp_regex_traitsIcEEEEE22push_non_greedy_repeatEPKNS0_14re_syntax_baseE@Base 0.9.8
 _ZN5boost9re_detail12perl_matcherIN9__gnu_cxx17__normal_iteratorIPKcSsEESaINS_9sub_matchIS6_EEENS_12regex_traitsIcNS_16cpp_regex_traitsIcEEEEE22unwind_fast_dot_repeatEb@Base 0.9.8
 _ZN5boost9re_detail12perl_matcherIN9__gnu_cxx17__normal_iteratorIPKcSsEESaINS_9sub_matchIS6_EEENS_12regex_traitsIcNS_16cpp_regex_traitsIcEEEEE22unwind_long_set_repeatEb@Base 0.9.8
 _ZN5boost9re_detail12perl_matcherIN9__gnu_cxx17__normal_iteratorIPKcSsEESaINS_9sub_matchIS6_EEENS_12regex_traitsIcNS_16cpp_regex_traitsIcEEEEE22unwind_slow_dot_repeatEb@Base 0.9.8
 _ZN5boost9re_detail12perl_matcherIN9__gnu_cxx17__normal_iteratorIPKcSsEESaINS_9sub_matchIS6_EEENS_12regex_traitsIcNS_16cpp_regex_traitsIcEEEEE23unwind_repeater_counterEb@Base 0.9.8
 _ZN5boost9re_detail12perl_matcherIN9__gnu_cxx17__normal_iteratorIPKcSsEESaINS_9sub_matchIS6_EEENS_12regex_traitsIcNS_16cpp_regex_traitsIcEEEEE23unwind_short_set_repeatEb@Base 0.9.8
 _ZN5boost9re_detail12perl_matcherIN9__gnu_cxx17__normal_iteratorIPKcSsEESaINS_9sub_matchIS6_EEENS_12regex_traitsIcNS_16cpp_regex_traitsIcEEEEE24unwind_non_greedy_repeatEb@Base 0.9.8
 _ZN5boost9re_detail12perl_matcherIN9__gnu_cxx17__normal_iteratorIPKcSsEESaINS_9sub_matchIS6_EEENS_12regex_traitsIcNS_16cpp_regex_traitsIcEEEEE24unwind_recursion_stopperEb@Base 0.9.8
 _ZN5boost9re_detail12perl_matcherIN9__gnu_cxx17__normal_iteratorIPKcSsEESaINS_9sub_matchIS6_EEENS_12regex_traitsIcNS_16cpp_regex_traitsIcEEEEE25match_dot_repeat_dispatchEv@Base 0.9.8
 _ZN5boost9re_detail12perl_matcherIN9__gnu_cxx17__normal_iteratorIPKcSsEESaINS_9sub_matchIS6_EEENS_12regex_traitsIcNS_16cpp_regex_traitsIcEEEEE27unwind_greedy_single_repeatEb@Base 0.9.8
 _ZN5boost9re_detail12perl_matcherIN9__gnu_cxx17__normal_iteratorIPKcSsEESaINS_9sub_matchIS6_EEENS_12regex_traitsIcNS_16cpp_regex_traitsIcEEEEE6unwindEb@Base 0.9.8
 _ZN5boost9re_detail12perl_matcherIN9__gnu_cxx17__normal_iteratorIPKcSsEESaINS_9sub_matchIS6_EEENS_12regex_traitsIcNS_16cpp_regex_traitsIcEEEEE8find_impEv@Base 0.9.8
 _ZN5boost9re_detail12perl_matcherIN9__gnu_cxx17__normal_iteratorIPKcSsEESaINS_9sub_matchIS6_EEENS_12regex_traitsIcNS_16cpp_regex_traitsIcEEEEE8push_altEPKNS0_14re_syntax_baseE@Base 0.9.8
 _ZN5boost9re_detail12perl_matcherIN9__gnu_cxx17__normal_iteratorIPKcSsEESaINS_9sub_matchIS6_EEENS_12regex_traitsIcNS_16cpp_regex_traitsIcEEEEE9match_altEv@Base 0.9.8
 _ZN5boost9re_detail12perl_matcherIN9__gnu_cxx17__normal_iteratorIPKcSsEESaINS_9sub_matchIS6_EEENS_12regex_traitsIcNS_16cpp_regex_traitsIcEEEEE9match_impEv@Base 0.9.8
 _ZN5boost9re_detail12perl_matcherIN9__gnu_cxx17__normal_iteratorIPKcSsEESaINS_9sub_matchIS6_EEENS_12regex_traitsIcNS_16cpp_regex_traitsIcEEEEE9match_repEv@Base 0.9.8
 _ZN5boost9re_detail12perl_matcherIN9__gnu_cxx17__normal_iteratorIPKcSsEESaINS_9sub_matchIS6_EEENS_12regex_traitsIcNS_16cpp_regex_traitsIcEEEEE9match_setEv@Base 0.9.8
 _ZN5boost9re_detail12perl_matcherIN9__gnu_cxx17__normal_iteratorIPKcSsEESaINS_9sub_matchIS6_EEENS_12regex_traitsIcNS_16cpp_regex_traitsIcEEEEEC1ES6_S6_RNS_13match_resultsIS6_S9_EERKNS_11basic_regexIcSD_EENS_15regex_constants12_match_flagsES6_@Base 0.9.8
 _ZN5boost9re_detail12perl_matcherIN9__gnu_cxx17__normal_iteratorIPKcSsEESaINS_9sub_matchIS6_EEENS_12regex_traitsIcNS_16cpp_regex_traitsIcEEEEEC2ES6_S6_RNS_13match_resultsIS6_S9_EERKNS_11basic_regexIcSD_EENS_15regex_constants12_match_flagsES6_@Base 0.9.8
 _ZN5boost9re_detail12perl_matcherIN9__gnu_cxx17__normal_iteratorIPKcSsEESaINS_9sub_matchIS6_EEENS_12regex_traitsIcNS_16cpp_regex_traitsIcEEEEED1Ev@Base 0.9.8
 _ZN5boost9re_detail12perl_matcherIN9__gnu_cxx17__normal_iteratorIPKcSsEESaINS_9sub_matchIS6_EEENS_12regex_traitsIcNS_16cpp_regex_traitsIcEEEEED2Ev@Base 0.9.8
 _ZN5boost9re_detail14repeater_countIN9__gnu_cxx17__normal_iteratorIPKcSsEEEC1EiPPS7_S6_@Base 0.9.8
 _ZN5boost9re_detail14repeater_countIN9__gnu_cxx17__normal_iteratorIPKcSsEEEC2EiPPS7_S6_@Base 0.9.8
 _ZN5boost9re_detail16re_is_set_memberIN9__gnu_cxx17__normal_iteratorIPKcSsEEcNS_12regex_traitsIcNS_16cpp_regex_traitsIcEEEEjEET_SB_SB_PKNS0_11re_set_longIT2_EERKNS0_10regex_dataIT0_T1_EEb@Base 0.9.8
 _ZN5boost9re_detail21basic_regex_formatterINS0_19string_out_iteratorISsEENS_13match_resultsIN9__gnu_cxx17__normal_iteratorIPKcSsEESaINS_9sub_matchIS9_EEEEENS_20regex_traits_wrapperINS_12regex_traitsIcNS_16cpp_regex_traitsIcEEEEEES9_E10format_allEv@Base 0.9.8
 _ZN5boost9re_detail21basic_regex_formatterINS0_19string_out_iteratorISsEENS_13match_resultsIN9__gnu_cxx17__normal_iteratorIPKcSsEESaINS_9sub_matchIS9_EEEEENS_20regex_traits_wrapperINS_12regex_traitsIcNS_16cpp_regex_traitsIcEEEEEES9_E11format_perlEv@Base 0.9.8
 _ZN5boost9re_detail21basic_regex_formatterINS0_19string_out_iteratorISsEENS_13match_resultsIN9__gnu_cxx17__normal_iteratorIPKcSsEESaINS_9sub_matchIS9_EEEEENS_20regex_traits_wrapperINS_12regex_traitsIcNS_16cpp_regex_traitsIcEEEEEES9_E13format_escapeEv@Base 0.9.8
 _ZN5boost9re_detail21basic_regex_formatterINS0_19string_out_iteratorISsEENS_13match_resultsIN9__gnu_cxx17__normal_iteratorIPKcSsEESaINS_9sub_matchIS9_EEEEENS_20regex_traits_wrapperINS_12regex_traitsIcNS_16cpp_regex_traitsIcEEEEEES9_E13get_named_subES9_S9_RKN4mpl_5bool_ILb0EEE@Base 0.9.8
 _ZN5boost9re_detail21basic_regex_formatterINS0_19string_out_iteratorISsEENS_13match_resultsIN9__gnu_cxx17__normal_iteratorIPKcSsEESaINS_9sub_matchIS9_EEEEENS_20regex_traits_wrapperINS_12regex_traitsIcNS_16cpp_regex_traitsIcEEEEEES9_E16handle_perl_verbEb@Base 0.9.8
 _ZN5boost9re_detail21basic_regex_formatterINS0_19string_out_iteratorISsEENS_13match_resultsIN9__gnu_cxx17__normal_iteratorIPKcSsEESaINS_9sub_matchIS9_EEEEENS_20regex_traits_wrapperINS_12regex_traitsIcNS_16cpp_regex_traitsIcEEEEEES9_E18format_conditionalEv@Base 0.9.8
 _ZN5boost9re_detail21basic_regex_formatterINS0_19string_out_iteratorISsEENS_13match_resultsIN9__gnu_cxx17__normal_iteratorIPKcSsEESaINS_9sub_matchIS9_EEEEENS_20regex_traits_wrapperINS_12regex_traitsIcNS_16cpp_regex_traitsIcEEEEEES9_E19get_named_sub_indexES9_S9_RKN4mpl_5bool_ILb0EEE@Base 0.9.8
 _ZN5boost9re_detail21basic_regex_formatterINS0_19string_out_iteratorISsEENS_13match_resultsIN9__gnu_cxx17__normal_iteratorIPKcSsEESaINS_9sub_matchIS9_EEEEENS_20regex_traits_wrapperINS_12regex_traitsIcNS_16cpp_regex_traitsIcEEEEEES9_E22format_until_scope_endEv@Base 0.9.8
 _ZN5boost9re_detail21basic_regex_formatterINS0_19string_out_iteratorISsEENS_13match_resultsIN9__gnu_cxx17__normal_iteratorIPKcSsEESaINS_9sub_matchIS9_EEEEENS_20regex_traits_wrapperINS_12regex_traitsIcNS_16cpp_regex_traitsIcEEEEEES9_E3putERKSB_@Base 0.9.8
 _ZN5boost9re_detail21basic_regex_formatterINS0_19string_out_iteratorISsEENS_13match_resultsIN9__gnu_cxx17__normal_iteratorIPKcSsEESaINS_9sub_matchIS9_EEEEENS_20regex_traits_wrapperINS_12regex_traitsIcNS_16cpp_regex_traitsIcEEEEEES9_E3putEc@Base 0.9.8
 _ZN5boost9re_detail21basic_regex_formatterINS0_19string_out_iteratorISsEENS_13match_resultsIN9__gnu_cxx17__normal_iteratorIPKcSsEESaINS_9sub_matchIS9_EEEEENS_20regex_traits_wrapperINS_12regex_traitsIcNS_16cpp_regex_traitsIcEEEEEES9_E3toiERS9_S9_iRKN4mpl_5bool_ILb0EEE@Base 0.9.8
 _ZNK12kyotocabinet6HashDB5errorEv@Base 0.9.8
 _ZNK12kyotocabinet7PlantDBINS_6HashDBELh49EE5errorEv@Base 0.9.8
 _ZNK4YAML4Node2toISsEEKT_v@Base 0.9.8
 _ZNK4YAML4Node9FindValueEPKc@Base 0.9.8
 _ZNK4rime10ConfigList10GetValueAtEm@Base 0.9.8
 _ZNK4rime10ConfigList4sizeEv@Base 0.9.8
 _ZNK4rime10ConfigList5GetAtEm@Base 0.9.8
 _ZNK4rime10Dictionary6ExistsEv@Base 0.9.8
 _ZNK4rime10Dictionary6loadedEv@Base 0.9.8
 _ZNK4rime10MappedFile6IsOpenEv@Base 0.9.8
 _ZNK4rime10MappedFile7addressEv@Base 0.9.8
 _ZNK4rime10MappedFile8capacityEv@Base 0.9.8
 _ZNK4rime10dictionary7RawCode8ToStringEv@Base 0.9.8
 _ZNK4rime11Composition10GetPreeditEPNS_7PreeditE@Base 0.9.8
 _ZNK4rime11Composition12GetDebugTextEv@Base 0.9.8
 _ZNK4rime11Composition13GetCommitTextEv@Base 0.9.8
 _ZNK4rime11Composition13GetScriptTextEv@Base 0.9.8
 _ZNK4rime11Composition22HasFinishedCompositionEv@Base 0.9.8
 _ZNK4rime11ConfigValue6GetIntEPi@Base 0.9.8
 _ZNK4rime11ConfigValue7GetBoolEPb@Base 0.9.8
 _ZNK4rime11ConfigValue9GetDoubleEPd@Base 0.9.8
 _ZNK4rime11ConfigValue9GetStringEPSs@Base 0.9.8
 _ZNK4rime11KeySequence4reprEv@Base 0.9.8
 _ZNK4rime12Segmentation20GetConfirmedPositionEv@Base 0.9.8
 _ZNK4rime12Segmentation21GetCurrentEndPositionEv@Base 0.9.8
 _ZNK4rime12Segmentation23GetCurrentSegmentLengthEv@Base 0.9.8
 _ZNK4rime12Segmentation23GetCurrentStartPositionEv@Base 0.9.8
 _ZNK4rime12Segmentation23HasFinishedSegmentationEv@Base 0.9.8
 _ZNK4rime12TableVisitor6AccessEid@Base 0.9.8
 _ZNK4rime12UniqueFilter10AlreadyHasERKSs@Base 0.9.8
 _ZNK4rime13CommitHistory4reprEv@Base 0.9.8
 _ZNK4rime13ConfigItemRef4sizeEv@Base 0.9.8
 _ZNK4rime13ConfigItemRef5IsMapEv@Base 0.9.8
 _ZNK4rime13ConfigItemRef5ToIntEv@Base 0.9.8
 _ZNK4rime13ConfigItemRef6HasKeyERKSs@Base 0.9.8
 _ZNK4rime13ConfigItemRef6IsListEv@Base 0.9.8
 _ZNK4rime13ConfigItemRef6IsNullEv@Base 0.9.8
 _ZNK4rime13ConfigItemRef6ToBoolEv@Base 0.9.8
 _ZNK4rime13ConfigItemRef7IsValueEv@Base 0.9.8
 _ZNK4rime13ConfigItemRef8ToDoubleEv@Base 0.9.8
 _ZNK4rime13ConfigItemRef8ToStringEv@Base 0.9.8
 _ZNK4rime13ConfigItemRef8modifiedEv@Base 0.9.8
 _ZNK4rime13TableAccessor10extra_codeEv@Base 0.9.8
 _ZNK4rime13TableAccessor4codeEv@Base 0.9.8
 _ZNK4rime13TableAccessor5entryEv@Base 0.9.8
 _ZNK4rime13TableAccessor9exhaustedEv@Base 0.9.8
 _ZNK4rime13TableAccessor9remainingEv@Base 0.9.8
 _ZNK4rime14SwitcherOption4textEv@Base 0.9.8
 _ZNK4rime14SwitcherOption7commentEv@Base 0.9.8
 _ZNK4rime14UserDictionary6loadedEv@Base 0.9.8
 _ZNK4rime15R10nTranslation12PreviousStopEm@Base 0.9.8
 _ZNK4rime15R10nTranslation16GetPreeditStringINS_6PhraseEEEKSsRKT_@Base 0.9.8
 _ZNK4rime15R10nTranslation16GetPreeditStringINS_8SentenceEEEKSsRKT_@Base 0.9.8
 _ZNK4rime15R10nTranslation8NextStopEm@Base 0.9.8
 _ZNK4rime15ShadowCandidate4textEv@Base 0.9.8
 _ZNK4rime15ShadowCandidate7commentEv@Base 0.9.8
 _ZNK4rime15ShadowCandidate7preeditEv@Base 0.9.8
 _ZNK4rime15SimpleCandidate4textEv@Base 0.9.8
 _ZNK4rime15SimpleCandidate7commentEv@Base 0.9.8
 _ZNK4rime15SimpleCandidate7preeditEv@Base 0.9.8
 _ZNK4rime15Syllabification12PreviousStopEm@Base 0.9.8
 _ZNK4rime15Syllabification8NextStopEm@Base 0.9.8
 _ZNK4rime16SpellingAccessor10propertiesEv@Base 0.9.8
 _ZNK4rime16SpellingAccessor11syllable_idEv@Base 0.9.8
 _ZNK4rime16SpellingAccessor9exhaustedEv@Base 0.9.8
 _ZNK4rime17DictEntryIterator9exhaustedEv@Base 0.9.8
 _ZNK4rime17TranslatorOptions21IsUserDictDisabledForERKSs@Base 0.9.8
 _ZNK4rime18RecognizerPatterns8GetMatchERKSsPNS_12SegmentationE@Base 0.9.8
 _ZNK4rime19SentenceTranslation16PreferUserPhraseEv@Base 0.9.8
 _ZNK4rime19UniquifiedCandidate4textEv@Base 0.9.8
 _ZNK4rime19UniquifiedCandidate7commentEv@Base 0.9.8
 _ZNK4rime19UniquifiedCandidate7preeditEv@Base 0.9.8
 _ZNK4rime21UserDictEntryIterator9exhaustedEv@Base 0.9.8
 _ZNK4rime4CodeeqERKS0_@Base 0.9.8
 _ZNK4rime4CodeltERKS0_@Base 0.9.8
 _ZNK4rime5Prism10array_sizeEv@Base 0.9.8
 _ZNK4rime5Prism18dict_file_checksumEv@Base 0.9.8
 _ZNK4rime5Prism20schema_file_checksumEv@Base 0.9.8
 _ZNK4rime5Table18dict_file_checksumEv@Base 0.9.8
 _ZNK4rime6Config7GetItemEv@Base 0.9.8
 _ZNK4rime6Phrase4textEv@Base 0.9.8
 _ZNK4rime6Phrase7commentEv@Base 0.9.8
 _ZNK4rime6Phrase7preeditEv@Base 0.9.8
 _ZNK4rime6TreeDb6ExistsEv@Base 0.9.8
 _ZNK4rime7Context10GetPreeditEPNS_7PreeditEb@Base 0.9.8
 _ZNK4rime7Context10get_optionERKSs@Base 0.9.8
 _ZNK4rime7Context11IsComposingEv@Base 0.9.8
 _ZNK4rime7Context11compositionEv@Base 0.9.8
 _ZNK4rime7Context12get_propertyERKSs@Base 0.9.8
 _ZNK4rime7Context13GetCommitTextEv@Base 0.9.8
 _ZNK4rime7Context13GetScriptTextEv@Base 0.9.8
 _ZNK4rime7Context7HasMenuEv@Base 0.9.8
 _ZNK4rime7Segment14GetCandidateAtEm@Base 0.9.8
 _ZNK4rime7Segment20GetSelectedCandidateEv@Base 0.9.8
 _ZNK4rime7Session6schemaEv@Base 0.9.8
 _ZNK4rime7Session7contextEv@Base 0.9.8
 _ZNK4rime8Deployer18user_data_sync_dirEv@Base 0.9.8
 _ZNK4rime8KeyEvent4reprEv@Base 0.9.8
 _ZNK4rime9Candidate7commentEv@Base 0.9.8
 _ZNK4rime9Candidate7preeditEv@Base 0.9.8
 _ZNK4rime9ConfigMap3GetERKSs@Base 0.9.8
 _ZNK4rime9ConfigMap6HasKeyERKSs@Base 0.9.8
 _ZNK4rime9ConfigMap8GetValueERKSs@Base 0.9.8
 _ZNK4rime9DictEntryltERKS0_@Base 0.9.8
 _ZNK5Darts7Details9Exception4whatEv@Base 0.9.8
 _ZNK5boost12bad_weak_ptr4whatEv@Base 0.9.8
 _ZNK5boost12basic_formatIcSt11char_traitsIcESaIcEE3strEv@Base 0.9.8
 _ZNK5boost12basic_formatIcSt11char_traitsIcESaIcEE4sizeEv@Base 0.9.8
 _ZNK5boost12basic_formatIcSt11char_traitsIcESaIcEE6getlocEv@Base 0.9.8
 _ZNK5boost12interprocess22interprocess_exception4whatEv@Base 0.9.8
 _ZNK5boost13match_resultsIN9__gnu_cxx17__normal_iteratorIPKcSsEESaINS_9sub_matchIS5_EEEE19named_subexpressionES4_S4_@Base 0.9.8
 _ZNK5boost13match_resultsIN9__gnu_cxx17__normal_iteratorIPKcSsEESaINS_9sub_matchIS5_EEEE21get_last_closed_parenEv@Base 0.9.8
 _ZNK5boost13match_resultsIN9__gnu_cxx17__normal_iteratorIPKcSsEESaINS_9sub_matchIS5_EEEE25named_subexpression_indexES4_S4_@Base 0.9.8
 _ZNK5boost13match_resultsIN9__gnu_cxx17__normal_iteratorIPKcSsEESaINS_9sub_matchIS5_EEEE3strEi@Base 0.9.8
 _ZNK5boost13match_resultsIN9__gnu_cxx17__normal_iteratorIPKcSsEESaINS_9sub_matchIS5_EEEE6lengthEi@Base 0.9.8
 _ZNK5boost13match_resultsIN9__gnu_cxx17__normal_iteratorIPKcSsEESaINS_9sub_matchIS5_EEEE6prefixEv@Base 0.9.8
 _ZNK5boost13match_resultsIN9__gnu_cxx17__normal_iteratorIPKcSsEESaINS_9sub_matchIS5_EEEE6suffixEv@Base 0.9.8
 _ZNK5boost13match_resultsIN9__gnu_cxx17__normal_iteratorIPKcSsEESaINS_9sub_matchIS5_EEEEixEi@Base 0.9.8
 _ZNK5boost15optional_detail13optional_baseISt6localeE14is_initializedEv@Base 0.9.8
 _ZNK5boost16bad_lexical_cast4whatEv@Base 0.9.8
 _ZNK5boost16cpp_regex_traitsIcE7isctypeEcj@Base 0.9.8
 _ZNK5boost16cpp_regex_traitsIcE7tolowerEc@Base 0.9.8
 _ZNK5boost16cpp_regex_traitsIcE7toupperEc@Base 0.9.8
 _ZNK5boost16exception_detail10clone_implINS0_10bad_alloc_EE5cloneEv@Base 0.9.8
 _ZNK5boost16exception_detail10clone_implINS0_10bad_alloc_EE7rethrowEv@Base 0.9.8
 _ZNK5boost16exception_detail10clone_implINS0_14bad_exception_EE5cloneEv@Base 0.9.8
 _ZNK5boost16exception_detail10clone_implINS0_14bad_exception_EE7rethrowEv@Base 0.9.8
 _ZNK5boost16exception_detail10clone_implINS0_19error_info_injectorINS_10lock_errorEEEE5cloneEv@Base 0.9.8
 _ZNK5boost16exception_detail10clone_implINS0_19error_info_injectorINS_10lock_errorEEEE7rethrowEv@Base 0.9.8
 _ZNK5boost16exception_detail10clone_implINS0_19error_info_injectorINS_12bad_weak_ptrEEEE5cloneEv@Base 0.9.8
 _ZNK5boost16exception_detail10clone_implINS0_19error_info_injectorINS_12bad_weak_ptrEEEE7rethrowEv@Base 0.9.8
 _ZNK5boost16exception_detail10clone_implINS0_19error_info_injectorINS_16bad_lexical_castEEEE5cloneEv@Base 0.9.8
 _ZNK5boost16exception_detail10clone_implINS0_19error_info_injectorINS_16bad_lexical_castEEEE7rethrowEv@Base 0.9.8
 _ZNK5boost16exception_detail10clone_implINS0_19error_info_injectorINS_17bad_function_callEEEE5cloneEv@Base 0.9.8
 _ZNK5boost16exception_detail10clone_implINS0_19error_info_injectorINS_17bad_function_callEEEE7rethrowEv@Base 0.9.8
 _ZNK5boost16exception_detail10clone_implINS0_19error_info_injectorINS_21thread_resource_errorEEEE5cloneEv@Base 0.9.8
 _ZNK5boost16exception_detail10clone_implINS0_19error_info_injectorINS_21thread_resource_errorEEEE7rethrowEv@Base 0.9.8
 _ZNK5boost16exception_detail10clone_implINS0_19error_info_injectorINS_2io12too_few_argsEEEE5cloneEv@Base 0.9.8
 _ZNK5boost16exception_detail10clone_implINS0_19error_info_injectorINS_2io12too_few_argsEEEE7rethrowEv@Base 0.9.8
 _ZNK5boost16exception_detail10clone_implINS0_19error_info_injectorINS_2io13too_many_argsEEEE5cloneEv@Base 0.9.8
 _ZNK5boost16exception_detail10clone_implINS0_19error_info_injectorINS_2io13too_many_argsEEEE7rethrowEv@Base 0.9.8
 _ZNK5boost16exception_detail10clone_implINS0_19error_info_injectorINS_2io17bad_format_stringEEEE5cloneEv@Base 0.9.8
 _ZNK5boost16exception_detail10clone_implINS0_19error_info_injectorINS_2io17bad_format_stringEEEE7rethrowEv@Base 0.9.8
 _ZNK5boost16exception_detail10clone_implINS0_19error_info_injectorINS_9gregorian16bad_day_of_monthEEEE5cloneEv@Base 0.9.8
 _ZNK5boost16exception_detail10clone_implINS0_19error_info_injectorINS_9gregorian16bad_day_of_monthEEEE7rethrowEv@Base 0.9.8
 _ZNK5boost16exception_detail10clone_implINS0_19error_info_injectorINS_9gregorian8bad_yearEEEE5cloneEv@Base 0.9.8
 _ZNK5boost16exception_detail10clone_implINS0_19error_info_injectorINS_9gregorian8bad_yearEEEE7rethrowEv@Base 0.9.8
 _ZNK5boost16exception_detail10clone_implINS0_19error_info_injectorINS_9gregorian9bad_monthEEEE5cloneEv@Base 0.9.8
 _ZNK5boost16exception_detail10clone_implINS0_19error_info_injectorINS_9gregorian9bad_monthEEEE7rethrowEv@Base 0.9.8
 _ZNK5boost16exception_detail10clone_implINS0_19error_info_injectorISt11logic_errorEEE5cloneEv@Base 0.9.8
 _ZNK5boost16exception_detail10clone_implINS0_19error_info_injectorISt11logic_errorEEE7rethrowEv@Base 0.9.8
 _ZNK5boost16exception_detail10clone_implINS0_19error_info_injectorISt13runtime_errorEEE5cloneEv@Base 0.9.8
 _ZNK5boost16exception_detail10clone_implINS0_19error_info_injectorISt13runtime_errorEEE7rethrowEv@Base 0.9.8
 _ZNK5boost23enable_shared_from_thisINS_6detail16thread_data_baseEE22_internal_accept_ownerIS2_NS1_11thread_dataINS_3_bi6bind_tIbNS_4_mfi3mf0IbN4rime8DeployerEEENS6_5list1INS6_5valueIPSB_EEEEEEEEEEvPKNS_10shared_ptrIT_EEPT0_@Base 0.9.8
 _ZNK5boost2io12format_error4whatEv@Base 0.9.8
 _ZNK5boost2io12too_few_args4whatEv@Base 0.9.8
 _ZNK5boost2io13too_many_args4whatEv@Base 0.9.8
 _ZNK5boost2io17bad_format_string4whatEv@Base 0.9.8
 _ZNK5boost2io6detail19stream_format_stateIcSt11char_traitsIcEE8apply_onERSt9basic_iosIcS4_EPSt6locale@Base 0.9.8
 _ZNK5boost3any6holderINS_10last_valueIvEEE4typeEv@Base 0.9.8
 _ZNK5boost3any6holderINS_10last_valueIvEEE5cloneEv@Base 0.9.8
 _ZNK5boost3any6holderINS_8functionIFvPN4rime7ContextEEEEE4typeEv@Base 0.9.8
 _ZNK5boost3any6holderINS_8functionIFvPN4rime7ContextEEEEE5cloneEv@Base 0.9.8
 _ZNK5boost3any6holderINS_8functionIFvPN4rime7ContextERKNS3_8KeyEventEEEEE4typeEv@Base 0.9.8
 _ZNK5boost3any6holderINS_8functionIFvPN4rime7ContextERKNS3_8KeyEventEEEEE5cloneEv@Base 0.9.8
 _ZNK5boost3any6holderINS_8functionIFvPN4rime7ContextERKSsEEEE4typeEv@Base 0.9.8
 _ZNK5boost3any6holderINS_8functionIFvPN4rime7ContextERKSsEEEE5cloneEv@Base 0.9.8
 _ZNK5boost3any6holderINS_8functionIFvRKSsEEEE4typeEv@Base 0.9.8
 _ZNK5boost3any6holderINS_8functionIFvRKSsEEEE5cloneEv@Base 0.9.8
 _ZNK5boost3any6holderINS_8functionIFvRKSsS4_EEEE4typeEv@Base 0.9.8
 _ZNK5boost3any6holderINS_8functionIFvRKSsS4_EEEE5cloneEv@Base 0.9.8
 _ZNK5boost6system12system_error4whatEv@Base 0.9.8
 _ZNK5boost6system14error_category10equivalentERKNS0_10error_codeEi@Base 0.9.8
 _ZNK5boost6system14error_category10equivalentEiRKNS0_15error_conditionE@Base 0.9.8
 _ZNK5boost6system14error_category23default_error_conditionEi@Base 0.9.8
 _ZNK5boost9algorithm6detail10is_any_ofFIcEclIcEEbT_@Base 0.9.8
 _ZNK5boost9algorithm6detail13token_finderFINS1_10is_any_ofFIcEEEclIN9__gnu_cxx17__normal_iteratorIPKcSsEEEENS_14iterator_rangeIT_EESD_SD_@Base 0.9.8
 _ZNK5boost9algorithm6detail13token_finderFINS1_10is_any_ofFIcEEEclIN9__gnu_cxx17__normal_iteratorIPcSsEEEENS_14iterator_rangeIT_EESC_SC_@Base 0.9.8
 _ZNK5boost9algorithm6detail13token_finderFINS1_14is_classifiedFEEclIN9__gnu_cxx17__normal_iteratorIPKcSsEEEENS_14iterator_rangeIT_EESC_SC_@Base 0.9.8
 _ZNK5boost9algorithm6detail13token_finderFINS1_14is_from_rangeFIcEEEclIN9__gnu_cxx17__normal_iteratorIPKcSsEEEENS_14iterator_rangeIT_EESD_SD_@Base 0.9.8
 _ZNK5boost9algorithm6detail14is_classifiedFclIcEEbT_@Base 0.9.8
 _ZNK5boost9date_time11int_adapterIlEmiIlEES2_RKNS1_IT_EE@Base 0.9.8
 _ZNK5boost9date_time11int_adapterIlEplIjEES2_RKNS1_IT_EE@Base 0.9.8
 _ZNK5boost9date_time11int_adapterIlEplIlEES2_RKNS1_IT_EE@Base 0.9.8
 _ZNK5boost9function2INS_14iterator_rangeIN9__gnu_cxx17__normal_iteratorIPKcSsEEEES6_S6_EclES6_S6_@Base 0.9.8
 _ZNK5boost9re_detail20named_subexpressions11equal_rangeEi@Base 0.9.8
 _ZNK5boost9re_detail31cpp_regex_traits_implementationIcE12error_stringENS_15regex_constants10error_typeE@Base 0.9.8
 _ZNK5boost9sub_matchIN9__gnu_cxx17__normal_iteratorIPKcSsEEE3strEv@Base 0.9.8
 _ZNKSt15_Deque_iteratorIcRcPcEmiEl@Base 0.9.8
 _ZNKSt15_Deque_iteratorIcRcPcEplEl@Base 0.9.8
 _ZNKSt16reverse_iteratorISt17_Rb_tree_iteratorISt4pairIKmN4rime13DictEntryListEEEEdeEv@Base 0.9.8
 _ZNKSt16reverse_iteratorISt17_Rb_tree_iteratorISt4pairIKmN4rime17DictEntryIteratorEEEEdeEv@Base 0.9.8
 _ZNKSt16reverse_iteratorISt23_Rb_tree_const_iteratorISt4pairIKmN4rime13DictEntryListEEEEdeEv@Base 0.9.8
 _ZNKSt16reverse_iteratorISt23_Rb_tree_const_iteratorISt4pairIKmN4rime17DictEntryIteratorEEEEdeEv@Base 0.9.8
 _ZNKSt3mapISsSsSt4lessISsESaISt4pairIKSsSsEEE5countERS3_@Base 0.9.8
 _ZNKSt5ctypeIcE5widenEc@Base 0.9.8
 _ZNKSt6vectorIN4rime10SchemaInfoESaIS1_EE12_M_check_lenEmPKc@Base 0.9.8
 _ZNKSt6vectorIN4rime9DictEntryESaIS1_EE12_M_check_lenEmPKc@Base 0.9.8
 _ZNKSt6vectorIN5Darts15DoubleArrayImplIvvivE16result_pair_typeESaIS3_EE12_M_check_lenEmPKc@Base 0.9.8
 _ZNKSt6vectorIN5boost10shared_ptrIN4rime10ConfigItemEEESaIS4_EE12_M_check_lenEmPKc@Base 0.9.8
 _ZNKSt6vectorIN5boost10shared_ptrIN4rime10TranslatorEEESaIS4_EE12_M_check_lenEmPKc@Base 0.9.8
 _ZNKSt6vectorIN5boost10shared_ptrIN4rime6FilterEEESaIS4_EE12_M_check_lenEmPKc@Base 0.9.8
 _ZNKSt6vectorIN5boost10shared_ptrIN4rime9CandidateEEESaIS4_EE12_M_check_lenEmPKc@Base 0.9.8
 _ZNKSt6vectorIN5boost10shared_ptrIN4rime9ProcessorEEESaIS4_EE12_M_check_lenEmPKc@Base 0.9.8
 _ZNKSt6vectorIN5boost10shared_ptrIN4rime9SegmentorEEESaIS4_EE12_M_check_lenEmPKc@Base 0.9.8
 _ZNKSt6vectorIN5boost11basic_regexIcNS0_12regex_traitsIcNS0_16cpp_regex_traitsIcEEEEEESaIS6_EE12_M_check_lenEmPKc@Base 0.9.8
 _ZNKSt6vectorIN5boost2io6detail11format_itemIcSt11char_traitsIcESaIcEEESaIS7_EE12_M_check_lenEmPKc@Base 0.9.8
 _ZNKSt6vectorIN5boost9re_detail14recursion_infoINS0_13match_resultsIN9__gnu_cxx17__normal_iteratorIPKcSsEESaINS0_9sub_matchIS8_EEEEEEESaISD_EE12_M_check_lenEmS7_@Base 0.9.8
 _ZNKSt6vectorIN5boost9sub_matchIN9__gnu_cxx17__normal_iteratorIPKcSsEEEESaIS7_EE12_M_check_lenEmS5_@Base 0.9.8
 _ZNKSt6vectorIPN12kyotocabinet7PlantDBINS0_6HashDBELh49EE4LinkESaIS5_EE12_M_check_lenEmPKc@Base 0.9.8
 _ZNKSt6vectorIPN12kyotocabinet7PlantDBINS0_6HashDBELh49EE6RecordESaIS5_EE12_M_check_lenEmPKc@Base 0.9.8
 _ZNKSt6vectorISsSaISsEE12_M_check_lenEmPKc@Base 0.9.8
 _ZNKSt6vectorISt4pairIPN5boost18condition_variableEPNS1_5mutexEESaIS6_EE12_M_check_lenEmPKc@Base 0.9.8
 _ZNKSt6vectorIbSaIbEE12_M_check_lenEmPKc@Base 0.9.8
 _ZNKSt6vectorIiSaIiEE12_M_check_lenEmPKc@Base 0.9.8
 _ZNKSt6vectorIlSaIlEE12_M_check_lenEmPKc@Base 0.9.8
 _ZNKSt6vectorImSaImEE12_M_check_lenEmPKc@Base 0.9.8
 _ZNKSt8_Rb_treeISsSsSt9_IdentityISsESt4lessISsESaISsEE4findERKSs@Base 0.9.8
 _ZNKSt8_Rb_treeISsSt4pairIKSsN5boost10shared_ptrIN4rime10ConfigItemEEEESt10_Select1stIS7_ESt4lessISsESaIS7_EE4findERS1_@Base 0.9.8
 _ZNKSt8_Rb_treeISsSt4pairIKSsSsESt10_Select1stIS2_ESt4lessISsESaIS2_EE4findERS1_@Base 0.9.8
 _ZNKSt8_Rb_treeIiSt4pairIKiN4rime14VocabularyPageEESt10_Select1stIS4_ESt4lessIiESaIS4_EE4findERS1_@Base 0.9.8
 _ZNKSt8_Rb_treeIiSt4pairIKiSsESt10_Select1stIS2_ESt4lessIiESaIS2_EE4findERS1_@Base 0.9.8
 _ZNKSt8_Rb_treeIiSt4pairIKiSt6vectorIPKN4rime18SpellingPropertiesESaIS6_EEESt10_Select1stIS9_ESt4lessIiESaIS9_EE4findERS1_@Base 0.9.8
 _ZNKSt8_Rb_treeImSt4pairIKmSt3mapIiSt6vectorIPKN4rime18SpellingPropertiesESaIS7_EESt4lessIiESaIS0_IKiS9_EEEESt10_Select1stISG_ESA_ImESaISG_EE4findERS1_@Base 0.9.8
 _ZNSs12_S_constructIN9__gnu_cxx17__normal_iteratorIPKcSsEEEEPcT_S6_RKSaIcESt20forward_iterator_tag@Base 0.9.8
 _ZNSs12_S_constructIN9__gnu_cxx17__normal_iteratorIPcSsEEEES2_T_S4_RKSaIcESt20forward_iterator_tag@Base 0.9.8
 _ZNSs12_S_constructIPcEES0_T_S1_RKSaIcESt20forward_iterator_tag@Base 0.9.8
 _ZNSs12_S_constructISt15_Deque_iteratorIcRcPcEEES2_T_S4_RKSaIcESt20forward_iterator_tag@Base 0.9.8
 _ZNSs12_S_constructISt19istreambuf_iteratorIcSt11char_traitsIcEEEEPcT_S5_RKSaIcESt18input_iterator_tag@Base 0.9.8
 _ZNSs19_M_replace_dispatchISt15_Deque_iteratorIcRcPcEEERSsN9__gnu_cxx17__normal_iteratorIS2_SsEES7_T_S8_St12__false_type@Base 0.9.8
 _ZNSs6assignIPcEERSsT_S2_@Base 0.9.8
 _ZNSsC1ISt19istreambuf_iteratorIcSt11char_traitsIcEEEET_S4_RKSaIcE@Base 0.9.8
 _ZNSsC2ISt19istreambuf_iteratorIcSt11char_traitsIcEEEET_S4_RKSaIcE@Base 0.9.8
 _ZNSt10_List_baseIN4rime10dictionary5ChunkESaIS2_EE8_M_clearEv@Base 0.9.8
 _ZNSt10_List_baseIN4rime12CommitRecordESaIS1_EE8_M_clearEv@Base 0.9.8
 _ZNSt10_List_baseIPN12kyotocabinet6HashDB6CursorESaIS3_EE8_M_clearEv@Base 0.9.8
 _ZNSt10_List_baseIPN12kyotocabinet7PlantDBINS0_6HashDBELh49EE6CursorESaIS5_EE8_M_clearEv@Base 0.9.8
 _ZNSt11_Deque_baseIN5boost10shared_ptrIN4rime14DeploymentTaskEEESaIS4_EE17_M_initialize_mapEm@Base 0.9.8
 _ZNSt11_Deque_baseIN5boost10shared_ptrIN4rime14DeploymentTaskEEESaIS4_EED1Ev@Base 0.9.8
 _ZNSt11_Deque_baseIN5boost10shared_ptrIN4rime14DeploymentTaskEEESaIS4_EED2Ev@Base 0.9.8
 _ZNSt11_Deque_baseISt4pairISsSsESaIS1_EE17_M_initialize_mapEm@Base 0.9.8
 _ZNSt11_Deque_baseISt4pairISsSsESaIS1_EED1Ev@Base 0.9.8
 _ZNSt11_Deque_baseISt4pairISsSsESaIS1_EED2Ev@Base 0.9.8
 _ZNSt11_Deque_baseISt4pairImN4rime12TableVisitorEESaIS3_EE17_M_initialize_mapEm@Base 0.9.8
 _ZNSt11_Deque_baseISt4pairImN4rime12TableVisitorEESaIS3_EED1Ev@Base 0.9.8
 _ZNSt11_Deque_baseISt4pairImN4rime12TableVisitorEESaIS3_EED2Ev@Base 0.9.8
 _ZNSt11_Deque_baseIcSaIcEE17_M_initialize_mapEm@Base 0.9.8
 _ZNSt11_Deque_baseIcSaIcEED1Ev@Base 0.9.8
 _ZNSt11_Deque_baseIcSaIcEED2Ev@Base 0.9.8
 _ZNSt11__copy_moveILb0ELb0ESt26random_access_iterator_tagE8__copy_mIPKSsPSsEET0_T_S7_S6_@Base 0.9.8
 _ZNSt11__copy_moveILb0ELb0ESt26random_access_iterator_tagE8__copy_mIPKcN5boost9re_detail19string_out_iteratorISsEEEET0_T_SA_S9_@Base 0.9.8
 _ZNSt11__copy_moveILb0ELb0ESt26random_access_iterator_tagE8__copy_mIPSsS3_EET0_T_S5_S4_@Base 0.9.8
 _ZNSt11__copy_moveILb0ELb1ESt26random_access_iterator_tagE8__copy_mIN5Darts15DoubleArrayImplIvvivE16result_pair_typeEEEPT_PKS7_SA_S8_@Base 0.9.8
 _ZNSt11__copy_moveILb0ELb1ESt26random_access_iterator_tagE8__copy_mIPN12kyotocabinet7PlantDBINS3_6HashDBELh49EE4LinkEEEPT_PKS9_SC_SA_@Base 0.9.8
 _ZNSt11__copy_moveILb0ELb1ESt26random_access_iterator_tagE8__copy_mIPN12kyotocabinet7PlantDBINS3_6HashDBELh49EE6RecordEEEPT_PKS9_SC_SA_@Base 0.9.8
 _ZNSt11__copy_moveILb0ELb1ESt26random_access_iterator_tagE8__copy_mIlEEPT_PKS3_S6_S4_@Base 0.9.8
 _ZNSt11__copy_moveILb0ELb1ESt26random_access_iterator_tagE8__copy_mImEEPT_PKS3_S6_S4_@Base 0.9.8
 _ZNSt12_Destroy_auxILb0EE9__destroyIN9__gnu_cxx17__normal_iteratorIPSsSt6vectorISsSaISsEEEEEEvT_S9_@Base 0.9.8
 _ZNSt12_Destroy_auxILb0EE9__destroyIPN4rime10KeyBindingEEEvT_S5_@Base 0.9.8
 _ZNSt12_Destroy_auxILb0EE9__destroyIPN4rime10SchemaInfoEEEvT_S5_@Base 0.9.8
 _ZNSt12_Destroy_auxILb0EE9__destroyIPN4rime10dictionary12RawDictEntryEEEvT_S6_@Base 0.9.8
 _ZNSt12_Destroy_auxILb0EE9__destroyIPN4rime13TableAccessorEEEvT_S5_@Base 0.9.8
 _ZNSt12_Destroy_auxILb0EE9__destroyIPN4rime7SegmentEEEvT_S5_@Base 0.9.8
 _ZNSt12_Destroy_auxILb0EE9__destroyIPN4rime8SpellingEEEvT_S5_@Base 0.9.8
 _ZNSt12_Destroy_auxILb0EE9__destroyIPN4rime9DictEntryEEEvT_S5_@Base 0.9.8
 _ZNSt12_Destroy_auxILb0EE9__destroyIPN5boost10shared_ptrIN4rime10ConfigItemEEEEEvT_S8_@Base 0.9.8
 _ZNSt12_Destroy_auxILb0EE9__destroyIPN5boost10shared_ptrIN4rime10TranslatorEEEEEvT_S8_@Base 0.9.8
 _ZNSt12_Destroy_auxILb0EE9__destroyIPN5boost10shared_ptrIN4rime11CalculationEEEEEvT_S8_@Base 0.9.8
 _ZNSt12_Destroy_auxILb0EE9__destroyIPN5boost10shared_ptrIN4rime14DeploymentTaskEEEEEvT_S8_@Base 0.9.8
 _ZNSt12_Destroy_auxILb0EE9__destroyIPN5boost10shared_ptrIN4rime6FilterEEEEEvT_S8_@Base 0.9.8
 _ZNSt12_Destroy_auxILb0EE9__destroyIPN5boost10shared_ptrIN4rime9CandidateEEEEEvT_S8_@Base 0.9.8
 _ZNSt12_Destroy_auxILb0EE9__destroyIPN5boost10shared_ptrIN4rime9DictEntryEEEEEvT_S8_@Base 0.9.8
 _ZNSt12_Destroy_auxILb0EE9__destroyIPN5boost10shared_ptrIN4rime9ProcessorEEEEEvT_S8_@Base 0.9.8
 _ZNSt12_Destroy_auxILb0EE9__destroyIPN5boost10shared_ptrIN4rime9SegmentorEEEEEvT_S8_@Base 0.9.8
 _ZNSt12_Destroy_auxILb0EE9__destroyIPN5boost11basic_regexIcNS2_12regex_traitsIcNS2_16cpp_regex_traitsIcEEEEEEEEvT_SA_@Base 0.9.8
 _ZNSt12_Destroy_auxILb0EE9__destroyIPN5boost2io6detail11format_itemIcSt11char_traitsIcESaIcEEEEEvT_SB_@Base 0.9.8
 _ZNSt12_Destroy_auxILb0EE9__destroyIPN5boost9re_detail14recursion_infoINS2_13match_resultsIN9__gnu_cxx17__normal_iteratorIPKcSsEESaINS2_9sub_matchISA_EEEEEEEEEvT_SH_@Base 0.9.8
 _ZNSt12_Destroy_auxILb0EE9__destroyIPSsEEvT_S3_@Base 0.9.8
 _ZNSt12_Vector_baseIN4rime7SegmentESaIS1_EED1Ev@Base 0.9.8
 _ZNSt12_Vector_baseIN4rime7SegmentESaIS1_EED2Ev@Base 0.9.8
 _ZNSt12_Vector_baseIN4rime9DictEntryESaIS1_EED1Ev@Base 0.9.8
 _ZNSt12_Vector_baseIN4rime9DictEntryESaIS1_EED2Ev@Base 0.9.8
 _ZNSt12_Vector_baseIN5boost10shared_ptrIN4rime10ConfigItemEEESaIS4_EED1Ev@Base 0.9.8
 _ZNSt12_Vector_baseIN5boost10shared_ptrIN4rime10ConfigItemEEESaIS4_EED2Ev@Base 0.9.8
 _ZNSt12_Vector_baseIN5boost10shared_ptrIN4rime11CalculationEEESaIS4_EED1Ev@Base 0.9.8
 _ZNSt12_Vector_baseIN5boost10shared_ptrIN4rime11CalculationEEESaIS4_EED2Ev@Base 0.9.8
 _ZNSt12_Vector_baseIN5boost10shared_ptrIN4rime9CandidateEEESaIS4_EED1Ev@Base 0.9.8
 _ZNSt12_Vector_baseIN5boost10shared_ptrIN4rime9CandidateEEESaIS4_EED2Ev@Base 0.9.8
 _ZNSt12_Vector_baseIN5boost10shared_ptrIN4rime9DictEntryEEESaIS4_EED1Ev@Base 0.9.8
 _ZNSt12_Vector_baseIN5boost10shared_ptrIN4rime9DictEntryEEESaIS4_EED2Ev@Base 0.9.8
 _ZNSt12_Vector_baseIN5boost11basic_regexIcNS0_12regex_traitsIcNS0_16cpp_regex_traitsIcEEEEEESaIS6_EED1Ev@Base 0.9.8
 _ZNSt12_Vector_baseIN5boost11basic_regexIcNS0_12regex_traitsIcNS0_16cpp_regex_traitsIcEEEEEESaIS6_EED2Ev@Base 0.9.8
 _ZNSt12_Vector_baseIN5boost2io6detail11format_itemIcSt11char_traitsIcESaIcEEESaIS7_EED1Ev@Base 0.9.8
 _ZNSt12_Vector_baseIN5boost2io6detail11format_itemIcSt11char_traitsIcESaIcEEESaIS7_EED2Ev@Base 0.9.8
 _ZNSt12_Vector_baseIN5boost9re_detail14recursion_infoINS0_13match_resultsIN9__gnu_cxx17__normal_iteratorIPKcSsEESaINS0_9sub_matchIS8_EEEEEEESaISD_EED1Ev@Base 0.9.8
 _ZNSt12_Vector_baseIN5boost9re_detail14recursion_infoINS0_13match_resultsIN9__gnu_cxx17__normal_iteratorIPKcSsEESaINS0_9sub_matchIS8_EEEEEEESaISD_EED2Ev@Base 0.9.8
 _ZNSt12_Vector_baseISsSaISsEED1Ev@Base 0.9.8
 _ZNSt12_Vector_baseISsSaISsEED2Ev@Base 0.9.8
 _ZNSt12_Vector_baseIcSaIcEED1Ev@Base 0.9.8
 _ZNSt12_Vector_baseIcSaIcEED2Ev@Base 0.9.8
 _ZNSt13runtime_errorC1ERKS_@Base 0.9.8
 _ZNSt13runtime_errorC2ERKS_@Base 0.9.8
 _ZNSt15basic_stringbufIcSt11char_traitsIcESaIcEED0Ev@Base 0.9.8
 _ZNSt15basic_stringbufIcSt11char_traitsIcESaIcEED1Ev@Base 0.9.8
 _ZNSt15basic_stringbufIcSt11char_traitsIcESaIcEED2Ev@Base 0.9.8
 _ZNSt20__copy_move_backwardILb0ELb0ESt26random_access_iterator_tagE13__copy_move_bIPN4rime10SchemaInfoES5_EET0_T_S7_S6_@Base 0.9.8
 _ZNSt20__copy_move_backwardILb0ELb0ESt26random_access_iterator_tagE13__copy_move_bIPN4rime9DictEntryES5_EET0_T_S7_S6_@Base 0.9.8
 _ZNSt20__copy_move_backwardILb0ELb0ESt26random_access_iterator_tagE13__copy_move_bIPN5boost10shared_ptrIN4rime10ConfigItemEEES8_EET0_T_SA_S9_@Base 0.9.8
 _ZNSt20__copy_move_backwardILb0ELb0ESt26random_access_iterator_tagE13__copy_move_bIPN5boost10shared_ptrIN4rime10TranslatorEEES8_EET0_T_SA_S9_@Base 0.9.8
 _ZNSt20__copy_move_backwardILb0ELb0ESt26random_access_iterator_tagE13__copy_move_bIPN5boost10shared_ptrIN4rime6FilterEEES8_EET0_T_SA_S9_@Base 0.9.8
 _ZNSt20__copy_move_backwardILb0ELb0ESt26random_access_iterator_tagE13__copy_move_bIPN5boost10shared_ptrIN4rime9CandidateEEES8_EET0_T_SA_S9_@Base 0.9.8
 _ZNSt20__copy_move_backwardILb0ELb0ESt26random_access_iterator_tagE13__copy_move_bIPN5boost10shared_ptrIN4rime9ProcessorEEES8_EET0_T_SA_S9_@Base 0.9.8
 _ZNSt20__copy_move_backwardILb0ELb0ESt26random_access_iterator_tagE13__copy_move_bIPN5boost10shared_ptrIN4rime9SegmentorEEES8_EET0_T_SA_S9_@Base 0.9.8
 _ZNSt20__copy_move_backwardILb0ELb0ESt26random_access_iterator_tagE13__copy_move_bIPN5boost11basic_regexIcNS3_12regex_traitsIcNS3_16cpp_regex_traitsIcEEEEEESA_EET0_T_SC_SB_@Base 0.9.8
 _ZNSt20__copy_move_backwardILb0ELb0ESt26random_access_iterator_tagE13__copy_move_bIPN5boost2io6detail11format_itemIcSt11char_traitsIcESaIcEEESB_EET0_T_SD_SC_@Base 0.9.8
 _ZNSt20__copy_move_backwardILb0ELb0ESt26random_access_iterator_tagE13__copy_move_bIPN5boost9re_detail14recursion_infoINS3_13match_resultsIN9__gnu_cxx17__normal_iteratorIPKcSsEESaINS3_9sub_matchISB_EEEEEEESH_EET0_T_SJ_SI_@Base 0.9.8
 _ZNSt20__copy_move_backwardILb0ELb0ESt26random_access_iterator_tagE13__copy_move_bIPSsS3_EET0_T_S5_S4_@Base 0.9.8
 _ZNSt20__uninitialized_copyILb0EE13__uninit_copyIPN4rime10SchemaInfoES4_EET0_T_S6_S5_@Base 0.9.8
 _ZNSt20__uninitialized_copyILb0EE13__uninit_copyIPN4rime10dictionary12RawDictEntryES5_EET0_T_S7_S6_@Base 0.9.8
 _ZNSt20__uninitialized_copyILb0EE13__uninit_copyIPN4rime9DictEntryES4_EET0_T_S6_S5_@Base 0.9.8
 _ZNSt20__uninitialized_copyILb0EE13__uninit_copyIPN5boost2io6detail11format_itemIcSt11char_traitsIcESaIcEEESA_EET0_T_SC_SB_@Base 0.9.8
 _ZNSt20__uninitialized_copyILb0EE13__uninit_copyIPN5boost9re_detail14recursion_infoINS2_13match_resultsIN9__gnu_cxx17__normal_iteratorIPKcSsEESaINS2_9sub_matchISA_EEEEEEESG_EET0_T_SI_SH_@Base 0.9.8
 _ZNSt20__uninitialized_copyILb0EE13__uninit_copyIPSsS2_EET0_T_S4_S3_@Base 0.9.8
 _ZNSt22__uninitialized_fill_nILb0EE15__uninit_fill_nIPN5boost2io6detail11format_itemIcSt11char_traitsIcESaIcEEEmS9_EEvT_T0_RKT1_@Base 0.9.8
 _ZNSt3mapISsN5boost10shared_ptrIN4rime10ConfigItemEEESt4lessISsESaISt4pairIKSsS4_EEEixERS8_@Base 0.9.8
 _ZNSt3mapISsN5boost8weak_ptrIN4rime10ConfigDataEEESt4lessISsESaISt4pairIKSsS4_EEE5eraseESt17_Rb_tree_iteratorIS9_E@Base 0.9.8
 _ZNSt3mapISsN5boost8weak_ptrIN4rime10ConfigDataEEESt4lessISsESaISt4pairIKSsS4_EEEixERS8_@Base 0.9.8
 _ZNSt3mapISsN5boost8weak_ptrIN4rime5PrismEEESt4lessISsESaISt4pairIKSsS4_EEED1Ev@Base 0.9.8
 _ZNSt3mapISsN5boost8weak_ptrIN4rime5PrismEEESt4lessISsESaISt4pairIKSsS4_EEED2Ev@Base 0.9.8
 _ZNSt3mapISsN5boost8weak_ptrIN4rime5PrismEEESt4lessISsESaISt4pairIKSsS4_EEEixERS8_@Base 0.9.8
 _ZNSt3mapISsN5boost8weak_ptrIN4rime5TableEEESt4lessISsESaISt4pairIKSsS4_EEEixERS8_@Base 0.9.8
 _ZNSt3mapISsN5boost8weak_ptrIN4rime6TreeDbEEESt4lessISsESaISt4pairIKSsS4_EEEixERS8_@Base 0.9.8
 _ZNSt3mapISsN5boost8weak_ptrIN4rime6UserDbEEESt4lessISsESaISt4pairIKSsS4_EEEixERS8_@Base 0.9.8
 _ZNSt3mapISsPFPN4rime11CalculationERKSt6vectorISsSaISsEEESt4lessISsESaISt4pairIKSsS9_EEEixERSD_@Base 0.9.8
 _ZNSt3mapISsS_ISsdSt4lessISsESaISt4pairIKSsdEEES1_SaIS2_IS3_S6_EEEixERS3_@Base 0.9.8
 _ZNSt3mapISsSsSt4lessISsESaISt4pairIKSsSsEEED1Ev@Base 0.9.8
 _ZNSt3mapISsSsSt4lessISsESaISt4pairIKSsSsEEED2Ev@Base 0.9.8
 _ZNSt3mapISsSsSt4lessISsESaISt4pairIKSsSsEEEixERS3_@Base 0.9.8
 _ZNSt3mapISsdSt4lessISsESaISt4pairIKSsdEEEixERS3_@Base 0.9.8
 _ZNSt3mapIiN4rime20AsciiModeSwitchStyleESt4lessIiESaISt4pairIKiS1_EEED1Ev@Base 0.9.8
 _ZNSt3mapIiN4rime20AsciiModeSwitchStyleESt4lessIiESaISt4pairIKiS1_EEED2Ev@Base 0.9.8
 _ZNSt3mapIiN5boost10shared_ptrIN4rime8SentenceEEESt4lessIiESaISt4pairIKiS4_EEEixERS8_@Base 0.9.8
 _ZNSt3mapImN4rime13DictEntryListESt4lessImESaISt4pairIKmS1_EEE5eraseERS5_@Base 0.9.8
 _ZNSt3mapImN4rime17DictEntryIteratorESt4lessImESaISt4pairIKmS1_EEE5eraseERS5_@Base 0.9.8
 _ZNSt3mapImN5boost10shared_ptrIN4rime7SessionEEESt4lessImESaISt4pairIKmS4_EEEixERS8_@Base 0.9.8
 _ZNSt3mapImS_IiN4rime18SpellingPropertiesESt4lessIiESaISt4pairIKiS1_EEES2_ImESaIS4_IKmS8_EEED1Ev@Base 0.9.8
 _ZNSt3mapImS_IiN4rime18SpellingPropertiesESt4lessIiESaISt4pairIKiS1_EEES2_ImESaIS4_IKmS8_EEED2Ev@Base 0.9.8
 _ZNSt3setIN12kyotocabinet6HashDB9FreeBlockESt4lessIS2_ESaIS2_EE5clearEv@Base 0.9.8
 _ZNSt3setIN12kyotocabinet6HashDB9FreeBlockESt4lessIS2_ESaIS2_EED1Ev@Base 0.9.8
 _ZNSt3setIN12kyotocabinet6HashDB9FreeBlockESt4lessIS2_ESaIS2_EED2Ev@Base 0.9.8
 _ZNSt3setISsSt4lessISsESaISsEED1Ev@Base 0.9.8
 _ZNSt3setISsSt4lessISsESaISsEED2Ev@Base 0.9.8
 _ZNSt3setIlSt4lessIlESaIlEE6insertERKl@Base 0.9.8
 _ZNSt3setIlSt4lessIlESaIlEED1Ev@Base 0.9.8
 _ZNSt3setIlSt4lessIlESaIlEED2Ev@Base 0.9.8
 _ZNSt4listIN4rime10dictionary5ChunkESaIS2_EE4sortIPFbRKS2_S7_EEEvT_@Base 0.9.8
 _ZNSt4listIN4rime10dictionary5ChunkESaIS2_EE5mergeIPFbRKS2_S7_EEEvRS4_T_@Base 0.9.8
 _ZNSt4listIN4rime10dictionary5ChunkESaIS2_EED1Ev@Base 0.9.8
 _ZNSt4listIN4rime10dictionary5ChunkESaIS2_EED2Ev@Base 0.9.8
 _ZNSt4listIPN12kyotocabinet6HashDB6CursorESaIS3_EE6removeERKS3_@Base 0.9.8
 _ZNSt4listIPN12kyotocabinet7PlantDBINS0_6HashDBELh49EE6CursorESaIS5_EE6removeERKS5_@Base 0.9.8
 _ZNSt4pairIKSsN5boost10shared_ptrIN4rime10ConfigItemEEEED1Ev@Base 0.9.8
 _ZNSt4pairIKSsN5boost10shared_ptrIN4rime10ConfigItemEEEED2Ev@Base 0.9.8
 _ZNSt4pairIKSsN5boost11basic_regexIcNS1_12regex_traitsIcNS1_16cpp_regex_traitsIcEEEEEEED1Ev@Base 0.9.8
 _ZNSt4pairIKSsN5boost11basic_regexIcNS1_12regex_traitsIcNS1_16cpp_regex_traitsIcEEEEEEED2Ev@Base 0.9.8
 _ZNSt4pairIKSsN5boost8weak_ptrIN4rime10ConfigDataEEEED1Ev@Base 0.9.8
 _ZNSt4pairIKSsN5boost8weak_ptrIN4rime10ConfigDataEEEED2Ev@Base 0.9.8
 _ZNSt4pairIKSsN5boost8weak_ptrIN4rime5PrismEEEED1Ev@Base 0.9.8
 _ZNSt4pairIKSsN5boost8weak_ptrIN4rime5PrismEEEED2Ev@Base 0.9.8
 _ZNSt4pairIKSsN5boost8weak_ptrIN4rime5TableEEEED1Ev@Base 0.9.8
 _ZNSt4pairIKSsN5boost8weak_ptrIN4rime5TableEEEED2Ev@Base 0.9.8
 _ZNSt4pairIKSsN5boost8weak_ptrIN4rime6TreeDbEEEED1Ev@Base 0.9.8
 _ZNSt4pairIKSsN5boost8weak_ptrIN4rime6TreeDbEEEED2Ev@Base 0.9.8
 _ZNSt4pairIKSsN5boost8weak_ptrIN4rime6UserDbEEEED1Ev@Base 0.9.8
 _ZNSt4pairIKSsN5boost8weak_ptrIN4rime6UserDbEEEED2Ev@Base 0.9.8
 _ZNSt4pairIKSsPFPN4rime11CalculationERKSt6vectorISsSaISsEEEED1Ev@Base 0.9.8
 _ZNSt4pairIKSsPFPN4rime11CalculationERKSt6vectorISsSaISsEEEED2Ev@Base 0.9.8
 _ZNSt4pairIKSsSsEC1ERS0_S2_@Base 0.9.8
 _ZNSt4pairIKSsSsEC2ERS0_S2_@Base 0.9.8
 _ZNSt4pairIKSsSsED1Ev@Base 0.9.8
 _ZNSt4pairIKSsSsED2Ev@Base 0.9.8
 _ZNSt4pairIKSsSt3mapISsdSt4lessISsESaIS_IS0_dEEEEC1ERS0_RKS6_@Base 0.9.8
 _ZNSt4pairIKSsSt3mapISsdSt4lessISsESaIS_IS0_dEEEEC2ERS0_RKS6_@Base 0.9.8
 _ZNSt4pairIKSsSt3mapISsdSt4lessISsESaIS_IS0_dEEEED1Ev@Base 0.9.8
 _ZNSt4pairIKSsSt3mapISsdSt4lessISsESaIS_IS0_dEEEED2Ev@Base 0.9.8
 _ZNSt4pairIKSsSt3setISsSt4lessISsESaISsEEED1Ev@Base 0.9.8
 _ZNSt4pairIKSsSt3setISsSt4lessISsESaISsEEED2Ev@Base 0.9.8
 _ZNSt4pairIKSsSt6vectorIN4rime8SpellingESaIS3_EEED1Ev@Base 0.9.8
 _ZNSt4pairIKSsSt6vectorIN4rime8SpellingESaIS3_EEED2Ev@Base 0.9.8
 _ZNSt4pairIKSsdED1Ev@Base 0.9.8
 _ZNSt4pairIKSsdED2Ev@Base 0.9.8
 _ZNSt4pairIKSsiED1Ev@Base 0.9.8
 _ZNSt4pairIKSsiED2Ev@Base 0.9.8
 _ZNSt4pairIKiN5boost10shared_ptrIN4rime8SentenceEEEED1Ev@Base 0.9.8
 _ZNSt4pairIKiN5boost10shared_ptrIN4rime8SentenceEEEED2Ev@Base 0.9.8
 _ZNSt4pairIKmN5boost10shared_ptrIN4rime7SessionEEEED1Ev@Base 0.9.8
 _ZNSt4pairIKmN5boost10shared_ptrIN4rime7SessionEEEED2Ev@Base 0.9.8
 _ZNSt4pairIKmSt3mapIiN4rime18SpellingPropertiesESt4lessIiESaIS_IKiS3_EEEED1Ev@Base 0.9.8
 _ZNSt4pairIKmSt3mapIiN4rime18SpellingPropertiesESt4lessIiESaIS_IKiS3_EEEED2Ev@Base 0.9.8
 _ZNSt4pairIKmSt3mapImS1_IiN4rime18SpellingPropertiesESt4lessIiESaIS_IKiS3_EEES4_ImESaIS_IS0_S9_EEEED1Ev@Base 0.9.8
 _ZNSt4pairIKmSt3mapImS1_IiN4rime18SpellingPropertiesESt4lessIiESaIS_IKiS3_EEES4_ImESaIS_IS0_S9_EEEED2Ev@Base 0.9.8
 _ZNSt4pairISsSsED1Ev@Base 0.9.8
 _ZNSt4pairISsSsED2Ev@Base 0.9.8
 _ZNSt5dequeIN5boost10shared_ptrIN4rime14DeploymentTaskEEESaIS4_EE16_M_pop_front_auxEv@Base 0.9.8
 _ZNSt5dequeIN5boost10shared_ptrIN4rime14DeploymentTaskEEESaIS4_EE16_M_push_back_auxERKS4_@Base 0.9.8
 _ZNSt5dequeIN5boost10shared_ptrIN4rime14DeploymentTaskEEESaIS4_EE17_M_reallocate_mapEmb@Base 0.9.8
 _ZNSt5dequeIN5boost10shared_ptrIN4rime14DeploymentTaskEEESaIS4_EE19_M_destroy_data_auxESt15_Deque_iteratorIS4_RS4_PS4_ESA_@Base 0.9.8
 _ZNSt5dequeIN5boost10shared_ptrIN4rime14DeploymentTaskEEESaIS4_EEC1ERKS6_@Base 0.9.8
 _ZNSt5dequeIN5boost10shared_ptrIN4rime14DeploymentTaskEEESaIS4_EEC2ERKS6_@Base 0.9.8
 _ZNSt5dequeIN5boost10shared_ptrIN4rime14DeploymentTaskEEESaIS4_EED1Ev@Base 0.9.8
 _ZNSt5dequeIN5boost10shared_ptrIN4rime14DeploymentTaskEEESaIS4_EED2Ev@Base 0.9.8
 _ZNSt5dequeISt4pairISsSsESaIS1_EE16_M_push_back_auxERKS1_@Base 0.9.8
 _ZNSt5dequeISt4pairISsSsESaIS1_EE17_M_reallocate_mapEmb@Base 0.9.8
 _ZNSt5dequeISt4pairISsSsESaIS1_EE19_M_destroy_data_auxESt15_Deque_iteratorIS1_RS1_PS1_ES7_@Base 0.9.8
 _ZNSt5dequeISt4pairISsSsESaIS1_EEC1ERKS3_@Base 0.9.8
 _ZNSt5dequeISt4pairISsSsESaIS1_EEC2ERKS3_@Base 0.9.8
 _ZNSt5dequeISt4pairISsSsESaIS1_EED1Ev@Base 0.9.8
 _ZNSt5dequeISt4pairISsSsESaIS1_EED2Ev@Base 0.9.8
 _ZNSt5dequeISt4pairImN4rime12TableVisitorEESaIS3_EE16_M_push_back_auxERKS3_@Base 0.9.8
 _ZNSt5dequeISt4pairImN4rime12TableVisitorEESaIS3_EE19_M_destroy_data_auxESt15_Deque_iteratorIS3_RS3_PS3_ES9_@Base 0.9.8
 _ZNSt5dequeIcSaIcEE13_M_insert_auxIPKcEEvSt15_Deque_iteratorIcRcPcET_S9_m@Base 0.9.8
 _ZNSt5dequeIcSaIcEE16_M_pop_front_auxEv@Base 0.9.8
 _ZNSt5dequeIcSaIcEE16_M_push_back_auxERKc@Base 0.9.8
 _ZNSt5dequeIcSaIcEE17_M_reallocate_mapEmb@Base 0.9.8
 _ZNSt5dequeIcSaIcEE19_M_range_insert_auxIPKcEEvSt15_Deque_iteratorIcRcPcET_S9_St20forward_iterator_tag@Base 0.9.8
 _ZNSt5dequeIcSaIcEE23_M_new_elements_at_backEm@Base 0.9.8
 _ZNSt5dequeIcSaIcEE24_M_new_elements_at_frontEm@Base 0.9.8
 _ZNSt5dequeIcSaIcEE27_M_reserve_elements_at_backEm@Base 0.9.8
 _ZNSt5dequeIcSaIcEE28_M_reserve_elements_at_frontEm@Base 0.9.8
 _ZNSt6vectorIN4rime10KeyBindingESaIS1_EE13_M_insert_auxEN9__gnu_cxx17__normal_iteratorIPS1_S3_EERKS1_@Base 0.9.8
 _ZNSt6vectorIN4rime10SchemaInfoESaIS1_EE13_M_insert_auxEN9__gnu_cxx17__normal_iteratorIPS1_S3_EERKS1_@Base 0.9.8
 _ZNSt6vectorIN4rime10SchemaInfoESaIS1_EE5clearEv@Base 0.9.8
 _ZNSt6vectorIN4rime10SchemaInfoESaIS1_EE9push_backERKS1_@Base 0.9.8
 _ZNSt6vectorIN4rime10SchemaInfoESaIS1_EED1Ev@Base 0.9.8
 _ZNSt6vectorIN4rime10SchemaInfoESaIS1_EED2Ev@Base 0.9.8
 _ZNSt6vectorIN4rime10dictionary12RawDictEntryESaIS2_EE13_M_insert_auxEN9__gnu_cxx17__normal_iteratorIPS2_S4_EERKS2_@Base 0.9.8
 _ZNSt6vectorIN4rime10dictionary12RawDictEntryESaIS2_EED1Ev@Base 0.9.8
 _ZNSt6vectorIN4rime10dictionary12RawDictEntryESaIS2_EED2Ev@Base 0.9.8
 _ZNSt6vectorIN4rime13TableAccessorESaIS1_EE13_M_insert_auxEN9__gnu_cxx17__normal_iteratorIPS1_S3_EERKS1_@Base 0.9.8
 _ZNSt6vectorIN4rime13TableAccessorESaIS1_EED1Ev@Base 0.9.8
 _ZNSt6vectorIN4rime13TableAccessorESaIS1_EED2Ev@Base 0.9.8
 _ZNSt6vectorIN4rime7SegmentESaIS1_EE13_M_insert_auxEN9__gnu_cxx17__normal_iteratorIPS1_S3_EERKS1_@Base 0.9.8
 _ZNSt6vectorIN4rime7SegmentESaIS1_EE14_M_fill_insertEN9__gnu_cxx17__normal_iteratorIPS1_S3_EEmRKS1_@Base 0.9.8
 _ZNSt6vectorIN4rime7SegmentESaIS1_EED1Ev@Base 0.9.8
 _ZNSt6vectorIN4rime7SegmentESaIS1_EED2Ev@Base 0.9.8
 _ZNSt6vectorIN4rime8KeyEventESaIS1_EE13_M_insert_auxEN9__gnu_cxx17__normal_iteratorIPS1_S3_EERKS1_@Base 0.9.8
 _ZNSt6vectorIN4rime8KeyEventESaIS1_EED1Ev@Base 0.9.8
 _ZNSt6vectorIN4rime8KeyEventESaIS1_EED2Ev@Base 0.9.8
 _ZNSt6vectorIN4rime8SpellingESaIS1_EE13_M_insert_auxEN9__gnu_cxx17__normal_iteratorIPS1_S3_EERKS1_@Base 0.9.8
 _ZNSt6vectorIN4rime8SpellingESaIS1_EEC1ERKS3_@Base 0.9.8
 _ZNSt6vectorIN4rime8SpellingESaIS1_EEC2ERKS3_@Base 0.9.8
 _ZNSt6vectorIN4rime8SpellingESaIS1_EED1Ev@Base 0.9.8
 _ZNSt6vectorIN4rime8SpellingESaIS1_EED2Ev@Base 0.9.8
 _ZNSt6vectorIN4rime9DictEntryESaIS1_EE13_M_insert_auxEN9__gnu_cxx17__normal_iteratorIPS1_S3_EERKS1_@Base 0.9.8
 _ZNSt6vectorIN4rime9DictEntryESaIS1_EEC1ERKS3_@Base 0.9.8
 _ZNSt6vectorIN4rime9DictEntryESaIS1_EEC2ERKS3_@Base 0.9.8
 _ZNSt6vectorIN4rime9DictEntryESaIS1_EED1Ev@Base 0.9.8
 _ZNSt6vectorIN4rime9DictEntryESaIS1_EED2Ev@Base 0.9.8
 _ZNSt6vectorIN5Darts15DoubleArrayImplIvvivE16result_pair_typeESaIS3_EE13_M_insert_auxEN9__gnu_cxx17__normal_iteratorIPS3_S5_EERKS3_@Base 0.9.8
 _ZNSt6vectorIN5Darts15DoubleArrayImplIvvivE16result_pair_typeESaIS3_EE14_M_fill_insertEN9__gnu_cxx17__normal_iteratorIPS3_S5_EEmRKS3_@Base 0.9.8
 _ZNSt6vectorIN5Darts15DoubleArrayImplIvvivE16result_pair_typeESaIS3_EE9push_backERKS3_@Base 0.9.8
 _ZNSt6vectorIN5Darts15DoubleArrayImplIvvivE16result_pair_typeESaIS3_EED1Ev@Base 0.9.8
 _ZNSt6vectorIN5Darts15DoubleArrayImplIvvivE16result_pair_typeESaIS3_EED2Ev@Base 0.9.8
 _ZNSt6vectorIN5boost10shared_ptrIN4rime10ConfigItemEEESaIS4_EE13_M_insert_auxEN9__gnu_cxx17__normal_iteratorIPS4_S6_EERKS4_@Base 0.9.8
 _ZNSt6vectorIN5boost10shared_ptrIN4rime10ConfigItemEEESaIS4_EE14_M_fill_insertEN9__gnu_cxx17__normal_iteratorIPS4_S6_EEmRKS4_@Base 0.9.8
 _ZNSt6vectorIN5boost10shared_ptrIN4rime10ConfigItemEEESaIS4_EE6resizeEmS4_@Base 0.9.8
 _ZNSt6vectorIN5boost10shared_ptrIN4rime10ConfigItemEEESaIS4_EED1Ev@Base 0.9.8
 _ZNSt6vectorIN5boost10shared_ptrIN4rime10ConfigItemEEESaIS4_EED2Ev@Base 0.9.8
 _ZNSt6vectorIN5boost10shared_ptrIN4rime10TranslatorEEESaIS4_EE13_M_insert_auxEN9__gnu_cxx17__normal_iteratorIPS4_S6_EERKS4_@Base 0.9.8
 _ZNSt6vectorIN5boost10shared_ptrIN4rime10TranslatorEEESaIS4_EED1Ev@Base 0.9.8
 _ZNSt6vectorIN5boost10shared_ptrIN4rime10TranslatorEEESaIS4_EED2Ev@Base 0.9.8
 _ZNSt6vectorIN5boost10shared_ptrIN4rime11CalculationEEESaIS4_EE13_M_insert_auxEN9__gnu_cxx17__normal_iteratorIPS4_S6_EERKS4_@Base 0.9.8
 _ZNSt6vectorIN5boost10shared_ptrIN4rime11CalculationEEESaIS4_EED1Ev@Base 0.9.8
 _ZNSt6vectorIN5boost10shared_ptrIN4rime11CalculationEEESaIS4_EED2Ev@Base 0.9.8
 _ZNSt6vectorIN5boost10shared_ptrIN4rime11TranslationEEESaIS4_EE13_M_insert_auxEN9__gnu_cxx17__normal_iteratorIPS4_S6_EERKS4_@Base 0.9.8
 _ZNSt6vectorIN5boost10shared_ptrIN4rime11TranslationEEESaIS4_EE5eraseEN9__gnu_cxx17__normal_iteratorIPS4_S6_EE@Base 0.9.8
 _ZNSt6vectorIN5boost10shared_ptrIN4rime11TranslationEEESaIS4_EED1Ev@Base 0.9.8
 _ZNSt6vectorIN5boost10shared_ptrIN4rime11TranslationEEESaIS4_EED2Ev@Base 0.9.8
 _ZNSt6vectorIN5boost10shared_ptrIN4rime6FilterEEESaIS4_EE13_M_insert_auxEN9__gnu_cxx17__normal_iteratorIPS4_S6_EERKS4_@Base 0.9.8
 _ZNSt6vectorIN5boost10shared_ptrIN4rime6FilterEEESaIS4_EED1Ev@Base 0.9.8
 _ZNSt6vectorIN5boost10shared_ptrIN4rime6FilterEEESaIS4_EED2Ev@Base 0.9.8
 _ZNSt6vectorIN5boost10shared_ptrIN4rime9CandidateEEESaIS4_EE13_M_insert_auxEN9__gnu_cxx17__normal_iteratorIPS4_S6_EERKS4_@Base 0.9.8
 _ZNSt6vectorIN5boost10shared_ptrIN4rime9CandidateEEESaIS4_EED1Ev@Base 0.9.8
 _ZNSt6vectorIN5boost10shared_ptrIN4rime9CandidateEEESaIS4_EED2Ev@Base 0.9.8
 _ZNSt6vectorIN5boost10shared_ptrIN4rime9DictEntryEEESaIS4_EE13_M_insert_auxEN9__gnu_cxx17__normal_iteratorIPS4_S6_EERKS4_@Base 0.9.8
 _ZNSt6vectorIN5boost10shared_ptrIN4rime9DictEntryEEESaIS4_EEC1ERKS6_@Base 0.9.8
 _ZNSt6vectorIN5boost10shared_ptrIN4rime9DictEntryEEESaIS4_EEC2ERKS6_@Base 0.9.8
 _ZNSt6vectorIN5boost10shared_ptrIN4rime9DictEntryEEESaIS4_EED1Ev@Base 0.9.8
 _ZNSt6vectorIN5boost10shared_ptrIN4rime9DictEntryEEESaIS4_EED2Ev@Base 0.9.8
 _ZNSt6vectorIN5boost10shared_ptrIN4rime9ProcessorEEESaIS4_EE13_M_insert_auxEN9__gnu_cxx17__normal_iteratorIPS4_S6_EERKS4_@Base 0.9.8
 _ZNSt6vectorIN5boost10shared_ptrIN4rime9ProcessorEEESaIS4_EED1Ev@Base 0.9.8
 _ZNSt6vectorIN5boost10shared_ptrIN4rime9ProcessorEEESaIS4_EED2Ev@Base 0.9.8
 _ZNSt6vectorIN5boost10shared_ptrIN4rime9SegmentorEEESaIS4_EE13_M_insert_auxEN9__gnu_cxx17__normal_iteratorIPS4_S6_EERKS4_@Base 0.9.8
 _ZNSt6vectorIN5boost10shared_ptrIN4rime9SegmentorEEESaIS4_EED1Ev@Base 0.9.8
 _ZNSt6vectorIN5boost10shared_ptrIN4rime9SegmentorEEESaIS4_EED2Ev@Base 0.9.8
 _ZNSt6vectorIN5boost11basic_regexIcNS0_12regex_traitsIcNS0_16cpp_regex_traitsIcEEEEEESaIS6_EE13_M_insert_auxEN9__gnu_cxx17__normal_iteratorIPS6_S8_EERKS6_@Base 0.9.8
 _ZNSt6vectorIN5boost11basic_regexIcNS0_12regex_traitsIcNS0_16cpp_regex_traitsIcEEEEEESaIS6_EEC1ERKS8_@Base 0.9.8
 _ZNSt6vectorIN5boost11basic_regexIcNS0_12regex_traitsIcNS0_16cpp_regex_traitsIcEEEEEESaIS6_EEC2ERKS8_@Base 0.9.8
 _ZNSt6vectorIN5boost11basic_regexIcNS0_12regex_traitsIcNS0_16cpp_regex_traitsIcEEEEEESaIS6_EED1Ev@Base 0.9.8
 _ZNSt6vectorIN5boost11basic_regexIcNS0_12regex_traitsIcNS0_16cpp_regex_traitsIcEEEEEESaIS6_EED2Ev@Base 0.9.8
 _ZNSt6vectorIN5boost2io6detail11format_itemIcSt11char_traitsIcESaIcEEESaIS7_EE14_M_fill_assignEmRKS7_@Base 0.9.8
 _ZNSt6vectorIN5boost2io6detail11format_itemIcSt11char_traitsIcESaIcEEESaIS7_EE14_M_fill_insertEN9__gnu_cxx17__normal_iteratorIPS7_S9_EEmRKS7_@Base 0.9.8
 _ZNSt6vectorIN5boost2io6detail11format_itemIcSt11char_traitsIcESaIcEEESaIS7_EE6resizeEmS7_@Base 0.9.8
 _ZNSt6vectorIN5boost2io6detail11format_itemIcSt11char_traitsIcESaIcEEESaIS7_EEC1EmRKS7_RKS8_@Base 0.9.8
 _ZNSt6vectorIN5boost2io6detail11format_itemIcSt11char_traitsIcESaIcEEESaIS7_EEC2EmRKS7_RKS8_@Base 0.9.8
 _ZNSt6vectorIN5boost2io6detail11format_itemIcSt11char_traitsIcESaIcEEESaIS7_EED1Ev@Base 0.9.8
 _ZNSt6vectorIN5boost2io6detail11format_itemIcSt11char_traitsIcESaIcEEESaIS7_EED2Ev@Base 0.9.8
 _ZNSt6vectorIN5boost9re_detail14recursion_infoINS0_13match_resultsIN9__gnu_cxx17__normal_iteratorIPKcSsEESaINS0_9sub_matchIS8_EEEEEEESaISD_EE13_M_insert_auxENS5_IPSD_SF_EERKSD_@Base 0.9.8
 _ZNSt6vectorIN5boost9re_detail14recursion_infoINS0_13match_resultsIN9__gnu_cxx17__normal_iteratorIPKcSsEESaINS0_9sub_matchIS8_EEEEEEESaISD_EE7reserveEm@Base 0.9.8
 _ZNSt6vectorIN5boost9re_detail14recursion_infoINS0_13match_resultsIN9__gnu_cxx17__normal_iteratorIPKcSsEESaINS0_9sub_matchIS8_EEEEEEESaISD_EED1Ev@Base 0.9.8
 _ZNSt6vectorIN5boost9re_detail14recursion_infoINS0_13match_resultsIN9__gnu_cxx17__normal_iteratorIPKcSsEESaINS0_9sub_matchIS8_EEEEEEESaISD_EED2Ev@Base 0.9.8
 _ZNSt6vectorIN5boost9sub_matchIN9__gnu_cxx17__normal_iteratorIPKcSsEEEESaIS7_EE14_M_fill_insertENS3_IPS7_S9_EEmRKS7_@Base 0.9.8
 _ZNSt6vectorIN5boost9sub_matchIN9__gnu_cxx17__normal_iteratorIPKcSsEEEESaIS7_EE5eraseENS3_IPS7_S9_EESB_@Base 0.9.8
 _ZNSt6vectorIN5boost9sub_matchIN9__gnu_cxx17__normal_iteratorIPKcSsEEEESaIS7_EED1Ev@Base 0.9.8
 _ZNSt6vectorIN5boost9sub_matchIN9__gnu_cxx17__normal_iteratorIPKcSsEEEESaIS7_EED2Ev@Base 0.9.8
 _ZNSt6vectorIN5boost9sub_matchIN9__gnu_cxx17__normal_iteratorIPKcSsEEEESaIS7_EEaSERKS9_@Base 0.9.8
 _ZNSt6vectorIPKN4rime18SpellingPropertiesESaIS3_EEC1ERKS5_@Base 0.9.8
 _ZNSt6vectorIPKN4rime18SpellingPropertiesESaIS3_EEC2ERKS5_@Base 0.9.8
 _ZNSt6vectorIPKN4rime9DictEntryESaIS3_EE13_M_insert_auxEN9__gnu_cxx17__normal_iteratorIPS3_S5_EERKS3_@Base 0.9.8
 _ZNSt6vectorIPKN4rime9DictEntryESaIS3_EEC1ERKS5_@Base 0.9.8
 _ZNSt6vectorIPKN4rime9DictEntryESaIS3_EEC2ERKS5_@Base 0.9.8
 _ZNSt6vectorIPKN5boost7signals9trackableESaIS4_EED1Ev@Base 0.9.8
 _ZNSt6vectorIPKN5boost7signals9trackableESaIS4_EED2Ev@Base 0.9.8
 _ZNSt6vectorIPN12kyotocabinet7PlantDBINS0_6HashDBELh49EE4LinkESaIS5_EE13_M_insert_auxEN9__gnu_cxx17__normal_iteratorIPS5_S7_EERKS5_@Base 0.9.8
 _ZNSt6vectorIPN12kyotocabinet7PlantDBINS0_6HashDBELh49EE4LinkESaIS5_EE5eraseEN9__gnu_cxx17__normal_iteratorIPS5_S7_EE@Base 0.9.8
 _ZNSt6vectorIPN12kyotocabinet7PlantDBINS0_6HashDBELh49EE4LinkESaIS5_EE6insertEN9__gnu_cxx17__normal_iteratorIPS5_S7_EERKS5_@Base 0.9.8
 _ZNSt6vectorIPN12kyotocabinet7PlantDBINS0_6HashDBELh49EE6RecordESaIS5_EE13_M_insert_auxEN9__gnu_cxx17__normal_iteratorIPS5_S7_EERKS5_@Base 0.9.8
 _ZNSt6vectorIPN12kyotocabinet7PlantDBINS0_6HashDBELh49EE6RecordESaIS5_EE5eraseEN9__gnu_cxx17__normal_iteratorIPS5_S7_EE@Base 0.9.8
 _ZNSt6vectorIPN12kyotocabinet7PlantDBINS0_6HashDBELh49EE6RecordESaIS5_EE6insertEN9__gnu_cxx17__normal_iteratorIPS5_S7_EERKS5_@Base 0.9.8
 _ZNSt6vectorIPN12kyotocabinet7PlantDBINS0_6HashDBELh49EE6RecordESaIS5_EE7reserveEm@Base 0.9.8
 _ZNSt6vectorISsSaISsEE13_M_insert_auxEN9__gnu_cxx17__normal_iteratorIPSsS1_EERKSs@Base 0.9.8
 _ZNSt6vectorISsSaISsEEC1ERKS1_@Base 0.9.8
 _ZNSt6vectorISsSaISsEEC1IN5boost18transform_iteratorINS3_9algorithm6detail20copy_iterator_rangeFISsN9__gnu_cxx17__normal_iteratorIPKcSsEEEENS5_14split_iteratorISC_EENS3_11use_defaultESG_EEEET_SI_RKS0_@Base 0.9.8
 _ZNSt6vectorISsSaISsEEC1IN5boost18transform_iteratorINS3_9algorithm6detail20copy_iterator_rangeFISsN9__gnu_cxx17__normal_iteratorIPcSsEEEENS5_14split_iteratorISB_EENS3_11use_defaultESF_EEEET_SH_RKS0_@Base 0.9.8
 _ZNSt6vectorISsSaISsEEC2ERKS1_@Base 0.9.8
 _ZNSt6vectorISsSaISsEEC2IN5boost18transform_iteratorINS3_9algorithm6detail20copy_iterator_rangeFISsN9__gnu_cxx17__normal_iteratorIPKcSsEEEENS5_14split_iteratorISC_EENS3_11use_defaultESG_EEEET_SI_RKS0_@Base 0.9.8
 _ZNSt6vectorISsSaISsEEC2IN5boost18transform_iteratorINS3_9algorithm6detail20copy_iterator_rangeFISsN9__gnu_cxx17__normal_iteratorIPcSsEEEENS5_14split_iteratorISB_EENS3_11use_defaultESF_EEEET_SH_RKS0_@Base 0.9.8
 _ZNSt6vectorISsSaISsEED1Ev@Base 0.9.8
 _ZNSt6vectorISsSaISsEED2Ev@Base 0.9.8
 _ZNSt6vectorISsSaISsEEaSERKS1_@Base 0.9.8
 _ZNSt6vectorISt4pairIPN5boost18condition_variableEPNS1_5mutexEESaIS6_EE13_M_insert_auxEN9__gnu_cxx17__normal_iteratorIPS6_S8_EERKS6_@Base 0.9.8
 _ZNSt6vectorISt4pairImN4rime12SpellingTypeEESaIS3_EE13_M_insert_auxEN9__gnu_cxx17__normal_iteratorIPS3_S5_EERKS3_@Base 0.9.8
 _ZNSt6vectorIbSaIbEE14_M_fill_insertESt13_Bit_iteratormb@Base 0.9.8
 _ZNSt6vectorIbSaIbEE6resizeEmb@Base 0.9.8
 _ZNSt6vectorIbSaIbEED1Ev@Base 0.9.8
 _ZNSt6vectorIbSaIbEED2Ev@Base 0.9.8
 _ZNSt6vectorIcSaIcEED1Ev@Base 0.9.8
 _ZNSt6vectorIcSaIcEED2Ev@Base 0.9.8
 _ZNSt6vectorIdSaIdEE13_M_insert_auxEN9__gnu_cxx17__normal_iteratorIPdS1_EERKd@Base 0.9.8
 _ZNSt6vectorIiSaIiEE13_M_insert_auxEN9__gnu_cxx17__normal_iteratorIPiS1_EERKi@Base 0.9.8
 _ZNSt6vectorIiSaIiEE14_M_fill_insertEN9__gnu_cxx17__normal_iteratorIPiS1_EEmRKi@Base 0.9.8
 _ZNSt6vectorIiSaIiEE15_M_range_insertIN9__gnu_cxx17__normal_iteratorIPKiS1_EEEEvNS4_IPiS1_EET_SA_St20forward_iterator_tag@Base 0.9.8
 _ZNSt6vectorIiSaIiEEC1ERKS1_@Base 0.9.8
 _ZNSt6vectorIiSaIiEEC2ERKS1_@Base 0.9.8
 _ZNSt6vectorIiSaIiEED1Ev@Base 0.9.8
 _ZNSt6vectorIiSaIiEED2Ev@Base 0.9.8
 _ZNSt6vectorIiSaIiEEaSERKS1_@Base 0.9.8
 _ZNSt6vectorIlSaIlEE13_M_insert_auxEN9__gnu_cxx17__normal_iteratorIPlS1_EERKl@Base 0.9.8
 _ZNSt6vectorIlSaIlEED1Ev@Base 0.9.8
 _ZNSt6vectorIlSaIlEED2Ev@Base 0.9.8
 _ZNSt6vectorImSaImEE13_M_insert_auxEN9__gnu_cxx17__normal_iteratorIPmS1_EERKm@Base 0.9.8
 _ZNSt6vectorImSaImEEC1ERKS1_@Base 0.9.8
 _ZNSt6vectorImSaImEEC2ERKS1_@Base 0.9.8
 _ZNSt6vectorImSaImEED1Ev@Base 0.9.8
 _ZNSt6vectorImSaImEED2Ev@Base 0.9.8
 _ZNSt8_Rb_treeIN12kyotocabinet6HashDB9FreeBlockES2_St9_IdentityIS2_ESt4lessIS2_ESaIS2_EE10_M_insert_EPKSt18_Rb_tree_node_baseSB_RKS2_@Base 0.9.8
 _ZNSt8_Rb_treeIN12kyotocabinet6HashDB9FreeBlockES2_St9_IdentityIS2_ESt4lessIS2_ESaIS2_EE11upper_boundERKS2_@Base 0.9.8
 _ZNSt8_Rb_treeIN12kyotocabinet6HashDB9FreeBlockES2_St9_IdentityIS2_ESt4lessIS2_ESaIS2_EE12_M_erase_auxESt23_Rb_tree_const_iteratorIS2_E@Base 0.9.8
 _ZNSt8_Rb_treeIN12kyotocabinet6HashDB9FreeBlockES2_St9_IdentityIS2_ESt4lessIS2_ESaIS2_EE16_M_insert_uniqueERKS2_@Base 0.9.8
 _ZNSt8_Rb_treeIN12kyotocabinet6HashDB9FreeBlockES2_St9_IdentityIS2_ESt4lessIS2_ESaIS2_EE8_M_eraseEPSt13_Rb_tree_nodeIS2_E@Base 0.9.8
 _ZNSt8_Rb_treeISsSsSt9_IdentityISsESt4lessISsESaISsEE10_M_insert_EPKSt18_Rb_tree_node_baseS8_RKSs@Base 0.9.8
 _ZNSt8_Rb_treeISsSsSt9_IdentityISsESt4lessISsESaISsEE11equal_rangeERKSs@Base 0.9.8
 _ZNSt8_Rb_treeISsSsSt9_IdentityISsESt4lessISsESaISsEE12_M_erase_auxESt23_Rb_tree_const_iteratorISsES7_@Base 0.9.8
 _ZNSt8_Rb_treeISsSsSt9_IdentityISsESt4lessISsESaISsEE16_M_insert_uniqueERKSs@Base 0.9.8
 _ZNSt8_Rb_treeISsSsSt9_IdentityISsESt4lessISsESaISsEE17_M_insert_unique_ESt23_Rb_tree_const_iteratorISsERKSs@Base 0.9.8
 _ZNSt8_Rb_treeISsSsSt9_IdentityISsESt4lessISsESaISsEE4findERKSs@Base 0.9.8
 _ZNSt8_Rb_treeISsSsSt9_IdentityISsESt4lessISsESaISsEE7_M_copyEPKSt13_Rb_tree_nodeISsEPS7_@Base 0.9.8
 _ZNSt8_Rb_treeISsSsSt9_IdentityISsESt4lessISsESaISsEE8_M_eraseEPSt13_Rb_tree_nodeISsE@Base 0.9.8
 _ZNSt8_Rb_treeISsSsSt9_IdentityISsESt4lessISsESaISsEEaSERKS5_@Base 0.9.8
 _ZNSt8_Rb_treeISsSt4pairIKSsN5boost10shared_ptrIN4rime10ConfigItemEEEESt10_Select1stIS7_ESt4lessISsESaIS7_EE10_M_insert_EPKSt18_Rb_tree_node_baseSG_RKS7_@Base 0.9.8
 _ZNSt8_Rb_treeISsSt4pairIKSsN5boost10shared_ptrIN4rime10ConfigItemEEEESt10_Select1stIS7_ESt4lessISsESaIS7_EE16_M_insert_uniqueERKS7_@Base 0.9.8
 _ZNSt8_Rb_treeISsSt4pairIKSsN5boost10shared_ptrIN4rime10ConfigItemEEEESt10_Select1stIS7_ESt4lessISsESaIS7_EE17_M_insert_unique_ESt23_Rb_tree_const_iteratorIS7_ERKS7_@Base 0.9.8
 _ZNSt8_Rb_treeISsSt4pairIKSsN5boost10shared_ptrIN4rime10ConfigItemEEEESt10_Select1stIS7_ESt4lessISsESaIS7_EE8_M_eraseEPSt13_Rb_tree_nodeIS7_E@Base 0.9.8
 _ZNSt8_Rb_treeISsSt4pairIKSsN5boost11basic_regexIcNS2_12regex_traitsIcNS2_16cpp_regex_traitsIcEEEEEEESt10_Select1stIS9_ESt4lessISsESaIS9_EE10_M_insert_EPKSt18_Rb_tree_node_baseSI_RKS9_@Base 0.9.8
 _ZNSt8_Rb_treeISsSt4pairIKSsN5boost11basic_regexIcNS2_12regex_traitsIcNS2_16cpp_regex_traitsIcEEEEEEESt10_Select1stIS9_ESt4lessISsESaIS9_EE16_M_insert_uniqueERKS9_@Base 0.9.8
 _ZNSt8_Rb_treeISsSt4pairIKSsN5boost11basic_regexIcNS2_12regex_traitsIcNS2_16cpp_regex_traitsIcEEEEEEESt10_Select1stIS9_ESt4lessISsESaIS9_EE17_M_insert_unique_ESt23_Rb_tree_const_iteratorIS9_ERKS9_@Base 0.9.8
 _ZNSt8_Rb_treeISsSt4pairIKSsN5boost11basic_regexIcNS2_12regex_traitsIcNS2_16cpp_regex_traitsIcEEEEEEESt10_Select1stIS9_ESt4lessISsESaIS9_EE7_M_copyEPKSt13_Rb_tree_nodeIS9_EPSH_@Base 0.9.8
 _ZNSt8_Rb_treeISsSt4pairIKSsN5boost11basic_regexIcNS2_12regex_traitsIcNS2_16cpp_regex_traitsIcEEEEEEESt10_Select1stIS9_ESt4lessISsESaIS9_EE8_M_eraseEPSt13_Rb_tree_nodeIS9_E@Base 0.9.8
 _ZNSt8_Rb_treeISsSt4pairIKSsN5boost11basic_regexIcNS2_12regex_traitsIcNS2_16cpp_regex_traitsIcEEEEEEESt10_Select1stIS9_ESt4lessISsESaIS9_EEC1ERKSF_@Base 0.9.8
 _ZNSt8_Rb_treeISsSt4pairIKSsN5boost11basic_regexIcNS2_12regex_traitsIcNS2_16cpp_regex_traitsIcEEEEEEESt10_Select1stIS9_ESt4lessISsESaIS9_EEC2ERKSF_@Base 0.9.8
 _ZNSt8_Rb_treeISsSt4pairIKSsN5boost8weak_ptrIN4rime10ConfigDataEEEESt10_Select1stIS7_ESt4lessISsESaIS7_EE10_M_insert_EPKSt18_Rb_tree_node_baseSG_RKS7_@Base 0.9.8
 _ZNSt8_Rb_treeISsSt4pairIKSsN5boost8weak_ptrIN4rime10ConfigDataEEEESt10_Select1stIS7_ESt4lessISsESaIS7_EE16_M_insert_uniqueERKS7_@Base 0.9.8
 _ZNSt8_Rb_treeISsSt4pairIKSsN5boost8weak_ptrIN4rime10ConfigDataEEEESt10_Select1stIS7_ESt4lessISsESaIS7_EE17_M_insert_unique_ESt23_Rb_tree_const_iteratorIS7_ERKS7_@Base 0.9.8
 _ZNSt8_Rb_treeISsSt4pairIKSsN5boost8weak_ptrIN4rime10ConfigDataEEEESt10_Select1stIS7_ESt4lessISsESaIS7_EE4findERS1_@Base 0.9.8
 _ZNSt8_Rb_treeISsSt4pairIKSsN5boost8weak_ptrIN4rime10ConfigDataEEEESt10_Select1stIS7_ESt4lessISsESaIS7_EE8_M_eraseEPSt13_Rb_tree_nodeIS7_E@Base 0.9.8
 _ZNSt8_Rb_treeISsSt4pairIKSsN5boost8weak_ptrIN4rime5PrismEEEESt10_Select1stIS7_ESt4lessISsESaIS7_EE10_M_insert_EPKSt18_Rb_tree_node_baseSG_RKS7_@Base 0.9.8
 _ZNSt8_Rb_treeISsSt4pairIKSsN5boost8weak_ptrIN4rime5PrismEEEESt10_Select1stIS7_ESt4lessISsESaIS7_EE16_M_insert_uniqueERKS7_@Base 0.9.8
 _ZNSt8_Rb_treeISsSt4pairIKSsN5boost8weak_ptrIN4rime5PrismEEEESt10_Select1stIS7_ESt4lessISsESaIS7_EE17_M_insert_unique_ESt23_Rb_tree_const_iteratorIS7_ERKS7_@Base 0.9.8
 _ZNSt8_Rb_treeISsSt4pairIKSsN5boost8weak_ptrIN4rime5PrismEEEESt10_Select1stIS7_ESt4lessISsESaIS7_EE8_M_eraseEPSt13_Rb_tree_nodeIS7_E@Base 0.9.8
 _ZNSt8_Rb_treeISsSt4pairIKSsN5boost8weak_ptrIN4rime5TableEEEESt10_Select1stIS7_ESt4lessISsESaIS7_EE10_M_insert_EPKSt18_Rb_tree_node_baseSG_RKS7_@Base 0.9.8
 _ZNSt8_Rb_treeISsSt4pairIKSsN5boost8weak_ptrIN4rime5TableEEEESt10_Select1stIS7_ESt4lessISsESaIS7_EE16_M_insert_uniqueERKS7_@Base 0.9.8
 _ZNSt8_Rb_treeISsSt4pairIKSsN5boost8weak_ptrIN4rime5TableEEEESt10_Select1stIS7_ESt4lessISsESaIS7_EE17_M_insert_unique_ESt23_Rb_tree_const_iteratorIS7_ERKS7_@Base 0.9.8
 _ZNSt8_Rb_treeISsSt4pairIKSsN5boost8weak_ptrIN4rime5TableEEEESt10_Select1stIS7_ESt4lessISsESaIS7_EE8_M_eraseEPSt13_Rb_tree_nodeIS7_E@Base 0.9.8
 _ZNSt8_Rb_treeISsSt4pairIKSsN5boost8weak_ptrIN4rime6TreeDbEEEESt10_Select1stIS7_ESt4lessISsESaIS7_EE10_M_insert_EPKSt18_Rb_tree_node_baseSG_RKS7_@Base 0.9.8
 _ZNSt8_Rb_treeISsSt4pairIKSsN5boost8weak_ptrIN4rime6TreeDbEEEESt10_Select1stIS7_ESt4lessISsESaIS7_EE16_M_insert_uniqueERKS7_@Base 0.9.8
 _ZNSt8_Rb_treeISsSt4pairIKSsN5boost8weak_ptrIN4rime6TreeDbEEEESt10_Select1stIS7_ESt4lessISsESaIS7_EE17_M_insert_unique_ESt23_Rb_tree_const_iteratorIS7_ERKS7_@Base 0.9.8
 _ZNSt8_Rb_treeISsSt4pairIKSsN5boost8weak_ptrIN4rime6TreeDbEEEESt10_Select1stIS7_ESt4lessISsESaIS7_EE8_M_eraseEPSt13_Rb_tree_nodeIS7_E@Base 0.9.8
 _ZNSt8_Rb_treeISsSt4pairIKSsN5boost8weak_ptrIN4rime6UserDbEEEESt10_Select1stIS7_ESt4lessISsESaIS7_EE10_M_insert_EPKSt18_Rb_tree_node_baseSG_RKS7_@Base 0.9.8
 _ZNSt8_Rb_treeISsSt4pairIKSsN5boost8weak_ptrIN4rime6UserDbEEEESt10_Select1stIS7_ESt4lessISsESaIS7_EE16_M_insert_uniqueERKS7_@Base 0.9.8
 _ZNSt8_Rb_treeISsSt4pairIKSsN5boost8weak_ptrIN4rime6UserDbEEEESt10_Select1stIS7_ESt4lessISsESaIS7_EE17_M_insert_unique_ESt23_Rb_tree_const_iteratorIS7_ERKS7_@Base 0.9.8
 _ZNSt8_Rb_treeISsSt4pairIKSsN5boost8weak_ptrIN4rime6UserDbEEEESt10_Select1stIS7_ESt4lessISsESaIS7_EE8_M_eraseEPSt13_Rb_tree_nodeIS7_E@Base 0.9.8
 _ZNSt8_Rb_treeISsSt4pairIKSsPFPN4rime11CalculationERKSt6vectorISsSaISsEEEESt10_Select1stISC_ESt4lessISsESaISC_EE10_M_insert_EPKSt18_Rb_tree_node_baseSL_RKSC_@Base 0.9.8
 _ZNSt8_Rb_treeISsSt4pairIKSsPFPN4rime11CalculationERKSt6vectorISsSaISsEEEESt10_Select1stISC_ESt4lessISsESaISC_EE16_M_insert_uniqueERKSC_@Base 0.9.8
 _ZNSt8_Rb_treeISsSt4pairIKSsPFPN4rime11CalculationERKSt6vectorISsSaISsEEEESt10_Select1stISC_ESt4lessISsESaISC_EE17_M_insert_unique_ESt23_Rb_tree_const_iteratorISC_ERKSC_@Base 0.9.8
 _ZNSt8_Rb_treeISsSt4pairIKSsPFPN4rime11CalculationERKSt6vectorISsSaISsEEEESt10_Select1stISC_ESt4lessISsESaISC_EE8_M_eraseEPSt13_Rb_tree_nodeISC_E@Base 0.9.8
 _ZNSt8_Rb_treeISsSt4pairIKSsPN4rime13ComponentBaseEESt10_Select1stIS5_ESt4lessISsESaIS5_EE10_M_insert_EPKSt18_Rb_tree_node_baseSE_RKS5_@Base 0.9.8
 _ZNSt8_Rb_treeISsSt4pairIKSsPN4rime13ComponentBaseEESt10_Select1stIS5_ESt4lessISsESaIS5_EE12_M_erase_auxESt23_Rb_tree_const_iteratorIS5_E@Base 0.9.8
 _ZNSt8_Rb_treeISsSt4pairIKSsPN4rime13ComponentBaseEESt10_Select1stIS5_ESt4lessISsESaIS5_EE16_M_insert_uniqueERKS5_@Base 0.9.8
 _ZNSt8_Rb_treeISsSt4pairIKSsPN4rime13ComponentBaseEESt10_Select1stIS5_ESt4lessISsESaIS5_EE17_M_insert_unique_ESt23_Rb_tree_const_iteratorIS5_ERKS5_@Base 0.9.8
 _ZNSt8_Rb_treeISsSt4pairIKSsPN4rime13ComponentBaseEESt10_Select1stIS5_ESt4lessISsESaIS5_EE4findERS1_@Base 0.9.8
 _ZNSt8_Rb_treeISsSt4pairIKSsPN4rime13ComponentBaseEESt10_Select1stIS5_ESt4lessISsESaIS5_EE8_M_eraseEPSt13_Rb_tree_nodeIS5_E@Base 0.9.8
 _ZNSt8_Rb_treeISsSt4pairIKSsSsESt10_Select1stIS2_ESt4lessISsESaIS2_EE10_M_insert_EPKSt18_Rb_tree_node_baseSB_RKS2_@Base 0.9.8
 _ZNSt8_Rb_treeISsSt4pairIKSsSsESt10_Select1stIS2_ESt4lessISsESaIS2_EE16_M_insert_uniqueERKS2_@Base 0.9.8
 _ZNSt8_Rb_treeISsSt4pairIKSsSsESt10_Select1stIS2_ESt4lessISsESaIS2_EE17_M_insert_unique_ESt23_Rb_tree_const_iteratorIS2_ERKS2_@Base 0.9.8
 _ZNSt8_Rb_treeISsSt4pairIKSsSsESt10_Select1stIS2_ESt4lessISsESaIS2_EE4findERS1_@Base 0.9.8
 _ZNSt8_Rb_treeISsSt4pairIKSsSsESt10_Select1stIS2_ESt4lessISsESaIS2_EE8_M_eraseEPSt13_Rb_tree_nodeIS2_E@Base 0.9.8
 _ZNSt8_Rb_treeISsSt4pairIKSsSt3mapISsdSt4lessISsESaIS0_IS1_dEEEESt10_Select1stIS8_ES4_SaIS8_EE10_M_insert_EPKSt18_Rb_tree_node_baseSF_RKS8_@Base 0.9.8
 _ZNSt8_Rb_treeISsSt4pairIKSsSt3mapISsdSt4lessISsESaIS0_IS1_dEEEESt10_Select1stIS8_ES4_SaIS8_EE16_M_insert_uniqueERKS8_@Base 0.9.8
 _ZNSt8_Rb_treeISsSt4pairIKSsSt3mapISsdSt4lessISsESaIS0_IS1_dEEEESt10_Select1stIS8_ES4_SaIS8_EE17_M_insert_unique_ESt23_Rb_tree_const_iteratorIS8_ERKS8_@Base 0.9.8
 _ZNSt8_Rb_treeISsSt4pairIKSsSt3mapISsdSt4lessISsESaIS0_IS1_dEEEESt10_Select1stIS8_ES4_SaIS8_EE8_M_eraseEPSt13_Rb_tree_nodeIS8_E@Base 0.9.8
 _ZNSt8_Rb_treeISsSt4pairIKSsSt3setISsSt4lessISsESaISsEEESt10_Select1stIS7_ES4_SaIS7_EE10_M_insert_EPKSt18_Rb_tree_node_baseSE_RKS7_@Base 0.9.8
 _ZNSt8_Rb_treeISsSt4pairIKSsSt3setISsSt4lessISsESaISsEEESt10_Select1stIS7_ES4_SaIS7_EE16_M_insert_uniqueERKS7_@Base 0.9.8
 _ZNSt8_Rb_treeISsSt4pairIKSsSt3setISsSt4lessISsESaISsEEESt10_Select1stIS7_ES4_SaIS7_EE17_M_insert_unique_ESt23_Rb_tree_const_iteratorIS7_ERKS7_@Base 0.9.8
 _ZNSt8_Rb_treeISsSt4pairIKSsSt3setISsSt4lessISsESaISsEEESt10_Select1stIS7_ES4_SaIS7_EE8_M_eraseEPSt13_Rb_tree_nodeIS7_E@Base 0.9.8
 _ZNSt8_Rb_treeISsSt4pairIKSsSt6vectorIN4rime8SpellingESaIS4_EEESt10_Select1stIS7_ESt4lessISsESaIS7_EE10_M_insert_EPKSt18_Rb_tree_node_baseSG_RKS7_@Base 0.9.8
 _ZNSt8_Rb_treeISsSt4pairIKSsSt6vectorIN4rime8SpellingESaIS4_EEESt10_Select1stIS7_ESt4lessISsESaIS7_EE16_M_insert_uniqueERKS7_@Base 0.9.8
 _ZNSt8_Rb_treeISsSt4pairIKSsSt6vectorIN4rime8SpellingESaIS4_EEESt10_Select1stIS7_ESt4lessISsESaIS7_EE17_M_insert_unique_ESt23_Rb_tree_const_iteratorIS7_ERKS7_@Base 0.9.8
 _ZNSt8_Rb_treeISsSt4pairIKSsSt6vectorIN4rime8SpellingESaIS4_EEESt10_Select1stIS7_ESt4lessISsESaIS7_EE8_M_eraseEPSt13_Rb_tree_nodeIS7_E@Base 0.9.8
 _ZNSt8_Rb_treeISsSt4pairIKSsbESt10_Select1stIS2_ESt4lessISsESaIS2_EE10_M_insert_EPKSt18_Rb_tree_node_baseSB_RKS2_@Base 0.9.8
 _ZNSt8_Rb_treeISsSt4pairIKSsbESt10_Select1stIS2_ESt4lessISsESaIS2_EE16_M_insert_uniqueERKS2_@Base 0.9.8
 _ZNSt8_Rb_treeISsSt4pairIKSsbESt10_Select1stIS2_ESt4lessISsESaIS2_EE17_M_insert_unique_ESt23_Rb_tree_const_iteratorIS2_ERKS2_@Base 0.9.8
 _ZNSt8_Rb_treeISsSt4pairIKSsbESt10_Select1stIS2_ESt4lessISsESaIS2_EE8_M_eraseEPSt13_Rb_tree_nodeIS2_E@Base 0.9.8
 _ZNSt8_Rb_treeISsSt4pairIKSsdESt10_Select1stIS2_ESt4lessISsESaIS2_EE10_M_insert_EPKSt18_Rb_tree_node_baseSB_RKS2_@Base 0.9.8
 _ZNSt8_Rb_treeISsSt4pairIKSsdESt10_Select1stIS2_ESt4lessISsESaIS2_EE16_M_insert_uniqueERKS2_@Base 0.9.8
 _ZNSt8_Rb_treeISsSt4pairIKSsdESt10_Select1stIS2_ESt4lessISsESaIS2_EE17_M_insert_unique_ESt23_Rb_tree_const_iteratorIS2_ERKS2_@Base 0.9.8
 _ZNSt8_Rb_treeISsSt4pairIKSsdESt10_Select1stIS2_ESt4lessISsESaIS2_EE4findERS1_@Base 0.9.8
 _ZNSt8_Rb_treeISsSt4pairIKSsdESt10_Select1stIS2_ESt4lessISsESaIS2_EE7_M_copyEPKSt13_Rb_tree_nodeIS2_EPSA_@Base 0.9.8
 _ZNSt8_Rb_treeISsSt4pairIKSsdESt10_Select1stIS2_ESt4lessISsESaIS2_EE8_M_eraseEPSt13_Rb_tree_nodeIS2_E@Base 0.9.8
 _ZNSt8_Rb_treeISsSt4pairIKSsiESt10_Select1stIS2_ESt4lessISsESaIS2_EE10_M_insert_EPKSt18_Rb_tree_node_baseSB_RKS2_@Base 0.9.8
 _ZNSt8_Rb_treeISsSt4pairIKSsiESt10_Select1stIS2_ESt4lessISsESaIS2_EE16_M_insert_uniqueERKS2_@Base 0.9.8
 _ZNSt8_Rb_treeISsSt4pairIKSsiESt10_Select1stIS2_ESt4lessISsESaIS2_EE17_M_insert_unique_ESt23_Rb_tree_const_iteratorIS2_ERKS2_@Base 0.9.8
 _ZNSt8_Rb_treeISsSt4pairIKSsiESt10_Select1stIS2_ESt4lessISsESaIS2_EE8_M_eraseEPSt13_Rb_tree_nodeIS2_E@Base 0.9.8
 _ZNSt8_Rb_treeIccSt9_IdentityIcESt4lessIcESaIcEE10_M_insert_EPKSt18_Rb_tree_node_baseS8_RKc@Base 0.9.8
 _ZNSt8_Rb_treeIccSt9_IdentityIcESt4lessIcESaIcEE16_M_insert_uniqueERKc@Base 0.9.8
 _ZNSt8_Rb_treeIccSt9_IdentityIcESt4lessIcESaIcEE5eraseERKc@Base 0.9.8
 _ZNSt8_Rb_treeIccSt9_IdentityIcESt4lessIcESaIcEE8_M_eraseEPSt13_Rb_tree_nodeIcE@Base 0.9.8
 _ZNSt8_Rb_treeIiSt4pairIKiN4rime14VocabularyPageEESt10_Select1stIS4_ESt4lessIiESaIS4_EE10_M_insert_EPKSt18_Rb_tree_node_baseSD_RKS4_@Base 0.9.8
 _ZNSt8_Rb_treeIiSt4pairIKiN4rime14VocabularyPageEESt10_Select1stIS4_ESt4lessIiESaIS4_EE16_M_insert_uniqueERKS4_@Base 0.9.8
 _ZNSt8_Rb_treeIiSt4pairIKiN4rime14VocabularyPageEESt10_Select1stIS4_ESt4lessIiESaIS4_EE17_M_insert_unique_ESt23_Rb_tree_const_iteratorIS4_ERKS4_@Base 0.9.8
 _ZNSt8_Rb_treeIiSt4pairIKiN4rime14VocabularyPageEESt10_Select1stIS4_ESt4lessIiESaIS4_EE7_M_copyEPKSt13_Rb_tree_nodeIS4_EPSC_@Base 0.9.8
 _ZNSt8_Rb_treeIiSt4pairIKiN4rime14VocabularyPageEESt10_Select1stIS4_ESt4lessIiESaIS4_EE8_M_eraseEPSt13_Rb_tree_nodeIS4_E@Base 0.9.8
 _ZNSt8_Rb_treeIiSt4pairIKiN4rime18SpellingPropertiesEESt10_Select1stIS4_ESt4lessIiESaIS4_EE10_M_insert_EPKSt18_Rb_tree_node_baseSD_RKS4_@Base 0.9.8
 _ZNSt8_Rb_treeIiSt4pairIKiN4rime18SpellingPropertiesEESt10_Select1stIS4_ESt4lessIiESaIS4_EE16_M_insert_uniqueERKS4_@Base 0.9.8
 _ZNSt8_Rb_treeIiSt4pairIKiN4rime18SpellingPropertiesEESt10_Select1stIS4_ESt4lessIiESaIS4_EE7_M_copyEPKSt13_Rb_tree_nodeIS4_EPSC_@Base 0.9.8
 _ZNSt8_Rb_treeIiSt4pairIKiN4rime18SpellingPropertiesEESt10_Select1stIS4_ESt4lessIiESaIS4_EE8_M_eraseEPSt13_Rb_tree_nodeIS4_E@Base 0.9.8
 _ZNSt8_Rb_treeIiSt4pairIKiN4rime20AsciiModeSwitchStyleEESt10_Select1stIS4_ESt4lessIiESaIS4_EE10_M_insert_EPKSt18_Rb_tree_node_baseSD_RKS4_@Base 0.9.8
 _ZNSt8_Rb_treeIiSt4pairIKiN4rime20AsciiModeSwitchStyleEESt10_Select1stIS4_ESt4lessIiESaIS4_EE16_M_insert_uniqueERKS4_@Base 0.9.8
 _ZNSt8_Rb_treeIiSt4pairIKiN4rime20AsciiModeSwitchStyleEESt10_Select1stIS4_ESt4lessIiESaIS4_EE17_M_insert_unique_ESt23_Rb_tree_const_iteratorIS4_ERKS4_@Base 0.9.8
 _ZNSt8_Rb_treeIiSt4pairIKiN4rime20AsciiModeSwitchStyleEESt10_Select1stIS4_ESt4lessIiESaIS4_EE4findERS1_@Base 0.9.8
 _ZNSt8_Rb_treeIiSt4pairIKiN4rime20AsciiModeSwitchStyleEESt10_Select1stIS4_ESt4lessIiESaIS4_EE8_M_eraseEPSt13_Rb_tree_nodeIS4_E@Base 0.9.8
 _ZNSt8_Rb_treeIiSt4pairIKiN4rime22UserDictEntryCollectorEESt10_Select1stIS4_ESt4lessIiESaIS4_EE10_M_insert_EPKSt18_Rb_tree_node_baseSD_RKS4_@Base 0.9.8
 _ZNSt8_Rb_treeIiSt4pairIKiN4rime22UserDictEntryCollectorEESt10_Select1stIS4_ESt4lessIiESaIS4_EE16_M_insert_uniqueERKS4_@Base 0.9.8
 _ZNSt8_Rb_treeIiSt4pairIKiN4rime22UserDictEntryCollectorEESt10_Select1stIS4_ESt4lessIiESaIS4_EE17_M_insert_unique_ESt23_Rb_tree_const_iteratorIS4_ERKS4_@Base 0.9.8
 _ZNSt8_Rb_treeIiSt4pairIKiN4rime22UserDictEntryCollectorEESt10_Select1stIS4_ESt4lessIiESaIS4_EE7_M_copyEPKSt13_Rb_tree_nodeIS4_EPSC_@Base 0.9.8
 _ZNSt8_Rb_treeIiSt4pairIKiN4rime22UserDictEntryCollectorEESt10_Select1stIS4_ESt4lessIiESaIS4_EE8_M_eraseEPSt13_Rb_tree_nodeIS4_E@Base 0.9.8
 _ZNSt8_Rb_treeIiSt4pairIKiN5boost10shared_ptrIN4rime8SentenceEEEESt10_Select1stIS7_ESt4lessIiESaIS7_EE10_M_insert_EPKSt18_Rb_tree_node_baseSG_RKS7_@Base 0.9.8
 _ZNSt8_Rb_treeIiSt4pairIKiN5boost10shared_ptrIN4rime8SentenceEEEESt10_Select1stIS7_ESt4lessIiESaIS7_EE16_M_insert_uniqueERKS7_@Base 0.9.8
 _ZNSt8_Rb_treeIiSt4pairIKiN5boost10shared_ptrIN4rime8SentenceEEEESt10_Select1stIS7_ESt4lessIiESaIS7_EE17_M_insert_unique_ESt23_Rb_tree_const_iteratorIS7_ERKS7_@Base 0.9.8
 _ZNSt8_Rb_treeIiSt4pairIKiN5boost10shared_ptrIN4rime8SentenceEEEESt10_Select1stIS7_ESt4lessIiESaIS7_EE4findERS1_@Base 0.9.8
 _ZNSt8_Rb_treeIiSt4pairIKiN5boost10shared_ptrIN4rime8SentenceEEEESt10_Select1stIS7_ESt4lessIiESaIS7_EE8_M_eraseEPSt13_Rb_tree_nodeIS7_E@Base 0.9.8
 _ZNSt8_Rb_treeIiSt4pairIKiSt6vectorIN4rime13TableAccessorESaIS4_EEESt10_Select1stIS7_ESt4lessIiESaIS7_EE10_M_insert_EPKSt18_Rb_tree_node_baseSG_RKS7_@Base 0.9.8
 _ZNSt8_Rb_treeIiSt4pairIKiSt6vectorIN4rime13TableAccessorESaIS4_EEESt10_Select1stIS7_ESt4lessIiESaIS7_EE16_M_insert_uniqueERKS7_@Base 0.9.8
 _ZNSt8_Rb_treeIiSt4pairIKiSt6vectorIN4rime13TableAccessorESaIS4_EEESt10_Select1stIS7_ESt4lessIiESaIS7_EE17_M_insert_unique_ESt23_Rb_tree_const_iteratorIS7_ERKS7_@Base 0.9.8
 _ZNSt8_Rb_treeIiSt4pairIKiSt6vectorIN4rime13TableAccessorESaIS4_EEESt10_Select1stIS7_ESt4lessIiESaIS7_EE8_M_eraseEPSt13_Rb_tree_nodeIS7_E@Base 0.9.8
 _ZNSt8_Rb_treeIiSt4pairIKiSt6vectorIPKN4rime18SpellingPropertiesESaIS6_EEESt10_Select1stIS9_ESt4lessIiESaIS9_EE10_M_insert_EPKSt18_Rb_tree_node_baseSI_RKS9_@Base 0.9.8
 _ZNSt8_Rb_treeIiSt4pairIKiSt6vectorIPKN4rime18SpellingPropertiesESaIS6_EEESt10_Select1stIS9_ESt4lessIiESaIS9_EE16_M_insert_uniqueERKS9_@Base 0.9.8
 _ZNSt8_Rb_treeIiSt4pairIKiSt6vectorIPKN4rime18SpellingPropertiesESaIS6_EEESt10_Select1stIS9_ESt4lessIiESaIS9_EE17_M_insert_unique_ESt23_Rb_tree_const_iteratorIS9_ERKS9_@Base 0.9.8
 _ZNSt8_Rb_treeIiSt4pairIKiSt6vectorIPKN4rime18SpellingPropertiesESaIS6_EEESt10_Select1stIS9_ESt4lessIiESaIS9_EE7_M_copyEPKSt13_Rb_tree_nodeIS9_EPSH_@Base 0.9.8
 _ZNSt8_Rb_treeIiSt4pairIKiSt6vectorIPKN4rime18SpellingPropertiesESaIS6_EEESt10_Select1stIS9_ESt4lessIiESaIS9_EE8_M_eraseEPSt13_Rb_tree_nodeIS9_E@Base 0.9.8
 _ZNSt8_Rb_treeIiSt4pairIKiSt6vectorIPKN4rime18SpellingPropertiesESaIS6_EEESt10_Select1stIS9_ESt4lessIiESaIS9_EEC1ERKSF_@Base 0.9.8
 _ZNSt8_Rb_treeIiSt4pairIKiSt6vectorIPKN4rime18SpellingPropertiesESaIS6_EEESt10_Select1stIS9_ESt4lessIiESaIS9_EEC2ERKSF_@Base 0.9.8
 _ZNSt8_Rb_treeIiiSt9_IdentityIiESt4lessIiESaIiEE10_M_insert_EPKSt18_Rb_tree_node_baseS8_RKi@Base 0.9.8
 _ZNSt8_Rb_treeIiiSt9_IdentityIiESt4lessIiESaIiEE16_M_insert_uniqueERKi@Base 0.9.8
 _ZNSt8_Rb_treeIiiSt9_IdentityIiESt4lessIiESaIiEE8_M_eraseEPSt13_Rb_tree_nodeIiE@Base 0.9.8
 _ZNSt8_Rb_treeIjSt4pairIKjjESt10_Select1stIS2_ESt4lessIjESaIS2_EE10_M_insert_EPKSt18_Rb_tree_node_baseSB_RKS2_@Base 0.9.8
 _ZNSt8_Rb_treeIjSt4pairIKjjESt10_Select1stIS2_ESt4lessIjESaIS2_EE16_M_insert_uniqueERKS2_@Base 0.9.8
 _ZNSt8_Rb_treeIjSt4pairIKjjESt10_Select1stIS2_ESt4lessIjESaIS2_EE17_M_insert_unique_ESt23_Rb_tree_const_iteratorIS2_ERKS2_@Base 0.9.8
 _ZNSt8_Rb_treeIjSt4pairIKjjESt10_Select1stIS2_ESt4lessIjESaIS2_EE4swapERS8_@Base 0.9.8
 _ZNSt8_Rb_treeIjSt4pairIKjjESt10_Select1stIS2_ESt4lessIjESaIS2_EE8_M_eraseEPSt13_Rb_tree_nodeIS2_E@Base 0.9.8
 _ZNSt8_Rb_treeIllSt9_IdentityIlESt4lessIlESaIlEE10_M_insert_EPKSt18_Rb_tree_node_baseS8_RKl@Base 0.9.8
 _ZNSt8_Rb_treeIllSt9_IdentityIlESt4lessIlESaIlEE16_M_insert_uniqueERKl@Base 0.9.8
 _ZNSt8_Rb_treeIllSt9_IdentityIlESt4lessIlESaIlEE4findERKl@Base 0.9.8
 _ZNSt8_Rb_treeIllSt9_IdentityIlESt4lessIlESaIlEE8_M_eraseEPSt13_Rb_tree_nodeIlE@Base 0.9.8
 _ZNSt8_Rb_treeImSt4pairIKmN4rime12SpellingTypeEESt10_Select1stIS4_ESt4lessImESaIS4_EE10_M_insert_EPKSt18_Rb_tree_node_baseSD_RKS4_@Base 0.9.8
 _ZNSt8_Rb_treeImSt4pairIKmN4rime12SpellingTypeEESt10_Select1stIS4_ESt4lessImESaIS4_EE16_M_insert_uniqueERKS4_@Base 0.9.8
 _ZNSt8_Rb_treeImSt4pairIKmN4rime12SpellingTypeEESt10_Select1stIS4_ESt4lessImESaIS4_EE17_M_insert_unique_ESt23_Rb_tree_const_iteratorIS4_ERKS4_@Base 0.9.8
 _ZNSt8_Rb_treeImSt4pairIKmN4rime12SpellingTypeEESt10_Select1stIS4_ESt4lessImESaIS4_EE4findERS1_@Base 0.9.8
 _ZNSt8_Rb_treeImSt4pairIKmN4rime12SpellingTypeEESt10_Select1stIS4_ESt4lessImESaIS4_EE7_M_copyEPKSt13_Rb_tree_nodeIS4_EPSC_@Base 0.9.8
 _ZNSt8_Rb_treeImSt4pairIKmN4rime12SpellingTypeEESt10_Select1stIS4_ESt4lessImESaIS4_EE8_M_eraseEPSt13_Rb_tree_nodeIS4_E@Base 0.9.8
 _ZNSt8_Rb_treeImSt4pairIKmN4rime12SpellingTypeEESt10_Select1stIS4_ESt4lessImESaIS4_EEC1ERKSA_@Base 0.9.8
 _ZNSt8_Rb_treeImSt4pairIKmN4rime12SpellingTypeEESt10_Select1stIS4_ESt4lessImESaIS4_EEC2ERKSA_@Base 0.9.8
 _ZNSt8_Rb_treeImSt4pairIKmN4rime13DictEntryListEESt10_Select1stIS4_ESt4lessImESaIS4_EE10_M_insert_EPKSt18_Rb_tree_node_baseSD_RKS4_@Base 0.9.8
 _ZNSt8_Rb_treeImSt4pairIKmN4rime13DictEntryListEESt10_Select1stIS4_ESt4lessImESaIS4_EE12_M_erase_auxESt23_Rb_tree_const_iteratorIS4_ESC_@Base 0.9.8
 _ZNSt8_Rb_treeImSt4pairIKmN4rime13DictEntryListEESt10_Select1stIS4_ESt4lessImESaIS4_EE16_M_insert_uniqueERKS4_@Base 0.9.8
 _ZNSt8_Rb_treeImSt4pairIKmN4rime13DictEntryListEESt10_Select1stIS4_ESt4lessImESaIS4_EE17_M_insert_unique_ESt23_Rb_tree_const_iteratorIS4_ERKS4_@Base 0.9.8
 _ZNSt8_Rb_treeImSt4pairIKmN4rime13DictEntryListEESt10_Select1stIS4_ESt4lessImESaIS4_EE4swapERSA_@Base 0.9.8
 _ZNSt8_Rb_treeImSt4pairIKmN4rime13DictEntryListEESt10_Select1stIS4_ESt4lessImESaIS4_EE5clearEv@Base 0.9.8
 _ZNSt8_Rb_treeImSt4pairIKmN4rime13DictEntryListEESt10_Select1stIS4_ESt4lessImESaIS4_EE7_M_copyEPKSt13_Rb_tree_nodeIS4_EPSC_@Base 0.9.8
 _ZNSt8_Rb_treeImSt4pairIKmN4rime13DictEntryListEESt10_Select1stIS4_ESt4lessImESaIS4_EE8_M_eraseEPSt13_Rb_tree_nodeIS4_E@Base 0.9.8
 _ZNSt8_Rb_treeImSt4pairIKmN4rime17DictEntryIteratorEESt10_Select1stIS4_ESt4lessImESaIS4_EE10_M_insert_EPKSt18_Rb_tree_node_baseSD_RKS4_@Base 0.9.8
 _ZNSt8_Rb_treeImSt4pairIKmN4rime17DictEntryIteratorEESt10_Select1stIS4_ESt4lessImESaIS4_EE12_M_erase_auxESt23_Rb_tree_const_iteratorIS4_ESC_@Base 0.9.8
 _ZNSt8_Rb_treeImSt4pairIKmN4rime17DictEntryIteratorEESt10_Select1stIS4_ESt4lessImESaIS4_EE16_M_insert_uniqueERKS4_@Base 0.9.8
 _ZNSt8_Rb_treeImSt4pairIKmN4rime17DictEntryIteratorEESt10_Select1stIS4_ESt4lessImESaIS4_EE17_M_insert_unique_ESt23_Rb_tree_const_iteratorIS4_ERKS4_@Base 0.9.8
 _ZNSt8_Rb_treeImSt4pairIKmN4rime17DictEntryIteratorEESt10_Select1stIS4_ESt4lessImESaIS4_EE4swapERSA_@Base 0.9.8
 _ZNSt8_Rb_treeImSt4pairIKmN4rime17DictEntryIteratorEESt10_Select1stIS4_ESt4lessImESaIS4_EE5clearEv@Base 0.9.8
 _ZNSt8_Rb_treeImSt4pairIKmN4rime17DictEntryIteratorEESt10_Select1stIS4_ESt4lessImESaIS4_EE8_M_eraseEPSt13_Rb_tree_nodeIS4_E@Base 0.9.8
 _ZNSt8_Rb_treeImSt4pairIKmN5boost10shared_ptrIN4rime7SessionEEEESt10_Select1stIS7_ESt4lessImESaIS7_EE10_M_insert_EPKSt18_Rb_tree_node_baseSG_RKS7_@Base 0.9.8
 _ZNSt8_Rb_treeImSt4pairIKmN5boost10shared_ptrIN4rime7SessionEEEESt10_Select1stIS7_ESt4lessImESaIS7_EE12_M_erase_auxESt23_Rb_tree_const_iteratorIS7_E@Base 0.9.8
 _ZNSt8_Rb_treeImSt4pairIKmN5boost10shared_ptrIN4rime7SessionEEEESt10_Select1stIS7_ESt4lessImESaIS7_EE16_M_insert_uniqueERKS7_@Base 0.9.8
 _ZNSt8_Rb_treeImSt4pairIKmN5boost10shared_ptrIN4rime7SessionEEEESt10_Select1stIS7_ESt4lessImESaIS7_EE17_M_insert_unique_ESt23_Rb_tree_const_iteratorIS7_ERKS7_@Base 0.9.8
 _ZNSt8_Rb_treeImSt4pairIKmN5boost10shared_ptrIN4rime7SessionEEEESt10_Select1stIS7_ESt4lessImESaIS7_EE4findERS1_@Base 0.9.8
 _ZNSt8_Rb_treeImSt4pairIKmN5boost10shared_ptrIN4rime7SessionEEEESt10_Select1stIS7_ESt4lessImESaIS7_EE8_M_eraseEPSt13_Rb_tree_nodeIS7_E@Base 0.9.8
 _ZNSt8_Rb_treeImSt4pairIKmSt3mapIiN4rime18SpellingPropertiesESt4lessIiESaIS0_IKiS4_EEEESt10_Select1stISB_ES5_ImESaISB_EE10_M_insert_EPKSt18_Rb_tree_node_baseSJ_RKSB_@Base 0.9.8
 _ZNSt8_Rb_treeImSt4pairIKmSt3mapIiN4rime18SpellingPropertiesESt4lessIiESaIS0_IKiS4_EEEESt10_Select1stISB_ES5_ImESaISB_EE12_M_erase_auxESt23_Rb_tree_const_iteratorISB_E@Base 0.9.8
 _ZNSt8_Rb_treeImSt4pairIKmSt3mapIiN4rime18SpellingPropertiesESt4lessIiESaIS0_IKiS4_EEEESt10_Select1stISB_ES5_ImESaISB_EE16_M_insert_uniqueERKSB_@Base 0.9.8
 _ZNSt8_Rb_treeImSt4pairIKmSt3mapIiN4rime18SpellingPropertiesESt4lessIiESaIS0_IKiS4_EEEESt10_Select1stISB_ES5_ImESaISB_EE17_M_insert_unique_ESt23_Rb_tree_const_iteratorISB_ERKSB_@Base 0.9.8
 _ZNSt8_Rb_treeImSt4pairIKmSt3mapIiN4rime18SpellingPropertiesESt4lessIiESaIS0_IKiS4_EEEESt10_Select1stISB_ES5_ImESaISB_EE7_M_copyEPKSt13_Rb_tree_nodeISB_EPSI_@Base 0.9.8
 _ZNSt8_Rb_treeImSt4pairIKmSt3mapIiN4rime18SpellingPropertiesESt4lessIiESaIS0_IKiS4_EEEESt10_Select1stISB_ES5_ImESaISB_EE8_M_eraseEPSt13_Rb_tree_nodeISB_E@Base 0.9.8
 _ZNSt8_Rb_treeImSt4pairIKmSt3mapIiN4rime18SpellingPropertiesESt4lessIiESaIS0_IKiS4_EEEESt10_Select1stISB_ES5_ImESaISB_EEC1ERKSG_@Base 0.9.8
 _ZNSt8_Rb_treeImSt4pairIKmSt3mapIiN4rime18SpellingPropertiesESt4lessIiESaIS0_IKiS4_EEEESt10_Select1stISB_ES5_ImESaISB_EEC2ERKSG_@Base 0.9.8
 _ZNSt8_Rb_treeImSt4pairIKmSt3mapIiSt6vectorIPKN4rime18SpellingPropertiesESaIS7_EESt4lessIiESaIS0_IKiS9_EEEESt10_Select1stISG_ESA_ImESaISG_EE10_M_insert_EPKSt18_Rb_tree_node_baseSO_RKSG_@Base 0.9.8
 _ZNSt8_Rb_treeImSt4pairIKmSt3mapIiSt6vectorIPKN4rime18SpellingPropertiesESaIS7_EESt4lessIiESaIS0_IKiS9_EEEESt10_Select1stISG_ESA_ImESaISG_EE16_M_insert_uniqueERKSG_@Base 0.9.8
 _ZNSt8_Rb_treeImSt4pairIKmSt3mapIiSt6vectorIPKN4rime18SpellingPropertiesESaIS7_EESt4lessIiESaIS0_IKiS9_EEEESt10_Select1stISG_ESA_ImESaISG_EE17_M_insert_unique_ESt23_Rb_tree_const_iteratorISG_ERKSG_@Base 0.9.8
 _ZNSt8_Rb_treeImSt4pairIKmSt3mapIiSt6vectorIPKN4rime18SpellingPropertiesESaIS7_EESt4lessIiESaIS0_IKiS9_EEEESt10_Select1stISG_ESA_ImESaISG_EE8_M_eraseEPSt13_Rb_tree_nodeISG_E@Base 0.9.8
 _ZNSt8_Rb_treeImSt4pairIKmSt3mapImS2_IiN4rime18SpellingPropertiesESt4lessIiESaIS0_IKiS4_EEES5_ImESaIS0_IS1_SA_EEEESt10_Select1stISF_ESB_SaISF_EE10_M_insert_EPKSt18_Rb_tree_node_baseSM_RKSF_@Base 0.9.8
 _ZNSt8_Rb_treeImSt4pairIKmSt3mapImS2_IiN4rime18SpellingPropertiesESt4lessIiESaIS0_IKiS4_EEES5_ImESaIS0_IS1_SA_EEEESt10_Select1stISF_ESB_SaISF_EE16_M_insert_uniqueERKSF_@Base 0.9.8
 _ZNSt8_Rb_treeImSt4pairIKmSt3mapImS2_IiN4rime18SpellingPropertiesESt4lessIiESaIS0_IKiS4_EEES5_ImESaIS0_IS1_SA_EEEESt10_Select1stISF_ESB_SaISF_EE17_M_insert_unique_ESt23_Rb_tree_const_iteratorISF_ERKSF_@Base 0.9.8
 _ZNSt8_Rb_treeImSt4pairIKmSt3mapImS2_IiN4rime18SpellingPropertiesESt4lessIiESaIS0_IKiS4_EEES5_ImESaIS0_IS1_SA_EEEESt10_Select1stISF_ESB_SaISF_EE4findERS1_@Base 0.9.8
 _ZNSt8_Rb_treeImSt4pairIKmSt3mapImS2_IiN4rime18SpellingPropertiesESt4lessIiESaIS0_IKiS4_EEES5_ImESaIS0_IS1_SA_EEEESt10_Select1stISF_ESB_SaISF_EE8_M_eraseEPSt13_Rb_tree_nodeISF_E@Base 0.9.8
 _ZNSt8_Rb_treeImmSt9_IdentityImESt4lessImESaImEE10_M_insert_EPKSt18_Rb_tree_node_baseS8_RKm@Base 0.9.8
 _ZNSt8_Rb_treeImmSt9_IdentityImESt4lessImESaImEE8_M_eraseEPSt13_Rb_tree_nodeImE@Base 0.9.8
 _ZSt10__fill_n_aIPN5boost2io6detail11format_itemIcSt11char_traitsIcESaIcEEEmS7_EN9__gnu_cxx11__enable_ifIXntsrSt11__is_scalarIT1_E7__valueET_E6__typeESE_T0_RKSC_@Base 0.9.8
 _ZSt11__push_heapIN9__gnu_cxx17__normal_iteratorIPN5boost10shared_ptrIN4rime9DictEntryEEESt6vectorIS6_SaIS6_EEEElS6_PFbRKS6_SD_EEvT_T0_SH_T1_T2_@Base 0.9.8
 _ZSt11__push_heapIN9__gnu_cxx17__normal_iteratorIPSt4pairImN4rime12SpellingTypeEESt6vectorIS5_SaIS5_EEEElS5_St7greaterIS5_EEvT_T0_SE_T1_T2_@Base 0.9.8
 _ZSt11equal_rangeIN9__gnu_cxx17__normal_iteratorIPKN5boost9re_detail20named_subexpressions4nameESt6vectorIS5_SaIS5_EEEES5_ESt4pairIT_SD_ESD_SD_RKT0_@Base 0.9.8
 _ZSt11lower_boundIN9__gnu_cxx17__normal_iteratorIPKPN12kyotocabinet7PlantDBINS2_6HashDBELh49EE6RecordESt6vectorIS7_SaIS7_EEEES7_NS5_16RecordComparatorEET_SF_SF_RKT0_T1_@Base 0.9.8
 _ZSt11lower_boundIN9__gnu_cxx17__normal_iteratorIPPN12kyotocabinet7PlantDBINS2_6HashDBELh49EE6RecordESt6vectorIS7_SaIS7_EEEES7_NS5_16RecordComparatorEET_SE_SE_RKT0_T1_@Base 0.9.8
 _ZSt11upper_boundIN9__gnu_cxx17__normal_iteratorIPPN12kyotocabinet7PlantDBINS2_6HashDBELh49EE4LinkESt6vectorIS7_SaIS7_EEEES7_NS5_14LinkComparatorEET_SE_SE_RKT0_T1_@Base 0.9.8
 _ZSt13__adjust_heapIN9__gnu_cxx17__normal_iteratorIPN5boost10shared_ptrIN4rime9DictEntryEEESt6vectorIS6_SaIS6_EEEElS6_PFbRKS6_SD_EEvT_T0_SH_T1_T2_@Base 0.9.8
 _ZSt13__adjust_heapIN9__gnu_cxx17__normal_iteratorIPSt4pairImN4rime12SpellingTypeEESt6vectorIS5_SaIS5_EEEElS5_St7greaterIS5_EEvT_T0_SE_T1_T2_@Base 0.9.8
 _ZSt13__adjust_heapIN9__gnu_cxx17__normal_iteratorIPlSt6vectorIlSaIlEEEEllEvT_T0_S8_T1_@Base 0.9.8
 _ZSt13__adjust_heapIPN12kyotocabinet6HashDB9FreeBlockElS2_NS1_19FreeBlockComparatorEEvT_T0_S6_T1_T2_@Base 0.9.8
 _ZSt13__adjust_heapIPclcEvT_T0_S2_T1_@Base 0.9.8
 _ZSt13__heap_selectIN9__gnu_cxx17__normal_iteratorIPN5boost10shared_ptrIN4rime9DictEntryEEESt6vectorIS6_SaIS6_EEEEPFbRKS6_SD_EEvT_SG_SG_T0_@Base 0.9.8
 _ZSt13__heap_selectIN9__gnu_cxx17__normal_iteratorIPlSt6vectorIlSaIlEEEEEvT_S7_S7_@Base 0.9.8
 _ZSt13__heap_selectIPN12kyotocabinet6HashDB9FreeBlockENS1_19FreeBlockComparatorEEvT_S5_S5_T0_@Base 0.9.8
 _ZSt13__heap_selectIPcEvT_S1_S1_@Base 0.9.8
 _ZSt13binary_searchIPKccEbT_S2_RKT0_@Base 0.9.8
 _ZSt13copy_backwardIcESt15_Deque_iteratorIT_RS1_PS1_ES4_S4_S4_@Base 0.9.8
 _ZSt16__insertion_sortIN9__gnu_cxx17__normal_iteratorIPN5boost10shared_ptrIN4rime9DictEntryEEESt6vectorIS6_SaIS6_EEEEPFbRKS6_SD_EEvT_SG_T0_@Base 0.9.8
 _ZSt16__insertion_sortIN9__gnu_cxx17__normal_iteratorIPlSt6vectorIlSaIlEEEEEvT_S7_@Base 0.9.8
 _ZSt16__insertion_sortIPN12kyotocabinet6HashDB9FreeBlockENS1_19FreeBlockComparatorEEvT_S5_T0_@Base 0.9.8
 _ZSt16__insertion_sortIPcEvT_S1_@Base 0.9.8
 _ZSt16__introsort_loopIN9__gnu_cxx17__normal_iteratorIPN5boost10shared_ptrIN4rime9DictEntryEEESt6vectorIS6_SaIS6_EEEElPFbRKS6_SD_EEvT_SG_T0_T1_@Base 0.9.8
 _ZSt16__introsort_loopIN9__gnu_cxx17__normal_iteratorIPlSt6vectorIlSaIlEEEElEvT_S7_T0_@Base 0.9.8
 _ZSt16__introsort_loopIPN12kyotocabinet6HashDB9FreeBlockElNS1_19FreeBlockComparatorEEvT_S5_T0_T1_@Base 0.9.8
 _ZSt16__introsort_loopIPclEvT_S1_T0_@Base 0.9.8
 _ZSt19__move_median_firstIN9__gnu_cxx17__normal_iteratorIPN5boost10shared_ptrIN4rime9DictEntryEEESt6vectorIS6_SaIS6_EEEEPFbRKS6_SD_EEvT_SG_SG_T0_@Base 0.9.8
 _ZSt22__final_insertion_sortIN9__gnu_cxx17__normal_iteratorIPN5boost10shared_ptrIN4rime9DictEntryEEESt6vectorIS6_SaIS6_EEEEPFbRKS6_SD_EEvT_SG_T0_@Base 0.9.8
 _ZSt22__final_insertion_sortIN9__gnu_cxx17__normal_iteratorIPlSt6vectorIlSaIlEEEEEvT_S7_@Base 0.9.8
 _ZSt22__final_insertion_sortIPcEvT_S1_@Base 0.9.8
 _ZSt25__unguarded_linear_insertIN9__gnu_cxx17__normal_iteratorIPN5boost10shared_ptrIN4rime9DictEntryEEESt6vectorIS6_SaIS6_EEEEPFbRKS6_SD_EEvT_T0_@Base 0.9.8
 _ZSt26__unguarded_insertion_sortIPN12kyotocabinet6HashDB9FreeBlockENS1_19FreeBlockComparatorEEvT_S5_T0_@Base 0.9.8
 _ZSt4copyIcESt15_Deque_iteratorIT_RS1_PS1_ES4_S4_S4_@Base 0.9.8
 _ZSt4fillSt13_Bit_iteratorS_RKb@Base 0.9.8
 _ZSt4sortIPN12kyotocabinet6HashDB9FreeBlockENS1_19FreeBlockComparatorEEvT_S5_T0_@Base 0.9.8
 _ZSt6__findIN9__gnu_cxx17__normal_iteratorIPN4rime8SpellingESt6vectorIS3_SaIS3_EEEES3_ET_S9_S9_RKT0_St26random_access_iterator_tag@Base 0.9.8
 _ZSt7find_ifIN9__gnu_cxx17__normal_iteratorIPKcSsEEN5boost9algorithm6detail10is_any_ofFIcEEET_SA_SA_T0_@Base 0.9.8
 _ZSt7find_ifIN9__gnu_cxx17__normal_iteratorIPcSsEEN5boost9algorithm6detail10is_any_ofFIcEEET_S9_S9_T0_@Base 0.9.8
 _ZSt8_DestroyISt15_Deque_iteratorISt4pairISsSsERS2_PS2_EEvT_S6_@Base 0.9.8
 _ZSt8_DestroyISt15_Deque_iteratorISt4pairImN4rime12TableVisitorEERS4_PS4_EEvT_S8_@Base 0.9.8
 _ZSt8__fill_aIPN5boost10shared_ptrIN4rime10ConfigItemEEES4_EN9__gnu_cxx11__enable_ifIXntsrSt11__is_scalarIT0_E7__valueEvE6__typeET_SD_RKS9_@Base 0.9.8
 _ZSt8__fill_aIPN5boost2io6detail11format_itemIcSt11char_traitsIcESaIcEEES7_EN9__gnu_cxx11__enable_ifIXntsrSt11__is_scalarIT0_E7__valueEvE6__typeET_SG_RKSC_@Base 0.9.8
 _ZSt9__find_ifIN9__gnu_cxx17__normal_iteratorIPKcSsEEN5boost9algorithm6detail10is_any_ofFIcEEET_SA_SA_T0_St26random_access_iterator_tag@Base 0.9.8
 _ZSt9__find_ifIN9__gnu_cxx17__normal_iteratorIPKcSsEEN5boost9algorithm6detail14is_classifiedFEET_S9_S9_T0_St26random_access_iterator_tag@Base 0.9.8
 _ZSt9__find_ifIN9__gnu_cxx17__normal_iteratorIPKcSsEEN5boost9algorithm6detail14is_from_rangeFIcEEET_SA_SA_T0_St26random_access_iterator_tag@Base 0.9.8
 _ZSt9__find_ifIN9__gnu_cxx17__normal_iteratorIPcSsEEN5boost9algorithm6detail10is_any_ofFIcEEET_S9_S9_T0_St26random_access_iterator_tag@Base 0.9.8
 _ZSt9make_heapIN9__gnu_cxx17__normal_iteratorIPN5boost10shared_ptrIN4rime9DictEntryEEESt6vectorIS6_SaIS6_EEEEPFbRKS6_SD_EEvT_SG_T0_@Base 0.9.8
 _ZSt9make_heapIN9__gnu_cxx17__normal_iteratorIPSt4pairImN4rime12SpellingTypeEESt6vectorIS5_SaIS5_EEEESt7greaterIS5_EEvT_SD_T0_@Base 0.9.8
 _ZSt9make_heapIN9__gnu_cxx17__normal_iteratorIPlSt6vectorIlSaIlEEEEEvT_S7_@Base 0.9.8
 _ZSt9make_heapIPN12kyotocabinet6HashDB9FreeBlockENS1_19FreeBlockComparatorEEvT_S5_T0_@Base 0.9.8
 _ZSt9make_heapIPcEvT_S1_@Base 0.9.8
 _ZSt9set_unionISt23_Rb_tree_const_iteratorISsES1_St15insert_iteratorISt3setISsSt4lessISsESaISsEEEET1_T_SA_T0_SB_S9_@Base 0.9.8
 _ZSt9sort_heapIN9__gnu_cxx17__normal_iteratorIPN5boost10shared_ptrIN4rime9DictEntryEEESt6vectorIS6_SaIS6_EEEEPFbRKS6_SD_EEvT_SG_T0_@Base 0.9.8
 _ZSt9sort_heapIN9__gnu_cxx17__normal_iteratorIPlSt6vectorIlSaIlEEEEEvT_S7_@Base 0.9.8
 _ZSt9sort_heapIPN12kyotocabinet6HashDB9FreeBlockENS1_19FreeBlockComparatorEEvT_S5_T0_@Base 0.9.8
 _ZSt9sort_heapIPcEvT_S1_@Base 0.9.8
 _ZSt9transformIN9__gnu_cxx17__normal_iteratorIPcSsEES3_N5boost9algorithm6detail9to_lowerFIcEEET0_T_SA_S9_T1_@Base 0.9.8
 _ZSteqIcEN9__gnu_cxx11__enable_ifIXsrSt9__is_charIT_E7__valueEbE6__typeERKSbIS3_St11char_traitsIS3_ESaIS3_EESC_@Base 0.9.8
 _ZStplIcSt11char_traitsIcESaIcEESbIT_T0_T1_EPKS3_RKS6_@Base 0.9.8
 _ZStplIcSt11char_traitsIcESaIcEESbIT_T0_T1_ERKS6_PKS3_@Base 0.9.8
 _ZStplIcSt11char_traitsIcESaIcEESbIT_T0_T1_ERKS6_S8_@Base 0.9.8
 _ZTCN5boost2io22basic_oaltstringstreamIcSt11char_traitsIcESaIcEEE0_So@Base 0.9.8
 _ZTIN12kyotocabinet2DB6CursorE@Base 0.9.8
 _ZTIN12kyotocabinet2DB7VisitorE@Base 0.9.8
 _ZTIN12kyotocabinet2DBE@Base 0.9.8
 _ZTIN12kyotocabinet6HashDB6CursorE@Base 0.9.8
 _ZTIN12kyotocabinet6HashDB8RepeaterE@Base 0.9.8
 _ZTIN12kyotocabinet6HashDBE@Base 0.9.8
 _ZTIN12kyotocabinet7BasicDB13FileProcessorE@Base 0.9.8
 _ZTIN12kyotocabinet7BasicDB15ProgressCheckerE@Base 0.9.8
 _ZTIN12kyotocabinet7BasicDB6CursorE@Base 0.9.8
 _ZTIN12kyotocabinet7BasicDBE@Base 0.9.8
 _ZTIN12kyotocabinet7PlantDBINS_6HashDBELh49EE6CursorE@Base 0.9.8
 _ZTIN12kyotocabinet7PlantDBINS_6HashDBELh49EEE@Base 0.9.8
 _ZTIN4YAML13InvalidScalarE@Base 0.9.8
 _ZTIN4YAML14BadDereferenceE@Base 0.9.8
 _ZTIN4YAML23RepresentationExceptionE@Base 0.9.8
 _ZTIN4YAML9ExceptionE@Base 0.9.8
 _ZTIN4rime10ConfigItemE@Base 0.9.8
 _ZTIN4rime10ConfigListE@Base 0.9.8
 _ZTIN4rime10DerivationE@Base 0.9.8
 _ZTIN4rime10DictionaryE@Base 0.9.8
 _ZTIN4rime10MappedFileE@Base 0.9.8
 _ZTIN4rime10PunctuatorE@Base 0.9.8
 _ZTIN4rime10RecognizerE@Base 0.9.8
 _ZTIN4rime10SimplifierE@Base 0.9.8
 _ZTIN4rime10TranslatorE@Base 0.9.8
 _ZTIN4rime10UniquifierE@Base 0.9.8
 _ZTIN4rime11CalculationE@Base 0.9.8
 _ZTIN4rime11CompositionE@Base 0.9.8
 _ZTIN4rime11ConfigValueE@Base 0.9.8
 _ZTIN4rime11TranslationE@Base 0.9.8
 _ZTIN4rime12AbbreviationE@Base 0.9.8
 _ZTIN4rime12AbcSegmentorE@Base 0.9.8
 _ZTIN4rime12CleanUpTrashE@Base 0.9.8
 _ZTIN4rime12SchemaUpdateE@Base 0.9.8
 _ZTIN4rime12SegmentationE@Base 0.9.8
 _ZTIN4rime12UniqueFilterE@Base 0.9.8
 _ZTIN4rime12UserDictSyncE@Base 0.9.8
 _ZTIN4rime13AsciiComposerE@Base 0.9.8
 _ZTIN4rime13CharsetFilterE@Base 0.9.8
 _ZTIN4rime13ChordComposerE@Base 0.9.8
 _ZTIN4rime13ComponentBaseE@Base 0.9.8
 _ZTIN4rime13ConfigItemRefE@Base 0.9.8
 _ZTIN4rime13ExpressEditorE@Base 0.9.8
 _ZTIN4rime13FluencyEditorE@Base 0.9.8
 _ZTIN4rime14AsciiSegmentorE@Base 0.9.8
 _ZTIN4rime14ConcreteEngineE@Base 0.9.8
 _ZTIN4rime14CustomSettingsE@Base 0.9.8
 _ZTIN4rime14DeploymentTaskE@Base 0.9.8
 _ZTIN4rime14EchoTranslatorE@Base 0.9.8
 _ZTIN4rime14PunctSegmentorE@Base 0.9.8
 _ZTIN4rime14R10nTranslatorE@Base 0.9.8
 _ZTIN4rime14SwitcherOptionE@Base 0.9.8
 _ZTIN4rime14TransformationE@Base 0.9.8
 _ZTIN4rime14UserDictionaryE@Base 0.9.8
 _ZTIN4rime15ConfigComponentE@Base 0.9.8
 _ZTIN4rime15EchoTranslationE@Base 0.9.8
 _ZTIN4rime15FifoTranslationE@Base 0.9.8
 _ZTIN4rime15PunctTranslatorE@Base 0.9.8
 _ZTIN4rime15R10nTranslationE@Base 0.9.8
 _ZTIN4rime15ShadowCandidateE@Base 0.9.8
 _ZTIN4rime15SimpleCandidateE@Base 0.9.8
 _ZTIN4rime15SyllabificationE@Base 0.9.8
 _ZTIN4rime15TableTranslatorE@Base 0.9.8
 _ZTIN4rime15TransliterationE@Base 0.9.8
 _ZTIN4rime15WorkspaceUpdateE@Base 0.9.8
 _ZTIN4rime16CleanOldLogFilesE@Base 0.9.8
 _ZTIN4rime16ConfigFileUpdateE@Base 0.9.8
 _ZTIN4rime16SwitcherSettingsE@Base 0.9.8
 _ZTIN4rime16TableTranslationE@Base 0.9.8
 _ZTIN4rime17BackupConfigFilesE@Base 0.9.8
 _ZTIN4rime17FallbackSegmentorE@Base 0.9.8
 _ZTIN4rime17TranslatorOptionsE@Base 0.9.8
 _ZTIN4rime17TrivialTranslatorE@Base 0.9.8
 _ZTIN4rime17UniqueTranslationE@Base 0.9.8
 _ZTIN4rime17UserDictUpgrationE@Base 0.9.8
 _ZTIN4rime18InstallationUpdateE@Base 0.9.8
 _ZTIN4rime18PrebuildAllSchemasE@Base 0.9.8
 _ZTIN4rime19DictionaryComponentE@Base 0.9.8
 _ZTIN4rime19SentenceTranslationE@Base 0.9.8
 _ZTIN4rime19UniquifiedCandidateE@Base 0.9.8
 _ZTIN4rime20LazyTableTranslationE@Base 0.9.8
 _ZTIN4rime23ReverseLookupTranslatorE@Base 0.9.8
 _ZTIN4rime23UserDictionaryComponentE@Base 0.9.8
 _ZTIN4rime24ReverseLookupTranslationE@Base 0.9.8
 _ZTIN4rime30SymlinkingPrebuiltDictionariesE@Base 0.9.8
 _ZTIN4rime32ReverseLookupDictionaryComponentE@Base 0.9.8
 _ZTIN4rime5ClassINS_10DictionaryEPNS_6SchemaEE9ComponentE@Base 0.9.8
 _ZTIN4rime5ClassINS_10DictionaryEPNS_6SchemaEEE@Base 0.9.8
 _ZTIN4rime5ClassINS_10TranslatorEPNS_6EngineEE9ComponentE@Base 0.9.8
 _ZTIN4rime5ClassINS_10TranslatorEPNS_6EngineEEE@Base 0.9.8
 _ZTIN4rime5ClassINS_14UserDictionaryEPNS_6SchemaEE9ComponentE@Base 0.9.8
 _ZTIN4rime5ClassINS_14UserDictionaryEPNS_6SchemaEEE@Base 0.9.8
 _ZTIN4rime5ClassINS_23ReverseLookupDictionaryEPNS_6SchemaEE9ComponentE@Base 0.9.8
 _ZTIN4rime5ClassINS_6ConfigERKSsE9ComponentE@Base 0.9.8
 _ZTIN4rime5ClassINS_6ConfigERKSsEE@Base 0.9.8
 _ZTIN4rime5ClassINS_6FilterEPNS_6EngineEE9ComponentE@Base 0.9.8
 _ZTIN4rime5ClassINS_6FilterEPNS_6EngineEEE@Base 0.9.8
 _ZTIN4rime5ClassINS_9ProcessorEPNS_6EngineEE9ComponentE@Base 0.9.8
 _ZTIN4rime5ClassINS_9ProcessorEPNS_6EngineEEE@Base 0.9.8
 _ZTIN4rime5ClassINS_9SegmentorEPNS_6EngineEE9ComponentE@Base 0.9.8
 _ZTIN4rime5ClassINS_9SegmentorEPNS_6EngineEEE@Base 0.9.8
 _ZTIN4rime5PrismE@Base 0.9.8
 _ZTIN4rime5TableE@Base 0.9.8
 _ZTIN4rime6ConfigE@Base 0.9.8
 _ZTIN4rime6EditorE@Base 0.9.8
 _ZTIN4rime6EngineE@Base 0.9.8
 _ZTIN4rime6FilterE@Base 0.9.8
 _ZTIN4rime6MemoryE@Base 0.9.8
 _ZTIN4rime6PhraseE@Base 0.9.8
 _ZTIN4rime6TreeDbE@Base 0.9.8
 _ZTIN4rime6UserDbE@Base 0.9.8
 _ZTIN4rime7ErasionE@Base 0.9.8
 _ZTIN4rime7MatcherE@Base 0.9.8
 _ZTIN4rime7SpellerE@Base 0.9.8
 _ZTIN4rime8LanguageE@Base 0.9.8
 _ZTIN4rime8SelectorE@Base 0.9.8
 _ZTIN4rime8SentenceE@Base 0.9.8
 _ZTIN4rime8SwitcherE@Base 0.9.8
 _ZTIN4rime9CandidateE@Base 0.9.8
 _ZTIN4rime9ComponentINS_10PunctuatorEEE@Base 0.9.8
 _ZTIN4rime9ComponentINS_10RecognizerEEE@Base 0.9.8
 _ZTIN4rime9ComponentINS_10SimplifierEEE@Base 0.9.8
 _ZTIN4rime9ComponentINS_10UniquifierEEE@Base 0.9.8
 _ZTIN4rime9ComponentINS_12AbcSegmentorEEE@Base 0.9.8
 _ZTIN4rime9ComponentINS_13AsciiComposerEEE@Base 0.9.8
 _ZTIN4rime9ComponentINS_13ChordComposerEEE@Base 0.9.8
 _ZTIN4rime9ComponentINS_13ExpressEditorEEE@Base 0.9.8
 _ZTIN4rime9ComponentINS_13FluencyEditorEEE@Base 0.9.8
 _ZTIN4rime9ComponentINS_14AsciiSegmentorEEE@Base 0.9.8
 _ZTIN4rime9ComponentINS_14EchoTranslatorEEE@Base 0.9.8
 _ZTIN4rime9ComponentINS_14PunctSegmentorEEE@Base 0.9.8
 _ZTIN4rime9ComponentINS_14R10nTranslatorEEE@Base 0.9.8
 _ZTIN4rime9ComponentINS_15PunctTranslatorEEE@Base 0.9.8
 _ZTIN4rime9ComponentINS_15TableTranslatorEEE@Base 0.9.8
 _ZTIN4rime9ComponentINS_17FallbackSegmentorEEE@Base 0.9.8
 _ZTIN4rime9ComponentINS_23ReverseLookupTranslatorEEE@Base 0.9.8
 _ZTIN4rime9ComponentINS_7MatcherEEE@Base 0.9.8
 _ZTIN4rime9ComponentINS_7SpellerEEE@Base 0.9.8
 _ZTIN4rime9ComponentINS_8SelectorEEE@Base 0.9.8
 _ZTIN4rime9ComponentINS_9KeyBinderEEE@Base 0.9.8
 _ZTIN4rime9ComponentINS_9NavigatorEEE@Base 0.9.8
 _ZTIN4rime9ConfigMapE@Base 0.9.8
 _ZTIN4rime9KeyBinderE@Base 0.9.8
 _ZTIN4rime9MessengerE@Base 0.9.8
 _ZTIN4rime9NavigatorE@Base 0.9.8
 _ZTIN4rime9ProcessorE@Base 0.9.8
 _ZTIN4rime9SegmentorE@Base 0.9.8
 _ZTIN5Darts15DoubleArrayImplIvvivEE@Base 0.9.8
 _ZTIN5Darts7Details9ExceptionE@Base 0.9.8
 _ZTIN5boost10filesystem16filesystem_errorE@Base 0.9.8
 _ZTIN5boost10last_valueIvEE@Base 0.9.8
 _ZTIN5boost10lock_errorE@Base 0.9.8
 _ZTIN5boost12bad_weak_ptrE@Base 0.9.8
 _ZTIN5boost12interprocess22interprocess_exceptionE@Base 0.9.8
 _ZTIN5boost12noncopyable_11noncopyableE@Base 0.9.8
 _ZTIN5boost13function_baseE@Base 0.9.8
 _ZTIN5boost16bad_lexical_castE@Base 0.9.8
 _ZTIN5boost16base_from_memberINS_10shared_ptrINS_2io18basic_altstringbufIcSt11char_traitsIcESaIcEEEEELi0EEE@Base 0.9.8
 _ZTIN5boost16exception_detail10bad_alloc_E@Base 0.9.8
 _ZTIN5boost16exception_detail10clone_baseE@Base 0.9.8
 _ZTIN5boost16exception_detail10clone_implINS0_10bad_alloc_EEE@Base 0.9.8
 _ZTIN5boost16exception_detail10clone_implINS0_14bad_exception_EEE@Base 0.9.8
 _ZTIN5boost16exception_detail10clone_implINS0_19error_info_injectorINS_10lock_errorEEEEE@Base 0.9.8
 _ZTIN5boost16exception_detail10clone_implINS0_19error_info_injectorINS_12bad_weak_ptrEEEEE@Base 0.9.8
 _ZTIN5boost16exception_detail10clone_implINS0_19error_info_injectorINS_16bad_lexical_castEEEEE@Base 0.9.8
 _ZTIN5boost16exception_detail10clone_implINS0_19error_info_injectorINS_17bad_function_callEEEEE@Base 0.9.8
 _ZTIN5boost16exception_detail10clone_implINS0_19error_info_injectorINS_21thread_resource_errorEEEEE@Base 0.9.8
 _ZTIN5boost16exception_detail10clone_implINS0_19error_info_injectorINS_2io12too_few_argsEEEEE@Base 0.9.8
 _ZTIN5boost16exception_detail10clone_implINS0_19error_info_injectorINS_2io13too_many_argsEEEEE@Base 0.9.8
 _ZTIN5boost16exception_detail10clone_implINS0_19error_info_injectorINS_2io17bad_format_stringEEEEE@Base 0.9.8
 _ZTIN5boost16exception_detail10clone_implINS0_19error_info_injectorINS_9gregorian16bad_day_of_monthEEEEE@Base 0.9.8
 _ZTIN5boost16exception_detail10clone_implINS0_19error_info_injectorINS_9gregorian8bad_yearEEEEE@Base 0.9.8
 _ZTIN5boost16exception_detail10clone_implINS0_19error_info_injectorINS_9gregorian9bad_monthEEEEE@Base 0.9.8
 _ZTIN5boost16exception_detail10clone_implINS0_19error_info_injectorISt11logic_errorEEEE@Base 0.9.8
 _ZTIN5boost16exception_detail10clone_implINS0_19error_info_injectorISt13runtime_errorEEEE@Base 0.9.8
 _ZTIN5boost16exception_detail14bad_exception_E@Base 0.9.8
 _ZTIN5boost16exception_detail19error_info_injectorINS_10lock_errorEEE@Base 0.9.8
 _ZTIN5boost16exception_detail19error_info_injectorINS_12bad_weak_ptrEEE@Base 0.9.8
 _ZTIN5boost16exception_detail19error_info_injectorINS_16bad_lexical_castEEE@Base 0.9.8
 _ZTIN5boost16exception_detail19error_info_injectorINS_17bad_function_callEEE@Base 0.9.8
 _ZTIN5boost16exception_detail19error_info_injectorINS_21thread_resource_errorEEE@Base 0.9.8
 _ZTIN5boost16exception_detail19error_info_injectorINS_2io12too_few_argsEEE@Base 0.9.8
 _ZTIN5boost16exception_detail19error_info_injectorINS_2io13too_many_argsEEE@Base 0.9.8
 _ZTIN5boost16exception_detail19error_info_injectorINS_2io17bad_format_stringEEE@Base 0.9.8
 _ZTIN5boost16exception_detail19error_info_injectorINS_9gregorian16bad_day_of_monthEEE@Base 0.9.8
 _ZTIN5boost16exception_detail19error_info_injectorINS_9gregorian8bad_yearEEE@Base 0.9.8
 _ZTIN5boost16exception_detail19error_info_injectorINS_9gregorian9bad_monthEEE@Base 0.9.8
 _ZTIN5boost16exception_detail19error_info_injectorISt11logic_errorEE@Base 0.9.8
 _ZTIN5boost16exception_detail19error_info_injectorISt13runtime_errorEE@Base 0.9.8
 _ZTIN5boost16thread_exceptionE@Base 0.9.8
 _ZTIN5boost17bad_function_callE@Base 0.9.8
 _ZTIN5boost21thread_resource_errorE@Base 0.9.8
 _ZTIN5boost23enable_shared_from_thisIN4rime15R10nTranslationEEE@Base 0.9.8
 _ZTIN5boost2io12format_errorE@Base 0.9.8
 _ZTIN5boost2io12too_few_argsE@Base 0.9.8
 _ZTIN5boost2io13too_many_argsE@Base 0.9.8
 _ZTIN5boost2io17bad_format_stringE@Base 0.9.8
 _ZTIN5boost2io18basic_altstringbufIcSt11char_traitsIcESaIcEEE@Base 0.9.8
 _ZTIN5boost2io22basic_oaltstringstreamIcSt11char_traitsIcESaIcEEE@Base 0.9.8
 _ZTIN5boost3_bi6bind_tIvNS_4_mfi3mf1IvN4rime13AsciiComposerEPNS4_7ContextEEENS0_5list2INS0_5valueIPS5_EENS_3argILi1EEEEEEE@Base 0.9.8
 _ZTIN5boost3_bi6bind_tIvNS_4_mfi3mf1IvN4rime14ConcreteEngineEPNS4_7ContextEEENS0_5list2INS0_5valueIPS5_EENS_3argILi1EEEEEEE@Base 0.9.8
 _ZTIN5boost3_bi6bind_tIvNS_4_mfi3mf1IvN4rime6MemoryEPNS4_7ContextEEENS0_5list2INS0_5valueIPS5_EENS_3argILi1EEEEEEE@Base 0.9.8
 _ZTIN5boost3_bi6bind_tIvNS_4_mfi3mf1IvN4rime7SessionERKSsEENS0_5list2INS0_5valueIPS5_EENS_3argILi1EEEEEEE@Base 0.9.8
 _ZTIN5boost3_bi6bind_tIvNS_4_mfi3mf1IvN4rime8SwitcherEPNS4_7ContextEEENS0_5list2INS0_5valueIPS5_EENS_3argILi1EEEEEEE@Base 0.9.8
 _ZTIN5boost3_bi6bind_tIvNS_4_mfi3mf2IvN4rime14ConcreteEngineEPNS4_7ContextERKSsEENS0_5list3INS0_5valueIPS5_EENS_3argILi1EEENSF_ILi2EEEEEEE@Base 0.9.8
 _ZTIN5boost3_bi6bind_tIvNS_4_mfi3mf2IvN4rime14ConcreteEngineEPSt6vectorINS_10shared_ptrINS4_9CandidateEEESaIS9_EESC_EENS0_5list3INS0_5valueIPS5_EENS_3argILi1EEENSI_ILi2EEEEEEE@Base 0.9.8
 _ZTIN5boost3_bi6bind_tIvNS_4_mfi3mf2IvN4rime6MemoryEPNS4_7ContextERKNS4_8KeyEventEEENS0_5list3INS0_5valueIPS5_EENS_3argILi1EEENSG_ILi2EEEEEEE@Base 0.9.8
 _ZTIN5boost3_bi6bind_tIvNS_4_mfi3mf3IvN4rime7ServiceEmRKSsS7_EENS0_5list4INS0_5valueIPS5_EENSA_IiEENS_3argILi1EEENSE_ILi2EEEEEEE@Base 0.9.8
 _ZTIN5boost3_bi6bind_tIvNS_4_mfi3mf3IvN4rime7ServiceEmRKSsS7_EENS0_5list4INS0_5valueIPS5_EENSA_ImEENS_3argILi1EEENSE_ILi2EEEEEEE@Base 0.9.8
 _ZTIN5boost3_bi6bind_tIvPFvPvmPKcS4_ENS0_5list4INS0_5valueIS2_EENS_3argILi1EEENSA_ILi2EEENSA_ILi3EEEEEEE@Base 0.9.8
 _ZTIN5boost3any11placeholderE@Base 0.9.8
 _ZTIN5boost3any6holderINS_10last_valueIvEEEE@Base 0.9.8
 _ZTIN5boost3any6holderINS_8functionIFvPN4rime7ContextEEEEEE@Base 0.9.8
 _ZTIN5boost3any6holderINS_8functionIFvPN4rime7ContextERKNS3_8KeyEventEEEEEE@Base 0.9.8
 _ZTIN5boost3any6holderINS_8functionIFvPN4rime7ContextERKSsEEEEE@Base 0.9.8
 _ZTIN5boost3any6holderINS_8functionIFvRKSsEEEEE@Base 0.9.8
 _ZTIN5boost3any6holderINS_8functionIFvRKSsS4_EEEEE@Base 0.9.8
 _ZTIN5boost6detail11thread_dataINS_3_bi6bind_tIbNS_4_mfi3mf0IbN4rime8DeployerEEENS2_5list1INS2_5valueIPS7_EEEEEEEE@Base 0.9.8
 _ZTIN5boost6detail15sp_counted_baseE@Base 0.9.8
 _ZTIN5boost6detail17sp_counted_impl_pIN12kyotocabinet7PlantDBINS2_6HashDBELh49EEEEE@Base 0.9.8
 _ZTIN5boost6detail17sp_counted_impl_pIN4rime10TranslatorEEE@Base 0.9.8
 _ZTIN5boost6detail17sp_counted_impl_pIN4rime11CalculationEEE@Base 0.9.8
 _ZTIN5boost6detail17sp_counted_impl_pIN4rime15FifoTranslationEEE@Base 0.9.8
 _ZTIN5boost6detail17sp_counted_impl_pIN4rime6FilterEEE@Base 0.9.8
 _ZTIN5boost6detail17sp_counted_impl_pIN4rime9ProcessorEEE@Base 0.9.8
 _ZTIN5boost6detail17sp_counted_impl_pIN4rime9SegmentorEEE@Base 0.9.8
 _ZTIN5boost6detail17sp_counted_impl_pINS0_11thread_dataINS_3_bi6bind_tIbNS_4_mfi3mf0IbN4rime8DeployerEEENS3_5list1INS3_5valueIPS8_EEEEEEEEEE@Base 0.9.8
 _ZTIN5boost6detail17sp_counted_impl_pINS_10filesystem6detail11dir_itr_impEEE@Base 0.9.8
 _ZTIN5boost6detail17sp_counted_impl_pINS_16exception_detail10clone_implINS2_10bad_alloc_EEEEE@Base 0.9.8
 _ZTIN5boost6detail17sp_counted_impl_pINS_16exception_detail10clone_implINS2_14bad_exception_EEEEE@Base 0.9.8
 _ZTIN5boost6detail17sp_counted_impl_pINS_29regex_iterator_implementationIN9__gnu_cxx17__normal_iteratorIPKcSsEEcNS_12regex_traitsIcNS_16cpp_regex_traitsIcEEEEEEEE@Base 0.9.8
 _ZTIN5boost6detail17sp_counted_impl_pINS_6random23mersenne_twister_engineIjLm32ELm624ELm397ELm31ELj2567483615ELm11ELj4294967295ELm7ELj2636928640ELm15ELj4022730752ELm18ELj1812433253EEEEE@Base 0.9.8
 _ZTIN5boost6detail17sp_counted_impl_pINS_7signals6detail9slot_base6data_tEEE@Base 0.9.8
 _ZTIN5boost6detail18sp_counted_impl_pdIPN4rime10ConfigDataENS0_13sp_ms_deleterIS3_EEEE@Base 0.9.8
 _ZTIN5boost6detail18sp_counted_impl_pdIPN4rime10ConfigListENS0_13sp_ms_deleterIS3_EEEE@Base 0.9.8
 _ZTIN5boost6detail18sp_counted_impl_pdIPN4rime10VocabularyENS0_13sp_ms_deleterIS3_EEEE@Base 0.9.8
 _ZTIN5boost6detail18sp_counted_impl_pdIPN4rime11ConfigValueENS0_13sp_ms_deleterIS3_EEEE@Base 0.9.8
 _ZTIN5boost6detail18sp_counted_impl_pdIPN4rime12CleanUpTrashENS0_13sp_ms_deleterIS3_EEEE@Base 0.9.8
 _ZTIN5boost6detail18sp_counted_impl_pdIPN4rime12UniqueFilterENS0_13sp_ms_deleterIS3_EEEE@Base 0.9.8
 _ZTIN5boost6detail18sp_counted_impl_pdIPN4rime12UserDictSyncENS0_13sp_ms_deleterIS3_EEEE@Base 0.9.8
 _ZTIN5boost6detail18sp_counted_impl_pdIPN4rime13CharsetFilterENS0_13sp_ms_deleterIS3_EEEE@Base 0.9.8
 _ZTIN5boost6detail18sp_counted_impl_pdIPN4rime13DictEntryListENS0_13sp_ms_deleterIS3_EEEE@Base 0.9.8
 _ZTIN5boost6detail18sp_counted_impl_pdIPN4rime14SwitcherOptionENS0_13sp_ms_deleterIS3_EEEE@Base 0.9.8
 _ZTIN5boost6detail18sp_counted_impl_pdIPN4rime14TreeDbAccessorENS0_13sp_ms_deleterIS3_EEEE@Base 0.9.8
 _ZTIN5boost6detail18sp_counted_impl_pdIPN4rime15EchoTranslationENS0_13sp_ms_deleterIS3_EEEE@Base 0.9.8
 _ZTIN5boost6detail18sp_counted_impl_pdIPN4rime15FifoTranslationENS0_13sp_ms_deleterIS3_EEEE@Base 0.9.8
 _ZTIN5boost6detail18sp_counted_impl_pdIPN4rime15R10nTranslationENS0_13sp_ms_deleterIS3_EEEE@Base 0.9.8
 _ZTIN5boost6detail18sp_counted_impl_pdIPN4rime15ShadowCandidateENS0_13sp_ms_deleterIS3_EEEE@Base 0.9.8
 _ZTIN5boost6detail18sp_counted_impl_pdIPN4rime15SimpleCandidateENS0_13sp_ms_deleterIS3_EEEE@Base 0.9.8
 _ZTIN5boost6detail18sp_counted_impl_pdIPN4rime15WorkspaceUpdateENS0_13sp_ms_deleterIS3_EEEE@Base 0.9.8
 _ZTIN5boost6detail18sp_counted_impl_pdIPN4rime16TableTranslationENS0_13sp_ms_deleterIS3_EEEE@Base 0.9.8
 _ZTIN5boost6detail18sp_counted_impl_pdIPN4rime17BackupConfigFilesENS0_13sp_ms_deleterIS3_EEEE@Base 0.9.8
 _ZTIN5boost6detail18sp_counted_impl_pdIPN4rime17UniqueTranslationENS0_13sp_ms_deleterIS3_EEEE@Base 0.9.8
 _ZTIN5boost6detail18sp_counted_impl_pdIPN4rime17UserDictUpgrationENS0_13sp_ms_deleterIS3_EEEE@Base 0.9.8
 _ZTIN5boost6detail18sp_counted_impl_pdIPN4rime18DictEntryCollectorENS0_13sp_ms_deleterIS3_EEEE@Base 0.9.8
 _ZTIN5boost6detail18sp_counted_impl_pdIPN4rime18InstallationUpdateENS0_13sp_ms_deleterIS3_EEEE@Base 0.9.8
 _ZTIN5boost6detail18sp_counted_impl_pdIPN4rime19SentenceTranslationENS0_13sp_ms_deleterIS3_EEEE@Base 0.9.8
 _ZTIN5boost6detail18sp_counted_impl_pdIPN4rime19UniquifiedCandidateENS0_13sp_ms_deleterIS3_EEEE@Base 0.9.8
 _ZTIN5boost6detail18sp_counted_impl_pdIPN4rime20LazyTableTranslationENS0_13sp_ms_deleterIS3_EEEE@Base 0.9.8
 _ZTIN5boost6detail18sp_counted_impl_pdIPN4rime22UserDictEntryCollectorENS0_13sp_ms_deleterIS3_EEEE@Base 0.9.8
 _ZTIN5boost6detail18sp_counted_impl_pdIPN4rime24ReverseLookupTranslationENS0_13sp_ms_deleterIS3_EEEE@Base 0.9.8
 _ZTIN5boost6detail18sp_counted_impl_pdIPN4rime4MenuENS0_13sp_ms_deleterIS3_EEEE@Base 0.9.8
 _ZTIN5boost6detail18sp_counted_impl_pdIPN4rime5PrismENS0_13sp_ms_deleterIS3_EEEE@Base 0.9.8
 _ZTIN5boost6detail18sp_counted_impl_pdIPN4rime5TableENS0_13sp_ms_deleterIS3_EEEE@Base 0.9.8
 _ZTIN5boost6detail18sp_counted_impl_pdIPN4rime6PhraseENS0_13sp_ms_deleterIS3_EEEE@Base 0.9.8
 _ZTIN5boost6detail18sp_counted_impl_pdIPN4rime6TreeDbENS0_13sp_ms_deleterIS3_EEEE@Base 0.9.8
 _ZTIN5boost6detail18sp_counted_impl_pdIPN4rime6UserDbENS0_13sp_ms_deleterIS3_EEEE@Base 0.9.8
 _ZTIN5boost6detail18sp_counted_impl_pdIPN4rime7SessionENS0_13sp_ms_deleterIS3_EEEE@Base 0.9.8
 _ZTIN5boost6detail18sp_counted_impl_pdIPN4rime8SentenceENS0_13sp_ms_deleterIS3_EEEE@Base 0.9.8
 _ZTIN5boost6detail18sp_counted_impl_pdIPN4rime9ConfigMapENS0_13sp_ms_deleterIS3_EEEE@Base 0.9.8
 _ZTIN5boost6detail18sp_counted_impl_pdIPN4rime9DictEntryENS0_13sp_ms_deleterIS3_EEEE@Base 0.9.8
 _ZTIN5boost6detail18sp_counted_impl_pdIPNS_2io18basic_altstringbufIcSt11char_traitsIcESaIcEEENS2_22basic_oaltstringstreamIcS5_S6_E5No_OpEEE@Base 0.9.8
 _ZTIN5boost6system12system_errorE@Base 0.9.8
 _ZTIN5boost6system14error_categoryE@Base 0.9.8
 _ZTIN5boost7signals6detail20group_bridge_compareISt4lessIiEiEE@Base 0.9.8
 _ZTIN5boost8functionIFvPN4rime7ContextEEEE@Base 0.9.8
 _ZTIN5boost8functionIFvPN4rime7ContextERKNS1_8KeyEventEEEE@Base 0.9.8
 _ZTIN5boost8functionIFvPN4rime7ContextERKSsEEE@Base 0.9.8
 _ZTIN5boost8functionIFvRKSsEEE@Base 0.9.8
 _ZTIN5boost8functionIFvRKSsS2_EEE@Base 0.9.8
 _ZTIN5boost9algorithm6detail13token_finderFINS1_10is_any_ofFIcEEEE@Base 0.9.8
 _ZTIN5boost9algorithm6detail13token_finderFINS1_14is_classifiedFEEE@Base 0.9.8
 _ZTIN5boost9algorithm6detail13token_finderFINS1_14is_from_rangeFIcEEEE@Base 0.9.8
 _ZTIN5boost9exceptionE@Base 0.9.8
 _ZTIN5boost9function1IvPN4rime7ContextEEE@Base 0.9.8
 _ZTIN5boost9function1IvRKSsEE@Base 0.9.8
 _ZTIN5boost9function2IvPN4rime7ContextERKNS1_8KeyEventEEE@Base 0.9.8
 _ZTIN5boost9function2IvPN4rime7ContextERKSsEE@Base 0.9.8
 _ZTIN5boost9function2IvRKSsS2_EE@Base 0.9.8
 _ZTIN5boost9gregorian16bad_day_of_monthE@Base 0.9.8
 _ZTIN5boost9gregorian8bad_yearE@Base 0.9.8
 _ZTIN5boost9gregorian9bad_monthE@Base 0.9.8
 _ZTISs@Base 0.9.8
 _ZTISt12_Vector_baseIN4rime7SegmentESaIS1_EE@Base 0.9.8
 _ZTISt14unary_functionIPN4rime7ContextEvE@Base 0.9.8
 _ZTISt14unary_functionIRKSsvE@Base 0.9.8
 _ZTISt15binary_functionIPN4rime7ContextERKNS0_8KeyEventEvE@Base 0.9.8
 _ZTISt15binary_functionIPN4rime7ContextERKSsvE@Base 0.9.8
 _ZTISt15binary_functionIRKSsS1_vE@Base 0.9.8
 _ZTISt6vectorIN4rime7SegmentESaIS1_EE@Base 0.9.8
 _ZTIZN12kyotocabinet6HashDB18scan_parallel_implEPNS_2DB7VisitorEmPNS_7BasicDB15ProgressCheckerEE10ThreadImpl@Base 0.9.8
 _ZTIZN12kyotocabinet7BasicDB13dump_snapshotEPSoPNS0_15ProgressCheckerEE11VisitorImpl@Base 0.9.8
 _ZTIZN12kyotocabinet7BasicDB16increment_doubleEPKcmddE11VisitorImpl@Base 0.9.8
 _ZTIZN12kyotocabinet7BasicDB3addEPKcmS2_mE11VisitorImpl@Base 0.9.8
 _ZTIZN12kyotocabinet7BasicDB3casEPKcmS2_mS2_mE11VisitorImpl@Base 0.9.8
 _ZTIZN12kyotocabinet7BasicDB3getEPKcmPcmE11VisitorImpl@Base 0.9.8
 _ZTIZN12kyotocabinet7BasicDB3getEPKcmPmE11VisitorImpl@Base 0.9.8
 _ZTIZN12kyotocabinet7BasicDB3getERKSsPSsE11VisitorImpl@Base 0.9.8
 _ZTIZN12kyotocabinet7BasicDB3setEPKcmS2_mE11VisitorImpl@Base 0.9.8
 _ZTIZN12kyotocabinet7BasicDB5checkEPKcmE11VisitorImpl@Base 0.9.8
 _ZTIZN12kyotocabinet7BasicDB6Cursor3getEPSsS2_bE11VisitorImpl@Base 0.9.8
 _ZTIZN12kyotocabinet7BasicDB6Cursor3getEPmPPKcS2_bE11VisitorImpl@Base 0.9.8
 _ZTIZN12kyotocabinet7BasicDB6Cursor6removeEvE11VisitorImpl@Base 0.9.8
 _ZTIZN12kyotocabinet7BasicDB6Cursor7get_keyEPmbE11VisitorImpl@Base 0.9.8
 _ZTIZN12kyotocabinet7BasicDB6Cursor9get_valueEPmbE11VisitorImpl@Base 0.9.8
 _ZTIZN12kyotocabinet7BasicDB6Cursor9set_valueEPKcmbE11VisitorImpl@Base 0.9.8
 _ZTIZN12kyotocabinet7BasicDB6appendEPKcmS2_mE11VisitorImpl@Base 0.9.8
 _ZTIZN12kyotocabinet7BasicDB6removeEPKcmE11VisitorImpl@Base 0.9.8
 _ZTIZN12kyotocabinet7BasicDB7replaceEPKcmS2_mE11VisitorImpl@Base 0.9.8
 _ZTIZN12kyotocabinet7BasicDB9incrementEPKcmllE11VisitorImpl@Base 0.9.8
 _ZTIZN12kyotocabinet7PlantDBINS_6HashDBELh49EE11synchronizeEbPNS_7BasicDB13FileProcessorEPNS3_15ProgressCheckerEE7Wrapper@Base 0.9.8
 _ZTIZN12kyotocabinet7PlantDBINS_6HashDBELh49EE12recalc_countEvE11VisitorImpl@Base 0.9.8
 _ZTIZN12kyotocabinet7PlantDBINS_6HashDBELh49EE13scan_parallelEPNS_2DB7VisitorEmPNS_7BasicDB15ProgressCheckerEE11VisitorImpl@Base 0.9.8
 _ZTIZN12kyotocabinet7PlantDBINS_6HashDBELh49EE13scan_parallelEPNS_2DB7VisitorEmPNS_7BasicDB15ProgressCheckerEE19ProgressCheckerImpl@Base 0.9.8
 _ZTIZN12kyotocabinet7PlantDBINS_6HashDBELh49EE14load_leaf_nodeElbE11VisitorImpl@Base 0.9.8
 _ZTIZN12kyotocabinet7PlantDBINS_6HashDBELh49EE15load_inner_nodeElE11VisitorImpl@Base 0.9.8
 _ZTSN12kyotocabinet2DB6CursorE@Base 0.9.8
 _ZTSN12kyotocabinet2DB7VisitorE@Base 0.9.8
 _ZTSN12kyotocabinet2DBE@Base 0.9.8
 _ZTSN12kyotocabinet6HashDB6CursorE@Base 0.9.8
 _ZTSN12kyotocabinet6HashDB8RepeaterE@Base 0.9.8
 _ZTSN12kyotocabinet6HashDBE@Base 0.9.8
 _ZTSN12kyotocabinet7BasicDB13FileProcessorE@Base 0.9.8
 _ZTSN12kyotocabinet7BasicDB15ProgressCheckerE@Base 0.9.8
 _ZTSN12kyotocabinet7BasicDB6CursorE@Base 0.9.8
 _ZTSN12kyotocabinet7BasicDBE@Base 0.9.8
 _ZTSN12kyotocabinet7PlantDBINS_6HashDBELh49EE6CursorE@Base 0.9.8
 _ZTSN12kyotocabinet7PlantDBINS_6HashDBELh49EEE@Base 0.9.8
 _ZTSN4YAML13InvalidScalarE@Base 0.9.8
 _ZTSN4YAML14BadDereferenceE@Base 0.9.8
 _ZTSN4YAML23RepresentationExceptionE@Base 0.9.8
 _ZTSN4YAML9ExceptionE@Base 0.9.8
 _ZTSN4rime10ConfigItemE@Base 0.9.8
 _ZTSN4rime10ConfigListE@Base 0.9.8
 _ZTSN4rime10DerivationE@Base 0.9.8
 _ZTSN4rime10DictionaryE@Base 0.9.8
 _ZTSN4rime10MappedFileE@Base 0.9.8
 _ZTSN4rime10PunctuatorE@Base 0.9.8
 _ZTSN4rime10RecognizerE@Base 0.9.8
 _ZTSN4rime10SimplifierE@Base 0.9.8
 _ZTSN4rime10TranslatorE@Base 0.9.8
 _ZTSN4rime10UniquifierE@Base 0.9.8
 _ZTSN4rime11CalculationE@Base 0.9.8
 _ZTSN4rime11CompositionE@Base 0.9.8
 _ZTSN4rime11ConfigValueE@Base 0.9.8
 _ZTSN4rime11TranslationE@Base 0.9.8
 _ZTSN4rime12AbbreviationE@Base 0.9.8
 _ZTSN4rime12AbcSegmentorE@Base 0.9.8
 _ZTSN4rime12CleanUpTrashE@Base 0.9.8
 _ZTSN4rime12SchemaUpdateE@Base 0.9.8
 _ZTSN4rime12SegmentationE@Base 0.9.8
 _ZTSN4rime12UniqueFilterE@Base 0.9.8
 _ZTSN4rime12UserDictSyncE@Base 0.9.8
 _ZTSN4rime13AsciiComposerE@Base 0.9.8
 _ZTSN4rime13CharsetFilterE@Base 0.9.8
 _ZTSN4rime13ChordComposerE@Base 0.9.8
 _ZTSN4rime13ComponentBaseE@Base 0.9.8
 _ZTSN4rime13ConfigItemRefE@Base 0.9.8
 _ZTSN4rime13ExpressEditorE@Base 0.9.8
 _ZTSN4rime13FluencyEditorE@Base 0.9.8
 _ZTSN4rime14AsciiSegmentorE@Base 0.9.8
 _ZTSN4rime14ConcreteEngineE@Base 0.9.8
 _ZTSN4rime14CustomSettingsE@Base 0.9.8
 _ZTSN4rime14DeploymentTaskE@Base 0.9.8
 _ZTSN4rime14EchoTranslatorE@Base 0.9.8
 _ZTSN4rime14PunctSegmentorE@Base 0.9.8
 _ZTSN4rime14R10nTranslatorE@Base 0.9.8
 _ZTSN4rime14SwitcherOptionE@Base 0.9.8
 _ZTSN4rime14TransformationE@Base 0.9.8
 _ZTSN4rime14UserDictionaryE@Base 0.9.8
 _ZTSN4rime15ConfigComponentE@Base 0.9.8
 _ZTSN4rime15EchoTranslationE@Base 0.9.8
 _ZTSN4rime15FifoTranslationE@Base 0.9.8
 _ZTSN4rime15PunctTranslatorE@Base 0.9.8
 _ZTSN4rime15R10nTranslationE@Base 0.9.8
 _ZTSN4rime15ShadowCandidateE@Base 0.9.8
 _ZTSN4rime15SimpleCandidateE@Base 0.9.8
 _ZTSN4rime15SyllabificationE@Base 0.9.8
 _ZTSN4rime15TableTranslatorE@Base 0.9.8
 _ZTSN4rime15TransliterationE@Base 0.9.8
 _ZTSN4rime15WorkspaceUpdateE@Base 0.9.8
 _ZTSN4rime16CleanOldLogFilesE@Base 0.9.8
 _ZTSN4rime16ConfigFileUpdateE@Base 0.9.8
 _ZTSN4rime16SwitcherSettingsE@Base 0.9.8
 _ZTSN4rime16TableTranslationE@Base 0.9.8
 _ZTSN4rime17BackupConfigFilesE@Base 0.9.8
 _ZTSN4rime17FallbackSegmentorE@Base 0.9.8
 _ZTSN4rime17TranslatorOptionsE@Base 0.9.8
 _ZTSN4rime17TrivialTranslatorE@Base 0.9.8
 _ZTSN4rime17UniqueTranslationE@Base 0.9.8
 _ZTSN4rime17UserDictUpgrationE@Base 0.9.8
 _ZTSN4rime18InstallationUpdateE@Base 0.9.8
 _ZTSN4rime18PrebuildAllSchemasE@Base 0.9.8
 _ZTSN4rime19DictionaryComponentE@Base 0.9.8
 _ZTSN4rime19SentenceTranslationE@Base 0.9.8
 _ZTSN4rime19UniquifiedCandidateE@Base 0.9.8
 _ZTSN4rime20LazyTableTranslationE@Base 0.9.8
 _ZTSN4rime23ReverseLookupTranslatorE@Base 0.9.8
 _ZTSN4rime23UserDictionaryComponentE@Base 0.9.8
 _ZTSN4rime24ReverseLookupTranslationE@Base 0.9.8
 _ZTSN4rime30SymlinkingPrebuiltDictionariesE@Base 0.9.8
 _ZTSN4rime32ReverseLookupDictionaryComponentE@Base 0.9.8
 _ZTSN4rime5ClassINS_10DictionaryEPNS_6SchemaEE9ComponentE@Base 0.9.8
 _ZTSN4rime5ClassINS_10DictionaryEPNS_6SchemaEEE@Base 0.9.8
 _ZTSN4rime5ClassINS_10TranslatorEPNS_6EngineEE9ComponentE@Base 0.9.8
 _ZTSN4rime5ClassINS_10TranslatorEPNS_6EngineEEE@Base 0.9.8
 _ZTSN4rime5ClassINS_14UserDictionaryEPNS_6SchemaEE9ComponentE@Base 0.9.8
 _ZTSN4rime5ClassINS_14UserDictionaryEPNS_6SchemaEEE@Base 0.9.8
 _ZTSN4rime5ClassINS_23ReverseLookupDictionaryEPNS_6SchemaEE9ComponentE@Base 0.9.8
 _ZTSN4rime5ClassINS_6ConfigERKSsE9ComponentE@Base 0.9.8
 _ZTSN4rime5ClassINS_6ConfigERKSsEE@Base 0.9.8
 _ZTSN4rime5ClassINS_6FilterEPNS_6EngineEE9ComponentE@Base 0.9.8
 _ZTSN4rime5ClassINS_6FilterEPNS_6EngineEEE@Base 0.9.8
 _ZTSN4rime5ClassINS_9ProcessorEPNS_6EngineEE9ComponentE@Base 0.9.8
 _ZTSN4rime5ClassINS_9ProcessorEPNS_6EngineEEE@Base 0.9.8
 _ZTSN4rime5ClassINS_9SegmentorEPNS_6EngineEE9ComponentE@Base 0.9.8
 _ZTSN4rime5ClassINS_9SegmentorEPNS_6EngineEEE@Base 0.9.8
 _ZTSN4rime5PrismE@Base 0.9.8
 _ZTSN4rime5TableE@Base 0.9.8
 _ZTSN4rime6ConfigE@Base 0.9.8
 _ZTSN4rime6EditorE@Base 0.9.8
 _ZTSN4rime6EngineE@Base 0.9.8
 _ZTSN4rime6FilterE@Base 0.9.8
 _ZTSN4rime6MemoryE@Base 0.9.8
 _ZTSN4rime6PhraseE@Base 0.9.8
 _ZTSN4rime6TreeDbE@Base 0.9.8
 _ZTSN4rime6UserDbE@Base 0.9.8
 _ZTSN4rime7ErasionE@Base 0.9.8
 _ZTSN4rime7MatcherE@Base 0.9.8
 _ZTSN4rime7SpellerE@Base 0.9.8
 _ZTSN4rime8LanguageE@Base 0.9.8
 _ZTSN4rime8SelectorE@Base 0.9.8
 _ZTSN4rime8SentenceE@Base 0.9.8
 _ZTSN4rime8SwitcherE@Base 0.9.8
 _ZTSN4rime9CandidateE@Base 0.9.8
 _ZTSN4rime9ComponentINS_10PunctuatorEEE@Base 0.9.8
 _ZTSN4rime9ComponentINS_10RecognizerEEE@Base 0.9.8
 _ZTSN4rime9ComponentINS_10SimplifierEEE@Base 0.9.8
 _ZTSN4rime9ComponentINS_10UniquifierEEE@Base 0.9.8
 _ZTSN4rime9ComponentINS_12AbcSegmentorEEE@Base 0.9.8
 _ZTSN4rime9ComponentINS_13AsciiComposerEEE@Base 0.9.8
 _ZTSN4rime9ComponentINS_13ChordComposerEEE@Base 0.9.8
 _ZTSN4rime9ComponentINS_13ExpressEditorEEE@Base 0.9.8
 _ZTSN4rime9ComponentINS_13FluencyEditorEEE@Base 0.9.8
 _ZTSN4rime9ComponentINS_14AsciiSegmentorEEE@Base 0.9.8
 _ZTSN4rime9ComponentINS_14EchoTranslatorEEE@Base 0.9.8
 _ZTSN4rime9ComponentINS_14PunctSegmentorEEE@Base 0.9.8
 _ZTSN4rime9ComponentINS_14R10nTranslatorEEE@Base 0.9.8
 _ZTSN4rime9ComponentINS_15PunctTranslatorEEE@Base 0.9.8
 _ZTSN4rime9ComponentINS_15TableTranslatorEEE@Base 0.9.8
 _ZTSN4rime9ComponentINS_17FallbackSegmentorEEE@Base 0.9.8
 _ZTSN4rime9ComponentINS_23ReverseLookupTranslatorEEE@Base 0.9.8
 _ZTSN4rime9ComponentINS_7MatcherEEE@Base 0.9.8
 _ZTSN4rime9ComponentINS_7SpellerEEE@Base 0.9.8
 _ZTSN4rime9ComponentINS_8SelectorEEE@Base 0.9.8
 _ZTSN4rime9ComponentINS_9KeyBinderEEE@Base 0.9.8
 _ZTSN4rime9ComponentINS_9NavigatorEEE@Base 0.9.8
 _ZTSN4rime9ConfigMapE@Base 0.9.8
 _ZTSN4rime9KeyBinderE@Base 0.9.8
 _ZTSN4rime9MessengerE@Base 0.9.8
 _ZTSN4rime9NavigatorE@Base 0.9.8
 _ZTSN4rime9ProcessorE@Base 0.9.8
 _ZTSN4rime9SegmentorE@Base 0.9.8
 _ZTSN5Darts15DoubleArrayImplIvvivEE@Base 0.9.8
 _ZTSN5Darts7Details9ExceptionE@Base 0.9.8
 _ZTSN5boost10filesystem16filesystem_errorE@Base 0.9.8
 _ZTSN5boost10last_valueIvEE@Base 0.9.8
 _ZTSN5boost10lock_errorE@Base 0.9.8
 _ZTSN5boost12bad_weak_ptrE@Base 0.9.8
 _ZTSN5boost12interprocess22interprocess_exceptionE@Base 0.9.8
 _ZTSN5boost12noncopyable_11noncopyableE@Base 0.9.8
 _ZTSN5boost13function_baseE@Base 0.9.8
 _ZTSN5boost16bad_lexical_castE@Base 0.9.8
 _ZTSN5boost16base_from_memberINS_10shared_ptrINS_2io18basic_altstringbufIcSt11char_traitsIcESaIcEEEEELi0EEE@Base 0.9.8
 _ZTSN5boost16exception_detail10bad_alloc_E@Base 0.9.8
 _ZTSN5boost16exception_detail10clone_baseE@Base 0.9.8
 _ZTSN5boost16exception_detail10clone_implINS0_10bad_alloc_EEE@Base 0.9.8
 _ZTSN5boost16exception_detail10clone_implINS0_14bad_exception_EEE@Base 0.9.8
 _ZTSN5boost16exception_detail10clone_implINS0_19error_info_injectorINS_10lock_errorEEEEE@Base 0.9.8
 _ZTSN5boost16exception_detail10clone_implINS0_19error_info_injectorINS_12bad_weak_ptrEEEEE@Base 0.9.8
 _ZTSN5boost16exception_detail10clone_implINS0_19error_info_injectorINS_16bad_lexical_castEEEEE@Base 0.9.8
 _ZTSN5boost16exception_detail10clone_implINS0_19error_info_injectorINS_17bad_function_callEEEEE@Base 0.9.8
 _ZTSN5boost16exception_detail10clone_implINS0_19error_info_injectorINS_21thread_resource_errorEEEEE@Base 0.9.8
 _ZTSN5boost16exception_detail10clone_implINS0_19error_info_injectorINS_2io12too_few_argsEEEEE@Base 0.9.8
 _ZTSN5boost16exception_detail10clone_implINS0_19error_info_injectorINS_2io13too_many_argsEEEEE@Base 0.9.8
 _ZTSN5boost16exception_detail10clone_implINS0_19error_info_injectorINS_2io17bad_format_stringEEEEE@Base 0.9.8
 _ZTSN5boost16exception_detail10clone_implINS0_19error_info_injectorINS_9gregorian16bad_day_of_monthEEEEE@Base 0.9.8
 _ZTSN5boost16exception_detail10clone_implINS0_19error_info_injectorINS_9gregorian8bad_yearEEEEE@Base 0.9.8
 _ZTSN5boost16exception_detail10clone_implINS0_19error_info_injectorINS_9gregorian9bad_monthEEEEE@Base 0.9.8
 _ZTSN5boost16exception_detail10clone_implINS0_19error_info_injectorISt11logic_errorEEEE@Base 0.9.8
 _ZTSN5boost16exception_detail10clone_implINS0_19error_info_injectorISt13runtime_errorEEEE@Base 0.9.8
 _ZTSN5boost16exception_detail14bad_exception_E@Base 0.9.8
 _ZTSN5boost16exception_detail19error_info_injectorINS_10lock_errorEEE@Base 0.9.8
 _ZTSN5boost16exception_detail19error_info_injectorINS_12bad_weak_ptrEEE@Base 0.9.8
 _ZTSN5boost16exception_detail19error_info_injectorINS_16bad_lexical_castEEE@Base 0.9.8
 _ZTSN5boost16exception_detail19error_info_injectorINS_17bad_function_callEEE@Base 0.9.8
 _ZTSN5boost16exception_detail19error_info_injectorINS_21thread_resource_errorEEE@Base 0.9.8
 _ZTSN5boost16exception_detail19error_info_injectorINS_2io12too_few_argsEEE@Base 0.9.8
 _ZTSN5boost16exception_detail19error_info_injectorINS_2io13too_many_argsEEE@Base 0.9.8
 _ZTSN5boost16exception_detail19error_info_injectorINS_2io17bad_format_stringEEE@Base 0.9.8
 _ZTSN5boost16exception_detail19error_info_injectorINS_9gregorian16bad_day_of_monthEEE@Base 0.9.8
 _ZTSN5boost16exception_detail19error_info_injectorINS_9gregorian8bad_yearEEE@Base 0.9.8
 _ZTSN5boost16exception_detail19error_info_injectorINS_9gregorian9bad_monthEEE@Base 0.9.8
 _ZTSN5boost16exception_detail19error_info_injectorISt11logic_errorEE@Base 0.9.8
 _ZTSN5boost16exception_detail19error_info_injectorISt13runtime_errorEE@Base 0.9.8
 _ZTSN5boost16thread_exceptionE@Base 0.9.8
 _ZTSN5boost17bad_function_callE@Base 0.9.8
 _ZTSN5boost21thread_resource_errorE@Base 0.9.8
 _ZTSN5boost23enable_shared_from_thisIN4rime15R10nTranslationEEE@Base 0.9.8
 _ZTSN5boost2io12format_errorE@Base 0.9.8
 _ZTSN5boost2io12too_few_argsE@Base 0.9.8
 _ZTSN5boost2io13too_many_argsE@Base 0.9.8
 _ZTSN5boost2io17bad_format_stringE@Base 0.9.8
 _ZTSN5boost2io18basic_altstringbufIcSt11char_traitsIcESaIcEEE@Base 0.9.8
 _ZTSN5boost2io22basic_oaltstringstreamIcSt11char_traitsIcESaIcEE5No_OpE@Base 0.9.8
 _ZTSN5boost2io22basic_oaltstringstreamIcSt11char_traitsIcESaIcEEE@Base 0.9.8
 _ZTSN5boost3_bi6bind_tIvNS_4_mfi3mf1IvN4rime13AsciiComposerEPNS4_7ContextEEENS0_5list2INS0_5valueIPS5_EENS_3argILi1EEEEEEE@Base 0.9.8
 _ZTSN5boost3_bi6bind_tIvNS_4_mfi3mf1IvN4rime14ConcreteEngineEPNS4_7ContextEEENS0_5list2INS0_5valueIPS5_EENS_3argILi1EEEEEEE@Base 0.9.8
 _ZTSN5boost3_bi6bind_tIvNS_4_mfi3mf1IvN4rime6MemoryEPNS4_7ContextEEENS0_5list2INS0_5valueIPS5_EENS_3argILi1EEEEEEE@Base 0.9.8
 _ZTSN5boost3_bi6bind_tIvNS_4_mfi3mf1IvN4rime7SessionERKSsEENS0_5list2INS0_5valueIPS5_EENS_3argILi1EEEEEEE@Base 0.9.8
 _ZTSN5boost3_bi6bind_tIvNS_4_mfi3mf1IvN4rime8SwitcherEPNS4_7ContextEEENS0_5list2INS0_5valueIPS5_EENS_3argILi1EEEEEEE@Base 0.9.8
 _ZTSN5boost3_bi6bind_tIvNS_4_mfi3mf2IvN4rime14ConcreteEngineEPNS4_7ContextERKSsEENS0_5list3INS0_5valueIPS5_EENS_3argILi1EEENSF_ILi2EEEEEEE@Base 0.9.8
 _ZTSN5boost3_bi6bind_tIvNS_4_mfi3mf2IvN4rime14ConcreteEngineEPSt6vectorINS_10shared_ptrINS4_9CandidateEEESaIS9_EESC_EENS0_5list3INS0_5valueIPS5_EENS_3argILi1EEENSI_ILi2EEEEEEE@Base 0.9.8
 _ZTSN5boost3_bi6bind_tIvNS_4_mfi3mf2IvN4rime6MemoryEPNS4_7ContextERKNS4_8KeyEventEEENS0_5list3INS0_5valueIPS5_EENS_3argILi1EEENSG_ILi2EEEEEEE@Base 0.9.8
 _ZTSN5boost3_bi6bind_tIvNS_4_mfi3mf3IvN4rime7ServiceEmRKSsS7_EENS0_5list4INS0_5valueIPS5_EENSA_IiEENS_3argILi1EEENSE_ILi2EEEEEEE@Base 0.9.8
 _ZTSN5boost3_bi6bind_tIvNS_4_mfi3mf3IvN4rime7ServiceEmRKSsS7_EENS0_5list4INS0_5valueIPS5_EENSA_ImEENS_3argILi1EEENSE_ILi2EEEEEEE@Base 0.9.8
 _ZTSN5boost3_bi6bind_tIvPFvPvmPKcS4_ENS0_5list4INS0_5valueIS2_EENS_3argILi1EEENSA_ILi2EEENSA_ILi3EEEEEEE@Base 0.9.8
 _ZTSN5boost3any11placeholderE@Base 0.9.8
 _ZTSN5boost3any6holderINS_10last_valueIvEEEE@Base 0.9.8
 _ZTSN5boost3any6holderINS_8functionIFvPN4rime7ContextEEEEEE@Base 0.9.8
 _ZTSN5boost3any6holderINS_8functionIFvPN4rime7ContextERKNS3_8KeyEventEEEEEE@Base 0.9.8
 _ZTSN5boost3any6holderINS_8functionIFvPN4rime7ContextERKSsEEEEE@Base 0.9.8
 _ZTSN5boost3any6holderINS_8functionIFvRKSsEEEEE@Base 0.9.8
 _ZTSN5boost3any6holderINS_8functionIFvRKSsS4_EEEEE@Base 0.9.8
 _ZTSN5boost6detail11thread_dataINS_3_bi6bind_tIbNS_4_mfi3mf0IbN4rime8DeployerEEENS2_5list1INS2_5valueIPS7_EEEEEEEE@Base 0.9.8
 _ZTSN5boost6detail13sp_ms_deleterIN4rime10ConfigDataEEE@Base 0.9.8
 _ZTSN5boost6detail13sp_ms_deleterIN4rime10ConfigListEEE@Base 0.9.8
 _ZTSN5boost6detail13sp_ms_deleterIN4rime10VocabularyEEE@Base 0.9.8
 _ZTSN5boost6detail13sp_ms_deleterIN4rime11ConfigValueEEE@Base 0.9.8
 _ZTSN5boost6detail13sp_ms_deleterIN4rime12CleanUpTrashEEE@Base 0.9.8
 _ZTSN5boost6detail13sp_ms_deleterIN4rime12UniqueFilterEEE@Base 0.9.8
 _ZTSN5boost6detail13sp_ms_deleterIN4rime12UserDictSyncEEE@Base 0.9.8
 _ZTSN5boost6detail13sp_ms_deleterIN4rime13CharsetFilterEEE@Base 0.9.8
 _ZTSN5boost6detail13sp_ms_deleterIN4rime13DictEntryListEEE@Base 0.9.8
 _ZTSN5boost6detail13sp_ms_deleterIN4rime14SwitcherOptionEEE@Base 0.9.8
 _ZTSN5boost6detail13sp_ms_deleterIN4rime14TreeDbAccessorEEE@Base 0.9.8
 _ZTSN5boost6detail13sp_ms_deleterIN4rime15EchoTranslationEEE@Base 0.9.8
 _ZTSN5boost6detail13sp_ms_deleterIN4rime15FifoTranslationEEE@Base 0.9.8
 _ZTSN5boost6detail13sp_ms_deleterIN4rime15R10nTranslationEEE@Base 0.9.8
 _ZTSN5boost6detail13sp_ms_deleterIN4rime15ShadowCandidateEEE@Base 0.9.8
 _ZTSN5boost6detail13sp_ms_deleterIN4rime15SimpleCandidateEEE@Base 0.9.8
 _ZTSN5boost6detail13sp_ms_deleterIN4rime15WorkspaceUpdateEEE@Base 0.9.8
 _ZTSN5boost6detail13sp_ms_deleterIN4rime16TableTranslationEEE@Base 0.9.8
 _ZTSN5boost6detail13sp_ms_deleterIN4rime17BackupConfigFilesEEE@Base 0.9.8
 _ZTSN5boost6detail13sp_ms_deleterIN4rime17UniqueTranslationEEE@Base 0.9.8
 _ZTSN5boost6detail13sp_ms_deleterIN4rime17UserDictUpgrationEEE@Base 0.9.8
 _ZTSN5boost6detail13sp_ms_deleterIN4rime18DictEntryCollectorEEE@Base 0.9.8
 _ZTSN5boost6detail13sp_ms_deleterIN4rime18InstallationUpdateEEE@Base 0.9.8
 _ZTSN5boost6detail13sp_ms_deleterIN4rime19SentenceTranslationEEE@Base 0.9.8
 _ZTSN5boost6detail13sp_ms_deleterIN4rime19UniquifiedCandidateEEE@Base 0.9.8
 _ZTSN5boost6detail13sp_ms_deleterIN4rime20LazyTableTranslationEEE@Base 0.9.8
 _ZTSN5boost6detail13sp_ms_deleterIN4rime22UserDictEntryCollectorEEE@Base 0.9.8
 _ZTSN5boost6detail13sp_ms_deleterIN4rime24ReverseLookupTranslationEEE@Base 0.9.8
 _ZTSN5boost6detail13sp_ms_deleterIN4rime4MenuEEE@Base 0.9.8
 _ZTSN5boost6detail13sp_ms_deleterIN4rime5PrismEEE@Base 0.9.8
 _ZTSN5boost6detail13sp_ms_deleterIN4rime5TableEEE@Base 0.9.8
 _ZTSN5boost6detail13sp_ms_deleterIN4rime6PhraseEEE@Base 0.9.8
 _ZTSN5boost6detail13sp_ms_deleterIN4rime6TreeDbEEE@Base 0.9.8
 _ZTSN5boost6detail13sp_ms_deleterIN4rime6UserDbEEE@Base 0.9.8
 _ZTSN5boost6detail13sp_ms_deleterIN4rime7SessionEEE@Base 0.9.8
 _ZTSN5boost6detail13sp_ms_deleterIN4rime8SentenceEEE@Base 0.9.8
 _ZTSN5boost6detail13sp_ms_deleterIN4rime9ConfigMapEEE@Base 0.9.8
 _ZTSN5boost6detail13sp_ms_deleterIN4rime9DictEntryEEE@Base 0.9.8
 _ZTSN5boost6detail15sp_counted_baseE@Base 0.9.8
 _ZTSN5boost6detail17sp_counted_impl_pIN12kyotocabinet7PlantDBINS2_6HashDBELh49EEEEE@Base 0.9.8
 _ZTSN5boost6detail17sp_counted_impl_pIN4rime10TranslatorEEE@Base 0.9.8
 _ZTSN5boost6detail17sp_counted_impl_pIN4rime11CalculationEEE@Base 0.9.8
 _ZTSN5boost6detail17sp_counted_impl_pIN4rime15FifoTranslationEEE@Base 0.9.8
 _ZTSN5boost6detail17sp_counted_impl_pIN4rime6FilterEEE@Base 0.9.8
 _ZTSN5boost6detail17sp_counted_impl_pIN4rime9ProcessorEEE@Base 0.9.8
 _ZTSN5boost6detail17sp_counted_impl_pIN4rime9SegmentorEEE@Base 0.9.8
 _ZTSN5boost6detail17sp_counted_impl_pINS0_11thread_dataINS_3_bi6bind_tIbNS_4_mfi3mf0IbN4rime8DeployerEEENS3_5list1INS3_5valueIPS8_EEEEEEEEEE@Base 0.9.8
 _ZTSN5boost6detail17sp_counted_impl_pINS_10filesystem6detail11dir_itr_impEEE@Base 0.9.8
 _ZTSN5boost6detail17sp_counted_impl_pINS_16exception_detail10clone_implINS2_10bad_alloc_EEEEE@Base 0.9.8
 _ZTSN5boost6detail17sp_counted_impl_pINS_16exception_detail10clone_implINS2_14bad_exception_EEEEE@Base 0.9.8
 _ZTSN5boost6detail17sp_counted_impl_pINS_29regex_iterator_implementationIN9__gnu_cxx17__normal_iteratorIPKcSsEEcNS_12regex_traitsIcNS_16cpp_regex_traitsIcEEEEEEEE@Base 0.9.8
 _ZTSN5boost6detail17sp_counted_impl_pINS_6random23mersenne_twister_engineIjLm32ELm624ELm397ELm31ELj2567483615ELm11ELj4294967295ELm7ELj2636928640ELm15ELj4022730752ELm18ELj1812433253EEEEE@Base 0.9.8
 _ZTSN5boost6detail17sp_counted_impl_pINS_7signals6detail9slot_base6data_tEEE@Base 0.9.8
 _ZTSN5boost6detail18sp_counted_impl_pdIPN4rime10ConfigDataENS0_13sp_ms_deleterIS3_EEEE@Base 0.9.8
 _ZTSN5boost6detail18sp_counted_impl_pdIPN4rime10ConfigListENS0_13sp_ms_deleterIS3_EEEE@Base 0.9.8
 _ZTSN5boost6detail18sp_counted_impl_pdIPN4rime10VocabularyENS0_13sp_ms_deleterIS3_EEEE@Base 0.9.8
 _ZTSN5boost6detail18sp_counted_impl_pdIPN4rime11ConfigValueENS0_13sp_ms_deleterIS3_EEEE@Base 0.9.8
 _ZTSN5boost6detail18sp_counted_impl_pdIPN4rime12CleanUpTrashENS0_13sp_ms_deleterIS3_EEEE@Base 0.9.8
 _ZTSN5boost6detail18sp_counted_impl_pdIPN4rime12UniqueFilterENS0_13sp_ms_deleterIS3_EEEE@Base 0.9.8
 _ZTSN5boost6detail18sp_counted_impl_pdIPN4rime12UserDictSyncENS0_13sp_ms_deleterIS3_EEEE@Base 0.9.8
 _ZTSN5boost6detail18sp_counted_impl_pdIPN4rime13CharsetFilterENS0_13sp_ms_deleterIS3_EEEE@Base 0.9.8
 _ZTSN5boost6detail18sp_counted_impl_pdIPN4rime13DictEntryListENS0_13sp_ms_deleterIS3_EEEE@Base 0.9.8
 _ZTSN5boost6detail18sp_counted_impl_pdIPN4rime14SwitcherOptionENS0_13sp_ms_deleterIS3_EEEE@Base 0.9.8
 _ZTSN5boost6detail18sp_counted_impl_pdIPN4rime14TreeDbAccessorENS0_13sp_ms_deleterIS3_EEEE@Base 0.9.8
 _ZTSN5boost6detail18sp_counted_impl_pdIPN4rime15EchoTranslationENS0_13sp_ms_deleterIS3_EEEE@Base 0.9.8
 _ZTSN5boost6detail18sp_counted_impl_pdIPN4rime15FifoTranslationENS0_13sp_ms_deleterIS3_EEEE@Base 0.9.8
 _ZTSN5boost6detail18sp_counted_impl_pdIPN4rime15R10nTranslationENS0_13sp_ms_deleterIS3_EEEE@Base 0.9.8
 _ZTSN5boost6detail18sp_counted_impl_pdIPN4rime15ShadowCandidateENS0_13sp_ms_deleterIS3_EEEE@Base 0.9.8
 _ZTSN5boost6detail18sp_counted_impl_pdIPN4rime15SimpleCandidateENS0_13sp_ms_deleterIS3_EEEE@Base 0.9.8
 _ZTSN5boost6detail18sp_counted_impl_pdIPN4rime15WorkspaceUpdateENS0_13sp_ms_deleterIS3_EEEE@Base 0.9.8
 _ZTSN5boost6detail18sp_counted_impl_pdIPN4rime16TableTranslationENS0_13sp_ms_deleterIS3_EEEE@Base 0.9.8
 _ZTSN5boost6detail18sp_counted_impl_pdIPN4rime17BackupConfigFilesENS0_13sp_ms_deleterIS3_EEEE@Base 0.9.8
 _ZTSN5boost6detail18sp_counted_impl_pdIPN4rime17UniqueTranslationENS0_13sp_ms_deleterIS3_EEEE@Base 0.9.8
 _ZTSN5boost6detail18sp_counted_impl_pdIPN4rime17UserDictUpgrationENS0_13sp_ms_deleterIS3_EEEE@Base 0.9.8
 _ZTSN5boost6detail18sp_counted_impl_pdIPN4rime18DictEntryCollectorENS0_13sp_ms_deleterIS3_EEEE@Base 0.9.8
 _ZTSN5boost6detail18sp_counted_impl_pdIPN4rime18InstallationUpdateENS0_13sp_ms_deleterIS3_EEEE@Base 0.9.8
 _ZTSN5boost6detail18sp_counted_impl_pdIPN4rime19SentenceTranslationENS0_13sp_ms_deleterIS3_EEEE@Base 0.9.8
 _ZTSN5boost6detail18sp_counted_impl_pdIPN4rime19UniquifiedCandidateENS0_13sp_ms_deleterIS3_EEEE@Base 0.9.8
 _ZTSN5boost6detail18sp_counted_impl_pdIPN4rime20LazyTableTranslationENS0_13sp_ms_deleterIS3_EEEE@Base 0.9.8
 _ZTSN5boost6detail18sp_counted_impl_pdIPN4rime22UserDictEntryCollectorENS0_13sp_ms_deleterIS3_EEEE@Base 0.9.8
 _ZTSN5boost6detail18sp_counted_impl_pdIPN4rime24ReverseLookupTranslationENS0_13sp_ms_deleterIS3_EEEE@Base 0.9.8
 _ZTSN5boost6detail18sp_counted_impl_pdIPN4rime4MenuENS0_13sp_ms_deleterIS3_EEEE@Base 0.9.8
 _ZTSN5boost6detail18sp_counted_impl_pdIPN4rime5PrismENS0_13sp_ms_deleterIS3_EEEE@Base 0.9.8
 _ZTSN5boost6detail18sp_counted_impl_pdIPN4rime5TableENS0_13sp_ms_deleterIS3_EEEE@Base 0.9.8
 _ZTSN5boost6detail18sp_counted_impl_pdIPN4rime6PhraseENS0_13sp_ms_deleterIS3_EEEE@Base 0.9.8
 _ZTSN5boost6detail18sp_counted_impl_pdIPN4rime6TreeDbENS0_13sp_ms_deleterIS3_EEEE@Base 0.9.8
 _ZTSN5boost6detail18sp_counted_impl_pdIPN4rime6UserDbENS0_13sp_ms_deleterIS3_EEEE@Base 0.9.8
 _ZTSN5boost6detail18sp_counted_impl_pdIPN4rime7SessionENS0_13sp_ms_deleterIS3_EEEE@Base 0.9.8
 _ZTSN5boost6detail18sp_counted_impl_pdIPN4rime8SentenceENS0_13sp_ms_deleterIS3_EEEE@Base 0.9.8
 _ZTSN5boost6detail18sp_counted_impl_pdIPN4rime9ConfigMapENS0_13sp_ms_deleterIS3_EEEE@Base 0.9.8
 _ZTSN5boost6detail18sp_counted_impl_pdIPN4rime9DictEntryENS0_13sp_ms_deleterIS3_EEEE@Base 0.9.8
 _ZTSN5boost6detail18sp_counted_impl_pdIPNS_2io18basic_altstringbufIcSt11char_traitsIcESaIcEEENS2_22basic_oaltstringstreamIcS5_S6_E5No_OpEEE@Base 0.9.8
 _ZTSN5boost6system12system_errorE@Base 0.9.8
 _ZTSN5boost6system14error_categoryE@Base 0.9.8
 _ZTSN5boost7signals6detail20group_bridge_compareISt4lessIiEiEE@Base 0.9.8
 _ZTSN5boost8functionIFvPN4rime7ContextEEEE@Base 0.9.8
 _ZTSN5boost8functionIFvPN4rime7ContextERKNS1_8KeyEventEEEE@Base 0.9.8
 _ZTSN5boost8functionIFvPN4rime7ContextERKSsEEE@Base 0.9.8
 _ZTSN5boost8functionIFvRKSsEEE@Base 0.9.8
 _ZTSN5boost8functionIFvRKSsS2_EEE@Base 0.9.8
 _ZTSN5boost9algorithm6detail13token_finderFINS1_10is_any_ofFIcEEEE@Base 0.9.8
 _ZTSN5boost9algorithm6detail13token_finderFINS1_14is_classifiedFEEE@Base 0.9.8
 _ZTSN5boost9algorithm6detail13token_finderFINS1_14is_from_rangeFIcEEEE@Base 0.9.8
 _ZTSN5boost9exceptionE@Base 0.9.8
 _ZTSN5boost9function1IvPN4rime7ContextEEE@Base 0.9.8
 _ZTSN5boost9function1IvRKSsEE@Base 0.9.8
 _ZTSN5boost9function2IvPN4rime7ContextERKNS1_8KeyEventEEE@Base 0.9.8
 _ZTSN5boost9function2IvPN4rime7ContextERKSsEE@Base 0.9.8
 _ZTSN5boost9function2IvRKSsS2_EE@Base 0.9.8
 _ZTSN5boost9gregorian16bad_day_of_monthE@Base 0.9.8
 _ZTSN5boost9gregorian8bad_yearE@Base 0.9.8
 _ZTSN5boost9gregorian9bad_monthE@Base 0.9.8
 _ZTSSs@Base 0.9.8
 _ZTSSt12_Vector_baseIN4rime7SegmentESaIS1_EE@Base 0.9.8
 _ZTSSt14unary_functionIPN4rime7ContextEvE@Base 0.9.8
 _ZTSSt14unary_functionIRKSsvE@Base 0.9.8
 _ZTSSt15binary_functionIPN4rime7ContextERKNS0_8KeyEventEvE@Base 0.9.8
 _ZTSSt15binary_functionIPN4rime7ContextERKSsvE@Base 0.9.8
 _ZTSSt15binary_functionIRKSsS1_vE@Base 0.9.8
 _ZTSSt6vectorIN4rime7SegmentESaIS1_EE@Base 0.9.8
 _ZTSZN12kyotocabinet6HashDB18scan_parallel_implEPNS_2DB7VisitorEmPNS_7BasicDB15ProgressCheckerEE10ThreadImpl@Base 0.9.8
 _ZTSZN12kyotocabinet7BasicDB13dump_snapshotEPSoPNS0_15ProgressCheckerEE11VisitorImpl@Base 0.9.8
 _ZTSZN12kyotocabinet7BasicDB16increment_doubleEPKcmddE11VisitorImpl@Base 0.9.8
 _ZTSZN12kyotocabinet7BasicDB3addEPKcmS2_mE11VisitorImpl@Base 0.9.8
 _ZTSZN12kyotocabinet7BasicDB3casEPKcmS2_mS2_mE11VisitorImpl@Base 0.9.8
 _ZTSZN12kyotocabinet7BasicDB3getEPKcmPcmE11VisitorImpl@Base 0.9.8
 _ZTSZN12kyotocabinet7BasicDB3getEPKcmPmE11VisitorImpl@Base 0.9.8
 _ZTSZN12kyotocabinet7BasicDB3getERKSsPSsE11VisitorImpl@Base 0.9.8
 _ZTSZN12kyotocabinet7BasicDB3setEPKcmS2_mE11VisitorImpl@Base 0.9.8
 _ZTSZN12kyotocabinet7BasicDB5checkEPKcmE11VisitorImpl@Base 0.9.8
 _ZTSZN12kyotocabinet7BasicDB6Cursor3getEPSsS2_bE11VisitorImpl@Base 0.9.8
 _ZTSZN12kyotocabinet7BasicDB6Cursor3getEPmPPKcS2_bE11VisitorImpl@Base 0.9.8
 _ZTSZN12kyotocabinet7BasicDB6Cursor6removeEvE11VisitorImpl@Base 0.9.8
 _ZTSZN12kyotocabinet7BasicDB6Cursor7get_keyEPmbE11VisitorImpl@Base 0.9.8
 _ZTSZN12kyotocabinet7BasicDB6Cursor9get_valueEPmbE11VisitorImpl@Base 0.9.8
 _ZTSZN12kyotocabinet7BasicDB6Cursor9set_valueEPKcmbE11VisitorImpl@Base 0.9.8
 _ZTSZN12kyotocabinet7BasicDB6appendEPKcmS2_mE11VisitorImpl@Base 0.9.8
 _ZTSZN12kyotocabinet7BasicDB6removeEPKcmE11VisitorImpl@Base 0.9.8
 _ZTSZN12kyotocabinet7BasicDB7replaceEPKcmS2_mE11VisitorImpl@Base 0.9.8
 _ZTSZN12kyotocabinet7BasicDB9incrementEPKcmllE11VisitorImpl@Base 0.9.8
 _ZTSZN12kyotocabinet7PlantDBINS_6HashDBELh49EE11synchronizeEbPNS_7BasicDB13FileProcessorEPNS3_15ProgressCheckerEE7Wrapper@Base 0.9.8
 _ZTSZN12kyotocabinet7PlantDBINS_6HashDBELh49EE12recalc_countEvE11VisitorImpl@Base 0.9.8
 _ZTSZN12kyotocabinet7PlantDBINS_6HashDBELh49EE13scan_parallelEPNS_2DB7VisitorEmPNS_7BasicDB15ProgressCheckerEE11VisitorImpl@Base 0.9.8
 _ZTSZN12kyotocabinet7PlantDBINS_6HashDBELh49EE13scan_parallelEPNS_2DB7VisitorEmPNS_7BasicDB15ProgressCheckerEE19ProgressCheckerImpl@Base 0.9.8
 _ZTSZN12kyotocabinet7PlantDBINS_6HashDBELh49EE14load_leaf_nodeElbE11VisitorImpl@Base 0.9.8
 _ZTSZN12kyotocabinet7PlantDBINS_6HashDBELh49EE15load_inner_nodeElE11VisitorImpl@Base 0.9.8
 _ZTTN5boost16exception_detail10clone_implINS0_10bad_alloc_EEE@Base 0.9.8
 _ZTTN5boost16exception_detail10clone_implINS0_14bad_exception_EEE@Base 0.9.8
 _ZTTN5boost16exception_detail10clone_implINS0_19error_info_injectorINS_10lock_errorEEEEE@Base 0.9.8
 _ZTTN5boost16exception_detail10clone_implINS0_19error_info_injectorINS_12bad_weak_ptrEEEEE@Base 0.9.8
 _ZTTN5boost16exception_detail10clone_implINS0_19error_info_injectorINS_16bad_lexical_castEEEEE@Base 0.9.8
 _ZTTN5boost16exception_detail10clone_implINS0_19error_info_injectorINS_17bad_function_callEEEEE@Base 0.9.8
 _ZTTN5boost16exception_detail10clone_implINS0_19error_info_injectorINS_21thread_resource_errorEEEEE@Base 0.9.8
 _ZTTN5boost16exception_detail10clone_implINS0_19error_info_injectorINS_2io12too_few_argsEEEEE@Base 0.9.8
 _ZTTN5boost16exception_detail10clone_implINS0_19error_info_injectorINS_2io13too_many_argsEEEEE@Base 0.9.8
 _ZTTN5boost16exception_detail10clone_implINS0_19error_info_injectorINS_2io17bad_format_stringEEEEE@Base 0.9.8
 _ZTTN5boost16exception_detail10clone_implINS0_19error_info_injectorINS_9gregorian16bad_day_of_monthEEEEE@Base 0.9.8
 _ZTTN5boost16exception_detail10clone_implINS0_19error_info_injectorINS_9gregorian8bad_yearEEEEE@Base 0.9.8
 _ZTTN5boost16exception_detail10clone_implINS0_19error_info_injectorINS_9gregorian9bad_monthEEEEE@Base 0.9.8
 _ZTTN5boost16exception_detail10clone_implINS0_19error_info_injectorISt11logic_errorEEEE@Base 0.9.8
 _ZTTN5boost16exception_detail10clone_implINS0_19error_info_injectorISt13runtime_errorEEEE@Base 0.9.8
 _ZTTN5boost2io22basic_oaltstringstreamIcSt11char_traitsIcESaIcEEE@Base 0.9.8
 _ZTVN12kyotocabinet2DB6CursorE@Base 0.9.8
 _ZTVN12kyotocabinet2DB7VisitorE@Base 0.9.8
 _ZTVN12kyotocabinet2DBE@Base 0.9.8
 _ZTVN12kyotocabinet6HashDB6CursorE@Base 0.9.8
 _ZTVN12kyotocabinet6HashDB8RepeaterE@Base 0.9.8
 _ZTVN12kyotocabinet6HashDBE@Base 0.9.8
 _ZTVN12kyotocabinet7BasicDB13FileProcessorE@Base 0.9.8
 _ZTVN12kyotocabinet7BasicDB15ProgressCheckerE@Base 0.9.8
 _ZTVN12kyotocabinet7BasicDB6CursorE@Base 0.9.8
 _ZTVN12kyotocabinet7BasicDBE@Base 0.9.8
 _ZTVN12kyotocabinet7PlantDBINS_6HashDBELh49EE6CursorE@Base 0.9.8
 _ZTVN12kyotocabinet7PlantDBINS_6HashDBELh49EEE@Base 0.9.8
 _ZTVN4YAML13InvalidScalarE@Base 0.9.8
 _ZTVN4YAML14BadDereferenceE@Base 0.9.8
 _ZTVN4YAML23RepresentationExceptionE@Base 0.9.8
 _ZTVN4YAML9ExceptionE@Base 0.9.8
 _ZTVN4rime10ConfigItemE@Base 0.9.8
 _ZTVN4rime10ConfigListE@Base 0.9.8
 _ZTVN4rime10DerivationE@Base 0.9.8
 _ZTVN4rime10DictionaryE@Base 0.9.8
 _ZTVN4rime10MappedFileE@Base 0.9.8
 _ZTVN4rime10PunctuatorE@Base 0.9.8
 _ZTVN4rime10RecognizerE@Base 0.9.8
 _ZTVN4rime10SimplifierE@Base 0.9.8
 _ZTVN4rime10TranslatorE@Base 0.9.8
 _ZTVN4rime10UniquifierE@Base 0.9.8
 _ZTVN4rime11CalculationE@Base 0.9.8
 _ZTVN4rime11CompositionE@Base 0.9.8
 _ZTVN4rime11ConfigValueE@Base 0.9.8
 _ZTVN4rime11TranslationE@Base 0.9.8
 _ZTVN4rime12AbbreviationE@Base 0.9.8
 _ZTVN4rime12AbcSegmentorE@Base 0.9.8
 _ZTVN4rime12CleanUpTrashE@Base 0.9.8
 _ZTVN4rime12SchemaUpdateE@Base 0.9.8
 _ZTVN4rime12SegmentationE@Base 0.9.8
 _ZTVN4rime12UniqueFilterE@Base 0.9.8
 _ZTVN4rime12UserDictSyncE@Base 0.9.8
 _ZTVN4rime13AsciiComposerE@Base 0.9.8
 _ZTVN4rime13CharsetFilterE@Base 0.9.8
 _ZTVN4rime13ChordComposerE@Base 0.9.8
 _ZTVN4rime13ComponentBaseE@Base 0.9.8
 _ZTVN4rime13ConfigItemRefE@Base 0.9.8
 _ZTVN4rime13ExpressEditorE@Base 0.9.8
 _ZTVN4rime13FluencyEditorE@Base 0.9.8
 _ZTVN4rime14AsciiSegmentorE@Base 0.9.8
 _ZTVN4rime14ConcreteEngineE@Base 0.9.8
 _ZTVN4rime14CustomSettingsE@Base 0.9.8
 _ZTVN4rime14DeploymentTaskE@Base 0.9.8
 _ZTVN4rime14EchoTranslatorE@Base 0.9.8
 _ZTVN4rime14PunctSegmentorE@Base 0.9.8
 _ZTVN4rime14R10nTranslatorE@Base 0.9.8
 _ZTVN4rime14SwitcherOptionE@Base 0.9.8
 _ZTVN4rime14TransformationE@Base 0.9.8
 _ZTVN4rime14UserDictionaryE@Base 0.9.8
 _ZTVN4rime15ConfigComponentE@Base 0.9.8
 _ZTVN4rime15EchoTranslationE@Base 0.9.8
 _ZTVN4rime15FifoTranslationE@Base 0.9.8
 _ZTVN4rime15PunctTranslatorE@Base 0.9.8
 _ZTVN4rime15R10nTranslationE@Base 0.9.8
 _ZTVN4rime15ShadowCandidateE@Base 0.9.8
 _ZTVN4rime15SimpleCandidateE@Base 0.9.8
 _ZTVN4rime15SyllabificationE@Base 0.9.8
 _ZTVN4rime15TableTranslatorE@Base 0.9.8
 _ZTVN4rime15TransliterationE@Base 0.9.8
 _ZTVN4rime15WorkspaceUpdateE@Base 0.9.8
 _ZTVN4rime16CleanOldLogFilesE@Base 0.9.8
 _ZTVN4rime16ConfigFileUpdateE@Base 0.9.8
 _ZTVN4rime16SwitcherSettingsE@Base 0.9.8
 _ZTVN4rime16TableTranslationE@Base 0.9.8
 _ZTVN4rime17BackupConfigFilesE@Base 0.9.8
 _ZTVN4rime17FallbackSegmentorE@Base 0.9.8
 _ZTVN4rime17TrivialTranslatorE@Base 0.9.8
 _ZTVN4rime17UniqueTranslationE@Base 0.9.8
 _ZTVN4rime17UserDictUpgrationE@Base 0.9.8
 _ZTVN4rime18InstallationUpdateE@Base 0.9.8
 _ZTVN4rime18PrebuildAllSchemasE@Base 0.9.8
 _ZTVN4rime19DictionaryComponentE@Base 0.9.8
 _ZTVN4rime19SentenceTranslationE@Base 0.9.8
 _ZTVN4rime19UniquifiedCandidateE@Base 0.9.8
 _ZTVN4rime20LazyTableTranslationE@Base 0.9.8
 _ZTVN4rime23ReverseLookupTranslatorE@Base 0.9.8
 _ZTVN4rime23UserDictionaryComponentE@Base 0.9.8
 _ZTVN4rime24ReverseLookupTranslationE@Base 0.9.8
 _ZTVN4rime30SymlinkingPrebuiltDictionariesE@Base 0.9.8
 _ZTVN4rime32ReverseLookupDictionaryComponentE@Base 0.9.8
 _ZTVN4rime5ClassINS_10DictionaryEPNS_6SchemaEE9ComponentE@Base 0.9.8
 _ZTVN4rime5ClassINS_10TranslatorEPNS_6EngineEE9ComponentE@Base 0.9.8
 _ZTVN4rime5ClassINS_14UserDictionaryEPNS_6SchemaEE9ComponentE@Base 0.9.8
 _ZTVN4rime5ClassINS_23ReverseLookupDictionaryEPNS_6SchemaEE9ComponentE@Base 0.9.8
 _ZTVN4rime5ClassINS_6ConfigERKSsE9ComponentE@Base 0.9.8
 _ZTVN4rime5ClassINS_6FilterEPNS_6EngineEE9ComponentE@Base 0.9.8
 _ZTVN4rime5ClassINS_9ProcessorEPNS_6EngineEE9ComponentE@Base 0.9.8
 _ZTVN4rime5ClassINS_9SegmentorEPNS_6EngineEE9ComponentE@Base 0.9.8
 _ZTVN4rime5PrismE@Base 0.9.8
 _ZTVN4rime5TableE@Base 0.9.8
 _ZTVN4rime6ConfigE@Base 0.9.8
 _ZTVN4rime6EditorE@Base 0.9.8
 _ZTVN4rime6EngineE@Base 0.9.8
 _ZTVN4rime6FilterE@Base 0.9.8
 _ZTVN4rime6MemoryE@Base 0.9.8
 _ZTVN4rime6PhraseE@Base 0.9.8
 _ZTVN4rime6TreeDbE@Base 0.9.8
 _ZTVN4rime6UserDbE@Base 0.9.8
 _ZTVN4rime7ErasionE@Base 0.9.8
 _ZTVN4rime7MatcherE@Base 0.9.8
 _ZTVN4rime7SpellerE@Base 0.9.8
 _ZTVN4rime8SelectorE@Base 0.9.8
 _ZTVN4rime8SentenceE@Base 0.9.8
 _ZTVN4rime8SwitcherE@Base 0.9.8
 _ZTVN4rime9CandidateE@Base 0.9.8
 _ZTVN4rime9ComponentINS_10PunctuatorEEE@Base 0.9.8
 _ZTVN4rime9ComponentINS_10RecognizerEEE@Base 0.9.8
 _ZTVN4rime9ComponentINS_10SimplifierEEE@Base 0.9.8
 _ZTVN4rime9ComponentINS_10UniquifierEEE@Base 0.9.8
 _ZTVN4rime9ComponentINS_12AbcSegmentorEEE@Base 0.9.8
 _ZTVN4rime9ComponentINS_13AsciiComposerEEE@Base 0.9.8
 _ZTVN4rime9ComponentINS_13ChordComposerEEE@Base 0.9.8
 _ZTVN4rime9ComponentINS_13ExpressEditorEEE@Base 0.9.8
 _ZTVN4rime9ComponentINS_13FluencyEditorEEE@Base 0.9.8
 _ZTVN4rime9ComponentINS_14AsciiSegmentorEEE@Base 0.9.8
 _ZTVN4rime9ComponentINS_14EchoTranslatorEEE@Base 0.9.8
 _ZTVN4rime9ComponentINS_14PunctSegmentorEEE@Base 0.9.8
 _ZTVN4rime9ComponentINS_14R10nTranslatorEEE@Base 0.9.8
 _ZTVN4rime9ComponentINS_15PunctTranslatorEEE@Base 0.9.8
 _ZTVN4rime9ComponentINS_15TableTranslatorEEE@Base 0.9.8
 _ZTVN4rime9ComponentINS_17FallbackSegmentorEEE@Base 0.9.8
 _ZTVN4rime9ComponentINS_23ReverseLookupTranslatorEEE@Base 0.9.8
 _ZTVN4rime9ComponentINS_7MatcherEEE@Base 0.9.8
 _ZTVN4rime9ComponentINS_7SpellerEEE@Base 0.9.8
 _ZTVN4rime9ComponentINS_8SelectorEEE@Base 0.9.8
 _ZTVN4rime9ComponentINS_9KeyBinderEEE@Base 0.9.8
 _ZTVN4rime9ComponentINS_9NavigatorEEE@Base 0.9.8
 _ZTVN4rime9ConfigMapE@Base 0.9.8
 _ZTVN4rime9KeyBinderE@Base 0.9.8
 _ZTVN4rime9NavigatorE@Base 0.9.8
 _ZTVN4rime9ProcessorE@Base 0.9.8
 _ZTVN4rime9SegmentorE@Base 0.9.8
 _ZTVN5Darts15DoubleArrayImplIvvivEE@Base 0.9.8
 _ZTVN5Darts7Details9ExceptionE@Base 0.9.8
 _ZTVN5boost10lock_errorE@Base 0.9.8
 _ZTVN5boost12bad_weak_ptrE@Base 0.9.8
 _ZTVN5boost12interprocess22interprocess_exceptionE@Base 0.9.8
 _ZTVN5boost16bad_lexical_castE@Base 0.9.8
 _ZTVN5boost16exception_detail10bad_alloc_E@Base 0.9.8
 _ZTVN5boost16exception_detail10clone_baseE@Base 0.9.8
 _ZTVN5boost16exception_detail10clone_implINS0_10bad_alloc_EEE@Base 0.9.8
 _ZTVN5boost16exception_detail10clone_implINS0_14bad_exception_EEE@Base 0.9.8
 _ZTVN5boost16exception_detail10clone_implINS0_19error_info_injectorINS_10lock_errorEEEEE@Base 0.9.8
 _ZTVN5boost16exception_detail10clone_implINS0_19error_info_injectorINS_12bad_weak_ptrEEEEE@Base 0.9.8
 _ZTVN5boost16exception_detail10clone_implINS0_19error_info_injectorINS_16bad_lexical_castEEEEE@Base 0.9.8
 _ZTVN5boost16exception_detail10clone_implINS0_19error_info_injectorINS_17bad_function_callEEEEE@Base 0.9.8
 _ZTVN5boost16exception_detail10clone_implINS0_19error_info_injectorINS_21thread_resource_errorEEEEE@Base 0.9.8
 _ZTVN5boost16exception_detail10clone_implINS0_19error_info_injectorINS_2io12too_few_argsEEEEE@Base 0.9.8
 _ZTVN5boost16exception_detail10clone_implINS0_19error_info_injectorINS_2io13too_many_argsEEEEE@Base 0.9.8
 _ZTVN5boost16exception_detail10clone_implINS0_19error_info_injectorINS_2io17bad_format_stringEEEEE@Base 0.9.8
 _ZTVN5boost16exception_detail10clone_implINS0_19error_info_injectorINS_9gregorian16bad_day_of_monthEEEEE@Base 0.9.8
 _ZTVN5boost16exception_detail10clone_implINS0_19error_info_injectorINS_9gregorian8bad_yearEEEEE@Base 0.9.8
 _ZTVN5boost16exception_detail10clone_implINS0_19error_info_injectorINS_9gregorian9bad_monthEEEEE@Base 0.9.8
 _ZTVN5boost16exception_detail10clone_implINS0_19error_info_injectorISt11logic_errorEEEE@Base 0.9.8
 _ZTVN5boost16exception_detail10clone_implINS0_19error_info_injectorISt13runtime_errorEEEE@Base 0.9.8
 _ZTVN5boost16exception_detail14bad_exception_E@Base 0.9.8
 _ZTVN5boost16exception_detail19error_info_injectorINS_10lock_errorEEE@Base 0.9.8
 _ZTVN5boost16exception_detail19error_info_injectorINS_12bad_weak_ptrEEE@Base 0.9.8
 _ZTVN5boost16exception_detail19error_info_injectorINS_16bad_lexical_castEEE@Base 0.9.8
 _ZTVN5boost16exception_detail19error_info_injectorINS_17bad_function_callEEE@Base 0.9.8
 _ZTVN5boost16exception_detail19error_info_injectorINS_21thread_resource_errorEEE@Base 0.9.8
 _ZTVN5boost16exception_detail19error_info_injectorINS_2io12too_few_argsEEE@Base 0.9.8
 _ZTVN5boost16exception_detail19error_info_injectorINS_2io13too_many_argsEEE@Base 0.9.8
 _ZTVN5boost16exception_detail19error_info_injectorINS_2io17bad_format_stringEEE@Base 0.9.8
 _ZTVN5boost16exception_detail19error_info_injectorINS_9gregorian16bad_day_of_monthEEE@Base 0.9.8
 _ZTVN5boost16exception_detail19error_info_injectorINS_9gregorian8bad_yearEEE@Base 0.9.8
 _ZTVN5boost16exception_detail19error_info_injectorINS_9gregorian9bad_monthEEE@Base 0.9.8
 _ZTVN5boost16exception_detail19error_info_injectorISt11logic_errorEE@Base 0.9.8
 _ZTVN5boost16exception_detail19error_info_injectorISt13runtime_errorEE@Base 0.9.8
 _ZTVN5boost16thread_exceptionE@Base 0.9.8
 _ZTVN5boost17bad_function_callE@Base 0.9.8
 _ZTVN5boost21thread_resource_errorE@Base 0.9.8
 _ZTVN5boost2io12format_errorE@Base 0.9.8
 _ZTVN5boost2io12too_few_argsE@Base 0.9.8
 _ZTVN5boost2io13too_many_argsE@Base 0.9.8
 _ZTVN5boost2io17bad_format_stringE@Base 0.9.8
 _ZTVN5boost2io18basic_altstringbufIcSt11char_traitsIcESaIcEEE@Base 0.9.8
 _ZTVN5boost2io22basic_oaltstringstreamIcSt11char_traitsIcESaIcEEE@Base 0.9.8
 _ZTVN5boost3any11placeholderE@Base 0.9.8
 _ZTVN5boost3any6holderINS_10last_valueIvEEEE@Base 0.9.8
 _ZTVN5boost3any6holderINS_8functionIFvPN4rime7ContextEEEEEE@Base 0.9.8
 _ZTVN5boost3any6holderINS_8functionIFvPN4rime7ContextERKNS3_8KeyEventEEEEEE@Base 0.9.8
 _ZTVN5boost3any6holderINS_8functionIFvPN4rime7ContextERKSsEEEEE@Base 0.9.8
 _ZTVN5boost3any6holderINS_8functionIFvRKSsEEEEE@Base 0.9.8
 _ZTVN5boost3any6holderINS_8functionIFvRKSsS4_EEEEE@Base 0.9.8
 _ZTVN5boost6detail11thread_dataINS_3_bi6bind_tIbNS_4_mfi3mf0IbN4rime8DeployerEEENS2_5list1INS2_5valueIPS7_EEEEEEEE@Base 0.9.8
 _ZTVN5boost6detail15sp_counted_baseE@Base 0.9.8
 _ZTVN5boost6detail17sp_counted_impl_pIN12kyotocabinet7PlantDBINS2_6HashDBELh49EEEEE@Base 0.9.8
 _ZTVN5boost6detail17sp_counted_impl_pIN4rime10TranslatorEEE@Base 0.9.8
 _ZTVN5boost6detail17sp_counted_impl_pIN4rime11CalculationEEE@Base 0.9.8
 _ZTVN5boost6detail17sp_counted_impl_pIN4rime15FifoTranslationEEE@Base 0.9.8
 _ZTVN5boost6detail17sp_counted_impl_pIN4rime6FilterEEE@Base 0.9.8
 _ZTVN5boost6detail17sp_counted_impl_pIN4rime9ProcessorEEE@Base 0.9.8
 _ZTVN5boost6detail17sp_counted_impl_pIN4rime9SegmentorEEE@Base 0.9.8
 _ZTVN5boost6detail17sp_counted_impl_pINS0_11thread_dataINS_3_bi6bind_tIbNS_4_mfi3mf0IbN4rime8DeployerEEENS3_5list1INS3_5valueIPS8_EEEEEEEEEE@Base 0.9.8
 _ZTVN5boost6detail17sp_counted_impl_pINS_10filesystem6detail11dir_itr_impEEE@Base 0.9.8
 _ZTVN5boost6detail17sp_counted_impl_pINS_16exception_detail10clone_implINS2_10bad_alloc_EEEEE@Base 0.9.8
 _ZTVN5boost6detail17sp_counted_impl_pINS_16exception_detail10clone_implINS2_14bad_exception_EEEEE@Base 0.9.8
 _ZTVN5boost6detail17sp_counted_impl_pINS_29regex_iterator_implementationIN9__gnu_cxx17__normal_iteratorIPKcSsEEcNS_12regex_traitsIcNS_16cpp_regex_traitsIcEEEEEEEE@Base 0.9.8
 _ZTVN5boost6detail17sp_counted_impl_pINS_6random23mersenne_twister_engineIjLm32ELm624ELm397ELm31ELj2567483615ELm11ELj4294967295ELm7ELj2636928640ELm15ELj4022730752ELm18ELj1812433253EEEEE@Base 0.9.8
 _ZTVN5boost6detail17sp_counted_impl_pINS_7signals6detail9slot_base6data_tEEE@Base 0.9.8
 _ZTVN5boost6detail18sp_counted_impl_pdIPN4rime10ConfigDataENS0_13sp_ms_deleterIS3_EEEE@Base 0.9.8
 _ZTVN5boost6detail18sp_counted_impl_pdIPN4rime10ConfigListENS0_13sp_ms_deleterIS3_EEEE@Base 0.9.8
 _ZTVN5boost6detail18sp_counted_impl_pdIPN4rime10VocabularyENS0_13sp_ms_deleterIS3_EEEE@Base 0.9.8
 _ZTVN5boost6detail18sp_counted_impl_pdIPN4rime11ConfigValueENS0_13sp_ms_deleterIS3_EEEE@Base 0.9.8
 _ZTVN5boost6detail18sp_counted_impl_pdIPN4rime12CleanUpTrashENS0_13sp_ms_deleterIS3_EEEE@Base 0.9.8
 _ZTVN5boost6detail18sp_counted_impl_pdIPN4rime12UniqueFilterENS0_13sp_ms_deleterIS3_EEEE@Base 0.9.8
 _ZTVN5boost6detail18sp_counted_impl_pdIPN4rime12UserDictSyncENS0_13sp_ms_deleterIS3_EEEE@Base 0.9.8
 _ZTVN5boost6detail18sp_counted_impl_pdIPN4rime13CharsetFilterENS0_13sp_ms_deleterIS3_EEEE@Base 0.9.8
 _ZTVN5boost6detail18sp_counted_impl_pdIPN4rime13DictEntryListENS0_13sp_ms_deleterIS3_EEEE@Base 0.9.8
 _ZTVN5boost6detail18sp_counted_impl_pdIPN4rime14SwitcherOptionENS0_13sp_ms_deleterIS3_EEEE@Base 0.9.8
 _ZTVN5boost6detail18sp_counted_impl_pdIPN4rime14TreeDbAccessorENS0_13sp_ms_deleterIS3_EEEE@Base 0.9.8
 _ZTVN5boost6detail18sp_counted_impl_pdIPN4rime15EchoTranslationENS0_13sp_ms_deleterIS3_EEEE@Base 0.9.8
 _ZTVN5boost6detail18sp_counted_impl_pdIPN4rime15FifoTranslationENS0_13sp_ms_deleterIS3_EEEE@Base 0.9.8
 _ZTVN5boost6detail18sp_counted_impl_pdIPN4rime15R10nTranslationENS0_13sp_ms_deleterIS3_EEEE@Base 0.9.8
 _ZTVN5boost6detail18sp_counted_impl_pdIPN4rime15ShadowCandidateENS0_13sp_ms_deleterIS3_EEEE@Base 0.9.8
 _ZTVN5boost6detail18sp_counted_impl_pdIPN4rime15SimpleCandidateENS0_13sp_ms_deleterIS3_EEEE@Base 0.9.8
 _ZTVN5boost6detail18sp_counted_impl_pdIPN4rime15WorkspaceUpdateENS0_13sp_ms_deleterIS3_EEEE@Base 0.9.8
 _ZTVN5boost6detail18sp_counted_impl_pdIPN4rime16TableTranslationENS0_13sp_ms_deleterIS3_EEEE@Base 0.9.8
 _ZTVN5boost6detail18sp_counted_impl_pdIPN4rime17BackupConfigFilesENS0_13sp_ms_deleterIS3_EEEE@Base 0.9.8
 _ZTVN5boost6detail18sp_counted_impl_pdIPN4rime17UniqueTranslationENS0_13sp_ms_deleterIS3_EEEE@Base 0.9.8
 _ZTVN5boost6detail18sp_counted_impl_pdIPN4rime17UserDictUpgrationENS0_13sp_ms_deleterIS3_EEEE@Base 0.9.8
 _ZTVN5boost6detail18sp_counted_impl_pdIPN4rime18DictEntryCollectorENS0_13sp_ms_deleterIS3_EEEE@Base 0.9.8
 _ZTVN5boost6detail18sp_counted_impl_pdIPN4rime18InstallationUpdateENS0_13sp_ms_deleterIS3_EEEE@Base 0.9.8
 _ZTVN5boost6detail18sp_counted_impl_pdIPN4rime19SentenceTranslationENS0_13sp_ms_deleterIS3_EEEE@Base 0.9.8
 _ZTVN5boost6detail18sp_counted_impl_pdIPN4rime19UniquifiedCandidateENS0_13sp_ms_deleterIS3_EEEE@Base 0.9.8
 _ZTVN5boost6detail18sp_counted_impl_pdIPN4rime20LazyTableTranslationENS0_13sp_ms_deleterIS3_EEEE@Base 0.9.8
 _ZTVN5boost6detail18sp_counted_impl_pdIPN4rime22UserDictEntryCollectorENS0_13sp_ms_deleterIS3_EEEE@Base 0.9.8
 _ZTVN5boost6detail18sp_counted_impl_pdIPN4rime24ReverseLookupTranslationENS0_13sp_ms_deleterIS3_EEEE@Base 0.9.8
 _ZTVN5boost6detail18sp_counted_impl_pdIPN4rime4MenuENS0_13sp_ms_deleterIS3_EEEE@Base 0.9.8
 _ZTVN5boost6detail18sp_counted_impl_pdIPN4rime5PrismENS0_13sp_ms_deleterIS3_EEEE@Base 0.9.8
 _ZTVN5boost6detail18sp_counted_impl_pdIPN4rime5TableENS0_13sp_ms_deleterIS3_EEEE@Base 0.9.8
 _ZTVN5boost6detail18sp_counted_impl_pdIPN4rime6PhraseENS0_13sp_ms_deleterIS3_EEEE@Base 0.9.8
 _ZTVN5boost6detail18sp_counted_impl_pdIPN4rime6TreeDbENS0_13sp_ms_deleterIS3_EEEE@Base 0.9.8
 _ZTVN5boost6detail18sp_counted_impl_pdIPN4rime6UserDbENS0_13sp_ms_deleterIS3_EEEE@Base 0.9.8
 _ZTVN5boost6detail18sp_counted_impl_pdIPN4rime7SessionENS0_13sp_ms_deleterIS3_EEEE@Base 0.9.8
 _ZTVN5boost6detail18sp_counted_impl_pdIPN4rime8SentenceENS0_13sp_ms_deleterIS3_EEEE@Base 0.9.8
 _ZTVN5boost6detail18sp_counted_impl_pdIPN4rime9ConfigMapENS0_13sp_ms_deleterIS3_EEEE@Base 0.9.8
 _ZTVN5boost6detail18sp_counted_impl_pdIPN4rime9DictEntryENS0_13sp_ms_deleterIS3_EEEE@Base 0.9.8
 _ZTVN5boost6detail18sp_counted_impl_pdIPNS_2io18basic_altstringbufIcSt11char_traitsIcESaIcEEENS2_22basic_oaltstringstreamIcS5_S6_E5No_OpEEE@Base 0.9.8
 _ZTVN5boost6system12system_errorE@Base 0.9.8
 _ZTVN5boost6system14error_categoryE@Base 0.9.8
 _ZTVN5boost9exceptionE@Base 0.9.8
 _ZTVN5boost9gregorian16bad_day_of_monthE@Base 0.9.8
 _ZTVN5boost9gregorian8bad_yearE@Base 0.9.8
 _ZTVN5boost9gregorian9bad_monthE@Base 0.9.8
 _ZTVZN12kyotocabinet6HashDB18scan_parallel_implEPNS_2DB7VisitorEmPNS_7BasicDB15ProgressCheckerEE10ThreadImpl@Base 0.9.8
 _ZTVZN12kyotocabinet7BasicDB13dump_snapshotEPSoPNS0_15ProgressCheckerEE11VisitorImpl@Base 0.9.8
 _ZTVZN12kyotocabinet7BasicDB16increment_doubleEPKcmddE11VisitorImpl@Base 0.9.8
 _ZTVZN12kyotocabinet7BasicDB3addEPKcmS2_mE11VisitorImpl@Base 0.9.8
 _ZTVZN12kyotocabinet7BasicDB3casEPKcmS2_mS2_mE11VisitorImpl@Base 0.9.8
 _ZTVZN12kyotocabinet7BasicDB3getEPKcmPcmE11VisitorImpl@Base 0.9.8
 _ZTVZN12kyotocabinet7BasicDB3getEPKcmPmE11VisitorImpl@Base 0.9.8
 _ZTVZN12kyotocabinet7BasicDB3getERKSsPSsE11VisitorImpl@Base 0.9.8
 _ZTVZN12kyotocabinet7BasicDB3setEPKcmS2_mE11VisitorImpl@Base 0.9.8
 _ZTVZN12kyotocabinet7BasicDB5checkEPKcmE11VisitorImpl@Base 0.9.8
 _ZTVZN12kyotocabinet7BasicDB6Cursor3getEPSsS2_bE11VisitorImpl@Base 0.9.8
 _ZTVZN12kyotocabinet7BasicDB6Cursor3getEPmPPKcS2_bE11VisitorImpl@Base 0.9.8
 _ZTVZN12kyotocabinet7BasicDB6Cursor6removeEvE11VisitorImpl@Base 0.9.8
 _ZTVZN12kyotocabinet7BasicDB6Cursor7get_keyEPmbE11VisitorImpl@Base 0.9.8
 _ZTVZN12kyotocabinet7BasicDB6Cursor9get_valueEPmbE11VisitorImpl@Base 0.9.8
 _ZTVZN12kyotocabinet7BasicDB6Cursor9set_valueEPKcmbE11VisitorImpl@Base 0.9.8
 _ZTVZN12kyotocabinet7BasicDB6appendEPKcmS2_mE11VisitorImpl@Base 0.9.8
 _ZTVZN12kyotocabinet7BasicDB6removeEPKcmE11VisitorImpl@Base 0.9.8
 _ZTVZN12kyotocabinet7BasicDB7replaceEPKcmS2_mE11VisitorImpl@Base 0.9.8
 _ZTVZN12kyotocabinet7BasicDB9incrementEPKcmllE11VisitorImpl@Base 0.9.8
 _ZTVZN12kyotocabinet7PlantDBINS_6HashDBELh49EE11synchronizeEbPNS_7BasicDB13FileProcessorEPNS3_15ProgressCheckerEE7Wrapper@Base 0.9.8
 _ZTVZN12kyotocabinet7PlantDBINS_6HashDBELh49EE12recalc_countEvE11VisitorImpl@Base 0.9.8
 _ZTVZN12kyotocabinet7PlantDBINS_6HashDBELh49EE13scan_parallelEPNS_2DB7VisitorEmPNS_7BasicDB15ProgressCheckerEE11VisitorImpl@Base 0.9.8
 _ZTVZN12kyotocabinet7PlantDBINS_6HashDBELh49EE13scan_parallelEPNS_2DB7VisitorEmPNS_7BasicDB15ProgressCheckerEE19ProgressCheckerImpl@Base 0.9.8
 _ZTVZN12kyotocabinet7PlantDBINS_6HashDBELh49EE14load_leaf_nodeElbE11VisitorImpl@Base 0.9.8
 _ZTVZN12kyotocabinet7PlantDBINS_6HashDBELh49EE15load_inner_nodeElE11VisitorImpl@Base 0.9.8
 _ZThn16_N4rime14R10nTranslator8MemorizeERKNS_9DictEntryERKSt6vectorIPS2_SaIS5_EE@Base 0.9.8
 _ZThn16_N4rime14R10nTranslatorD0Ev@Base 0.9.8
 _ZThn16_N4rime14R10nTranslatorD1Ev@Base 0.9.8
 _ZThn16_N4rime15TableTranslator8MemorizeERKNS_9DictEntryERKSt6vectorIPS2_SaIS5_EE@Base 0.9.8
 _ZThn16_N4rime15TableTranslatorD0Ev@Base 0.9.8
 _ZThn16_N4rime15TableTranslatorD1Ev@Base 0.9.8
 _ZThn16_N5boost16exception_detail10clone_implINS0_19error_info_injectorINS_17bad_function_callEEEED0Ev@Base 0.9.8
 _ZThn16_N5boost16exception_detail10clone_implINS0_19error_info_injectorINS_17bad_function_callEEEED1Ev@Base 0.9.8
 _ZThn16_N5boost16exception_detail10clone_implINS0_19error_info_injectorINS_9gregorian16bad_day_of_monthEEEED0Ev@Base 0.9.8
 _ZThn16_N5boost16exception_detail10clone_implINS0_19error_info_injectorINS_9gregorian16bad_day_of_monthEEEED1Ev@Base 0.9.8
 _ZThn16_N5boost16exception_detail10clone_implINS0_19error_info_injectorINS_9gregorian8bad_yearEEEED0Ev@Base 0.9.8
 _ZThn16_N5boost16exception_detail10clone_implINS0_19error_info_injectorINS_9gregorian8bad_yearEEEED1Ev@Base 0.9.8
 _ZThn16_N5boost16exception_detail10clone_implINS0_19error_info_injectorINS_9gregorian9bad_monthEEEED0Ev@Base 0.9.8
 _ZThn16_N5boost16exception_detail10clone_implINS0_19error_info_injectorINS_9gregorian9bad_monthEEEED1Ev@Base 0.9.8
 _ZThn16_N5boost16exception_detail10clone_implINS0_19error_info_injectorISt11logic_errorEEED0Ev@Base 0.9.8
 _ZThn16_N5boost16exception_detail10clone_implINS0_19error_info_injectorISt11logic_errorEEED1Ev@Base 0.9.8
 _ZThn16_N5boost16exception_detail10clone_implINS0_19error_info_injectorISt13runtime_errorEEED0Ev@Base 0.9.8
 _ZThn16_N5boost16exception_detail10clone_implINS0_19error_info_injectorISt13runtime_errorEEED1Ev@Base 0.9.8
 _ZThn16_N5boost16exception_detail19error_info_injectorINS_17bad_function_callEED0Ev@Base 0.9.8
 _ZThn16_N5boost16exception_detail19error_info_injectorINS_17bad_function_callEED1Ev@Base 0.9.8
 _ZThn16_N5boost16exception_detail19error_info_injectorINS_9gregorian16bad_day_of_monthEED0Ev@Base 0.9.8
 _ZThn16_N5boost16exception_detail19error_info_injectorINS_9gregorian16bad_day_of_monthEED1Ev@Base 0.9.8
 _ZThn16_N5boost16exception_detail19error_info_injectorINS_9gregorian8bad_yearEED0Ev@Base 0.9.8
 _ZThn16_N5boost16exception_detail19error_info_injectorINS_9gregorian8bad_yearEED1Ev@Base 0.9.8
 _ZThn16_N5boost16exception_detail19error_info_injectorINS_9gregorian9bad_monthEED0Ev@Base 0.9.8
 _ZThn16_N5boost16exception_detail19error_info_injectorINS_9gregorian9bad_monthEED1Ev@Base 0.9.8
 _ZThn16_N5boost16exception_detail19error_info_injectorISt11logic_errorED0Ev@Base 0.9.8
 _ZThn16_N5boost16exception_detail19error_info_injectorISt11logic_errorED1Ev@Base 0.9.8
 _ZThn16_N5boost16exception_detail19error_info_injectorISt13runtime_errorED0Ev@Base 0.9.8
 _ZThn16_N5boost16exception_detail19error_info_injectorISt13runtime_errorED1Ev@Base 0.9.8
 _ZThn16_NK4rime15R10nTranslation12PreviousStopEm@Base 0.9.8
 _ZThn16_NK4rime15R10nTranslation8NextStopEm@Base 0.9.8
 _ZThn24_N5boost16exception_detail10clone_implINS0_19error_info_injectorINS_16bad_lexical_castEEEED0Ev@Base 0.9.8
 _ZThn24_N5boost16exception_detail10clone_implINS0_19error_info_injectorINS_16bad_lexical_castEEEED1Ev@Base 0.9.8
 _ZThn24_N5boost16exception_detail10clone_implINS0_19error_info_injectorINS_2io12too_few_argsEEEED0Ev@Base 0.9.8
 _ZThn24_N5boost16exception_detail10clone_implINS0_19error_info_injectorINS_2io12too_few_argsEEEED1Ev@Base 0.9.8
 _ZThn24_N5boost16exception_detail10clone_implINS0_19error_info_injectorINS_2io13too_many_argsEEEED0Ev@Base 0.9.8
 _ZThn24_N5boost16exception_detail10clone_implINS0_19error_info_injectorINS_2io13too_many_argsEEEED1Ev@Base 0.9.8
 _ZThn24_N5boost16exception_detail10clone_implINS0_19error_info_injectorINS_2io17bad_format_stringEEEED0Ev@Base 0.9.8
 _ZThn24_N5boost16exception_detail10clone_implINS0_19error_info_injectorINS_2io17bad_format_stringEEEED1Ev@Base 0.9.8
 _ZThn24_N5boost16exception_detail19error_info_injectorINS_16bad_lexical_castEED0Ev@Base 0.9.8
 _ZThn24_N5boost16exception_detail19error_info_injectorINS_16bad_lexical_castEED1Ev@Base 0.9.8
 _ZThn24_N5boost16exception_detail19error_info_injectorINS_2io12too_few_argsEED0Ev@Base 0.9.8
 _ZThn24_N5boost16exception_detail19error_info_injectorINS_2io12too_few_argsEED1Ev@Base 0.9.8
 _ZThn24_N5boost16exception_detail19error_info_injectorINS_2io13too_many_argsEED0Ev@Base 0.9.8
 _ZThn24_N5boost16exception_detail19error_info_injectorINS_2io13too_many_argsEED1Ev@Base 0.9.8
 _ZThn24_N5boost16exception_detail19error_info_injectorINS_2io17bad_format_stringEED0Ev@Base 0.9.8
 _ZThn24_N5boost16exception_detail19error_info_injectorINS_2io17bad_format_stringEED1Ev@Base 0.9.8
 _ZThn40_N5boost16exception_detail10bad_alloc_D0Ev@Base 0.9.8
 _ZThn40_N5boost16exception_detail10bad_alloc_D1Ev@Base 0.9.8
 _ZThn40_N5boost16exception_detail10clone_implINS0_10bad_alloc_EED0Ev@Base 0.9.8
 _ZThn40_N5boost16exception_detail10clone_implINS0_10bad_alloc_EED1Ev@Base 0.9.8
 _ZThn40_N5boost16exception_detail10clone_implINS0_14bad_exception_EED0Ev@Base 0.9.8
 _ZThn40_N5boost16exception_detail10clone_implINS0_14bad_exception_EED1Ev@Base 0.9.8
 _ZThn40_N5boost16exception_detail10clone_implINS0_19error_info_injectorINS_10lock_errorEEEED0Ev@Base 0.9.8
 _ZThn40_N5boost16exception_detail10clone_implINS0_19error_info_injectorINS_10lock_errorEEEED1Ev@Base 0.9.8
 _ZThn40_N5boost16exception_detail10clone_implINS0_19error_info_injectorINS_21thread_resource_errorEEEED0Ev@Base 0.9.8
 _ZThn40_N5boost16exception_detail10clone_implINS0_19error_info_injectorINS_21thread_resource_errorEEEED1Ev@Base 0.9.8
 _ZThn40_N5boost16exception_detail14bad_exception_D0Ev@Base 0.9.8
 _ZThn40_N5boost16exception_detail14bad_exception_D1Ev@Base 0.9.8
 _ZThn40_N5boost16exception_detail19error_info_injectorINS_10lock_errorEED0Ev@Base 0.9.8
 _ZThn40_N5boost16exception_detail19error_info_injectorINS_10lock_errorEED1Ev@Base 0.9.8
 _ZThn40_N5boost16exception_detail19error_info_injectorINS_21thread_resource_errorEED0Ev@Base 0.9.8
 _ZThn40_N5boost16exception_detail19error_info_injectorINS_21thread_resource_errorEED1Ev@Base 0.9.8
 _ZThn8_N5boost16exception_detail10clone_implINS0_19error_info_injectorINS_12bad_weak_ptrEEEED0Ev@Base 0.9.8
 _ZThn8_N5boost16exception_detail10clone_implINS0_19error_info_injectorINS_12bad_weak_ptrEEEED1Ev@Base 0.9.8
 _ZThn8_N5boost16exception_detail19error_info_injectorINS_12bad_weak_ptrEED0Ev@Base 0.9.8
 _ZThn8_N5boost16exception_detail19error_info_injectorINS_12bad_weak_ptrEED1Ev@Base 0.9.8
 _ZTv0_n24_N5boost2io22basic_oaltstringstreamIcSt11char_traitsIcESaIcEED0Ev@Base 0.9.8
 _ZTv0_n24_N5boost2io22basic_oaltstringstreamIcSt11char_traitsIcESaIcEED1Ev@Base 0.9.8
 _ZTv0_n24_NK5boost16exception_detail10clone_implINS0_10bad_alloc_EE5cloneEv@Base 0.9.8
 _ZTv0_n24_NK5boost16exception_detail10clone_implINS0_14bad_exception_EE5cloneEv@Base 0.9.8
 _ZTv0_n24_NK5boost16exception_detail10clone_implINS0_19error_info_injectorINS_10lock_errorEEEE5cloneEv@Base 0.9.8
 _ZTv0_n24_NK5boost16exception_detail10clone_implINS0_19error_info_injectorINS_12bad_weak_ptrEEEE5cloneEv@Base 0.9.8
 _ZTv0_n24_NK5boost16exception_detail10clone_implINS0_19error_info_injectorINS_16bad_lexical_castEEEE5cloneEv@Base 0.9.8
 _ZTv0_n24_NK5boost16exception_detail10clone_implINS0_19error_info_injectorINS_17bad_function_callEEEE5cloneEv@Base 0.9.8
 _ZTv0_n24_NK5boost16exception_detail10clone_implINS0_19error_info_injectorINS_21thread_resource_errorEEEE5cloneEv@Base 0.9.8
 _ZTv0_n24_NK5boost16exception_detail10clone_implINS0_19error_info_injectorINS_2io12too_few_argsEEEE5cloneEv@Base 0.9.8
 _ZTv0_n24_NK5boost16exception_detail10clone_implINS0_19error_info_injectorINS_2io13too_many_argsEEEE5cloneEv@Base 0.9.8
 _ZTv0_n24_NK5boost16exception_detail10clone_implINS0_19error_info_injectorINS_2io17bad_format_stringEEEE5cloneEv@Base 0.9.8
 _ZTv0_n24_NK5boost16exception_detail10clone_implINS0_19error_info_injectorINS_9gregorian16bad_day_of_monthEEEE5cloneEv@Base 0.9.8
 _ZTv0_n24_NK5boost16exception_detail10clone_implINS0_19error_info_injectorINS_9gregorian8bad_yearEEEE5cloneEv@Base 0.9.8
 _ZTv0_n24_NK5boost16exception_detail10clone_implINS0_19error_info_injectorINS_9gregorian9bad_monthEEEE5cloneEv@Base 0.9.8
 _ZTv0_n24_NK5boost16exception_detail10clone_implINS0_19error_info_injectorISt11logic_errorEEE5cloneEv@Base 0.9.8
 _ZTv0_n24_NK5boost16exception_detail10clone_implINS0_19error_info_injectorISt13runtime_errorEEE5cloneEv@Base 0.9.8
 _ZTv0_n32_NK5boost16exception_detail10clone_implINS0_10bad_alloc_EE7rethrowEv@Base 0.9.8
 _ZTv0_n32_NK5boost16exception_detail10clone_implINS0_14bad_exception_EE7rethrowEv@Base 0.9.8
 _ZTv0_n32_NK5boost16exception_detail10clone_implINS0_19error_info_injectorINS_10lock_errorEEEE7rethrowEv@Base 0.9.8
 _ZTv0_n32_NK5boost16exception_detail10clone_implINS0_19error_info_injectorINS_12bad_weak_ptrEEEE7rethrowEv@Base 0.9.8
 _ZTv0_n32_NK5boost16exception_detail10clone_implINS0_19error_info_injectorINS_16bad_lexical_castEEEE7rethrowEv@Base 0.9.8
 _ZTv0_n32_NK5boost16exception_detail10clone_implINS0_19error_info_injectorINS_17bad_function_callEEEE7rethrowEv@Base 0.9.8
 _ZTv0_n32_NK5boost16exception_detail10clone_implINS0_19error_info_injectorINS_21thread_resource_errorEEEE7rethrowEv@Base 0.9.8
 _ZTv0_n32_NK5boost16exception_detail10clone_implINS0_19error_info_injectorINS_2io12too_few_argsEEEE7rethrowEv@Base 0.9.8
 _ZTv0_n32_NK5boost16exception_detail10clone_implINS0_19error_info_injectorINS_2io13too_many_argsEEEE7rethrowEv@Base 0.9.8
 _ZTv0_n32_NK5boost16exception_detail10clone_implINS0_19error_info_injectorINS_2io17bad_format_stringEEEE7rethrowEv@Base 0.9.8
 _ZTv0_n32_NK5boost16exception_detail10clone_implINS0_19error_info_injectorINS_9gregorian16bad_day_of_monthEEEE7rethrowEv@Base 0.9.8
 _ZTv0_n32_NK5boost16exception_detail10clone_implINS0_19error_info_injectorINS_9gregorian8bad_yearEEEE7rethrowEv@Base 0.9.8
 _ZTv0_n32_NK5boost16exception_detail10clone_implINS0_19error_info_injectorINS_9gregorian9bad_monthEEEE7rethrowEv@Base 0.9.8
 _ZTv0_n32_NK5boost16exception_detail10clone_implINS0_19error_info_injectorISt11logic_errorEEE7rethrowEv@Base 0.9.8
 _ZTv0_n32_NK5boost16exception_detail10clone_implINS0_19error_info_injectorISt13runtime_errorEEE7rethrowEv@Base 0.9.8
 _ZTv0_n40_N5boost16exception_detail10clone_implINS0_10bad_alloc_EED0Ev@Base 0.9.8
 _ZTv0_n40_N5boost16exception_detail10clone_implINS0_10bad_alloc_EED1Ev@Base 0.9.8
 _ZTv0_n40_N5boost16exception_detail10clone_implINS0_14bad_exception_EED0Ev@Base 0.9.8
 _ZTv0_n40_N5boost16exception_detail10clone_implINS0_14bad_exception_EED1Ev@Base 0.9.8
 _ZTv0_n40_N5boost16exception_detail10clone_implINS0_19error_info_injectorINS_10lock_errorEEEED0Ev@Base 0.9.8
 _ZTv0_n40_N5boost16exception_detail10clone_implINS0_19error_info_injectorINS_10lock_errorEEEED1Ev@Base 0.9.8
 _ZTv0_n40_N5boost16exception_detail10clone_implINS0_19error_info_injectorINS_12bad_weak_ptrEEEED0Ev@Base 0.9.8
 _ZTv0_n40_N5boost16exception_detail10clone_implINS0_19error_info_injectorINS_12bad_weak_ptrEEEED1Ev@Base 0.9.8
 _ZTv0_n40_N5boost16exception_detail10clone_implINS0_19error_info_injectorINS_16bad_lexical_castEEEED0Ev@Base 0.9.8
 _ZTv0_n40_N5boost16exception_detail10clone_implINS0_19error_info_injectorINS_16bad_lexical_castEEEED1Ev@Base 0.9.8
 _ZTv0_n40_N5boost16exception_detail10clone_implINS0_19error_info_injectorINS_17bad_function_callEEEED0Ev@Base 0.9.8
 _ZTv0_n40_N5boost16exception_detail10clone_implINS0_19error_info_injectorINS_17bad_function_callEEEED1Ev@Base 0.9.8
 _ZTv0_n40_N5boost16exception_detail10clone_implINS0_19error_info_injectorINS_21thread_resource_errorEEEED0Ev@Base 0.9.8
 _ZTv0_n40_N5boost16exception_detail10clone_implINS0_19error_info_injectorINS_21thread_resource_errorEEEED1Ev@Base 0.9.8
 _ZTv0_n40_N5boost16exception_detail10clone_implINS0_19error_info_injectorINS_2io12too_few_argsEEEED0Ev@Base 0.9.8
 _ZTv0_n40_N5boost16exception_detail10clone_implINS0_19error_info_injectorINS_2io12too_few_argsEEEED1Ev@Base 0.9.8
 _ZTv0_n40_N5boost16exception_detail10clone_implINS0_19error_info_injectorINS_2io13too_many_argsEEEED0Ev@Base 0.9.8
 _ZTv0_n40_N5boost16exception_detail10clone_implINS0_19error_info_injectorINS_2io13too_many_argsEEEED1Ev@Base 0.9.8
 _ZTv0_n40_N5boost16exception_detail10clone_implINS0_19error_info_injectorINS_2io17bad_format_stringEEEED0Ev@Base 0.9.8
 _ZTv0_n40_N5boost16exception_detail10clone_implINS0_19error_info_injectorINS_2io17bad_format_stringEEEED1Ev@Base 0.9.8
 _ZTv0_n40_N5boost16exception_detail10clone_implINS0_19error_info_injectorINS_9gregorian16bad_day_of_monthEEEED0Ev@Base 0.9.8
 _ZTv0_n40_N5boost16exception_detail10clone_implINS0_19error_info_injectorINS_9gregorian16bad_day_of_monthEEEED1Ev@Base 0.9.8
 _ZTv0_n40_N5boost16exception_detail10clone_implINS0_19error_info_injectorINS_9gregorian8bad_yearEEEED0Ev@Base 0.9.8
 _ZTv0_n40_N5boost16exception_detail10clone_implINS0_19error_info_injectorINS_9gregorian8bad_yearEEEED1Ev@Base 0.9.8
 _ZTv0_n40_N5boost16exception_detail10clone_implINS0_19error_info_injectorINS_9gregorian9bad_monthEEEED0Ev@Base 0.9.8
 _ZTv0_n40_N5boost16exception_detail10clone_implINS0_19error_info_injectorINS_9gregorian9bad_monthEEEED1Ev@Base 0.9.8
 _ZTv0_n40_N5boost16exception_detail10clone_implINS0_19error_info_injectorISt11logic_errorEEED0Ev@Base 0.9.8
 _ZTv0_n40_N5boost16exception_detail10clone_implINS0_19error_info_injectorISt11logic_errorEEED1Ev@Base 0.9.8
 _ZTv0_n40_N5boost16exception_detail10clone_implINS0_19error_info_injectorISt13runtime_errorEEED0Ev@Base 0.9.8
 _ZTv0_n40_N5boost16exception_detail10clone_implINS0_19error_info_injectorISt13runtime_errorEEED1Ev@Base 0.9.8
 _ZZN12kyotocabinet11nearbyprimeEmE5table@Base 0.9.8
 _ZZN12kyotocabinet6HashDB18scan_parallel_implEPNS_2DB7VisitorEmPNS_7BasicDB15ProgressCheckerEEN10ThreadImpl3runEv@Base 0.9.8
 _ZZN12kyotocabinet6HashDB18scan_parallel_implEPNS_2DB7VisitorEmPNS_7BasicDB15ProgressCheckerEEN10ThreadImplD0Ev@Base 0.9.8
 _ZZN12kyotocabinet6HashDB18scan_parallel_implEPNS_2DB7VisitorEmPNS_7BasicDB15ProgressCheckerEEN10ThreadImplD1Ev@Base 0.9.8
 _ZZN12kyotocabinet6HashDB18scan_parallel_implEPNS_2DB7VisitorEmPNS_7BasicDB15ProgressCheckerEEN10ThreadImplD2Ev@Base 0.9.8
 _ZZN12kyotocabinet7BasicDB13dump_snapshotEPSoPNS0_15ProgressCheckerEEN11VisitorImpl10visit_fullEPKcmS6_mPm@Base 0.9.8
 _ZZN12kyotocabinet7BasicDB13dump_snapshotEPSoPNS0_15ProgressCheckerEEN11VisitorImplD0Ev@Base 0.9.8
 _ZZN12kyotocabinet7BasicDB13dump_snapshotEPSoPNS0_15ProgressCheckerEEN11VisitorImplD1Ev@Base 0.9.8
 _ZZN12kyotocabinet7BasicDB13dump_snapshotEPSoPNS0_15ProgressCheckerEEN11VisitorImplD2Ev@Base 0.9.8
 _ZZN12kyotocabinet7BasicDB16increment_doubleEPKcmddEN11VisitorImpl10visit_fullES2_mS2_mPm@Base 0.9.8
 _ZZN12kyotocabinet7BasicDB16increment_doubleEPKcmddEN11VisitorImpl11visit_emptyES2_mPm@Base 0.9.8
 _ZZN12kyotocabinet7BasicDB16increment_doubleEPKcmddEN11VisitorImplD0Ev@Base 0.9.8
 _ZZN12kyotocabinet7BasicDB16increment_doubleEPKcmddEN11VisitorImplD1Ev@Base 0.9.8
 _ZZN12kyotocabinet7BasicDB16increment_doubleEPKcmddEN11VisitorImplD2Ev@Base 0.9.8
 _ZZN12kyotocabinet7BasicDB3addEPKcmS2_mEN11VisitorImpl11visit_emptyES2_mPm@Base 0.9.8
 _ZZN12kyotocabinet7BasicDB3addEPKcmS2_mEN11VisitorImplD0Ev@Base 0.9.8
 _ZZN12kyotocabinet7BasicDB3addEPKcmS2_mEN11VisitorImplD1Ev@Base 0.9.8
 _ZZN12kyotocabinet7BasicDB3addEPKcmS2_mEN11VisitorImplD2Ev@Base 0.9.8
 _ZZN12kyotocabinet7BasicDB3casEPKcmS2_mS2_mEN11VisitorImpl10visit_fullES2_mS2_mPm@Base 0.9.8
 _ZZN12kyotocabinet7BasicDB3casEPKcmS2_mS2_mEN11VisitorImpl11visit_emptyES2_mPm@Base 0.9.8
 _ZZN12kyotocabinet7BasicDB3casEPKcmS2_mS2_mEN11VisitorImplD0Ev@Base 0.9.8
 _ZZN12kyotocabinet7BasicDB3casEPKcmS2_mS2_mEN11VisitorImplD1Ev@Base 0.9.8
 _ZZN12kyotocabinet7BasicDB3casEPKcmS2_mS2_mEN11VisitorImplD2Ev@Base 0.9.8
 _ZZN12kyotocabinet7BasicDB3getEPKcmPcmEN11VisitorImpl10visit_fullES2_mS2_mPm@Base 0.9.8
 _ZZN12kyotocabinet7BasicDB3getEPKcmPcmEN11VisitorImplD0Ev@Base 0.9.8
 _ZZN12kyotocabinet7BasicDB3getEPKcmPcmEN11VisitorImplD1Ev@Base 0.9.8
 _ZZN12kyotocabinet7BasicDB3getEPKcmPcmEN11VisitorImplD2Ev@Base 0.9.8
 _ZZN12kyotocabinet7BasicDB3getEPKcmPmEN11VisitorImpl10visit_fullES2_mS2_mS3_@Base 0.9.8
 _ZZN12kyotocabinet7BasicDB3getEPKcmPmEN11VisitorImplD0Ev@Base 0.9.8
 _ZZN12kyotocabinet7BasicDB3getEPKcmPmEN11VisitorImplD1Ev@Base 0.9.8
 _ZZN12kyotocabinet7BasicDB3getEPKcmPmEN11VisitorImplD2Ev@Base 0.9.8
 _ZZN12kyotocabinet7BasicDB3getERKSsPSsEN11VisitorImpl10visit_fullEPKcmS6_mPm@Base 0.9.8
 _ZZN12kyotocabinet7BasicDB3getERKSsPSsEN11VisitorImplD0Ev@Base 0.9.8
 _ZZN12kyotocabinet7BasicDB3getERKSsPSsEN11VisitorImplD1Ev@Base 0.9.8
 _ZZN12kyotocabinet7BasicDB3getERKSsPSsEN11VisitorImplD2Ev@Base 0.9.8
 _ZZN12kyotocabinet7BasicDB3setEPKcmS2_mEN11VisitorImpl10visit_fullES2_mS2_mPm@Base 0.9.8
 _ZZN12kyotocabinet7BasicDB3setEPKcmS2_mEN11VisitorImpl11visit_emptyES2_mPm@Base 0.9.8
 _ZZN12kyotocabinet7BasicDB3setEPKcmS2_mEN11VisitorImplD0Ev@Base 0.9.8
 _ZZN12kyotocabinet7BasicDB3setEPKcmS2_mEN11VisitorImplD1Ev@Base 0.9.8
 _ZZN12kyotocabinet7BasicDB3setEPKcmS2_mEN11VisitorImplD2Ev@Base 0.9.8
 _ZZN12kyotocabinet7BasicDB5checkEPKcmEN11VisitorImpl10visit_fullES2_mS2_mPm@Base 0.9.8
 _ZZN12kyotocabinet7BasicDB5checkEPKcmEN11VisitorImplD0Ev@Base 0.9.8
 _ZZN12kyotocabinet7BasicDB5checkEPKcmEN11VisitorImplD1Ev@Base 0.9.8
 _ZZN12kyotocabinet7BasicDB5checkEPKcmEN11VisitorImplD2Ev@Base 0.9.8
 _ZZN12kyotocabinet7BasicDB6Cursor3getEPSsS2_bEN11VisitorImpl10visit_fullEPKcmS5_mPm@Base 0.9.8
 _ZZN12kyotocabinet7BasicDB6Cursor3getEPSsS2_bEN11VisitorImplD0Ev@Base 0.9.8
 _ZZN12kyotocabinet7BasicDB6Cursor3getEPSsS2_bEN11VisitorImplD1Ev@Base 0.9.8
 _ZZN12kyotocabinet7BasicDB6Cursor3getEPSsS2_bEN11VisitorImplD2Ev@Base 0.9.8
 _ZZN12kyotocabinet7BasicDB6Cursor3getEPmPPKcS2_bEN11VisitorImpl10visit_fullES4_mS4_mS2_@Base 0.9.8
 _ZZN12kyotocabinet7BasicDB6Cursor3getEPmPPKcS2_bEN11VisitorImplD0Ev@Base 0.9.8
 _ZZN12kyotocabinet7BasicDB6Cursor3getEPmPPKcS2_bEN11VisitorImplD1Ev@Base 0.9.8
 _ZZN12kyotocabinet7BasicDB6Cursor3getEPmPPKcS2_bEN11VisitorImplD2Ev@Base 0.9.8
 _ZZN12kyotocabinet7BasicDB6Cursor6removeEvEN11VisitorImpl10visit_fullEPKcmS4_mPm@Base 0.9.8
 _ZZN12kyotocabinet7BasicDB6Cursor6removeEvEN11VisitorImplD0Ev@Base 0.9.8
 _ZZN12kyotocabinet7BasicDB6Cursor6removeEvEN11VisitorImplD1Ev@Base 0.9.8
 _ZZN12kyotocabinet7BasicDB6Cursor6removeEvEN11VisitorImplD2Ev@Base 0.9.8
 _ZZN12kyotocabinet7BasicDB6Cursor7get_keyEPmbEN11VisitorImpl10visit_fullEPKcmS5_mS2_@Base 0.9.8
 _ZZN12kyotocabinet7BasicDB6Cursor7get_keyEPmbEN11VisitorImplD0Ev@Base 0.9.8
 _ZZN12kyotocabinet7BasicDB6Cursor7get_keyEPmbEN11VisitorImplD1Ev@Base 0.9.8
 _ZZN12kyotocabinet7BasicDB6Cursor7get_keyEPmbEN11VisitorImplD2Ev@Base 0.9.8
 _ZZN12kyotocabinet7BasicDB6Cursor9get_valueEPmbEN11VisitorImpl10visit_fullEPKcmS5_mS2_@Base 0.9.8
 _ZZN12kyotocabinet7BasicDB6Cursor9get_valueEPmbEN11VisitorImplD0Ev@Base 0.9.8
 _ZZN12kyotocabinet7BasicDB6Cursor9get_valueEPmbEN11VisitorImplD1Ev@Base 0.9.8
 _ZZN12kyotocabinet7BasicDB6Cursor9get_valueEPmbEN11VisitorImplD2Ev@Base 0.9.8
 _ZZN12kyotocabinet7BasicDB6Cursor9set_valueEPKcmbEN11VisitorImpl10visit_fullES3_mS3_mPm@Base 0.9.8
 _ZZN12kyotocabinet7BasicDB6Cursor9set_valueEPKcmbEN11VisitorImplD0Ev@Base 0.9.8
 _ZZN12kyotocabinet7BasicDB6Cursor9set_valueEPKcmbEN11VisitorImplD1Ev@Base 0.9.8
 _ZZN12kyotocabinet7BasicDB6Cursor9set_valueEPKcmbEN11VisitorImplD2Ev@Base 0.9.8
 _ZZN12kyotocabinet7BasicDB6appendEPKcmS2_mEN11VisitorImpl10visit_fullES2_mS2_mPm@Base 0.9.8
 _ZZN12kyotocabinet7BasicDB6appendEPKcmS2_mEN11VisitorImpl11visit_emptyES2_mPm@Base 0.9.8
 _ZZN12kyotocabinet7BasicDB6appendEPKcmS2_mEN11VisitorImplD0Ev@Base 0.9.8
 _ZZN12kyotocabinet7BasicDB6appendEPKcmS2_mEN11VisitorImplD1Ev@Base 0.9.8
 _ZZN12kyotocabinet7BasicDB6appendEPKcmS2_mEN11VisitorImplD2Ev@Base 0.9.8
 _ZZN12kyotocabinet7BasicDB6removeEPKcmEN11VisitorImpl10visit_fullES2_mS2_mPm@Base 0.9.8
 _ZZN12kyotocabinet7BasicDB6removeEPKcmEN11VisitorImplD0Ev@Base 0.9.8
 _ZZN12kyotocabinet7BasicDB6removeEPKcmEN11VisitorImplD1Ev@Base 0.9.8
 _ZZN12kyotocabinet7BasicDB6removeEPKcmEN11VisitorImplD2Ev@Base 0.9.8
 _ZZN12kyotocabinet7BasicDB7replaceEPKcmS2_mEN11VisitorImpl10visit_fullES2_mS2_mPm@Base 0.9.8
 _ZZN12kyotocabinet7BasicDB7replaceEPKcmS2_mEN11VisitorImplD0Ev@Base 0.9.8
 _ZZN12kyotocabinet7BasicDB7replaceEPKcmS2_mEN11VisitorImplD1Ev@Base 0.9.8
 _ZZN12kyotocabinet7BasicDB7replaceEPKcmS2_mEN11VisitorImplD2Ev@Base 0.9.8
 _ZZN12kyotocabinet7BasicDB9incrementEPKcmllEN11VisitorImpl10visit_fullES2_mS2_mPm@Base 0.9.8
 _ZZN12kyotocabinet7BasicDB9incrementEPKcmllEN11VisitorImpl11visit_emptyES2_mPm@Base 0.9.8
 _ZZN12kyotocabinet7BasicDB9incrementEPKcmllEN11VisitorImplD0Ev@Base 0.9.8
 _ZZN12kyotocabinet7BasicDB9incrementEPKcmllEN11VisitorImplD1Ev@Base 0.9.8
 _ZZN12kyotocabinet7BasicDB9incrementEPKcmllEN11VisitorImplD2Ev@Base 0.9.8
 _ZZN12kyotocabinet7PlantDBINS_6HashDBELh49EE11synchronizeEbPNS_7BasicDB13FileProcessorEPNS3_15ProgressCheckerEEN7Wrapper7processERKSsll@Base 0.9.8
 _ZZN12kyotocabinet7PlantDBINS_6HashDBELh49EE11synchronizeEbPNS_7BasicDB13FileProcessorEPNS3_15ProgressCheckerEEN7WrapperD0Ev@Base 0.9.8
 _ZZN12kyotocabinet7PlantDBINS_6HashDBELh49EE11synchronizeEbPNS_7BasicDB13FileProcessorEPNS3_15ProgressCheckerEEN7WrapperD1Ev@Base 0.9.8
 _ZZN12kyotocabinet7PlantDBINS_6HashDBELh49EE11synchronizeEbPNS_7BasicDB13FileProcessorEPNS3_15ProgressCheckerEEN7WrapperD2Ev@Base 0.9.8
 _ZZN12kyotocabinet7PlantDBINS_6HashDBELh49EE12recalc_countEvEN11VisitorImpl10visit_fullEPKcmS5_mPm@Base 0.9.8
 _ZZN12kyotocabinet7PlantDBINS_6HashDBELh49EE12recalc_countEvEN11VisitorImplD0Ev@Base 0.9.8
 _ZZN12kyotocabinet7PlantDBINS_6HashDBELh49EE12recalc_countEvEN11VisitorImplD1Ev@Base 0.9.8
 _ZZN12kyotocabinet7PlantDBINS_6HashDBELh49EE12recalc_countEvEN11VisitorImplD2Ev@Base 0.9.8
 _ZZN12kyotocabinet7PlantDBINS_6HashDBELh49EE13scan_parallelEPNS_2DB7VisitorEmPNS_7BasicDB15ProgressCheckerEEN11VisitorImpl10visit_fullEPKcmSB_mPm@Base 0.9.8
 _ZZN12kyotocabinet7PlantDBINS_6HashDBELh49EE13scan_parallelEPNS_2DB7VisitorEmPNS_7BasicDB15ProgressCheckerEEN11VisitorImplD0Ev@Base 0.9.8
 _ZZN12kyotocabinet7PlantDBINS_6HashDBELh49EE13scan_parallelEPNS_2DB7VisitorEmPNS_7BasicDB15ProgressCheckerEEN11VisitorImplD1Ev@Base 0.9.8
 _ZZN12kyotocabinet7PlantDBINS_6HashDBELh49EE13scan_parallelEPNS_2DB7VisitorEmPNS_7BasicDB15ProgressCheckerEEN11VisitorImplD2Ev@Base 0.9.8
 _ZZN12kyotocabinet7PlantDBINS_6HashDBELh49EE13scan_parallelEPNS_2DB7VisitorEmPNS_7BasicDB15ProgressCheckerEEN19ProgressCheckerImpl5checkEPKcSB_ll@Base 0.9.8
 _ZZN12kyotocabinet7PlantDBINS_6HashDBELh49EE13scan_parallelEPNS_2DB7VisitorEmPNS_7BasicDB15ProgressCheckerEEN19ProgressCheckerImplD0Ev@Base 0.9.8
 _ZZN12kyotocabinet7PlantDBINS_6HashDBELh49EE13scan_parallelEPNS_2DB7VisitorEmPNS_7BasicDB15ProgressCheckerEEN19ProgressCheckerImplD1Ev@Base 0.9.8
 _ZZN12kyotocabinet7PlantDBINS_6HashDBELh49EE13scan_parallelEPNS_2DB7VisitorEmPNS_7BasicDB15ProgressCheckerEEN19ProgressCheckerImplD2Ev@Base 0.9.8
 _ZZN12kyotocabinet7PlantDBINS_6HashDBELh49EE14load_leaf_nodeElbEN11VisitorImpl10visit_fullEPKcmS5_mPm@Base 0.9.8
 _ZZN12kyotocabinet7PlantDBINS_6HashDBELh49EE14load_leaf_nodeElbEN11VisitorImplD0Ev@Base 0.9.8
 _ZZN12kyotocabinet7PlantDBINS_6HashDBELh49EE14load_leaf_nodeElbEN11VisitorImplD1Ev@Base 0.9.8
 _ZZN12kyotocabinet7PlantDBINS_6HashDBELh49EE14load_leaf_nodeElbEN11VisitorImplD2Ev@Base 0.9.8
 _ZZN12kyotocabinet7PlantDBINS_6HashDBELh49EE15load_inner_nodeElEN11VisitorImpl10visit_fullEPKcmS5_mPm@Base 0.9.8
 _ZZN12kyotocabinet7PlantDBINS_6HashDBELh49EE15load_inner_nodeElEN11VisitorImplD0Ev@Base 0.9.8
 _ZZN12kyotocabinet7PlantDBINS_6HashDBELh49EE15load_inner_nodeElEN11VisitorImplD1Ev@Base 0.9.8
 _ZZN12kyotocabinet7PlantDBINS_6HashDBELh49EE15load_inner_nodeElEN11VisitorImplD2Ev@Base 0.9.8
 _ZZN5boost16exception_detail27get_static_exception_objectINS0_10bad_alloc_EEENS_13exception_ptrEvE2ep@Base 0.9.8
 _ZZN5boost16exception_detail27get_static_exception_objectINS0_14bad_exception_EEENS_13exception_ptrEvE2ep@Base 0.9.8
 _ZZN5boost5uuids6detail8seed_rng25sha1_random_digest_state_EvE5state@Base 0.9.8
 _ZZN5boost6detail11crc_table_tILm32ELj79764919ELb1EE10init_tableEvE8did_init@Base 0.9.8
 _ZZN5boost9function1IvPN4rime7ContextEE9assign_toINS_3_bi6bind_tIvNS_4_mfi3mf1IvNS1_13AsciiComposerES3_EENS6_5list2INS6_5valueIPSA_EENS_3argILi1EEEEEEEEEvT_E13stored_vtable@Base 0.9.8
 _ZZN5boost9function1IvPN4rime7ContextEE9assign_toINS_3_bi6bind_tIvNS_4_mfi3mf1IvNS1_14ConcreteEngineES3_EENS6_5list2INS6_5valueIPSA_EENS_3argILi1EEEEEEEEEvT_E13stored_vtable@Base 0.9.8
 _ZZN5boost9function1IvPN4rime7ContextEE9assign_toINS_3_bi6bind_tIvNS_4_mfi3mf1IvNS1_6MemoryES3_EENS6_5list2INS6_5valueIPSA_EENS_3argILi1EEEEEEEEEvT_E13stored_vtable@Base 0.9.8
 _ZZN5boost9function1IvPN4rime7ContextEE9assign_toINS_3_bi6bind_tIvNS_4_mfi3mf1IvNS1_8SwitcherES3_EENS6_5list2INS6_5valueIPSA_EENS_3argILi1EEEEEEEEEvT_E13stored_vtable@Base 0.9.8
 _ZZN5boost9function1IvRKSsE9assign_toINS_3_bi6bind_tIvNS_4_mfi3mf1IvN4rime7SessionES2_EENS5_5list2INS5_5valueIPSA_EENS_3argILi1EEEEEEEEEvT_E13stored_vtable@Base 0.9.8
 _ZZN5boost9function2INS_14iterator_rangeIN9__gnu_cxx17__normal_iteratorIPKcSsEEEES6_S6_E9assign_toINS_9algorithm6detail13token_finderFINSB_10is_any_ofFIcEEEEEEvT_E13stored_vtable@Base 0.9.8
 _ZZN5boost9function2INS_14iterator_rangeIN9__gnu_cxx17__normal_iteratorIPKcSsEEEES6_S6_E9assign_toINS_9algorithm6detail13token_finderFINSB_14is_classifiedFEEEEEvT_E13stored_vtable@Base 0.9.8
 _ZZN5boost9function2INS_14iterator_rangeIN9__gnu_cxx17__normal_iteratorIPKcSsEEEES6_S6_E9assign_toINS_9algorithm6detail13token_finderFINSB_14is_from_rangeFIcEEEEEEvT_E13stored_vtable@Base 0.9.8
 _ZZN5boost9function2INS_14iterator_rangeIN9__gnu_cxx17__normal_iteratorIPcSsEEEES5_S5_E9assign_toINS_9algorithm6detail13token_finderFINSA_10is_any_ofFIcEEEEEEvT_E13stored_vtable@Base 0.9.8
 _ZZN5boost9function2IbNS_7signals6detail12stored_groupES3_E9assign_toINS2_20group_bridge_compareISt4lessIiEiEEEEvT_E13stored_vtable@Base 0.9.8
 _ZZN5boost9function2IvPN4rime7ContextERKNS1_8KeyEventEE9assign_toINS_3_bi6bind_tIvNS_4_mfi3mf2IvNS1_6MemoryES3_S6_EENS9_5list3INS9_5valueIPSD_EENS_3argILi1EEENSJ_ILi2EEEEEEEEEvT_E13stored_vtable@Base 0.9.8
 _ZZN5boost9function2IvPN4rime7ContextERKSsE9assign_toINS_3_bi6bind_tIvNS_4_mfi3mf2IvNS1_14ConcreteEngineES3_S5_EENS8_5list3INS8_5valueIPSC_EENS_3argILi1EEENSI_ILi2EEEEEEEEEvT_E13stored_vtable@Base 0.9.8
 _ZZN5boost9function2IvPSt6vectorINS_10shared_ptrIN4rime9CandidateEEESaIS5_EES8_E9assign_toINS_3_bi6bind_tIvNS_4_mfi3mf2IvNS3_14ConcreteEngineES8_S8_EENSB_5list3INSB_5valueIPSF_EENS_3argILi1EEENSL_ILi2EEEEEEEEEvT_E13stored_vtable@Base 0.9.8
 _ZZN5boost9function2IvRKSsS2_E9assign_toINS_3_bi6bind_tIvNS_4_mfi3mf3IvN4rime7ServiceEmS2_S2_EENS5_5list4INS5_5valueIPSA_EENSD_IiEENS_3argILi1EEENSH_ILi2EEEEEEEEEvT_E13stored_vtable@Base 0.9.8
 _ZZN5boost9function2IvRKSsS2_E9assign_toINS_3_bi6bind_tIvNS_4_mfi3mf3IvN4rime7ServiceEmS2_S2_EENS5_5list4INS5_5valueIPSA_EENSD_ImEENS_3argILi1EEENSH_ILi2EEEEEEEEEvT_E13stored_vtable@Base 0.9.8
 _ZZN5boost9function3IvmPKcS2_E9assign_toINS_3_bi6bind_tIvPFvPvmS2_S2_ENS5_5list4INS5_5valueIS7_EENS_3argILi1EEENSD_ILi2EEENSD_ILi3EEEEEEEEEvT_E13stored_vtable@Base 0.9.8
 _ZZN5boost9re_detail12perl_matcherIN9__gnu_cxx17__normal_iteratorIPKcSsEESaINS_9sub_matchIS6_EEENS_12regex_traitsIcNS_16cpp_regex_traitsIcEEEEE16match_all_statesEvE14s_match_vtable@Base 0.9.8
 _ZZN5boost9re_detail12perl_matcherIN9__gnu_cxx17__normal_iteratorIPKcSsEESaINS_9sub_matchIS6_EEENS_12regex_traitsIcNS_16cpp_regex_traitsIcEEEEE6unwindEbE14s_unwind_table@Base 0.9.8
 _ZZN5boost9re_detail12perl_matcherIN9__gnu_cxx17__normal_iteratorIPKcSsEESaINS_9sub_matchIS6_EEENS_12regex_traitsIcNS_16cpp_regex_traitsIcEEEEE8find_impEvE13s_find_vtable@Base 0.9.8
 _ZZN5boost9re_detail21basic_regex_formatterINS0_19string_out_iteratorISsEENS_13match_resultsIN9__gnu_cxx17__normal_iteratorIPKcSsEESaINS_9sub_matchIS9_EEEEENS_20regex_traits_wrapperINS_12regex_traitsIcNS_16cpp_regex_traitsIcEEEEEES9_E16handle_perl_verbEbE16LAST_PAREN_MATCH@Base 0.9.8
 _ZZN5boost9re_detail21basic_regex_formatterINS0_19string_out_iteratorISsEENS_13match_resultsIN9__gnu_cxx17__normal_iteratorIPKcSsEESaINS_9sub_matchIS9_EEEEENS_20regex_traits_wrapperINS_12regex_traitsIcNS_16cpp_regex_traitsIcEEEEEES9_E16handle_perl_verbEbE20LAST_SUBMATCH_RESULT@Base 0.9.8
 _ZZN5boost9re_detail21basic_regex_formatterINS0_19string_out_iteratorISsEENS_13match_resultsIN9__gnu_cxx17__normal_iteratorIPKcSsEESaINS_9sub_matchIS9_EEEEENS_20regex_traits_wrapperINS_12regex_traitsIcNS_16cpp_regex_traitsIcEEEEEES9_E16handle_perl_verbEbE24LAST_SUBMATCH_RESULT_ALT@Base 0.9.8
 _ZZN5boost9re_detail21basic_regex_formatterINS0_19string_out_iteratorISsEENS_13match_resultsIN9__gnu_cxx17__normal_iteratorIPKcSsEESaINS_9sub_matchIS9_EEEEENS_20regex_traits_wrapperINS_12regex_traitsIcNS_16cpp_regex_traitsIcEEEEEES9_E16handle_perl_verbEbE5MATCH@Base 0.9.8
 _ZZN5boost9re_detail21basic_regex_formatterINS0_19string_out_iteratorISsEENS_13match_resultsIN9__gnu_cxx17__normal_iteratorIPKcSsEESaINS_9sub_matchIS9_EEEEENS_20regex_traits_wrapperINS_12regex_traitsIcNS_16cpp_regex_traitsIcEEEEEES9_E16handle_perl_verbEbE8PREMATCH@Base 0.9.8
 _ZZN5boost9re_detail21basic_regex_formatterINS0_19string_out_iteratorISsEENS_13match_resultsIN9__gnu_cxx17__normal_iteratorIPKcSsEESaINS_9sub_matchIS9_EEEEENS_20regex_traits_wrapperINS_12regex_traitsIcNS_16cpp_regex_traitsIcEEEEEES9_E16handle_perl_verbEbE9POSTMATCH@Base 0.9.8
