TN:
SF:/home/mornfall/dev/pkg/ept-work/wibble/log/null.h
FN:13,_ZN6wibble3log10NullSender4sendENS0_5LevelERKSs
FN:11,_ZN6wibble3log10NullSenderC1Ev
FN:12,_ZN6wibble3log10NullSenderD0Ev
FN:12,_ZN6wibble3log10NullSenderD1Ev
DA:11,1
DA:12,1
DA:13,4
BA:12,0
BA:12,0
BA:12,1
BA:12,2
LF:3
LH:3
end_of_record
SF:/home/mornfall/dev/pkg/ept-work/wibble/log/ostream.h
FN:18,_ZN6wibble3log13OstreamSenderD1Ev
DA:18,1
BA:18,1
BA:18,2
LF:1
LH:1
end_of_record
SF:/home/mornfall/dev/pkg/ept-work/wibble/log/stream.h
FN:23,_ZN6wibble3log6SenderC2Ev
FN:24,_ZN6wibble3log6SenderD2Ev
FN:24,_ZN6wibble3log6SenderD0Ev
FN:24,_ZN6wibble3log6SenderD1Ev
DA:23,4
DA:24,4
BA:24,1
BA:24,2
BA:24,0
BA:24,0
BA:24,0
BA:24,0
LF:2
LH:2
end_of_record
SF:/home/mornfall/dev/pkg/ept-work/wibble/test.h
FN:52,_ZlsIN6wibble3log5LevelEER12AssertFailedS4_T_
FN:17,_ZN8LocationC1EPKciSs
FN:13,_ZN8LocationC1ERKS_
FN:52,_ZlsISsER12AssertFailedS1_T_
FN:41,_ZN12AssertFailedD1Ev
FN:13,_ZN8LocationD1Ev
FN:33,_ZN12AssertFailedC1E8LocationRSo
FN:59,_Z9assert_fnIbEv8LocationT_
FN:52,_ZlsIPKcER12AssertFailedS3_T_
FN:67,_Z12assert_eq_fnIN6wibble3log5LevelES2_Ev8LocationT_T0_
FN:52,_ZlsIjER12AssertFailedS1_T_
FN:67,_Z12assert_eq_fnIjjEv8LocationT_T0_
FN:67,_Z12assert_eq_fnISsPKcEv8LocationT_T0_
DA:13,0
DA:17,0
DA:18,0
DA:33,0
DA:34,0
DA:36,0
DA:38,0
DA:39,0
DA:41,0
DA:42,0
DA:43,0
DA:45,0
DA:46,0
DA:48,0
DA:52,0
DA:54,0
DA:55,0
DA:59,0
DA:61,0
DA:62,0
DA:64,0
DA:67,3
DA:69,3
DA:70,0
DA:71,0
DA:75,3
BA:42,0
BA:42,0
BA:61,0
BA:61,0
BA:69,1
BA:69,2
BA:69,0
BA:69,0
BA:69,0
BA:69,0
LF:26
LH:3
end_of_record
SF:/home/mornfall/dev/pkg/ept-work/wibble/log.test.h
FN:27,_ZN12_GLOBAL__N_17TestLog7Sender1C1Ev
FN:31,_ZN12_GLOBAL__N_17TestLog7Sender1D0Ev
FN:31,_ZN12_GLOBAL__N_17TestLog7Sender1D1Ev
FN:124,_ZN12_GLOBAL__N_17TestLog13ostreamSenderEv
FN:81,_ZN12_GLOBAL__N_17TestLog10nullSenderEv
FN:102,_ZN12_GLOBAL__N_17TestLog10fileSenderEv
FN:34,_ZN12_GLOBAL__N_17TestLog7Sender14sendEN6wibble3log5LevelERKSs
FN:47,_ZN12_GLOBAL__N_17TestLog9streambufEv
DA:27,1
DA:31,1
DA:34,3
DA:36,3
DA:37,3
DA:47,1
DA:50,1
DA:52,1
DA:53,1
DA:56,1
DA:57,1
DA:58,2
DA:59,2
DA:63,1
DA:64,1
DA:65,2
DA:66,2
DA:69,1
DA:70,1
DA:73,1
DA:74,2
DA:75,2
DA:78,1
DA:81,1
DA:84,1
DA:85,1
DA:87,1
DA:88,1
DA:91,1
DA:95,1
DA:98,1
DA:99,1
DA:102,1
DA:106,1
DA:107,2
DA:109,1
DA:110,1
DA:113,1
DA:117,1
DA:120,1
DA:121,1
DA:124,1
DA:127,1
DA:128,1
DA:130,1
DA:131,1
DA:133,1
DA:134,1
DA:137,1
DA:141,1
DA:144,1
DA:145,1
BA:31,0
BA:31,0
BA:31,1
BA:31,2
LF:52
LH:52
end_of_record
SF:/srv/build/pkg/ept-work/default/wibble/wibble-test-generated-_home_mornfall_dev_pkg_ept-work_wibble_log.cpp
FN:6,_Z41__static_initialization_and_destruction_0ii
FN:6,_GLOBAL__I__Z17run_Log_streambufv
FN:6,_Z21run_Log_ostreamSenderv
FN:4,_Z18run_Log_nullSenderv
FN:5,_Z18run_Log_fileSenderv
FN:3,_Z17run_Log_streambufv
DA:3,1
DA:4,1
DA:5,1
DA:6,4
BA:6,2
BA:6,1
BA:6,2
BA:6,1
LF:4
LH:4
end_of_record
SF:/usr/include/c++/4.3/bits/allocator.h
FN:98,_ZNSaIcEC1Ev
FN:106,_ZNSaIcED2Ev
FN:106,_ZNSaIcED1Ev
FN:100,_ZNSaIcEC2ERKS_
FN:100,_ZNSaIcEC1ERKS_
FN:106,_ZNSaISt4pairIN6wibble3log5LevelESsEED2Ev
FN:98,_ZNSaISt4pairIN6wibble3log5LevelESsEEC2Ev
FN:118,_ZSteqIcEbRKSaIT_ES3_
DA:98,1
DA:100,0
DA:101,0
DA:106,1
DA:118,0
DA:119,0
LF:6
LH:2
end_of_record
SF:/usr/include/c++/4.3/bits/basic_ios.h
FN:131,_ZNKSt9basic_iosIcSt11char_traitsIcEE7rdstateEv
FN:195,_ZNKSt9basic_iosIcSt11char_traitsIcEE4failEv
FN:454,_ZNSt9basic_iosIcSt11char_traitsIcEEC2Ev
FN:151,_ZNSt9basic_iosIcSt11char_traitsIcEE8setstateESt12_Ios_Iostate
FN:276,_ZNSt9basic_iosIcSt11char_traitsIcEED2Ev
FN:51,_ZSt13__check_facetISt5ctypeIcEERKT_PS3_
FN:443,_ZNKSt9basic_iosIcSt11char_traitsIcEE5widenEc
DA:51,0
DA:53,0
DA:54,0
DA:55,0
DA:131,0
DA:132,0
DA:151,0
DA:152,0
DA:195,0
DA:196,0
DA:276,0
DA:443,0
DA:444,0
DA:454,0
DA:456,0
DA:457,0
BA:53,0
BA:53,0
BA:276,0
BA:276,0
LF:16
LH:0
end_of_record
SF:/usr/include/c++/4.3/bits/basic_string.h
FN:277,_ZNKSs7_M_dataEv
FN:258,_ZNSs12_Alloc_hiderD1Ev
FN:285,_ZNKSs6_M_repEv
FN:606,_ZNKSs4sizeEv
FN:214,_ZNSs4_Rep10_M_refdataEv
FN:1544,_ZNKSs4dataEv
FN:178,_ZNSs4_Rep12_S_empty_repEv
FN:411,_ZNSs12_S_empty_repEv
FN:259,_ZNSs12_Alloc_hiderC1EPcRKSaIcE
FN:2067,_ZNSsC1Ev
FN:1551,_ZNKSs13get_allocatorEv
FN:200,_ZNSs4_Rep15_M_set_sharableEv
FN:204,_ZNSs4_Rep26_M_set_length_and_sharableEj
FN:2421,_ZStlsIcSt11char_traitsIcESaIcEERSt13basic_ostreamIT_T0_ES7_RKSbIS4_S5_T1_E
FN:339,_ZNSs7_M_copyEPcPKcj
FN:384,_ZNSs13_S_copy_charsEPcS_S_
FN:1462,_ZNSs16_S_construct_auxIPcEES0_T_S1_RKSaIcESt12__false_type
FN:1478,_ZNSs12_S_constructIPcEES0_T_S1_RKSaIcE
FN:501,_ZNSsaSERKSs
FN:229,_ZNSs4_Rep10_M_disposeERKSaIcE
FN:493,_ZNSsD1Ev
FN:2188,_ZSteqIcSt11char_traitsIcESaIcEEbRKSbIT_T0_T1_EPKS3_
DA:178,0
DA:183,0
DA:184,0
DA:200,0
DA:201,0
DA:204,0
DA:206,0
DA:207,0
DA:208,0
DA:211,0
DA:214,0
DA:215,0
DA:229,0
DA:232,0
DA:234,0
DA:236,0
DA:237,0
DA:258,0
DA:259,0
DA:260,0
DA:277,0
DA:278,0
DA:285,0
DA:286,0
DA:339,0
DA:341,0
DA:342,0
DA:344,0
DA:345,0
DA:384,0
DA:385,0
DA:411,0
DA:412,0
DA:493,0
DA:494,0
DA:501,0
DA:502,0
DA:606,0
DA:607,0
DA:1462,0
DA:1465,0
DA:1478,0
DA:1481,0
DA:1544,0
DA:1545,0
DA:1551,0
DA:1552,0
DA:2067,0
DA:2069,0
DA:2188,0
DA:2189,0
DA:2421,0
DA:2425,0
BA:232,0
BA:232,0
BA:234,0
BA:234,0
BA:341,0
BA:341,0
LF:53
LH:0
end_of_record
SF:/usr/include/c++/4.3/bits/basic_string.tcc
FN:130,_ZNSs12_S_constructIPcEES0_T_S1_RKSaIcESt20forward_iterator_tag
FN:234,_ZNSsC1IPcEET_S1_RKSaIcE
DA:130,0
DA:133,0
DA:134,0
DA:137,0
DA:139,0
DA:142,0
DA:144,0
DA:146,0
DA:147,0
DA:149,0
DA:150,0
DA:152,0
DA:153,0
DA:234,0
DA:235,0
DA:236,0
BA:133,0
BA:133,0
BA:133,0
BA:133,0
BA:133,0
BA:133,0
BA:133,0
BA:133,0
BA:137,0
BA:137,0
BA:137,0
BA:137,0
BA:137,0
BA:137,0
LF:16
LH:0
end_of_record
SF:/usr/include/c++/4.3/bits/char_traits.h
FN:245,_ZNSt11char_traitsIcE6assignERcRKc
FN:273,_ZNSt11char_traitsIcE4copyEPcPKcj
FN:261,_ZNSt11char_traitsIcE6lengthEPKc
DA:245,0
DA:246,0
DA:261,0
DA:262,0
DA:273,0
DA:274,0
LF:6
LH:0
end_of_record
SF:/usr/include/c++/4.3/bits/ios_base.h
FN:125,_ZStorSt13_Ios_OpenmodeS_
FN:159,_ZStanSt12_Ios_IostateS_
FN:163,_ZStorSt12_Ios_IostateS_
DA:125,0
DA:126,0
DA:159,0
DA:160,0
DA:163,0
DA:164,0
LF:6
LH:0
end_of_record
SF:/usr/include/c++/4.3/bits/locale_facets.h
FN:1165,_ZNKSt5ctypeIcE13_M_widen_initEv
FN:871,_ZNKSt5ctypeIcE5widenEc
DA:871,0
DA:873,0
DA:874,0
DA:875,0
DA:876,0
DA:1165,0
DA:1168,0
DA:1169,0
DA:1170,0
DA:1172,0
DA:1174,0
DA:1175,0
DA:1176,0
BA:873,0
BA:873,0
BA:1168,0
BA:1168,0
BA:1174,0
BA:1174,0
LF:13
LH:0
end_of_record
SF:/usr/include/c++/4.3/bits/stl_algobase.h
FN:286,_ZNSt12__miter_baseIPSt4pairIN6wibble3log5LevelESsELb0EE3__bES5_
FN:210,_ZSt3maxIjERKT_S2_S2_
FN:268,_ZNSt12__niter_baseIPSt4pairIN6wibble3log5LevelESsELb0EE3__bES5_
FN:539,_ZNSt20__copy_move_backwardILb0ELb0ESt26random_access_iterator_tagE13__copy_move_bIPSt4pairIN6wibble3log5LevelESsES8_EET0_T_SA_S9_
FN:579,_ZSt22__copy_move_backward_aILb0EPSt4pairIN6wibble3log5LevelESsES5_ET1_T0_S7_S6_
FN:597,_ZSt23__copy_move_backward_a2ILb0EPSt4pairIN6wibble3log5LevelESsES5_ET1_T0_S7_S6_
FN:624,_ZSt13copy_backwardIPSt4pairIN6wibble3log5LevelESsES5_ET0_T_S7_S6_
DA:210,0
DA:215,0
DA:216,0
DA:217,0
DA:268,0
DA:269,0
DA:286,0
DA:287,0
DA:539,0
DA:542,0
DA:543,0
DA:544,0
DA:579,0
DA:587,0
DA:592,0
DA:597,0
DA:602,0
DA:624,0
DA:636,0
BA:215,0
BA:215,0
BA:542,0
BA:542,0
LF:19
LH:0
end_of_record
SF:/usr/include/c++/4.3/bits/stl_construct.h
FN:87,_ZSt8_DestroyISt4pairIN6wibble3log5LevelESsEEvPT_
FN:97,_ZSt8_DestroyIPSt4pairIN6wibble3log5LevelESsEEvT_S6_
FN:126,_ZSt8_DestroyIPSt4pairIN6wibble3log5LevelESsES4_EvT_S6_RSaIT0_E
DA:87,6
DA:88,6
DA:97,4
DA:101,10
DA:103,6
DA:104,4
DA:126,4
DA:128,4
DA:129,4
BA:101,2
BA:101,2
LF:9
LH:9
end_of_record
SF:/usr/include/c++/4.3/bits/stl_iterator.h
FN:747,_ZNK9__gnu_cxx17__normal_iteratorIPSt4pairIN6wibble3log5LevelESsESt6vectorIS5_SaIS5_EEE4baseEv
FN:695,_ZNK9__gnu_cxx17__normal_iteratorIPSt4pairIN6wibble3log5LevelESsESt6vectorIS5_SaIS5_EEEdeEv
FN:683,_ZN9__gnu_cxx17__normal_iteratorIPSt4pairIN6wibble3log5LevelESsESt6vectorIS5_SaIS5_EEEC1ERKS6_
DA:683,3
DA:695,0
DA:696,0
DA:747,6
DA:748,6
LF:5
LH:3
end_of_record
SF:/usr/include/c++/4.3/bits/stl_iterator_base_funcs.h
FN:93,_ZSt10__distanceIPcENSt15iterator_traitsIT_E15difference_typeES2_S2_St26random_access_iterator_tag
FN:115,_ZSt8distanceIPcENSt15iterator_traitsIT_E15difference_typeES2_S2_
DA:93,0
DA:98,0
DA:115,0
DA:119,0
LF:4
LH:0
end_of_record
SF:/usr/include/c++/4.3/bits/stl_iterator_base_types.h
FN:166,_ZSt19__iterator_categoryIPcENSt15iterator_traitsIT_E17iterator_categoryERKS2_
DA:166,0
DA:167,0
LF:2
LH:0
end_of_record
SF:/usr/include/c++/4.3/bits/stl_pair.h
FN:88,_ZNSt4pairIN6wibble3log5LevelESsEC1ERKS2_RKSs
FN:218,_ZSt9make_pairIN6wibble3log5LevelESsESt4pairIT_T0_ES4_S5_
FN:73,_ZNSt4pairIN6wibble3log5LevelESsEC1ERKS3_
FN:73,_ZNSt4pairIN6wibble3log5LevelESsEaSERKS3_
FN:73,_ZNSt4pairIN6wibble3log5LevelESsED1Ev
DA:73,15
DA:88,3
DA:89,3
DA:218,3
DA:219,3
LF:5
LH:5
end_of_record
SF:/usr/include/c++/4.3/bits/stl_uninitialized.h
FN:73,_ZNSt20__uninitialized_copyILb0EE18uninitialized_copyIPSt4pairIN6wibble3log5LevelESsES7_EET0_T_S9_S8_
FN:113,_ZSt18uninitialized_copyIPSt4pairIN6wibble3log5LevelESsES5_ET0_T_S7_S6_
FN:261,_ZSt22__uninitialized_copy_aIPSt4pairIN6wibble3log5LevelESsES5_S4_ET0_T_S7_S6_RSaIT1_E
FN:268,_ZSt22__uninitialized_move_aIPSt4pairIN6wibble3log5LevelESsES5_SaIS4_EET0_T_S8_S7_RT1_
DA:73,6
DA:75,6
DA:78,9
DA:79,3
DA:81,6
DA:83,0
DA:85,0
DA:86,0
DA:113,6
DA:122,6
DA:261,6
DA:262,6
DA:268,6
DA:272,6
BA:78,2
BA:78,2
BA:79,2
BA:79,1
LF:14
LH:11
end_of_record
SF:/usr/include/c++/4.3/bits/stl_vector.h
FN:484,_ZNKSt6vectorISt4pairIN6wibble3log5LevelESsESaIS4_EE4sizeEv
FN:562,_ZNSt6vectorISt4pairIN6wibble3log5LevelESsESaIS4_EEixEj
FN:97,_ZNSt12_Vector_baseISt4pairIN6wibble3log5LevelESsESaIS4_EE19_M_get_Tp_allocatorEv
FN:395,_ZNSt6vectorISt4pairIN6wibble3log5LevelESsESaIS4_EE3endEv
FN:79,_ZNSt12_Vector_baseISt4pairIN6wibble3log5LevelESsESaIS4_EE12_Vector_implD1Ev
FN:101,_ZNKSt12_Vector_baseISt4pairIN6wibble3log5LevelESsESaIS4_EE19_M_get_Tp_allocatorEv
FN:489,_ZNKSt6vectorISt4pairIN6wibble3log5LevelESsESaIS4_EE8max_sizeEv
FN:84,_ZNSt12_Vector_baseISt4pairIN6wibble3log5LevelESsESaIS4_EE12_Vector_implC1Ev
FN:108,_ZNSt12_Vector_baseISt4pairIN6wibble3log5LevelESsESaIS4_EEC2Ev
FN:213,_ZNSt6vectorISt4pairIN6wibble3log5LevelESsESaIS4_EEC1Ev
FN:147,_ZNSt12_Vector_baseISt4pairIN6wibble3log5LevelESsESaIS4_EE13_M_deallocateEPS4_j
FN:135,_ZNSt12_Vector_baseISt4pairIN6wibble3log5LevelESsESaIS4_EED2Ev
FN:299,_ZNSt6vectorISt4pairIN6wibble3log5LevelESsESaIS4_EED1Ev
FN:1075,_ZNKSt6vectorISt4pairIN6wibble3log5LevelESsESaIS4_EE12_M_check_lenEjPKc
FN:143,_ZNSt12_Vector_baseISt4pairIN6wibble3log5LevelESsESaIS4_EE11_M_allocateEj
FN:686,_ZNSt6vectorISt4pairIN6wibble3log5LevelESsESaIS4_EE9push_backERKS4_
DA:79,1
DA:84,1
DA:85,1
DA:86,1
DA:97,10
DA:98,10
DA:101,6
DA:102,6
DA:108,1
DA:109,1
DA:135,1
DA:136,1
DA:137,1
DA:143,3
DA:144,3
DA:147,4
DA:149,4
DA:150,3
DA:151,4
DA:213,1
DA:214,1
DA:299,1
DA:300,1
DA:301,1
DA:395,3
DA:396,3
DA:484,16
DA:485,16
DA:489,6
DA:490,6
DA:562,6
DA:563,6
DA:686,3
DA:688,3
DA:690,0
DA:691,0
DA:694,3
DA:695,3
DA:1075,3
DA:1077,3
DA:1078,0
DA:1080,3
DA:1081,3
BA:144,2
BA:144,1
BA:149,2
BA:149,2
BA:688,1
BA:688,2
BA:1077,1
BA:1077,2
BA:1081,2
BA:1081,1
BA:1081,1
BA:1081,2
LF:43
LH:40
end_of_record
SF:/usr/include/c++/4.3/bits/vector.tcc
FN:283,_ZNSt6vectorISt4pairIN6wibble3log5LevelESsESaIS4_EE13_M_insert_auxEN9__gnu_cxx17__normal_iteratorIPS4_S6_EERKS4_
DA:283,3
DA:286,3
DA:288,0
DA:291,0
DA:293,0
DA:295,0
DA:299,0
DA:307,3
DA:308,3
DA:309,3
DA:316,3
DA:321,3
DA:323,3
DA:324,3
DA:330,0
DA:332,0
DA:333,0
DA:334,0
DA:336,3
DA:338,3
DA:341,3
DA:342,3
DA:343,3
DA:345,3
BA:286,1
BA:286,2
LF:24
LH:15
end_of_record
SF:/usr/include/c++/4.3/ext/atomicity.h
FN:67,_ZN9__gnu_cxxL25__exchange_and_add_singleEPii
FN:50,_ZN9__gnu_cxxL18__exchange_and_addEPVii
FN:80,_ZN9__gnu_cxxL27__exchange_and_add_dispatchEPii
DA:50,0
DA:51,0
DA:67,0
DA:69,0
DA:70,0
DA:71,0
DA:80,0
DA:83,0
DA:84,0
DA:86,0
BA:83,0
BA:83,0
LF:10
LH:0
end_of_record
SF:/usr/include/c++/4.3/ext/new_allocator.h
FN:69,_ZN9__gnu_cxx13new_allocatorIcEC2Ev
FN:76,_ZN9__gnu_cxx13new_allocatorIcED2Ev
FN:71,_ZN9__gnu_cxx13new_allocatorIcEC2ERKS1_
FN:76,_ZN9__gnu_cxx13new_allocatorISt4pairIN6wibble3log5LevelESsEED2Ev
FN:101,_ZNK9__gnu_cxx13new_allocatorISt4pairIN6wibble3log5LevelESsEE8max_sizeEv
FN:69,_ZN9__gnu_cxx13new_allocatorISt4pairIN6wibble3log5LevelESsEEC2Ev
FN:97,_ZN9__gnu_cxx13new_allocatorISt4pairIN6wibble3log5LevelESsEE10deallocateEPS5_j
FN:107,_ZN9__gnu_cxx13new_allocatorISt4pairIN6wibble3log5LevelESsEE9constructEPS5_RKS5_
FN:87,_ZN9__gnu_cxx13new_allocatorISt4pairIN6wibble3log5LevelESsEE8allocateEjPKv
DA:69,1
DA:71,0
DA:76,1
DA:87,3
DA:89,3
DA:90,0
DA:92,3
DA:97,3
DA:98,3
DA:101,9
DA:102,9
DA:107,3
DA:108,3
BA:89,1
BA:89,2
BA:108,2
BA:108,1
LF:13
LH:11
end_of_record
SF:/usr/include/c++/4.3/ext/type_traits.h
FN:154,_ZN9__gnu_cxx17__is_null_pointerIcEEbPT_
DA:154,0
DA:155,0
LF:2
LH:0
end_of_record
SF:/usr/include/c++/4.3/fstream
FN:626,_ZNSt14basic_ofstreamIcSt11char_traitsIcEE4openEPKcSt13_Ios_Openmode
FN:215,_ZNSt13basic_filebufIcSt11char_traitsIcEED1Ev
FN:572,_ZNSt14basic_ofstreamIcSt11char_traitsIcEEC1EPKcSt13_Ios_Openmode
FN:585,_ZNSt14basic_ofstreamIcSt11char_traitsIcEED1Ev
DA:215,0
DA:216,0
DA:572,0
DA:573,0
DA:575,0
DA:576,0
DA:577,0
DA:585,0
DA:586,0
DA:626,0
DA:628,0
DA:629,0
DA:633,0
DA:634,0
BA:216,0
BA:216,0
BA:586,0
BA:586,0
BA:586,0
BA:586,0
BA:586,0
BA:586,0
BA:628,0
BA:628,0
LF:14
LH:0
end_of_record
SF:/usr/include/c++/4.3/i486-linux-gnu/bits/gthr-default.h
FN:212,_ZL18__gthread_active_pv
DA:212,0
DA:216,0
LF:2
LH:0
end_of_record
SF:/usr/include/c++/4.3/iosfwd
FN:68,_ZNSt15basic_stringbufIcSt11char_traitsIcESaIcEED1Ev
DA:68,0
BA:68,0
BA:68,0
LF:1
LH:0
end_of_record
SF:/usr/include/c++/4.3/iostream
DA:77,1
LF:1
LH:1
end_of_record
SF:/usr/include/c++/4.3/new
FN:105,_ZnwjPv
FN:109,_ZdlPvS_
DA:105,0
DA:109,0
LF:2
LH:0
end_of_record
SF:/usr/include/c++/4.3/ostream
FN:112,_ZNSolsEPFRSoS_E
FN:365,_ZNSoC2Ev
FN:95,_ZNSoD2Ev
FN:86,_ZNSoC1EPSt15basic_streambufIcSt11char_traitsIcEE
FN:95,_ZNSoD1Ev
FN:512,_ZStlsISt11char_traitsIcEERSt13basic_ostreamIcT_ES5_PKc
FN:566,_ZSt5flushIcSt11char_traitsIcEERSt13basic_ostreamIT_T0_ES6_
FN:545,_ZSt4endlIcSt11char_traitsIcEERSt13basic_ostreamIT_T0_ES6_
FN:195,_ZNSolsEj
DA:86,0
DA:87,0
DA:95,0
DA:112,0
DA:117,0
DA:195,0
DA:199,0
DA:365,0
DA:366,0
DA:512,0
DA:514,0
DA:515,0
DA:517,0
DA:519,0
DA:545,0
DA:546,0
DA:566,0
DA:567,0
BA:95,0
BA:95,0
BA:95,0
BA:95,0
BA:95,0
BA:95,0
BA:95,0
BA:95,0
BA:514,0
BA:514,0
LF:18
LH:0
end_of_record
SF:/usr/include/c++/4.3/sstream
FN:96,_ZNSt15basic_stringbufIcSt11char_traitsIcESaIcEEC1ESt13_Ios_Openmode
FN:402,_ZNSt19basic_ostringstreamIcSt11char_traitsIcESaIcEEC1ESt13_Ios_Openmode
FN:431,_ZNSt19basic_ostringstreamIcSt11char_traitsIcESaIcEED1Ev
FN:124,_ZNKSt15basic_stringbufIcSt11char_traitsIcESaIcEE3strEv
FN:450,_ZNKSt19basic_ostringstreamIcSt11char_traitsIcESaIcEE3strEv
DA:96,0
DA:97,0
DA:98,0
DA:124,0
DA:126,0
DA:127,0
DA:130,0
DA:131,0
DA:133,0
DA:136,0
DA:137,0
DA:402,0
DA:403,0
DA:404,0
DA:431,0
DA:432,0
DA:450,0
DA:451,0
BA:127,0
BA:127,0
BA:130,0
BA:130,0
BA:432,0
BA:432,0
BA:432,0
BA:432,0
BA:432,0
BA:432,0
LF:18
LH:0
end_of_record
SF:/usr/include/c++/4.3/streambuf
FN:513,_ZNKSt15basic_streambufIcSt11char_traitsIcEE4pptrEv
FN:469,_ZNKSt15basic_streambufIcSt11char_traitsIcEE5egptrEv
FN:510,_ZNKSt15basic_streambufIcSt11char_traitsIcEE5pbaseEv
FN:197,_ZNSt15basic_streambufIcSt11char_traitsIcEED2Ev
FN:444,_ZNSt15basic_streambufIcSt11char_traitsIcEEC2Ev
DA:197,0
DA:198,0
DA:444,0
DA:447,0
DA:448,0
DA:469,0
DA:510,0
DA:513,0
BA:198,0
BA:198,0
LF:8
LH:0
end_of_record
TN:
SF:/home/mornfall/dev/pkg/ept-work/wibble/exception.h
FN:190,_ZNK6wibble9exception7Generic4typeEv
FN:137,_ZN6wibble9exception7ContextD2Ev
FN:187,_ZN6wibble9exception7GenericD2Ev
FN:395,_ZN6wibble9exception6SystemD1Ev
FN:193,_ZNK6wibble9exception7Generic4descEv
FN:213,_ZNK6wibble9exception7Generic4whatEv
FN:187,_ZN6wibble9exception7GenericD0Ev
FN:187,_ZN6wibble9exception7GenericD1Ev
FN:154,_ZNK6wibble9exception7Context13formatContextEv
FN:205,_ZNK6wibble9exception7Generic8fullInfoEv
DA:137,0
DA:154,0
DA:155,0
DA:156,0
DA:157,0
DA:159,0
DA:161,0
DA:162,0
DA:163,0
DA:187,0
DA:190,0
DA:193,0
DA:194,0
DA:195,0
DA:205,0
DA:206,0
DA:207,0
DA:209,0
DA:210,0
DA:213,0
DA:395,0
BA:156,0
BA:156,0
BA:187,0
BA:187,0
BA:187,0
BA:187,0
BA:187,0
BA:187,0
BA:207,0
BA:207,0
BA:395,0
BA:395,0
LF:21
LH:0
end_of_record
SF:/home/mornfall/dev/pkg/ept-work/wibble/sys/childprocess.h
FN:52,_ZN6wibble3sys12ChildProcessC2Ev
FN:53,_ZN6wibble3sys12ChildProcessD0Ev
FN:53,_ZN6wibble3sys12ChildProcessD1Ev
FN:53,_ZN6wibble3sys12ChildProcessD2Ev
DA:52,4
DA:53,4
BA:53,0
BA:53,0
BA:53,0
BA:53,0
BA:53,1
BA:53,2
LF:2
LH:2
end_of_record
SF:/home/mornfall/dev/pkg/ept-work/wibble/sys/exec.h
FN:80,_ZN6wibble3sys4ExecC2ERKSs
FN:43,_ZN6wibble3sys4ExecD2Ev
FN:97,_ZN6wibble3sys12ShellCommandD0Ev
FN:97,_ZN6wibble3sys12ShellCommandD1Ev
FN:99,_ZN6wibble3sys12ShellCommandC1ERKSs
FN:80,_ZN6wibble3sys4ExecC1ERKSs
FN:43,_ZN6wibble3sys4ExecD1Ev
DA:43,2
DA:80,2
DA:81,2
DA:83,2
DA:84,2
DA:97,1
DA:99,1
DA:101,2
DA:102,1
DA:103,1
DA:104,1
DA:105,1
BA:43,1
BA:43,2
BA:43,1
BA:43,2
BA:97,0
BA:97,0
BA:97,1
BA:97,2
LF:12
LH:12
end_of_record
SF:/home/mornfall/dev/pkg/ept-work/wibble/test.h
FN:13,_ZN8LocationC1ERKS_
FN:17,_ZN8LocationC1EPKciSs
FN:52,_ZlsIiER12AssertFailedS1_T_
FN:52,_ZlsISsER12AssertFailedS1_T_
FN:52,_ZlsIPKcER12AssertFailedS3_T_
FN:33,_ZN12AssertFailedC1E8LocationRSo
FN:41,_ZN12AssertFailedD1Ev
FN:13,_ZN8LocationD1Ev
FN:59,_Z9assert_fnIbEv8LocationT_
FN:67,_Z12assert_eq_fnIiiEv8LocationT_T0_
FN:67,_Z12assert_eq_fnISsPKcEv8LocationT_T0_
DA:13,0
DA:17,0
DA:18,0
DA:33,0
DA:34,0
DA:36,0
DA:38,0
DA:39,0
DA:41,0
DA:42,0
DA:43,0
DA:45,0
DA:46,0
DA:48,0
DA:52,0
DA:54,0
DA:55,0
DA:59,0
DA:61,0
DA:62,0
DA:64,0
DA:67,0
DA:69,0
DA:70,0
DA:71,0
DA:75,0
BA:42,0
BA:42,0
BA:61,0
BA:61,0
BA:69,0
BA:69,0
BA:69,0
BA:69,0
LF:26
LH:0
end_of_record
SF:/home/mornfall/dev/pkg/ept-work/wibble/sys/childprocess.test.h
FN:16,_ZN12EndlessChildC1Ev
FN:27,_ZN9TestChildC1Ev
FN:27,_ZN9TestChildD0Ev
FN:27,_ZN9TestChildD1Ev
FN:16,_ZN12EndlessChildD0Ev
FN:16,_ZN12EndlessChildD1Ev
FN:29,_ZN9TestChild4mainEv
FN:55,_ZN16TestChildprocess4killEv
FN:36,_Z6suckFdi
FN:107,_ZN16TestChildprocess12shellCommandEv
FN:91,_ZN16TestChildprocess8redirectEv
FN:76,_ZN16TestChildprocess6outputEv
FN:18,_ZN12EndlessChild4mainEv
DA:16,2
DA:18,0
DA:20,0
DA:21,0
DA:27,2
DA:29,0
DA:31,0
DA:32,0
DA:36,3
DA:38,3
DA:40,21
DA:42,24
DA:43,24
DA:44,3
DA:45,21
DA:46,0
DA:47,21
DA:49,0
DA:55,1
DA:56,1
DA:59,1
DA:62,1
DA:65,1
DA:68,1
DA:71,1
DA:72,2
DA:73,1
DA:76,1
DA:77,1
DA:81,1
DA:82,1
DA:85,2
DA:88,1
DA:89,1
DA:91,1
DA:92,1
DA:93,2
DA:97,2
DA:98,1
DA:101,2
DA:104,1
DA:105,1
DA:107,1
DA:108,1
DA:112,2
DA:113,1
DA:116,2
DA:119,1
DA:120,1
BA:16,0
BA:16,0
BA:16,1
BA:16,2
BA:27,0
BA:27,0
BA:27,1
BA:27,2
BA:43,2
BA:43,2
BA:45,1
BA:45,2
LF:49
LH:41
end_of_record
SF:/srv/build/pkg/ept-work/default/wibble/wibble-test-generated-_home_mornfall_dev_pkg_ept-work_wibble_sys_childprocess.cpp
FN:6,_Z41__static_initialization_and_destruction_0ii
FN:6,_GLOBAL__I__Z6suckFdi
FN:3,_Z21run_Childprocess_killv
FN:6,_Z29run_Childprocess_shellCommandv
FN:5,_Z25run_Childprocess_redirectv
FN:4,_Z23run_Childprocess_outputv
DA:3,1
DA:4,1
DA:5,1
DA:6,4
BA:6,2
BA:6,1
BA:6,2
BA:6,1
LF:4
LH:4
end_of_record
SF:/usr/include/c++/4.3/bits/allocator.h
FN:98,_ZNSaIcEC1Ev
FN:106,_ZNSaIcED2Ev
FN:106,_ZNSaIcED1Ev
FN:100,_ZNSaIcEC2ERKS_
FN:100,_ZNSaIcEC1ERKS_
FN:106,_ZNSaISsED2Ev
FN:98,_ZNSaISsEC2Ev
FN:118,_ZSteqIcEbRKSaIT_ES3_
DA:98,0
DA:100,0
DA:101,0
DA:106,0
DA:118,0
DA:119,0
LF:6
LH:0
end_of_record
SF:/usr/include/c++/4.3/bits/basic_ios.h
FN:131,_ZNKSt9basic_iosIcSt11char_traitsIcEE7rdstateEv
FN:454,_ZNSt9basic_iosIcSt11char_traitsIcEEC2Ev
FN:276,_ZNSt9basic_iosIcSt11char_traitsIcEED2Ev
FN:151,_ZNSt9basic_iosIcSt11char_traitsIcEE8setstateESt12_Ios_Iostate
FN:51,_ZSt13__check_facetISt5ctypeIcEERKT_PS3_
FN:443,_ZNKSt9basic_iosIcSt11char_traitsIcEE5widenEc
DA:51,0
DA:53,0
DA:54,0
DA:55,0
DA:131,0
DA:132,0
DA:151,0
DA:152,0
DA:276,0
DA:443,0
DA:444,0
DA:454,0
DA:456,0
DA:457,0
BA:53,0
BA:53,0
BA:276,0
BA:276,0
LF:14
LH:0
end_of_record
SF:/usr/include/c++/4.3/bits/basic_string.h
FN:277,_ZNKSs7_M_dataEv
FN:1534,_ZNKSs5c_strEv
FN:258,_ZNSs12_Alloc_hiderD1Ev
FN:285,_ZNKSs6_M_repEv
FN:606,_ZNKSs4sizeEv
FN:686,_ZNKSs5emptyEv
FN:612,_ZNKSs6lengthEv
FN:214,_ZNSs4_Rep10_M_refdataEv
FN:1544,_ZNKSs4dataEv
FN:178,_ZNSs4_Rep12_S_empty_repEv
FN:411,_ZNSs12_S_empty_repEv
FN:192,_ZNKSs4_Rep12_M_is_sharedEv
FN:652,_ZNKSs8capacityEv
FN:259,_ZNSs12_Alloc_hiderC1EPcRKSaIcE
FN:2067,_ZNSsC1Ev
FN:1551,_ZNKSs13get_allocatorEv
FN:200,_ZNSs4_Rep15_M_set_sharableEv
FN:204,_ZNSs4_Rep26_M_set_length_and_sharableEj
FN:501,_ZNSsaSERKSs
FN:2421,_ZStlsIcSt11char_traitsIcESaIcEERSt13basic_ostreamIT_T0_ES7_RKSbIS4_S5_T1_E
FN:339,_ZNSs7_M_copyEPcPKcj
FN:384,_ZNSs13_S_copy_charsEPcS_S_
FN:1462,_ZNSs16_S_construct_auxIPcEES0_T_S1_RKSaIcESt12__false_type
FN:1478,_ZNSs12_S_constructIPcEES0_T_S1_RKSaIcE
FN:2188,_ZSteqIcSt11char_traitsIcESaIcEEbRKSbIT_T0_T1_EPKS3_
FN:229,_ZNSs4_Rep10_M_disposeERKSaIcE
FN:493,_ZNSsD1Ev
FN:870,_ZNSs9push_backEc
FN:791,_ZNSspLEc
FN:835,_ZNSs6appendEPKc
FN:2121,_ZStplIcSt11char_traitsIcESaIcEESbIT_T0_T1_ERKS6_PKS3_
FN:2084,_ZStplIcSt11char_traitsIcESaIcEESbIT_T0_T1_ERKS6_S8_
DA:178,0
DA:183,0
DA:184,0
DA:192,0
DA:193,0
DA:200,0
DA:201,0
DA:204,0
DA:206,0
DA:207,0
DA:208,0
DA:211,0
DA:214,0
DA:215,0
DA:229,0
DA:232,0
DA:234,0
DA:236,0
DA:237,0
DA:258,0
DA:259,0
DA:260,0
DA:277,0
DA:278,0
DA:285,0
DA:286,0
DA:339,0
DA:341,0
DA:342,0
DA:344,0
DA:345,0
DA:384,0
DA:385,0
DA:411,0
DA:412,0
DA:493,0
DA:494,0
DA:501,0
DA:502,0
DA:606,0
DA:607,0
DA:612,0
DA:613,0
DA:652,0
DA:653,0
DA:686,0
DA:687,0
DA:791,0
DA:793,0
DA:794,0
DA:835,0
DA:838,0
DA:870,0
DA:872,0
DA:873,0
DA:874,0
DA:875,0
DA:876,0
DA:877,0
DA:1462,0
DA:1465,0
DA:1478,0
DA:1481,0
DA:1534,0
DA:1535,0
DA:1544,0
DA:1545,0
DA:1551,0
DA:1552,0
DA:2067,0
DA:2069,0
DA:2084,0
DA:2086,0
DA:2087,0
DA:2088,0
DA:2121,0
DA:2123,0
DA:2124,0
DA:2125,0
DA:2188,0
DA:2189,0
DA:2421,0
DA:2425,0
BA:232,0
BA:232,0
BA:234,0
BA:234,0
BA:341,0
BA:341,0
BA:873,0
BA:873,0
BA:873,0
BA:873,0
BA:873,0
BA:873,0
LF:83
LH:0
end_of_record
SF:/usr/include/c++/4.3/bits/basic_string.tcc
FN:130,_ZNSs12_S_constructIPcEES0_T_S1_RKSaIcESt20forward_iterator_tag
FN:234,_ZNSsC1IPcEET_S1_RKSaIcE
DA:130,0
DA:133,0
DA:134,0
DA:137,0
DA:139,0
DA:142,0
DA:144,0
DA:146,0
DA:147,0
DA:149,0
DA:150,0
DA:152,0
DA:153,0
DA:234,0
DA:235,0
DA:236,0
BA:133,0
BA:133,0
BA:133,0
BA:133,0
BA:133,0
BA:133,0
BA:133,0
BA:133,0
BA:137,0
BA:137,0
BA:137,0
BA:137,0
BA:137,0
BA:137,0
LF:16
LH:0
end_of_record
SF:/usr/include/c++/4.3/bits/char_traits.h
FN:245,_ZNSt11char_traitsIcE6assignERcRKc
FN:261,_ZNSt11char_traitsIcE6lengthEPKc
FN:273,_ZNSt11char_traitsIcE4copyEPcPKcj
DA:245,0
DA:246,0
DA:261,0
DA:262,0
DA:273,0
DA:274,0
LF:6
LH:0
end_of_record
SF:/usr/include/c++/4.3/bits/ios_base.h
FN:125,_ZStorSt13_Ios_OpenmodeS_
FN:163,_ZStorSt12_Ios_IostateS_
DA:125,0
DA:126,0
DA:163,0
DA:164,0
LF:4
LH:0
end_of_record
SF:/usr/include/c++/4.3/bits/locale_facets.h
FN:1165,_ZNKSt5ctypeIcE13_M_widen_initEv
FN:871,_ZNKSt5ctypeIcE5widenEc
DA:871,0
DA:873,0
DA:874,0
DA:875,0
DA:876,0
DA:1165,0
DA:1168,0
DA:1169,0
DA:1170,0
DA:1172,0
DA:1174,0
DA:1175,0
DA:1176,0
BA:873,0
BA:873,0
BA:1168,0
BA:1168,0
BA:1174,0
BA:1174,0
LF:13
LH:0
end_of_record
SF:/usr/include/c++/4.3/bits/stl_algobase.h
FN:286,_ZNSt12__miter_baseIN9__gnu_cxx17__normal_iteratorIPKSsSt6vectorISsSaISsEEEELb0EE3__bES7_
FN:276,_ZNSt12__niter_baseIN9__gnu_cxx17__normal_iteratorIPKSsSt6vectorISsSaISsEEEELb1EE3__bES7_
FN:268,_ZNSt12__niter_baseISt16ostream_iteratorISscSt11char_traitsIcEELb0EE3__bES3_
FN:286,_ZNSt12__miter_baseIPSsLb0EE3__bES0_
FN:210,_ZSt3maxIjERKT_S2_S2_
FN:268,_ZNSt12__niter_baseIPSsLb0EE3__bES0_
FN:539,_ZNSt20__copy_move_backwardILb0ELb0ESt26random_access_iterator_tagE13__copy_move_bIPSsS3_EET0_T_S5_S4_
FN:579,_ZSt22__copy_move_backward_aILb0EPSsS0_ET1_T0_S2_S1_
FN:597,_ZSt23__copy_move_backward_a2ILb0EPSsS0_ET1_T0_S2_S1_
FN:624,_ZSt13copy_backwardIPSsS0_ET0_T_S2_S1_
FN:337,_ZNSt11__copy_moveILb0ELb0ESt26random_access_iterator_tagE8__copy_mIPKSsSt16ostream_iteratorISscSt11char_traitsIcEEEET0_T_SA_S9_
FN:385,_ZSt13__copy_move_aILb0EPKSsSt16ostream_iteratorISscSt11char_traitsIcEEET1_T0_S7_S6_
FN:430,_ZSt14__copy_move_a2ILb0EN9__gnu_cxx17__normal_iteratorIPKSsSt6vectorISsSaISsEEEESt16ostream_iteratorISscSt11char_traitsIcEEET1_T0_SD_SC_
FN:456,_ZSt4copyIN9__gnu_cxx17__normal_iteratorIPKSsSt6vectorISsSaISsEEEESt16ostream_iteratorISscSt11char_traitsIcEEET0_T_SD_SC_
DA:210,0
DA:215,0
DA:216,0
DA:217,0
DA:268,0
DA:269,0
DA:276,0
DA:277,0
DA:286,0
DA:287,0
DA:337,0
DA:340,0
DA:342,0
DA:343,0
DA:344,0
DA:346,0
DA:385,0
DA:393,0
DA:396,0
DA:430,0
DA:435,0
DA:456,0
DA:466,0
DA:539,0
DA:542,0
DA:543,0
DA:544,0
DA:579,0
DA:587,0
DA:592,0
DA:597,0
DA:602,0
DA:624,0
DA:636,0
BA:215,0
BA:215,0
BA:340,0
BA:340,0
BA:542,0
BA:542,0
LF:34
LH:0
end_of_record
SF:/usr/include/c++/4.3/bits/stl_construct.h
FN:87,_ZSt8_DestroyISsEvPT_
FN:97,_ZSt8_DestroyIPSsEvT_S1_
FN:126,_ZSt8_DestroyIPSsSsEvT_S1_RSaIT0_E
DA:87,0
DA:88,0
DA:97,0
DA:101,0
DA:103,0
DA:104,0
DA:126,0
DA:128,0
DA:129,0
BA:101,0
BA:101,0
LF:9
LH:0
end_of_record
SF:/usr/include/c++/4.3/bits/stl_iterator.h
FN:695,_ZNK9__gnu_cxx17__normal_iteratorIPSsSt6vectorISsSaISsEEEdeEv
FN:683,_ZN9__gnu_cxx17__normal_iteratorIPKSsSt6vectorISsSaISsEEEC1ERKS2_
FN:747,_ZNK9__gnu_cxx17__normal_iteratorIPSsSt6vectorISsSaISsEEE4baseEv
FN:683,_ZN9__gnu_cxx17__normal_iteratorIPSsSt6vectorISsSaISsEEEC1ERKS1_
FN:747,_ZNK9__gnu_cxx17__normal_iteratorIPKSsSt6vectorISsSaISsEEE4baseEv
FN:769,_ZN9__gnu_cxxeqIPKSsSt6vectorISsSaISsEEEEbRKNS_17__normal_iteratorIT_T0_EESB_
DA:683,0
DA:695,0
DA:696,0
DA:747,0
DA:748,0
DA:769,0
DA:770,0
LF:7
LH:0
end_of_record
SF:/usr/include/c++/4.3/bits/stl_iterator_base_funcs.h
FN:93,_ZSt10__distanceIPcENSt15iterator_traitsIT_E15difference_typeES2_S2_St26random_access_iterator_tag
FN:115,_ZSt8distanceIPcENSt15iterator_traitsIT_E15difference_typeES2_S2_
DA:93,0
DA:98,0
DA:115,0
DA:119,0
LF:4
LH:0
end_of_record
SF:/usr/include/c++/4.3/bits/stl_iterator_base_types.h
FN:111,_ZNSt8iteratorISt19output_iterator_tagvvvvEC2Ev
FN:166,_ZSt19__iterator_categoryIPcENSt15iterator_traitsIT_E17iterator_categoryERKS2_
DA:111,0
DA:166,0
DA:167,0
LF:3
LH:0
end_of_record
SF:/usr/include/c++/4.3/bits/stl_uninitialized.h
FN:73,_ZNSt20__uninitialized_copyILb0EE18uninitialized_copyIPSsS2_EET0_T_S4_S3_
FN:113,_ZSt18uninitialized_copyIPSsS0_ET0_T_S2_S1_
FN:261,_ZSt22__uninitialized_copy_aIPSsS0_SsET0_T_S2_S1_RSaIT1_E
FN:268,_ZSt22__uninitialized_move_aIPSsS0_SaISsEET0_T_S3_S2_RT1_
DA:73,0
DA:75,0
DA:78,0
DA:79,0
DA:81,0
DA:83,0
DA:85,0
DA:86,0
DA:113,0
DA:122,0
DA:261,0
DA:262,0
DA:268,0
DA:272,0
BA:78,0
BA:78,0
BA:79,0
BA:79,0
LF:14
LH:0
end_of_record
SF:/usr/include/c++/4.3/bits/stl_vector.h
FN:97,_ZNSt12_Vector_baseISsSaISsEE19_M_get_Tp_allocatorEv
FN:404,_ZNKSt6vectorISsSaISsEE3endEv
FN:386,_ZNKSt6vectorISsSaISsEE5beginEv
FN:484,_ZNKSt6vectorISsSaISsEE4sizeEv
FN:101,_ZNKSt12_Vector_baseISsSaISsEE19_M_get_Tp_allocatorEv
FN:395,_ZNSt6vectorISsSaISsEE3endEv
FN:526,_ZNKSt6vectorISsSaISsEE5emptyEv
FN:79,_ZNSt12_Vector_baseISsSaISsEE12_Vector_implD1Ev
FN:84,_ZNSt12_Vector_baseISsSaISsEE12_Vector_implC1Ev
FN:108,_ZNSt12_Vector_baseISsSaISsEEC2Ev
FN:213,_ZNSt6vectorISsSaISsEEC1Ev
FN:489,_ZNKSt6vectorISsSaISsEE8max_sizeEv
FN:147,_ZNSt12_Vector_baseISsSaISsEE13_M_deallocateEPSsj
FN:135,_ZNSt12_Vector_baseISsSaISsEED2Ev
FN:1075,_ZNKSt6vectorISsSaISsEE12_M_check_lenEjPKc
FN:143,_ZNSt12_Vector_baseISsSaISsEE11_M_allocateEj
FN:299,_ZNSt6vectorISsSaISsEED1Ev
FN:686,_ZNSt6vectorISsSaISsEE9push_backERKSs
DA:79,0
DA:84,0
DA:85,0
DA:86,0
DA:97,0
DA:98,0
DA:101,0
DA:102,0
DA:108,0
DA:109,0
DA:135,0
DA:136,0
DA:137,0
DA:143,0
DA:144,0
DA:147,0
DA:149,0
DA:150,0
DA:151,0
DA:213,0
DA:214,0
DA:299,0
DA:300,0
DA:301,0
DA:386,0
DA:387,0
DA:395,0
DA:396,0
DA:404,0
DA:405,0
DA:484,0
DA:485,0
DA:489,0
DA:490,0
DA:526,0
DA:527,0
DA:686,0
DA:688,0
DA:690,0
DA:691,0
DA:694,0
DA:695,0
DA:1075,0
DA:1077,0
DA:1078,0
DA:1080,0
DA:1081,0
BA:144,0
BA:144,0
BA:149,0
BA:149,0
BA:688,0
BA:688,0
BA:1077,0
BA:1077,0
BA:1081,0
BA:1081,0
BA:1081,0
BA:1081,0
LF:47
LH:0
end_of_record
SF:/usr/include/c++/4.3/bits/stream_iterator.h
FN:181,_ZNSt16ostream_iteratorISscSt11char_traitsIcEEC1ERSoPKc
FN:185,_ZNSt16ostream_iteratorISscSt11char_traitsIcEEC1ERKS2_
FN:202,_ZNSt16ostream_iteratorISscSt11char_traitsIcEEdeEv
FN:206,_ZNSt16ostream_iteratorISscSt11char_traitsIcEEppEv
FN:191,_ZNSt16ostream_iteratorISscSt11char_traitsIcEEaSERKSs
DA:181,0
DA:182,0
DA:185,0
DA:186,0
DA:191,0
DA:196,0
DA:197,0
DA:198,0
DA:202,0
DA:203,0
DA:206,0
DA:207,0
BA:197,0
BA:197,0
LF:12
LH:0
end_of_record
SF:/usr/include/c++/4.3/bits/vector.tcc
FN:283,_ZNSt6vectorISsSaISsEE13_M_insert_auxEN9__gnu_cxx17__normal_iteratorIPSsS1_EERKSs
DA:283,0
DA:286,0
DA:288,0
DA:291,0
DA:293,0
DA:295,0
DA:299,0
DA:307,0
DA:308,0
DA:309,0
DA:316,0
DA:321,0
DA:323,0
DA:324,0
DA:330,0
DA:332,0
DA:333,0
DA:334,0
DA:336,0
DA:338,0
DA:341,0
DA:342,0
DA:343,0
DA:345,0
BA:286,0
BA:286,0
LF:24
LH:0
end_of_record
SF:/usr/include/c++/4.3/ext/atomicity.h
FN:67,_ZN9__gnu_cxxL25__exchange_and_add_singleEPii
FN:50,_ZN9__gnu_cxxL18__exchange_and_addEPVii
FN:80,_ZN9__gnu_cxxL27__exchange_and_add_dispatchEPii
DA:50,0
DA:51,0
DA:67,0
DA:69,0
DA:70,0
DA:71,0
DA:80,0
DA:83,0
DA:84,0
DA:86,0
BA:83,0
BA:83,0
LF:10
LH:0
end_of_record
SF:/usr/include/c++/4.3/ext/new_allocator.h
FN:69,_ZN9__gnu_cxx13new_allocatorIcEC2Ev
FN:76,_ZN9__gnu_cxx13new_allocatorIcED2Ev
FN:71,_ZN9__gnu_cxx13new_allocatorIcEC2ERKS1_
FN:76,_ZN9__gnu_cxx13new_allocatorISsED2Ev
FN:69,_ZN9__gnu_cxx13new_allocatorISsEC2Ev
FN:101,_ZNK9__gnu_cxx13new_allocatorISsE8max_sizeEv
FN:97,_ZN9__gnu_cxx13new_allocatorISsE10deallocateEPSsj
FN:107,_ZN9__gnu_cxx13new_allocatorISsE9constructEPSsRKSs
FN:87,_ZN9__gnu_cxx13new_allocatorISsE8allocateEjPKv
DA:69,0
DA:71,0
DA:76,0
DA:87,0
DA:89,0
DA:90,0
DA:92,0
DA:97,0
DA:98,0
DA:101,0
DA:102,0
DA:107,0
DA:108,0
BA:89,0
BA:89,0
BA:108,0
BA:108,0
LF:13
LH:0
end_of_record
SF:/usr/include/c++/4.3/ext/type_traits.h
FN:154,_ZN9__gnu_cxx17__is_null_pointerIcEEbPT_
DA:154,0
DA:155,0
LF:2
LH:0
end_of_record
SF:/usr/include/c++/4.3/i486-linux-gnu/bits/gthr-default.h
FN:212,_ZL18__gthread_active_pv
DA:212,0
DA:216,0
LF:2
LH:0
end_of_record
SF:/usr/include/c++/4.3/iosfwd
FN:68,_ZNSt15basic_stringbufIcSt11char_traitsIcESaIcEED1Ev
DA:68,0
BA:68,0
BA:68,0
LF:1
LH:0
end_of_record
SF:/usr/include/c++/4.3/iostream
DA:77,1
LF:1
LH:1
end_of_record
SF:/usr/include/c++/4.3/istream
FN:585,_ZNSiC2Ev
FN:105,_ZNSiD2Ev
FN:804,_ZNSdC2Ev
FN:801,_ZNSdD2Ev
DA:105,0
DA:106,0
DA:585,0
DA:586,0
DA:587,0
DA:801,0
DA:804,0
DA:805,0
BA:106,0
BA:106,0
BA:106,0
BA:106,0
BA:801,0
BA:801,0
BA:801,0
BA:801,0
BA:801,0
BA:801,0
LF:8
LH:0
end_of_record
SF:/usr/include/c++/4.3/new
FN:105,_ZnwjPv
FN:109,_ZdlPvS_
DA:105,0
DA:109,0
LF:2
LH:0
end_of_record
SF:/usr/include/c++/4.3/ostream
FN:112,_ZNSolsEPFRSoS_E
FN:365,_ZNSoC2Ev
FN:95,_ZNSoD2Ev
FN:512,_ZStlsISt11char_traitsIcEERSt13basic_ostreamIcT_ES5_PKc
FN:566,_ZSt5flushIcSt11char_traitsIcEERSt13basic_ostreamIT_T0_ES6_
FN:545,_ZSt4endlIcSt11char_traitsIcEERSt13basic_ostreamIT_T0_ES6_
DA:95,0
DA:112,0
DA:117,0
DA:365,0
DA:366,0
DA:512,0
DA:514,0
DA:515,0
DA:517,0
DA:519,0
DA:545,0
DA:546,0
DA:566,0
DA:567,0
BA:95,0
BA:95,0
BA:95,0
BA:95,0
BA:514,0
BA:514,0
LF:14
LH:0
end_of_record
SF:/usr/include/c++/4.3/sstream
FN:96,_ZNSt15basic_stringbufIcSt11char_traitsIcESaIcEEC1ESt13_Ios_Openmode
FN:402,_ZNSt19basic_ostringstreamIcSt11char_traitsIcESaIcEEC1ESt13_Ios_Openmode
FN:431,_ZNSt19basic_ostringstreamIcSt11char_traitsIcESaIcEED1Ev
FN:509,_ZNSt18basic_stringstreamIcSt11char_traitsIcESaIcEEC1ESt13_Ios_Openmode
FN:536,_ZNSt18basic_stringstreamIcSt11char_traitsIcESaIcEED1Ev
FN:124,_ZNKSt15basic_stringbufIcSt11char_traitsIcESaIcEE3strEv
FN:450,_ZNKSt19basic_ostringstreamIcSt11char_traitsIcESaIcEE3strEv
FN:555,_ZNKSt18basic_stringstreamIcSt11char_traitsIcESaIcEE3strEv
DA:96,0
DA:97,0
DA:98,0
DA:124,0
DA:126,0
DA:127,0
DA:130,0
DA:131,0
DA:133,0
DA:136,0
DA:137,0
DA:402,0
DA:403,0
DA:404,0
DA:431,0
DA:432,0
DA:450,0
DA:451,0
DA:509,0
DA:510,0
DA:511,0
DA:536,0
DA:537,0
DA:555,0
DA:556,0
BA:127,0
BA:127,0
BA:130,0
BA:130,0
BA:432,0
BA:432,0
BA:432,0
BA:432,0
BA:432,0
BA:432,0
BA:537,0
BA:537,0
BA:537,0
BA:537,0
BA:537,0
BA:537,0
LF:25
LH:0
end_of_record
SF:/usr/include/c++/4.3/streambuf
FN:513,_ZNKSt15basic_streambufIcSt11char_traitsIcEE4pptrEv
FN:469,_ZNKSt15basic_streambufIcSt11char_traitsIcEE5egptrEv
FN:510,_ZNKSt15basic_streambufIcSt11char_traitsIcEE5pbaseEv
FN:444,_ZNSt15basic_streambufIcSt11char_traitsIcEEC2Ev
FN:197,_ZNSt15basic_streambufIcSt11char_traitsIcEED2Ev
DA:197,0
DA:198,0
DA:444,0
DA:447,0
DA:448,0
DA:469,0
DA:510,0
DA:513,0
BA:198,0
BA:198,0
LF:8
LH:0
end_of_record
TN:
SF:/home/mornfall/dev/pkg/ept-work/wibble/test.h
FN:17,_ZN8LocationC1EPKciSs
FN:13,_ZN8LocationC1ERKS_
FN:52,_ZlsIiER12AssertFailedS1_T_
FN:52,_ZlsISsER12AssertFailedS1_T_
FN:52,_ZlsIPKcER12AssertFailedS3_T_
FN:33,_ZN12AssertFailedC1E8LocationRSo
FN:41,_ZN12AssertFailedD1Ev
FN:13,_ZN8LocationD1Ev
FN:67,_Z12assert_eq_fnIiiEv8LocationT_T0_
FN:67,_Z12assert_eq_fnISsPKcEv8LocationT_T0_
FN:52,_ZlsIxER12AssertFailedS1_T_
FN:67,_Z12assert_eq_fnIxiEv8LocationT_T0_
DA:13,0
DA:17,0
DA:18,0
DA:33,0
DA:34,0
DA:36,0
DA:38,0
DA:39,0
DA:41,0
DA:42,0
DA:43,0
DA:45,0
DA:46,0
DA:48,0
DA:52,0
DA:54,0
DA:55,0
DA:67,5
DA:69,5
DA:70,0
DA:71,0
DA:75,5
BA:42,0
BA:42,0
BA:69,0
BA:69,0
BA:69,0
BA:69,0
BA:69,1
BA:69,2
LF:22
LH:3
end_of_record
SF:/home/mornfall/dev/pkg/ept-work/wibble/grcal/grcal.test.h
FN:31,_ZN12_GLOBAL__N_1L7normalNERiS0_i
FN:63,_ZN12_GLOBAL__N_113TestGrcalDate4fillEPiiiiiii
FN:230,_ZN12_GLOBAL__N_113TestGrcalTime4fillEPiiii
FN:46,_ZN12_GLOBAL__N_115assert_nn_eq_fnE8Locationiiiii
FN:249,_ZN12_GLOBAL__N_113TestGrcalTime12tostring_secEv
FN:73,_ZN12_GLOBAL__N_113TestGrcalDate7normalnEv
FN:237,_ZN12_GLOBAL__N_113TestGrcalTime8tostringEv
FN:204,_ZN12_GLOBAL__N_113TestGrcalDate8durationEv
FN:124,_ZN12_GLOBAL__N_113TestGrcalDate8tostringEv
FN:14,_ZN12_GLOBAL__N_115assert_dt_eq_fnE8LocationPKiiiiiii
FN:188,_ZN12_GLOBAL__N_113TestGrcalDate10upperboundEv
FN:153,_ZN12_GLOBAL__N_113TestGrcalDate9normaliseEv
FN:141,_ZN12_GLOBAL__N_113TestGrcalDate10lowerboundEv
FN:116,_ZN12_GLOBAL__N_113TestGrcalDate6easterEv
FN:108,_ZN12_GLOBAL__N_113TestGrcalDate10daysinyearEv
FN:85,_ZN12_GLOBAL__N_113TestGrcalDate11daysinmonthEv
DA:14,11
DA:16,11
DA:17,11
DA:18,11
DA:20,11
DA:21,0
DA:24,0
DA:25,11
DA:26,11
DA:31,8
DA:33,8
DA:35,3
DA:36,3
DA:37,3
DA:38,3
DA:40,5
DA:41,5
DA:43,8
DA:46,8
DA:48,8
DA:49,8
DA:50,8
DA:52,8
DA:53,8
DA:55,0
DA:58,0
DA:63,22
DA:65,22
DA:66,22
DA:67,22
DA:68,22
DA:69,22
DA:70,22
DA:71,22
DA:73,1
DA:75,1
DA:76,2
DA:77,2
DA:78,2
DA:79,2
DA:80,2
DA:81,2
DA:82,2
DA:83,1
DA:85,1
DA:88,1
DA:90,2
DA:91,2
DA:92,2
DA:94,2
DA:95,2
DA:96,2
DA:97,2
DA:99,2
DA:100,2
DA:101,2
DA:102,2
DA:103,2
DA:104,2
DA:105,2
DA:106,1
DA:108,1
DA:110,1
DA:111,2
DA:112,2
DA:113,2
DA:114,1
DA:116,1
DA:119,1
DA:120,1
DA:121,2
DA:122,1
DA:124,1
DA:127,1
DA:128,1
DA:129,1
DA:130,2
DA:131,1
DA:132,2
DA:133,1
DA:134,2
DA:135,1
DA:136,2
DA:137,1
DA:138,2
DA:139,1
DA:141,1
DA:145,1
DA:146,1
DA:147,1
DA:149,1
DA:150,2
DA:151,1
DA:153,1
DA:156,1
DA:157,1
DA:158,1
DA:160,1
DA:161,1
DA:162,1
DA:163,2
DA:165,1
DA:166,1
DA:167,1
DA:168,2
DA:170,1
DA:171,1
DA:172,1
DA:173,2
DA:175,1
DA:176,1
DA:177,1
DA:178,1
DA:179,2
DA:181,1
DA:182,1
DA:183,1
DA:184,1
DA:185,2
DA:186,1
DA:188,1
DA:192,1
DA:193,1
DA:194,1
DA:196,1
DA:197,2
DA:199,1
DA:200,1
DA:201,2
DA:202,1
DA:204,1
DA:209,1
DA:210,1
DA:211,1
DA:214,1
DA:215,2
DA:217,1
DA:218,2
DA:220,1
DA:221,2
DA:223,1
DA:224,1
DA:225,2
DA:226,1
DA:230,4
DA:232,4
DA:233,4
DA:234,4
DA:235,4
DA:237,1
DA:240,1
DA:241,1
DA:242,1
DA:243,2
DA:244,1
DA:245,2
DA:246,1
DA:247,2
DA:248,1
DA:249,1
DA:251,1
DA:252,2
DA:253,1
BA:20,1
BA:20,2
BA:33,2
BA:33,2
BA:36,2
BA:36,2
BA:52,2
BA:52,1
BA:52,1
BA:52,2
LF:163
LH:159
end_of_record
SF:/srv/build/pkg/ept-work/default/wibble/wibble-test-generated-_home_mornfall_dev_pkg_ept-work_wibble_grcal_grcal.cpp
FN:13,_Z41__static_initialization_and_destruction_0ii
FN:13,_GLOBAL__I__Z21run_GrcalDate_normalnv
FN:13,_Z26run_GrcalTime_tostring_secv
FN:3,_Z21run_GrcalDate_normalnv
FN:12,_Z22run_GrcalTime_tostringv
FN:11,_Z22run_GrcalDate_durationv
FN:7,_Z22run_GrcalDate_tostringv
FN:10,_Z24run_GrcalDate_upperboundv
FN:9,_Z23run_GrcalDate_normalisev
FN:8,_Z24run_GrcalDate_lowerboundv
FN:6,_Z20run_GrcalDate_easterv
FN:5,_Z24run_GrcalDate_daysinyearv
FN:4,_Z25run_GrcalDate_daysinmonthv
DA:3,1
DA:4,1
DA:5,1
DA:6,1
DA:7,1
DA:8,1
DA:9,1
DA:10,1
DA:11,1
DA:12,1
DA:13,4
BA:13,2
BA:13,1
BA:13,2
BA:13,1
LF:11
LH:11
end_of_record
SF:/usr/include/c++/4.3/bits/allocator.h
FN:98,_ZNSaIcEC1Ev
FN:106,_ZNSaIcED1Ev
FN:106,_ZNSaIcED2Ev
FN:100,_ZNSaIcEC2ERKS_
FN:100,_ZNSaIcEC1ERKS_
FN:118,_ZSteqIcEbRKSaIT_ES3_
DA:98,0
DA:100,0
DA:101,0
DA:106,0
DA:118,0
DA:119,0
LF:6
LH:0
end_of_record
SF:/usr/include/c++/4.3/bits/basic_ios.h
FN:131,_ZNKSt9basic_iosIcSt11char_traitsIcEE7rdstateEv
FN:454,_ZNSt9basic_iosIcSt11char_traitsIcEEC2Ev
FN:276,_ZNSt9basic_iosIcSt11char_traitsIcEED2Ev
FN:151,_ZNSt9basic_iosIcSt11char_traitsIcEE8setstateESt12_Ios_Iostate
FN:51,_ZSt13__check_facetISt5ctypeIcEERKT_PS3_
FN:443,_ZNKSt9basic_iosIcSt11char_traitsIcEE5widenEc
DA:51,0
DA:53,0
DA:54,0
DA:55,0
DA:131,0
DA:132,0
DA:151,0
DA:152,0
DA:276,0
DA:443,0
DA:444,0
DA:454,0
DA:456,0
DA:457,0
BA:53,0
BA:53,0
BA:276,0
BA:276,0
LF:14
LH:0
end_of_record
SF:/usr/include/c++/4.3/bits/basic_string.h
FN:277,_ZNKSs7_M_dataEv
FN:258,_ZNSs12_Alloc_hiderD1Ev
FN:285,_ZNKSs6_M_repEv
FN:606,_ZNKSs4sizeEv
FN:214,_ZNSs4_Rep10_M_refdataEv
FN:1544,_ZNKSs4dataEv
FN:178,_ZNSs4_Rep12_S_empty_repEv
FN:411,_ZNSs12_S_empty_repEv
FN:259,_ZNSs12_Alloc_hiderC1EPcRKSaIcE
FN:2067,_ZNSsC1Ev
FN:1551,_ZNKSs13get_allocatorEv
FN:200,_ZNSs4_Rep15_M_set_sharableEv
FN:204,_ZNSs4_Rep26_M_set_length_and_sharableEj
FN:2188,_ZSteqIcSt11char_traitsIcESaIcEEbRKSbIT_T0_T1_EPKS3_
FN:2421,_ZStlsIcSt11char_traitsIcESaIcEERSt13basic_ostreamIT_T0_ES7_RKSbIS4_S5_T1_E
FN:339,_ZNSs7_M_copyEPcPKcj
FN:384,_ZNSs13_S_copy_charsEPcS_S_
FN:1462,_ZNSs16_S_construct_auxIPcEES0_T_S1_RKSaIcESt12__false_type
FN:1478,_ZNSs12_S_constructIPcEES0_T_S1_RKSaIcE
FN:501,_ZNSsaSERKSs
FN:2162,_ZSteqIcEN9__gnu_cxx11__enable_ifIXsrSt9__is_charIT_E7__valueEbE6__typeERKSbIS3_St11char_traitsIS3_ESaIS3_EESC_
FN:229,_ZNSs4_Rep10_M_disposeERKSaIcE
FN:493,_ZNSsD1Ev
DA:178,0
DA:183,0
DA:184,0
DA:200,0
DA:201,0
DA:204,0
DA:206,0
DA:207,0
DA:208,0
DA:211,0
DA:214,0
DA:215,0
DA:229,0
DA:232,0
DA:234,0
DA:236,0
DA:237,0
DA:258,0
DA:259,0
DA:260,0
DA:277,0
DA:278,0
DA:285,0
DA:286,0
DA:339,0
DA:341,0
DA:342,0
DA:344,0
DA:345,0
DA:384,0
DA:385,0
DA:411,0
DA:412,0
DA:493,0
DA:494,0
DA:501,0
DA:502,0
DA:606,0
DA:607,0
DA:1462,0
DA:1465,0
DA:1478,0
DA:1481,0
DA:1544,0
DA:1545,0
DA:1551,0
DA:1552,0
DA:2067,0
DA:2069,0
DA:2162,0
DA:2165,0
DA:2188,0
DA:2189,0
DA:2421,0
DA:2425,0
BA:232,0
BA:232,0
BA:234,0
BA:234,0
BA:341,0
BA:341,0
BA:2165,0
BA:2165,0
BA:2165,0
BA:2165,0
LF:55
LH:0
end_of_record
SF:/usr/include/c++/4.3/bits/basic_string.tcc
FN:130,_ZNSs12_S_constructIPcEES0_T_S1_RKSaIcESt20forward_iterator_tag
FN:234,_ZNSsC1IPcEET_S1_RKSaIcE
DA:130,0
DA:133,0
DA:134,0
DA:137,0
DA:139,0
DA:142,0
DA:144,0
DA:146,0
DA:147,0
DA:149,0
DA:150,0
DA:152,0
DA:153,0
DA:234,0
DA:235,0
DA:236,0
BA:133,0
BA:133,0
BA:133,0
BA:133,0
BA:133,0
BA:133,0
BA:133,0
BA:133,0
BA:137,0
BA:137,0
BA:137,0
BA:137,0
BA:137,0
BA:137,0
LF:16
LH:0
end_of_record
SF:/usr/include/c++/4.3/bits/char_traits.h
FN:245,_ZNSt11char_traitsIcE6assignERcRKc
FN:261,_ZNSt11char_traitsIcE6lengthEPKc
FN:273,_ZNSt11char_traitsIcE4copyEPcPKcj
FN:257,_ZNSt11char_traitsIcE7compareEPKcS2_j
DA:245,0
DA:246,0
DA:257,0
DA:258,0
DA:261,0
DA:262,0
DA:273,0
DA:274,0
LF:8
LH:0
end_of_record
SF:/usr/include/c++/4.3/bits/ios_base.h
FN:125,_ZStorSt13_Ios_OpenmodeS_
FN:163,_ZStorSt12_Ios_IostateS_
DA:125,0
DA:126,0
DA:163,0
DA:164,0
LF:4
LH:0
end_of_record
SF:/usr/include/c++/4.3/bits/locale_facets.h
FN:1165,_ZNKSt5ctypeIcE13_M_widen_initEv
FN:871,_ZNKSt5ctypeIcE5widenEc
DA:871,0
DA:873,0
DA:874,0
DA:875,0
DA:876,0
DA:1165,0
DA:1168,0
DA:1169,0
DA:1170,0
DA:1172,0
DA:1174,0
DA:1175,0
DA:1176,0
BA:873,0
BA:873,0
BA:1168,0
BA:1168,0
BA:1174,0
BA:1174,0
LF:13
LH:0
end_of_record
SF:/usr/include/c++/4.3/bits/stl_iterator_base_funcs.h
FN:93,_ZSt10__distanceIPcENSt15iterator_traitsIT_E15difference_typeES2_S2_St26random_access_iterator_tag
FN:115,_ZSt8distanceIPcENSt15iterator_traitsIT_E15difference_typeES2_S2_
DA:93,0
DA:98,0
DA:115,0
DA:119,0
LF:4
LH:0
end_of_record
SF:/usr/include/c++/4.3/bits/stl_iterator_base_types.h
FN:166,_ZSt19__iterator_categoryIPcENSt15iterator_traitsIT_E17iterator_categoryERKS2_
DA:166,0
DA:167,0
LF:2
LH:0
end_of_record
SF:/usr/include/c++/4.3/ext/atomicity.h
FN:67,_ZN9__gnu_cxxL25__exchange_and_add_singleEPii
FN:50,_ZN9__gnu_cxxL18__exchange_and_addEPVii
FN:80,_ZN9__gnu_cxxL27__exchange_and_add_dispatchEPii
DA:50,0
DA:51,0
DA:67,0
DA:69,0
DA:70,0
DA:71,0
DA:80,0
DA:83,0
DA:84,0
DA:86,0
BA:83,0
BA:83,0
LF:10
LH:0
end_of_record
SF:/usr/include/c++/4.3/ext/new_allocator.h
FN:69,_ZN9__gnu_cxx13new_allocatorIcEC2Ev
FN:76,_ZN9__gnu_cxx13new_allocatorIcED2Ev
FN:71,_ZN9__gnu_cxx13new_allocatorIcEC2ERKS1_
DA:69,0
DA:71,0
DA:76,0
LF:3
LH:0
end_of_record
SF:/usr/include/c++/4.3/ext/type_traits.h
FN:154,_ZN9__gnu_cxx17__is_null_pointerIcEEbPT_
DA:154,0
DA:155,0
LF:2
LH:0
end_of_record
SF:/usr/include/c++/4.3/i486-linux-gnu/bits/gthr-default.h
FN:212,_ZL18__gthread_active_pv
DA:212,0
DA:216,0
LF:2
LH:0
end_of_record
SF:/usr/include/c++/4.3/iosfwd
FN:68,_ZNSt15basic_stringbufIcSt11char_traitsIcESaIcEED1Ev
DA:68,0
BA:68,0
BA:68,0
LF:1
LH:0
end_of_record
SF:/usr/include/c++/4.3/iostream
DA:77,1
LF:1
LH:1
end_of_record
SF:/usr/include/c++/4.3/ostream
FN:112,_ZNSolsEPFRSoS_E
FN:365,_ZNSoC2Ev
FN:95,_ZNSoD2Ev
FN:512,_ZStlsISt11char_traitsIcEERSt13basic_ostreamIcT_ES5_PKc
FN:566,_ZSt5flushIcSt11char_traitsIcEERSt13basic_ostreamIT_T0_ES6_
FN:545,_ZSt4endlIcSt11char_traitsIcEERSt13basic_ostreamIT_T0_ES6_
FN:204,_ZNSolsEx
DA:95,0
DA:112,0
DA:117,0
DA:204,0
DA:205,0
DA:365,0
DA:366,0
DA:512,0
DA:514,0
DA:515,0
DA:517,0
DA:519,0
DA:545,0
DA:546,0
DA:566,0
DA:567,0
BA:95,0
BA:95,0
BA:95,0
BA:95,0
BA:514,0
BA:514,0
LF:16
LH:0
end_of_record
SF:/usr/include/c++/4.3/sstream
FN:96,_ZNSt15basic_stringbufIcSt11char_traitsIcESaIcEEC1ESt13_Ios_Openmode
FN:402,_ZNSt19basic_ostringstreamIcSt11char_traitsIcESaIcEEC1ESt13_Ios_Openmode
FN:431,_ZNSt19basic_ostringstreamIcSt11char_traitsIcESaIcEED1Ev
FN:124,_ZNKSt15basic_stringbufIcSt11char_traitsIcESaIcEE3strEv
FN:450,_ZNKSt19basic_ostringstreamIcSt11char_traitsIcESaIcEE3strEv
DA:96,0
DA:97,0
DA:98,0
DA:124,0
DA:126,0
DA:127,0
DA:130,0
DA:131,0
DA:133,0
DA:136,0
DA:137,0
DA:402,0
DA:403,0
DA:404,0
DA:431,0
DA:432,0
DA:450,0
DA:451,0
BA:127,0
BA:127,0
BA:130,0
BA:130,0
BA:432,0
BA:432,0
BA:432,0
BA:432,0
BA:432,0
BA:432,0
LF:18
LH:0
end_of_record
SF:/usr/include/c++/4.3/streambuf
FN:513,_ZNKSt15basic_streambufIcSt11char_traitsIcEE4pptrEv
FN:469,_ZNKSt15basic_streambufIcSt11char_traitsIcEE5egptrEv
FN:510,_ZNKSt15basic_streambufIcSt11char_traitsIcEE5pbaseEv
FN:444,_ZNSt15basic_streambufIcSt11char_traitsIcEEC2Ev
FN:197,_ZNSt15basic_streambufIcSt11char_traitsIcEED2Ev
DA:197,0
DA:198,0
DA:444,0
DA:447,0
DA:448,0
DA:469,0
DA:510,0
DA:513,0
BA:198,0
BA:198,0
LF:8
LH:0
end_of_record
TN:
SF:/home/mornfall/dev/pkg/ept-work/wibble/singleton.h
FN:83,_ZNK6wibble9SingletonIiE4sizeEv
FN:74,_ZNK6wibble9SingletonIiE8iteratoreqERKS2_
FN:75,_ZNK6wibble9SingletonIiE8iteratorneERKS2_
FN:71,_ZN6wibble9SingletonIiE8iteratordeEv
FN:73,_ZN6wibble9SingletonIiE8iteratorppEv
FN:80,_ZN6wibble9SingletonIiEC1ERKi
FN:92,_ZN6wibble9singletonIiEENS_9SingletonIT_EERKS2_
FN:66,_ZN6wibble9SingletonIiE8iteratorC1EPi
FN:85,_ZN6wibble9SingletonIiE5beginEv
FN:69,_ZN6wibble9SingletonIiE8iteratorC1Ev
FN:86,_ZN6wibble9SingletonIiE3endEv
DA:66,1
DA:69,4
DA:71,1
DA:73,1
DA:74,2
DA:75,2
DA:80,5
DA:83,1
DA:85,1
DA:86,4
DA:92,1
DA:94,1
LF:12
LH:12
end_of_record
SF:/home/mornfall/dev/pkg/ept-work/wibble/test.h
FN:13,_ZN8LocationC1ERKS_
FN:17,_ZN8LocationC1EPKciSs
FN:52,_ZlsIiER12AssertFailedS1_T_
FN:52,_ZlsIPKcER12AssertFailedS3_T_
FN:52,_ZlsIjER12AssertFailedS1_T_
FN:33,_ZN12AssertFailedC1E8LocationRSo
FN:41,_ZN12AssertFailedD1Ev
FN:13,_ZN8LocationD1Ev
FN:67,_Z12assert_eq_fnIjjEv8LocationT_T0_
FN:67,_Z12assert_eq_fnIiiEv8LocationT_T0_
FN:59,_Z9assert_fnIbEv8LocationT_
DA:13,0
DA:17,0
DA:18,0
DA:33,0
DA:34,0
DA:36,0
DA:38,0
DA:39,0
DA:41,0
DA:42,0
DA:43,0
DA:45,0
DA:46,0
DA:48,0
DA:52,0
DA:54,0
DA:55,0
DA:59,0
DA:61,0
DA:62,0
DA:64,0
DA:67,0
DA:69,0
DA:70,0
DA:71,0
DA:75,0
BA:42,0
BA:42,0
BA:61,0
BA:61,0
BA:69,0
BA:69,0
BA:69,0
BA:69,0
LF:26
LH:0
end_of_record
SF:/home/mornfall/dev/pkg/ept-work/wibble/singleton.test.h
FN:14,_ZN12_GLOBAL__N_113TestSingleton6simpleEv
DA:14,1
DA:15,1
DA:17,1
DA:19,1
DA:20,2
DA:21,2
DA:22,2
DA:24,1
DA:25,2
DA:26,2
DA:27,1
LF:11
LH:11
end_of_record
SF:/srv/build/pkg/ept-work/default/wibble/wibble-test-generated-_home_mornfall_dev_pkg_ept-work_wibble_singleton.cpp
FN:3,_Z41__static_initialization_and_destruction_0ii
FN:3,_GLOBAL__I__Z20run_Singleton_simplev
FN:3,_Z20run_Singleton_simplev
DA:3,4
BA:3,2
BA:3,1
BA:3,2
BA:3,1
LF:1
LH:1
end_of_record
SF:/usr/include/c++/4.3/bits/allocator.h
FN:98,_ZNSaIcEC1Ev
FN:106,_ZNSaIcED2Ev
FN:106,_ZNSaIcED1Ev
FN:100,_ZNSaIcEC2ERKS_
FN:100,_ZNSaIcEC1ERKS_
FN:118,_ZSteqIcEbRKSaIT_ES3_
DA:98,0
DA:100,0
DA:101,0
DA:106,0
DA:118,0
DA:119,0
LF:6
LH:0
end_of_record
SF:/usr/include/c++/4.3/bits/basic_ios.h
FN:131,_ZNKSt9basic_iosIcSt11char_traitsIcEE7rdstateEv
FN:454,_ZNSt9basic_iosIcSt11char_traitsIcEEC2Ev
FN:276,_ZNSt9basic_iosIcSt11char_traitsIcEED2Ev
FN:151,_ZNSt9basic_iosIcSt11char_traitsIcEE8setstateESt12_Ios_Iostate
FN:51,_ZSt13__check_facetISt5ctypeIcEERKT_PS3_
FN:443,_ZNKSt9basic_iosIcSt11char_traitsIcEE5widenEc
DA:51,0
DA:53,0
DA:54,0
DA:55,0
DA:131,0
DA:132,0
DA:151,0
DA:152,0
DA:276,0
DA:443,0
DA:444,0
DA:454,0
DA:456,0
DA:457,0
BA:53,0
BA:53,0
BA:276,0
BA:276,0
LF:14
LH:0
end_of_record
SF:/usr/include/c++/4.3/bits/basic_string.h
FN:277,_ZNKSs7_M_dataEv
FN:258,_ZNSs12_Alloc_hiderD1Ev
FN:285,_ZNKSs6_M_repEv
FN:606,_ZNKSs4sizeEv
FN:214,_ZNSs4_Rep10_M_refdataEv
FN:1544,_ZNKSs4dataEv
FN:178,_ZNSs4_Rep12_S_empty_repEv
FN:411,_ZNSs12_S_empty_repEv
FN:259,_ZNSs12_Alloc_hiderC1EPcRKSaIcE
FN:2067,_ZNSsC1Ev
FN:1551,_ZNKSs13get_allocatorEv
FN:200,_ZNSs4_Rep15_M_set_sharableEv
FN:204,_ZNSs4_Rep26_M_set_length_and_sharableEj
FN:2421,_ZStlsIcSt11char_traitsIcESaIcEERSt13basic_ostreamIT_T0_ES7_RKSbIS4_S5_T1_E
FN:339,_ZNSs7_M_copyEPcPKcj
FN:384,_ZNSs13_S_copy_charsEPcS_S_
FN:1462,_ZNSs16_S_construct_auxIPcEES0_T_S1_RKSaIcESt12__false_type
FN:1478,_ZNSs12_S_constructIPcEES0_T_S1_RKSaIcE
FN:501,_ZNSsaSERKSs
FN:229,_ZNSs4_Rep10_M_disposeERKSaIcE
FN:493,_ZNSsD1Ev
DA:178,0
DA:183,0
DA:184,0
DA:200,0
DA:201,0
DA:204,0
DA:206,0
DA:207,0
DA:208,0
DA:211,0
DA:214,0
DA:215,0
DA:229,0
DA:232,0
DA:234,0
DA:236,0
DA:237,0
DA:258,0
DA:259,0
DA:260,0
DA:277,0
DA:278,0
DA:285,0
DA:286,0
DA:339,0
DA:341,0
DA:342,0
DA:344,0
DA:345,0
DA:384,0
DA:385,0
DA:411,0
DA:412,0
DA:493,0
DA:494,0
DA:501,0
DA:502,0
DA:606,0
DA:607,0
DA:1462,0
DA:1465,0
DA:1478,0
DA:1481,0
DA:1544,0
DA:1545,0
DA:1551,0
DA:1552,0
DA:2067,0
DA:2069,0
DA:2421,0
DA:2425,0
BA:232,0
BA:232,0
BA:234,0
BA:234,0
BA:341,0
BA:341,0
LF:51
LH:0
end_of_record
SF:/usr/include/c++/4.3/bits/basic_string.tcc
FN:130,_ZNSs12_S_constructIPcEES0_T_S1_RKSaIcESt20forward_iterator_tag
FN:234,_ZNSsC1IPcEET_S1_RKSaIcE
DA:130,0
DA:133,0
DA:134,0
DA:137,0
DA:139,0
DA:142,0
DA:144,0
DA:146,0
DA:147,0
DA:149,0
DA:150,0
DA:152,0
DA:153,0
DA:234,0
DA:235,0
DA:236,0
BA:133,0
BA:133,0
BA:133,0
BA:133,0
BA:133,0
BA:133,0
BA:133,0
BA:133,0
BA:137,0
BA:137,0
BA:137,0
BA:137,0
BA:137,0
BA:137,0
LF:16
LH:0
end_of_record
SF:/usr/include/c++/4.3/bits/char_traits.h
FN:245,_ZNSt11char_traitsIcE6assignERcRKc
FN:261,_ZNSt11char_traitsIcE6lengthEPKc
FN:273,_ZNSt11char_traitsIcE4copyEPcPKcj
DA:245,0
DA:246,0
DA:261,0
DA:262,0
DA:273,0
DA:274,0
LF:6
LH:0
end_of_record
SF:/usr/include/c++/4.3/bits/ios_base.h
FN:125,_ZStorSt13_Ios_OpenmodeS_
FN:163,_ZStorSt12_Ios_IostateS_
DA:125,0
DA:126,0
DA:163,0
DA:164,0
LF:4
LH:0
end_of_record
SF:/usr/include/c++/4.3/bits/locale_facets.h
FN:1165,_ZNKSt5ctypeIcE13_M_widen_initEv
FN:871,_ZNKSt5ctypeIcE5widenEc
DA:871,0
DA:873,0
DA:874,0
DA:875,0
DA:876,0
DA:1165,0
DA:1168,0
DA:1169,0
DA:1170,0
DA:1172,0
DA:1174,0
DA:1175,0
DA:1176,0
BA:873,0
BA:873,0
BA:1168,0
BA:1168,0
BA:1174,0
BA:1174,0
LF:13
LH:0
end_of_record
SF:/usr/include/c++/4.3/bits/stl_iterator_base_funcs.h
FN:93,_ZSt10__distanceIPcENSt15iterator_traitsIT_E15difference_typeES2_S2_St26random_access_iterator_tag
FN:115,_ZSt8distanceIPcENSt15iterator_traitsIT_E15difference_typeES2_S2_
DA:93,0
DA:98,0
DA:115,0
DA:119,0
LF:4
LH:0
end_of_record
SF:/usr/include/c++/4.3/bits/stl_iterator_base_types.h
FN:111,_ZNSt8iteratorISt20forward_iterator_tagivPiRiEC2Ev
FN:166,_ZSt19__iterator_categoryIPcENSt15iterator_traitsIT_E17iterator_categoryERKS2_
DA:111,5
DA:166,0
DA:167,0
LF:3
LH:1
end_of_record
SF:/usr/include/c++/4.3/ext/atomicity.h
FN:67,_ZN9__gnu_cxxL25__exchange_and_add_singleEPii
FN:50,_ZN9__gnu_cxxL18__exchange_and_addEPVii
FN:80,_ZN9__gnu_cxxL27__exchange_and_add_dispatchEPii
DA:50,0
DA:51,0
DA:67,0
DA:69,0
DA:70,0
DA:71,0
DA:80,0
DA:83,0
DA:84,0
DA:86,0
BA:83,0
BA:83,0
LF:10
LH:0
end_of_record
SF:/usr/include/c++/4.3/ext/new_allocator.h
FN:69,_ZN9__gnu_cxx13new_allocatorIcEC2Ev
FN:76,_ZN9__gnu_cxx13new_allocatorIcED2Ev
FN:71,_ZN9__gnu_cxx13new_allocatorIcEC2ERKS1_
DA:69,0
DA:71,0
DA:76,0
LF:3
LH:0
end_of_record
SF:/usr/include/c++/4.3/ext/type_traits.h
FN:154,_ZN9__gnu_cxx17__is_null_pointerIcEEbPT_
DA:154,0
DA:155,0
LF:2
LH:0
end_of_record
SF:/usr/include/c++/4.3/i486-linux-gnu/bits/gthr-default.h
FN:212,_ZL18__gthread_active_pv
DA:212,0
DA:216,0
LF:2
LH:0
end_of_record
SF:/usr/include/c++/4.3/iosfwd
FN:68,_ZNSt15basic_stringbufIcSt11char_traitsIcESaIcEED1Ev
DA:68,0
BA:68,0
BA:68,0
LF:1
LH:0
end_of_record
SF:/usr/include/c++/4.3/iostream
DA:77,1
LF:1
LH:1
end_of_record
SF:/usr/include/c++/4.3/ostream
FN:112,_ZNSolsEPFRSoS_E
FN:365,_ZNSoC2Ev
FN:95,_ZNSoD2Ev
FN:512,_ZStlsISt11char_traitsIcEERSt13basic_ostreamIcT_ES5_PKc
FN:195,_ZNSolsEj
FN:566,_ZSt5flushIcSt11char_traitsIcEERSt13basic_ostreamIT_T0_ES6_
FN:545,_ZSt4endlIcSt11char_traitsIcEERSt13basic_ostreamIT_T0_ES6_
DA:95,0
DA:112,0
DA:117,0
DA:195,0
DA:199,0
DA:365,0
DA:366,0
DA:512,0
DA:514,0
DA:515,0
DA:517,0
DA:519,0
DA:545,0
DA:546,0
DA:566,0
DA:567,0
BA:95,0
BA:95,0
BA:95,0
BA:95,0
BA:514,0
BA:514,0
LF:16
LH:0
end_of_record
SF:/usr/include/c++/4.3/sstream
FN:96,_ZNSt15basic_stringbufIcSt11char_traitsIcESaIcEEC1ESt13_Ios_Openmode
FN:402,_ZNSt19basic_ostringstreamIcSt11char_traitsIcESaIcEEC1ESt13_Ios_Openmode
FN:431,_ZNSt19basic_ostringstreamIcSt11char_traitsIcESaIcEED1Ev
FN:124,_ZNKSt15basic_stringbufIcSt11char_traitsIcESaIcEE3strEv
FN:450,_ZNKSt19basic_ostringstreamIcSt11char_traitsIcESaIcEE3strEv
DA:96,0
DA:97,0
DA:98,0
DA:124,0
DA:126,0
DA:127,0
DA:130,0
DA:131,0
DA:133,0
DA:136,0
DA:137,0
DA:402,0
DA:403,0
DA:404,0
DA:431,0
DA:432,0
DA:450,0
DA:451,0
BA:127,0
BA:127,0
BA:130,0
BA:130,0
BA:432,0
BA:432,0
BA:432,0
BA:432,0
BA:432,0
BA:432,0
LF:18
LH:0
end_of_record
SF:/usr/include/c++/4.3/streambuf
FN:513,_ZNKSt15basic_streambufIcSt11char_traitsIcEE4pptrEv
FN:469,_ZNKSt15basic_streambufIcSt11char_traitsIcEE5egptrEv
FN:510,_ZNKSt15basic_streambufIcSt11char_traitsIcEE5pbaseEv
FN:444,_ZNSt15basic_streambufIcSt11char_traitsIcEEC2Ev
FN:197,_ZNSt15basic_streambufIcSt11char_traitsIcEED2Ev
DA:197,0
DA:198,0
DA:444,0
DA:447,0
DA:448,0
DA:469,0
DA:510,0
DA:513,0
BA:198,0
BA:198,0
LF:8
LH:0
end_of_record
TN:
SF:/home/mornfall/dev/pkg/ept-work/wibble/exception.h
FN:190,_ZNK6wibble9exception7Generic4typeEv
FN:137,_ZN6wibble9exception7ContextD2Ev
FN:187,_ZN6wibble9exception7GenericD2Ev
FN:395,_ZN6wibble9exception6SystemD1Ev
FN:193,_ZNK6wibble9exception7Generic4descEv
FN:213,_ZNK6wibble9exception7Generic4whatEv
FN:187,_ZN6wibble9exception7GenericD0Ev
FN:187,_ZN6wibble9exception7GenericD1Ev
FN:154,_ZNK6wibble9exception7Context13formatContextEv
FN:205,_ZNK6wibble9exception7Generic8fullInfoEv
DA:137,0
DA:154,0
DA:155,0
DA:156,0
DA:157,0
DA:159,0
DA:161,0
DA:162,0
DA:163,0
DA:187,0
DA:190,0
DA:193,0
DA:194,0
DA:195,0
DA:205,0
DA:206,0
DA:207,0
DA:209,0
DA:210,0
DA:213,0
DA:395,0
BA:156,0
BA:156,0
BA:187,0
BA:187,0
BA:187,0
BA:187,0
BA:187,0
BA:187,0
BA:207,0
BA:207,0
BA:395,0
BA:395,0
LF:21
LH:0
end_of_record
SF:/home/mornfall/dev/pkg/ept-work/wibble/sys/pipe.h
FN:42,_ZN6wibble3sys4Pipe3eofEv
FN:32,_ZN6wibble3sys4PipeC1Ev
FN:19,_ZN6wibble3sys4PipeD1Ev
FN:25,_ZN6wibble3sys4PipeC1Ei
FN:19,_ZN6wibble3sys4PipeaSERKS1_
FN:46,_ZN6wibble3sys4Pipe8readMoreEv
FN:60,_ZN6wibble3sys4Pipe8nextLineEv
FN:75,_ZN6wibble3sys4Pipe16nextLineBlockingEv
DA:19,4
DA:25,2
DA:27,2
DA:28,0
DA:29,2
DA:30,0
DA:31,0
DA:32,2
DA:42,1310
DA:43,1310
DA:46,953
DA:48,953
DA:49,953
DA:50,0
DA:51,953
DA:52,456
DA:53,497
DA:54,0
DA:56,497
DA:57,497
DA:60,1007
DA:62,1007
DA:63,1504
DA:65,1007
DA:66,1007
DA:67,456
DA:69,551
DA:70,551
DA:71,551
DA:72,551
DA:75,551
DA:77,551
DA:78,551
DA:79,1558
DA:80,1007
DA:81,1007
DA:82,551
DA:83,456
DA:84,456
DA:86,0
BA:27,2
BA:27,1
BA:29,1
BA:29,2
BA:49,2
BA:49,2
BA:49,1
BA:49,2
BA:51,2
BA:51,2
BA:53,1
BA:53,2
BA:63,2
BA:63,2
BA:63,2
BA:63,2
BA:63,2
BA:63,2
BA:66,2
BA:66,2
BA:77,2
BA:77,2
BA:79,2
BA:79,1
BA:81,2
BA:81,2
LF:40
LH:34
end_of_record
SF:/home/mornfall/dev/pkg/ept-work/wibble/test-main.h
FN:31,_ZN4MainC1Ev
FN:9,_ZN4MainD1Ev
FN:63,_ZN4Main8testDiedEv
FN:38,_ZN4Main5childEv
FN:86,_ZN4Main13processStatusESs
FN:139,_ZN4Main6parentEv
FN:163,_ZN4Main4mainEiPPc
FN:188,main
DA:9,0
DA:31,1
DA:32,1
DA:33,1
DA:34,1
DA:35,1
DA:36,1
DA:38,1
DA:39,1
DA:40,1
DA:41,1
DA:42,1
DA:43,1
DA:44,0
DA:45,0
DA:46,0
DA:48,0
DA:50,0
DA:51,0
DA:52,0
DA:54,0
DA:56,1
DA:57,1
DA:59,1
DA:60,1
DA:63,0
DA:67,0
DA:68,0
DA:69,0
DA:70,0
DA:71,0
DA:73,0
DA:74,0
DA:75,0
DA:76,0
DA:77,0
DA:78,0
DA:80,0
DA:81,0
DA:82,0
DA:83,0
DA:86,303
DA:87,303
DA:88,1
DA:89,1
DA:90,2
DA:91,2
DA:94,1
DA:95,1
DA:98,302
DA:101,124
DA:102,124
DA:103,124
DA:104,124
DA:107,302
DA:108,54
DA:110,27
DA:111,27
DA:112,27
DA:113,27
DA:114,27
DA:115,27
DA:117,54
DA:118,27
DA:120,27
DA:121,27
DA:125,302
DA:126,248
DA:127,124
DA:128,124
DA:129,124
DA:131,248
DA:132,124
DA:133,124
DA:134,124
DA:137,302
DA:139,1
DA:140,1
DA:141,1
DA:142,1
DA:143,1
DA:144,1
DA:146,302
DA:147,303
DA:148,0
DA:149,0
DA:150,0
DA:151,0
DA:153,0
DA:154,0
DA:158,303
DA:159,303
DA:160,0
DA:163,1
DA:165,1
DA:166,1
DA:168,1
DA:169,1
DA:171,0
DA:172,1
DA:173,0
DA:174,1
DA:175,0
DA:176,1
DA:177,2
DA:178,0
DA:179,2
DA:180,1
DA:182,1
DA:188,1
DA:189,1
BA:43,1
BA:43,2
BA:45,0
BA:45,0
BA:50,0
BA:50,0
BA:51,0
BA:51,0
BA:56,2
BA:56,1
BA:67,0
BA:67,0
BA:68,0
BA:68,0
BA:70,0
BA:70,0
BA:74,0
BA:74,0
BA:76,0
BA:76,0
BA:87,2
BA:87,2
BA:98,2
BA:98,2
BA:107,2
BA:107,2
BA:108,2
BA:108,2
BA:117,2
BA:117,2
BA:118,2
BA:118,1
BA:125,2
BA:125,2
BA:126,2
BA:126,2
BA:131,2
BA:131,2
BA:147,1
BA:147,2
BA:149,0
BA:149,0
BA:172,1
BA:172,2
BA:174,1
BA:174,2
BA:177,1
BA:177,2
BA:179,2
BA:179,2
LF:111
LH:75
end_of_record
SF:/home/mornfall/dev/pkg/ept-work/wibble/test-runner.h
FN:17,_ZN6RunAllC1Ev
FN:17,_ZN6RunAllD1Ev
FN:23,_ZN6RunAll9findSuiteESs
FN:30,_ZN6RunAll10waitForAckEv
FN:53,_ZN6RunAll7runTestER8RunSuitei
FN:35,_ZN6RunAll8runSuiteER8RunSuiteiii
FN:66,_ZN6RunAll7runFromEii
DA:17,1
DA:23,0
DA:24,0
DA:25,0
DA:26,0
DA:27,0
DA:30,248
DA:31,248
DA:32,248
DA:33,248
DA:35,27
DA:37,27
DA:38,151
DA:40,124
DA:41,124
DA:42,124
DA:43,124
DA:44,124
DA:45,124
DA:46,124
DA:50,27
DA:51,27
DA:53,0
DA:55,0
DA:56,0
DA:57,0
DA:58,0
DA:59,0
DA:60,0
DA:61,0
DA:62,0
DA:63,0
DA:64,0
DA:66,1
DA:68,56
DA:69,27
DA:70,27
DA:71,27
DA:73,1
BA:24,0
BA:24,0
BA:25,0
BA:25,0
BA:38,2
BA:38,2
BA:68,2
BA:68,2
LF:39
LH:23
end_of_record
SF:/home/mornfall/dev/pkg/ept-work/wibble/test.h
FN:13,_ZN8LocationD1Ev
FN:52,_ZlsISsER12AssertFailedS1_T_
FN:17,_ZN8LocationC1EPKciSs
FN:13,_ZN8LocationC1ERKS_
FN:52,_ZlsIPKcER12AssertFailedS3_T_
FN:33,_ZN12AssertFailedC1E8LocationRSo
FN:52,_ZlsIiER12AssertFailedS1_T_
FN:41,_ZN12AssertFailedD1Ev
FN:67,_Z12assert_eq_fnISsSsEv8LocationT_T0_
FN:59,_Z9assert_fnIbEv8LocationT_
FN:67,_Z12assert_eq_fnIiiEv8LocationT_T0_
DA:13,0
DA:17,0
DA:18,0
DA:33,0
DA:34,0
DA:36,0
DA:38,0
DA:39,0
DA:41,0
DA:42,0
DA:43,0
DA:45,0
DA:46,0
DA:48,0
DA:52,0
DA:54,0
DA:55,0
DA:59,0
DA:61,0
DA:62,0
DA:64,0
DA:67,0
DA:69,0
DA:70,0
DA:71,0
DA:75,0
BA:42,0
BA:42,0
BA:61,0
BA:61,0
BA:69,0
BA:69,0
BA:69,0
BA:69,0
LF:26
LH:0
end_of_record
SF:/srv/build/pkg/ept-work/default/wibble/wibble-test-generated-main.cpp
FN:336,_Z41__static_initialization_and_destruction_0ii
FN:336,_GLOBAL__I_run_Tests
DA:336,3
BA:336,2
BA:336,1
BA:336,2
BA:336,1
LF:1
LH:1
end_of_record
SF:/usr/include/c++/4.3/bits/allocator.h
FN:98,_ZNSaIcEC2Ev
FN:98,_ZNSaIcEC1Ev
FN:106,_ZNSaIcED2Ev
FN:106,_ZNSaIcED1Ev
FN:100,_ZNSaIcEC2ERKS_
FN:100,_ZNSaIcEC1ERKS_
FN:106,_ZNSaISsED2Ev
FN:106,_ZNSaIPcED1Ev
FN:118,_ZSteqIcEbRKSaIT_ES3_
FN:104,_ZNSaIPcEC1IcEERKSaIT_E
DA:98,0
DA:100,0
DA:101,0
DA:104,6
DA:106,6
DA:118,0
DA:119,0
LF:7
LH:2
end_of_record
SF:/usr/include/c++/4.3/bits/basic_ios.h
FN:131,_ZNKSt9basic_iosIcSt11char_traitsIcEE7rdstateEv
FN:454,_ZNSt9basic_iosIcSt11char_traitsIcEEC2Ev
FN:276,_ZNSt9basic_iosIcSt11char_traitsIcEED2Ev
FN:151,_ZNSt9basic_iosIcSt11char_traitsIcEE8setstateESt12_Ios_Iostate
FN:51,_ZSt13__check_facetISt5ctypeIcEERKT_PS3_
FN:443,_ZNKSt9basic_iosIcSt11char_traitsIcEE5widenEc
DA:51,0
DA:53,0
DA:54,0
DA:55,0
DA:131,0
DA:132,0
DA:151,0
DA:152,0
DA:276,0
DA:443,0
DA:444,0
DA:454,0
DA:456,0
DA:457,0
BA:53,0
BA:53,0
BA:276,0
BA:276,0
LF:14
LH:0
end_of_record
SF:/usr/include/c++/4.3/bits/basic_string.h
FN:277,_ZNKSs7_M_dataEv
FN:1534,_ZNKSs5c_strEv
FN:258,_ZNSs12_Alloc_hiderD1Ev
FN:285,_ZNKSs6_M_repEv
FN:606,_ZNKSs4sizeEv
FN:686,_ZNKSs5emptyEv
FN:612,_ZNKSs6lengthEv
FN:214,_ZNSs4_Rep10_M_refdataEv
FN:1544,_ZNKSs4dataEv
FN:178,_ZNSs4_Rep12_S_empty_repEv
FN:411,_ZNSs12_S_empty_repEv
FN:188,_ZNKSs4_Rep12_M_is_leakedEv
FN:259,_ZNSs12_Alloc_hiderC1EPcRKSaIcE
FN:2067,_ZNSsC1Ev
FN:1551,_ZNKSs13get_allocatorEv
FN:200,_ZNSs4_Rep15_M_set_sharableEv
FN:204,_ZNSs4_Rep26_M_set_length_and_sharableEj
FN:369,_ZNSs13_S_copy_charsISt15_Deque_iteratorIcRcPcEEEvS2_T_S4_
FN:229,_ZNSs4_Rep10_M_disposeERKSaIcE
FN:493,_ZNSsD1Ev
FN:2421,_ZStlsIcSt11char_traitsIcESaIcEERSt13basic_ostreamIT_T0_ES7_RKSbIS4_S5_T1_E
FN:1462,_ZNSs16_S_construct_auxISt15_Deque_iteratorIcRcPcEEES2_T_S4_RKSaIcESt12__false_type
FN:1478,_ZNSs12_S_constructISt15_Deque_iteratorIcRcPcEEES2_T_S4_RKSaIcE
FN:339,_ZNSs7_M_copyEPcPKcj
FN:384,_ZNSs13_S_copy_charsEPcS_S_
FN:1462,_ZNSs16_S_construct_auxIPcEES0_T_S1_RKSaIcESt12__false_type
FN:1478,_ZNSs12_S_constructIPcEES0_T_S1_RKSaIcE
FN:376,_ZNSs13_S_copy_charsEPcN9__gnu_cxx17__normal_iteratorIS_SsEES2_
FN:1462,_ZNSs16_S_construct_auxIN9__gnu_cxx17__normal_iteratorIPcSsEEEES2_T_S4_RKSaIcESt12__false_type
FN:1478,_ZNSs12_S_constructIN9__gnu_cxx17__normal_iteratorIPcSsEEEES2_T_S4_RKSaIcE
FN:835,_ZNSs6appendEPKc
FN:2121,_ZStplIcSt11char_traitsIcESaIcEESbIT_T0_T1_ERKS6_PKS3_
FN:2084,_ZStplIcSt11char_traitsIcESaIcEESbIT_T0_T1_ERKS6_S8_
FN:501,_ZNSsaSERKSs
FN:2176,_ZSteqIcSt11char_traitsIcESaIcEEbPKT_RKSbIS3_T0_T1_E
FN:2188,_ZSteqIcSt11char_traitsIcESaIcEEbRKSbIT_T0_T1_EPKS3_
FN:2162,_ZSteqIcEN9__gnu_cxx11__enable_ifIXsrSt9__is_charIT_E7__valueEbE6__typeERKSbIS3_St11char_traitsIS3_ESaIS3_EESC_
FN:299,_ZNSs7_M_leakEv
FN:718,_ZNSsixEj
FN:551,_ZNSs3endEv
FN:532,_ZNSs5beginEv
DA:178,0
DA:183,0
DA:184,0
DA:188,0
DA:189,0
DA:200,0
DA:201,0
DA:204,0
DA:206,0
DA:207,0
DA:208,0
DA:211,0
DA:214,0
DA:215,0
DA:229,0
DA:232,0
DA:234,0
DA:236,0
DA:237,0
DA:258,0
DA:259,0
DA:260,0
DA:277,0
DA:278,0
DA:285,0
DA:286,0
DA:299,0
DA:301,0
DA:302,0
DA:303,0
DA:339,0
DA:341,0
DA:342,0
DA:344,0
DA:345,0
DA:369,551
DA:371,6720
DA:372,6169
DA:373,551
DA:376,0
DA:377,0
DA:384,0
DA:385,0
DA:411,0
DA:412,0
DA:493,0
DA:494,0
DA:501,0
DA:502,0
DA:532,0
DA:534,0
DA:535,0
DA:551,0
DA:553,0
DA:554,0
DA:606,0
DA:607,0
DA:612,0
DA:613,0
DA:686,0
DA:687,0
DA:718,0
DA:724,0
DA:725,0
DA:835,0
DA:838,0
DA:1462,702
DA:1465,702
DA:1478,702
DA:1481,702
DA:1534,0
DA:1535,0
DA:1544,0
DA:1545,0
DA:1551,0
DA:1552,0
DA:2067,0
DA:2069,0
DA:2084,0
DA:2086,0
DA:2087,0
DA:2088,0
DA:2121,0
DA:2123,0
DA:2124,0
DA:2125,0
DA:2162,0
DA:2165,0
DA:2176,0
DA:2177,0
DA:2188,0
DA:2189,0
DA:2421,0
DA:2425,0
BA:232,0
BA:232,0
BA:234,0
BA:234,0
BA:301,0
BA:301,0
BA:341,0
BA:341,0
BA:371,2
BA:371,2
BA:2165,0
BA:2165,0
BA:2165,0
BA:2165,0
LF:94
LH:8
end_of_record
SF:/usr/include/c++/4.3/bits/basic_string.tcc
FN:130,_ZNSs12_S_constructISt15_Deque_iteratorIcRcPcEEES2_T_S4_RKSaIcESt20forward_iterator_tag
FN:234,_ZNSsC1ISt15_Deque_iteratorIcRcPcEEET_S4_RKSaIcE
FN:130,_ZNSs12_S_constructIPcEES0_T_S1_RKSaIcESt20forward_iterator_tag
FN:234,_ZNSsC1IPcEET_S1_RKSaIcE
FN:130,_ZNSs12_S_constructIN9__gnu_cxx17__normal_iteratorIPcSsEEEES2_T_S4_RKSaIcESt20forward_iterator_tag
FN:234,_ZNSsC1IN9__gnu_cxx17__normal_iteratorIPcSsEEEET_S4_RKSaIcE
DA:130,702
DA:133,702
DA:134,0
DA:137,702
DA:139,0
DA:142,702
DA:144,702
DA:146,702
DA:147,0
DA:149,0
DA:150,0
DA:152,702
DA:153,702
DA:234,702
DA:235,702
DA:236,702
BA:133,1
BA:133,2
BA:133,0
BA:133,0
BA:133,1
BA:133,2
BA:133,1
BA:133,2
BA:133,0
BA:133,0
BA:133,0
BA:133,0
BA:133,0
BA:133,0
BA:133,0
BA:133,0
BA:133,1
BA:133,2
BA:133,0
BA:133,0
BA:133,1
BA:133,2
BA:133,0
BA:133,0
BA:133,1
BA:133,2
BA:137,1
BA:137,2
BA:137,0
BA:137,0
BA:137,1
BA:137,2
BA:137,0
BA:137,0
BA:137,0
BA:137,0
BA:137,0
BA:137,0
BA:137,1
BA:137,2
BA:137,0
BA:137,0
BA:137,1
BA:137,2
LF:16
LH:11
end_of_record
SF:/usr/include/c++/4.3/bits/char_traits.h
FN:245,_ZNSt11char_traitsIcE6assignERcRKc
FN:273,_ZNSt11char_traitsIcE4copyEPcPKcj
FN:261,_ZNSt11char_traitsIcE6lengthEPKc
FN:257,_ZNSt11char_traitsIcE7compareEPKcS2_j
DA:245,6169
DA:246,6169
DA:257,0
DA:258,0
DA:261,0
DA:262,0
DA:273,0
DA:274,0
LF:8
LH:2
end_of_record
SF:/usr/include/c++/4.3/bits/deque.tcc
FN:159,_ZNSt5dequeIcSaIcEE5eraseESt15_Deque_iteratorIcRcPcES5_
FN:766,_ZNSt5dequeIcSaIcEE17_M_reallocate_mapEjb
FN:716,_ZNSt5dequeIcSaIcEE24_M_new_elements_at_frontEj
FN:741,_ZNSt5dequeIcSaIcEE23_M_new_elements_at_backEj
FN:608,_ZNSt5dequeIcSaIcEE13_M_insert_auxISt15_Deque_iteratorIcRKcPS4_EEEvS3_IcRcPcET_SB_j
FN:435,_ZNSt5dequeIcSaIcEE19_M_range_insert_auxISt15_Deque_iteratorIcRKcPS4_EEEvS3_IcRcPcET_SB_St20forward_iterator_tag
FN:70,_ZNSt5dequeIcSaIcEEaSERKS1_
FN:335,_ZNSt5dequeIcSaIcEE16_M_push_back_auxERKc
DA:70,2
DA:72,2
DA:73,2
DA:75,2
DA:76,2
DA:80,0
DA:81,0
DA:82,0
DA:85,2
DA:159,551
DA:161,551
DA:163,497
DA:164,497
DA:168,54
DA:169,54
DA:170,54
DA:172,54
DA:173,0
DA:174,54
DA:178,0
DA:179,0
DA:180,0
DA:182,54
DA:335,2
DA:338,2
DA:339,2
DA:346,2
DA:348,2
DA:350,2
DA:352,0
DA:354,0
DA:355,0
DA:357,2
DA:435,0
DA:437,0
DA:438,0
DA:440,0
DA:443,0
DA:445,0
DA:447,0
DA:449,0
DA:451,0
DA:454,0
DA:456,0
DA:459,0
DA:462,0
DA:464,0
DA:466,0
DA:468,0
DA:472,0
DA:473,0
DA:608,0
DA:610,0
DA:611,0
DA:612,0
DA:614,0
DA:615,0
DA:616,0
DA:619,0
DA:622,0
DA:623,0
DA:626,0
DA:627,0
DA:628,0
DA:632,0
DA:633,0
DA:634,0
DA:638,0
DA:639,0
DA:642,0
DA:644,0
DA:646,0
DA:651,0
DA:652,0
DA:654,0
DA:655,0
DA:658,0
DA:661,0
DA:662,0
DA:666,0
DA:667,0
DA:668,0
DA:672,0
DA:673,0
DA:674,0
DA:678,0
DA:679,0
DA:682,0
DA:684,0
DA:686,0
DA:689,0
DA:716,0
DA:718,0
DA:719,0
DA:722,0
DA:723,0
DA:727,0
DA:728,0
DA:730,0
DA:732,0
DA:733,0
DA:734,0
DA:736,0
DA:741,0
DA:743,0
DA:744,0
DA:747,0
DA:748,0
DA:752,0
DA:753,0
DA:755,0
DA:757,0
DA:758,0
DA:759,0
DA:761,0
DA:766,0
DA:769,0
DA:770,0
DA:773,0
DA:775,0
DA:778,0
DA:779,0
DA:783,0
DA:791,0
DA:793,0
DA:794,0
DA:796,0
DA:799,0
DA:801,0
DA:802,0
DA:805,0
DA:806,0
DA:807,0
BA:73,2
BA:73,1
BA:75,2
BA:75,1
BA:161,2
BA:161,1
BA:161,2
BA:161,2
BA:161,2
BA:161,2
BA:170,2
BA:170,1
BA:172,1
BA:172,2
BA:178,0
BA:178,0
BA:438,0
BA:438,0
BA:454,0
BA:454,0
BA:612,0
BA:612,0
BA:619,0
BA:619,0
BA:658,0
BA:658,0
BA:718,0
BA:718,0
BA:727,0
BA:727,0
BA:732,0
BA:732,0
BA:743,0
BA:743,0
BA:752,0
BA:752,0
BA:757,0
BA:757,0
BA:773,0
BA:773,0
BA:775,0
BA:775,0
BA:778,0
BA:778,0
BA:794,0
BA:794,0
LF:133
LH:23
end_of_record
SF:/usr/include/c++/4.3/bits/ios_base.h
FN:125,_ZStorSt13_Ios_OpenmodeS_
FN:163,_ZStorSt12_Ios_IostateS_
DA:125,0
DA:126,0
DA:163,0
DA:164,0
LF:4
LH:0
end_of_record
SF:/usr/include/c++/4.3/bits/locale_facets.h
FN:1165,_ZNKSt5ctypeIcE13_M_widen_initEv
FN:871,_ZNKSt5ctypeIcE5widenEc
DA:871,0
DA:873,0
DA:874,0
DA:875,0
DA:876,0
DA:1165,0
DA:1168,0
DA:1169,0
DA:1170,0
DA:1172,0
DA:1174,0
DA:1175,0
DA:1176,0
BA:873,0
BA:873,0
BA:1168,0
BA:1168,0
BA:1174,0
BA:1174,0
LF:13
LH:0
end_of_record
SF:/usr/include/c++/4.3/bits/stl_algo.h
FN:171,_ZSt6__findISt15_Deque_iteratorIcRcPcEcET_S4_S4_RKT0_St26random_access_iterator_tag
FN:3806,_ZSt4findISt15_Deque_iteratorIcRcPcEcET_S4_S4_RKT0_
DA:171,2014
DA:174,2014
DA:176,3504
DA:178,1899
DA:179,20
DA:180,1879
DA:182,1879
DA:183,9
DA:184,1870
DA:186,1870
DA:187,31
DA:188,1839
DA:190,1839
DA:191,349
DA:192,1490
DA:195,1605
DA:198,56
DA:199,0
DA:200,56
DA:202,134
DA:203,0
DA:204,134
DA:206,196
DA:207,196
DA:208,0
DA:211,1409
DA:3806,2014
DA:3814,2014
BA:176,2
BA:176,2
BA:178,2
BA:178,2
BA:182,2
BA:182,2
BA:186,2
BA:186,2
BA:190,2
BA:190,2
BA:195,2
BA:195,2
BA:195,2
BA:195,2
BA:198,1
BA:198,2
BA:202,1
BA:202,2
BA:206,2
BA:206,1
LF:28
LH:25
end_of_record
SF:/usr/include/c++/4.3/bits/stl_algobase.h
FN:286,_ZNSt12__miter_baseIN9__gnu_cxx17__normal_iteratorIPKSsSt6vectorISsSaISsEEEELb0EE3__bES7_
FN:286,_ZNSt12__miter_baseIPcLb0EE3__bES0_
FN:276,_ZNSt12__niter_baseIN9__gnu_cxx17__normal_iteratorIPKSsSt6vectorISsSaISsEEEELb1EE3__bES7_
FN:268,_ZNSt12__niter_baseISt16ostream_iteratorISscSt11char_traitsIcEELb0EE3__bES3_
FN:268,_ZNSt12__niter_baseIPcLb0EE3__bES0_
FN:268,_ZNSt12__niter_baseISt20back_insert_iteratorISt5dequeIcSaIcEEELb0EE3__bES4_
FN:286,_ZNSt12__miter_baseISt15_Deque_iteratorIcRcPcELb0EE3__bES3_
FN:286,_ZNSt12__miter_baseISt15_Deque_iteratorIcRKcPS1_ELb0EE3__bES4_
FN:210,_ZSt3maxIjERKT_S2_S2_
FN:268,_ZNSt12__niter_baseISt15_Deque_iteratorIcRcPcELb0EE3__bES3_
FN:268,_ZNSt12__niter_baseISt15_Deque_iteratorIcRKcPS1_ELb0EE3__bES4_
FN:337,_ZNSt11__copy_moveILb0ELb0ESt26random_access_iterator_tagE8__copy_mISt15_Deque_iteratorIcRcPcES6_EET0_T_S8_S7_
FN:385,_ZSt13__copy_move_aILb0ESt15_Deque_iteratorIcRcPcES3_ET1_T0_S5_S4_
FN:430,_ZSt14__copy_move_a2ILb0ESt15_Deque_iteratorIcRcPcES3_ET1_T0_S5_S4_
FN:456,_ZSt4copyISt15_Deque_iteratorIcRcPcES3_ET0_T_S5_S4_
FN:539,_ZNSt20__copy_move_backwardILb0ELb0ESt26random_access_iterator_tagE13__copy_move_bISt15_Deque_iteratorIcRcPcES6_EET0_T_S8_S7_
FN:579,_ZSt22__copy_move_backward_aILb0ESt15_Deque_iteratorIcRcPcES3_ET1_T0_S5_S4_
FN:597,_ZSt23__copy_move_backward_a2ILb0ESt15_Deque_iteratorIcRcPcES3_ET1_T0_S5_S4_
FN:624,_ZSt13copy_backwardISt15_Deque_iteratorIcRcPcES3_ET0_T_S5_S4_
FN:337,_ZNSt11__copy_moveILb0ELb0ESt26random_access_iterator_tagE8__copy_mISt15_Deque_iteratorIcRKcPS4_ES3_IcRcPcEEET0_T_SC_SB_
FN:385,_ZSt13__copy_move_aILb0ESt15_Deque_iteratorIcRKcPS1_ES0_IcRcPcEET1_T0_S9_S8_
FN:430,_ZSt14__copy_move_a2ILb0ESt15_Deque_iteratorIcRKcPS1_ES0_IcRcPcEET1_T0_S9_S8_
FN:456,_ZSt4copyISt15_Deque_iteratorIcRKcPS1_ES0_IcRcPcEET0_T_S9_S8_
FN:286,_ZNSt12__miter_baseIPPcLb0EE3__bES1_
FN:268,_ZNSt12__niter_baseIPPcLb0EE3__bES1_
FN:569,_ZNSt20__copy_move_backwardILb0ELb1ESt26random_access_iterator_tagE13__copy_move_bIPcEEPT_PKS4_S7_S5_
FN:579,_ZSt22__copy_move_backward_aILb0EPPcS1_ET1_T0_S3_S2_
FN:597,_ZSt23__copy_move_backward_a2ILb0EPPcS1_ET1_T0_S3_S2_
FN:624,_ZSt13copy_backwardIPPcS1_ET0_T_S3_S2_
FN:375,_ZNSt11__copy_moveILb0ELb1ESt26random_access_iterator_tagE8__copy_mIPcEEPT_PKS4_S7_S5_
FN:385,_ZSt13__copy_move_aILb0EPPcS1_ET1_T0_S3_S2_
FN:430,_ZSt14__copy_move_a2ILb0EPPcS1_ET1_T0_S3_S2_
FN:456,_ZSt4copyIPPcS1_ET0_T_S3_S2_
FN:337,_ZNSt11__copy_moveILb0ELb0ESt26random_access_iterator_tagE8__copy_mIPcSt20back_insert_iteratorISt5dequeIcSaIcEEEEET0_T_SA_S9_
FN:385,_ZSt13__copy_move_aILb0EPcSt20back_insert_iteratorISt5dequeIcSaIcEEEET1_T0_S7_S6_
FN:430,_ZSt14__copy_move_a2ILb0EPcSt20back_insert_iteratorISt5dequeIcSaIcEEEET1_T0_S7_S6_
FN:456,_ZSt4copyIPcSt20back_insert_iteratorISt5dequeIcSaIcEEEET0_T_S7_S6_
FN:337,_ZNSt11__copy_moveILb0ELb0ESt26random_access_iterator_tagE8__copy_mIPKSsSt16ostream_iteratorISscSt11char_traitsIcEEEET0_T_SA_S9_
FN:385,_ZSt13__copy_move_aILb0EPKSsSt16ostream_iteratorISscSt11char_traitsIcEEET1_T0_S7_S6_
FN:430,_ZSt14__copy_move_a2ILb0EN9__gnu_cxx17__normal_iteratorIPKSsSt6vectorISsSaISsEEEESt16ostream_iteratorISscSt11char_traitsIcEEET1_T0_SD_SC_
FN:456,_ZSt4copyIN9__gnu_cxx17__normal_iteratorIPKSsSt6vectorISsSaISsEEEESt16ostream_iteratorISscSt11char_traitsIcEEET0_T_SD_SC_
DA:210,0
DA:215,0
DA:216,0
DA:217,0
DA:268,503
DA:269,503
DA:276,0
DA:277,0
DA:286,4
DA:287,4
DA:337,499
DA:340,7219
DA:342,6720
DA:343,6720
DA:344,6720
DA:346,499
DA:375,0
DA:377,0
DA:379,0
DA:385,499
DA:393,499
DA:396,499
DA:430,499
DA:435,499
DA:456,499
DA:466,499
DA:539,0
DA:542,0
DA:543,0
DA:544,0
DA:569,0
DA:571,0
DA:572,0
DA:573,0
DA:579,0
DA:587,0
DA:592,0
DA:597,0
DA:602,0
DA:624,0
DA:636,0
BA:215,0
BA:215,0
BA:340,0
BA:340,0
BA:340,1
BA:340,2
BA:340,2
BA:340,2
BA:340,0
BA:340,0
BA:542,0
BA:542,0
LF:41
LH:17
end_of_record
SF:/usr/include/c++/4.3/bits/stl_construct.h
FN:97,_ZSt8_DestroyISt15_Deque_iteratorIcRcPcEEvT_S4_
FN:126,_ZSt8_DestroyISt15_Deque_iteratorIcRcPcEcEvT_S4_RSaIT0_E
FN:87,_ZSt8_DestroyISsEvPT_
FN:97,_ZSt8_DestroyIPSsEvT_S1_
FN:126,_ZSt8_DestroyIPSsSsEvT_S1_RSaIT0_E
DA:87,0
DA:88,0
DA:97,0
DA:101,0
DA:103,0
DA:104,0
DA:126,0
DA:128,0
DA:129,0
BA:101,0
BA:101,0
LF:9
LH:0
end_of_record
SF:/usr/include/c++/4.3/bits/stl_deque.h
FN:82,_ZSt16__deque_buf_sizej
FN:127,_ZNSt15_Deque_iteratorIcRcPcEC1ERKS2_
FN:868,_ZNSt5dequeIcSaIcEE3endEv
FN:851,_ZNSt5dequeIcSaIcEE5beginEv
FN:240,_ZSteqIcRcPcEbRKSt15_Deque_iteratorIT_T0_T1_ES8_
FN:416,_ZNSt11_Deque_baseIcSaIcEE11_Deque_implD1Ev
FN:434,_ZNSt11_Deque_baseIcSaIcEE19_M_get_Tp_allocatorEv
FN:1601,_ZNSt5dequeIcSaIcEE15_M_destroy_dataESt15_Deque_iteratorIcRcPcES5_RKS0_
FN:253,_ZStneIcRcPcEbRKSt15_Deque_iteratorIT_T0_T1_ES8_
FN:132,_ZNKSt15_Deque_iteratorIcRcPcEdeEv
FN:103,_ZNSt15_Deque_iteratorIcRcPcE14_S_buffer_sizeEv
FN:226,_ZNSt15_Deque_iteratorIcRcPcE11_M_set_nodeEPS1_
FN:140,_ZNSt15_Deque_iteratorIcRcPcEppEv
FN:324,_ZStmiIcRcPcENSt15_Deque_iteratorIT_T0_T1_E15difference_typeERKS6_S9_
FN:956,_ZNKSt5dequeIcSaIcEE4sizeEv
FN:180,_ZNSt15_Deque_iteratorIcRcPcEpLEi
FN:199,_ZNKSt15_Deque_iteratorIcRcPcEplEi
FN:206,_ZNSt15_Deque_iteratorIcRcPcEmIEi
FN:210,_ZNKSt15_Deque_iteratorIcRcPcEmiEi
FN:127,_ZNSt15_Deque_iteratorIcRKcPS0_EC1ERKS_IcRcPcE
FN:859,_ZNKSt5dequeIcSaIcEE5beginEv
FN:877,_ZNKSt5dequeIcSaIcEE3endEv
FN:124,_ZNSt15_Deque_iteratorIcRcPcEC1Ev
FN:422,_ZNSt11_Deque_baseIcSaIcEE11_Deque_implC1Ev
FN:670,_ZNSt5dequeIcSaIcEE14_S_buffer_sizeEv
FN:103,_ZNSt15_Deque_iteratorIcRKcPS0_E14_S_buffer_sizeEv
FN:226,_ZNSt15_Deque_iteratorIcRKcPS0_E11_M_set_nodeEPPc
FN:180,_ZNSt15_Deque_iteratorIcRKcPS0_EpLEi
FN:199,_ZNKSt15_Deque_iteratorIcRKcPS0_EplEi
FN:438,_ZNKSt11_Deque_baseIcSaIcEE19_M_get_Tp_allocatorEv
FN:442,_ZNKSt11_Deque_baseIcSaIcEE20_M_get_map_allocatorEv
FN:160,_ZNSt15_Deque_iteratorIcRcPcEmmEv
FN:324,_ZStmiIcRKcPS0_ENSt15_Deque_iteratorIT_T0_T1_E15difference_typeERKS7_SA_
FN:132,_ZNKSt15_Deque_iteratorIcRKcPS0_EdeEv
FN:140,_ZNSt15_Deque_iteratorIcRKcPS0_EppEv
FN:961,_ZNKSt5dequeIcSaIcEE8max_sizeEv
FN:458,_ZNSt11_Deque_baseIcSaIcEE15_M_allocate_mapEj
FN:446,_ZNSt11_Deque_baseIcSaIcEE16_M_allocate_nodeEv
FN:452,_ZNSt11_Deque_baseIcSaIcEE18_M_deallocate_nodeEPc
FN:554,_ZNSt11_Deque_baseIcSaIcEE16_M_destroy_nodesEPPcS3_
FN:536,_ZNSt11_Deque_baseIcSaIcEE15_M_create_nodesEPPcS3_
FN:1619,_ZNSt5dequeIcSaIcEE15_M_erase_at_endESt15_Deque_iteratorIcRcPcE
FN:1373,_ZNSt5dequeIcSaIcEE5clearEv
FN:1609,_ZNSt5dequeIcSaIcEE17_M_erase_at_beginESt15_Deque_iteratorIcRcPcE
FN:462,_ZNSt11_Deque_baseIcSaIcEE17_M_deallocate_mapEPPcj
FN:497,_ZNSt11_Deque_baseIcSaIcEE17_M_initialize_mapEj
FN:377,_ZNSt11_Deque_baseIcSaIcEEC2Ev
FN:695,_ZNSt5dequeIcSaIcEEC1Ev
FN:476,_ZNSt11_Deque_baseIcSaIcEED2Ev
FN:775,_ZNSt5dequeIcSaIcEED1Ev
FN:1674,_ZNSt5dequeIcSaIcEE23_M_reserve_map_at_frontEj
FN:1630,_ZNSt5dequeIcSaIcEE28_M_reserve_elements_at_frontEj
FN:1666,_ZNSt5dequeIcSaIcEE22_M_reserve_map_at_backEj
FN:1640,_ZNSt5dequeIcSaIcEE27_M_reserve_elements_at_backEj
FN:1540,_ZNSt5dequeIcSaIcEE18_M_insert_dispatchISt15_Deque_iteratorIcRKcPS4_EEEvS3_IcRcPcET_SB_St12__false_type
FN:1297,_ZNSt5dequeIcSaIcEE6insertISt15_Deque_iteratorIcRKcPS4_EEEvS3_IcRcPcET_SB_
FN:1159,_ZNSt5dequeIcSaIcEE9push_backERKc
DA:82,4652
DA:83,4652
DA:103,4465
DA:104,4465
DA:124,8
DA:125,8
DA:127,25602
DA:129,25602
DA:132,14042
DA:133,14042
DA:140,13988
DA:142,13988
DA:143,13988
DA:145,6
DA:146,6
DA:148,13988
DA:160,0
DA:162,0
DA:164,0
DA:165,0
DA:167,0
DA:168,0
DA:180,108
DA:182,108
DA:183,108
DA:184,107
DA:190,1
DA:191,1
DA:192,1
DA:195,108
DA:199,108
DA:201,108
DA:202,108
DA:206,0
DA:207,0
DA:210,0
DA:212,0
DA:213,0
DA:226,17
DA:228,17
DA:229,17
DA:230,17
DA:231,17
DA:240,10938
DA:241,10938
DA:253,6774
DA:254,6774
DA:324,4338
DA:329,4338
DA:377,4
DA:378,4
DA:379,4
DA:416,2
DA:422,4
DA:424,4
DA:425,4
DA:434,555
DA:435,555
DA:438,6
DA:439,6
DA:442,6
DA:443,6
DA:446,6
DA:448,6
DA:452,4
DA:454,4
DA:455,4
DA:458,4
DA:459,4
DA:462,2
DA:463,2
DA:476,2
DA:478,2
DA:480,2
DA:482,2
DA:484,2
DA:497,4
DA:500,4
DA:502,4
DA:504,4
DA:512,4
DA:513,4
DA:516,4
DA:517,0
DA:519,0
DA:520,0
DA:521,0
DA:522,0
DA:525,4
DA:526,4
DA:527,4
DA:528,4
DA:531,4
DA:536,4
DA:541,8
DA:542,4
DA:544,0
DA:546,0
DA:547,0
DA:549,4
DA:554,555
DA:556,559
DA:557,4
DA:558,555
DA:670,0
DA:671,0
DA:695,4
DA:696,4
DA:775,2
DA:776,2
DA:851,4436
DA:852,4436
DA:859,2
DA:860,2
DA:868,6074
DA:869,6074
DA:877,2
DA:878,2
DA:956,58
DA:957,58
DA:961,0
DA:962,0
DA:1159,6720
DA:1161,6720
DA:1164,6718
DA:1165,6718
DA:1168,2
DA:1169,6720
DA:1297,0
DA:1301,0
DA:1302,0
DA:1373,497
DA:1374,497
DA:1540,0
DA:1544,0
DA:1545,0
DA:1601,555
DA:1605,555
DA:1609,54
DA:1611,54
DA:1612,54
DA:1613,54
DA:1614,54
DA:1619,499
DA:1621,499
DA:1622,499
DA:1624,499
DA:1625,499
DA:1630,0
DA:1633,0
DA:1634,0
DA:1635,0
DA:1636,0
DA:1640,0
DA:1643,0
DA:1644,0
DA:1645,0
DA:1646,0
DA:1666,2
DA:1668,2
DA:1670,0
DA:1671,2
DA:1674,0
DA:1676,0
DA:1678,0
DA:1679,0
BA:83,2
BA:83,1
BA:143,2
BA:143,2
BA:143,0
BA:143,0
BA:162,0
BA:162,0
BA:183,2
BA:183,1
BA:183,2
BA:183,2
BA:183,2
BA:183,2
BA:183,0
BA:183,0
BA:183,0
BA:183,0
BA:183,0
BA:183,0
BA:190,2
BA:190,1
BA:190,0
BA:190,0
BA:478,2
BA:478,1
BA:541,2
BA:541,2
BA:556,2
BA:556,2
BA:1161,2
BA:1161,2
BA:1634,0
BA:1634,0
BA:1644,0
BA:1644,0
BA:1668,1
BA:1668,2
BA:1676,0
BA:1676,0
LF:166
LH:122
end_of_record
SF:/usr/include/c++/4.3/bits/stl_iterator.h
FN:683,_ZN9__gnu_cxx17__normal_iteratorIPKSsSt6vectorISsSaISsEEEC1ERKS2_
FN:398,_ZNSt20back_insert_iteratorISt5dequeIcSaIcEEEC1ERS2_
FN:456,_ZSt13back_inserterISt5dequeIcSaIcEEESt20back_insert_iteratorIT_ERS4_
FN:683,_ZN9__gnu_cxx17__normal_iteratorIPcSsEC1ERKS1_
FN:735,_ZNK9__gnu_cxx17__normal_iteratorIPcSsEplERKi
FN:747,_ZNK9__gnu_cxx17__normal_iteratorIPKSsSt6vectorISsSaISsEEE4baseEv
FN:769,_ZN9__gnu_cxxeqIPKSsSt6vectorISsSaISsEEEEbRKNS_17__normal_iteratorIT_T0_EESB_
FN:429,_ZNSt20back_insert_iteratorISt5dequeIcSaIcEEEdeEv
FN:434,_ZNSt20back_insert_iteratorISt5dequeIcSaIcEEEppEv
FN:747,_ZNK9__gnu_cxx17__normal_iteratorIPcSsE4baseEv
FN:769,_ZN9__gnu_cxxeqIPcSsEEbRKNS_17__normal_iteratorIT_T0_EES7_
FN:781,_ZN9__gnu_cxxneIPcSsEEbRKNS_17__normal_iteratorIT_T0_EES7_
FN:846,_ZN9__gnu_cxxmiIPcSsEENS_17__normal_iteratorIT_T0_E15difference_typeERKS5_S8_
FN:412,_ZNSt20back_insert_iteratorISt5dequeIcSaIcEEEaSERKc
DA:398,497
DA:412,6720
DA:414,6720
DA:415,6720
DA:429,6720
DA:430,6720
DA:434,6720
DA:435,6720
DA:456,497
DA:457,497
DA:683,152
DA:735,152
DA:736,152
DA:747,604
DA:748,604
DA:769,151
DA:770,151
DA:781,0
DA:782,0
DA:846,151
DA:847,151
LF:21
LH:19
end_of_record
SF:/usr/include/c++/4.3/bits/stl_iterator_base_funcs.h
FN:93,_ZSt10__distanceISt15_Deque_iteratorIcRcPcEENSt15iterator_traitsIT_E15difference_typeES5_S5_St26random_access_iterator_tag
FN:115,_ZSt8distanceISt15_Deque_iteratorIcRcPcEENSt15iterator_traitsIT_E15difference_typeES5_S5_
FN:93,_ZSt10__distanceISt15_Deque_iteratorIcRKcPS1_EENSt15iterator_traitsIT_E15difference_typeES6_S6_St26random_access_iterator_tag
FN:115,_ZSt8distanceISt15_Deque_iteratorIcRKcPS1_EENSt15iterator_traitsIT_E15difference_typeES6_S6_
FN:151,_ZSt9__advanceISt15_Deque_iteratorIcRKcPS1_EiEvRT_T0_St26random_access_iterator_tag
FN:173,_ZSt7advanceISt15_Deque_iteratorIcRKcPS1_EiEvRT_T0_
FN:93,_ZSt10__distanceIN9__gnu_cxx17__normal_iteratorIPcSsEEENSt15iterator_traitsIT_E15difference_typeES5_S5_St26random_access_iterator_tag
FN:115,_ZSt8distanceIN9__gnu_cxx17__normal_iteratorIPcSsEEENSt15iterator_traitsIT_E15difference_typeES5_S5_
FN:93,_ZSt10__distanceIPcENSt15iterator_traitsIT_E15difference_typeES2_S2_St26random_access_iterator_tag
FN:115,_ZSt8distanceIPcENSt15iterator_traitsIT_E15difference_typeES2_S2_
DA:93,702
DA:98,702
DA:115,702
DA:119,702
DA:151,0
DA:156,0
DA:157,0
DA:173,0
DA:176,0
DA:177,0
DA:178,0
LF:11
LH:4
end_of_record
SF:/usr/include/c++/4.3/bits/stl_iterator_base_types.h
FN:111,_ZNSt8iteratorISt19output_iterator_tagvvvvEC2Ev
FN:166,_ZSt19__iterator_categoryISt15_Deque_iteratorIcRcPcEENSt15iterator_traitsIT_E17iterator_categoryERKS5_
FN:166,_ZSt19__iterator_categoryISt15_Deque_iteratorIcRKcPS1_EENSt15iterator_traitsIT_E17iterator_categoryERKS6_
FN:166,_ZSt19__iterator_categoryIN9__gnu_cxx17__normal_iteratorIPcSsEEENSt15iterator_traitsIT_E17iterator_categoryERKS5_
FN:166,_ZSt19__iterator_categoryIPcENSt15iterator_traitsIT_E17iterator_categoryERKS2_
DA:111,0
DA:166,2716
DA:167,2716
LF:3
LH:2
end_of_record
SF:/usr/include/c++/4.3/bits/stl_uninitialized.h
FN:97,_ZNSt20__uninitialized_copyILb1EE18uninitialized_copyISt15_Deque_iteratorIcRKcPS3_ES2_IcRcPcEEET0_T_SB_SA_
FN:113,_ZSt18uninitialized_copyISt15_Deque_iteratorIcRKcPS1_ES0_IcRcPcEET0_T_S9_S8_
FN:261,_ZSt22__uninitialized_copy_aISt15_Deque_iteratorIcRKcPS1_ES0_IcRcPcEcET0_T_S9_S8_RSaIT1_E
FN:97,_ZNSt20__uninitialized_copyILb1EE18uninitialized_copyISt15_Deque_iteratorIcRcPcES5_EET0_T_S7_S6_
FN:113,_ZSt18uninitialized_copyISt15_Deque_iteratorIcRcPcES3_ET0_T_S5_S4_
FN:261,_ZSt22__uninitialized_copy_aISt15_Deque_iteratorIcRcPcES3_cET0_T_S5_S4_RSaIT1_E
FN:268,_ZSt22__uninitialized_move_aISt15_Deque_iteratorIcRcPcES3_SaIcEET0_T_S6_S5_RT1_
FN:371,_ZSt25__uninitialized_move_copyISt15_Deque_iteratorIcRcPcES0_IcRKcPS4_ES3_SaIcEET1_T_SA_T0_SB_S9_RT2_
FN:343,_ZSt25__uninitialized_copy_moveISt15_Deque_iteratorIcRKcPS1_ES0_IcRcPcES7_SaIcEET1_T_SA_T0_SB_S9_RT2_
DA:97,0
DA:98,0
DA:113,0
DA:122,0
DA:261,0
DA:262,0
DA:268,0
DA:272,0
DA:343,0
DA:347,0
DA:350,0
DA:352,0
DA:354,0
DA:355,0
DA:371,0
DA:375,0
DA:378,0
DA:380,0
DA:382,0
DA:383,0
LF:20
LH:0
end_of_record
SF:/usr/include/c++/4.3/bits/stl_vector.h
FN:97,_ZNSt12_Vector_baseISsSaISsEE19_M_get_Tp_allocatorEv
FN:404,_ZNKSt6vectorISsSaISsEE3endEv
FN:386,_ZNKSt6vectorISsSaISsEE5beginEv
FN:526,_ZNKSt6vectorISsSaISsEE5emptyEv
FN:79,_ZNSt12_Vector_baseISsSaISsEE12_Vector_implD1Ev
FN:147,_ZNSt12_Vector_baseISsSaISsEE13_M_deallocateEPSsj
FN:135,_ZNSt12_Vector_baseISsSaISsEED2Ev
FN:299,_ZNSt6vectorISsSaISsEED1Ev
DA:79,0
DA:97,0
DA:98,0
DA:135,0
DA:136,0
DA:137,0
DA:147,0
DA:149,0
DA:150,0
DA:151,0
DA:299,0
DA:300,0
DA:301,0
DA:386,0
DA:387,0
DA:404,0
DA:405,0
DA:526,0
DA:527,0
BA:149,0
BA:149,0
LF:19
LH:0
end_of_record
SF:/usr/include/c++/4.3/bits/stream_iterator.h
FN:181,_ZNSt16ostream_iteratorISscSt11char_traitsIcEEC1ERSoPKc
FN:185,_ZNSt16ostream_iteratorISscSt11char_traitsIcEEC1ERKS2_
FN:202,_ZNSt16ostream_iteratorISscSt11char_traitsIcEEdeEv
FN:206,_ZNSt16ostream_iteratorISscSt11char_traitsIcEEppEv
FN:191,_ZNSt16ostream_iteratorISscSt11char_traitsIcEEaSERKSs
DA:181,0
DA:182,0
DA:185,0
DA:186,0
DA:191,0
DA:196,0
DA:197,0
DA:198,0
DA:202,0
DA:203,0
DA:206,0
DA:207,0
BA:197,0
BA:197,0
LF:12
LH:0
end_of_record
SF:/usr/include/c++/4.3/ext/atomicity.h
FN:67,_ZN9__gnu_cxxL25__exchange_and_add_singleEPii
FN:50,_ZN9__gnu_cxxL18__exchange_and_addEPVii
FN:80,_ZN9__gnu_cxxL27__exchange_and_add_dispatchEPii
DA:50,0
DA:51,0
DA:67,0
DA:69,0
DA:70,0
DA:71,0
DA:80,0
DA:83,0
DA:84,0
DA:86,0
BA:83,0
BA:83,0
LF:10
LH:0
end_of_record
SF:/usr/include/c++/4.3/ext/new_allocator.h
FN:69,_ZN9__gnu_cxx13new_allocatorIcEC2Ev
FN:76,_ZN9__gnu_cxx13new_allocatorIcED2Ev
FN:71,_ZN9__gnu_cxx13new_allocatorIcEC2ERKS1_
FN:76,_ZN9__gnu_cxx13new_allocatorISsED2Ev
FN:76,_ZN9__gnu_cxx13new_allocatorIPcED2Ev
FN:101,_ZNK9__gnu_cxx13new_allocatorIPcE8max_sizeEv
FN:69,_ZN9__gnu_cxx13new_allocatorIPcEC2Ev
FN:101,_ZNK9__gnu_cxx13new_allocatorIcE8max_sizeEv
FN:107,_ZN9__gnu_cxx13new_allocatorIcE9constructEPcRKc
FN:87,_ZN9__gnu_cxx13new_allocatorIPcE8allocateEjPKv
FN:87,_ZN9__gnu_cxx13new_allocatorIcE8allocateEjPKv
FN:97,_ZN9__gnu_cxx13new_allocatorIcE10deallocateEPcj
FN:97,_ZN9__gnu_cxx13new_allocatorIPcE10deallocateEPS1_j
FN:97,_ZN9__gnu_cxx13new_allocatorISsE10deallocateEPSsj
DA:69,6
DA:71,0
DA:76,6
DA:87,4
DA:89,4
DA:90,0
DA:92,4
DA:97,2
DA:98,2
DA:101,4
DA:102,4
DA:107,0
DA:108,0
BA:89,1
BA:89,2
BA:89,0
BA:89,0
BA:108,0
BA:108,0
LF:13
LH:9
end_of_record
SF:/usr/include/c++/4.3/ext/type_traits.h
FN:159,_ZN9__gnu_cxx17__is_null_pointerISt15_Deque_iteratorIcRcPcEEEbT_
FN:159,_ZN9__gnu_cxx17__is_null_pointerINS_17__normal_iteratorIPcSsEEEEbT_
FN:154,_ZN9__gnu_cxx17__is_null_pointerIcEEbPT_
DA:154,0
DA:155,0
DA:159,702
DA:160,702
LF:4
LH:2
end_of_record
SF:/usr/include/c++/4.3/i486-linux-gnu/bits/gthr-default.h
FN:212,_ZL18__gthread_active_pv
DA:212,0
DA:216,0
LF:2
LH:0
end_of_record
SF:/usr/include/c++/4.3/iosfwd
FN:68,_ZNSt15basic_stringbufIcSt11char_traitsIcESaIcEED1Ev
DA:68,0
BA:68,0
BA:68,0
LF:1
LH:0
end_of_record
SF:/usr/include/c++/4.3/iostream
DA:77,1
LF:1
LH:1
end_of_record
SF:/usr/include/c++/4.3/istream
FN:585,_ZNSiC2Ev
FN:105,_ZNSiD2Ev
FN:804,_ZNSdC2Ev
FN:801,_ZNSdD2Ev
DA:105,0
DA:106,0
DA:585,0
DA:586,0
DA:587,0
DA:801,0
DA:804,0
DA:805,0
BA:106,0
BA:106,0
BA:106,0
BA:106,0
BA:801,0
BA:801,0
BA:801,0
BA:801,0
BA:801,0
BA:801,0
LF:8
LH:0
end_of_record
SF:/usr/include/c++/4.3/new
FN:105,_ZnwjPv
DA:105,0
LF:1
LH:0
end_of_record
SF:/usr/include/c++/4.3/ostream
FN:112,_ZNSolsEPFRSoS_E
FN:365,_ZNSoC2Ev
FN:95,_ZNSoD2Ev
FN:512,_ZStlsISt11char_traitsIcEERSt13basic_ostreamIcT_ES5_PKc
FN:566,_ZSt5flushIcSt11char_traitsIcEERSt13basic_ostreamIT_T0_ES6_
FN:545,_ZSt4endlIcSt11char_traitsIcEERSt13basic_ostreamIT_T0_ES6_
DA:95,0
DA:112,0
DA:117,0
DA:365,0
DA:366,0
DA:512,0
DA:514,0
DA:515,0
DA:517,0
DA:519,0
DA:545,0
DA:546,0
DA:566,0
DA:567,0
BA:95,0
BA:95,0
BA:95,0
BA:95,0
BA:514,0
BA:514,0
LF:14
LH:0
end_of_record
SF:/usr/include/c++/4.3/sstream
FN:96,_ZNSt15basic_stringbufIcSt11char_traitsIcESaIcEEC1ESt13_Ios_Openmode
FN:509,_ZNSt18basic_stringstreamIcSt11char_traitsIcESaIcEEC1ESt13_Ios_Openmode
FN:536,_ZNSt18basic_stringstreamIcSt11char_traitsIcESaIcEED1Ev
FN:402,_ZNSt19basic_ostringstreamIcSt11char_traitsIcESaIcEEC1ESt13_Ios_Openmode
FN:431,_ZNSt19basic_ostringstreamIcSt11char_traitsIcESaIcEED1Ev
FN:124,_ZNKSt15basic_stringbufIcSt11char_traitsIcESaIcEE3strEv
FN:555,_ZNKSt18basic_stringstreamIcSt11char_traitsIcESaIcEE3strEv
FN:450,_ZNKSt19basic_ostringstreamIcSt11char_traitsIcESaIcEE3strEv
DA:96,0
DA:97,0
DA:98,0
DA:124,0
DA:126,0
DA:127,0
DA:130,0
DA:131,0
DA:133,0
DA:136,0
DA:137,0
DA:402,0
DA:403,0
DA:404,0
DA:431,0
DA:432,0
DA:450,0
DA:451,0
DA:509,0
DA:510,0
DA:511,0
DA:536,0
DA:537,0
DA:555,0
DA:556,0
BA:127,0
BA:127,0
BA:130,0
BA:130,0
BA:432,0
BA:432,0
BA:432,0
BA:432,0
BA:432,0
BA:432,0
BA:537,0
BA:537,0
BA:537,0
BA:537,0
BA:537,0
BA:537,0
LF:25
LH:0
end_of_record
SF:/usr/include/c++/4.3/streambuf
FN:513,_ZNKSt15basic_streambufIcSt11char_traitsIcEE4pptrEv
FN:469,_ZNKSt15basic_streambufIcSt11char_traitsIcEE5egptrEv
FN:510,_ZNKSt15basic_streambufIcSt11char_traitsIcEE5pbaseEv
FN:444,_ZNSt15basic_streambufIcSt11char_traitsIcEEC2Ev
FN:197,_ZNSt15basic_streambufIcSt11char_traitsIcEED2Ev
DA:197,0
DA:198,0
DA:444,0
DA:447,0
DA:448,0
DA:469,0
DA:510,0
DA:513,0
BA:198,0
BA:198,0
LF:8
LH:0
end_of_record
TN:
SF:/home/mornfall/dev/pkg/ept-work/wibble/test.h
FN:17,_ZN8LocationC1EPKciSs
FN:13,_ZN8LocationC1ERKS_
FN:52,_ZlsISsER12AssertFailedS1_T_
FN:52,_ZlsIPKcER12AssertFailedS3_T_
FN:52,_ZlsIjER12AssertFailedS1_T_
FN:33,_ZN12AssertFailedC1E8LocationRSo
FN:41,_ZN12AssertFailedD1Ev
FN:13,_ZN8LocationD1Ev
FN:67,_Z12assert_eq_fnIjjEv8LocationT_T0_
FN:67,_Z12assert_eq_fnISsSsEv8LocationT_T0_
DA:13,0
DA:17,0
DA:18,0
DA:33,0
DA:34,0
DA:36,0
DA:38,0
DA:39,0
DA:41,0
DA:42,0
DA:43,0
DA:45,0
DA:46,0
DA:48,0
DA:52,0
DA:54,0
DA:55,0
DA:67,0
DA:69,0
DA:70,0
DA:71,0
DA:75,0
BA:42,0
BA:42,0
BA:69,0
BA:69,0
BA:69,0
BA:69,0
LF:22
LH:0
end_of_record
SF:/home/mornfall/dev/pkg/ept-work/wibble/sys/process.test.h
FN:20,_ZN11TestProcess5umaskEv
FN:12,_ZN11TestProcess14getcwdAndChdirEv
DA:12,1
DA:13,1
DA:14,1
DA:15,2
DA:16,1
DA:17,1
DA:18,1
DA:20,1
DA:21,1
DA:22,1
DA:23,1
LF:11
LH:11
end_of_record
SF:/srv/build/pkg/ept-work/default/wibble/wibble-test-generated-_home_mornfall_dev_pkg_ept-work_wibble_sys_process.cpp
FN:4,_Z41__static_initialization_and_destruction_0ii
FN:4,_GLOBAL__I__Z26run_Process_getcwdAndChdirv
FN:4,_Z17run_Process_umaskv
FN:3,_Z26run_Process_getcwdAndChdirv
DA:3,1
DA:4,4
BA:4,2
BA:4,1
BA:4,2
BA:4,1
LF:2
LH:2
end_of_record
SF:/usr/include/c++/4.3/bits/allocator.h
FN:98,_ZNSaIcEC1Ev
FN:106,_ZNSaIcED2Ev
FN:106,_ZNSaIcED1Ev
FN:100,_ZNSaIcEC2ERKS_
FN:100,_ZNSaIcEC1ERKS_
FN:118,_ZSteqIcEbRKSaIT_ES3_
DA:98,0
DA:100,0
DA:101,0
DA:106,0
DA:118,0
DA:119,0
LF:6
LH:0
end_of_record
SF:/usr/include/c++/4.3/bits/basic_ios.h
FN:131,_ZNKSt9basic_iosIcSt11char_traitsIcEE7rdstateEv
FN:454,_ZNSt9basic_iosIcSt11char_traitsIcEEC2Ev
FN:276,_ZNSt9basic_iosIcSt11char_traitsIcEED2Ev
FN:151,_ZNSt9basic_iosIcSt11char_traitsIcEE8setstateESt12_Ios_Iostate
FN:51,_ZSt13__check_facetISt5ctypeIcEERKT_PS3_
FN:443,_ZNKSt9basic_iosIcSt11char_traitsIcEE5widenEc
DA:51,0
DA:53,0
DA:54,0
DA:55,0
DA:131,0
DA:132,0
DA:151,0
DA:152,0
DA:276,0
DA:443,0
DA:444,0
DA:454,0
DA:456,0
DA:457,0
BA:53,0
BA:53,0
BA:276,0
BA:276,0
LF:14
LH:0
end_of_record
SF:/usr/include/c++/4.3/bits/basic_string.h
FN:277,_ZNKSs7_M_dataEv
FN:258,_ZNSs12_Alloc_hiderD1Ev
FN:285,_ZNKSs6_M_repEv
FN:606,_ZNKSs4sizeEv
FN:214,_ZNSs4_Rep10_M_refdataEv
FN:1544,_ZNKSs4dataEv
FN:178,_ZNSs4_Rep12_S_empty_repEv
FN:411,_ZNSs12_S_empty_repEv
FN:259,_ZNSs12_Alloc_hiderC1EPcRKSaIcE
FN:2067,_ZNSsC1Ev
FN:1551,_ZNKSs13get_allocatorEv
FN:200,_ZNSs4_Rep15_M_set_sharableEv
FN:204,_ZNSs4_Rep26_M_set_length_and_sharableEj
FN:2421,_ZStlsIcSt11char_traitsIcESaIcEERSt13basic_ostreamIT_T0_ES7_RKSbIS4_S5_T1_E
FN:339,_ZNSs7_M_copyEPcPKcj
FN:384,_ZNSs13_S_copy_charsEPcS_S_
FN:1462,_ZNSs16_S_construct_auxIPcEES0_T_S1_RKSaIcESt12__false_type
FN:1478,_ZNSs12_S_constructIPcEES0_T_S1_RKSaIcE
FN:501,_ZNSsaSERKSs
FN:2162,_ZSteqIcEN9__gnu_cxx11__enable_ifIXsrSt9__is_charIT_E7__valueEbE6__typeERKSbIS3_St11char_traitsIS3_ESaIS3_EESC_
FN:229,_ZNSs4_Rep10_M_disposeERKSaIcE
FN:493,_ZNSsD1Ev
DA:178,0
DA:183,0
DA:184,0
DA:200,0
DA:201,0
DA:204,0
DA:206,0
DA:207,0
DA:208,0
DA:211,0
DA:214,0
DA:215,0
DA:229,0
DA:232,0
DA:234,0
DA:236,0
DA:237,0
DA:258,0
DA:259,0
DA:260,0
DA:277,0
DA:278,0
DA:285,0
DA:286,0
DA:339,0
DA:341,0
DA:342,0
DA:344,0
DA:345,0
DA:384,0
DA:385,0
DA:411,0
DA:412,0
DA:493,0
DA:494,0
DA:501,0
DA:502,0
DA:606,0
DA:607,0
DA:1462,0
DA:1465,0
DA:1478,0
DA:1481,0
DA:1544,0
DA:1545,0
DA:1551,0
DA:1552,0
DA:2067,0
DA:2069,0
DA:2162,0
DA:2165,0
DA:2421,0
DA:2425,0
BA:232,0
BA:232,0
BA:234,0
BA:234,0
BA:341,0
BA:341,0
BA:2165,0
BA:2165,0
BA:2165,0
BA:2165,0
LF:53
LH:0
end_of_record
SF:/usr/include/c++/4.3/bits/basic_string.tcc
FN:130,_ZNSs12_S_constructIPcEES0_T_S1_RKSaIcESt20forward_iterator_tag
FN:234,_ZNSsC1IPcEET_S1_RKSaIcE
DA:130,0
DA:133,0
DA:134,0
DA:137,0
DA:139,0
DA:142,0
DA:144,0
DA:146,0
DA:147,0
DA:149,0
DA:150,0
DA:152,0
DA:153,0
DA:234,0
DA:235,0
DA:236,0
BA:133,0
BA:133,0
BA:133,0
BA:133,0
BA:133,0
BA:133,0
BA:133,0
BA:133,0
BA:137,0
BA:137,0
BA:137,0
BA:137,0
BA:137,0
BA:137,0
LF:16
LH:0
end_of_record
SF:/usr/include/c++/4.3/bits/char_traits.h
FN:245,_ZNSt11char_traitsIcE6assignERcRKc
FN:261,_ZNSt11char_traitsIcE6lengthEPKc
FN:273,_ZNSt11char_traitsIcE4copyEPcPKcj
FN:257,_ZNSt11char_traitsIcE7compareEPKcS2_j
DA:245,0
DA:246,0
DA:257,0
DA:258,0
DA:261,0
DA:262,0
DA:273,0
DA:274,0
LF:8
LH:0
end_of_record
SF:/usr/include/c++/4.3/bits/ios_base.h
FN:125,_ZStorSt13_Ios_OpenmodeS_
FN:163,_ZStorSt12_Ios_IostateS_
DA:125,0
DA:126,0
DA:163,0
DA:164,0
LF:4
LH:0
end_of_record
SF:/usr/include/c++/4.3/bits/locale_facets.h
FN:1165,_ZNKSt5ctypeIcE13_M_widen_initEv
FN:871,_ZNKSt5ctypeIcE5widenEc
DA:871,0
DA:873,0
DA:874,0
DA:875,0
DA:876,0
DA:1165,0
DA:1168,0
DA:1169,0
DA:1170,0
DA:1172,0
DA:1174,0
DA:1175,0
DA:1176,0
BA:873,0
BA:873,0
BA:1168,0
BA:1168,0
BA:1174,0
BA:1174,0
LF:13
LH:0
end_of_record
SF:/usr/include/c++/4.3/bits/stl_iterator_base_funcs.h
FN:93,_ZSt10__distanceIPcENSt15iterator_traitsIT_E15difference_typeES2_S2_St26random_access_iterator_tag
FN:115,_ZSt8distanceIPcENSt15iterator_traitsIT_E15difference_typeES2_S2_
DA:93,0
DA:98,0
DA:115,0
DA:119,0
LF:4
LH:0
end_of_record
SF:/usr/include/c++/4.3/bits/stl_iterator_base_types.h
FN:166,_ZSt19__iterator_categoryIPcENSt15iterator_traitsIT_E17iterator_categoryERKS2_
DA:166,0
DA:167,0
LF:2
LH:0
end_of_record
SF:/usr/include/c++/4.3/ext/atomicity.h
FN:67,_ZN9__gnu_cxxL25__exchange_and_add_singleEPii
FN:50,_ZN9__gnu_cxxL18__exchange_and_addEPVii
FN:80,_ZN9__gnu_cxxL27__exchange_and_add_dispatchEPii
DA:50,0
DA:51,0
DA:67,0
DA:69,0
DA:70,0
DA:71,0
DA:80,0
DA:83,0
DA:84,0
DA:86,0
BA:83,0
BA:83,0
LF:10
LH:0
end_of_record
SF:/usr/include/c++/4.3/ext/new_allocator.h
FN:69,_ZN9__gnu_cxx13new_allocatorIcEC2Ev
FN:76,_ZN9__gnu_cxx13new_allocatorIcED2Ev
FN:71,_ZN9__gnu_cxx13new_allocatorIcEC2ERKS1_
DA:69,0
DA:71,0
DA:76,0
LF:3
LH:0
end_of_record
SF:/usr/include/c++/4.3/ext/type_traits.h
FN:154,_ZN9__gnu_cxx17__is_null_pointerIcEEbPT_
DA:154,0
DA:155,0
LF:2
LH:0
end_of_record
SF:/usr/include/c++/4.3/i486-linux-gnu/bits/gthr-default.h
FN:212,_ZL18__gthread_active_pv
DA:212,0
DA:216,0
LF:2
LH:0
end_of_record
SF:/usr/include/c++/4.3/iosfwd
FN:68,_ZNSt15basic_stringbufIcSt11char_traitsIcESaIcEED1Ev
DA:68,0
BA:68,0
BA:68,0
LF:1
LH:0
end_of_record
SF:/usr/include/c++/4.3/iostream
DA:77,1
LF:1
LH:1
end_of_record
SF:/usr/include/c++/4.3/ostream
FN:112,_ZNSolsEPFRSoS_E
FN:365,_ZNSoC2Ev
FN:95,_ZNSoD2Ev
FN:512,_ZStlsISt11char_traitsIcEERSt13basic_ostreamIcT_ES5_PKc
FN:195,_ZNSolsEj
FN:566,_ZSt5flushIcSt11char_traitsIcEERSt13basic_ostreamIT_T0_ES6_
FN:545,_ZSt4endlIcSt11char_traitsIcEERSt13basic_ostreamIT_T0_ES6_
DA:95,0
DA:112,0
DA:117,0
DA:195,0
DA:199,0
DA:365,0
DA:366,0
DA:512,0
DA:514,0
DA:515,0
DA:517,0
DA:519,0
DA:545,0
DA:546,0
DA:566,0
DA:567,0
BA:95,0
BA:95,0
BA:95,0
BA:95,0
BA:514,0
BA:514,0
LF:16
LH:0
end_of_record
SF:/usr/include/c++/4.3/sstream
FN:96,_ZNSt15basic_stringbufIcSt11char_traitsIcESaIcEEC1ESt13_Ios_Openmode
FN:402,_ZNSt19basic_ostringstreamIcSt11char_traitsIcESaIcEEC1ESt13_Ios_Openmode
FN:431,_ZNSt19basic_ostringstreamIcSt11char_traitsIcESaIcEED1Ev
FN:124,_ZNKSt15basic_stringbufIcSt11char_traitsIcESaIcEE3strEv
FN:450,_ZNKSt19basic_ostringstreamIcSt11char_traitsIcESaIcEE3strEv
DA:96,0
DA:97,0
DA:98,0
DA:124,0
DA:126,0
DA:127,0
DA:130,0
DA:131,0
DA:133,0
DA:136,0
DA:137,0
DA:402,0
DA:403,0
DA:404,0
DA:431,0
DA:432,0
DA:450,0
DA:451,0
BA:127,0
BA:127,0
BA:130,0
BA:130,0
BA:432,0
BA:432,0
BA:432,0
BA:432,0
BA:432,0
BA:432,0
LF:18
LH:0
end_of_record
SF:/usr/include/c++/4.3/streambuf
FN:513,_ZNKSt15basic_streambufIcSt11char_traitsIcEE4pptrEv
FN:469,_ZNKSt15basic_streambufIcSt11char_traitsIcEE5egptrEv
FN:510,_ZNKSt15basic_streambufIcSt11char_traitsIcEE5pbaseEv
FN:444,_ZNSt15basic_streambufIcSt11char_traitsIcEEC2Ev
FN:197,_ZNSt15basic_streambufIcSt11char_traitsIcEED2Ev
DA:197,0
DA:198,0
DA:444,0
DA:447,0
DA:448,0
DA:469,0
DA:510,0
DA:513,0
BA:198,0
BA:198,0
LF:8
LH:0
end_of_record
TN:
SF:/home/mornfall/dev/pkg/ept-work/wibble/exception.h
FN:190,_ZNK6wibble9exception7Generic4typeEv
FN:263,_ZNK6wibble9exception11Consistency4typeEv
FN:109,_ZN6wibble9exception10AddContext7contextEv
FN:213,_ZNK6wibble9exception7Generic4whatEv
FN:193,_ZNK6wibble9exception7Generic4descEv
FN:265,_ZNK6wibble9exception11Consistency4descEv
FN:154,_ZNK6wibble9exception7Context13formatContextEv
FN:205,_ZNK6wibble9exception7Generic8fullInfoEv
FN:137,_ZN6wibble9exception7ContextD2Ev
FN:117,_ZN6wibble9exception10AddContext11copyContextISt20back_insert_iteratorISt6vectorISsSaISsEEEEEvT_
FN:153,_ZN6wibble9exception7Context10addContextERKSs
FN:147,_ZN6wibble9exception7ContextC2ERKSs
FN:186,_ZN6wibble9exception7GenericC2ERKSs
FN:187,_ZN6wibble9exception7GenericD0Ev
FN:187,_ZN6wibble9exception7GenericD1Ev
FN:187,_ZN6wibble9exception7GenericD2Ev
FN:259,_ZN6wibble9exception11ConsistencyC1ERKSsS3_
FN:261,_ZN6wibble9exception11ConsistencyD0Ev
FN:261,_ZN6wibble9exception11ConsistencyD1Ev
DA:109,0
DA:110,0
DA:111,0
DA:112,0
DA:113,0
DA:117,0
DA:118,0
DA:119,0
DA:137,0
DA:147,0
DA:148,0
DA:149,0
DA:150,0
DA:151,0
DA:153,0
DA:154,0
DA:155,0
DA:156,0
DA:157,0
DA:159,0
DA:161,0
DA:162,0
DA:163,0
DA:186,0
DA:187,0
DA:190,0
DA:193,0
DA:194,0
DA:195,0
DA:205,0
DA:206,0
DA:207,0
DA:209,0
DA:210,0
DA:213,0
DA:259,0
DA:260,0
DA:261,0
DA:263,0
DA:265,0
DA:266,0
DA:267,0
DA:268,0
DA:269,0
BA:110,0
BA:110,0
BA:156,0
BA:156,0
BA:187,0
BA:187,0
BA:187,0
BA:187,0
BA:187,0
BA:187,0
BA:207,0
BA:207,0
BA:261,0
BA:261,0
BA:261,0
BA:261,0
BA:267,0
BA:267,0
LF:44
LH:0
end_of_record
SF:/home/mornfall/dev/pkg/ept-work/wibble/sys/buffer.h
FN:51,_ZNK6wibble3sys6Buffer4Data3refEv
FN:55,_ZNK6wibble3sys6Buffer4Data5unrefEv
FN:118,_ZN6wibble3sys6BufferC2ERKS1_
FN:140,_ZN6wibble3sys6Buffer4dataEv
FN:143,_ZNK6wibble3sys6Buffer4dataEv
FN:146,_ZNK6wibble3sys6Buffer4sizeEv
FN:109,_ZN6wibble3sys6BufferC2EPKvj
FN:129,_ZN6wibble3sys6BufferaSERKS1_
FN:124,_ZN6wibble3sys6BufferD2Ev
DA:51,16
DA:55,16
DA:109,2
DA:111,2
DA:113,2
DA:114,2
DA:116,2
DA:118,4
DA:120,4
DA:121,4
DA:122,4
DA:123,4
DA:124,6
DA:126,6
DA:127,2
DA:128,6
DA:129,5
DA:131,5
DA:132,5
DA:133,5
DA:134,0
DA:135,5
DA:136,5
DA:140,17
DA:143,7
DA:146,30
BA:111,2
BA:111,1
BA:120,2
BA:120,1
BA:126,2
BA:126,1
BA:126,2
BA:126,2
BA:126,2
BA:126,2
BA:127,2
BA:127,1
BA:131,2
BA:131,1
BA:133,2
BA:133,1
BA:133,1
BA:133,2
BA:133,1
BA:133,2
BA:134,0
BA:134,0
BA:140,2
BA:140,2
BA:143,2
BA:143,1
BA:146,2
BA:146,2
LF:26
LH:25
end_of_record
SF:/home/mornfall/dev/pkg/ept-work/wibble/sys/netbuffer.h
FN:53,_ZN6wibble3sys9NetBufferC1ERKS1_
FN:71,_ZNK6wibble3sys9NetBuffer4dataEj
FN:74,_ZN6wibble3sys9NetBuffer4dataEj
FN:77,_ZNK6wibble3sys9NetBuffer4sizeEv
FN:84,_ZNK6wibble3sys9NetBuffer4fitsIsEEbj
FN:84,_ZNK6wibble3sys9NetBuffer4fitsIxEEbj
FN:49,_ZN6wibble3sys9NetBufferC1EPKvj
FN:63,_ZN6wibble3sys9NetBufferaSERKS1_
FN:36,_ZN6wibble3sys9NetBufferD1Ev
FN:152,_ZN6wibble3sys9NetBuffer4skipEj
FN:133,_ZN6wibble3sys9NetBufferpLEj
FN:111,_ZNK6wibble3sys9NetBuffer5afterEj
FN:103,_ZN6wibble3sys9NetBufferplEj
FN:144,_ZN6wibble3sys9NetBuffer4skipIsEEvv
FN:123,_ZNK6wibble3sys9NetBuffer5afterIsEEKS1_v
FN:93,_ZNK6wibble3sys9NetBuffer4castIcEEPKT_j
DA:36,6
DA:49,2
DA:50,2
DA:53,4
DA:54,4
DA:63,5
DA:65,5
DA:66,5
DA:67,5
DA:71,7
DA:74,8
DA:77,23
DA:84,2
DA:86,2
DA:93,7
DA:95,7
DA:96,0
DA:97,7
DA:103,1
DA:104,0
DA:105,1
DA:111,2
DA:112,0
DA:113,2
DA:114,2
DA:115,0
DA:123,1
DA:125,1
DA:126,1
DA:127,0
DA:133,1
DA:134,0
DA:135,1
DA:136,1
DA:144,1
DA:146,1
DA:147,1
DA:152,6
DA:153,0
DA:154,6
DA:155,0
DA:156,6
DA:157,6
BA:95,1
BA:95,2
BA:154,1
BA:154,2
LF:43
LH:35
end_of_record
SF:/home/mornfall/dev/pkg/ept-work/wibble/test.h
FN:13,_ZN8LocationC1ERKS_
FN:17,_ZN8LocationC1EPKciSs
FN:52,_ZlsIcER12AssertFailedS1_T_
FN:52,_ZlsIPKcER12AssertFailedS3_T_
FN:52,_ZlsIjER12AssertFailedS1_T_
FN:33,_ZN12AssertFailedC1E8LocationRSo
FN:41,_ZN12AssertFailedD1Ev
FN:13,_ZN8LocationD1Ev
FN:67,_Z12assert_eq_fnIjjEv8LocationT_T0_
FN:59,_Z9assert_fnIbEv8LocationT_
FN:67,_Z12assert_eq_fnIccEv8LocationT_T0_
DA:13,0
DA:17,0
DA:18,0
DA:33,0
DA:34,0
DA:36,0
DA:38,0
DA:39,0
DA:41,0
DA:42,0
DA:43,0
DA:45,0
DA:46,0
DA:48,0
DA:52,0
DA:54,0
DA:55,0
DA:59,0
DA:61,0
DA:62,0
DA:64,0
DA:67,13
DA:69,13
DA:70,0
DA:71,0
DA:75,13
BA:42,0
BA:42,0
BA:61,0
BA:61,0
BA:69,0
BA:69,0
BA:69,1
BA:69,2
LF:26
LH:3
end_of_record
SF:/home/mornfall/dev/pkg/ept-work/wibble/sys/netbuffer.test.h
FN:27,_ZN13TestNetBuffer9skipBytesEv
FN:15,_ZN13TestNetBuffer16startAtBeginningEv
DA:15,1
DA:16,1
DA:18,1
DA:19,2
DA:21,2
DA:22,2
DA:23,2
DA:24,1
DA:27,1
DA:28,1
DA:30,1
DA:32,1
DA:33,2
DA:35,1
DA:36,1
DA:37,2
DA:38,2
DA:40,2
DA:41,1
DA:42,2
DA:43,2
DA:45,1
DA:46,1
DA:47,1
DA:48,2
DA:49,2
DA:51,2
DA:52,1
DA:53,2
DA:54,2
DA:56,1
DA:57,1
DA:58,1
DA:59,2
DA:60,2
DA:62,2
DA:63,1
DA:64,2
DA:65,2
DA:66,1
LF:40
LH:40
end_of_record
SF:/srv/build/pkg/ept-work/default/wibble/wibble-test-generated-_home_mornfall_dev_pkg_ept-work_wibble_sys_netbuffer.cpp
FN:4,_Z41__static_initialization_and_destruction_0ii
FN:4,_GLOBAL__I__Z30run_NetBuffer_startAtBeginningv
FN:4,_Z23run_NetBuffer_skipBytesv
FN:3,_Z30run_NetBuffer_startAtBeginningv
DA:3,1
DA:4,4
BA:4,2
BA:4,1
BA:4,2
BA:4,1
LF:2
LH:2
end_of_record
SF:/usr/include/c++/4.3/bits/allocator.h
FN:98,_ZNSaIcEC1Ev
FN:106,_ZNSaIcED2Ev
FN:106,_ZNSaIcED1Ev
FN:100,_ZNSaIcEC2ERKS_
FN:100,_ZNSaIcEC1ERKS_
FN:106,_ZNSaISsED2Ev
FN:98,_ZNSaISsEC2Ev
FN:118,_ZSteqIcEbRKSaIT_ES3_
DA:98,0
DA:100,0
DA:101,0
DA:106,0
DA:118,0
DA:119,0
LF:6
LH:0
end_of_record
SF:/usr/include/c++/4.3/bits/basic_ios.h
FN:131,_ZNKSt9basic_iosIcSt11char_traitsIcEE7rdstateEv
FN:454,_ZNSt9basic_iosIcSt11char_traitsIcEEC2Ev
FN:276,_ZNSt9basic_iosIcSt11char_traitsIcEED2Ev
FN:151,_ZNSt9basic_iosIcSt11char_traitsIcEE8setstateESt12_Ios_Iostate
FN:51,_ZSt13__check_facetISt5ctypeIcEERKT_PS3_
FN:443,_ZNKSt9basic_iosIcSt11char_traitsIcEE5widenEc
DA:51,0
DA:53,0
DA:54,0
DA:55,0
DA:131,0
DA:132,0
DA:151,0
DA:152,0
DA:276,0
DA:443,0
DA:444,0
DA:454,0
DA:456,0
DA:457,0
BA:53,0
BA:53,0
BA:276,0
BA:276,0
LF:14
LH:0
end_of_record
SF:/usr/include/c++/4.3/bits/basic_string.h
FN:277,_ZNKSs7_M_dataEv
FN:1534,_ZNKSs5c_strEv
FN:258,_ZNSs12_Alloc_hiderD1Ev
FN:285,_ZNKSs6_M_repEv
FN:606,_ZNKSs4sizeEv
FN:686,_ZNKSs5emptyEv
FN:612,_ZNKSs6lengthEv
FN:214,_ZNSs4_Rep10_M_refdataEv
FN:1544,_ZNKSs4dataEv
FN:178,_ZNSs4_Rep12_S_empty_repEv
FN:411,_ZNSs12_S_empty_repEv
FN:259,_ZNSs12_Alloc_hiderC1EPcRKSaIcE
FN:2067,_ZNSsC1Ev
FN:1551,_ZNKSs13get_allocatorEv
FN:200,_ZNSs4_Rep15_M_set_sharableEv
FN:204,_ZNSs4_Rep26_M_set_length_and_sharableEj
FN:2421,_ZStlsIcSt11char_traitsIcESaIcEERSt13basic_ostreamIT_T0_ES7_RKSbIS4_S5_T1_E
FN:339,_ZNSs7_M_copyEPcPKcj
FN:384,_ZNSs13_S_copy_charsEPcS_S_
FN:1462,_ZNSs16_S_construct_auxIPcEES0_T_S1_RKSaIcESt12__false_type
FN:1478,_ZNSs12_S_constructIPcEES0_T_S1_RKSaIcE
FN:835,_ZNSs6appendEPKc
FN:501,_ZNSsaSERKSs
FN:229,_ZNSs4_Rep10_M_disposeERKSaIcE
FN:493,_ZNSsD1Ev
FN:2121,_ZStplIcSt11char_traitsIcESaIcEESbIT_T0_T1_ERKS6_PKS3_
FN:2084,_ZStplIcSt11char_traitsIcESaIcEESbIT_T0_T1_ERKS6_S8_
DA:178,0
DA:183,0
DA:184,0
DA:200,0
DA:201,0
DA:204,0
DA:206,0
DA:207,0
DA:208,0
DA:211,0
DA:214,0
DA:215,0
DA:229,0
DA:232,0
DA:234,0
DA:236,0
DA:237,0
DA:258,0
DA:259,0
DA:260,0
DA:277,0
DA:278,0
DA:285,0
DA:286,0
DA:339,0
DA:341,0
DA:342,0
DA:344,0
DA:345,0
DA:384,0
DA:385,0
DA:411,0
DA:412,0
DA:493,0
DA:494,0
DA:501,0
DA:502,0
DA:606,0
DA:607,0
DA:612,0
DA:613,0
DA:686,0
DA:687,0
DA:835,0
DA:838,0
DA:1462,0
DA:1465,0
DA:1478,0
DA:1481,0
DA:1534,0
DA:1535,0
DA:1544,0
DA:1545,0
DA:1551,0
DA:1552,0
DA:2067,0
DA:2069,0
DA:2084,0
DA:2086,0
DA:2087,0
DA:2088,0
DA:2121,0
DA:2123,0
DA:2124,0
DA:2125,0
DA:2421,0
DA:2425,0
BA:232,0
BA:232,0
BA:234,0
BA:234,0
BA:341,0
BA:341,0
LF:67
LH:0
end_of_record
SF:/usr/include/c++/4.3/bits/basic_string.tcc
FN:130,_ZNSs12_S_constructIPcEES0_T_S1_RKSaIcESt20forward_iterator_tag
FN:234,_ZNSsC1IPcEET_S1_RKSaIcE
DA:130,0
DA:133,0
DA:134,0
DA:137,0
DA:139,0
DA:142,0
DA:144,0
DA:146,0
DA:147,0
DA:149,0
DA:150,0
DA:152,0
DA:153,0
DA:234,0
DA:235,0
DA:236,0
BA:133,0
BA:133,0
BA:133,0
BA:133,0
BA:133,0
BA:133,0
BA:133,0
BA:133,0
BA:137,0
BA:137,0
BA:137,0
BA:137,0
BA:137,0
BA:137,0
LF:16
LH:0
end_of_record
SF:/usr/include/c++/4.3/bits/char_traits.h
FN:245,_ZNSt11char_traitsIcE6assignERcRKc
FN:261,_ZNSt11char_traitsIcE6lengthEPKc
FN:273,_ZNSt11char_traitsIcE4copyEPcPKcj
DA:245,0
DA:246,0
DA:261,0
DA:262,0
DA:273,0
DA:274,0
LF:6
LH:0
end_of_record
SF:/usr/include/c++/4.3/bits/ios_base.h
FN:125,_ZStorSt13_Ios_OpenmodeS_
FN:163,_ZStorSt12_Ios_IostateS_
DA:125,0
DA:126,0
DA:163,0
DA:164,0
LF:4
LH:0
end_of_record
SF:/usr/include/c++/4.3/bits/locale_facets.h
FN:1165,_ZNKSt5ctypeIcE13_M_widen_initEv
FN:871,_ZNKSt5ctypeIcE5widenEc
DA:871,0
DA:873,0
DA:874,0
DA:875,0
DA:876,0
DA:1165,0
DA:1168,0
DA:1169,0
DA:1170,0
DA:1172,0
DA:1174,0
DA:1175,0
DA:1176,0
BA:873,0
BA:873,0
BA:1168,0
BA:1168,0
BA:1174,0
BA:1174,0
LF:13
LH:0
end_of_record
SF:/usr/include/c++/4.3/bits/stl_algobase.h
FN:286,_ZNSt12__miter_baseIN9__gnu_cxx17__normal_iteratorIPKSsSt6vectorISsSaISsEEEELb0EE3__bES7_
FN:286,_ZNSt12__miter_baseIN9__gnu_cxx17__normal_iteratorIPSsSt6vectorISsSaISsEEEELb0EE3__bES6_
FN:276,_ZNSt12__niter_baseIN9__gnu_cxx17__normal_iteratorIPKSsSt6vectorISsSaISsEEEELb1EE3__bES7_
FN:268,_ZNSt12__niter_baseISt16ostream_iteratorISscSt11char_traitsIcEELb0EE3__bES3_
FN:286,_ZNSt12__miter_baseIPSsLb0EE3__bES0_
FN:210,_ZSt3maxIjERKT_S2_S2_
FN:276,_ZNSt12__niter_baseIN9__gnu_cxx17__normal_iteratorIPSsSt6vectorISsSaISsEEEELb1EE3__bES6_
FN:268,_ZNSt12__niter_baseISt20back_insert_iteratorISt6vectorISsSaISsEEELb0EE3__bES4_
FN:268,_ZNSt12__niter_baseIPSsLb0EE3__bES0_
FN:337,_ZNSt11__copy_moveILb0ELb0ESt26random_access_iterator_tagE8__copy_mIPKSsSt16ostream_iteratorISscSt11char_traitsIcEEEET0_T_SA_S9_
FN:385,_ZSt13__copy_move_aILb0EPKSsSt16ostream_iteratorISscSt11char_traitsIcEEET1_T0_S7_S6_
FN:430,_ZSt14__copy_move_a2ILb0EN9__gnu_cxx17__normal_iteratorIPKSsSt6vectorISsSaISsEEEESt16ostream_iteratorISscSt11char_traitsIcEEET1_T0_SD_SC_
FN:456,_ZSt4copyIN9__gnu_cxx17__normal_iteratorIPKSsSt6vectorISsSaISsEEEESt16ostream_iteratorISscSt11char_traitsIcEEET0_T_SD_SC_
FN:539,_ZNSt20__copy_move_backwardILb0ELb0ESt26random_access_iterator_tagE13__copy_move_bIPSsS3_EET0_T_S5_S4_
FN:579,_ZSt22__copy_move_backward_aILb0EPSsS0_ET1_T0_S2_S1_
FN:597,_ZSt23__copy_move_backward_a2ILb0EPSsS0_ET1_T0_S2_S1_
FN:624,_ZSt13copy_backwardIPSsS0_ET0_T_S2_S1_
FN:337,_ZNSt11__copy_moveILb0ELb0ESt26random_access_iterator_tagE8__copy_mIPSsSt20back_insert_iteratorISt6vectorISsSaISsEEEEET0_T_SA_S9_
FN:385,_ZSt13__copy_move_aILb0EPSsSt20back_insert_iteratorISt6vectorISsSaISsEEEET1_T0_S7_S6_
FN:430,_ZSt14__copy_move_a2ILb0EN9__gnu_cxx17__normal_iteratorIPSsSt6vectorISsSaISsEEEESt20back_insert_iteratorIS5_EET1_T0_SA_S9_
FN:456,_ZSt4copyIN9__gnu_cxx17__normal_iteratorIPSsSt6vectorISsSaISsEEEESt20back_insert_iteratorIS5_EET0_T_SA_S9_
DA:210,0
DA:215,0
DA:216,0
DA:217,0
DA:268,0
DA:269,0
DA:276,0
DA:277,0
DA:286,0
DA:287,0
DA:337,0
DA:340,0
DA:342,0
DA:343,0
DA:344,0
DA:346,0
DA:385,0
DA:393,0
DA:396,0
DA:430,0
DA:435,0
DA:456,0
DA:466,0
DA:539,0
DA:542,0
DA:543,0
DA:544,0
DA:579,0
DA:587,0
DA:592,0
DA:597,0
DA:602,0
DA:624,0
DA:636,0
BA:215,0
BA:215,0
BA:340,0
BA:340,0
BA:340,0
BA:340,0
BA:542,0
BA:542,0
LF:34
LH:0
end_of_record
SF:/usr/include/c++/4.3/bits/stl_construct.h
FN:87,_ZSt8_DestroyISsEvPT_
FN:97,_ZSt8_DestroyIPSsEvT_S1_
FN:126,_ZSt8_DestroyIPSsSsEvT_S1_RSaIT0_E
DA:87,0
DA:88,0
DA:97,0
DA:101,0
DA:103,0
DA:104,0
DA:126,0
DA:128,0
DA:129,0
BA:101,0
BA:101,0
LF:9
LH:0
end_of_record
SF:/usr/include/c++/4.3/bits/stl_iterator.h
FN:695,_ZNK9__gnu_cxx17__normal_iteratorIPSsSt6vectorISsSaISsEEEdeEv
FN:398,_ZNSt20back_insert_iteratorISt6vectorISsSaISsEEEC1ERS2_
FN:456,_ZSt13back_inserterISt6vectorISsSaISsEEESt20back_insert_iteratorIT_ERS4_
FN:683,_ZN9__gnu_cxx17__normal_iteratorIPKSsSt6vectorISsSaISsEEEC1ERKS2_
FN:747,_ZNK9__gnu_cxx17__normal_iteratorIPSsSt6vectorISsSaISsEEE4baseEv
FN:683,_ZN9__gnu_cxx17__normal_iteratorIPSsSt6vectorISsSaISsEEEC1ERKS1_
FN:747,_ZNK9__gnu_cxx17__normal_iteratorIPKSsSt6vectorISsSaISsEEE4baseEv
FN:769,_ZN9__gnu_cxxeqIPKSsSt6vectorISsSaISsEEEEbRKNS_17__normal_iteratorIT_T0_EESB_
FN:429,_ZNSt20back_insert_iteratorISt6vectorISsSaISsEEEdeEv
FN:434,_ZNSt20back_insert_iteratorISt6vectorISsSaISsEEEppEv
FN:412,_ZNSt20back_insert_iteratorISt6vectorISsSaISsEEEaSERKSs
DA:398,0
DA:412,0
DA:414,0
DA:415,0
DA:429,0
DA:430,0
DA:434,0
DA:435,0
DA:456,0
DA:457,0
DA:683,0
DA:695,0
DA:696,0
DA:747,0
DA:748,0
DA:769,0
DA:770,0
LF:17
LH:0
end_of_record
SF:/usr/include/c++/4.3/bits/stl_iterator_base_funcs.h
FN:93,_ZSt10__distanceIPcENSt15iterator_traitsIT_E15difference_typeES2_S2_St26random_access_iterator_tag
FN:115,_ZSt8distanceIPcENSt15iterator_traitsIT_E15difference_typeES2_S2_
DA:93,0
DA:98,0
DA:115,0
DA:119,0
LF:4
LH:0
end_of_record
SF:/usr/include/c++/4.3/bits/stl_iterator_base_types.h
FN:111,_ZNSt8iteratorISt19output_iterator_tagvvvvEC2Ev
FN:166,_ZSt19__iterator_categoryIPcENSt15iterator_traitsIT_E17iterator_categoryERKS2_
DA:111,0
DA:166,0
DA:167,0
LF:3
LH:0
end_of_record
SF:/usr/include/c++/4.3/bits/stl_uninitialized.h
FN:73,_ZNSt20__uninitialized_copyILb0EE18uninitialized_copyIPSsS2_EET0_T_S4_S3_
FN:113,_ZSt18uninitialized_copyIPSsS0_ET0_T_S2_S1_
FN:261,_ZSt22__uninitialized_copy_aIPSsS0_SsET0_T_S2_S1_RSaIT1_E
FN:268,_ZSt22__uninitialized_move_aIPSsS0_SaISsEET0_T_S3_S2_RT1_
DA:73,0
DA:75,0
DA:78,0
DA:79,0
DA:81,0
DA:83,0
DA:85,0
DA:86,0
DA:113,0
DA:122,0
DA:261,0
DA:262,0
DA:268,0
DA:272,0
BA:78,0
BA:78,0
BA:79,0
BA:79,0
LF:14
LH:0
end_of_record
SF:/usr/include/c++/4.3/bits/stl_vector.h
FN:97,_ZNSt12_Vector_baseISsSaISsEE19_M_get_Tp_allocatorEv
FN:404,_ZNKSt6vectorISsSaISsEE3endEv
FN:386,_ZNKSt6vectorISsSaISsEE5beginEv
FN:484,_ZNKSt6vectorISsSaISsEE4sizeEv
FN:101,_ZNKSt12_Vector_baseISsSaISsEE19_M_get_Tp_allocatorEv
FN:395,_ZNSt6vectorISsSaISsEE3endEv
FN:377,_ZNSt6vectorISsSaISsEE5beginEv
FN:526,_ZNKSt6vectorISsSaISsEE5emptyEv
FN:79,_ZNSt12_Vector_baseISsSaISsEE12_Vector_implD1Ev
FN:84,_ZNSt12_Vector_baseISsSaISsEE12_Vector_implC1Ev
FN:108,_ZNSt12_Vector_baseISsSaISsEEC2Ev
FN:213,_ZNSt6vectorISsSaISsEEC1Ev
FN:489,_ZNKSt6vectorISsSaISsEE8max_sizeEv
FN:147,_ZNSt12_Vector_baseISsSaISsEE13_M_deallocateEPSsj
FN:135,_ZNSt12_Vector_baseISsSaISsEED2Ev
FN:1075,_ZNKSt6vectorISsSaISsEE12_M_check_lenEjPKc
FN:143,_ZNSt12_Vector_baseISsSaISsEE11_M_allocateEj
FN:299,_ZNSt6vectorISsSaISsEED1Ev
FN:686,_ZNSt6vectorISsSaISsEE9push_backERKSs
DA:79,0
DA:84,0
DA:85,0
DA:86,0
DA:97,0
DA:98,0
DA:101,0
DA:102,0
DA:108,0
DA:109,0
DA:135,0
DA:136,0
DA:137,0
DA:143,0
DA:144,0
DA:147,0
DA:149,0
DA:150,0
DA:151,0
DA:213,0
DA:214,0
DA:299,0
DA:300,0
DA:301,0
DA:377,0
DA:378,0
DA:386,0
DA:387,0
DA:395,0
DA:396,0
DA:404,0
DA:405,0
DA:484,0
DA:485,0
DA:489,0
DA:490,0
DA:526,0
DA:527,0
DA:686,0
DA:688,0
DA:690,0
DA:691,0
DA:694,0
DA:695,0
DA:1075,0
DA:1077,0
DA:1078,0
DA:1080,0
DA:1081,0
BA:144,0
BA:144,0
BA:149,0
BA:149,0
BA:688,0
BA:688,0
BA:1077,0
BA:1077,0
BA:1081,0
BA:1081,0
BA:1081,0
BA:1081,0
LF:49
LH:0
end_of_record
SF:/usr/include/c++/4.3/bits/stream_iterator.h
FN:181,_ZNSt16ostream_iteratorISscSt11char_traitsIcEEC1ERSoPKc
FN:185,_ZNSt16ostream_iteratorISscSt11char_traitsIcEEC1ERKS2_
FN:202,_ZNSt16ostream_iteratorISscSt11char_traitsIcEEdeEv
FN:206,_ZNSt16ostream_iteratorISscSt11char_traitsIcEEppEv
FN:191,_ZNSt16ostream_iteratorISscSt11char_traitsIcEEaSERKSs
DA:181,0
DA:182,0
DA:185,0
DA:186,0
DA:191,0
DA:196,0
DA:197,0
DA:198,0
DA:202,0
DA:203,0
DA:206,0
DA:207,0
BA:197,0
BA:197,0
LF:12
LH:0
end_of_record
SF:/usr/include/c++/4.3/bits/vector.tcc
FN:283,_ZNSt6vectorISsSaISsEE13_M_insert_auxEN9__gnu_cxx17__normal_iteratorIPSsS1_EERKSs
DA:283,0
DA:286,0
DA:288,0
DA:291,0
DA:293,0
DA:295,0
DA:299,0
DA:307,0
DA:308,0
DA:309,0
DA:316,0
DA:321,0
DA:323,0
DA:324,0
DA:330,0
DA:332,0
DA:333,0
DA:334,0
DA:336,0
DA:338,0
DA:341,0
DA:342,0
DA:343,0
DA:345,0
BA:286,0
BA:286,0
LF:24
LH:0
end_of_record
SF:/usr/include/c++/4.3/exception
FN:59,_ZNSt9exceptionC2Ev
DA:59,0
LF:1
LH:0
end_of_record
SF:/usr/include/c++/4.3/ext/atomicity.h
FN:67,_ZN9__gnu_cxxL25__exchange_and_add_singleEPii
FN:50,_ZN9__gnu_cxxL18__exchange_and_addEPVii
FN:80,_ZN9__gnu_cxxL27__exchange_and_add_dispatchEPii
DA:50,0
DA:51,0
DA:67,0
DA:69,0
DA:70,0
DA:71,0
DA:80,0
DA:83,0
DA:84,0
DA:86,0
BA:83,0
BA:83,0
LF:10
LH:0
end_of_record
SF:/usr/include/c++/4.3/ext/new_allocator.h
FN:69,_ZN9__gnu_cxx13new_allocatorIcEC2Ev
FN:76,_ZN9__gnu_cxx13new_allocatorIcED2Ev
FN:71,_ZN9__gnu_cxx13new_allocatorIcEC2ERKS1_
FN:76,_ZN9__gnu_cxx13new_allocatorISsED2Ev
FN:69,_ZN9__gnu_cxx13new_allocatorISsEC2Ev
FN:101,_ZNK9__gnu_cxx13new_allocatorISsE8max_sizeEv
FN:97,_ZN9__gnu_cxx13new_allocatorISsE10deallocateEPSsj
FN:107,_ZN9__gnu_cxx13new_allocatorISsE9constructEPSsRKSs
FN:87,_ZN9__gnu_cxx13new_allocatorISsE8allocateEjPKv
DA:69,0
DA:71,0
DA:76,0
DA:87,0
DA:89,0
DA:90,0
DA:92,0
DA:97,0
DA:98,0
DA:101,0
DA:102,0
DA:107,0
DA:108,0
BA:89,0
BA:89,0
BA:108,0
BA:108,0
LF:13
LH:0
end_of_record
SF:/usr/include/c++/4.3/ext/type_traits.h
FN:154,_ZN9__gnu_cxx17__is_null_pointerIcEEbPT_
DA:154,0
DA:155,0
LF:2
LH:0
end_of_record
SF:/usr/include/c++/4.3/i486-linux-gnu/bits/gthr-default.h
FN:212,_ZL18__gthread_active_pv
DA:212,0
DA:216,0
LF:2
LH:0
end_of_record
SF:/usr/include/c++/4.3/iosfwd
FN:68,_ZNSt15basic_stringbufIcSt11char_traitsIcESaIcEED1Ev
DA:68,0
BA:68,0
BA:68,0
LF:1
LH:0
end_of_record
SF:/usr/include/c++/4.3/iostream
DA:77,1
LF:1
LH:1
end_of_record
SF:/usr/include/c++/4.3/istream
FN:585,_ZNSiC2Ev
FN:105,_ZNSiD2Ev
FN:804,_ZNSdC2Ev
FN:801,_ZNSdD2Ev
DA:105,0
DA:106,0
DA:585,0
DA:586,0
DA:587,0
DA:801,0
DA:804,0
DA:805,0
BA:106,0
BA:106,0
BA:106,0
BA:106,0
BA:801,0
BA:801,0
BA:801,0
BA:801,0
BA:801,0
BA:801,0
LF:8
LH:0
end_of_record
SF:/usr/include/c++/4.3/new
FN:105,_ZnwjPv
FN:109,_ZdlPvS_
DA:105,0
DA:109,0
LF:2
LH:0
end_of_record
SF:/usr/include/c++/4.3/ostream
FN:112,_ZNSolsEPFRSoS_E
FN:365,_ZNSoC2Ev
FN:95,_ZNSoD2Ev
FN:464,_ZStlsISt11char_traitsIcEERSt13basic_ostreamIcT_ES5_c
FN:512,_ZStlsISt11char_traitsIcEERSt13basic_ostreamIcT_ES5_PKc
FN:195,_ZNSolsEj
FN:566,_ZSt5flushIcSt11char_traitsIcEERSt13basic_ostreamIT_T0_ES6_
FN:545,_ZSt4endlIcSt11char_traitsIcEERSt13basic_ostreamIT_T0_ES6_
DA:95,0
DA:112,0
DA:117,0
DA:195,0
DA:199,0
DA:365,0
DA:366,0
DA:464,0
DA:465,0
DA:512,0
DA:514,0
DA:515,0
DA:517,0
DA:519,0
DA:545,0
DA:546,0
DA:566,0
DA:567,0
BA:95,0
BA:95,0
BA:95,0
BA:95,0
BA:514,0
BA:514,0
LF:18
LH:0
end_of_record
SF:/usr/include/c++/4.3/sstream
FN:96,_ZNSt15basic_stringbufIcSt11char_traitsIcESaIcEEC1ESt13_Ios_Openmode
FN:509,_ZNSt18basic_stringstreamIcSt11char_traitsIcESaIcEEC1ESt13_Ios_Openmode
FN:536,_ZNSt18basic_stringstreamIcSt11char_traitsIcESaIcEED1Ev
FN:402,_ZNSt19basic_ostringstreamIcSt11char_traitsIcESaIcEEC1ESt13_Ios_Openmode
FN:431,_ZNSt19basic_ostringstreamIcSt11char_traitsIcESaIcEED1Ev
FN:124,_ZNKSt15basic_stringbufIcSt11char_traitsIcESaIcEE3strEv
FN:555,_ZNKSt18basic_stringstreamIcSt11char_traitsIcESaIcEE3strEv
FN:450,_ZNKSt19basic_ostringstreamIcSt11char_traitsIcESaIcEE3strEv
DA:96,0
DA:97,0
DA:98,0
DA:124,0
DA:126,0
DA:127,0
DA:130,0
DA:131,0
DA:133,0
DA:136,0
DA:137,0
DA:402,0
DA:403,0
DA:404,0
DA:431,0
DA:432,0
DA:450,0
DA:451,0
DA:509,0
DA:510,0
DA:511,0
DA:536,0
DA:537,0
DA:555,0
DA:556,0
BA:127,0
BA:127,0
BA:130,0
BA:130,0
BA:432,0
BA:432,0
BA:432,0
BA:432,0
BA:432,0
BA:432,0
BA:537,0
BA:537,0
BA:537,0
BA:537,0
BA:537,0
BA:537,0
LF:25
LH:0
end_of_record
SF:/usr/include/c++/4.3/streambuf
FN:513,_ZNKSt15basic_streambufIcSt11char_traitsIcEE4pptrEv
FN:469,_ZNKSt15basic_streambufIcSt11char_traitsIcEE5egptrEv
FN:510,_ZNKSt15basic_streambufIcSt11char_traitsIcEE5pbaseEv
FN:444,_ZNSt15basic_streambufIcSt11char_traitsIcEEC2Ev
FN:197,_ZNSt15basic_streambufIcSt11char_traitsIcEED2Ev
DA:197,0
DA:198,0
DA:444,0
DA:447,0
DA:448,0
DA:469,0
DA:510,0
DA:513,0
BA:198,0
BA:198,0
LF:8
LH:0
end_of_record
TN:
SF:/home/mornfall/dev/pkg/ept-work/wibble/exception.h
FN:190,_ZNK6wibble9exception7Generic4typeEv
FN:263,_ZNK6wibble9exception11Consistency4typeEv
FN:137,_ZN6wibble9exception7ContextD2Ev
FN:187,_ZN6wibble9exception7GenericD2Ev
FN:395,_ZN6wibble9exception6SystemD1Ev
FN:193,_ZNK6wibble9exception7Generic4descEv
FN:213,_ZNK6wibble9exception7Generic4whatEv
FN:187,_ZN6wibble9exception7GenericD0Ev
FN:187,_ZN6wibble9exception7GenericD1Ev
FN:265,_ZNK6wibble9exception11Consistency4descEv
FN:261,_ZN6wibble9exception11ConsistencyD0Ev
FN:261,_ZN6wibble9exception11ConsistencyD1Ev
FN:109,_ZN6wibble9exception10AddContext7contextEv
FN:117,_ZN6wibble9exception10AddContext11copyContextISt20back_insert_iteratorISt6vectorISsSaISsEEEEEvT_
FN:153,_ZN6wibble9exception7Context10addContextERKSs
FN:147,_ZN6wibble9exception7ContextC2ERKSs
FN:186,_ZN6wibble9exception7GenericC2ERKSs
FN:259,_ZN6wibble9exception11ConsistencyC1ERKSsS3_
FN:154,_ZNK6wibble9exception7Context13formatContextEv
FN:205,_ZNK6wibble9exception7Generic8fullInfoEv
DA:109,0
DA:110,0
DA:111,0
DA:112,0
DA:113,0
DA:117,0
DA:118,0
DA:119,0
DA:137,0
DA:147,0
DA:148,0
DA:149,0
DA:150,0
DA:151,0
DA:153,0
DA:154,0
DA:155,0
DA:156,0
DA:157,0
DA:159,0
DA:161,0
DA:162,0
DA:163,0
DA:186,0
DA:187,0
DA:190,0
DA:193,0
DA:194,0
DA:195,0
DA:205,0
DA:206,0
DA:207,0
DA:209,0
DA:210,0
DA:213,0
DA:259,0
DA:260,0
DA:261,0
DA:263,0
DA:265,0
DA:266,0
DA:267,0
DA:268,0
DA:269,0
DA:395,0
BA:110,0
BA:110,0
BA:156,0
BA:156,0
BA:187,0
BA:187,0
BA:187,0
BA:187,0
BA:187,0
BA:187,0
BA:207,0
BA:207,0
BA:261,0
BA:261,0
BA:261,0
BA:261,0
BA:267,0
BA:267,0
BA:395,0
BA:395,0
LF:45
LH:0
end_of_record
SF:/home/mornfall/dev/pkg/ept-work/wibble/stream/posix.h
FN:90,_ZN6wibble6stream8PosixBuf8overflowEi
FN:100,_ZN6wibble6stream8PosixBuf4syncEv
FN:34,_ZN6wibble6stream8PosixBufD0Ev
FN:34,_ZN6wibble6stream8PosixBufD1Ev
FN:53,_ZN6wibble6stream8PosixBuf6attachEij
FN:30,_ZN6wibble6stream8PosixBufC1Eij
DA:30,1
DA:32,1
DA:33,1
DA:34,1
DA:35,1
DA:36,1
DA:38,1
DA:39,1
DA:41,1
DA:43,1
DA:45,1
DA:53,1
DA:55,1
DA:56,1
DA:57,0
DA:58,1
DA:59,1
DA:60,1
DA:61,1
DA:90,0
DA:92,0
DA:93,0
DA:95,0
DA:96,0
DA:98,0
DA:100,2
DA:102,2
DA:104,1
DA:105,1
DA:106,1
DA:107,0
DA:108,1
DA:110,2
BA:36,0
BA:36,0
BA:36,2
BA:36,1
BA:39,0
BA:39,0
BA:39,2
BA:39,1
BA:41,0
BA:41,0
BA:41,2
BA:41,1
BA:45,0
BA:45,0
BA:45,1
BA:45,2
BA:56,1
BA:56,2
BA:93,0
BA:93,0
BA:102,2
BA:102,2
BA:106,1
BA:106,2
LF:33
LH:25
end_of_record
SF:/home/mornfall/dev/pkg/ept-work/wibble/test.h
FN:17,_ZN8LocationC1EPKciSs
FN:13,_ZN8LocationC1ERKS_
FN:41,_ZN12AssertFailedD1Ev
FN:13,_ZN8LocationD1Ev
FN:33,_ZN12AssertFailedC1E8LocationRSo
FN:59,_Z9assert_fnIbEv8LocationT_
DA:13,0
DA:17,0
DA:18,0
DA:33,0
DA:34,0
DA:36,0
DA:38,0
DA:39,0
DA:41,0
DA:42,0
DA:43,0
DA:45,0
DA:46,0
DA:48,0
DA:59,0
DA:61,0
DA:62,0
DA:64,0
BA:42,0
BA:42,0
BA:61,0
BA:61,0
LF:18
LH:0
end_of_record
SF:/home/mornfall/dev/pkg/ept-work/wibble/stream/posix.test.h
FN:18,_ZN12_GLOBAL__N_115TestStreamPosix10basicMatchEv
DA:18,1
DA:19,1
DA:20,1
DA:22,1
DA:23,1
DA:25,1
DA:26,1
DA:27,1
DA:28,1
LF:9
LH:9
end_of_record
SF:/srv/build/pkg/ept-work/default/wibble/wibble-test-generated-_home_mornfall_dev_pkg_ept-work_wibble_stream_posix.cpp
FN:3,_Z41__static_initialization_and_destruction_0ii
FN:3,_GLOBAL__I__Z26run_StreamPosix_basicMatchv
FN:3,_Z26run_StreamPosix_basicMatchv
DA:3,4
BA:3,2
BA:3,1
BA:3,2
BA:3,1
LF:1
LH:1
end_of_record
SF:/usr/include/c++/4.3/bits/allocator.h
FN:98,_ZNSaIcEC1Ev
FN:106,_ZNSaIcED2Ev
FN:106,_ZNSaIcED1Ev
FN:100,_ZNSaIcEC2ERKS_
FN:100,_ZNSaIcEC1ERKS_
FN:106,_ZNSaISsED2Ev
FN:98,_ZNSaISsEC2Ev
FN:118,_ZSteqIcEbRKSaIT_ES3_
DA:98,0
DA:100,0
DA:101,0
DA:106,0
DA:118,0
DA:119,0
LF:6
LH:0
end_of_record
SF:/usr/include/c++/4.3/bits/basic_ios.h
FN:131,_ZNKSt9basic_iosIcSt11char_traitsIcEE7rdstateEv
FN:454,_ZNSt9basic_iosIcSt11char_traitsIcEEC2Ev
FN:276,_ZNSt9basic_iosIcSt11char_traitsIcEED2Ev
FN:151,_ZNSt9basic_iosIcSt11char_traitsIcEE8setstateESt12_Ios_Iostate
FN:51,_ZSt13__check_facetISt5ctypeIcEERKT_PS3_
FN:443,_ZNKSt9basic_iosIcSt11char_traitsIcEE5widenEc
DA:51,0
DA:53,0
DA:54,0
DA:55,0
DA:131,0
DA:132,0
DA:151,0
DA:152,0
DA:276,0
DA:443,0
DA:444,0
DA:454,0
DA:456,0
DA:457,0
BA:53,0
BA:53,0
BA:276,0
BA:276,0
LF:14
LH:0
end_of_record
SF:/usr/include/c++/4.3/bits/basic_string.h
FN:277,_ZNKSs7_M_dataEv
FN:1534,_ZNKSs5c_strEv
FN:258,_ZNSs12_Alloc_hiderD1Ev
FN:285,_ZNKSs6_M_repEv
FN:606,_ZNKSs4sizeEv
FN:686,_ZNKSs5emptyEv
FN:612,_ZNKSs6lengthEv
FN:214,_ZNSs4_Rep10_M_refdataEv
FN:1544,_ZNKSs4dataEv
FN:178,_ZNSs4_Rep12_S_empty_repEv
FN:411,_ZNSs12_S_empty_repEv
FN:259,_ZNSs12_Alloc_hiderC1EPcRKSaIcE
FN:2067,_ZNSsC1Ev
FN:1551,_ZNKSs13get_allocatorEv
FN:200,_ZNSs4_Rep15_M_set_sharableEv
FN:204,_ZNSs4_Rep26_M_set_length_and_sharableEj
FN:2421,_ZStlsIcSt11char_traitsIcESaIcEERSt13basic_ostreamIT_T0_ES7_RKSbIS4_S5_T1_E
FN:339,_ZNSs7_M_copyEPcPKcj
FN:384,_ZNSs13_S_copy_charsEPcS_S_
FN:1462,_ZNSs16_S_construct_auxIPcEES0_T_S1_RKSaIcESt12__false_type
FN:1478,_ZNSs12_S_constructIPcEES0_T_S1_RKSaIcE
FN:501,_ZNSsaSERKSs
FN:229,_ZNSs4_Rep10_M_disposeERKSaIcE
FN:493,_ZNSsD1Ev
FN:835,_ZNSs6appendEPKc
FN:2121,_ZStplIcSt11char_traitsIcESaIcEESbIT_T0_T1_ERKS6_PKS3_
FN:2084,_ZStplIcSt11char_traitsIcESaIcEESbIT_T0_T1_ERKS6_S8_
DA:178,0
DA:183,0
DA:184,0
DA:200,0
DA:201,0
DA:204,0
DA:206,0
DA:207,0
DA:208,0
DA:211,0
DA:214,0
DA:215,0
DA:229,0
DA:232,0
DA:234,0
DA:236,0
DA:237,0
DA:258,0
DA:259,0
DA:260,0
DA:277,0
DA:278,0
DA:285,0
DA:286,0
DA:339,0
DA:341,0
DA:342,0
DA:344,0
DA:345,0
DA:384,0
DA:385,0
DA:411,0
DA:412,0
DA:493,0
DA:494,0
DA:501,0
DA:502,0
DA:606,0
DA:607,0
DA:612,0
DA:613,0
DA:686,0
DA:687,0
DA:835,0
DA:838,0
DA:1462,0
DA:1465,0
DA:1478,0
DA:1481,0
DA:1534,0
DA:1535,0
DA:1544,0
DA:1545,0
DA:1551,0
DA:1552,0
DA:2067,0
DA:2069,0
DA:2084,0
DA:2086,0
DA:2087,0
DA:2088,0
DA:2121,0
DA:2123,0
DA:2124,0
DA:2125,0
DA:2421,0
DA:2425,0
BA:232,0
BA:232,0
BA:234,0
BA:234,0
BA:341,0
BA:341,0
LF:67
LH:0
end_of_record
SF:/usr/include/c++/4.3/bits/basic_string.tcc
FN:130,_ZNSs12_S_constructIPcEES0_T_S1_RKSaIcESt20forward_iterator_tag
FN:234,_ZNSsC1IPcEET_S1_RKSaIcE
DA:130,0
DA:133,0
DA:134,0
DA:137,0
DA:139,0
DA:142,0
DA:144,0
DA:146,0
DA:147,0
DA:149,0
DA:150,0
DA:152,0
DA:153,0
DA:234,0
DA:235,0
DA:236,0
BA:133,0
BA:133,0
BA:133,0
BA:133,0
BA:133,0
BA:133,0
BA:133,0
BA:133,0
BA:137,0
BA:137,0
BA:137,0
BA:137,0
BA:137,0
BA:137,0
LF:16
LH:0
end_of_record
SF:/usr/include/c++/4.3/bits/char_traits.h
FN:245,_ZNSt11char_traitsIcE6assignERcRKc
FN:287,_ZNSt11char_traitsIcE11to_int_typeERKc
FN:291,_ZNSt11char_traitsIcE11eq_int_typeERKiS2_
FN:295,_ZNSt11char_traitsIcE3eofEv
FN:273,_ZNSt11char_traitsIcE4copyEPcPKcj
FN:261,_ZNSt11char_traitsIcE6lengthEPKc
DA:245,0
DA:246,0
DA:261,0
DA:262,0
DA:273,0
DA:274,0
DA:287,0
DA:288,0
DA:291,0
DA:292,0
DA:295,0
LF:11
LH:0
end_of_record
SF:/usr/include/c++/4.3/bits/ios_base.h
FN:125,_ZStorSt13_Ios_OpenmodeS_
FN:163,_ZStorSt12_Ios_IostateS_
DA:125,0
DA:126,0
DA:163,0
DA:164,0
LF:4
LH:0
end_of_record
SF:/usr/include/c++/4.3/bits/locale_facets.h
FN:1165,_ZNKSt5ctypeIcE13_M_widen_initEv
FN:871,_ZNKSt5ctypeIcE5widenEc
DA:871,0
DA:873,0
DA:874,0
DA:875,0
DA:876,0
DA:1165,0
DA:1168,0
DA:1169,0
DA:1170,0
DA:1172,0
DA:1174,0
DA:1175,0
DA:1176,0
BA:873,0
BA:873,0
BA:1168,0
BA:1168,0
BA:1174,0
BA:1174,0
LF:13
LH:0
end_of_record
SF:/usr/include/c++/4.3/bits/postypes.h
FN:112,_ZNSt4fposI11__mbstate_tEC1Ex
DA:112,0
DA:113,0
LF:2
LH:0
end_of_record
SF:/usr/include/c++/4.3/bits/stl_algobase.h
FN:286,_ZNSt12__miter_baseIN9__gnu_cxx17__normal_iteratorIPKSsSt6vectorISsSaISsEEEELb0EE3__bES7_
FN:286,_ZNSt12__miter_baseIN9__gnu_cxx17__normal_iteratorIPSsSt6vectorISsSaISsEEEELb0EE3__bES6_
FN:276,_ZNSt12__niter_baseIN9__gnu_cxx17__normal_iteratorIPKSsSt6vectorISsSaISsEEEELb1EE3__bES7_
FN:268,_ZNSt12__niter_baseISt16ostream_iteratorISscSt11char_traitsIcEELb0EE3__bES3_
FN:286,_ZNSt12__miter_baseIPSsLb0EE3__bES0_
FN:210,_ZSt3maxIjERKT_S2_S2_
FN:276,_ZNSt12__niter_baseIN9__gnu_cxx17__normal_iteratorIPSsSt6vectorISsSaISsEEEELb1EE3__bES6_
FN:268,_ZNSt12__niter_baseISt20back_insert_iteratorISt6vectorISsSaISsEEELb0EE3__bES4_
FN:268,_ZNSt12__niter_baseIPSsLb0EE3__bES0_
FN:539,_ZNSt20__copy_move_backwardILb0ELb0ESt26random_access_iterator_tagE13__copy_move_bIPSsS3_EET0_T_S5_S4_
FN:579,_ZSt22__copy_move_backward_aILb0EPSsS0_ET1_T0_S2_S1_
FN:597,_ZSt23__copy_move_backward_a2ILb0EPSsS0_ET1_T0_S2_S1_
FN:624,_ZSt13copy_backwardIPSsS0_ET0_T_S2_S1_
FN:337,_ZNSt11__copy_moveILb0ELb0ESt26random_access_iterator_tagE8__copy_mIPSsSt20back_insert_iteratorISt6vectorISsSaISsEEEEET0_T_SA_S9_
FN:385,_ZSt13__copy_move_aILb0EPSsSt20back_insert_iteratorISt6vectorISsSaISsEEEET1_T0_S7_S6_
FN:430,_ZSt14__copy_move_a2ILb0EN9__gnu_cxx17__normal_iteratorIPSsSt6vectorISsSaISsEEEESt20back_insert_iteratorIS5_EET1_T0_SA_S9_
FN:456,_ZSt4copyIN9__gnu_cxx17__normal_iteratorIPSsSt6vectorISsSaISsEEEESt20back_insert_iteratorIS5_EET0_T_SA_S9_
FN:337,_ZNSt11__copy_moveILb0ELb0ESt26random_access_iterator_tagE8__copy_mIPKSsSt16ostream_iteratorISscSt11char_traitsIcEEEET0_T_SA_S9_
FN:385,_ZSt13__copy_move_aILb0EPKSsSt16ostream_iteratorISscSt11char_traitsIcEEET1_T0_S7_S6_
FN:430,_ZSt14__copy_move_a2ILb0EN9__gnu_cxx17__normal_iteratorIPKSsSt6vectorISsSaISsEEEESt16ostream_iteratorISscSt11char_traitsIcEEET1_T0_SD_SC_
FN:456,_ZSt4copyIN9__gnu_cxx17__normal_iteratorIPKSsSt6vectorISsSaISsEEEESt16ostream_iteratorISscSt11char_traitsIcEEET0_T_SD_SC_
DA:210,0
DA:215,0
DA:216,0
DA:217,0
DA:268,0
DA:269,0
DA:276,0
DA:277,0
DA:286,0
DA:287,0
DA:337,0
DA:340,0
DA:342,0
DA:343,0
DA:344,0
DA:346,0
DA:385,0
DA:393,0
DA:396,0
DA:430,0
DA:435,0
DA:456,0
DA:466,0
DA:539,0
DA:542,0
DA:543,0
DA:544,0
DA:579,0
DA:587,0
DA:592,0
DA:597,0
DA:602,0
DA:624,0
DA:636,0
BA:215,0
BA:215,0
BA:340,0
BA:340,0
BA:340,0
BA:340,0
BA:542,0
BA:542,0
LF:34
LH:0
end_of_record
SF:/usr/include/c++/4.3/bits/stl_construct.h
FN:87,_ZSt8_DestroyISsEvPT_
FN:97,_ZSt8_DestroyIPSsEvT_S1_
FN:126,_ZSt8_DestroyIPSsSsEvT_S1_RSaIT0_E
DA:87,0
DA:88,0
DA:97,0
DA:101,0
DA:103,0
DA:104,0
DA:126,0
DA:128,0
DA:129,0
BA:101,0
BA:101,0
LF:9
LH:0
end_of_record
SF:/usr/include/c++/4.3/bits/stl_iterator.h
FN:695,_ZNK9__gnu_cxx17__normal_iteratorIPSsSt6vectorISsSaISsEEEdeEv
FN:398,_ZNSt20back_insert_iteratorISt6vectorISsSaISsEEEC1ERS2_
FN:456,_ZSt13back_inserterISt6vectorISsSaISsEEESt20back_insert_iteratorIT_ERS4_
FN:683,_ZN9__gnu_cxx17__normal_iteratorIPKSsSt6vectorISsSaISsEEEC1ERKS2_
FN:747,_ZNK9__gnu_cxx17__normal_iteratorIPSsSt6vectorISsSaISsEEE4baseEv
FN:683,_ZN9__gnu_cxx17__normal_iteratorIPSsSt6vectorISsSaISsEEEC1ERKS1_
FN:747,_ZNK9__gnu_cxx17__normal_iteratorIPKSsSt6vectorISsSaISsEEE4baseEv
FN:769,_ZN9__gnu_cxxeqIPKSsSt6vectorISsSaISsEEEEbRKNS_17__normal_iteratorIT_T0_EESB_
FN:429,_ZNSt20back_insert_iteratorISt6vectorISsSaISsEEEdeEv
FN:434,_ZNSt20back_insert_iteratorISt6vectorISsSaISsEEEppEv
FN:412,_ZNSt20back_insert_iteratorISt6vectorISsSaISsEEEaSERKSs
DA:398,0
DA:412,0
DA:414,0
DA:415,0
DA:429,0
DA:430,0
DA:434,0
DA:435,0
DA:456,0
DA:457,0
DA:683,0
DA:695,0
DA:696,0
DA:747,0
DA:748,0
DA:769,0
DA:770,0
LF:17
LH:0
end_of_record
SF:/usr/include/c++/4.3/bits/stl_iterator_base_funcs.h
FN:93,_ZSt10__distanceIPcENSt15iterator_traitsIT_E15difference_typeES2_S2_St26random_access_iterator_tag
FN:115,_ZSt8distanceIPcENSt15iterator_traitsIT_E15difference_typeES2_S2_
DA:93,0
DA:98,0
DA:115,0
DA:119,0
LF:4
LH:0
end_of_record
SF:/usr/include/c++/4.3/bits/stl_iterator_base_types.h
FN:111,_ZNSt8iteratorISt19output_iterator_tagvvvvEC2Ev
FN:166,_ZSt19__iterator_categoryIPcENSt15iterator_traitsIT_E17iterator_categoryERKS2_
DA:111,0
DA:166,0
DA:167,0
LF:3
LH:0
end_of_record
SF:/usr/include/c++/4.3/bits/stl_uninitialized.h
FN:73,_ZNSt20__uninitialized_copyILb0EE18uninitialized_copyIPSsS2_EET0_T_S4_S3_
FN:113,_ZSt18uninitialized_copyIPSsS0_ET0_T_S2_S1_
FN:261,_ZSt22__uninitialized_copy_aIPSsS0_SsET0_T_S2_S1_RSaIT1_E
FN:268,_ZSt22__uninitialized_move_aIPSsS0_SaISsEET0_T_S3_S2_RT1_
DA:73,0
DA:75,0
DA:78,0
DA:79,0
DA:81,0
DA:83,0
DA:85,0
DA:86,0
DA:113,0
DA:122,0
DA:261,0
DA:262,0
DA:268,0
DA:272,0
BA:78,0
BA:78,0
BA:79,0
BA:79,0
LF:14
LH:0
end_of_record
SF:/usr/include/c++/4.3/bits/stl_vector.h
FN:97,_ZNSt12_Vector_baseISsSaISsEE19_M_get_Tp_allocatorEv
FN:404,_ZNKSt6vectorISsSaISsEE3endEv
FN:386,_ZNKSt6vectorISsSaISsEE5beginEv
FN:484,_ZNKSt6vectorISsSaISsEE4sizeEv
FN:101,_ZNKSt12_Vector_baseISsSaISsEE19_M_get_Tp_allocatorEv
FN:395,_ZNSt6vectorISsSaISsEE3endEv
FN:377,_ZNSt6vectorISsSaISsEE5beginEv
FN:526,_ZNKSt6vectorISsSaISsEE5emptyEv
FN:79,_ZNSt12_Vector_baseISsSaISsEE12_Vector_implD1Ev
FN:84,_ZNSt12_Vector_baseISsSaISsEE12_Vector_implC1Ev
FN:108,_ZNSt12_Vector_baseISsSaISsEEC2Ev
FN:213,_ZNSt6vectorISsSaISsEEC1Ev
FN:489,_ZNKSt6vectorISsSaISsEE8max_sizeEv
FN:147,_ZNSt12_Vector_baseISsSaISsEE13_M_deallocateEPSsj
FN:135,_ZNSt12_Vector_baseISsSaISsEED2Ev
FN:299,_ZNSt6vectorISsSaISsEED1Ev
FN:1075,_ZNKSt6vectorISsSaISsEE12_M_check_lenEjPKc
FN:143,_ZNSt12_Vector_baseISsSaISsEE11_M_allocateEj
FN:686,_ZNSt6vectorISsSaISsEE9push_backERKSs
DA:79,0
DA:84,0
DA:85,0
DA:86,0
DA:97,0
DA:98,0
DA:101,0
DA:102,0
DA:108,0
DA:109,0
DA:135,0
DA:136,0
DA:137,0
DA:143,0
DA:144,0
DA:147,0
DA:149,0
DA:150,0
DA:151,0
DA:213,0
DA:214,0
DA:299,0
DA:300,0
DA:301,0
DA:377,0
DA:378,0
DA:386,0
DA:387,0
DA:395,0
DA:396,0
DA:404,0
DA:405,0
DA:484,0
DA:485,0
DA:489,0
DA:490,0
DA:526,0
DA:527,0
DA:686,0
DA:688,0
DA:690,0
DA:691,0
DA:694,0
DA:695,0
DA:1075,0
DA:1077,0
DA:1078,0
DA:1080,0
DA:1081,0
BA:144,0
BA:144,0
BA:149,0
BA:149,0
BA:688,0
BA:688,0
BA:1077,0
BA:1077,0
BA:1081,0
BA:1081,0
BA:1081,0
BA:1081,0
LF:49
LH:0
end_of_record
SF:/usr/include/c++/4.3/bits/stream_iterator.h
FN:181,_ZNSt16ostream_iteratorISscSt11char_traitsIcEEC1ERSoPKc
FN:185,_ZNSt16ostream_iteratorISscSt11char_traitsIcEEC1ERKS2_
FN:202,_ZNSt16ostream_iteratorISscSt11char_traitsIcEEdeEv
FN:206,_ZNSt16ostream_iteratorISscSt11char_traitsIcEEppEv
FN:191,_ZNSt16ostream_iteratorISscSt11char_traitsIcEEaSERKSs
DA:181,0
DA:182,0
DA:185,0
DA:186,0
DA:191,0
DA:196,0
DA:197,0
DA:198,0
DA:202,0
DA:203,0
DA:206,0
DA:207,0
BA:197,0
BA:197,0
LF:12
LH:0
end_of_record
SF:/usr/include/c++/4.3/bits/vector.tcc
FN:283,_ZNSt6vectorISsSaISsEE13_M_insert_auxEN9__gnu_cxx17__normal_iteratorIPSsS1_EERKSs
DA:283,0
DA:286,0
DA:288,0
DA:291,0
DA:293,0
DA:295,0
DA:299,0
DA:307,0
DA:308,0
DA:309,0
DA:316,0
DA:321,0
DA:323,0
DA:324,0
DA:330,0
DA:332,0
DA:333,0
DA:334,0
DA:336,0
DA:338,0
DA:341,0
DA:342,0
DA:343,0
DA:345,0
BA:286,0
BA:286,0
LF:24
LH:0
end_of_record
SF:/usr/include/c++/4.3/exception
FN:59,_ZNSt9exceptionC2Ev
DA:59,0
LF:1
LH:0
end_of_record
SF:/usr/include/c++/4.3/ext/atomicity.h
FN:67,_ZN9__gnu_cxxL25__exchange_and_add_singleEPii
FN:50,_ZN9__gnu_cxxL18__exchange_and_addEPVii
FN:80,_ZN9__gnu_cxxL27__exchange_and_add_dispatchEPii
DA:50,0
DA:51,0
DA:67,0
DA:69,0
DA:70,0
DA:71,0
DA:80,0
DA:83,0
DA:84,0
DA:86,0
BA:83,0
BA:83,0
LF:10
LH:0
end_of_record
SF:/usr/include/c++/4.3/ext/new_allocator.h
FN:69,_ZN9__gnu_cxx13new_allocatorIcEC2Ev
FN:76,_ZN9__gnu_cxx13new_allocatorIcED2Ev
FN:71,_ZN9__gnu_cxx13new_allocatorIcEC2ERKS1_
FN:76,_ZN9__gnu_cxx13new_allocatorISsED2Ev
FN:69,_ZN9__gnu_cxx13new_allocatorISsEC2Ev
FN:101,_ZNK9__gnu_cxx13new_allocatorISsE8max_sizeEv
FN:107,_ZN9__gnu_cxx13new_allocatorISsE9constructEPSsRKSs
FN:97,_ZN9__gnu_cxx13new_allocatorISsE10deallocateEPSsj
FN:87,_ZN9__gnu_cxx13new_allocatorISsE8allocateEjPKv
DA:69,0
DA:71,0
DA:76,0
DA:87,0
DA:89,0
DA:90,0
DA:92,0
DA:97,0
DA:98,0
DA:101,0
DA:102,0
DA:107,0
DA:108,0
BA:89,0
BA:89,0
BA:108,0
BA:108,0
LF:13
LH:0
end_of_record
SF:/usr/include/c++/4.3/ext/type_traits.h
FN:154,_ZN9__gnu_cxx17__is_null_pointerIcEEbPT_
DA:154,0
DA:155,0
LF:2
LH:0
end_of_record
SF:/usr/include/c++/4.3/i486-linux-gnu/bits/gthr-default.h
FN:212,_ZL18__gthread_active_pv
DA:212,0
DA:216,0
LF:2
LH:0
end_of_record
SF:/usr/include/c++/4.3/iosfwd
FN:68,_ZNSt15basic_stringbufIcSt11char_traitsIcESaIcEED1Ev
DA:68,0
BA:68,0
BA:68,0
LF:1
LH:0
end_of_record
SF:/usr/include/c++/4.3/iostream
DA:77,1
LF:1
LH:1
end_of_record
SF:/usr/include/c++/4.3/istream
FN:585,_ZNSiC2Ev
FN:105,_ZNSiD2Ev
FN:804,_ZNSdC2Ev
FN:801,_ZNSdD2Ev
DA:105,0
DA:106,0
DA:585,0
DA:586,0
DA:587,0
DA:801,0
DA:804,0
DA:805,0
BA:106,0
BA:106,0
BA:106,0
BA:106,0
BA:801,0
BA:801,0
BA:801,0
BA:801,0
BA:801,0
BA:801,0
LF:8
LH:0
end_of_record
SF:/usr/include/c++/4.3/new
FN:105,_ZnwjPv
FN:109,_ZdlPvS_
DA:105,0
DA:109,0
LF:2
LH:0
end_of_record
SF:/usr/include/c++/4.3/ostream
FN:112,_ZNSolsEPFRSoS_E
FN:365,_ZNSoC2Ev
FN:95,_ZNSoD2Ev
FN:86,_ZNSoC1EPSt15basic_streambufIcSt11char_traitsIcEE
FN:95,_ZNSoD1Ev
FN:512,_ZStlsISt11char_traitsIcEERSt13basic_ostreamIcT_ES5_PKc
FN:566,_ZSt5flushIcSt11char_traitsIcEERSt13basic_ostreamIT_T0_ES6_
FN:545,_ZSt4endlIcSt11char_traitsIcEERSt13basic_ostreamIT_T0_ES6_
DA:86,0
DA:87,0
DA:95,0
DA:112,0
DA:117,0
DA:365,0
DA:366,0
DA:512,0
DA:514,0
DA:515,0
DA:517,0
DA:519,0
DA:545,0
DA:546,0
DA:566,0
DA:567,0
BA:95,0
BA:95,0
BA:95,0
BA:95,0
BA:95,0
BA:95,0
BA:95,0
BA:95,0
BA:514,0
BA:514,0
LF:16
LH:0
end_of_record
SF:/usr/include/c++/4.3/sstream
FN:96,_ZNSt15basic_stringbufIcSt11char_traitsIcESaIcEEC1ESt13_Ios_Openmode
FN:402,_ZNSt19basic_ostringstreamIcSt11char_traitsIcESaIcEEC1ESt13_Ios_Openmode
FN:431,_ZNSt19basic_ostringstreamIcSt11char_traitsIcESaIcEED1Ev
FN:509,_ZNSt18basic_stringstreamIcSt11char_traitsIcESaIcEEC1ESt13_Ios_Openmode
FN:536,_ZNSt18basic_stringstreamIcSt11char_traitsIcESaIcEED1Ev
FN:124,_ZNKSt15basic_stringbufIcSt11char_traitsIcESaIcEE3strEv
FN:450,_ZNKSt19basic_ostringstreamIcSt11char_traitsIcESaIcEE3strEv
FN:555,_ZNKSt18basic_stringstreamIcSt11char_traitsIcESaIcEE3strEv
DA:96,0
DA:97,0
DA:98,0
DA:124,0
DA:126,0
DA:127,0
DA:130,0
DA:131,0
DA:133,0
DA:136,0
DA:137,0
DA:402,0
DA:403,0
DA:404,0
DA:431,0
DA:432,0
DA:450,0
DA:451,0
DA:509,0
DA:510,0
DA:511,0
DA:536,0
DA:537,0
DA:555,0
DA:556,0
BA:127,0
BA:127,0
BA:130,0
BA:130,0
BA:432,0
BA:432,0
BA:432,0
BA:432,0
BA:432,0
BA:432,0
BA:537,0
BA:537,0
BA:537,0
BA:537,0
BA:537,0
BA:537,0
LF:25
LH:0
end_of_record
SF:/usr/include/c++/4.3/streambuf
FN:536,_ZNSt15basic_streambufIcSt11char_traitsIcEE4setpEPcS3_
FN:513,_ZNKSt15basic_streambufIcSt11char_traitsIcEE4pptrEv
FN:526,_ZNSt15basic_streambufIcSt11char_traitsIcEE5pbumpEi
FN:510,_ZNKSt15basic_streambufIcSt11char_traitsIcEE5pbaseEv
FN:469,_ZNKSt15basic_streambufIcSt11char_traitsIcEE5egptrEv
FN:557,_ZNSt15basic_streambufIcSt11char_traitsIcEE5imbueERKSt6locale
FN:572,_ZNSt15basic_streambufIcSt11char_traitsIcEE6setbufEPci
FN:630,_ZNSt15basic_streambufIcSt11char_traitsIcEE9showmanycEv
FN:668,_ZNSt15basic_streambufIcSt11char_traitsIcEE9underflowEv
FN:705,_ZNSt15basic_streambufIcSt11char_traitsIcEE9pbackfailEi
FN:596,_ZNSt15basic_streambufIcSt11char_traitsIcEE7seekposESt4fposI11__mbstate_tESt13_Ios_Openmode
FN:584,_ZNSt15basic_streambufIcSt11char_traitsIcEE7seekoffExSt12_Ios_SeekdirSt13_Ios_Openmode
FN:466,_ZNKSt15basic_streambufIcSt11char_traitsIcEE4gptrEv
FN:479,_ZNSt15basic_streambufIcSt11char_traitsIcEE5gbumpEi
FN:681,_ZNSt15basic_streambufIcSt11char_traitsIcEE5uflowEv
FN:444,_ZNSt15basic_streambufIcSt11char_traitsIcEEC2Ev
FN:197,_ZNSt15basic_streambufIcSt11char_traitsIcEED2Ev
DA:197,0
DA:198,0
DA:444,0
DA:447,0
DA:448,0
DA:466,0
DA:469,0
DA:479,0
DA:510,0
DA:513,0
DA:526,0
DA:536,0
DA:538,0
DA:539,0
DA:540,0
DA:557,0
DA:558,0
DA:572,0
DA:573,0
DA:584,0
DA:585,0
DA:596,0
DA:597,0
DA:630,0
DA:668,0
DA:669,0
DA:681,0
DA:683,0
DA:685,0
DA:686,0
DA:688,0
DA:689,0
DA:691,0
DA:705,0
DA:706,0
BA:198,0
BA:198,0
BA:686,0
BA:686,0
LF:35
LH:0
end_of_record
TN:
SF:/home/mornfall/dev/pkg/ept-work/wibble/list.h
FN:297,_ZN6wibble4list8SingularIiEC1Ei
FN:330,_ZN6wibble4list8singularIiEENS0_8SingularIT_EERKS3_
FN:310,_ZN6wibble4list6AppendINS0_8SingularIiEES3_EC1ES3_S3_
FN:335,_ZN6wibble4list6appendINS0_8SingularIiEES3_EENS0_6AppendIT_T0_EERKS5_RKS6_
FN:286,_ZNK6wibble4list5EmptyIiE5emptyEv
FN:285,_ZNK6wibble4list5EmptyIiE4headEv
FN:287,_ZNK6wibble4list5EmptyIiE4tailEv
FN:299,_ZNK6wibble4list8SingularIiE5emptyEv
FN:298,_ZNK6wibble4list8SingularIiE4headEv
FN:317,_ZNK6wibble4list6AppendINS0_8SingularIiEES3_E5emptyEv
FN:311,_ZNK6wibble4list6AppendINS0_8SingularIiEES3_E4headEv
FN:296,_ZN6wibble4list8SingularIiEC1Ev
FN:300,_ZNK6wibble4list8SingularIiE4tailEv
FN:318,_ZNK6wibble4list6AppendINS0_8SingularIiEES3_E4tailEv
DA:285,0
DA:286,0
DA:287,0
DA:296,0
DA:297,0
DA:298,0
DA:299,0
DA:300,0
DA:310,0
DA:311,0
DA:312,0
DA:313,0
DA:314,0
DA:317,0
DA:318,0
DA:319,0
DA:320,0
DA:321,0
DA:323,0
DA:330,0
DA:331,0
DA:335,0
DA:336,0
BA:312,0
BA:312,0
BA:317,0
BA:317,0
BA:317,0
BA:317,0
BA:320,0
BA:320,0
LF:23
LH:0
end_of_record
SF:/home/mornfall/dev/pkg/ept-work/wibble/operators.h
FN:29,_ZN6wibble9operatorsplISt23_Rb_tree_const_iteratorIiEEET_RKS4_NS4_15difference_typeE
DA:29,0
DA:30,0
DA:31,0
LF:3
LH:0
end_of_record
SF:/home/mornfall/dev/pkg/ept-work/wibble/string.h
FN:336,_ZNK6wibble3str5Split14const_iteratordeEv
FN:344,_ZNK6wibble3str5Split14const_iteratoreqERKS2_
FN:350,_ZNK6wibble3str5Split14const_iteratorneERKS2_
FN:420,_ZNK6wibble3str10YamlStream14const_iteratorptEv
FN:424,_ZNK6wibble3str10YamlStream14const_iteratoreqERKS2_
FN:428,_ZNK6wibble3str10YamlStream14const_iteratorneERKS2_
FN:298,_ZN6wibble3str5Split14const_iteratorC1ERKSsS4_b
FN:367,_ZNK6wibble3str5Split3endEv
FN:287,_ZN6wibble3str5Split14const_iteratorC1ERKS2_
FN:405,_ZN6wibble3str10YamlStream14const_iteratoraSERKS2_
FN:434,_ZN6wibble3str10YamlStream5beginERSi
FN:71,_ZN6wibble3str3fmtIiEESsRKT_
FN:71,_ZN6wibble3str3fmtIA5_cEESsRKT_
FN:412,_ZN6wibble3str10YamlStream14const_iteratorC1Ev
FN:435,_ZN6wibble3str10YamlStream3endEv
FN:405,_ZN6wibble3str10YamlStream14const_iteratorD1Ev
FN:361,_ZN6wibble3str5SplitC1ERKSsS3_
FN:287,_ZN6wibble3str5Split14const_iteratorD1Ev
FN:280,_ZN6wibble3str5SplitD1Ev
FN:44,_ZN6wibble3strlsINS_4list5EmptyIiEEEERNS_5TPairISoNT_4TypeEE5FirstERSoS6_
FN:71,_ZN6wibble3str3fmtINS_4list5EmptyIiEEEESsRKT_
FN:44,_ZN6wibble3strlsINS_4list8SingularIiEEEERNS_5TPairISoNT_4TypeEE5FirstERSoS6_
FN:71,_ZN6wibble3str3fmtINS_4list8SingularIiEEEESsRKT_
FN:44,_ZN6wibble3strlsINS_4list6AppendINS2_8SingularIiEES5_EEEERNS_5TPairISoNT_4TypeEE5FirstERSoS8_
FN:71,_ZN6wibble3str3fmtINS_4list6AppendINS2_8SingularIiEES5_EEEESsRKT_
FN:300,_ZN6wibble3str5Split14const_iteratorppEv
FN:294,_ZN6wibble3str5Split14const_iteratorC1ERKSsS4_
FN:366,_ZNK6wibble3str5Split5beginEv
FN:371,_ZN6wibble3str4joinINS0_5Split14const_iteratorEEESsRKT_S6_RKSs
FN:328,_ZNK6wibble3str5Split14const_iterator9remainderEv
FN:153,_ZN6wibble3str8endsWithERKSsS2_
FN:145,_ZN6wibble3str10startsWithERKSsS2_
FN:166,_ZN6wibble3str4trimIFiiEEESsRKSsRKT_
FN:184,_ZN6wibble3str4trimERKSs
FN:236,_ZN6wibble3str8joinpathERKSsS2_
FN:207,_ZN6wibble3str7toupperERKSs
FN:217,_ZN6wibble3str7tolowerERKSs
FN:227,_ZN6wibble3str7ucfirstERKSs
FN:125,_ZN6wibble3str7dirnameERKSs
FN:115,_ZN6wibble3str8basenameERKSs
FN:84,_ZN6wibble3str13fmt_containerISt6vectorIiSaIiEEEESsRKT_cc
FN:110,_ZN6wibble3str3fmtIiEESsRKSt6vectorIT_SaIS3_EE
FN:84,_ZN6wibble3str13fmt_containerISt3setIiSt4lessIiESaIiEEEESsRKT_cc
FN:104,_ZN6wibble3str3fmtIiEESsRKSt3setIT_St4lessIS3_ESaIS3_EE
FN:71,_ZN6wibble3str3fmtIdEESsRKT_
DA:44,3
DA:46,3
DA:47,1
DA:49,2
DA:50,7
DA:51,3
DA:52,3
DA:53,1
DA:54,3
DA:56,2
DA:71,23
DA:73,23
DA:74,23
DA:75,23
DA:84,8
DA:86,8
DA:87,8
DA:88,8
DA:89,2
DA:91,6
DA:92,18
DA:93,12
DA:94,12
DA:95,6
DA:97,6
DA:98,6
DA:99,6
DA:104,4
DA:105,4
DA:110,4
DA:111,4
DA:115,4
DA:117,4
DA:118,4
DA:119,1
DA:121,3
DA:125,5
DA:127,5
DA:128,5
DA:129,1
DA:130,4
DA:132,1
DA:134,3
DA:145,5
DA:147,5
DA:148,1
DA:149,4
DA:153,5
DA:155,5
DA:156,1
DA:157,4
DA:166,11
DA:168,11
DA:169,0
DA:171,11
DA:172,11
DA:173,40
DA:174,18
DA:175,36
DA:176,14
DA:178,11
DA:184,9
DA:186,9
DA:207,4
DA:209,4
DA:210,4
DA:211,20
DA:212,16
DA:213,0
DA:217,8
DA:219,8
DA:220,8
DA:221,36
DA:222,28
DA:223,0
DA:227,4
DA:229,4
DA:230,4
DA:231,4
DA:232,4
DA:236,12
DA:238,12
DA:239,0
DA:240,12
DA:241,0
DA:243,12
DA:244,4
DA:245,1
DA:247,3
DA:249,8
DA:250,1
DA:252,7
DA:280,18
DA:287,92
DA:294,18
DA:296,18
DA:297,18
DA:298,72
DA:300,78
DA:302,78
DA:303,18
DA:307,60
DA:308,3
DA:309,1
DA:311,2
DA:313,57
DA:314,60
DA:316,10
DA:317,10
DA:321,50
DA:322,50
DA:325,78
DA:328,8
DA:330,8
DA:331,0
DA:333,8
DA:336,112
DA:338,112
DA:344,4
DA:348,4
DA:350,72
DA:354,72
DA:361,18
DA:366,18
DA:367,72
DA:371,1
DA:373,1
DA:374,1
DA:375,5
DA:377,4
DA:378,1
DA:380,3
DA:381,5
DA:383,1
DA:405,23
DA:412,13
DA:420,14
DA:422,14
DA:424,6
DA:426,6
DA:428,7
DA:430,7
DA:434,6
DA:435,13
BA:46,2
BA:46,1
BA:46,1
BA:46,2
BA:46,1
BA:46,2
BA:50,0
BA:50,0
BA:50,2
BA:50,2
BA:50,2
BA:50,2
BA:52,0
BA:52,0
BA:52,1
BA:52,2
BA:52,2
BA:52,2
BA:88,2
BA:88,2
BA:88,2
BA:88,2
BA:92,2
BA:92,2
BA:92,2
BA:92,2
BA:94,2
BA:94,1
BA:94,2
BA:94,2
BA:94,2
BA:94,2
BA:94,2
BA:94,1
BA:94,2
BA:94,2
BA:94,2
BA:94,2
BA:118,2
BA:118,2
BA:128,2
BA:128,2
BA:130,2
BA:130,2
BA:147,2
BA:147,2
BA:155,2
BA:155,2
BA:168,1
BA:168,2
BA:173,2
BA:173,2
BA:173,2
BA:173,2
BA:173,2
BA:173,2
BA:175,2
BA:175,2
BA:175,2
BA:175,2
BA:175,2
BA:175,2
BA:211,2
BA:211,2
BA:221,2
BA:221,2
BA:229,1
BA:229,2
BA:238,1
BA:238,2
BA:240,1
BA:240,2
BA:243,2
BA:243,2
BA:244,2
BA:244,2
BA:249,2
BA:249,2
BA:302,2
BA:302,2
BA:307,2
BA:307,2
BA:308,2
BA:308,2
BA:314,2
BA:314,2
BA:330,1
BA:330,2
BA:375,2
BA:375,2
BA:377,2
BA:377,2
LF:144
LH:138
end_of_record
SF:/home/mornfall/dev/pkg/ept-work/wibble/test.h
FN:13,_ZN8LocationC1ERKS_
FN:17,_ZN8LocationC1EPKciSs
FN:52,_ZlsISsER12AssertFailedS1_T_
FN:52,_ZlsIPKcER12AssertFailedS3_T_
FN:33,_ZN12AssertFailedC1E8LocationRSo
FN:41,_ZN12AssertFailedD1Ev
FN:13,_ZN8LocationD1Ev
FN:59,_Z9assert_fnIbEv8LocationT_
FN:67,_Z12assert_eq_fnISsPKcEv8LocationT_T0_
DA:13,0
DA:17,0
DA:18,0
DA:33,0
DA:34,0
DA:36,0
DA:38,0
DA:39,0
DA:41,0
DA:42,0
DA:43,0
DA:45,0
DA:46,0
DA:48,0
DA:52,0
DA:54,0
DA:55,0
DA:59,0
DA:61,0
DA:62,0
DA:64,0
DA:67,0
DA:69,0
DA:70,0
DA:71,0
DA:75,0
BA:42,0
BA:42,0
BA:61,0
BA:61,0
BA:69,0
BA:69,0
LF:26
LH:0
end_of_record
SF:/home/mornfall/dev/pkg/ept-work/wibble/string.test.h
FN:324,_ZN12_GLOBAL__N_110TestString12yamlCommentsEv
FN:273,_ZN12_GLOBAL__N_110TestString4yamlEv
FN:46,_ZN12_GLOBAL__N_110TestString7fmtListEv
FN:247,_ZN12_GLOBAL__N_110TestString6base64Ev
FN:230,_ZN12_GLOBAL__N_110TestString8normpathEv
FN:160,_ZN12_GLOBAL__N_110TestString6split1Ev
FN:222,_ZN12_GLOBAL__N_110TestString4joinEv
FN:198,_ZN12_GLOBAL__N_110TestString6split4Ev
FN:180,_ZN12_GLOBAL__N_110TestString6split3Ev
FN:168,_ZN12_GLOBAL__N_110TestString6split2Ev
FN:125,_ZN12_GLOBAL__N_110TestString8endsWithEv
FN:116,_ZN12_GLOBAL__N_110TestString10startsWithEv
FN:85,_ZN12_GLOBAL__N_110TestString5trim2Ev
FN:72,_ZN12_GLOBAL__N_110TestString4trimEv
FN:142,_ZN12_GLOBAL__N_110TestString9urlencodeEv
FN:134,_ZN12_GLOBAL__N_110TestString8joinpathEv
FN:99,_ZN12_GLOBAL__N_110TestString7toupperEv
FN:107,_ZN12_GLOBAL__N_110TestString7ucfirstEv
FN:91,_ZN12_GLOBAL__N_110TestString7tolowerEv
FN:63,_ZN12_GLOBAL__N_110TestString7dirnameEv
FN:55,_ZN12_GLOBAL__N_110TestString8basenameEv
FN:34,_ZN12_GLOBAL__N_110TestString6fmtVecEv
FN:22,_ZN12_GLOBAL__N_110TestString6fmtSetEv
FN:15,_ZN12_GLOBAL__N_110TestString3fmtEv
DA:15,1
DA:17,1
DA:18,2
DA:19,2
DA:20,1
DA:22,1
DA:24,1
DA:25,1
DA:26,1
DA:27,1
DA:28,1
DA:29,1
DA:30,1
DA:31,1
DA:32,1
DA:34,1
DA:36,1
DA:37,1
DA:38,1
DA:39,1
DA:40,1
DA:41,1
DA:42,1
DA:43,1
DA:44,1
DA:46,1
DA:48,1
DA:49,2
DA:52,2
DA:53,1
DA:55,1
DA:57,1
DA:58,2
DA:59,2
DA:60,2
DA:61,1
DA:63,1
DA:65,1
DA:66,2
DA:67,2
DA:68,2
DA:69,2
DA:70,1
DA:72,1
DA:74,1
DA:75,2
DA:76,2
DA:77,2
DA:78,2
DA:79,2
DA:80,2
DA:81,2
DA:82,2
DA:83,1
DA:85,1
DA:87,1
DA:88,2
DA:89,1
DA:91,1
DA:93,1
DA:94,2
DA:95,2
DA:96,2
DA:97,1
DA:99,1
DA:101,1
DA:102,2
DA:103,2
DA:104,2
DA:105,1
DA:107,1
DA:109,1
DA:110,2
DA:111,2
DA:112,2
DA:113,1
DA:116,1
DA:118,1
DA:119,2
DA:120,2
DA:121,2
DA:122,2
DA:123,1
DA:125,1
DA:127,1
DA:128,2
DA:129,2
DA:130,2
DA:131,2
DA:132,1
DA:134,1
DA:136,1
DA:137,2
DA:138,2
DA:139,2
DA:140,1
DA:142,1
DA:144,1
DA:145,2
DA:146,2
DA:147,2
DA:149,2
DA:150,2
DA:151,2
DA:152,2
DA:153,2
DA:154,2
DA:156,2
DA:157,2
DA:158,1
DA:160,1
DA:162,1
DA:163,2
DA:164,1
DA:165,1
DA:166,1
DA:168,1
DA:170,1
DA:171,2
DA:172,1
DA:173,1
DA:174,1
DA:175,1
DA:176,1
DA:177,1
DA:178,1
DA:180,1
DA:182,1
DA:183,2
DA:184,1
DA:185,1
DA:186,1
DA:187,1
DA:188,1
DA:189,1
DA:190,1
DA:191,1
DA:192,1
DA:193,1
DA:194,1
DA:195,1
DA:196,1
DA:198,1
DA:200,1
DA:201,2
DA:202,1
DA:203,1
DA:204,1
DA:205,1
DA:206,1
DA:207,1
DA:208,1
DA:209,1
DA:210,1
DA:211,1
DA:212,1
DA:213,1
DA:214,1
DA:215,1
DA:216,1
DA:217,1
DA:218,1
DA:219,1
DA:220,1
DA:222,1
DA:224,1
DA:225,2
DA:226,2
DA:227,2
DA:228,1
DA:230,1
DA:232,1
DA:233,2
DA:234,2
DA:235,2
DA:236,2
DA:237,2
DA:238,2
DA:239,2
DA:240,2
DA:241,2
DA:242,2
DA:243,2
DA:244,2
DA:245,1
DA:247,1
DA:250,1
DA:251,2
DA:252,2
DA:253,2
DA:254,2
DA:255,2
DA:256,2
DA:257,2
DA:258,2
DA:259,2
DA:261,2
DA:262,2
DA:263,2
DA:264,2
DA:265,2
DA:266,2
DA:267,2
DA:268,2
DA:269,2
DA:270,2
DA:271,1
DA:273,1
DA:285,1
DA:286,1
DA:288,1
DA:289,1
DA:290,1
DA:291,1
DA:293,1
DA:294,1
DA:295,1
DA:299,1
DA:301,1
DA:302,1
DA:303,1
DA:307,1
DA:309,1
DA:310,1
DA:312,1
DA:313,1
DA:314,1
DA:315,1
DA:317,1
DA:318,1
DA:320,1
DA:321,1
DA:322,1
DA:324,1
DA:336,1
DA:337,1
DA:339,1
DA:340,1
DA:341,1
DA:342,1
DA:344,1
DA:345,1
DA:346,1
DA:350,1
DA:352,1
DA:353,1
DA:355,1
DA:356,1
DA:357,1
DA:358,1
DA:360,1
DA:361,1
DA:363,1
DA:364,1
DA:365,1
LF:255
LH:255
end_of_record
SF:/srv/build/pkg/ept-work/default/wibble/wibble-test-generated-_home_mornfall_dev_pkg_ept-work_wibble_string.cpp
FN:26,_Z41__static_initialization_and_destruction_0ii
FN:26,_GLOBAL__I__Z14run_String_fmtv
FN:26,_Z23run_String_yamlCommentsv
FN:25,_Z15run_String_yamlv
FN:6,_Z18run_String_fmtListv
FN:24,_Z17run_String_base64v
FN:23,_Z19run_String_normpathv
FN:18,_Z17run_String_split1v
FN:22,_Z15run_String_joinv
FN:21,_Z17run_String_split4v
FN:20,_Z17run_String_split3v
FN:19,_Z17run_String_split2v
FN:15,_Z19run_String_endsWithv
FN:14,_Z21run_String_startsWithv
FN:10,_Z16run_String_trim2v
FN:9,_Z15run_String_trimv
FN:17,_Z20run_String_urlencodev
FN:16,_Z19run_String_joinpathv
FN:12,_Z18run_String_toupperv
FN:13,_Z18run_String_ucfirstv
FN:11,_Z18run_String_tolowerv
FN:8,_Z18run_String_dirnamev
FN:7,_Z19run_String_basenamev
FN:5,_Z17run_String_fmtVecv
FN:4,_Z17run_String_fmtSetv
FN:3,_Z14run_String_fmtv
DA:3,1
DA:4,1
DA:5,1
DA:6,1
DA:7,1
DA:8,1
DA:9,1
DA:10,1
DA:11,1
DA:12,1
DA:13,1
DA:14,1
DA:15,1
DA:16,1
DA:17,1
DA:18,1
DA:19,1
DA:20,1
DA:21,1
DA:22,1
DA:23,1
DA:24,1
DA:25,1
DA:26,4
BA:26,2
BA:26,1
BA:26,2
BA:26,1
LF:24
LH:24
end_of_record
SF:/usr/include/c++/4.3/bits/allocator.h
FN:98,_ZNSaIcEC1Ev
FN:106,_ZNSaIcED1Ev
FN:106,_ZNSaIcED2Ev
FN:106,_ZNSaISt13_Rb_tree_nodeIiEED2Ev
FN:100,_ZNSaIcEC2ERKS_
FN:100,_ZNSaIcEC1ERKS_
FN:106,_ZNSaIiED2Ev
FN:106,_ZNSaIiED1Ev
FN:98,_ZNSaISt13_Rb_tree_nodeIiEEC2Ev
FN:98,_ZNSaIiEC2Ev
FN:104,_ZNSaIiEC1ISt13_Rb_tree_nodeIiEEERKSaIT_E
FN:118,_ZSteqIcEbRKSaIT_ES3_
DA:98,0
DA:100,0
DA:101,0
DA:104,0
DA:106,0
DA:118,0
DA:119,0
LF:7
LH:0
end_of_record
SF:/usr/include/c++/4.3/bits/basic_ios.h
FN:131,_ZNKSt9basic_iosIcSt11char_traitsIcEE7rdstateEv
FN:454,_ZNSt9basic_iosIcSt11char_traitsIcEEC2Ev
FN:276,_ZNSt9basic_iosIcSt11char_traitsIcEED2Ev
FN:151,_ZNSt9basic_iosIcSt11char_traitsIcEE8setstateESt12_Ios_Iostate
FN:51,_ZSt13__check_facetISt5ctypeIcEERKT_PS3_
FN:443,_ZNKSt9basic_iosIcSt11char_traitsIcEE5widenEc
DA:51,0
DA:53,0
DA:54,0
DA:55,0
DA:131,0
DA:132,0
DA:151,0
DA:152,0
DA:276,0
DA:443,0
DA:444,0
DA:454,0
DA:456,0
DA:457,0
BA:53,0
BA:53,0
BA:276,0
BA:276,0
LF:14
LH:0
end_of_record
SF:/usr/include/c++/4.3/bits/basic_string.h
FN:277,_ZNKSs7_M_dataEv
FN:701,_ZNKSsixEj
FN:258,_ZNSs12_Alloc_hiderD1Ev
FN:285,_ZNKSs6_M_repEv
FN:606,_ZNKSs4sizeEv
FN:686,_ZNKSs5emptyEv
FN:214,_ZNSs4_Rep10_M_refdataEv
FN:1544,_ZNKSs4dataEv
FN:543,_ZNKSs5beginEv
FN:562,_ZNKSs3endEv
FN:178,_ZNSs4_Rep12_S_empty_repEv
FN:411,_ZNSs12_S_empty_repEv
FN:192,_ZNKSs4_Rep12_M_is_sharedEv
FN:652,_ZNKSs8capacityEv
FN:259,_ZNSs12_Alloc_hiderC1EPcRKSaIcE
FN:2067,_ZNSsC1Ev
FN:1551,_ZNKSs13get_allocatorEv
FN:200,_ZNSs4_Rep15_M_set_sharableEv
FN:204,_ZNSs4_Rep26_M_set_length_and_sharableEj
FN:2188,_ZSteqIcSt11char_traitsIcESaIcEEbRKSbIT_T0_T1_EPKS3_
FN:2421,_ZStlsIcSt11char_traitsIcESaIcEERSt13basic_ostreamIT_T0_ES7_RKSbIS4_S5_T1_E
FN:339,_ZNSs7_M_copyEPcPKcj
FN:384,_ZNSs13_S_copy_charsEPcS_S_
FN:1462,_ZNSs16_S_construct_auxIPcEES0_T_S1_RKSaIcESt12__false_type
FN:1478,_ZNSs12_S_constructIPcEES0_T_S1_RKSaIcE
FN:501,_ZNSsaSERKSs
FN:2162,_ZSteqIcEN9__gnu_cxx11__enable_ifIXsrSt9__is_charIT_E7__valueEbE6__typeERKSbIS3_St11char_traitsIS3_ESaIS3_EESC_
FN:229,_ZNSs4_Rep10_M_disposeERKSaIcE
FN:493,_ZNSsD1Ev
FN:1579,_ZNKSs4findERKSsj
FN:306,_ZNKSs8_M_checkEjPKc
FN:1923,_ZNKSs6substrEjj
FN:2136,_ZStplIcSt11char_traitsIcESaIcEESbIT_T0_T1_ERKS6_S3_
FN:2084,_ZStplIcSt11char_traitsIcESaIcEESbIT_T0_T1_ERKS6_S8_
FN:773,_ZNSspLERKSs
FN:870,_ZNSs9push_backEc
FN:791,_ZNSspLEc
FN:1651,_ZNKSs5rfindEPKcj
FN:835,_ZNSs6appendEPKc
FN:782,_ZNSspLEPKc
DA:178,0
DA:183,0
DA:184,0
DA:192,0
DA:193,0
DA:200,0
DA:201,0
DA:204,0
DA:206,0
DA:207,0
DA:208,0
DA:211,0
DA:214,0
DA:215,0
DA:229,0
DA:232,0
DA:234,0
DA:236,0
DA:237,0
DA:258,0
DA:259,0
DA:260,0
DA:277,0
DA:278,0
DA:285,0
DA:286,0
DA:306,0
DA:308,0
DA:309,0
DA:310,0
DA:339,0
DA:341,0
DA:342,0
DA:344,0
DA:345,0
DA:384,0
DA:385,0
DA:411,0
DA:412,0
DA:493,0
DA:494,0
DA:501,0
DA:502,0
DA:543,0
DA:544,0
DA:562,0
DA:563,0
DA:606,0
DA:607,0
DA:652,0
DA:653,0
DA:686,0
DA:687,0
DA:701,0
DA:704,0
DA:773,0
DA:774,0
DA:782,0
DA:783,0
DA:791,0
DA:793,0
DA:794,0
DA:835,0
DA:838,0
DA:870,0
DA:872,0
DA:873,0
DA:874,0
DA:875,0
DA:876,0
DA:877,0
DA:1462,0
DA:1465,0
DA:1478,0
DA:1481,0
DA:1544,0
DA:1545,0
DA:1551,0
DA:1552,0
DA:1579,0
DA:1580,0
DA:1651,0
DA:1654,0
DA:1923,0
DA:1925,0
DA:2067,0
DA:2069,0
DA:2084,0
DA:2086,0
DA:2087,0
DA:2088,0
DA:2136,9
DA:2140,9
DA:2141,9
DA:2142,0
DA:2162,0
DA:2165,0
DA:2188,0
DA:2189,0
DA:2421,0
DA:2425,0
BA:232,0
BA:232,0
BA:234,0
BA:234,0
BA:308,0
BA:308,0
BA:341,0
BA:341,0
BA:873,0
BA:873,0
BA:873,0
BA:873,0
BA:873,0
BA:873,0
BA:2165,0
BA:2165,0
BA:2165,0
BA:2165,0
LF:101
LH:3
end_of_record
SF:/usr/include/c++/4.3/bits/basic_string.tcc
FN:130,_ZNSs12_S_constructIPcEES0_T_S1_RKSaIcESt20forward_iterator_tag
FN:234,_ZNSsC1IPcEET_S1_RKSaIcE
DA:130,0
DA:133,0
DA:134,0
DA:137,0
DA:139,0
DA:142,0
DA:144,0
DA:146,0
DA:147,0
DA:149,0
DA:150,0
DA:152,0
DA:153,0
DA:234,0
DA:235,0
DA:236,0
BA:133,0
BA:133,0
BA:133,0
BA:133,0
BA:133,0
BA:133,0
BA:133,0
BA:133,0
BA:137,0
BA:137,0
BA:137,0
BA:137,0
BA:137,0
BA:137,0
LF:16
LH:0
end_of_record
SF:/usr/include/c++/4.3/bits/char_traits.h
FN:245,_ZNSt11char_traitsIcE6assignERcRKc
FN:261,_ZNSt11char_traitsIcE6lengthEPKc
FN:273,_ZNSt11char_traitsIcE4copyEPcPKcj
FN:257,_ZNSt11char_traitsIcE7compareEPKcS2_j
DA:245,0
DA:246,0
DA:257,0
DA:258,0
DA:261,0
DA:262,0
DA:273,0
DA:274,0
LF:8
LH:0
end_of_record
SF:/usr/include/c++/4.3/bits/ios_base.h
FN:121,_ZStanSt13_Ios_OpenmodeS_
FN:125,_ZStorSt13_Ios_OpenmodeS_
FN:163,_ZStorSt12_Ios_IostateS_
DA:121,0
DA:122,0
DA:125,0
DA:126,0
DA:163,0
DA:164,0
LF:6
LH:0
end_of_record
SF:/usr/include/c++/4.3/bits/locale_facets.h
FN:1165,_ZNKSt5ctypeIcE13_M_widen_initEv
FN:871,_ZNKSt5ctypeIcE5widenEc
DA:871,0
DA:873,0
DA:874,0
DA:875,0
DA:876,0
DA:1165,0
DA:1168,0
DA:1169,0
DA:1170,0
DA:1172,0
DA:1174,0
DA:1175,0
DA:1176,0
BA:873,0
BA:873,0
BA:1168,0
BA:1168,0
BA:1174,0
BA:1174,0
LF:13
LH:0
end_of_record
SF:/usr/include/c++/4.3/bits/stl_algobase.h
FN:286,_ZNSt12__miter_baseIPiLb0EE3__bES0_
FN:210,_ZSt3maxIjERKT_S2_S2_
FN:268,_ZNSt12__niter_baseIPiLb0EE3__bES0_
FN:569,_ZNSt20__copy_move_backwardILb0ELb1ESt26random_access_iterator_tagE13__copy_move_bIiEEPT_PKS3_S6_S4_
FN:579,_ZSt22__copy_move_backward_aILb0EPiS0_ET1_T0_S2_S1_
FN:597,_ZSt23__copy_move_backward_a2ILb0EPiS0_ET1_T0_S2_S1_
FN:624,_ZSt13copy_backwardIPiS0_ET0_T_S2_S1_
FN:375,_ZNSt11__copy_moveILb0ELb1ESt26random_access_iterator_tagE8__copy_mIiEEPT_PKS3_S6_S4_
FN:385,_ZSt13__copy_move_aILb0EPiS0_ET1_T0_S2_S1_
FN:430,_ZSt14__copy_move_a2ILb0EPiS0_ET1_T0_S2_S1_
FN:456,_ZSt4copyIPiS0_ET0_T_S2_S1_
DA:210,0
DA:215,0
DA:216,0
DA:217,0
DA:268,0
DA:269,0
DA:286,0
DA:287,0
DA:375,0
DA:377,0
DA:379,0
DA:385,0
DA:393,0
DA:396,0
DA:430,0
DA:435,0
DA:456,0
DA:466,0
DA:569,0
DA:571,0
DA:572,0
DA:573,0
DA:579,0
DA:587,0
DA:592,0
DA:597,0
DA:602,0
DA:624,0
DA:636,0
BA:215,0
BA:215,0
LF:29
LH:0
end_of_record
SF:/usr/include/c++/4.3/bits/stl_construct.h
FN:97,_ZSt8_DestroyIPiEvT_S1_
FN:126,_ZSt8_DestroyIPiiEvT_S1_RSaIT0_E
DA:97,0
DA:104,0
DA:126,0
DA:128,0
DA:129,0
LF:5
LH:0
end_of_record
SF:/usr/include/c++/4.3/bits/stl_function.h
FN:469,_ZNKSt9_IdentityIiEclERKi
FN:229,_ZNKSt4lessIiEclERKiS2_
DA:229,0
DA:230,0
DA:469,0
DA:470,0
LF:4
LH:0
end_of_record
SF:/usr/include/c++/4.3/bits/stl_iterator.h
FN:703,_ZN9__gnu_cxx17__normal_iteratorIPKcSsEppEv
FN:695,_ZNK9__gnu_cxx17__normal_iteratorIPKcSsEdeEv
FN:683,_ZN9__gnu_cxx17__normal_iteratorIPKcSsEC1ERKS2_
FN:747,_ZNK9__gnu_cxx17__normal_iteratorIPKcSsE4baseEv
FN:781,_ZN9__gnu_cxxneIPKcSsEEbRKNS_17__normal_iteratorIT_T0_EES8_
FN:703,_ZN9__gnu_cxx17__normal_iteratorIPKiSt6vectorIiSaIiEEEppEv
FN:695,_ZNK9__gnu_cxx17__normal_iteratorIPKiSt6vectorIiSaIiEEEdeEv
FN:747,_ZNK9__gnu_cxx17__normal_iteratorIPiSt6vectorIiSaIiEEE4baseEv
FN:695,_ZNK9__gnu_cxx17__normal_iteratorIPiSt6vectorIiSaIiEEEdeEv
FN:683,_ZN9__gnu_cxx17__normal_iteratorIPiSt6vectorIiSaIiEEEC1ERKS1_
FN:683,_ZN9__gnu_cxx17__normal_iteratorIPKiSt6vectorIiSaIiEEEC1ERKS2_
FN:735,_ZNK9__gnu_cxx17__normal_iteratorIPKiSt6vectorIiSaIiEEEplERS1_
FN:747,_ZNK9__gnu_cxx17__normal_iteratorIPKiSt6vectorIiSaIiEEE4baseEv
FN:769,_ZN9__gnu_cxxeqIPKiSt6vectorIiSaIiEEEEbRKNS_17__normal_iteratorIT_T0_EESB_
FN:781,_ZN9__gnu_cxxneIPKiSt6vectorIiSaIiEEEEbRKNS_17__normal_iteratorIT_T0_EESB_
DA:683,38
DA:695,918
DA:696,918
DA:703,238
DA:705,238
DA:706,238
DA:735,6
DA:736,6
DA:747,576
DA:748,576
DA:769,4
DA:770,4
DA:781,284
DA:782,284
LF:14
LH:14
end_of_record
SF:/usr/include/c++/4.3/bits/stl_iterator_base_funcs.h
FN:93,_ZSt10__distanceIPcENSt15iterator_traitsIT_E15difference_typeES2_S2_St26random_access_iterator_tag
FN:115,_ZSt8distanceIPcENSt15iterator_traitsIT_E15difference_typeES2_S2_
FN:135,_ZSt9__advanceISt23_Rb_tree_const_iteratorIiEiEvRT_T0_St26bidirectional_iterator_tag
FN:173,_ZSt7advanceISt23_Rb_tree_const_iteratorIiEiEvRT_T0_
DA:93,0
DA:98,0
DA:115,0
DA:119,0
DA:135,0
DA:140,0
DA:141,0
DA:142,0
DA:144,0
DA:145,0
DA:146,0
DA:173,0
DA:176,0
DA:177,0
DA:178,0
BA:140,0
BA:140,0
BA:141,0
BA:141,0
BA:144,0
BA:144,0
LF:15
LH:0
end_of_record
SF:/usr/include/c++/4.3/bits/stl_iterator_base_types.h
FN:166,_ZSt19__iterator_categoryISt23_Rb_tree_const_iteratorIiEENSt15iterator_traitsIT_E17iterator_categoryERKS3_
FN:166,_ZSt19__iterator_categoryIPcENSt15iterator_traitsIT_E17iterator_categoryERKS2_
DA:166,0
DA:167,0
LF:2
LH:0
end_of_record
SF:/usr/include/c++/4.3/bits/stl_pair.h
FN:88,_ZNSt4pairISt17_Rb_tree_iteratorIiEbEC1ERKS1_RKb
FN:73,_ZNSt4pairISsSsEaSERKS0_
FN:84,_ZNSt4pairISsSsEC1Ev
FN:73,_ZNSt4pairISsSsED1Ev
DA:73,23
DA:84,19
DA:85,19
DA:88,0
DA:89,0
LF:5
LH:3
end_of_record
SF:/usr/include/c++/4.3/bits/stl_set.h
FN:261,_ZNKSt3setIiSt4lessIiESaIiEE5beginEv
FN:331,_ZNKSt3setIiSt4lessIiESaIiEE5emptyEv
FN:270,_ZNKSt3setIiSt4lessIiESaIiEE3endEv
FN:141,_ZNSt3setIiSt4lessIiESaIiEEC1Ev
FN:93,_ZNSt3setIiSt4lessIiESaIiEED1Ev
FN:405,_ZNSt3setIiSt4lessIiESaIiEE6insertESt23_Rb_tree_const_iteratorIiERKi
DA:93,0
DA:141,0
DA:142,0
DA:261,0
DA:262,0
DA:270,0
DA:271,0
DA:331,7
DA:332,7
DA:405,0
DA:406,0
LF:11
LH:2
end_of_record
SF:/usr/include/c++/4.3/bits/stl_tree.h
FN:452,_ZNSt8_Rb_treeIiiSt9_IdentityIiESt4lessIiESaIiEE8_M_beginEv
FN:243,_ZNSt23_Rb_tree_const_iteratorIiEC1ERKSt17_Rb_tree_iteratorIiE
FN:398,_ZNSt8_Rb_treeIiiSt9_IdentityIiESt4lessIiESaIiEE13_Rb_tree_implIS3_Lb0EED1Ev
FN:487,_ZNSt8_Rb_treeIiiSt9_IdentityIiESt4lessIiESaIiEE8_S_rightEPSt18_Rb_tree_node_base
FN:479,_ZNSt8_Rb_treeIiiSt9_IdentityIiESt4lessIiESaIiEE7_S_leftEPSt18_Rb_tree_node_base
FN:289,_ZNKSt23_Rb_tree_const_iteratorIiEneERKS0_
FN:247,_ZNKSt23_Rb_tree_const_iteratorIiEdeEv
FN:240,_ZNSt23_Rb_tree_const_iteratorIiEC1EPKSt13_Rb_tree_nodeIiE
FN:603,_ZNKSt8_Rb_treeIiiSt9_IdentityIiESt4lessIiESaIiEE5beginEv
FN:463,_ZNSt8_Rb_treeIiiSt9_IdentityIiESt4lessIiESaIiEE6_M_endEv
FN:444,_ZNSt8_Rb_treeIiiSt9_IdentityIiESt4lessIiESaIiEE12_M_rightmostEv
FN:641,_ZNKSt8_Rb_treeIiiSt9_IdentityIiESt4lessIiESaIiEE4sizeEv
FN:436,_ZNSt8_Rb_treeIiiSt9_IdentityIiESt4lessIiESaIiEE11_M_leftmostEv
FN:491,_ZNSt8_Rb_treeIiiSt9_IdentityIiESt4lessIiESaIiEE8_S_rightEPKSt18_Rb_tree_node_base
FN:168,_ZNSt17_Rb_tree_iteratorIiEC1EPSt13_Rb_tree_nodeIiE
FN:415,_ZNSt8_Rb_treeIiiSt9_IdentityIiESt4lessIiESaIiEE13_Rb_tree_implIS3_Lb0EE13_M_initializeEv
FN:637,_ZNKSt8_Rb_treeIiiSt9_IdentityIiESt4lessIiESaIiEE5emptyEv
FN:614,_ZNKSt8_Rb_treeIiiSt9_IdentityIiESt4lessIiESaIiEE3endEv
FN:495,_ZNSt8_Rb_treeIiiSt9_IdentityIiESt4lessIiESaIiEE8_S_valueEPKSt18_Rb_tree_node_base
FN:499,_ZNSt8_Rb_treeIiiSt9_IdentityIiESt4lessIiESaIiEE6_S_keyEPKSt18_Rb_tree_node_base
FN:596,_ZNSt8_Rb_treeIiiSt9_IdentityIiESt4lessIiESaIiEE5beginEv
FN:210,_ZNKSt17_Rb_tree_iteratorIiEeqERKS0_
FN:403,_ZNSt8_Rb_treeIiiSt9_IdentityIiESt4lessIiESaIiEE13_Rb_tree_implIS3_Lb0EEC1Ev
FN:562,_ZNSt8_Rb_treeIiiSt9_IdentityIiESt4lessIiESaIiEEC1Ev
FN:347,_ZNKSt8_Rb_treeIiiSt9_IdentityIiESt4lessIiESaIiEE21_M_get_Node_allocatorEv
FN:471,_ZNSt8_Rb_treeIiiSt9_IdentityIiESt4lessIiESaIiEE8_S_valueEPKSt13_Rb_tree_nodeIiE
FN:475,_ZNSt8_Rb_treeIiiSt9_IdentityIiESt4lessIiESaIiEE6_S_keyEPKSt13_Rb_tree_nodeIiE
FN:351,_ZNKSt8_Rb_treeIiiSt9_IdentityIiESt4lessIiESaIiEE13get_allocatorEv
FN:360,_ZNSt8_Rb_treeIiiSt9_IdentityIiESt4lessIiESaIiEE11_M_put_nodeEPSt13_Rb_tree_nodeIiE
FN:388,_ZNSt8_Rb_treeIiiSt9_IdentityIiESt4lessIiESaIiEE15_M_destroy_nodeEPSt13_Rb_tree_nodeIiE
FN:936,_ZNSt8_Rb_treeIiiSt9_IdentityIiESt4lessIiESaIiEE8_M_eraseEPSt13_Rb_tree_nodeIiE
FN:584,_ZNSt8_Rb_treeIiiSt9_IdentityIiESt4lessIiESaIiEED1Ev
FN:356,_ZNSt8_Rb_treeIiiSt9_IdentityIiESt4lessIiESaIiEE11_M_get_nodeEv
FN:364,_ZNSt8_Rb_treeIiiSt9_IdentityIiESt4lessIiESaIiEE14_M_create_nodeERKi
FN:270,_ZNSt23_Rb_tree_const_iteratorIiEmmEv
FN:255,_ZNSt23_Rb_tree_const_iteratorIiEppEv
FN:846,_ZNSt8_Rb_treeIiiSt9_IdentityIiESt4lessIiESaIiEE10_M_insert_EPKSt18_Rb_tree_node_baseS8_RKi
FN:195,_ZNSt17_Rb_tree_iteratorIiEmmEv
FN:1133,_ZNSt8_Rb_treeIiiSt9_IdentityIiESt4lessIiESaIiEE16_M_insert_uniqueERKi
FN:1178,_ZNSt8_Rb_treeIiiSt9_IdentityIiESt4lessIiESaIiEE17_M_insert_unique_ESt23_Rb_tree_const_iteratorIiERKi
DA:168,0
DA:169,0
DA:195,0
DA:197,0
DA:198,0
DA:210,0
DA:211,0
DA:240,0
DA:241,0
DA:243,0
DA:244,0
DA:247,0
DA:248,0
DA:255,0
DA:257,0
DA:258,0
DA:270,0
DA:272,0
DA:273,0
DA:289,88
DA:290,88
DA:347,0
DA:348,0
DA:351,0
DA:352,0
DA:356,0
DA:357,0
DA:360,0
DA:361,0
DA:364,0
DA:366,0
DA:368,0
DA:369,0
DA:371,0
DA:372,0
DA:374,0
DA:388,0
DA:390,0
DA:391,0
DA:392,0
DA:398,0
DA:403,0
DA:405,0
DA:406,0
DA:415,0
DA:417,0
DA:418,0
DA:419,0
DA:420,0
DA:421,0
DA:436,0
DA:437,0
DA:444,0
DA:445,0
DA:452,0
DA:453,0
DA:463,0
DA:464,0
DA:471,0
DA:472,0
DA:475,0
DA:476,0
DA:479,0
DA:480,0
DA:487,0
DA:488,0
DA:491,0
DA:492,0
DA:495,0
DA:496,0
DA:499,0
DA:500,0
DA:562,0
DA:584,0
DA:585,0
DA:596,0
DA:599,0
DA:603,0
DA:606,0
DA:614,0
DA:617,0
DA:637,7
DA:638,7
DA:641,0
DA:642,0
DA:846,0
DA:850,0
DA:852,0
DA:854,0
DA:857,0
DA:858,0
DA:936,0
DA:939,0
DA:941,0
DA:942,0
DA:943,0
DA:944,0
DA:946,0
DA:1133,0
DA:1135,0
DA:1136,0
DA:1137,0
DA:1138,0
DA:1140,0
DA:1141,0
DA:1142,0
DA:1144,0
DA:1145,0
DA:1147,0
DA:1148,0
DA:1150,0
DA:1152,0
DA:1153,0
DA:1154,0
DA:1178,0
DA:1181,0
DA:1183,0
DA:1186,0
DA:1188,0
DA:1190,0
DA:1194,0
DA:1195,0
DA:1196,0
DA:1197,0
DA:1200,0
DA:1201,0
DA:1204,0
DA:1207,0
DA:1209,0
DA:1213,0
DA:1214,0
DA:1215,0
DA:1216,0
DA:1219,0
DA:1220,0
DA:1222,0
DA:1225,0
DA:1230,0
BA:850,0
BA:850,0
BA:850,0
BA:850,0
BA:850,0
BA:850,0
BA:939,0
BA:939,0
BA:1138,0
BA:1138,0
BA:1142,0
BA:1142,0
BA:1145,0
BA:1145,0
BA:1147,0
BA:1147,0
BA:1152,0
BA:1152,0
BA:1181,0
BA:1181,0
BA:1183,0
BA:1183,0
BA:1183,0
BA:1183,0
BA:1183,0
BA:1183,0
BA:1190,0
BA:1190,0
BA:1195,0
BA:1195,0
BA:1197,0
BA:1197,0
BA:1200,0
BA:1200,0
BA:1209,0
BA:1209,0
BA:1214,0
BA:1214,0
BA:1216,0
BA:1216,0
BA:1219,0
BA:1219,0
LF:138
LH:4
end_of_record
SF:/usr/include/c++/4.3/bits/stl_uninitialized.h
FN:97,_ZNSt20__uninitialized_copyILb1EE18uninitialized_copyIPiS2_EET0_T_S4_S3_
FN:113,_ZSt18uninitialized_copyIPiS0_ET0_T_S2_S1_
FN:261,_ZSt22__uninitialized_copy_aIPiS0_iET0_T_S2_S1_RSaIT1_E
FN:268,_ZSt22__uninitialized_move_aIPiS0_SaIiEET0_T_S3_S2_RT1_
DA:97,0
DA:98,0
DA:113,0
DA:122,0
DA:261,0
DA:262,0
DA:268,0
DA:272,0
LF:8
LH:0
end_of_record
SF:/usr/include/c++/4.3/bits/stl_vector.h
FN:97,_ZNSt12_Vector_baseIiSaIiEE19_M_get_Tp_allocatorEv
FN:395,_ZNSt6vectorIiSaIiEE3endEv
FN:79,_ZNSt12_Vector_baseIiSaIiEE12_Vector_implD1Ev
FN:386,_ZNKSt6vectorIiSaIiEE5beginEv
FN:404,_ZNKSt6vectorIiSaIiEE3endEv
FN:526,_ZNKSt6vectorIiSaIiEE5emptyEv
FN:484,_ZNKSt6vectorIiSaIiEE4sizeEv
FN:84,_ZNSt12_Vector_baseIiSaIiEE12_Vector_implC1Ev
FN:108,_ZNSt12_Vector_baseIiSaIiEEC2Ev
FN:213,_ZNSt6vectorIiSaIiEEC1Ev
FN:101,_ZNKSt12_Vector_baseIiSaIiEE19_M_get_Tp_allocatorEv
FN:489,_ZNKSt6vectorIiSaIiEE8max_sizeEv
FN:147,_ZNSt12_Vector_baseIiSaIiEE13_M_deallocateEPij
FN:135,_ZNSt12_Vector_baseIiSaIiEED2Ev
FN:299,_ZNSt6vectorIiSaIiEED1Ev
FN:1075,_ZNKSt6vectorIiSaIiEE12_M_check_lenEjPKc
FN:143,_ZNSt12_Vector_baseIiSaIiEE11_M_allocateEj
FN:686,_ZNSt6vectorIiSaIiEE9push_backERKi
DA:79,0
DA:84,0
DA:85,0
DA:86,0
DA:97,0
DA:98,0
DA:101,0
DA:102,0
DA:108,0
DA:109,0
DA:135,0
DA:136,0
DA:137,0
DA:143,0
DA:144,0
DA:147,0
DA:149,0
DA:150,0
DA:151,0
DA:213,0
DA:214,0
DA:299,0
DA:300,0
DA:301,0
DA:386,7
DA:387,7
DA:395,0
DA:396,0
DA:404,25
DA:405,25
DA:484,0
DA:485,0
DA:489,0
DA:490,0
DA:526,4
DA:527,4
DA:686,0
DA:688,0
DA:690,0
DA:691,0
DA:694,0
DA:695,0
DA:1075,0
DA:1077,0
DA:1078,0
DA:1080,0
DA:1081,0
BA:144,0
BA:144,0
BA:149,0
BA:149,0
BA:688,0
BA:688,0
BA:1077,0
BA:1077,0
BA:1081,0
BA:1081,0
BA:1081,0
BA:1081,0
LF:47
LH:6
end_of_record
SF:/usr/include/c++/4.3/bits/vector.tcc
FN:283,_ZNSt6vectorIiSaIiEE13_M_insert_auxEN9__gnu_cxx17__normal_iteratorIPiS1_EERKi
DA:283,0
DA:286,0
DA:288,0
DA:291,0
DA:293,0
DA:295,0
DA:299,0
DA:307,0
DA:308,0
DA:309,0
DA:316,0
DA:321,0
DA:323,0
DA:324,0
DA:330,0
DA:332,0
DA:333,0
DA:334,0
DA:336,0
DA:338,0
DA:341,0
DA:342,0
DA:343,0
DA:345,0
BA:286,0
BA:286,0
LF:24
LH:0
end_of_record
SF:/usr/include/c++/4.3/ext/atomicity.h
FN:67,_ZN9__gnu_cxxL25__exchange_and_add_singleEPii
FN:50,_ZN9__gnu_cxxL18__exchange_and_addEPVii
FN:80,_ZN9__gnu_cxxL27__exchange_and_add_dispatchEPii
DA:50,0
DA:51,0
DA:67,0
DA:69,0
DA:70,0
DA:71,0
DA:80,0
DA:83,0
DA:84,0
DA:86,0
BA:83,0
BA:83,0
LF:10
LH:0
end_of_record
SF:/usr/include/c++/4.3/ext/new_allocator.h
FN:69,_ZN9__gnu_cxx13new_allocatorIcEC2Ev
FN:76,_ZN9__gnu_cxx13new_allocatorIcED2Ev
FN:107,_ZN9__gnu_cxx13new_allocatorIiE9constructEPiRKi
FN:76,_ZN9__gnu_cxx13new_allocatorISt13_Rb_tree_nodeIiEED2Ev
FN:71,_ZN9__gnu_cxx13new_allocatorIcEC2ERKS1_
FN:118,_ZN9__gnu_cxx13new_allocatorIiE7destroyEPi
FN:76,_ZN9__gnu_cxx13new_allocatorIiED2Ev
FN:69,_ZN9__gnu_cxx13new_allocatorISt13_Rb_tree_nodeIiEEC2Ev
FN:69,_ZN9__gnu_cxx13new_allocatorIiEC2Ev
FN:101,_ZNK9__gnu_cxx13new_allocatorIiE8max_sizeEv
FN:101,_ZNK9__gnu_cxx13new_allocatorISt13_Rb_tree_nodeIiEE8max_sizeEv
FN:97,_ZN9__gnu_cxx13new_allocatorIiE10deallocateEPij
FN:97,_ZN9__gnu_cxx13new_allocatorISt13_Rb_tree_nodeIiEE10deallocateEPS2_j
FN:87,_ZN9__gnu_cxx13new_allocatorIiE8allocateEjPKv
FN:87,_ZN9__gnu_cxx13new_allocatorISt13_Rb_tree_nodeIiEE8allocateEjPKv
DA:69,0
DA:71,0
DA:76,0
DA:87,0
DA:89,0
DA:90,0
DA:92,0
DA:97,0
DA:98,0
DA:101,0
DA:102,0
DA:107,0
DA:108,0
DA:118,0
BA:89,0
BA:89,0
BA:89,0
BA:89,0
BA:108,0
BA:108,0
LF:14
LH:0
end_of_record
SF:/usr/include/c++/4.3/ext/type_traits.h
FN:154,_ZN9__gnu_cxx17__is_null_pointerIcEEbPT_
DA:154,0
DA:155,0
LF:2
LH:0
end_of_record
SF:/usr/include/c++/4.3/i486-linux-gnu/bits/gthr-default.h
FN:212,_ZL18__gthread_active_pv
DA:212,0
DA:216,0
LF:2
LH:0
end_of_record
SF:/usr/include/c++/4.3/iosfwd
FN:68,_ZNSt15basic_stringbufIcSt11char_traitsIcESaIcEED1Ev
DA:68,0
BA:68,0
BA:68,0
LF:1
LH:0
end_of_record
SF:/usr/include/c++/4.3/iostream
DA:77,1
LF:1
LH:1
end_of_record
SF:/usr/include/c++/4.3/istream
FN:585,_ZNSiC2Ev
FN:105,_ZNSiD2Ev
FN:804,_ZNSdC2Ev
FN:801,_ZNSdD2Ev
DA:105,0
DA:106,0
DA:585,0
DA:586,0
DA:587,0
DA:801,0
DA:804,0
DA:805,0
BA:106,0
BA:106,0
BA:106,0
BA:106,0
BA:801,0
BA:801,0
BA:801,0
BA:801,0
BA:801,0
BA:801,0
LF:8
LH:0
end_of_record
SF:/usr/include/c++/4.3/new
FN:105,_ZnwjPv
DA:105,0
LF:1
LH:0
end_of_record
SF:/usr/include/c++/4.3/ostream
FN:112,_ZNSolsEPFRSoS_E
FN:365,_ZNSoC2Ev
FN:95,_ZNSoD2Ev
FN:512,_ZStlsISt11char_traitsIcEERSt13basic_ostreamIcT_ES5_PKc
FN:566,_ZSt5flushIcSt11char_traitsIcEERSt13basic_ostreamIT_T0_ES6_
FN:545,_ZSt4endlIcSt11char_traitsIcEERSt13basic_ostreamIT_T0_ES6_
FN:213,_ZNSolsEd
DA:95,0
DA:112,0
DA:117,0
DA:213,0
DA:214,0
DA:365,0
DA:366,0
DA:512,0
DA:514,0
DA:515,0
DA:517,0
DA:519,0
DA:545,0
DA:546,0
DA:566,0
DA:567,0
BA:95,0
BA:95,0
BA:95,0
BA:95,0
BA:514,0
BA:514,0
LF:16
LH:0
end_of_record
SF:/usr/include/c++/4.3/sstream
FN:158,_ZNSt15basic_stringbufIcSt11char_traitsIcESaIcEE17_M_stringbuf_initESt13_Ios_Openmode
FN:96,_ZNSt15basic_stringbufIcSt11char_traitsIcESaIcEEC1ESt13_Ios_Openmode
FN:110,_ZNSt15basic_stringbufIcSt11char_traitsIcESaIcEEC1ERKSsSt13_Ios_Openmode
FN:526,_ZNSt18basic_stringstreamIcSt11char_traitsIcESaIcEEC1ERKSsSt13_Ios_Openmode
FN:402,_ZNSt19basic_ostringstreamIcSt11char_traitsIcESaIcEEC1ESt13_Ios_Openmode
FN:431,_ZNSt19basic_ostringstreamIcSt11char_traitsIcESaIcEED1Ev
FN:536,_ZNSt18basic_stringstreamIcSt11char_traitsIcESaIcEED1Ev
FN:509,_ZNSt18basic_stringstreamIcSt11char_traitsIcESaIcEEC1ESt13_Ios_Openmode
FN:124,_ZNKSt15basic_stringbufIcSt11char_traitsIcESaIcEE3strEv
FN:450,_ZNKSt19basic_ostringstreamIcSt11char_traitsIcESaIcEE3strEv
FN:555,_ZNKSt18basic_stringstreamIcSt11char_traitsIcESaIcEE3strEv
DA:96,0
DA:97,0
DA:98,0
DA:110,0
DA:111,0
DA:112,0
DA:124,0
DA:126,0
DA:127,0
DA:130,0
DA:131,0
DA:133,0
DA:136,0
DA:137,0
DA:158,0
DA:160,0
DA:161,0
DA:162,0
DA:163,0
DA:164,0
DA:165,0
DA:402,0
DA:403,0
DA:404,0
DA:431,0
DA:432,0
DA:450,0
DA:451,0
DA:509,0
DA:510,0
DA:511,0
DA:526,0
DA:527,0
DA:528,0
DA:536,0
DA:537,0
DA:555,0
DA:556,0
BA:127,0
BA:127,0
BA:130,0
BA:130,0
BA:162,0
BA:162,0
BA:432,0
BA:432,0
BA:432,0
BA:432,0
BA:432,0
BA:432,0
BA:537,0
BA:537,0
BA:537,0
BA:537,0
BA:537,0
BA:537,0
LF:38
LH:0
end_of_record
SF:/usr/include/c++/4.3/streambuf
FN:513,_ZNKSt15basic_streambufIcSt11char_traitsIcEE4pptrEv
FN:469,_ZNKSt15basic_streambufIcSt11char_traitsIcEE5egptrEv
FN:510,_ZNKSt15basic_streambufIcSt11char_traitsIcEE5pbaseEv
FN:444,_ZNSt15basic_streambufIcSt11char_traitsIcEEC2Ev
FN:197,_ZNSt15basic_streambufIcSt11char_traitsIcEED2Ev
DA:197,0
DA:198,0
DA:444,0
DA:447,0
DA:448,0
DA:469,0
DA:510,0
DA:513,0
BA:198,0
BA:198,0
LF:8
LH:0
end_of_record
TN:
SF:/home/mornfall/dev/pkg/ept-work/wibble/amorph.h
FN:371,_ZNK6wibble6AmorphINS_5RangeIiEENS_14RangeInterfaceIiEELi0EE14morphInterfaceEv
FN:345,_ZN6wibble6AmorphINS_5RangeIiEENS_14RangeInterfaceIiEELi0EED2Ev
FN:332,_ZN6wibble6AmorphINS_5RangeIiEENS_14RangeInterfaceIiEELi0EE24setMorphInterfacePointerEPKNS_14MorphInterfaceIS4_EE
FN:288,_ZN6wibble6AmorphINS_5RangeIiEENS_14RangeInterfaceIiEELi0EEC2ERKS5_
FN:371,_ZNK6wibble6AmorphINS_8ConsumerIiEENS_17ConsumerInterfaceIiEELi0EE14morphInterfaceEv
FN:345,_ZN6wibble6AmorphINS_8ConsumerIiEENS_17ConsumerInterfaceIiEELi0EED2Ev
FN:332,_ZN6wibble6AmorphINS_8ConsumerIiEENS_17ConsumerInterfaceIiEELi0EE24setMorphInterfacePointerEPKNS_14MorphInterfaceIS4_EE
FN:288,_ZN6wibble6AmorphINS_8ConsumerIiEENS_17ConsumerInterfaceIiEELi0EEC2ERKS5_
FN:361,_ZNK6wibble6AmorphINS_5RangeIiEENS_14RangeInterfaceIiEELi0EE14implementationEv
FN:284,_ZN6wibble6AmorphINS_5RangeIiEENS_14RangeInterfaceIiEELi0EEC2ERKNS_14MorphInterfaceIS4_EE
FN:293,_ZN6wibble6AmorphINS_5RangeIiEENS_14RangeInterfaceIiEELi0EEC2Ev
FN:366,_ZN6wibble6AmorphINS_8ConsumerIiEENS_17ConsumerInterfaceIiEELi0EE14implementationEv
FN:366,_ZN6wibble6AmorphINS_5RangeIiEENS_14RangeInterfaceIiEELi0EE14implementationEv
FN:371,_ZNK6wibble6AmorphINS_8ConsumerIjEENS_17ConsumerInterfaceIjEELi0EE14morphInterfaceEv
FN:345,_ZN6wibble6AmorphINS_8ConsumerIjEENS_17ConsumerInterfaceIjEELi0EED2Ev
FN:332,_ZN6wibble6AmorphINS_8ConsumerIjEENS_17ConsumerInterfaceIjEELi0EE24setMorphInterfacePointerEPKNS_14MorphInterfaceIS4_EE
FN:366,_ZN6wibble6AmorphINS_8ConsumerIjEENS_17ConsumerInterfaceIjEELi0EE14implementationEv
FN:371,_ZNK6wibble6AmorphINS_5RangeIjEENS_14RangeInterfaceIjEELi0EE14morphInterfaceEv
FN:345,_ZN6wibble6AmorphINS_5RangeIjEENS_14RangeInterfaceIjEELi0EED2Ev
FN:332,_ZN6wibble6AmorphINS_5RangeIjEENS_14RangeInterfaceIjEELi0EE24setMorphInterfacePointerEPKNS_14MorphInterfaceIS4_EE
FN:288,_ZN6wibble6AmorphINS_5RangeIjEENS_14RangeInterfaceIjEELi0EEC2ERKS5_
FN:361,_ZNK6wibble6AmorphINS_5RangeIjEENS_14RangeInterfaceIjEELi0EE14implementationEv
FN:100,_ZN6wibble14MorphAllocatorC2Ev
FN:284,_ZN6wibble6AmorphINS_5RangeIjEENS_14RangeInterfaceIjEELi0EEC2ERKNS_14MorphInterfaceIS4_EE
FN:366,_ZN6wibble6AmorphINS_5RangeIjEENS_14RangeInterfaceIjEELi0EE14implementationEv
FN:303,_ZNK6wibble6AmorphINS_5RangeIiEENS_14RangeInterfaceIiEELi0EE3leqERKS2_
FN:314,_ZNK6wibble6AmorphINS_5RangeIiEENS_14RangeInterfaceIiEELi0EEleERKS2_
FN:91,_ZN6wibble14MorphInterfaceINS_14RangeInterfaceIiEEEC2Ev
FN:115,_ZN6wibble9MorphBaseINS_14GeneratedRangeIiPFvRiEPFbRKiEEENS_14RangeInterfaceIiEEEC2ERKS9_
FN:147,_ZN6wibble5MorphINS_10RangeMorphIiNS_14GeneratedRangeIiPFvRiEPFbRKiEEEEESA_NS_14RangeInterfaceIiEEEC2ERKSA_
FN:115,_ZN6wibble9MorphBaseINS_13IteratorRangeISt14_List_iteratorIiEEENS_14RangeInterfaceIiEEEC2ERKS4_
FN:147,_ZN6wibble5MorphINS_10RangeMorphIiNS_13IteratorRangeISt14_List_iteratorIiEEEEES5_NS_14RangeInterfaceIiEEEC2ERKS5_
FN:284,_ZN6wibble6AmorphINS_8ConsumerIiEENS_17ConsumerInterfaceIiEELi0EEC2ERKNS_14MorphInterfaceIS4_EE
FN:284,_ZN6wibble6AmorphINS_8ConsumerIjEENS_17ConsumerInterfaceIjEELi0EEC2ERKNS_14MorphInterfaceIS4_EE
FN:115,_ZN6wibble9MorphBaseINS_13IteratorRangeIN9__gnu_cxx17__normal_iteratorIPiSt6vectorIiSaIiEEEEEENS_14RangeInterfaceIiEEEC2ERKS9_
FN:147,_ZN6wibble5MorphINS_10RangeMorphIiNS_13IteratorRangeIN9__gnu_cxx17__normal_iteratorIPiSt6vectorIiSaIiEEEEEEEESA_NS_14RangeInterfaceIiEEEC2ERKSA_
FN:91,_ZN6wibble14MorphInterfaceINS_14RangeInterfaceIjEEEC2Ev
FN:303,_ZNK6wibble6AmorphINS_5RangeIjEENS_14RangeInterfaceIjEELi0EE3leqERKS2_
FN:314,_ZNK6wibble6AmorphINS_5RangeIjEENS_14RangeInterfaceIjEELi0EEleERKS2_
FN:91,_ZN6wibble14MorphInterfaceINS_17ConsumerInterfaceIiEEEC2Ev
FN:115,_ZN6wibble9MorphBaseINS_20ConsumerFromIteratorIiSt15insert_iteratorISt6vectorIiSaIiEEEEENS_17ConsumerInterfaceIiEEEC2ERKS7_
FN:147,_ZN6wibble5MorphINS_13ConsumerMorphIiNS_20ConsumerFromIteratorIiSt15insert_iteratorISt6vectorIiSaIiEEEEEEES8_NS_17ConsumerInterfaceIiEEEC2ERKS8_
FN:91,_ZN6wibble14MorphInterfaceINS_17ConsumerInterfaceIjEEEC2Ev
FN:115,_ZN6wibble9MorphBaseINS_20ConsumerFromIteratorIjSt15insert_iteratorISt6vectorIjSaIjEEEEENS_17ConsumerInterfaceIjEEEC2ERKS7_
FN:147,_ZN6wibble5MorphINS_13ConsumerMorphIjNS_20ConsumerFromIteratorIjSt15insert_iteratorISt6vectorIjSaIjEEEEEEES8_NS_17ConsumerInterfaceIjEEEC2ERKS8_
FN:115,_ZN6wibble9MorphBaseINS_13IteratorRangeIN9__gnu_cxx17__normal_iteratorIPjSt6vectorIjSaIjEEEEEENS_14RangeInterfaceIjEEEC2ERKS9_
FN:147,_ZN6wibble5MorphINS_10RangeMorphIjNS_13IteratorRangeIN9__gnu_cxx17__normal_iteratorIPjSt6vectorIjSaIjEEEEEEEESA_NS_14RangeInterfaceIjEEEC2ERKSA_
FN:91,_ZN6wibble14MorphInterfaceINS_14RangeInterfaceIiEEEC2ERKS3_
FN:173,_ZN6wibble5MorphINS_10RangeMorphIiNS_11CastedRangeIijEEEES3_NS_14RangeInterfaceIiEEE7destroyEj
FN:91,_ZN6wibble14MorphInterfaceINS_14RangeInterfaceIjEEEC2ERKS3_
FN:114,_ZN6wibble9MorphBaseINS_13IteratorRangeIN9__gnu_cxx17__normal_iteratorIPjSt6vectorIjSaIjEEEEEENS_14RangeInterfaceIjEEEC2ERKSC_
FN:144,_ZN6wibble5MorphINS_10RangeMorphIjNS_13IteratorRangeIN9__gnu_cxx17__normal_iteratorIPjSt6vectorIjSaIjEEEEEEEESA_NS_14RangeInterfaceIjEEEC2ERKSE_
FN:173,_ZN6wibble5MorphINS_10RangeMorphIjNS_13IteratorRangeIN9__gnu_cxx17__normal_iteratorIPjSt6vectorIjSaIjEEEEEEEESA_NS_14RangeInterfaceIjEEE7destroyEj
FN:91,_ZN6wibble14MorphInterfaceINS_17ConsumerInterfaceIjEEEC2ERKS3_
FN:114,_ZN6wibble9MorphBaseINS_20ConsumerFromIteratorIjSt15insert_iteratorISt6vectorIjSaIjEEEEENS_17ConsumerInterfaceIjEEEC2ERKSA_
FN:144,_ZN6wibble5MorphINS_13ConsumerMorphIjNS_20ConsumerFromIteratorIjSt15insert_iteratorISt6vectorIjSaIjEEEEEEES8_NS_17ConsumerInterfaceIjEEEC2ERKSC_
FN:173,_ZN6wibble5MorphINS_13ConsumerMorphIjNS_20ConsumerFromIteratorIjSt15insert_iteratorISt6vectorIjSaIjEEEEEEES8_NS_17ConsumerInterfaceIjEEE7destroyEj
FN:91,_ZN6wibble14MorphInterfaceINS_17ConsumerInterfaceIiEEEC2ERKS3_
FN:114,_ZN6wibble9MorphBaseINS_20ConsumerFromIteratorIiSt15insert_iteratorISt6vectorIiSaIiEEEEENS_17ConsumerInterfaceIiEEEC2ERKSA_
FN:144,_ZN6wibble5MorphINS_13ConsumerMorphIiNS_20ConsumerFromIteratorIiSt15insert_iteratorISt6vectorIiSaIiEEEEEEES8_NS_17ConsumerInterfaceIiEEEC2ERKSC_
FN:173,_ZN6wibble5MorphINS_13ConsumerMorphIiNS_20ConsumerFromIteratorIiSt15insert_iteratorISt6vectorIiSaIiEEEEEEES8_NS_17ConsumerInterfaceIiEEE7destroyEj
FN:173,_ZN6wibble5MorphINS_10RangeMorphIjNS_11CastedRangeIjiEEEES3_NS_14RangeInterfaceIjEEE7destroyEj
FN:114,_ZN6wibble9MorphBaseINS_13IteratorRangeIN9__gnu_cxx17__normal_iteratorIPiSt6vectorIiSaIiEEEEEENS_14RangeInterfaceIiEEEC2ERKSC_
FN:144,_ZN6wibble5MorphINS_10RangeMorphIiNS_13IteratorRangeIN9__gnu_cxx17__normal_iteratorIPiSt6vectorIiSaIiEEEEEEEESA_NS_14RangeInterfaceIiEEEC2ERKSE_
FN:173,_ZN6wibble5MorphINS_10RangeMorphIiNS_13IteratorRangeIN9__gnu_cxx17__normal_iteratorIPiSt6vectorIiSaIiEEEEEEEESA_NS_14RangeInterfaceIiEEE7destroyEj
FN:114,_ZN6wibble9MorphBaseINS_13IteratorRangeISt14_List_iteratorIiEEENS_14RangeInterfaceIiEEEC2ERKS7_
FN:144,_ZN6wibble5MorphINS_10RangeMorphIiNS_13IteratorRangeISt14_List_iteratorIiEEEEES5_NS_14RangeInterfaceIiEEEC2ERKS9_
FN:173,_ZN6wibble5MorphINS_10RangeMorphIiNS_13IteratorRangeISt14_List_iteratorIiEEEEES5_NS_14RangeInterfaceIiEEE7destroyEj
FN:114,_ZN6wibble9MorphBaseINS_14GeneratedRangeIiPFvRiEPFbRKiEEENS_14RangeInterfaceIiEEEC2ERKSC_
FN:144,_ZN6wibble5MorphINS_10RangeMorphIiNS_14GeneratedRangeIiPFvRiEPFbRKiEEEEESA_NS_14RangeInterfaceIiEEEC2ERKSE_
FN:173,_ZN6wibble5MorphINS_10RangeMorphIiNS_14GeneratedRangeIiPFvRiEPFbRKiEEEEESA_NS_14RangeInterfaceIiEEE7destroyEj
FN:173,_ZN6wibble5MorphINS_10RangeMorphIiNS_16TransformedRangeISt9binder1stISt4plusIiEEEEEES7_NS_14RangeInterfaceIiEEE7destroyEj
FN:173,_ZN6wibble5MorphINS_10RangeMorphIiNS_13FilteredRangeINS_5RangeIiEESt9binder1stISt8equal_toIiEEEEEES9_NS_14RangeInterfaceIiEEE7destroyEj
FN:92,_ZN6wibble14MorphInterfaceINS_14RangeInterfaceIjEEE11virtualBaseEv
FN:92,_ZN6wibble14MorphInterfaceINS_17ConsumerInterfaceIjEEE11virtualBaseEv
FN:92,_ZN6wibble14MorphInterfaceINS_17ConsumerInterfaceIiEEE11virtualBaseEv
FN:92,_ZN6wibble14MorphInterfaceINS_14RangeInterfaceIiEEE11virtualBaseEv
FN:181,_ZNK6wibble5MorphINS_10RangeMorphIiNS_11CastedRangeIijEEEES3_NS_14RangeInterfaceIiEEE7wrappedEv
FN:185,_ZN6wibble5MorphINS_10RangeMorphIiNS_11CastedRangeIijEEEES3_NS_14RangeInterfaceIiEEE7wrappedEv
FN:124,_ZN6wibble9MorphBaseINS_11CastedRangeIijEENS_14RangeInterfaceIiEEE11virtualBaseIS2_EENS_8EnableIfINS_4TNotINS_13IsPolymorphicIT_EEEEPNS_11VirtualBaseEE1TEv
FN:128,_ZN6wibble9MorphBaseINS_11CastedRangeIijEENS_14RangeInterfaceIiEEE11virtualBaseEv
FN:149,_ZNK6wibble5MorphINS_10RangeMorphIiNS_11CastedRangeIijEEEES3_NS_14RangeInterfaceIiEEE4selfEv
FN:181,_ZNK6wibble5MorphINS_10RangeMorphIjNS_13IteratorRangeIN9__gnu_cxx17__normal_iteratorIPjSt6vectorIjSaIjEEEEEEEESA_NS_14RangeInterfaceIjEEE7wrappedEv
FN:185,_ZN6wibble5MorphINS_10RangeMorphIjNS_13IteratorRangeIN9__gnu_cxx17__normal_iteratorIPjSt6vectorIjSaIjEEEEEEEESA_NS_14RangeInterfaceIjEEE7wrappedEv
FN:124,_ZN6wibble9MorphBaseINS_13IteratorRangeIN9__gnu_cxx17__normal_iteratorIPjSt6vectorIjSaIjEEEEEENS_14RangeInterfaceIjEEE11virtualBaseIS9_EENS_8EnableIfINS_4TNotINS_13IsPolymorphicIT_EEEEPNS_11VirtualBaseEE1TEv
FN:128,_ZN6wibble9MorphBaseINS_13IteratorRangeIN9__gnu_cxx17__normal_iteratorIPjSt6vectorIjSaIjEEEEEENS_14RangeInterfaceIjEEE11virtualBaseEv
FN:149,_ZNK6wibble5MorphINS_10RangeMorphIjNS_13IteratorRangeIN9__gnu_cxx17__normal_iteratorIPjSt6vectorIjSaIjEEEEEEEESA_NS_14RangeInterfaceIjEEE4selfEv
FN:185,_ZN6wibble5MorphINS_13ConsumerMorphIjNS_20ConsumerFromIteratorIjSt15insert_iteratorISt6vectorIjSaIjEEEEEEES8_NS_17ConsumerInterfaceIjEEE7wrappedEv
FN:124,_ZN6wibble9MorphBaseINS_20ConsumerFromIteratorIjSt15insert_iteratorISt6vectorIjSaIjEEEEENS_17ConsumerInterfaceIjEEE11virtualBaseIS7_EENS_8EnableIfINS_4TNotINS_13IsPolymorphicIT_EEEEPNS_11VirtualBaseEE1TEv
FN:128,_ZN6wibble9MorphBaseINS_20ConsumerFromIteratorIjSt15insert_iteratorISt6vectorIjSaIjEEEEENS_17ConsumerInterfaceIjEEE11virtualBaseEv
FN:149,_ZNK6wibble5MorphINS_13ConsumerMorphIjNS_20ConsumerFromIteratorIjSt15insert_iteratorISt6vectorIjSaIjEEEEEEES8_NS_17ConsumerInterfaceIjEEE4selfEv
FN:181,_ZNK6wibble5MorphINS_13ConsumerMorphIjNS_20ConsumerFromIteratorIjSt15insert_iteratorISt6vectorIjSaIjEEEEEEES8_NS_17ConsumerInterfaceIjEEE7wrappedEv
FN:185,_ZN6wibble5MorphINS_13ConsumerMorphIiNS_20ConsumerFromIteratorIiSt15insert_iteratorISt6vectorIiSaIiEEEEEEES8_NS_17ConsumerInterfaceIiEEE7wrappedEv
FN:124,_ZN6wibble9MorphBaseINS_20ConsumerFromIteratorIiSt15insert_iteratorISt6vectorIiSaIiEEEEENS_17ConsumerInterfaceIiEEE11virtualBaseIS7_EENS_8EnableIfINS_4TNotINS_13IsPolymorphicIT_EEEEPNS_11VirtualBaseEE1TEv
FN:128,_ZN6wibble9MorphBaseINS_20ConsumerFromIteratorIiSt15insert_iteratorISt6vectorIiSaIiEEEEENS_17ConsumerInterfaceIiEEE11virtualBaseEv
FN:149,_ZNK6wibble5MorphINS_13ConsumerMorphIiNS_20ConsumerFromIteratorIiSt15insert_iteratorISt6vectorIiSaIiEEEEEEES8_NS_17ConsumerInterfaceIiEEE4selfEv
FN:181,_ZNK6wibble5MorphINS_13ConsumerMorphIiNS_20ConsumerFromIteratorIiSt15insert_iteratorISt6vectorIiSaIiEEEEEEES8_NS_17ConsumerInterfaceIiEEE7wrappedEv
FN:181,_ZNK6wibble5MorphINS_10RangeMorphIjNS_11CastedRangeIjiEEEES3_NS_14RangeInterfaceIjEEE7wrappedEv
FN:185,_ZN6wibble5MorphINS_10RangeMorphIjNS_11CastedRangeIjiEEEES3_NS_14RangeInterfaceIjEEE7wrappedEv
FN:124,_ZN6wibble9MorphBaseINS_11CastedRangeIjiEENS_14RangeInterfaceIjEEE11virtualBaseIS2_EENS_8EnableIfINS_4TNotINS_13IsPolymorphicIT_EEEEPNS_11VirtualBaseEE1TEv
FN:128,_ZN6wibble9MorphBaseINS_11CastedRangeIjiEENS_14RangeInterfaceIjEEE11virtualBaseEv
FN:149,_ZNK6wibble5MorphINS_10RangeMorphIjNS_11CastedRangeIjiEEEES3_NS_14RangeInterfaceIjEEE4selfEv
FN:181,_ZNK6wibble5MorphINS_10RangeMorphIiNS_13IteratorRangeIN9__gnu_cxx17__normal_iteratorIPiSt6vectorIiSaIiEEEEEEEESA_NS_14RangeInterfaceIiEEE7wrappedEv
FN:185,_ZN6wibble5MorphINS_10RangeMorphIiNS_13IteratorRangeIN9__gnu_cxx17__normal_iteratorIPiSt6vectorIiSaIiEEEEEEEESA_NS_14RangeInterfaceIiEEE7wrappedEv
FN:124,_ZN6wibble9MorphBaseINS_13IteratorRangeIN9__gnu_cxx17__normal_iteratorIPiSt6vectorIiSaIiEEEEEENS_14RangeInterfaceIiEEE11virtualBaseIS9_EENS_8EnableIfINS_4TNotINS_13IsPolymorphicIT_EEEEPNS_11VirtualBaseEE1TEv
FN:128,_ZN6wibble9MorphBaseINS_13IteratorRangeIN9__gnu_cxx17__normal_iteratorIPiSt6vectorIiSaIiEEEEEENS_14RangeInterfaceIiEEE11virtualBaseEv
FN:149,_ZNK6wibble5MorphINS_10RangeMorphIiNS_13IteratorRangeIN9__gnu_cxx17__normal_iteratorIPiSt6vectorIiSaIiEEEEEEEESA_NS_14RangeInterfaceIiEEE4selfEv
FN:181,_ZNK6wibble5MorphINS_10RangeMorphIiNS_13IteratorRangeISt14_List_iteratorIiEEEEES5_NS_14RangeInterfaceIiEEE7wrappedEv
FN:185,_ZN6wibble5MorphINS_10RangeMorphIiNS_13IteratorRangeISt14_List_iteratorIiEEEEES5_NS_14RangeInterfaceIiEEE7wrappedEv
FN:124,_ZN6wibble9MorphBaseINS_13IteratorRangeISt14_List_iteratorIiEEENS_14RangeInterfaceIiEEE11virtualBaseIS4_EENS_8EnableIfINS_4TNotINS_13IsPolymorphicIT_EEEEPNS_11VirtualBaseEE1TEv
FN:128,_ZN6wibble9MorphBaseINS_13IteratorRangeISt14_List_iteratorIiEEENS_14RangeInterfaceIiEEE11virtualBaseEv
FN:149,_ZNK6wibble5MorphINS_10RangeMorphIiNS_13IteratorRangeISt14_List_iteratorIiEEEEES5_NS_14RangeInterfaceIiEEE4selfEv
FN:181,_ZNK6wibble5MorphINS_10RangeMorphIiNS_14GeneratedRangeIiPFvRiEPFbRKiEEEEESA_NS_14RangeInterfaceIiEEE7wrappedEv
FN:185,_ZN6wibble5MorphINS_10RangeMorphIiNS_14GeneratedRangeIiPFvRiEPFbRKiEEEEESA_NS_14RangeInterfaceIiEEE7wrappedEv
FN:124,_ZN6wibble9MorphBaseINS_14GeneratedRangeIiPFvRiEPFbRKiEEENS_14RangeInterfaceIiEEE11virtualBaseIS9_EENS_8EnableIfINS_4TNotINS_13IsPolymorphicIT_EEEEPNS_11VirtualBaseEE1TEv
FN:128,_ZN6wibble9MorphBaseINS_14GeneratedRangeIiPFvRiEPFbRKiEEENS_14RangeInterfaceIiEEE11virtualBaseEv
FN:149,_ZNK6wibble5MorphINS_10RangeMorphIiNS_14GeneratedRangeIiPFvRiEPFbRKiEEEEESA_NS_14RangeInterfaceIiEEE4selfEv
FN:181,_ZNK6wibble5MorphINS_10RangeMorphIiNS_16TransformedRangeISt9binder1stISt4plusIiEEEEEES7_NS_14RangeInterfaceIiEEE7wrappedEv
FN:185,_ZN6wibble5MorphINS_10RangeMorphIiNS_16TransformedRangeISt9binder1stISt4plusIiEEEEEES7_NS_14RangeInterfaceIiEEE7wrappedEv
FN:124,_ZN6wibble9MorphBaseINS_16TransformedRangeISt9binder1stISt4plusIiEEEENS_14RangeInterfaceIiEEE11virtualBaseIS6_EENS_8EnableIfINS_4TNotINS_13IsPolymorphicIT_EEEEPNS_11VirtualBaseEE1TEv
FN:128,_ZN6wibble9MorphBaseINS_16TransformedRangeISt9binder1stISt4plusIiEEEENS_14RangeInterfaceIiEEE11virtualBaseEv
FN:149,_ZNK6wibble5MorphINS_10RangeMorphIiNS_16TransformedRangeISt9binder1stISt4plusIiEEEEEES7_NS_14RangeInterfaceIiEEE4selfEv
FN:181,_ZNK6wibble5MorphINS_10RangeMorphIiNS_13FilteredRangeINS_5RangeIiEESt9binder1stISt8equal_toIiEEEEEES9_NS_14RangeInterfaceIiEEE7wrappedEv
FN:185,_ZN6wibble5MorphINS_10RangeMorphIiNS_13FilteredRangeINS_5RangeIiEESt9binder1stISt8equal_toIiEEEEEES9_NS_14RangeInterfaceIiEEE7wrappedEv
FN:124,_ZN6wibble9MorphBaseINS_13FilteredRangeINS_5RangeIiEESt9binder1stISt8equal_toIiEEEENS_14RangeInterfaceIiEEE11virtualBaseIS8_EENS_8EnableIfINS_4TNotINS_13IsPolymorphicIT_EEEEPNS_11VirtualBaseEE1TEv
FN:128,_ZN6wibble9MorphBaseINS_13FilteredRangeINS_5RangeIiEESt9binder1stISt8equal_toIiEEEENS_14RangeInterfaceIiEEE11virtualBaseEv
FN:149,_ZNK6wibble5MorphINS_10RangeMorphIiNS_13FilteredRangeINS_5RangeIiEESt9binder1stISt8equal_toIiEEEEEES9_NS_14RangeInterfaceIiEEE4selfEv
FN:156,_ZNK6wibble5MorphINS_10RangeMorphIiNS_14GeneratedRangeIiPFvRiEPFbRKiEEEEESA_NS_14RangeInterfaceIiEEE3leqEPKNS_14MorphInterfaceISD_EE
FN:156,_ZNK6wibble5MorphINS_10RangeMorphIiNS_13IteratorRangeIN9__gnu_cxx17__normal_iteratorIPiSt6vectorIiSaIiEEEEEEEESA_NS_14RangeInterfaceIiEEE3leqEPKNS_14MorphInterfaceISD_EE
FN:156,_ZNK6wibble5MorphINS_10RangeMorphIjNS_11CastedRangeIjiEEEES3_NS_14RangeInterfaceIjEEE3leqEPKNS_14MorphInterfaceIS6_EE
FN:316,_ZN6wibble6AmorphINS_5RangeIjEENS_14RangeInterfaceIjEELi0EE19setInterfacePointerEPKS4_
FN:340,_ZN6wibble6AmorphINS_5RangeIjEENS_14RangeInterfaceIjEELi0EEaSERKS5_
FN:316,_ZN6wibble6AmorphINS_5RangeIiEENS_14RangeInterfaceIiEELi0EE19setInterfacePointerEPKS4_
FN:340,_ZN6wibble6AmorphINS_5RangeIiEENS_14RangeInterfaceIiEELi0EEaSERKS5_
FN:156,_ZNK6wibble5MorphINS_13ConsumerMorphIjNS_20ConsumerFromIteratorIjSt15insert_iteratorISt6vectorIjSaIjEEEEEEES8_NS_17ConsumerInterfaceIjEEE3leqEPKNS_14MorphInterfaceISB_EE
FN:156,_ZNK6wibble5MorphINS_10RangeMorphIjNS_13IteratorRangeIN9__gnu_cxx17__normal_iteratorIPjSt6vectorIjSaIjEEEEEEEESA_NS_14RangeInterfaceIjEEE3leqEPKNS_14MorphInterfaceISD_EE
FN:156,_ZNK6wibble5MorphINS_10RangeMorphIiNS_11CastedRangeIijEEEES3_NS_14RangeInterfaceIiEEE3leqEPKNS_14MorphInterfaceIS6_EE
FN:156,_ZNK6wibble5MorphINS_10RangeMorphIiNS_16TransformedRangeISt9binder1stISt4plusIiEEEEEES7_NS_14RangeInterfaceIiEEE3leqEPKNS_14MorphInterfaceISA_EE
FN:156,_ZNK6wibble5MorphINS_13ConsumerMorphIiNS_20ConsumerFromIteratorIiSt15insert_iteratorISt6vectorIiSaIiEEEEEEES8_NS_17ConsumerInterfaceIiEEE3leqEPKNS_14MorphInterfaceISB_EE
FN:156,_ZNK6wibble5MorphINS_10RangeMorphIiNS_13IteratorRangeISt14_List_iteratorIiEEEEES5_NS_14RangeInterfaceIiEEE3leqEPKNS_14MorphInterfaceIS8_EE
FN:156,_ZNK6wibble5MorphINS_10RangeMorphIiNS_13FilteredRangeINS_5RangeIiEESt9binder1stISt8equal_toIiEEEEEES9_NS_14RangeInterfaceIiEEE3leqEPKNS_14MorphInterfaceISC_EE
FN:101,_ZN6wibble14MorphAllocatornwEjPvj
FN:168,_ZNK6wibble5MorphINS_10RangeMorphIiNS_14GeneratedRangeIiPFvRiEPFbRKiEEEEESA_NS_14RangeInterfaceIiEEE13constructCopyEPvj
FN:168,_ZNK6wibble5MorphINS_10RangeMorphIiNS_13IteratorRangeIN9__gnu_cxx17__normal_iteratorIPiSt6vectorIiSaIiEEEEEEEESA_NS_14RangeInterfaceIiEEE13constructCopyEPvj
FN:168,_ZNK6wibble5MorphINS_13ConsumerMorphIjNS_20ConsumerFromIteratorIjSt15insert_iteratorISt6vectorIjSaIjEEEEEEES8_NS_17ConsumerInterfaceIjEEE13constructCopyEPvj
FN:168,_ZNK6wibble5MorphINS_10RangeMorphIjNS_13IteratorRangeIN9__gnu_cxx17__normal_iteratorIPjSt6vectorIjSaIjEEEEEEEESA_NS_14RangeInterfaceIjEEE13constructCopyEPvj
FN:168,_ZNK6wibble5MorphINS_13ConsumerMorphIiNS_20ConsumerFromIteratorIiSt15insert_iteratorISt6vectorIiSaIiEEEEEEES8_NS_17ConsumerInterfaceIiEEE13constructCopyEPvj
FN:168,_ZNK6wibble5MorphINS_10RangeMorphIiNS_13IteratorRangeISt14_List_iteratorIiEEEEES5_NS_14RangeInterfaceIiEEE13constructCopyEPvj
FN:95,_ZN6wibble14MorphInterfaceINS_14RangeInterfaceIiEEED2Ev
FN:114,_ZN6wibble9MorphBaseINS_11CastedRangeIijEENS_14RangeInterfaceIiEEEC2ERKS5_
FN:144,_ZN6wibble5MorphINS_10RangeMorphIiNS_11CastedRangeIijEEEES3_NS_14RangeInterfaceIiEEEC2ERKS7_
FN:168,_ZNK6wibble5MorphINS_10RangeMorphIiNS_11CastedRangeIijEEEES3_NS_14RangeInterfaceIiEEE13constructCopyEPvj
FN:115,_ZN6wibble9MorphBaseINS_11CastedRangeIijEENS_14RangeInterfaceIiEEEC2ERKS2_
FN:147,_ZN6wibble5MorphINS_10RangeMorphIiNS_11CastedRangeIijEEEES3_NS_14RangeInterfaceIiEEEC2ERKS3_
FN:114,_ZN6wibble9MorphBaseINS_16TransformedRangeISt9binder1stISt4plusIiEEEENS_14RangeInterfaceIiEEEC2ERKS9_
FN:144,_ZN6wibble5MorphINS_10RangeMorphIiNS_16TransformedRangeISt9binder1stISt4plusIiEEEEEES7_NS_14RangeInterfaceIiEEEC2ERKSB_
FN:168,_ZNK6wibble5MorphINS_10RangeMorphIiNS_16TransformedRangeISt9binder1stISt4plusIiEEEEEES7_NS_14RangeInterfaceIiEEE13constructCopyEPvj
FN:115,_ZN6wibble9MorphBaseINS_16TransformedRangeISt9binder1stISt4plusIiEEEENS_14RangeInterfaceIiEEEC2ERKS6_
FN:147,_ZN6wibble5MorphINS_10RangeMorphIiNS_16TransformedRangeISt9binder1stISt4plusIiEEEEEES7_NS_14RangeInterfaceIiEEEC2ERKS7_
FN:114,_ZN6wibble9MorphBaseINS_13FilteredRangeINS_5RangeIiEESt9binder1stISt8equal_toIiEEEENS_14RangeInterfaceIiEEEC2ERKSB_
FN:144,_ZN6wibble5MorphINS_10RangeMorphIiNS_13FilteredRangeINS_5RangeIiEESt9binder1stISt8equal_toIiEEEEEES9_NS_14RangeInterfaceIiEEEC2ERKSD_
FN:168,_ZNK6wibble5MorphINS_10RangeMorphIiNS_13FilteredRangeINS_5RangeIiEESt9binder1stISt8equal_toIiEEEEEES9_NS_14RangeInterfaceIiEEE13constructCopyEPvj
FN:115,_ZN6wibble9MorphBaseINS_13FilteredRangeINS_5RangeIiEESt9binder1stISt8equal_toIiEEEENS_14RangeInterfaceIiEEEC2ERKS8_
FN:147,_ZN6wibble5MorphINS_10RangeMorphIiNS_13FilteredRangeINS_5RangeIiEESt9binder1stISt8equal_toIiEEEEEES9_NS_14RangeInterfaceIiEEEC2ERKS9_
FN:114,_ZN6wibble9MorphBaseINS_14GeneratedRangeIiPFvRiEPFbRKiEEENS_14RangeInterfaceIiEEED2Ev
FN:189,_ZN6wibble5MorphINS_10RangeMorphIiNS_14GeneratedRangeIiPFvRiEPFbRKiEEEEESA_NS_14RangeInterfaceIiEEED0Ev
FN:95,_ZN6wibble14MorphInterfaceINS_14RangeInterfaceIiEEED0Ev
FN:95,_ZN6wibble14MorphInterfaceINS_14RangeInterfaceIiEEED1Ev
FN:189,_ZN6wibble5MorphINS_10RangeMorphIiNS_14GeneratedRangeIiPFvRiEPFbRKiEEEEESA_NS_14RangeInterfaceIiEEED1Ev
FN:189,_ZN6wibble5MorphINS_10RangeMorphIiNS_14GeneratedRangeIiPFvRiEPFbRKiEEEEESA_NS_14RangeInterfaceIiEEED2Ev
FN:114,_ZN6wibble9MorphBaseINS_13IteratorRangeIN9__gnu_cxx17__normal_iteratorIPiSt6vectorIiSaIiEEEEEENS_14RangeInterfaceIiEEED2Ev
FN:189,_ZN6wibble5MorphINS_10RangeMorphIiNS_13IteratorRangeIN9__gnu_cxx17__normal_iteratorIPiSt6vectorIiSaIiEEEEEEEESA_NS_14RangeInterfaceIiEEED0Ev
FN:189,_ZN6wibble5MorphINS_10RangeMorphIiNS_13IteratorRangeIN9__gnu_cxx17__normal_iteratorIPiSt6vectorIiSaIiEEEEEEEESA_NS_14RangeInterfaceIiEEED1Ev
FN:189,_ZN6wibble5MorphINS_10RangeMorphIiNS_13IteratorRangeIN9__gnu_cxx17__normal_iteratorIPiSt6vectorIiSaIiEEEEEEEESA_NS_14RangeInterfaceIiEEED2Ev
FN:95,_ZN6wibble14MorphInterfaceINS_14RangeInterfaceIjEEED2Ev
FN:114,_ZN6wibble9MorphBaseINS_11CastedRangeIjiEENS_14RangeInterfaceIjEEEC2ERKS5_
FN:144,_ZN6wibble5MorphINS_10RangeMorphIjNS_11CastedRangeIjiEEEES3_NS_14RangeInterfaceIjEEEC2ERKS7_
FN:168,_ZNK6wibble5MorphINS_10RangeMorphIjNS_11CastedRangeIjiEEEES3_NS_14RangeInterfaceIjEEE13constructCopyEPvj
FN:115,_ZN6wibble9MorphBaseINS_11CastedRangeIjiEENS_14RangeInterfaceIjEEEC2ERKS2_
FN:147,_ZN6wibble5MorphINS_10RangeMorphIjNS_11CastedRangeIjiEEEES3_NS_14RangeInterfaceIjEEEC2ERKS3_
FN:114,_ZN6wibble9MorphBaseINS_11CastedRangeIjiEENS_14RangeInterfaceIjEEED2Ev
FN:189,_ZN6wibble5MorphINS_10RangeMorphIjNS_11CastedRangeIjiEEEES3_NS_14RangeInterfaceIjEEED0Ev
FN:95,_ZN6wibble14MorphInterfaceINS_14RangeInterfaceIjEEED0Ev
FN:95,_ZN6wibble14MorphInterfaceINS_14RangeInterfaceIjEEED1Ev
FN:189,_ZN6wibble5MorphINS_10RangeMorphIjNS_11CastedRangeIjiEEEES3_NS_14RangeInterfaceIjEEED1Ev
FN:189,_ZN6wibble5MorphINS_10RangeMorphIjNS_11CastedRangeIjiEEEES3_NS_14RangeInterfaceIjEEED2Ev
FN:95,_ZN6wibble14MorphInterfaceINS_17ConsumerInterfaceIjEEED2Ev
FN:114,_ZN6wibble9MorphBaseINS_20ConsumerFromIteratorIjSt15insert_iteratorISt6vectorIjSaIjEEEEENS_17ConsumerInterfaceIjEEED2Ev
FN:189,_ZN6wibble5MorphINS_13ConsumerMorphIjNS_20ConsumerFromIteratorIjSt15insert_iteratorISt6vectorIjSaIjEEEEEEES8_NS_17ConsumerInterfaceIjEEED0Ev
FN:95,_ZN6wibble14MorphInterfaceINS_17ConsumerInterfaceIjEEED0Ev
FN:95,_ZN6wibble14MorphInterfaceINS_17ConsumerInterfaceIjEEED1Ev
FN:189,_ZN6wibble5MorphINS_13ConsumerMorphIjNS_20ConsumerFromIteratorIjSt15insert_iteratorISt6vectorIjSaIjEEEEEEES8_NS_17ConsumerInterfaceIjEEED1Ev
FN:189,_ZN6wibble5MorphINS_13ConsumerMorphIjNS_20ConsumerFromIteratorIjSt15insert_iteratorISt6vectorIjSaIjEEEEEEES8_NS_17ConsumerInterfaceIjEEED2Ev
FN:114,_ZN6wibble9MorphBaseINS_13IteratorRangeIN9__gnu_cxx17__normal_iteratorIPjSt6vectorIjSaIjEEEEEENS_14RangeInterfaceIjEEED2Ev
FN:189,_ZN6wibble5MorphINS_10RangeMorphIjNS_13IteratorRangeIN9__gnu_cxx17__normal_iteratorIPjSt6vectorIjSaIjEEEEEEEESA_NS_14RangeInterfaceIjEEED0Ev
FN:189,_ZN6wibble5MorphINS_10RangeMorphIjNS_13IteratorRangeIN9__gnu_cxx17__normal_iteratorIPjSt6vectorIjSaIjEEEEEEEESA_NS_14RangeInterfaceIjEEED1Ev
FN:189,_ZN6wibble5MorphINS_10RangeMorphIjNS_13IteratorRangeIN9__gnu_cxx17__normal_iteratorIPjSt6vectorIjSaIjEEEEEEEESA_NS_14RangeInterfaceIjEEED2Ev
FN:114,_ZN6wibble9MorphBaseINS_11CastedRangeIijEENS_14RangeInterfaceIiEEED2Ev
FN:189,_ZN6wibble5MorphINS_10RangeMorphIiNS_11CastedRangeIijEEEES3_NS_14RangeInterfaceIiEEED0Ev
FN:189,_ZN6wibble5MorphINS_10RangeMorphIiNS_11CastedRangeIijEEEES3_NS_14RangeInterfaceIiEEED1Ev
FN:189,_ZN6wibble5MorphINS_10RangeMorphIiNS_11CastedRangeIijEEEES3_NS_14RangeInterfaceIiEEED2Ev
FN:114,_ZN6wibble9MorphBaseINS_16TransformedRangeISt9binder1stISt4plusIiEEEENS_14RangeInterfaceIiEEED2Ev
FN:189,_ZN6wibble5MorphINS_10RangeMorphIiNS_16TransformedRangeISt9binder1stISt4plusIiEEEEEES7_NS_14RangeInterfaceIiEEED0Ev
FN:189,_ZN6wibble5MorphINS_10RangeMorphIiNS_16TransformedRangeISt9binder1stISt4plusIiEEEEEES7_NS_14RangeInterfaceIiEEED1Ev
FN:189,_ZN6wibble5MorphINS_10RangeMorphIiNS_16TransformedRangeISt9binder1stISt4plusIiEEEEEES7_NS_14RangeInterfaceIiEEED2Ev
FN:95,_ZN6wibble14MorphInterfaceINS_17ConsumerInterfaceIiEEED2Ev
FN:114,_ZN6wibble9MorphBaseINS_20ConsumerFromIteratorIiSt15insert_iteratorISt6vectorIiSaIiEEEEENS_17ConsumerInterfaceIiEEED2Ev
FN:189,_ZN6wibble5MorphINS_13ConsumerMorphIiNS_20ConsumerFromIteratorIiSt15insert_iteratorISt6vectorIiSaIiEEEEEEES8_NS_17ConsumerInterfaceIiEEED0Ev
FN:95,_ZN6wibble14MorphInterfaceINS_17ConsumerInterfaceIiEEED0Ev
FN:95,_ZN6wibble14MorphInterfaceINS_17ConsumerInterfaceIiEEED1Ev
FN:189,_ZN6wibble5MorphINS_13ConsumerMorphIiNS_20ConsumerFromIteratorIiSt15insert_iteratorISt6vectorIiSaIiEEEEEEES8_NS_17ConsumerInterfaceIiEEED1Ev
FN:189,_ZN6wibble5MorphINS_13ConsumerMorphIiNS_20ConsumerFromIteratorIiSt15insert_iteratorISt6vectorIiSaIiEEEEEEES8_NS_17ConsumerInterfaceIiEEED2Ev
FN:114,_ZN6wibble9MorphBaseINS_13IteratorRangeISt14_List_iteratorIiEEENS_14RangeInterfaceIiEEED2Ev
FN:189,_ZN6wibble5MorphINS_10RangeMorphIiNS_13IteratorRangeISt14_List_iteratorIiEEEEES5_NS_14RangeInterfaceIiEEED0Ev
FN:189,_ZN6wibble5MorphINS_10RangeMorphIiNS_13IteratorRangeISt14_List_iteratorIiEEEEES5_NS_14RangeInterfaceIiEEED1Ev
FN:189,_ZN6wibble5MorphINS_10RangeMorphIiNS_13IteratorRangeISt14_List_iteratorIiEEEEES5_NS_14RangeInterfaceIiEEED2Ev
FN:114,_ZN6wibble9MorphBaseINS_13FilteredRangeINS_5RangeIiEESt9binder1stISt8equal_toIiEEEENS_14RangeInterfaceIiEEED2Ev
FN:189,_ZN6wibble5MorphINS_10RangeMorphIiNS_13FilteredRangeINS_5RangeIiEESt9binder1stISt8equal_toIiEEEEEES9_NS_14RangeInterfaceIiEEED0Ev
FN:189,_ZN6wibble5MorphINS_10RangeMorphIiNS_13FilteredRangeINS_5RangeIiEESt9binder1stISt8equal_toIiEEEEEES9_NS_14RangeInterfaceIiEEED1Ev
FN:189,_ZN6wibble5MorphINS_10RangeMorphIiNS_13FilteredRangeINS_5RangeIiEESt9binder1stISt8equal_toIiEEEEEES9_NS_14RangeInterfaceIiEEED2Ev
DA:91,28
DA:92,0
DA:95,25
DA:100,0
DA:101,0
DA:102,0
DA:103,0
DA:104,0
DA:106,0
DA:114,330
DA:115,15
DA:124,0
DA:125,0
DA:128,0
DA:129,0
DA:144,167
DA:147,15
DA:149,167
DA:156,39
DA:157,39
DA:158,39
DA:159,0
DA:160,0
DA:162,0
DA:164,39
DA:168,167
DA:170,167
DA:173,148
DA:174,148
DA:175,0
DA:177,148
DA:179,148
DA:181,112
DA:182,112
DA:185,63
DA:186,63
DA:189,163
DA:284,3
DA:285,3
DA:286,3
DA:288,19
DA:289,19
DA:291,19
DA:293,3
DA:303,4
DA:304,4
DA:305,4
DA:306,4
DA:308,0
DA:310,0
DA:314,4
DA:316,3
DA:317,3
DA:318,0
DA:319,0
DA:326,3
DA:332,22
DA:333,22
DA:334,0
DA:335,0
DA:337,22
DA:340,3
DA:341,3
DA:342,3
DA:345,22
DA:346,22
DA:347,22
DA:348,22
DA:361,8
DA:363,8
DA:366,9
DA:368,9
DA:371,79
DA:372,79
BA:95,0
BA:95,0
BA:95,0
BA:95,0
BA:95,0
BA:95,0
BA:95,1
BA:95,2
BA:95,0
BA:95,0
BA:95,0
BA:95,0
BA:95,1
BA:95,2
BA:95,0
BA:95,0
BA:95,0
BA:95,0
BA:95,0
BA:95,0
BA:95,0
BA:95,0
BA:95,0
BA:95,0
BA:102,0
BA:102,0
BA:102,0
BA:102,0
BA:114,1
BA:114,2
BA:114,0
BA:114,0
BA:114,0
BA:114,0
BA:114,1
BA:114,2
BA:114,0
BA:114,0
BA:114,0
BA:114,0
BA:114,1
BA:114,2
BA:114,0
BA:114,0
BA:114,0
BA:114,0
BA:114,1
BA:114,2
BA:114,0
BA:114,0
BA:114,0
BA:114,0
BA:114,1
BA:114,2
BA:114,0
BA:114,0
BA:114,0
BA:114,0
BA:114,1
BA:114,2
BA:114,0
BA:114,0
BA:114,0
BA:114,0
BA:114,1
BA:114,2
BA:114,0
BA:114,0
BA:114,0
BA:114,0
BA:114,0
BA:114,0
BA:114,0
BA:114,0
BA:114,0
BA:114,0
BA:114,0
BA:114,0
BA:114,0
BA:114,0
BA:114,0
BA:114,0
BA:114,1
BA:114,2
BA:114,0
BA:114,0
BA:114,0
BA:114,0
BA:157,1
BA:157,2
BA:157,1
BA:157,2
BA:157,1
BA:157,2
BA:157,0
BA:157,0
BA:157,1
BA:157,2
BA:157,1
BA:157,2
BA:157,1
BA:157,2
BA:157,0
BA:157,0
BA:157,0
BA:157,0
BA:157,1
BA:157,2
BA:158,1
BA:158,2
BA:158,1
BA:158,2
BA:158,1
BA:158,2
BA:158,0
BA:158,0
BA:158,1
BA:158,2
BA:158,1
BA:158,2
BA:158,1
BA:158,2
BA:158,0
BA:158,0
BA:158,0
BA:158,0
BA:158,1
BA:158,2
BA:159,0
BA:159,0
BA:159,0
BA:159,0
BA:159,0
BA:159,0
BA:159,0
BA:159,0
BA:159,0
BA:159,0
BA:159,0
BA:159,0
BA:159,0
BA:159,0
BA:159,0
BA:159,0
BA:159,0
BA:159,0
BA:159,0
BA:159,0
BA:174,1
BA:174,2
BA:174,1
BA:174,2
BA:174,1
BA:174,2
BA:174,0
BA:174,0
BA:174,1
BA:174,2
BA:174,1
BA:174,2
BA:174,0
BA:174,0
BA:174,1
BA:174,2
BA:174,1
BA:174,2
BA:174,1
BA:174,2
BA:177,2
BA:177,1
BA:177,2
BA:177,1
BA:177,2
BA:177,1
BA:177,0
BA:177,0
BA:177,2
BA:177,1
BA:177,2
BA:177,1
BA:177,0
BA:177,0
BA:177,2
BA:177,1
BA:177,2
BA:177,1
BA:177,2
BA:177,1
BA:189,0
BA:189,0
BA:189,0
BA:189,0
BA:189,1
BA:189,2
BA:189,0
BA:189,0
BA:189,0
BA:189,0
BA:189,1
BA:189,2
BA:189,0
BA:189,0
BA:189,0
BA:189,0
BA:189,1
BA:189,2
BA:189,0
BA:189,0
BA:189,0
BA:189,0
BA:189,1
BA:189,2
BA:189,0
BA:189,0
BA:189,0
BA:189,0
BA:189,1
BA:189,2
BA:189,0
BA:189,0
BA:189,0
BA:189,0
BA:189,1
BA:189,2
BA:189,0
BA:189,0
BA:189,0
BA:189,0
BA:189,1
BA:189,2
BA:189,0
BA:189,0
BA:189,0
BA:189,0
BA:189,0
BA:189,0
BA:189,0
BA:189,0
BA:189,0
BA:189,0
BA:189,0
BA:189,0
BA:189,0
BA:189,0
BA:189,0
BA:189,0
BA:189,1
BA:189,2
BA:304,0
BA:304,0
BA:304,2
BA:304,1
BA:305,0
BA:305,0
BA:305,2
BA:305,1
BA:317,1
BA:317,2
BA:317,0
BA:317,0
BA:326,2
BA:326,1
BA:326,0
BA:326,0
BA:333,0
BA:333,0
BA:333,0
BA:333,0
BA:333,1
BA:333,2
BA:333,1
BA:333,2
BA:346,0
BA:346,0
BA:346,0
BA:346,0
BA:346,2
BA:346,1
BA:346,2
BA:346,1
LF:74
LH:53
end_of_record
SF:/home/mornfall/dev/pkg/ept-work/wibble/consumer.h
FN:66,_ZN6wibble8ConsumerIiED1Ev
FN:66,_ZN6wibble8ConsumerIiEC1ERKS1_
FN:77,_ZN6wibble8ConsumerIiE7consumeERKi
FN:66,_ZN6wibble8ConsumerIjED1Ev
FN:77,_ZN6wibble8ConsumerIjE7consumeERKj
FN:48,_ZN6wibble13ConsumerMixinIiNS_20ConsumerFromIteratorIiSt15insert_iteratorISt6vectorIiSaIiEEEEEEC2Ev
FN:91,_ZN6wibble20ConsumerFromIteratorIiSt15insert_iteratorISt6vectorIiSaIiEEEEC1ES5_
FN:48,_ZN6wibble13ConsumerMixinIjNS_20ConsumerFromIteratorIjSt15insert_iteratorISt6vectorIjSaIjEEEEEEC2Ev
FN:91,_ZN6wibble20ConsumerFromIteratorIjSt15insert_iteratorISt6vectorIjSaIjEEEEC1ES5_
FN:48,_ZN6wibble13ConsumerMixinIiNS_8ConsumerIiEEEC2Ev
FN:48,_ZN6wibble13ConsumerMixinIjNS_8ConsumerIjEEEC2Ev
FN:74,_ZN6wibble8ConsumerIiEC1ERKNS_14MorphInterfaceINS_17ConsumerInterfaceIiEEEE
FN:81,_ZN6wibble8ConsumerIiEaSERKi
FN:74,_ZN6wibble8ConsumerIjEC1ERKNS_14MorphInterfaceINS_17ConsumerInterfaceIjEEEE
FN:21,_ZN6wibble17ConsumerInterfaceIiEC2Ev
FN:32,_ZN6wibble13ConsumerMorphIiNS_20ConsumerFromIteratorIiSt15insert_iteratorISt6vectorIiSaIiEEEEEEC1ERKS7_
FN:49,_ZN6wibble13ConsumerMixinIiNS_8ConsumerIiEEE4selfEv
FN:56,_ZN6wibble13ConsumerMixinIiNS_8ConsumerIiEEEdeEv
FN:54,_ZN6wibble13ConsumerMixinIiNS_8ConsumerIiEEEppEv
FN:21,_ZN6wibble17ConsumerInterfaceIjEC2Ev
FN:32,_ZN6wibble13ConsumerMorphIjNS_20ConsumerFromIteratorIjSt15insert_iteratorISt6vectorIjSaIjEEEEEEC1ERKS7_
FN:21,_ZN6wibble17ConsumerInterfaceIjEC2ERKS1_
FN:30,_ZN6wibble13ConsumerMorphIjNS_20ConsumerFromIteratorIjSt15insert_iteratorISt6vectorIjSaIjEEEEEEC1ERKS8_
FN:21,_ZN6wibble17ConsumerInterfaceIiEC2ERKS1_
FN:30,_ZN6wibble13ConsumerMorphIiNS_20ConsumerFromIteratorIiSt15insert_iteratorISt6vectorIiSaIiEEEEEEC1ERKS8_
FN:53,_ZNK6wibble13ConsumerMixinIjNS_20ConsumerFromIteratorIjSt15insert_iteratorISt6vectorIjSaIjEEEEEEleERKS7_
FN:53,_ZNK6wibble13ConsumerMixinIiNS_20ConsumerFromIteratorIiSt15insert_iteratorISt6vectorIiSaIiEEEEEEleERKS7_
FN:38,_ZN6wibble13ConsumerMorphIjNS_20ConsumerFromIteratorIjSt15insert_iteratorISt6vectorIjSaIjEEEEEE7consumeENS_5RangeIjEE
FN:38,_ZN6wibble13ConsumerMorphIiNS_20ConsumerFromIteratorIiSt15insert_iteratorISt6vectorIiSaIiEEEEEE7consumeENS_5RangeIiEE
FN:25,_ZN6wibble17ConsumerInterfaceIjED2Ev
FN:25,_ZN6wibble17ConsumerInterfaceIjED0Ev
FN:25,_ZN6wibble17ConsumerInterfaceIjED1Ev
FN:30,_ZN6wibble13ConsumerMorphIjNS_20ConsumerFromIteratorIjSt15insert_iteratorISt6vectorIjSaIjEEEEEED1Ev
FN:101,_ZN6wibble13consumerMorphINS_20ConsumerFromIteratorIjSt15insert_iteratorISt6vectorIjSaIjEEEEEEENS_8ConsumerINT_12ConsumedTypeEEES9_
FN:107,_ZN6wibble8consumerISt15insert_iteratorISt6vectorIjSaIjEEEEENS_8ConsumerINT_14container_type10value_typeEEES7_
FN:114,_ZN6wibble8consumerISt6vectorIjSaIjEEEENS_6IsTypeINS_8ConsumerINT_10value_typeEEENS6_8iteratorEE1TERS6_
FN:25,_ZN6wibble17ConsumerInterfaceIiED2Ev
FN:25,_ZN6wibble17ConsumerInterfaceIiED0Ev
FN:25,_ZN6wibble17ConsumerInterfaceIiED1Ev
FN:30,_ZN6wibble13ConsumerMorphIiNS_20ConsumerFromIteratorIiSt15insert_iteratorISt6vectorIiSaIiEEEEEED1Ev
FN:101,_ZN6wibble13consumerMorphINS_20ConsumerFromIteratorIiSt15insert_iteratorISt6vectorIiSaIiEEEEEEENS_8ConsumerINT_12ConsumedTypeEEES9_
FN:107,_ZN6wibble8consumerISt15insert_iteratorISt6vectorIiSaIiEEEEENS_8ConsumerINT_14container_type10value_typeEEES7_
FN:114,_ZN6wibble8consumerISt6vectorIiSaIiEEEENS_6IsTypeINS_8ConsumerINT_10value_typeEEENS6_8iteratorEE1TERS6_
FN:92,_ZN6wibble20ConsumerFromIteratorIiSt15insert_iteratorISt6vectorIiSaIiEEEE7consumeERKi
FN:34,_ZN6wibble13ConsumerMorphIiNS_20ConsumerFromIteratorIiSt15insert_iteratorISt6vectorIiSaIiEEEEEE7consumeERKi
FN:92,_ZN6wibble20ConsumerFromIteratorIjSt15insert_iteratorISt6vectorIjSaIjEEEE7consumeERKj
FN:34,_ZN6wibble13ConsumerMorphIjNS_20ConsumerFromIteratorIjSt15insert_iteratorISt6vectorIjSaIjEEEEEE7consumeERKj
DA:21,2
DA:25,2
DA:30,3
DA:32,1
DA:34,2
DA:35,2
DA:38,0
DA:39,0
DA:40,0
DA:41,0
DA:43,0
DA:48,2
DA:49,0
DA:53,0
DA:54,0
DA:56,0
DA:66,1
DA:74,1
DA:77,2
DA:78,2
DA:81,0
DA:82,0
DA:83,0
DA:91,1
DA:92,2
DA:93,2
DA:94,2
DA:95,2
DA:101,1
DA:102,1
DA:107,1
DA:109,1
DA:114,1
DA:115,1
BA:25,1
BA:25,2
BA:25,0
BA:25,0
BA:25,0
BA:25,0
BA:25,0
BA:25,0
BA:25,0
BA:25,0
BA:25,0
BA:25,0
BA:30,2
BA:30,1
BA:30,1
BA:30,2
BA:30,0
BA:30,0
BA:30,0
BA:30,0
BA:39,0
BA:39,0
BA:39,0
BA:39,0
LF:34
LH:22
end_of_record
SF:/home/mornfall/dev/pkg/ept-work/wibble/mixin.h
FN:13,_ZN6wibble5mixin10ComparableINS_5RangeIiEEEC2Ev
FN:13,_ZN6wibble5mixin10ComparableINS_13IteratorRangeISt14_List_iteratorIiEEEEC2Ev
FN:13,_ZN6wibble5mixin10ComparableINS_13RangeIteratorINS_5RangeIiEEEEEC2Ev
FN:15,_ZNK6wibble5mixin10ComparableINS_13RangeIteratorINS_5RangeIiEEEEE7cmpSelfEv
FN:13,_ZN6wibble5mixin10ComparableINS_13FilteredRangeINS_5RangeIiEESt9binder1stISt8equal_toIiEEEEEC2Ev
FN:13,_ZN6wibble5mixin10ComparableINS_16TransformedRangeISt9binder1stISt4plusIiEEEEEC2Ev
FN:13,_ZN6wibble5mixin10ComparableINS_13IteratorRangeIN9__gnu_cxx17__normal_iteratorIPiSt6vectorIiSaIiEEEEEEEC2Ev
FN:13,_ZN6wibble5mixin10ComparableINS_11CastedRangeIjiEEEC2Ev
FN:13,_ZN6wibble5mixin10ComparableINS_5RangeIjEEEC2Ev
FN:13,_ZN6wibble5mixin10ComparableINS_14GeneratedRangeIiPFvRiEPFbRKiEEEEC2Ev
FN:13,_ZN6wibble5mixin10ComparableINS_20ConsumerFromIteratorIiSt15insert_iteratorISt6vectorIiSaIiEEEEEEC2Ev
FN:13,_ZN6wibble5mixin10ComparableINS_5MorphINS_10RangeMorphIiNS_13FilteredRangeINS_5RangeIiEESt9binder1stISt8equal_toIiEEEEEESB_NS_14RangeInterfaceIiEEEEEC2Ev
FN:13,_ZN6wibble5mixin10ComparableINS_5MorphINS_10RangeMorphIiNS_16TransformedRangeISt9binder1stISt4plusIiEEEEEES9_NS_14RangeInterfaceIiEEEEEC2Ev
FN:13,_ZN6wibble5mixin10ComparableINS_20ConsumerFromIteratorIjSt15insert_iteratorISt6vectorIjSaIjEEEEEEC2Ev
FN:13,_ZN6wibble5mixin10ComparableINS_13IteratorRangeIN9__gnu_cxx17__normal_iteratorIPjSt6vectorIjSaIjEEEEEEEC2Ev
FN:13,_ZN6wibble5mixin10ComparableINS_11CastedRangeIijEEEC2Ev
FN:13,_ZN6wibble5mixin10ComparableINS_13RangeIteratorINS_5RangeIjEEEEEC2Ev
FN:15,_ZNK6wibble5mixin10ComparableINS_13RangeIteratorINS_5RangeIjEEEEE7cmpSelfEv
FN:13,_ZN6wibble5mixin10ComparableINS_5MorphINS_10RangeMorphIiNS_14GeneratedRangeIiPFvRiEPFbRKiEEEEESC_NS_14RangeInterfaceIiEEEEEC2Ev
FN:13,_ZN6wibble5mixin10ComparableINS_5MorphINS_10RangeMorphIiNS_13IteratorRangeISt14_List_iteratorIiEEEEES7_NS_14RangeInterfaceIiEEEEEC2Ev
FN:23,_ZNK6wibble5mixin10ComparableINS_13RangeIteratorINS_5RangeIiEEEEEeqERKS5_
FN:13,_ZN6wibble5mixin10ComparableINS_8ConsumerIiEEEC2Ev
FN:13,_ZN6wibble5mixin10ComparableINS_8ConsumerIjEEEC2Ev
FN:13,_ZN6wibble5mixin10ComparableINS_5MorphINS_10RangeMorphIiNS_13IteratorRangeIN9__gnu_cxx17__normal_iteratorIPiSt6vectorIiSaIiEEEEEEEESC_NS_14RangeInterfaceIiEEEEEC2Ev
FN:13,_ZN6wibble5mixin10ComparableINS_5MorphINS_10RangeMorphIjNS_11CastedRangeIjiEEEES5_NS_14RangeInterfaceIjEEEEEC2Ev
FN:19,_ZNK6wibble5mixin10ComparableINS_13RangeIteratorINS_5RangeIiEEEEEneERKS5_
FN:13,_ZN6wibble5mixin10ComparableINS_5MorphINS_13ConsumerMorphIiNS_20ConsumerFromIteratorIiSt15insert_iteratorISt6vectorIiSaIiEEEEEEESA_NS_17ConsumerInterfaceIiEEEEEC2Ev
FN:13,_ZN6wibble5mixin10ComparableINS_5MorphINS_13ConsumerMorphIjNS_20ConsumerFromIteratorIjSt15insert_iteratorISt6vectorIjSaIjEEEEEEESA_NS_17ConsumerInterfaceIjEEEEEC2Ev
FN:13,_ZN6wibble5mixin10ComparableINS_5MorphINS_10RangeMorphIjNS_13IteratorRangeIN9__gnu_cxx17__normal_iteratorIPjSt6vectorIjSaIjEEEEEEEESC_NS_14RangeInterfaceIjEEEEEC2Ev
FN:13,_ZN6wibble5mixin10ComparableINS_5MorphINS_10RangeMorphIiNS_11CastedRangeIijEEEES5_NS_14RangeInterfaceIiEEEEEC2Ev
FN:23,_ZNK6wibble5mixin10ComparableINS_13RangeIteratorINS_5RangeIjEEEEEeqERKS5_
DA:13,35
DA:15,2
DA:16,2
DA:19,0
DA:20,0
DA:23,1
DA:24,1
BA:24,0
BA:24,0
BA:24,0
BA:24,0
BA:24,2
BA:24,1
BA:24,2
BA:24,1
LF:7
LH:5
end_of_record
SF:/home/mornfall/dev/pkg/ept-work/wibble/operators.h
FN:29,_ZN6wibble9operatorsplINS_13RangeIteratorINS_5RangeIiEEEEEET_RKS6_NS6_15difference_typeE
DA:29,10
DA:30,10
DA:31,10
DA:32,0
LF:4
LH:3
end_of_record
SF:/home/mornfall/dev/pkg/ept-work/wibble/range.h
FN:87,_ZN6wibble10RangeMixinIiNS_5RangeIiEEED2Ev
FN:87,_ZN6wibble10RangeMixinIiNS_13FilteredRangeINS_5RangeIiEESt9binder1stISt8equal_toIiEEEEED2Ev
FN:63,_ZN6wibble10RangeMixinIiNS_5RangeIiEEEC2Ev
FN:87,_ZN6wibble10RangeMixinIiNS_16TransformedRangeISt9binder1stISt4plusIiEEEEED2Ev
FN:87,_ZN6wibble10RangeMixinIjNS_5RangeIjEEED2Ev
FN:87,_ZN6wibble10RangeMixinIiNS_14GeneratedRangeIiPFvRiEPFbRKiEEEED2Ev
FN:459,_ZN6wibble14GeneratedRangeIiPFvRiEPFbRKiEED1Ev
FN:63,_ZN6wibble10RangeMixinIiNS_13IteratorRangeISt14_List_iteratorIiEEEEC2Ev
FN:197,_ZN6wibble13IteratorRangeISt14_List_iteratorIiEEC1ES2_S2_
FN:87,_ZN6wibble10RangeMixinIiNS_13IteratorRangeISt14_List_iteratorIiEEEED2Ev
FN:193,_ZN6wibble13IteratorRangeISt14_List_iteratorIiEED1Ev
FN:156,_ZN6wibble5RangeIiED1Ev
FN:27,_ZN6wibble13RangeIteratorINS_5RangeIiEEED1Ev
FN:432,_ZN6wibble16TransformedRangeISt9binder1stISt4plusIiEEED1Ev
FN:156,_ZN6wibble5RangeIiEC1ERKS1_
FN:27,_ZN6wibble13RangeIteratorINS_5RangeIiEEEC1ERKS3_
FN:432,_ZN6wibble16TransformedRangeISt9binder1stISt4plusIiEEEC1ERKS5_
FN:66,_ZNK6wibble10RangeMixinIiNS_5RangeIiEEE4selfEv
FN:37,_ZN6wibble13RangeIteratorINS_5RangeIiEEEC1ERKS2_
FN:71,_ZNK6wibble10RangeMixinIiNS_5RangeIiEEE5beginEv
FN:164,_ZNK6wibble5RangeIiE4headEv
FN:49,_ZNK6wibble13RangeIteratorINS_5RangeIiEEEdeEv
FN:63,_ZN6wibble10RangeMixinIiNS_13FilteredRangeINS_5RangeIiEESt9binder1stISt8equal_toIiEEEEEC2Ev
FN:162,_ZN6wibble5RangeIiEC1Ev
FN:63,_ZN6wibble10RangeMixinIiNS_16TransformedRangeISt9binder1stISt4plusIiEEEEEC2Ev
FN:435,_ZN6wibble16TransformedRangeISt9binder1stISt4plusIiEEEC1ENS_5RangeIiEES4_
FN:166,_ZN6wibble5RangeIiE10setToEmptyEv
FN:165,_ZN6wibble5RangeIiE11removeFirstEv
FN:156,_ZN6wibble5RangeIjED1Ev
FN:27,_ZN6wibble13RangeIteratorINS_5RangeIjEEED1Ev
FN:63,_ZN6wibble10RangeMixinIiNS_13IteratorRangeIN9__gnu_cxx17__normal_iteratorIPiSt6vectorIiSaIiEEEEEEEC2Ev
FN:197,_ZN6wibble13IteratorRangeIN9__gnu_cxx17__normal_iteratorIPiSt6vectorIiSaIiEEEEEC1ES7_S7_
FN:87,_ZN6wibble10RangeMixinIiNS_13IteratorRangeIN9__gnu_cxx17__normal_iteratorIPiSt6vectorIiSaIiEEEEEEED2Ev
FN:193,_ZN6wibble13IteratorRangeIN9__gnu_cxx17__normal_iteratorIPiSt6vectorIiSaIiEEEEED1Ev
FN:63,_ZN6wibble10RangeMixinIjNS_11CastedRangeIjiEEEC2Ev
FN:87,_ZN6wibble10RangeMixinIjNS_11CastedRangeIjiEEED2Ev
FN:226,_ZN6wibble11CastedRangeIjiEC1ENS_5RangeIiEE
FN:224,_ZN6wibble11CastedRangeIjiED1Ev
FN:63,_ZN6wibble10RangeMixinIjNS_5RangeIjEEEC2Ev
FN:156,_ZN6wibble5RangeIjEC1ERKS1_
FN:164,_ZNK6wibble5RangeIjE4headEv
FN:66,_ZNK6wibble10RangeMixinIjNS_5RangeIjEEE4selfEv
FN:63,_ZN6wibble10RangeMixinIiNS_14GeneratedRangeIiPFvRiEPFbRKiEEEEC2Ev
FN:464,_ZN6wibble14GeneratedRangeIiPFvRiEPFbRKiEEC1ES5_RKS3_RKS7_
FN:495,_ZN6wibble14generatedRangeIiPFvRiEPFbRKiEEENS_14GeneratedRangeIT_T0_T1_EES9_SA_SB_
FN:63,_ZN6wibble10RangeMixinIjNS_13IteratorRangeIN9__gnu_cxx17__normal_iteratorIPjSt6vectorIjSaIjEEEEEEEC2Ev
FN:197,_ZN6wibble13IteratorRangeIN9__gnu_cxx17__normal_iteratorIPjSt6vectorIjSaIjEEEEEC1ES7_S7_
FN:87,_ZN6wibble10RangeMixinIjNS_13IteratorRangeIN9__gnu_cxx17__normal_iteratorIPjSt6vectorIjSaIjEEEEEEED2Ev
FN:193,_ZN6wibble13IteratorRangeIN9__gnu_cxx17__normal_iteratorIPjSt6vectorIjSaIjEEEEED1Ev
FN:63,_ZN6wibble10RangeMixinIiNS_11CastedRangeIijEEEC2Ev
FN:87,_ZN6wibble10RangeMixinIiNS_11CastedRangeIijEEED2Ev
FN:226,_ZN6wibble11CastedRangeIijEC1ENS_5RangeIjEE
FN:224,_ZN6wibble11CastedRangeIijED1Ev
FN:165,_ZN6wibble5RangeIjE11removeFirstEv
FN:166,_ZN6wibble5RangeIjE10setToEmptyEv
FN:37,_ZN6wibble13RangeIteratorINS_5RangeIjEEEC1ERKS2_
FN:71,_ZNK6wibble10RangeMixinIjNS_5RangeIjEEE5beginEv
FN:51,_ZN6wibble13RangeIteratorINS_5RangeIiEEEppEv
FN:53,_ZNK6wibble13RangeIteratorINS_5RangeIiEEEleERKS3_
FN:94,_ZN6wibble14RangeInterfaceIiEC2Ev
FN:105,_ZN6wibble10RangeMorphIiNS_14GeneratedRangeIiPFvRiEPFbRKiEEEEC1ERKS9_
FN:105,_ZN6wibble10RangeMorphIiNS_13IteratorRangeISt14_List_iteratorIiEEEEC1ERKS4_
FN:105,_ZN6wibble10RangeMorphIiNS_13IteratorRangeIN9__gnu_cxx17__normal_iteratorIPiSt6vectorIiSaIiEEEEEEEC1ERKS9_
FN:94,_ZN6wibble14RangeInterfaceIjEC2Ev
FN:224,_ZN6wibble11CastedRangeIjiEC1ERKS1_
FN:53,_ZNK6wibble13RangeIteratorINS_5RangeIjEEEleERKS3_
FN:105,_ZN6wibble10RangeMorphIjNS_13IteratorRangeIN9__gnu_cxx17__normal_iteratorIPjSt6vectorIjSaIjEEEEEEEC1ERKS9_
FN:224,_ZN6wibble11CastedRangeIijEC1ERKS1_
FN:94,_ZN6wibble14RangeInterfaceIiEC2ERKS1_
FN:94,_ZN6wibble14RangeInterfaceIjEC2ERKS1_
FN:103,_ZN6wibble10RangeMorphIjNS_13IteratorRangeIN9__gnu_cxx17__normal_iteratorIPjSt6vectorIjSaIjEEEEEEEC1ERKSA_
FN:103,_ZN6wibble10RangeMorphIiNS_13IteratorRangeIN9__gnu_cxx17__normal_iteratorIPiSt6vectorIiSaIiEEEEEEEC1ERKSA_
FN:103,_ZN6wibble10RangeMorphIiNS_13IteratorRangeISt14_List_iteratorIiEEEEC1ERKS5_
FN:103,_ZN6wibble10RangeMorphIiNS_14GeneratedRangeIiPFvRiEPFbRKiEEEEC1ERKSA_
FN:227,_ZNK6wibble11CastedRangeIijE4headEv
FN:108,_ZNK6wibble10RangeMorphIiNS_11CastedRangeIijEEE4headEv
FN:230,_ZN6wibble11CastedRangeIijE11removeFirstEv
FN:107,_ZN6wibble10RangeMorphIiNS_11CastedRangeIijEEE11removeFirstEv
FN:236,_ZN6wibble11CastedRangeIijE10setToEmptyEv
FN:106,_ZN6wibble10RangeMorphIiNS_11CastedRangeIijEEE10setToEmptyEv
FN:232,_ZNK6wibble11CastedRangeIijEleERKS1_
FN:207,_ZN6wibble13IteratorRangeIN9__gnu_cxx17__normal_iteratorIPjSt6vectorIjSaIjEEEEE10setToEmptyEv
FN:106,_ZN6wibble10RangeMorphIjNS_13IteratorRangeIN9__gnu_cxx17__normal_iteratorIPjSt6vectorIjSaIjEEEEEEE10setToEmptyEv
FN:227,_ZNK6wibble11CastedRangeIjiE4headEv
FN:108,_ZNK6wibble10RangeMorphIjNS_11CastedRangeIjiEEE4headEv
FN:230,_ZN6wibble11CastedRangeIjiE11removeFirstEv
FN:107,_ZN6wibble10RangeMorphIjNS_11CastedRangeIjiEEE11removeFirstEv
FN:236,_ZN6wibble11CastedRangeIjiE10setToEmptyEv
FN:106,_ZN6wibble10RangeMorphIjNS_11CastedRangeIjiEEE10setToEmptyEv
FN:232,_ZNK6wibble11CastedRangeIjiEleERKS1_
FN:200,_ZNK6wibble13IteratorRangeIN9__gnu_cxx17__normal_iteratorIPiSt6vectorIiSaIiEEEEE4headEv
FN:108,_ZNK6wibble10RangeMorphIiNS_13IteratorRangeIN9__gnu_cxx17__normal_iteratorIPiSt6vectorIiSaIiEEEEEEE4headEv
FN:201,_ZN6wibble13IteratorRangeIN9__gnu_cxx17__normal_iteratorIPiSt6vectorIiSaIiEEEEE11removeFirstEv
FN:107,_ZN6wibble10RangeMorphIiNS_13IteratorRangeIN9__gnu_cxx17__normal_iteratorIPiSt6vectorIiSaIiEEEEEEE11removeFirstEv
FN:207,_ZN6wibble13IteratorRangeIN9__gnu_cxx17__normal_iteratorIPiSt6vectorIiSaIiEEEEE10setToEmptyEv
FN:106,_ZN6wibble10RangeMorphIiNS_13IteratorRangeIN9__gnu_cxx17__normal_iteratorIPiSt6vectorIiSaIiEEEEEEE10setToEmptyEv
FN:203,_ZNK6wibble13IteratorRangeIN9__gnu_cxx17__normal_iteratorIPiSt6vectorIiSaIiEEEEEleERKS8_
FN:207,_ZN6wibble13IteratorRangeISt14_List_iteratorIiEE10setToEmptyEv
FN:106,_ZN6wibble10RangeMorphIiNS_13IteratorRangeISt14_List_iteratorIiEEEE10setToEmptyEv
FN:477,_ZNK6wibble14GeneratedRangeIiPFvRiEPFbRKiEE4headEv
FN:108,_ZNK6wibble10RangeMorphIiNS_14GeneratedRangeIiPFvRiEPFbRKiEEEE4headEv
FN:469,_ZN6wibble14GeneratedRangeIiPFvRiEPFbRKiEE11removeFirstEv
FN:107,_ZN6wibble10RangeMorphIiNS_14GeneratedRangeIiPFvRiEPFbRKiEEEE11removeFirstEv
FN:473,_ZN6wibble14GeneratedRangeIiPFvRiEPFbRKiEE10setToEmptyEv
FN:106,_ZN6wibble10RangeMorphIiNS_14GeneratedRangeIiPFvRiEPFbRKiEEEE10setToEmptyEv
FN:443,_ZN6wibble16TransformedRangeISt9binder1stISt4plusIiEEE11removeFirstEv
FN:107,_ZN6wibble10RangeMorphIiNS_16TransformedRangeISt9binder1stISt4plusIiEEEEE11removeFirstEv
FN:444,_ZN6wibble16TransformedRangeISt9binder1stISt4plusIiEEE10setToEmptyEv
FN:106,_ZN6wibble10RangeMorphIiNS_16TransformedRangeISt9binder1stISt4plusIiEEEEE10setToEmptyEv
FN:438,_ZNK6wibble16TransformedRangeISt9binder1stISt4plusIiEEEleERKS5_
FN:200,_ZNK6wibble13IteratorRangeIN9__gnu_cxx17__normal_iteratorIPjSt6vectorIjSaIjEEEEE4headEv
FN:108,_ZNK6wibble10RangeMorphIjNS_13IteratorRangeIN9__gnu_cxx17__normal_iteratorIPjSt6vectorIjSaIjEEEEEEE4headEv
FN:201,_ZN6wibble13IteratorRangeIN9__gnu_cxx17__normal_iteratorIPjSt6vectorIjSaIjEEEEE11removeFirstEv
FN:107,_ZN6wibble10RangeMorphIjNS_13IteratorRangeIN9__gnu_cxx17__normal_iteratorIPjSt6vectorIjSaIjEEEEEEE11removeFirstEv
FN:200,_ZNK6wibble13IteratorRangeISt14_List_iteratorIiEE4headEv
FN:108,_ZNK6wibble10RangeMorphIiNS_13IteratorRangeISt14_List_iteratorIiEEEE4headEv
FN:201,_ZN6wibble13IteratorRangeISt14_List_iteratorIiEE11removeFirstEv
FN:107,_ZN6wibble10RangeMorphIiNS_13IteratorRangeISt14_List_iteratorIiEEEE11removeFirstEv
FN:203,_ZNK6wibble13IteratorRangeISt14_List_iteratorIiEEleERKS3_
FN:479,_ZNK6wibble14GeneratedRangeIiPFvRiEPFbRKiEE5isEndEv
FN:481,_ZNK6wibble14GeneratedRangeIiPFvRiEPFbRKiEEleERKS8_
FN:203,_ZNK6wibble13IteratorRangeIN9__gnu_cxx17__normal_iteratorIPjSt6vectorIjSaIjEEEEEleERKS8_
FN:442,_ZNK6wibble16TransformedRangeISt9binder1stISt4plusIiEEE4headEv
FN:108,_ZNK6wibble10RangeMorphIiNS_16TransformedRangeISt9binder1stISt4plusIiEEEEE4headEv
FN:370,_ZNK6wibble13FilteredRangeINS_5RangeIiEESt9binder1stISt8equal_toIiEEE4predEv
FN:72,_ZNK6wibble10RangeMixinIiNS_5RangeIiEEE3endEv
FN:83,_ZNK6wibble10RangeMixinIiNS_5RangeIiEEE5emptyEv
FN:76,_ZNK6wibble10RangeMixinIjNS_5RangeIjEEE4tailEv
FN:72,_ZNK6wibble10RangeMixinIjNS_5RangeIjEEE3endEv
FN:83,_ZNK6wibble10RangeMixinIjNS_5RangeIjEEE5emptyEv
FN:76,_ZNK6wibble10RangeMixinIiNS_5RangeIiEEE4tailEv
FN:453,_ZN6wibble16transformedRangeISt9binder1stISt4plusIiEEEENS_16TransformedRangeIT_EENS_5RangeINS6_13argument_typeEEES6_
FN:79,_ZNK6wibble10RangeMixinIiNS_5RangeIiEEE6outputENS_8ConsumerIiEE
FN:338,_ZN6wibble13FilteredRangeINS_5RangeIiEESt9binder1stISt8equal_toIiEEEC1ERKS2_S6_
FN:379,_ZN6wibble13filteredRangeINS_5RangeIiEESt9binder1stISt8equal_toIiEEEENS_13FilteredRangeIT_T0_EES8_S9_
FN:335,_ZN6wibble13FilteredRangeINS_5RangeIiEESt9binder1stISt8equal_toIiEEEC1ERKS7_
FN:335,_ZN6wibble13FilteredRangeINS_5RangeIiEESt9binder1stISt8equal_toIiEEED1Ev
FN:156,_ZN6wibble5RangeIjEaSERKS1_
FN:156,_ZN6wibble5RangeIiEaSERKS1_
FN:27,_ZN6wibble13RangeIteratorINS_5RangeIiEEEaSERKS3_
FN:341,_ZNK6wibble13FilteredRangeINS_5RangeIiEESt9binder1stISt8equal_toIiEEE4findEv
FN:362,_ZNK6wibble13FilteredRangeINS_5RangeIiEESt9binder1stISt8equal_toIiEEEleERKS7_
FN:347,_ZN6wibble13FilteredRangeINS_5RangeIiEESt9binder1stISt8equal_toIiEEE11removeFirstEv
FN:107,_ZN6wibble10RangeMorphIiNS_13FilteredRangeINS_5RangeIiEESt9binder1stISt8equal_toIiEEEEE11removeFirstEv
FN:353,_ZNK6wibble13FilteredRangeINS_5RangeIiEESt9binder1stISt8equal_toIiEEE4headEv
FN:108,_ZNK6wibble10RangeMorphIiNS_13FilteredRangeINS_5RangeIiEESt9binder1stISt8equal_toIiEEEEE4headEv
FN:358,_ZN6wibble13FilteredRangeINS_5RangeIiEESt9binder1stISt8equal_toIiEEE10setToEmptyEv
FN:106,_ZN6wibble10RangeMorphIiNS_13FilteredRangeINS_5RangeIiEESt9binder1stISt8equal_toIiEEEEE10setToEmptyEv
FN:98,_ZN6wibble14RangeInterfaceIiED2Ev
FN:103,_ZN6wibble10RangeMorphIiNS_11CastedRangeIijEEEC1ERKS3_
FN:105,_ZN6wibble10RangeMorphIiNS_11CastedRangeIijEEEC1ERKS2_
FN:103,_ZN6wibble10RangeMorphIiNS_16TransformedRangeISt9binder1stISt4plusIiEEEEEC1ERKS7_
FN:105,_ZN6wibble10RangeMorphIiNS_16TransformedRangeISt9binder1stISt4plusIiEEEEEC1ERKS6_
FN:103,_ZN6wibble10RangeMorphIiNS_13FilteredRangeINS_5RangeIiEESt9binder1stISt8equal_toIiEEEEEC1ERKS9_
FN:105,_ZN6wibble10RangeMorphIiNS_13FilteredRangeINS_5RangeIiEESt9binder1stISt8equal_toIiEEEEEC1ERKS8_
FN:98,_ZN6wibble14RangeInterfaceIiED0Ev
FN:98,_ZN6wibble14RangeInterfaceIiED1Ev
FN:103,_ZN6wibble10RangeMorphIiNS_14GeneratedRangeIiPFvRiEPFbRKiEEEED1Ev
FN:160,_ZN6wibble5RangeIiEC1INS_14GeneratedRangeIiPFvRiEPFbRKiEEEEERKT_NS_6IsTypeIiNSC_19RangeImplementationEE1TE
FN:103,_ZN6wibble10RangeMorphIiNS_13IteratorRangeIN9__gnu_cxx17__normal_iteratorIPiSt6vectorIiSaIiEEEEEEED1Ev
FN:160,_ZN6wibble5RangeIiEC1INS_13IteratorRangeIN9__gnu_cxx17__normal_iteratorIPiSt6vectorIiSaIiEEEEEEEERKT_NS_6IsTypeIiNSC_19RangeImplementationEE1TE
FN:265,_ZN6wibble5rangeIN9__gnu_cxx17__normal_iteratorIPiSt6vectorIiSaIiEEEEEENS_5RangeINT_10value_typeEEES9_S9_
FN:270,_ZN6wibble5rangeISt6vectorIiSaIiEEEENS_5RangeINT_8iterator10value_typeEEERS5_
FN:98,_ZN6wibble14RangeInterfaceIjED2Ev
FN:103,_ZN6wibble10RangeMorphIjNS_11CastedRangeIjiEEEC1ERKS3_
FN:105,_ZN6wibble10RangeMorphIjNS_11CastedRangeIjiEEEC1ERKS2_
FN:98,_ZN6wibble14RangeInterfaceIjED0Ev
FN:98,_ZN6wibble14RangeInterfaceIjED1Ev
FN:103,_ZN6wibble10RangeMorphIjNS_11CastedRangeIjiEEED1Ev
FN:160,_ZN6wibble5RangeIjEC1INS_11CastedRangeIjiEEEERKT_NS_6IsTypeIiNS5_19RangeImplementationEE1TE
FN:247,_ZN6wibble11castedRangeIjNS_5RangeIiEEEENS1_IT_EET0_
FN:103,_ZN6wibble10RangeMorphIjNS_13IteratorRangeIN9__gnu_cxx17__normal_iteratorIPjSt6vectorIjSaIjEEEEEEED1Ev
FN:160,_ZN6wibble5RangeIjEC1INS_13IteratorRangeIN9__gnu_cxx17__normal_iteratorIPjSt6vectorIjSaIjEEEEEEEERKT_NS_6IsTypeIiNSC_19RangeImplementationEE1TE
FN:265,_ZN6wibble5rangeIN9__gnu_cxx17__normal_iteratorIPjSt6vectorIjSaIjEEEEEENS_5RangeINT_10value_typeEEES9_S9_
FN:270,_ZN6wibble5rangeISt6vectorIjSaIjEEEENS_5RangeINT_8iterator10value_typeEEERS5_
FN:103,_ZN6wibble10RangeMorphIiNS_11CastedRangeIijEEED1Ev
FN:160,_ZN6wibble5RangeIiEC1INS_11CastedRangeIijEEEERKT_NS_6IsTypeIiNS5_19RangeImplementationEE1TE
FN:247,_ZN6wibble11castedRangeIiNS_5RangeIjEEEENS1_IT_EET0_
FN:259,_ZN6wibble5RangeIjEcvNS0_IT_EEIiEEv
FN:103,_ZN6wibble10RangeMorphIiNS_16TransformedRangeISt9binder1stISt4plusIiEEEEED1Ev
FN:160,_ZN6wibble5RangeIiEC1INS_16TransformedRangeISt9binder1stISt4plusIiEEEEEERKT_NS_6IsTypeIiNS9_19RangeImplementationEE1TE
FN:103,_ZN6wibble10RangeMorphIiNS_13IteratorRangeISt14_List_iteratorIiEEEED1Ev
FN:160,_ZN6wibble5RangeIiEC1INS_13IteratorRangeISt14_List_iteratorIiEEEEERKT_NS_6IsTypeIiNS7_19RangeImplementationEE1TE
FN:265,_ZN6wibble5rangeISt14_List_iteratorIiEEENS_5RangeINT_10value_typeEEES4_S4_
FN:103,_ZN6wibble10RangeMorphIiNS_13FilteredRangeINS_5RangeIiEESt9binder1stISt8equal_toIiEEEEED1Ev
FN:160,_ZN6wibble5RangeIiEC1INS_13FilteredRangeIS1_St9binder1stISt8equal_toIiEEEEEERKT_NS_6IsTypeIiNS9_19RangeImplementationEE1TE
DA:27,6
DA:37,2
DA:49,0
DA:51,0
DA:53,2
DA:54,2
DA:63,16
DA:66,5
DA:71,1
DA:72,1
DA:76,3
DA:79,2
DA:80,2
DA:81,2
DA:83,1
DA:84,1
DA:87,196
DA:94,26
DA:98,23
DA:103,327
DA:105,14
DA:106,19
DA:107,42
DA:108,34
DA:156,43
DA:160,14
DA:161,14
DA:162,3
DA:164,5
DA:165,5
DA:166,2
DA:193,114
DA:197,8
DA:198,8
DA:200,19
DA:201,17
DA:203,25
DA:204,25
DA:207,12
DA:208,12
DA:209,12
DA:224,41
DA:226,2
DA:227,5
DA:228,5
DA:230,5
DA:232,4
DA:233,4
DA:236,2
DA:237,2
DA:238,2
DA:247,2
DA:248,2
DA:259,1
DA:260,1
DA:265,8
DA:266,8
DA:270,6
DA:271,6
DA:335,14
DA:338,1
DA:339,1
DA:341,6
DA:342,6
DA:343,3
DA:344,6
DA:345,6
DA:347,1
DA:348,1
DA:349,1
DA:350,1
DA:351,1
DA:353,1
DA:354,1
DA:355,1
DA:358,1
DA:359,1
DA:360,1
DA:362,2
DA:363,2
DA:364,2
DA:365,2
DA:370,3
DA:379,1
DA:380,1
DA:432,26
DA:435,2
DA:436,2
DA:438,4
DA:439,4
DA:442,4
DA:443,4
DA:444,2
DA:453,2
DA:454,2
DA:459,20
DA:464,1
DA:465,1
DA:467,1
DA:469,15
DA:470,15
DA:471,15
DA:473,2
DA:474,2
DA:475,2
DA:477,5
DA:479,18
DA:481,4
DA:482,4
DA:483,0
DA:484,4
DA:495,1
DA:497,1
BA:98,0
BA:98,0
BA:98,0
BA:98,0
BA:98,0
BA:98,0
BA:98,1
BA:98,2
BA:98,0
BA:98,0
BA:98,0
BA:98,0
BA:103,2
BA:103,1
BA:103,1
BA:103,2
BA:103,2
BA:103,1
BA:103,1
BA:103,2
BA:103,2
BA:103,1
BA:103,1
BA:103,2
BA:103,2
BA:103,1
BA:103,1
BA:103,2
BA:103,2
BA:103,1
BA:103,1
BA:103,2
BA:103,2
BA:103,1
BA:103,1
BA:103,2
BA:103,0
BA:103,0
BA:103,0
BA:103,0
BA:103,2
BA:103,1
BA:103,1
BA:103,2
BA:204,2
BA:204,2
BA:204,2
BA:204,1
BA:204,0
BA:204,0
BA:204,0
BA:204,0
BA:204,2
BA:204,1
BA:204,2
BA:204,1
BA:342,2
BA:342,2
BA:479,2
BA:479,2
BA:479,2
BA:479,2
BA:482,2
BA:482,2
BA:482,1
BA:482,2
BA:482,1
BA:482,2
LF:113
LH:110
end_of_record
SF:/home/mornfall/dev/pkg/ept-work/wibble/test.h
FN:13,_ZN8LocationC1ERKS_
FN:17,_ZN8LocationC1EPKciSs
FN:52,_ZlsIiER12AssertFailedS1_T_
FN:52,_ZlsIPKcER12AssertFailedS3_T_
FN:33,_ZN12AssertFailedC1E8LocationRSo
FN:41,_ZN12AssertFailedD1Ev
FN:13,_ZN8LocationD1Ev
FN:67,_Z12assert_eq_fnIiiEv8LocationT_T0_
FN:59,_Z9assert_fnIbEv8LocationT_
FN:52,_ZlsIjER12AssertFailedS1_T_
FN:67,_Z12assert_eq_fnIjjEv8LocationT_T0_
DA:13,0
DA:17,0
DA:18,0
DA:33,0
DA:34,0
DA:36,0
DA:38,0
DA:39,0
DA:41,0
DA:42,0
DA:43,0
DA:45,0
DA:46,0
DA:48,0
DA:52,0
DA:54,0
DA:55,0
DA:59,0
DA:61,0
DA:62,0
DA:64,0
DA:67,0
DA:69,0
DA:70,0
DA:71,0
DA:75,0
BA:42,0
BA:42,0
BA:61,0
BA:61,0
BA:69,0
BA:69,0
BA:69,0
BA:69,0
LF:26
LH:0
end_of_record
SF:/home/mornfall/dev/pkg/ept-work/wibble/range.test.h
FN:163,_ZN12_GLOBAL__N_19TestRange11removeFirstERi
FN:167,_ZN12_GLOBAL__N_19TestRange5isEndERKi
FN:171,_ZN12_GLOBAL__N_19TestRange15_generatedRangeEv
FN:116,_ZN12_GLOBAL__N_19TestRange18_transformedRange2Ev
FN:101,_ZN12_GLOBAL__N_19TestRange17_transformedRangeEv
FN:131,_ZN12_GLOBAL__N_19TestRange19tailOfIteratorRangeEv
FN:88,_ZN12_GLOBAL__N_19TestRange10assignmentEv
FN:146,_ZN12_GLOBAL__N_19TestRange12_castedRangeEv
FN:57,_ZN12_GLOBAL__N_19TestRange14_filteredRangeEv
FN:37,_ZN12_GLOBAL__N_19TestRange14copyToConsumerEv
FN:26,_ZN12_GLOBAL__N_19TestRange4copyEv
FN:15,_ZN12_GLOBAL__N_19TestRange13iteratorRangeEv
FN:73,_ZN12_GLOBAL__N_19TestRange4sortEv
DA:15,1
DA:16,1
DA:17,1
DA:18,1
DA:19,1
DA:20,1
DA:21,1
DA:22,2
DA:23,1
DA:24,1
DA:26,1
DA:27,1
DA:28,1
DA:29,1
DA:30,1
DA:31,1
DA:32,1
DA:33,2
DA:34,1
DA:35,1
DA:37,1
DA:39,1
DA:40,1
DA:41,1
DA:42,1
DA:43,1
DA:44,1
DA:45,1
DA:46,1
DA:47,1
DA:48,1
DA:49,4
DA:50,2
DA:51,4
DA:52,2
DA:54,1
DA:55,1
DA:57,1
DA:58,1
DA:59,1
DA:60,1
DA:61,1
DA:62,1
DA:63,1
DA:67,1
DA:68,1
DA:69,2
DA:70,1
DA:71,1
DA:73,1
DA:74,1
DA:75,1
DA:76,1
DA:77,1
DA:78,1
DA:79,1
DA:80,1
DA:81,1
DA:82,1
DA:83,2
DA:84,2
DA:85,2
DA:86,1
DA:88,1
DA:89,1
DA:90,1
DA:91,1
DA:92,1
DA:93,1
DA:94,1
DA:95,1
DA:96,1
DA:97,1
DA:98,2
DA:99,1
DA:101,1
DA:102,1
DA:103,1
DA:104,1
DA:105,1
DA:106,1
DA:108,1
DA:109,1
DA:110,1
DA:111,1
DA:112,1
DA:113,1
DA:114,1
DA:116,1
DA:117,1
DA:118,1
DA:119,1
DA:120,1
DA:121,1
DA:123,1
DA:124,1
DA:125,1
DA:126,1
DA:127,1
DA:128,1
DA:129,1
DA:131,1
DA:132,1
DA:133,1
DA:134,1
DA:135,1
DA:136,1
DA:137,1
DA:138,2
DA:139,1
DA:140,2
DA:141,1
DA:142,2
DA:143,1
DA:144,1
DA:146,1
DA:148,1
DA:149,1
DA:150,1
DA:151,1
DA:153,1
DA:154,1
DA:155,2
DA:156,1
DA:157,2
DA:158,1
DA:159,2
DA:160,1
DA:161,1
DA:163,15
DA:164,15
DA:165,15
DA:167,9
DA:168,9
DA:171,1
DA:172,1
DA:173,1
DA:174,2
DA:175,1
DA:176,1
DA:177,1
DA:178,1
DA:179,1
DA:180,1
BA:49,2
BA:49,2
LF:144
LH:144
end_of_record
SF:/srv/build/pkg/ept-work/default/wibble/wibble-test-generated-_home_mornfall_dev_pkg_ept-work_wibble_range.cpp
FN:13,_Z41__static_initialization_and_destruction_0ii
FN:13,_GLOBAL__I__Z23run_Range_iteratorRangev
FN:13,_ZN6wibble9MorphBaseINS_14GeneratedRangeIiPFvRiEPFbRKiEEENS_14RangeInterfaceIiEEED0Ev
FN:13,_ZN6wibble9MorphBaseINS_14GeneratedRangeIiPFvRiEPFbRKiEEENS_14RangeInterfaceIiEEED1Ev
FN:13,_ZN6wibble10RangeMorphIiNS_14GeneratedRangeIiPFvRiEPFbRKiEEEED0Ev
FN:13,_ZN6wibble9MorphBaseINS_13IteratorRangeIN9__gnu_cxx17__normal_iteratorIPiSt6vectorIiSaIiEEEEEENS_14RangeInterfaceIiEEED0Ev
FN:13,_ZN6wibble9MorphBaseINS_13IteratorRangeIN9__gnu_cxx17__normal_iteratorIPiSt6vectorIiSaIiEEEEEENS_14RangeInterfaceIiEEED1Ev
FN:13,_ZN6wibble10RangeMorphIiNS_13IteratorRangeIN9__gnu_cxx17__normal_iteratorIPiSt6vectorIiSaIiEEEEEEED0Ev
FN:13,_ZN6wibble9MorphBaseINS_11CastedRangeIjiEENS_14RangeInterfaceIjEEED0Ev
FN:13,_ZN6wibble9MorphBaseINS_11CastedRangeIjiEENS_14RangeInterfaceIjEEED1Ev
FN:13,_ZN6wibble10RangeMorphIjNS_11CastedRangeIjiEEED0Ev
FN:13,_ZN6wibble9MorphBaseINS_20ConsumerFromIteratorIjSt15insert_iteratorISt6vectorIjSaIjEEEEENS_17ConsumerInterfaceIjEEED0Ev
FN:13,_ZN6wibble9MorphBaseINS_20ConsumerFromIteratorIjSt15insert_iteratorISt6vectorIjSaIjEEEEENS_17ConsumerInterfaceIjEEED1Ev
FN:13,_ZN6wibble13ConsumerMorphIjNS_20ConsumerFromIteratorIjSt15insert_iteratorISt6vectorIjSaIjEEEEEED0Ev
FN:13,_ZN6wibble9MorphBaseINS_13IteratorRangeIN9__gnu_cxx17__normal_iteratorIPjSt6vectorIjSaIjEEEEEENS_14RangeInterfaceIjEEED0Ev
FN:13,_ZN6wibble9MorphBaseINS_13IteratorRangeIN9__gnu_cxx17__normal_iteratorIPjSt6vectorIjSaIjEEEEEENS_14RangeInterfaceIjEEED1Ev
FN:13,_ZN6wibble10RangeMorphIjNS_13IteratorRangeIN9__gnu_cxx17__normal_iteratorIPjSt6vectorIjSaIjEEEEEEED0Ev
FN:13,_ZN6wibble9MorphBaseINS_11CastedRangeIijEENS_14RangeInterfaceIiEEED0Ev
FN:13,_ZN6wibble9MorphBaseINS_11CastedRangeIijEENS_14RangeInterfaceIiEEED1Ev
FN:13,_ZN6wibble10RangeMorphIiNS_11CastedRangeIijEEED0Ev
FN:13,_ZN6wibble9MorphBaseINS_16TransformedRangeISt9binder1stISt4plusIiEEEENS_14RangeInterfaceIiEEED0Ev
FN:13,_ZN6wibble9MorphBaseINS_16TransformedRangeISt9binder1stISt4plusIiEEEENS_14RangeInterfaceIiEEED1Ev
FN:13,_ZN6wibble10RangeMorphIiNS_16TransformedRangeISt9binder1stISt4plusIiEEEEED0Ev
FN:13,_ZN6wibble9MorphBaseINS_20ConsumerFromIteratorIiSt15insert_iteratorISt6vectorIiSaIiEEEEENS_17ConsumerInterfaceIiEEED0Ev
FN:13,_ZN6wibble9MorphBaseINS_20ConsumerFromIteratorIiSt15insert_iteratorISt6vectorIiSaIiEEEEENS_17ConsumerInterfaceIiEEED1Ev
FN:13,_ZN6wibble13ConsumerMorphIiNS_20ConsumerFromIteratorIiSt15insert_iteratorISt6vectorIiSaIiEEEEEED0Ev
FN:13,_ZN6wibble9MorphBaseINS_13IteratorRangeISt14_List_iteratorIiEEENS_14RangeInterfaceIiEEED0Ev
FN:13,_ZN6wibble9MorphBaseINS_13IteratorRangeISt14_List_iteratorIiEEENS_14RangeInterfaceIiEEED1Ev
FN:13,_ZN6wibble10RangeMorphIiNS_13IteratorRangeISt14_List_iteratorIiEEEED0Ev
FN:13,_ZN6wibble9MorphBaseINS_13FilteredRangeINS_5RangeIiEESt9binder1stISt8equal_toIiEEEENS_14RangeInterfaceIiEEED0Ev
FN:13,_ZN6wibble9MorphBaseINS_13FilteredRangeINS_5RangeIiEESt9binder1stISt8equal_toIiEEEENS_14RangeInterfaceIiEEED1Ev
FN:13,_ZN6wibble10RangeMorphIiNS_13FilteredRangeINS_5RangeIiEESt9binder1stISt8equal_toIiEEEEED0Ev
FN:13,_Z25run_Range__generatedRangev
FN:10,_Z28run_Range__transformedRange2v
FN:9,_Z27run_Range__transformedRangev
FN:11,_Z29run_Range_tailOfIteratorRangev
FN:8,_Z20run_Range_assignmentv
FN:12,_Z22run_Range__castedRangev
FN:6,_Z24run_Range__filteredRangev
FN:5,_Z24run_Range_copyToConsumerv
FN:4,_Z14run_Range_copyv
FN:3,_Z23run_Range_iteratorRangev
FN:7,_Z14run_Range_sortv
DA:3,1
DA:4,1
DA:5,1
DA:6,1
DA:7,1
DA:8,1
DA:9,1
DA:10,1
DA:11,1
DA:12,1
DA:13,152
BA:13,2
BA:13,1
BA:13,2
BA:13,1
LF:11
LH:11
end_of_record
SF:/usr/include/c++/4.3/backward/binders.h
FN:110,_ZNSt9binder1stISt8equal_toIiEEC1ERKS1_RKi
FN:127,_ZSt7bind1stISt8equal_toIiEiESt9binder1stIT_ERKS3_RKT0_
FN:110,_ZNSt9binder1stISt4plusIiEEC1ERKS1_RKi
FN:127,_ZSt7bind1stISt4plusIiEiESt9binder1stIT_ERKS3_RKT0_
FN:114,_ZNKSt9binder1stISt4plusIiEEclERKi
FN:114,_ZNKSt9binder1stISt8equal_toIiEEclERKi
DA:110,3
DA:111,3
DA:114,6
DA:115,6
DA:127,3
DA:130,3
LF:6
LH:6
end_of_record
SF:/usr/include/c++/4.3/bits/allocator.h
FN:98,_ZNSaIcEC1Ev
FN:106,_ZNSaIcED2Ev
FN:106,_ZNSaIcED1Ev
FN:106,_ZNSaISt10_List_nodeIiEED2Ev
FN:100,_ZNSaIcEC2ERKS_
FN:100,_ZNSaIcEC1ERKS_
FN:106,_ZNSaIiED2Ev
FN:106,_ZNSaIiED1Ev
FN:106,_ZNSaIjED2Ev
FN:98,_ZNSaISt10_List_nodeIiEEC2Ev
FN:98,_ZNSaIiEC2Ev
FN:104,_ZNSaIiEC1ISt10_List_nodeIiEEERKSaIT_E
FN:98,_ZNSaIjEC2Ev
FN:118,_ZSteqIcEbRKSaIT_ES3_
DA:98,1
DA:100,0
DA:101,0
DA:104,0
DA:106,1
DA:118,0
DA:119,0
LF:7
LH:2
end_of_record
SF:/usr/include/c++/4.3/bits/basic_ios.h
FN:131,_ZNKSt9basic_iosIcSt11char_traitsIcEE7rdstateEv
FN:454,_ZNSt9basic_iosIcSt11char_traitsIcEEC2Ev
FN:276,_ZNSt9basic_iosIcSt11char_traitsIcEED2Ev
FN:151,_ZNSt9basic_iosIcSt11char_traitsIcEE8setstateESt12_Ios_Iostate
FN:51,_ZSt13__check_facetISt5ctypeIcEERKT_PS3_
FN:443,_ZNKSt9basic_iosIcSt11char_traitsIcEE5widenEc
DA:51,0
DA:53,0
DA:54,0
DA:55,0
DA:131,0
DA:132,0
DA:151,0
DA:152,0
DA:276,0
DA:443,0
DA:444,0
DA:454,0
DA:456,0
DA:457,0
BA:53,0
BA:53,0
BA:276,0
BA:276,0
LF:14
LH:0
end_of_record
SF:/usr/include/c++/4.3/bits/basic_string.h
FN:277,_ZNKSs7_M_dataEv
FN:258,_ZNSs12_Alloc_hiderD1Ev
FN:285,_ZNKSs6_M_repEv
FN:606,_ZNKSs4sizeEv
FN:214,_ZNSs4_Rep10_M_refdataEv
FN:1544,_ZNKSs4dataEv
FN:178,_ZNSs4_Rep12_S_empty_repEv
FN:411,_ZNSs12_S_empty_repEv
FN:259,_ZNSs12_Alloc_hiderC1EPcRKSaIcE
FN:2067,_ZNSsC1Ev
FN:1551,_ZNKSs13get_allocatorEv
FN:200,_ZNSs4_Rep15_M_set_sharableEv
FN:204,_ZNSs4_Rep26_M_set_length_and_sharableEj
FN:2421,_ZStlsIcSt11char_traitsIcESaIcEERSt13basic_ostreamIT_T0_ES7_RKSbIS4_S5_T1_E
FN:339,_ZNSs7_M_copyEPcPKcj
FN:384,_ZNSs13_S_copy_charsEPcS_S_
FN:1462,_ZNSs16_S_construct_auxIPcEES0_T_S1_RKSaIcESt12__false_type
FN:1478,_ZNSs12_S_constructIPcEES0_T_S1_RKSaIcE
FN:501,_ZNSsaSERKSs
FN:229,_ZNSs4_Rep10_M_disposeERKSaIcE
FN:493,_ZNSsD1Ev
DA:178,0
DA:183,0
DA:184,0
DA:200,0
DA:201,0
DA:204,0
DA:206,0
DA:207,0
DA:208,0
DA:211,0
DA:214,0
DA:215,0
DA:229,0
DA:232,0
DA:234,0
DA:236,0
DA:237,0
DA:258,0
DA:259,0
DA:260,0
DA:277,0
DA:278,0
DA:285,0
DA:286,0
DA:339,0
DA:341,0
DA:342,0
DA:344,0
DA:345,0
DA:384,0
DA:385,0
DA:411,0
DA:412,0
DA:493,0
DA:494,0
DA:501,0
DA:502,0
DA:606,0
DA:607,0
DA:1462,0
DA:1465,0
DA:1478,0
DA:1481,0
DA:1544,0
DA:1545,0
DA:1551,0
DA:1552,0
DA:2067,0
DA:2069,0
DA:2421,0
DA:2425,0
BA:232,0
BA:232,0
BA:234,0
BA:234,0
BA:341,0
BA:341,0
LF:51
LH:0
end_of_record
SF:/usr/include/c++/4.3/bits/basic_string.tcc
FN:130,_ZNSs12_S_constructIPcEES0_T_S1_RKSaIcESt20forward_iterator_tag
FN:234,_ZNSsC1IPcEET_S1_RKSaIcE
DA:130,0
DA:133,0
DA:134,0
DA:137,0
DA:139,0
DA:142,0
DA:144,0
DA:146,0
DA:147,0
DA:149,0
DA:150,0
DA:152,0
DA:153,0
DA:234,0
DA:235,0
DA:236,0
BA:133,0
BA:133,0
BA:133,0
BA:133,0
BA:133,0
BA:133,0
BA:133,0
BA:133,0
BA:137,0
BA:137,0
BA:137,0
BA:137,0
BA:137,0
BA:137,0
LF:16
LH:0
end_of_record
SF:/usr/include/c++/4.3/bits/char_traits.h
FN:245,_ZNSt11char_traitsIcE6assignERcRKc
FN:261,_ZNSt11char_traitsIcE6lengthEPKc
FN:273,_ZNSt11char_traitsIcE4copyEPcPKcj
DA:245,0
DA:246,0
DA:261,0
DA:262,0
DA:273,0
DA:274,0
LF:6
LH:0
end_of_record
SF:/usr/include/c++/4.3/bits/ios_base.h
FN:125,_ZStorSt13_Ios_OpenmodeS_
FN:163,_ZStorSt12_Ios_IostateS_
DA:125,0
DA:126,0
DA:163,0
DA:164,0
LF:4
LH:0
end_of_record
SF:/usr/include/c++/4.3/bits/list.tcc
FN:70,_ZNSt10_List_baseIiSaIiEE8_M_clearEv
DA:70,0
DA:73,0
DA:74,0
DA:76,0
DA:77,0
DA:78,0
DA:79,0
DA:81,0
BA:74,0
BA:74,0
LF:8
LH:0
end_of_record
SF:/usr/include/c++/4.3/bits/locale_facets.h
FN:1165,_ZNKSt5ctypeIcE13_M_widen_initEv
FN:871,_ZNKSt5ctypeIcE5widenEc
DA:871,0
DA:873,0
DA:874,0
DA:875,0
DA:876,0
DA:1165,0
DA:1168,0
DA:1169,0
DA:1170,0
DA:1172,0
DA:1174,0
DA:1175,0
DA:1176,0
BA:873,0
BA:873,0
BA:1168,0
BA:1168,0
BA:1174,0
BA:1174,0
LF:13
LH:0
end_of_record
SF:/usr/include/c++/4.3/bits/stl_algo.h
FN:89,_ZSt8__medianIiERKT_S2_S2_S2_
FN:1714,_ZSt25__unguarded_linear_insertIN9__gnu_cxx17__normal_iteratorIPiSt6vectorIiSaIiEEEEiEvT_T0_
FN:1793,_ZSt26__unguarded_insertion_sortIN9__gnu_cxx17__normal_iteratorIPiSt6vectorIiSaIiEEEEEvT_S7_
FN:1856,_ZSt21__unguarded_partitionIN9__gnu_cxx17__normal_iteratorIPiSt6vectorIiSaIiEEEEiET_S7_S7_T0_
FN:1555,_ZSt13__heap_selectIN9__gnu_cxx17__normal_iteratorIPiSt6vectorIiSaIiEEEEEvT_S7_S7_
FN:4622,_ZSt12partial_sortIN9__gnu_cxx17__normal_iteratorIPiSt6vectorIiSaIiEEEEEvT_S7_S7_
FN:1898,_ZSt16__introsort_loopIN9__gnu_cxx17__normal_iteratorIPiSt6vectorIiSaIiEEEEiEvT_S7_T0_
FN:160,_ZSt9__find_ifIN6wibble13RangeIteratorINS0_5RangeIiEEEESt9binder1stISt8equal_toIiEEET_S9_S9_T0_St18input_iterator_tag
FN:3829,_ZSt7find_ifIN6wibble13RangeIteratorINS0_5RangeIiEEEESt9binder1stISt8equal_toIiEEET_S9_S9_T0_
FN:1748,_ZSt16__insertion_sortIN9__gnu_cxx17__normal_iteratorIPiSt6vectorIiSaIiEEEEEvT_S7_
FN:1825,_ZSt22__final_insertion_sortIN9__gnu_cxx17__normal_iteratorIPiSt6vectorIiSaIiEEEEEvT_S7_
FN:1970,_ZSt4__lgi
FN:4770,_ZSt4sortIN9__gnu_cxx17__normal_iteratorIPiSt6vectorIiSaIiEEEEEvT_S7_
DA:89,0
DA:93,0
DA:94,0
DA:95,0
DA:96,0
DA:97,0
DA:99,0
DA:100,0
DA:101,0
DA:102,0
DA:103,0
DA:105,0
DA:160,3
DA:162,7
DA:163,1
DA:164,3
DA:1555,0
DA:1557,0
DA:1558,0
DA:1559,0
DA:1560,0
DA:1561,0
DA:1714,0
DA:1716,0
DA:1717,0
DA:1718,0
DA:1720,0
DA:1721,0
DA:1722,0
DA:1724,0
DA:1725,0
DA:1748,0
DA:1750,0
DA:1751,0
DA:1753,0
DA:1756,0
DA:1757,0
DA:1759,0
DA:1760,0
DA:1763,0
DA:1793,0
DA:1798,0
DA:1799,0
DA:1800,0
DA:1825,0
DA:1827,0
DA:1829,0
DA:1830,0
DA:1833,0
DA:1834,0
DA:1856,0
DA:1858,0
DA:1860,0
DA:1861,0
DA:1862,0
DA:1863,0
DA:1864,0
DA:1865,0
DA:1866,0
DA:1867,0
DA:1868,0
DA:1898,0
DA:1903,0
DA:1905,0
DA:1907,0
DA:1908,0
DA:1910,0
DA:1919,0
DA:1920,0
DA:1921,0
DA:1970,0
DA:1971,0
DA:3829,3
DA:3837,3
DA:4622,0
DA:4634,0
DA:4635,0
DA:4636,0
DA:4770,0
DA:4781,0
DA:4783,0
DA:4785,0
DA:4787,0
BA:93,0
BA:93,0
BA:94,0
BA:94,0
BA:96,0
BA:96,0
BA:100,0
BA:100,0
BA:102,0
BA:102,0
BA:162,2
BA:162,2
BA:162,2
BA:162,2
BA:162,2
BA:162,2
BA:1558,0
BA:1558,0
BA:1559,0
BA:1559,0
BA:1718,0
BA:1718,0
BA:1750,0
BA:1750,0
BA:1753,0
BA:1753,0
BA:1757,0
BA:1757,0
BA:1798,0
BA:1798,0
BA:1827,0
BA:1827,0
BA:1860,0
BA:1860,0
BA:1863,0
BA:1863,0
BA:1865,0
BA:1865,0
BA:1903,0
BA:1903,0
BA:1905,0
BA:1905,0
BA:4781,0
BA:4781,0
LF:83
LH:6
end_of_record
SF:/usr/include/c++/4.3/bits/stl_algobase.h
FN:286,_ZNSt12__miter_baseIN6wibble13RangeIteratorINS0_5RangeIiEEEELb0EE3__bES4_
FN:268,_ZNSt12__niter_baseIN6wibble13RangeIteratorINS0_5RangeIiEEEELb0EE3__bES4_
FN:268,_ZNSt12__niter_baseISt20back_insert_iteratorISt4listIiSaIiEEELb0EE3__bES4_
FN:268,_ZNSt12__niter_baseIN6wibble8ConsumerIiEELb0EE3__bES2_
FN:210,_ZSt3maxIjERKT_S2_S2_
FN:286,_ZNSt12__miter_baseIPiLb0EE3__bES0_
FN:286,_ZNSt12__miter_baseIN9__gnu_cxx17__normal_iteratorIPiSt6vectorIiSaIiEEEELb0EE3__bES6_
FN:268,_ZNSt12__niter_baseIPiLb0EE3__bES0_
FN:309,_ZNSt11__copy_moveILb0ELb0ESt20forward_iterator_tagE8__copy_mIN6wibble13RangeIteratorINS3_5RangeIiEEEENS3_8ConsumerIiEEEET0_T_SB_SA_
FN:104,_ZNSt11__iter_swapILb1EE9iter_swapIN9__gnu_cxx17__normal_iteratorIPiSt6vectorIiSaIiEEEES8_EEvT_T0_
FN:121,_ZSt9iter_swapIN9__gnu_cxx17__normal_iteratorIPiSt6vectorIiSaIiEEEES6_EvT_T0_
FN:276,_ZNSt12__niter_baseIN9__gnu_cxx17__normal_iteratorIPiSt6vectorIiSaIiEEEELb1EE3__bES6_
FN:286,_ZNSt12__miter_baseIPjLb0EE3__bES0_
FN:268,_ZNSt12__niter_baseIPjLb0EE3__bES0_
FN:385,_ZSt13__copy_move_aILb0EN6wibble13RangeIteratorINS0_5RangeIiEEEENS0_8ConsumerIiEEET1_T0_S8_S7_
FN:430,_ZSt14__copy_move_a2ILb0EN6wibble13RangeIteratorINS0_5RangeIiEEEENS0_8ConsumerIiEEET1_T0_S8_S7_
FN:456,_ZSt4copyIN6wibble13RangeIteratorINS0_5RangeIiEEEENS0_8ConsumerIiEEET0_T_S8_S7_
FN:569,_ZNSt20__copy_move_backwardILb0ELb1ESt26random_access_iterator_tagE13__copy_move_bIiEEPT_PKS3_S6_S4_
FN:579,_ZSt22__copy_move_backward_aILb0EPiS0_ET1_T0_S2_S1_
FN:597,_ZSt23__copy_move_backward_a2ILb0EPiS0_ET1_T0_S2_S1_
FN:624,_ZSt13copy_backwardIPiS0_ET0_T_S2_S1_
FN:597,_ZSt23__copy_move_backward_a2ILb0EN9__gnu_cxx17__normal_iteratorIPiSt6vectorIiSaIiEEEES6_ET1_T0_S8_S7_
FN:624,_ZSt13copy_backwardIN9__gnu_cxx17__normal_iteratorIPiSt6vectorIiSaIiEEEES6_ET0_T_S8_S7_
FN:375,_ZNSt11__copy_moveILb0ELb1ESt26random_access_iterator_tagE8__copy_mIiEEPT_PKS3_S6_S4_
FN:385,_ZSt13__copy_move_aILb0EPiS0_ET1_T0_S2_S1_
FN:430,_ZSt14__copy_move_a2ILb0EPiS0_ET1_T0_S2_S1_
FN:456,_ZSt4copyIPiS0_ET0_T_S2_S1_
FN:569,_ZNSt20__copy_move_backwardILb0ELb1ESt26random_access_iterator_tagE13__copy_move_bIjEEPT_PKS3_S6_S4_
FN:579,_ZSt22__copy_move_backward_aILb0EPjS0_ET1_T0_S2_S1_
FN:597,_ZSt23__copy_move_backward_a2ILb0EPjS0_ET1_T0_S2_S1_
FN:624,_ZSt13copy_backwardIPjS0_ET0_T_S2_S1_
FN:375,_ZNSt11__copy_moveILb0ELb1ESt26random_access_iterator_tagE8__copy_mIjEEPT_PKS3_S6_S4_
FN:385,_ZSt13__copy_move_aILb0EPjS0_ET1_T0_S2_S1_
FN:430,_ZSt14__copy_move_a2ILb0EPjS0_ET1_T0_S2_S1_
FN:456,_ZSt4copyIPjS0_ET0_T_S2_S1_
FN:309,_ZNSt11__copy_moveILb0ELb0ESt20forward_iterator_tagE8__copy_mIN6wibble13RangeIteratorINS3_5RangeIiEEEESt20back_insert_iteratorISt4listIiSaIiEEEEET0_T_SE_SD_
FN:385,_ZSt13__copy_move_aILb0EN6wibble13RangeIteratorINS0_5RangeIiEEEESt20back_insert_iteratorISt4listIiSaIiEEEET1_T0_SB_SA_
FN:430,_ZSt14__copy_move_a2ILb0EN6wibble13RangeIteratorINS0_5RangeIiEEEESt20back_insert_iteratorISt4listIiSaIiEEEET1_T0_SB_SA_
FN:456,_ZSt4copyIN6wibble13RangeIteratorINS0_5RangeIiEEEESt20back_insert_iteratorISt4listIiSaIiEEEET0_T_SB_SA_
DA:104,0
DA:106,0
DA:107,0
DA:121,0
DA:142,0
DA:146,0
DA:210,0
DA:215,0
DA:216,0
DA:217,0
DA:268,13
DA:269,13
DA:276,0
DA:277,0
DA:286,8
DA:287,8
DA:309,1
DA:311,3
DA:312,2
DA:313,1
DA:375,4
DA:377,4
DA:379,4
DA:385,5
DA:393,5
DA:396,5
DA:430,5
DA:435,5
DA:456,5
DA:466,5
DA:569,0
DA:571,0
DA:572,0
DA:573,0
DA:579,0
DA:587,0
DA:592,0
DA:597,0
DA:602,0
DA:624,0
DA:636,0
BA:215,0
BA:215,0
BA:311,0
BA:311,0
BA:311,2
BA:311,2
LF:41
LH:18
end_of_record
SF:/usr/include/c++/4.3/bits/stl_construct.h
FN:97,_ZSt8_DestroyIPiEvT_S1_
FN:126,_ZSt8_DestroyIPiiEvT_S1_RSaIT0_E
FN:97,_ZSt8_DestroyIPjEvT_S1_
FN:126,_ZSt8_DestroyIPjjEvT_S1_RSaIT0_E
DA:97,3
DA:104,3
DA:126,3
DA:128,3
DA:129,3
LF:5
LH:5
end_of_record
SF:/usr/include/c++/4.3/bits/stl_function.h
FN:104,_ZNSt14unary_functionIibEC2Ev
FN:104,_ZNSt14unary_functionIiiEC2Ev
FN:140,_ZNKSt4plusIiEclERKiS2_
FN:202,_ZNKSt8equal_toIiEclERKiS2_
DA:104,1
DA:140,4
DA:141,4
DA:202,2
DA:203,2
LF:5
LH:5
end_of_record
SF:/usr/include/c++/4.3/bits/stl_heap.h
FN:131,_ZSt11__push_heapIN9__gnu_cxx17__normal_iteratorIPiSt6vectorIiSaIiEEEEiiEvT_T0_S8_T1_
FN:225,_ZSt13__adjust_heapIN9__gnu_cxx17__normal_iteratorIPiSt6vectorIiSaIiEEEEiiEvT_T0_S8_T1_
FN:371,_ZSt9make_heapIN9__gnu_cxx17__normal_iteratorIPiSt6vectorIiSaIiEEEEEvT_S7_
FN:251,_ZSt10__pop_heapIN9__gnu_cxx17__normal_iteratorIPiSt6vectorIiSaIiEEEEEvT_S7_S7_
FN:276,_ZSt8pop_heapIN9__gnu_cxx17__normal_iteratorIPiSt6vectorIiSaIiEEEEEvT_S7_
FN:450,_ZSt9sort_heapIN9__gnu_cxx17__normal_iteratorIPiSt6vectorIiSaIiEEEEEvT_S7_
DA:131,0
DA:133,0
DA:134,0
DA:136,0
DA:137,0
DA:138,0
DA:140,0
DA:141,0
DA:225,0
DA:227,0
DA:228,0
DA:229,0
DA:231,0
DA:232,0
DA:233,0
DA:234,0
DA:235,0
DA:237,0
DA:239,0
DA:240,0
DA:242,0
DA:244,0
DA:246,0
DA:251,0
DA:258,0
DA:259,0
DA:260,0
DA:263,0
DA:276,0
DA:288,0
DA:289,0
DA:371,0
DA:384,0
DA:385,0
DA:387,0
DA:388,0
DA:389,0
DA:391,0
DA:392,0
DA:393,0
DA:394,0
DA:395,0
DA:450,0
DA:460,0
DA:461,0
DA:462,0
BA:134,0
BA:134,0
BA:134,0
BA:134,0
BA:134,0
BA:134,0
BA:229,0
BA:229,0
BA:232,0
BA:232,0
BA:237,0
BA:237,0
BA:237,0
BA:237,0
BA:384,0
BA:384,0
BA:393,0
BA:393,0
BA:460,0
BA:460,0
LF:46
LH:0
end_of_record
SF:/usr/include/c++/4.3/bits/stl_iterator.h
FN:695,_ZNK9__gnu_cxx17__normal_iteratorIPiSt6vectorIiSaIiEEEdeEv
FN:398,_ZNSt20back_insert_iteratorISt4listIiSaIiEEEC1ERS2_
FN:456,_ZSt13back_inserterISt4listIiSaIiEEESt20back_insert_iteratorIT_ERS4_
FN:683,_ZN9__gnu_cxx17__normal_iteratorIPiSt6vectorIiSaIiEEEC1ERKS1_
FN:735,_ZNK9__gnu_cxx17__normal_iteratorIPiSt6vectorIiSaIiEEEplERKi
FN:747,_ZNK9__gnu_cxx17__normal_iteratorIPiSt6vectorIiSaIiEEE4baseEv
FN:846,_ZN9__gnu_cxxmiIPiSt6vectorIiSaIiEEEENS_17__normal_iteratorIT_T0_E15difference_typeERKS8_SB_
FN:769,_ZN9__gnu_cxxeqIPiSt6vectorIiSaIiEEEEbRKNS_17__normal_iteratorIT_T0_EESA_
FN:781,_ZN9__gnu_cxxneIPiSt6vectorIiSaIiEEEEbRKNS_17__normal_iteratorIT_T0_EESA_
FN:572,_ZNSt15insert_iteratorISt6vectorIiSaIiEEEC1ERS2_N9__gnu_cxx17__normal_iteratorIPiS2_EE
FN:645,_ZSt8inserterISt6vectorIiSaIiEEN9__gnu_cxx17__normal_iteratorIPiS2_EEESt15insert_iteratorIT_ERS8_T0_
FN:743,_ZNK9__gnu_cxx17__normal_iteratorIPiSt6vectorIiSaIiEEEmiERKi
FN:683,_ZN9__gnu_cxx17__normal_iteratorIPjSt6vectorIjSaIjEEEC1ERKS1_
FN:572,_ZNSt15insert_iteratorISt6vectorIjSaIjEEEC1ERS2_N9__gnu_cxx17__normal_iteratorIPjS2_EE
FN:645,_ZSt8inserterISt6vectorIjSaIjEEN9__gnu_cxx17__normal_iteratorIPjS2_EEESt15insert_iteratorIT_ERS8_T0_
FN:703,_ZN9__gnu_cxx17__normal_iteratorIPiSt6vectorIiSaIiEEEppEv
FN:715,_ZN9__gnu_cxx17__normal_iteratorIPiSt6vectorIiSaIiEEEmmEv
FN:794,_ZN9__gnu_cxxltIPiSt6vectorIiSaIiEEEEbRKNS_17__normal_iteratorIT_T0_EESA_
FN:434,_ZNSt20back_insert_iteratorISt4listIiSaIiEEEppEv
FN:429,_ZNSt20back_insert_iteratorISt4listIiSaIiEEEdeEv
FN:722,_ZN9__gnu_cxx17__normal_iteratorIPiSt6vectorIiSaIiEEEmmEi
FN:695,_ZNK9__gnu_cxx17__normal_iteratorIPjSt6vectorIjSaIjEEEdeEv
FN:703,_ZN9__gnu_cxx17__normal_iteratorIPjSt6vectorIjSaIjEEEppEv
FN:618,_ZNSt15insert_iteratorISt6vectorIjSaIjEEEdeEv
FN:623,_ZNSt15insert_iteratorISt6vectorIjSaIjEEEppEv
FN:618,_ZNSt15insert_iteratorISt6vectorIiSaIiEEEdeEv
FN:623,_ZNSt15insert_iteratorISt6vectorIiSaIiEEEppEv
FN:747,_ZNK9__gnu_cxx17__normal_iteratorIPjSt6vectorIjSaIjEEE4baseEv
FN:769,_ZN9__gnu_cxxeqIPjSt6vectorIjSaIjEEEEbRKNS_17__normal_iteratorIT_T0_EESA_
FN:846,_ZN9__gnu_cxxmiIPjSt6vectorIjSaIjEEEENS_17__normal_iteratorIT_T0_E15difference_typeERKS8_SB_
FN:599,_ZNSt15insert_iteratorISt6vectorIiSaIiEEEaSERKi
FN:599,_ZNSt15insert_iteratorISt6vectorIjSaIjEEEaSERKj
FN:412,_ZNSt20back_insert_iteratorISt4listIiSaIiEEEaSERKi
DA:398,0
DA:412,0
DA:414,0
DA:415,0
DA:429,0
DA:430,0
DA:434,0
DA:435,0
DA:456,0
DA:457,0
DA:572,1
DA:573,1
DA:599,2
DA:601,2
DA:602,2
DA:603,2
DA:618,6
DA:619,6
DA:623,2
DA:624,2
DA:645,1
DA:648,1
DA:683,7
DA:695,2
DA:696,2
DA:703,4
DA:705,4
DA:706,4
DA:715,0
DA:717,0
DA:718,0
DA:722,0
DA:723,0
DA:735,0
DA:736,0
DA:743,0
DA:744,0
DA:747,16
DA:748,16
DA:769,4
DA:770,4
DA:781,0
DA:782,0
DA:794,0
DA:795,0
DA:846,2
DA:847,2
LF:47
LH:24
end_of_record
SF:/usr/include/c++/4.3/bits/stl_iterator_base_funcs.h
FN:124,_ZSt9__advanceIN6wibble13RangeIteratorINS0_5RangeIiEEEEiEvRT_T0_St18input_iterator_tag
FN:173,_ZSt7advanceIN6wibble13RangeIteratorINS0_5RangeIiEEEEiEvRT_T0_
FN:93,_ZSt10__distanceIPcENSt15iterator_traitsIT_E15difference_typeES2_S2_St26random_access_iterator_tag
FN:115,_ZSt8distanceIPcENSt15iterator_traitsIT_E15difference_typeES2_S2_
DA:93,0
DA:98,0
DA:115,0
DA:119,0
DA:124,10
DA:128,41
DA:129,21
DA:130,10
DA:173,10
DA:176,10
DA:177,10
DA:178,10
BA:128,2
BA:128,2
LF:12
LH:8
end_of_record
SF:/usr/include/c++/4.3/bits/stl_iterator_base_types.h
FN:111,_ZNSt8iteratorISt19output_iterator_tagvvvvEC2Ev
FN:166,_ZSt19__iterator_categoryIN6wibble13RangeIteratorINS0_5RangeIiEEEEENSt15iterator_traitsIT_E17iterator_categoryERKS6_
FN:166,_ZSt19__iterator_categoryIPcENSt15iterator_traitsIT_E17iterator_categoryERKS2_
DA:111,0
DA:166,13
DA:167,13
LF:3
LH:2
end_of_record
SF:/usr/include/c++/4.3/bits/stl_list.h
FN:126,_ZNSt14_List_iteratorIiEC1EPSt15_List_node_base
FN:666,_ZNSt4listIiSaIiEE3endEv
FN:648,_ZNSt4listIiSaIiEE5beginEv
FN:211,_ZNKSt20_List_const_iteratorIiEdeEv
FN:253,_ZNKSt20_List_const_iteratorIiEneERKS0_
FN:219,_ZNSt20_List_const_iteratorIiEppEv
FN:249,_ZNKSt20_List_const_iteratorIiEeqERKS0_
FN:364,_ZNSt10_List_baseIiSaIiEE7_M_initEv
FN:298,_ZNSt10_List_baseIiSaIiEE10_List_implD1Ev
FN:202,_ZNSt20_List_const_iteratorIiEC1EPKSt15_List_node_base
FN:675,_ZNKSt4listIiSaIiEE3endEv
FN:657,_ZNKSt4listIiSaIiEE5beginEv
FN:1386,_ZSteqIiSaIiEEbRKSt4listIT_T0_ES6_
FN:1422,_ZStneIiSaIiEEbRKSt4listIT_T0_ES6_
FN:328,_ZNKSt10_List_baseIiSaIiEE21_M_get_Node_allocatorEv
FN:301,_ZNSt10_List_baseIiSaIiEE10_List_implC1Ev
FN:339,_ZNSt10_List_baseIiSaIiEEC2Ev
FN:498,_ZNSt4listIiSaIiEEC1Ev
FN:332,_ZNKSt10_List_baseIiSaIiEE19_M_get_Tp_allocatorEv
FN:131,_ZNKSt14_List_iteratorIiEdeEv
FN:139,_ZNSt14_List_iteratorIiEppEv
FN:169,_ZNKSt14_List_iteratorIiEeqERKS0_
FN:317,_ZNSt10_List_baseIiSaIiEE11_M_put_nodeEPSt10_List_nodeIiE
FN:357,_ZNSt10_List_baseIiSaIiEED2Ev
FN:417,_ZNSt4listIiSaIiEED1Ev
FN:313,_ZNSt10_List_baseIiSaIiEE11_M_get_nodeEv
FN:458,_ZNSt4listIiSaIiEE14_M_create_nodeERKi
FN:1339,_ZNSt4listIiSaIiEE9_M_insertESt14_List_iteratorIiERKi
FN:875,_ZNSt4listIiSaIiEE9push_backERKi
DA:126,0
DA:127,0
DA:131,0
DA:132,0
DA:139,0
DA:141,0
DA:142,0
DA:169,0
DA:170,0
DA:202,0
DA:203,0
DA:211,0
DA:212,0
DA:219,0
DA:221,0
DA:222,0
DA:249,0
DA:250,0
DA:253,0
DA:254,0
DA:298,0
DA:301,0
DA:302,0
DA:303,0
DA:313,0
DA:314,0
DA:317,0
DA:318,0
DA:328,0
DA:329,0
DA:332,0
DA:333,0
DA:339,0
DA:340,0
DA:341,0
DA:357,0
DA:358,0
DA:364,0
DA:366,0
DA:367,0
DA:368,0
DA:417,0
DA:458,0
DA:460,0
DA:463,0
DA:465,0
DA:467,0
DA:468,0
DA:470,0
DA:498,0
DA:499,0
DA:648,0
DA:649,0
DA:657,0
DA:658,0
DA:666,0
DA:667,0
DA:675,0
DA:676,0
DA:875,0
DA:876,0
DA:1339,0
DA:1341,0
DA:1342,0
DA:1343,0
DA:1386,0
DA:1389,0
DA:1390,0
DA:1392,0
DA:1393,0
DA:1394,0
DA:1396,0
DA:1397,0
DA:1399,0
DA:1422,0
DA:1423,0
BA:1394,0
BA:1394,0
BA:1394,0
BA:1394,0
BA:1394,0
BA:1394,0
BA:1394,0
BA:1394,0
BA:1399,0
BA:1399,0
BA:1399,0
BA:1399,0
LF:76
LH:0
end_of_record
SF:/usr/include/c++/4.3/bits/stl_move.h
FN:80,_ZSt4swapIiEvRT_S1_
DA:80,0
DA:85,0
DA:86,0
DA:87,0
DA:88,0
LF:5
LH:0
end_of_record
SF:/usr/include/c++/4.3/bits/stl_uninitialized.h
FN:97,_ZNSt20__uninitialized_copyILb1EE18uninitialized_copyIPiS2_EET0_T_S4_S3_
FN:113,_ZSt18uninitialized_copyIPiS0_ET0_T_S2_S1_
FN:261,_ZSt22__uninitialized_copy_aIPiS0_iET0_T_S2_S1_RSaIT1_E
FN:268,_ZSt22__uninitialized_move_aIPiS0_SaIiEET0_T_S3_S2_RT1_
FN:97,_ZNSt20__uninitialized_copyILb1EE18uninitialized_copyIPjS2_EET0_T_S4_S3_
FN:113,_ZSt18uninitialized_copyIPjS0_ET0_T_S2_S1_
FN:261,_ZSt22__uninitialized_copy_aIPjS0_jET0_T_S2_S1_RSaIT1_E
FN:268,_ZSt22__uninitialized_move_aIPjS0_SaIjEET0_T_S3_S2_RT1_
DA:97,4
DA:98,4
DA:113,4
DA:122,4
DA:261,4
DA:262,4
DA:268,4
DA:272,4
LF:8
LH:8
end_of_record
SF:/usr/include/c++/4.3/bits/stl_vector.h
FN:97,_ZNSt12_Vector_baseIiSaIiEE19_M_get_Tp_allocatorEv
FN:395,_ZNSt6vectorIiSaIiEE3endEv
FN:377,_ZNSt6vectorIiSaIiEE5beginEv
FN:97,_ZNSt12_Vector_baseIjSaIjEE19_M_get_Tp_allocatorEv
FN:395,_ZNSt6vectorIjSaIjEE3endEv
FN:377,_ZNSt6vectorIjSaIjEE5beginEv
FN:79,_ZNSt12_Vector_baseIiSaIiEE12_Vector_implD1Ev
FN:484,_ZNKSt6vectorIiSaIiEE4sizeEv
FN:79,_ZNSt12_Vector_baseIjSaIjEE12_Vector_implD1Ev
FN:84,_ZNSt12_Vector_baseIiSaIiEE12_Vector_implC1Ev
FN:108,_ZNSt12_Vector_baseIiSaIiEEC2Ev
FN:213,_ZNSt6vectorIiSaIiEEC1Ev
FN:101,_ZNKSt12_Vector_baseIiSaIiEE19_M_get_Tp_allocatorEv
FN:489,_ZNKSt6vectorIiSaIiEE8max_sizeEv
FN:84,_ZNSt12_Vector_baseIjSaIjEE12_Vector_implC1Ev
FN:108,_ZNSt12_Vector_baseIjSaIjEEC2Ev
FN:213,_ZNSt6vectorIjSaIjEEC1Ev
FN:484,_ZNKSt6vectorIjSaIjEE4sizeEv
FN:101,_ZNKSt12_Vector_baseIjSaIjEE19_M_get_Tp_allocatorEv
FN:489,_ZNKSt6vectorIjSaIjEE8max_sizeEv
FN:147,_ZNSt12_Vector_baseIiSaIiEE13_M_deallocateEPij
FN:135,_ZNSt12_Vector_baseIiSaIiEED2Ev
FN:299,_ZNSt6vectorIiSaIiEED1Ev
FN:147,_ZNSt12_Vector_baseIjSaIjEE13_M_deallocateEPjj
FN:135,_ZNSt12_Vector_baseIjSaIjEED2Ev
FN:299,_ZNSt6vectorIjSaIjEED1Ev
FN:1075,_ZNKSt6vectorIiSaIiEE12_M_check_lenEjPKc
FN:1075,_ZNKSt6vectorIjSaIjEE12_M_check_lenEjPKc
FN:143,_ZNSt12_Vector_baseIiSaIiEE11_M_allocateEj
FN:686,_ZNSt6vectorIiSaIiEE9push_backERKi
FN:143,_ZNSt12_Vector_baseIjSaIjEE11_M_allocateEj
DA:79,1
DA:84,1
DA:85,1
DA:86,1
DA:97,7
DA:98,7
DA:101,4
DA:102,4
DA:108,1
DA:109,1
DA:135,1
DA:136,1
DA:137,1
DA:143,2
DA:144,2
DA:147,3
DA:149,3
DA:150,2
DA:151,3
DA:213,1
DA:214,1
DA:299,1
DA:300,1
DA:301,1
DA:377,3
DA:378,3
DA:395,2
DA:396,2
DA:484,8
DA:485,8
DA:489,4
DA:490,4
DA:686,0
DA:688,0
DA:690,0
DA:691,0
DA:694,0
DA:695,0
DA:1075,2
DA:1077,2
DA:1078,0
DA:1080,2
DA:1081,2
BA:144,0
BA:144,0
BA:144,2
BA:144,1
BA:149,0
BA:149,0
BA:149,2
BA:149,2
BA:688,0
BA:688,0
BA:1077,0
BA:1077,0
BA:1077,1
BA:1077,2
BA:1081,0
BA:1081,0
BA:1081,0
BA:1081,0
BA:1081,2
BA:1081,1
BA:1081,1
BA:1081,2
LF:43
LH:36
end_of_record
SF:/usr/include/c++/4.3/bits/vector.tcc
FN:283,_ZNSt6vectorIiSaIiEE13_M_insert_auxEN9__gnu_cxx17__normal_iteratorIPiS1_EERKi
FN:94,_ZNSt6vectorIiSaIiEE6insertEN9__gnu_cxx17__normal_iteratorIPiS1_EERKi
FN:283,_ZNSt6vectorIjSaIjEE13_M_insert_auxEN9__gnu_cxx17__normal_iteratorIPjS1_EERKj
FN:94,_ZNSt6vectorIjSaIjEE6insertEN9__gnu_cxx17__normal_iteratorIPjS1_EERKj
DA:94,2
DA:96,2
DA:97,2
DA:100,0
DA:101,0
DA:113,2
DA:115,2
DA:283,2
DA:286,2
DA:288,0
DA:291,0
DA:293,0
DA:295,0
DA:299,0
DA:307,2
DA:308,2
DA:309,2
DA:316,2
DA:321,2
DA:323,2
DA:324,2
DA:330,0
DA:332,0
DA:333,0
DA:334,0
DA:336,2
DA:338,2
DA:341,2
DA:342,2
DA:343,2
DA:345,2
BA:97,0
BA:97,0
BA:97,0
BA:97,0
BA:97,0
BA:97,0
BA:97,1
BA:97,2
BA:97,0
BA:97,0
BA:97,1
BA:97,2
BA:286,0
BA:286,0
BA:286,1
BA:286,2
LF:31
LH:20
end_of_record
SF:/usr/include/c++/4.3/ext/atomicity.h
FN:67,_ZN9__gnu_cxxL25__exchange_and_add_singleEPii
FN:50,_ZN9__gnu_cxxL18__exchange_and_addEPVii
FN:80,_ZN9__gnu_cxxL27__exchange_and_add_dispatchEPii
DA:50,0
DA:51,0
DA:67,0
DA:69,0
DA:70,0
DA:71,0
DA:80,0
DA:83,0
DA:84,0
DA:86,0
BA:83,0
BA:83,0
LF:10
LH:0
end_of_record
SF:/usr/include/c++/4.3/ext/new_allocator.h
FN:69,_ZN9__gnu_cxx13new_allocatorIcEC2Ev
FN:76,_ZN9__gnu_cxx13new_allocatorIcED2Ev
FN:107,_ZN9__gnu_cxx13new_allocatorIiE9constructEPiRKi
FN:76,_ZN9__gnu_cxx13new_allocatorISt10_List_nodeIiEED2Ev
FN:118,_ZN9__gnu_cxx13new_allocatorIiE7destroyEPi
FN:71,_ZN9__gnu_cxx13new_allocatorIcEC2ERKS1_
FN:76,_ZN9__gnu_cxx13new_allocatorIiED2Ev
FN:76,_ZN9__gnu_cxx13new_allocatorIjED2Ev
FN:69,_ZN9__gnu_cxx13new_allocatorISt10_List_nodeIiEEC2Ev
FN:69,_ZN9__gnu_cxx13new_allocatorIiEC2Ev
FN:101,_ZNK9__gnu_cxx13new_allocatorIiE8max_sizeEv
FN:69,_ZN9__gnu_cxx13new_allocatorIjEC2Ev
FN:101,_ZNK9__gnu_cxx13new_allocatorISt10_List_nodeIiEE8max_sizeEv
FN:107,_ZN9__gnu_cxx13new_allocatorIjE9constructEPjRKj
FN:101,_ZNK9__gnu_cxx13new_allocatorIjE8max_sizeEv
FN:97,_ZN9__gnu_cxx13new_allocatorIiE10deallocateEPij
FN:97,_ZN9__gnu_cxx13new_allocatorIjE10deallocateEPjj
FN:97,_ZN9__gnu_cxx13new_allocatorISt10_List_nodeIiEE10deallocateEPS2_j
FN:87,_ZN9__gnu_cxx13new_allocatorIiE8allocateEjPKv
FN:87,_ZN9__gnu_cxx13new_allocatorIjE8allocateEjPKv
FN:87,_ZN9__gnu_cxx13new_allocatorISt10_List_nodeIiEE8allocateEjPKv
DA:69,1
DA:71,0
DA:76,1
DA:87,2
DA:89,2
DA:90,0
DA:92,2
DA:97,2
DA:98,2
DA:101,6
DA:102,6
DA:107,2
DA:108,2
DA:118,0
BA:89,0
BA:89,0
BA:89,1
BA:89,2
BA:89,0
BA:89,0
BA:108,0
BA:108,0
BA:108,2
BA:108,1
LF:14
LH:11
end_of_record
SF:/usr/include/c++/4.3/ext/type_traits.h
FN:154,_ZN9__gnu_cxx17__is_null_pointerIcEEbPT_
DA:154,0
DA:155,0
LF:2
LH:0
end_of_record
SF:/usr/include/c++/4.3/i486-linux-gnu/bits/gthr-default.h
FN:212,_ZL18__gthread_active_pv
DA:212,0
DA:216,0
LF:2
LH:0
end_of_record
SF:/usr/include/c++/4.3/iosfwd
FN:68,_ZNSt15basic_stringbufIcSt11char_traitsIcESaIcEED1Ev
DA:68,0
BA:68,0
BA:68,0
LF:1
LH:0
end_of_record
SF:/usr/include/c++/4.3/iostream
DA:77,1
LF:1
LH:1
end_of_record
SF:/usr/include/c++/4.3/new
FN:105,_ZnwjPv
DA:105,0
LF:1
LH:0
end_of_record
SF:/usr/include/c++/4.3/ostream
FN:112,_ZNSolsEPFRSoS_E
FN:365,_ZNSoC2Ev
FN:95,_ZNSoD2Ev
FN:512,_ZStlsISt11char_traitsIcEERSt13basic_ostreamIcT_ES5_PKc
FN:566,_ZSt5flushIcSt11char_traitsIcEERSt13basic_ostreamIT_T0_ES6_
FN:545,_ZSt4endlIcSt11char_traitsIcEERSt13basic_ostreamIT_T0_ES6_
FN:195,_ZNSolsEj
DA:95,0
DA:112,0
DA:117,0
DA:195,0
DA:199,0
DA:365,0
DA:366,0
DA:512,0
DA:514,0
DA:515,0
DA:517,0
DA:519,0
DA:545,0
DA:546,0
DA:566,0
DA:567,0
BA:95,0
BA:95,0
BA:95,0
BA:95,0
BA:514,0
BA:514,0
LF:16
LH:0
end_of_record
SF:/usr/include/c++/4.3/sstream
FN:96,_ZNSt15basic_stringbufIcSt11char_traitsIcESaIcEEC1ESt13_Ios_Openmode
FN:402,_ZNSt19basic_ostringstreamIcSt11char_traitsIcESaIcEEC1ESt13_Ios_Openmode
FN:431,_ZNSt19basic_ostringstreamIcSt11char_traitsIcESaIcEED1Ev
FN:124,_ZNKSt15basic_stringbufIcSt11char_traitsIcESaIcEE3strEv
FN:450,_ZNKSt19basic_ostringstreamIcSt11char_traitsIcESaIcEE3strEv
DA:96,0
DA:97,0
DA:98,0
DA:124,0
DA:126,0
DA:127,0
DA:130,0
DA:131,0
DA:133,0
DA:136,0
DA:137,0
DA:402,0
DA:403,0
DA:404,0
DA:431,0
DA:432,0
DA:450,0
DA:451,0
BA:127,0
BA:127,0
BA:130,0
BA:130,0
BA:432,0
BA:432,0
BA:432,0
BA:432,0
BA:432,0
BA:432,0
LF:18
LH:0
end_of_record
SF:/usr/include/c++/4.3/streambuf
FN:513,_ZNKSt15basic_streambufIcSt11char_traitsIcEE4pptrEv
FN:469,_ZNKSt15basic_streambufIcSt11char_traitsIcEE5egptrEv
FN:510,_ZNKSt15basic_streambufIcSt11char_traitsIcEE5pbaseEv
FN:444,_ZNSt15basic_streambufIcSt11char_traitsIcEEC2Ev
FN:197,_ZNSt15basic_streambufIcSt11char_traitsIcEED2Ev
DA:197,0
DA:198,0
DA:444,0
DA:447,0
DA:448,0
DA:469,0
DA:510,0
DA:513,0
BA:198,0
BA:198,0
LF:8
LH:0
end_of_record
SF:/usr/include/c++/4.3/typeinfo
FN:122,_ZNKSt9type_info6beforeERKS_
DA:122,0
DA:123,0
LF:2
LH:0
end_of_record
TN:
SF:/home/mornfall/dev/pkg/ept-work/wibble/commandline/core.h
FN:21,_ZNK6wibble9exception9BadOption4typeEv
FN:52,_ZN6wibble11commandline7ManagedC2Ev
FN:22,_ZNK6wibble9exception9BadOption4descEv
FN:54,_ZN6wibble11commandline7ManagedD2Ev
FN:54,_ZN6wibble11commandline7ManagedD0Ev
FN:54,_ZN6wibble11commandline7ManagedD1Ev
FN:19,_ZN6wibble9exception9BadOptionD0Ev
FN:17,_ZN6wibble9exception9BadOptionC1ERKSsS3_
FN:34,_ZN6wibble11commandline7ArgList15eraseAndAdvanceERSt14_List_iteratorISsE
FN:19,_ZN6wibble9exception9BadOptionD1Ev
DA:17,0
DA:18,0
DA:19,0
DA:21,0
DA:22,0
DA:34,0
DA:36,0
DA:37,0
DA:38,0
DA:39,0
DA:40,0
DA:41,0
DA:42,0
DA:52,0
DA:54,0
BA:19,0
BA:19,0
BA:19,0
BA:19,0
BA:36,0
BA:36,0
BA:54,0
BA:54,0
BA:54,0
BA:54,0
BA:54,0
BA:54,0
LF:15
LH:0
end_of_record
SF:/home/mornfall/dev/pkg/ept-work/wibble/commandline/options.h
FN:97,_ZNK6wibble11commandline6Option5isSetEv
FN:98,_ZNK6wibble11commandline6Option4nameEv
FN:135,_ZN6wibble11commandline10BoolOption5parseERNS0_7ArgListESt14_List_iteratorISsE
FN:136,_ZN6wibble11commandline10BoolOption5parseERKSs
FN:139,_ZNK6wibble11commandline10BoolOption9boolValueEv
FN:272,_ZNK6wibble11commandline12VectorOptionINS0_4BoolEE6valuesEv
FN:272,_ZNK6wibble11commandline12VectorOptionINS0_6StringEE6valuesEv
FN:271,_ZNK6wibble11commandline12VectorOptionINS0_4BoolEE9boolValueEv
FN:271,_ZNK6wibble11commandline12VectorOptionINS0_6StringEE9boolValueEv
FN:140,_ZNK6wibble11commandline10BoolOption11stringValueEv
FN:254,_ZN6wibble11commandline12VectorOptionINS0_6StringEE5parseERNS0_7ArgListESt14_List_iteratorISsE
FN:263,_ZN6wibble11commandline12VectorOptionINS0_6StringEE5parseERKSs
FN:95,_ZN6wibble11commandline6OptionD2Ev
FN:234,_ZN6wibble11commandline12VectorOptionINS0_6StringEED2Ev
FN:234,_ZN6wibble11commandline12VectorOptionINS0_6StringEED0Ev
FN:234,_ZN6wibble11commandline12VectorOptionINS0_6StringEED1Ev
FN:234,_ZN6wibble11commandline12VectorOptionINS0_4BoolEED2Ev
FN:234,_ZN6wibble11commandline12VectorOptionINS0_4BoolEED0Ev
FN:234,_ZN6wibble11commandline12VectorOptionINS0_4BoolEED1Ev
FN:148,_ZN6wibble11commandline12SingleOptionINS0_3IntEED2Ev
FN:205,_ZN6wibble11commandline9IntOptionD2Ev
FN:205,_ZN6wibble11commandline9IntOptionD0Ev
FN:205,_ZN6wibble11commandline9IntOptionD1Ev
FN:148,_ZN6wibble11commandline12SingleOptionINS0_3IntEED0Ev
FN:148,_ZN6wibble11commandline12SingleOptionINS0_3IntEED1Ev
FN:122,_ZN6wibble11commandline10BoolOptionD2Ev
FN:122,_ZN6wibble11commandline10BoolOptionD0Ev
FN:122,_ZN6wibble11commandline10BoolOptionD1Ev
FN:95,_ZN6wibble11commandline6OptionD0Ev
FN:95,_ZN6wibble11commandline6OptionD1Ev
FN:59,_ZN6wibble11commandline6OptionC2ERKSs
FN:238,_ZN6wibble11commandline12VectorOptionINS0_6StringEEC2ERKSs
FN:238,_ZN6wibble11commandline12VectorOptionINS0_4BoolEEC2ERKSs
FN:152,_ZN6wibble11commandline12SingleOptionINS0_3IntEEC2ERKSs
FN:207,_ZN6wibble11commandline9IntOptionC2ERKSs
FN:126,_ZN6wibble11commandline10BoolOptionC2ERKSs
FN:168,_ZN6wibble11commandline12SingleOptionINS0_6StringEE5parseERNS0_7ArgListESt14_List_iteratorISsE
FN:148,_ZN6wibble11commandline12SingleOptionINS0_6StringEED2Ev
FN:177,_ZN6wibble11commandline12SingleOptionINS0_6StringEE5parseERKSs
FN:148,_ZN6wibble11commandline12SingleOptionINS0_6StringEED0Ev
FN:148,_ZN6wibble11commandline12SingleOptionINS0_6StringEED1Ev
FN:152,_ZN6wibble11commandline12SingleOptionINS0_6StringEEC2ERKSs
FN:254,_ZN6wibble11commandline12VectorOptionINS0_4BoolEE5parseERNS0_7ArgListESt14_List_iteratorISsE
FN:263,_ZN6wibble11commandline12VectorOptionINS0_4BoolEE5parseERKSs
FN:192,_ZNK6wibble11commandline12SingleOptionINS0_6StringEE9boolValueEv
FN:194,_ZNK6wibble11commandline12SingleOptionINS0_6StringEE11stringValueEv
FN:168,_ZN6wibble11commandline12SingleOptionINS0_3IntEE5parseERNS0_7ArgListESt14_List_iteratorISsE
FN:177,_ZN6wibble11commandline12SingleOptionINS0_3IntEE5parseERKSs
FN:192,_ZNK6wibble11commandline12SingleOptionINS0_3IntEE9boolValueEv
FN:193,_ZNK6wibble11commandline12SingleOptionINS0_3IntEE8intValueEv
FN:194,_ZNK6wibble11commandline12SingleOptionINS0_3IntEE11stringValueEv
DA:59,5
DA:95,0
DA:97,12
DA:98,5
DA:122,1
DA:126,1
DA:127,1
DA:135,0
DA:136,0
DA:139,0
DA:140,2
DA:148,1
DA:152,2
DA:153,2
DA:155,2
DA:156,2
DA:168,0
DA:170,0
DA:171,0
DA:172,0
DA:173,0
DA:175,0
DA:177,0
DA:179,0
DA:180,0
DA:181,0
DA:192,2
DA:193,0
DA:194,2
DA:205,1
DA:207,1
DA:209,1
DA:210,1
DA:234,2
DA:238,2
DA:239,2
DA:241,2
DA:242,2
DA:254,0
DA:256,0
DA:257,0
DA:258,0
DA:259,0
DA:261,0
DA:263,4
DA:265,4
DA:266,4
DA:267,4
DA:271,6
DA:272,12
BA:95,0
BA:95,0
BA:95,0
BA:95,0
BA:95,0
BA:95,0
BA:122,1
BA:122,2
BA:122,0
BA:122,0
BA:122,0
BA:122,0
BA:140,2
BA:140,2
BA:148,0
BA:148,0
BA:148,0
BA:148,0
BA:148,0
BA:148,0
BA:148,1
BA:148,2
BA:148,0
BA:148,0
BA:148,0
BA:148,0
BA:170,0
BA:170,0
BA:170,0
BA:170,0
BA:205,1
BA:205,2
BA:205,0
BA:205,0
BA:205,0
BA:205,0
BA:234,1
BA:234,2
BA:234,0
BA:234,0
BA:234,0
BA:234,0
BA:234,1
BA:234,2
BA:234,0
BA:234,0
BA:234,0
BA:234,0
BA:256,0
BA:256,0
BA:256,0
BA:256,0
LF:50
LH:29
end_of_record
SF:/home/mornfall/dev/pkg/ept-work/wibble/exception.h
FN:190,_ZNK6wibble9exception7Generic4typeEv
FN:263,_ZNK6wibble9exception11Consistency4typeEv
FN:213,_ZNK6wibble9exception7Generic4whatEv
FN:265,_ZNK6wibble9exception11Consistency4descEv
FN:193,_ZNK6wibble9exception7Generic4descEv
FN:109,_ZN6wibble9exception10AddContext7contextEv
FN:154,_ZNK6wibble9exception7Context13formatContextEv
FN:205,_ZNK6wibble9exception7Generic8fullInfoEv
FN:137,_ZN6wibble9exception7ContextD2Ev
FN:187,_ZN6wibble9exception7GenericD0Ev
FN:187,_ZN6wibble9exception7GenericD1Ev
FN:187,_ZN6wibble9exception7GenericD2Ev
FN:261,_ZN6wibble9exception11ConsistencyD0Ev
FN:261,_ZN6wibble9exception11ConsistencyD1Ev
FN:261,_ZN6wibble9exception11ConsistencyD2Ev
FN:117,_ZN6wibble9exception10AddContext11copyContextISt20back_insert_iteratorISt6vectorISsSaISsEEEEEvT_
FN:153,_ZN6wibble9exception7Context10addContextERKSs
FN:147,_ZN6wibble9exception7ContextC2ERKSs
FN:186,_ZN6wibble9exception7GenericC2ERKSs
FN:259,_ZN6wibble9exception11ConsistencyC2ERKSsS3_
DA:109,0
DA:110,0
DA:111,0
DA:112,0
DA:113,0
DA:117,0
DA:118,0
DA:119,0
DA:137,0
DA:147,0
DA:148,0
DA:149,0
DA:150,0
DA:151,0
DA:153,0
DA:154,0
DA:155,0
DA:156,0
DA:157,0
DA:159,0
DA:161,0
DA:162,0
DA:163,0
DA:186,0
DA:187,0
DA:190,0
DA:193,0
DA:194,0
DA:195,0
DA:205,0
DA:206,0
DA:207,0
DA:209,0
DA:210,0
DA:213,0
DA:259,0
DA:260,0
DA:261,0
DA:263,0
DA:265,0
DA:266,0
DA:267,0
DA:268,0
DA:269,0
BA:110,0
BA:110,0
BA:156,0
BA:156,0
BA:187,0
BA:187,0
BA:187,0
BA:187,0
BA:187,0
BA:187,0
BA:207,0
BA:207,0
BA:261,0
BA:261,0
BA:261,0
BA:261,0
BA:261,0
BA:261,0
BA:267,0
BA:267,0
LF:44
LH:0
end_of_record
SF:/home/mornfall/dev/pkg/ept-work/wibble/test.h
FN:13,_ZN8LocationC1ERKS_
FN:17,_ZN8LocationC1EPKciSs
FN:52,_ZlsISsER12AssertFailedS1_T_
FN:52,_ZlsIPKcER12AssertFailedS3_T_
FN:52,_ZlsIiER12AssertFailedS1_T_
FN:52,_ZlsIbER12AssertFailedS1_T_
FN:52,_ZlsIjER12AssertFailedS1_T_
FN:33,_ZN12AssertFailedC1E8LocationRSo
FN:41,_ZN12AssertFailedD1Ev
FN:13,_ZN8LocationD1Ev
FN:67,_Z12assert_eq_fnIbbEv8LocationT_T0_
FN:67,_Z12assert_eq_fnIjjEv8LocationT_T0_
FN:67,_Z12assert_eq_fnIiiEv8LocationT_T0_
FN:67,_Z12assert_eq_fnISsSsEv8LocationT_T0_
FN:67,_Z12assert_eq_fnISsPKcEv8LocationT_T0_
DA:13,0
DA:17,0
DA:18,0
DA:33,0
DA:34,0
DA:36,0
DA:38,0
DA:39,0
DA:41,0
DA:42,0
DA:43,0
DA:45,0
DA:46,0
DA:48,0
DA:52,0
DA:54,0
DA:55,0
DA:67,0
DA:69,0
DA:70,0
DA:71,0
DA:75,0
BA:42,0
BA:42,0
BA:69,0
BA:69,0
BA:69,0
BA:69,0
BA:69,0
BA:69,0
BA:69,0
BA:69,0
BA:69,0
BA:69,0
LF:22
LH:0
end_of_record
SF:/home/mornfall/dev/pkg/ept-work/wibble/commandline/options.test.h
FN:30,_ZN22TestCommandlineOptions6PublicIN6wibble11commandline10BoolOptionEE5parseERKSs
FN:27,_ZN22TestCommandlineOptions6PublicIN6wibble11commandline10BoolOptionEE5parseERNS2_7ArgListESt14_List_iteratorISsE
FN:27,_ZN22TestCommandlineOptions6PublicIN6wibble11commandline12VectorOptionINS2_6StringEEEE5parseERNS2_7ArgListESt14_List_iteratorISsE
FN:30,_ZN22TestCommandlineOptions6PublicIN6wibble11commandline12VectorOptionINS2_6StringEEEE5parseERKSs
FN:16,_ZN22TestCommandlineOptions6PublicIN6wibble11commandline12VectorOptionINS2_6StringEEEED0Ev
FN:16,_ZN22TestCommandlineOptions6PublicIN6wibble11commandline12VectorOptionINS2_6StringEEEED1Ev
FN:16,_ZN22TestCommandlineOptions6PublicIN6wibble11commandline12VectorOptionINS2_4BoolEEEED0Ev
FN:16,_ZN22TestCommandlineOptions6PublicIN6wibble11commandline12VectorOptionINS2_4BoolEEEED1Ev
FN:16,_ZN22TestCommandlineOptions6PublicIN6wibble11commandline9IntOptionEED0Ev
FN:16,_ZN22TestCommandlineOptions6PublicIN6wibble11commandline9IntOptionEED1Ev
FN:16,_ZN22TestCommandlineOptions6PublicIN6wibble11commandline10BoolOptionEED0Ev
FN:16,_ZN22TestCommandlineOptions6PublicIN6wibble11commandline10BoolOptionEED1Ev
FN:18,_ZN22TestCommandlineOptions6PublicIN6wibble11commandline12VectorOptionINS2_6StringEEEEC1ERKSs
FN:18,_ZN22TestCommandlineOptions6PublicIN6wibble11commandline12VectorOptionINS2_4BoolEEEEC1ERKSs
FN:18,_ZN22TestCommandlineOptions6PublicIN6wibble11commandline9IntOptionEEC1ERKSs
FN:18,_ZN22TestCommandlineOptions6PublicIN6wibble11commandline10BoolOptionEEC1ERKSs
FN:100,_ZN22TestCommandlineOptions15vectorStringOptEv
FN:27,_ZN22TestCommandlineOptions6PublicIN6wibble11commandline12SingleOptionINS2_6StringEEEE5parseERNS2_7ArgListESt14_List_iteratorISsE
FN:16,_ZN22TestCommandlineOptions6PublicIN6wibble11commandline12SingleOptionINS2_6StringEEEED0Ev
FN:16,_ZN22TestCommandlineOptions6PublicIN6wibble11commandline12SingleOptionINS2_6StringEEEED1Ev
FN:30,_ZN22TestCommandlineOptions6PublicIN6wibble11commandline12SingleOptionINS2_6StringEEEE5parseERKSs
FN:18,_ZN22TestCommandlineOptions6PublicIN6wibble11commandline12SingleOptionINS2_6StringEEEEC1ERKSs
FN:35,_ZN22TestCommandlineOptions7boolOptEv
FN:27,_ZN22TestCommandlineOptions6PublicIN6wibble11commandline12VectorOptionINS2_4BoolEEEE5parseERNS2_7ArgListESt14_List_iteratorISsE
FN:30,_ZN22TestCommandlineOptions6PublicIN6wibble11commandline12VectorOptionINS2_4BoolEEEE5parseERKSs
FN:79,_ZN22TestCommandlineOptions13vectorBoolOptEv
FN:65,_ZN22TestCommandlineOptions9stringOptEv
FN:27,_ZN22TestCommandlineOptions6PublicIN6wibble11commandline9IntOptionEE5parseERNS2_7ArgListESt14_List_iteratorISsE
FN:30,_ZN22TestCommandlineOptions6PublicIN6wibble11commandline9IntOptionEE5parseERKSs
FN:49,_ZN22TestCommandlineOptions6intOptEv
DA:16,5
DA:18,5
DA:19,5
DA:27,0
DA:28,0
DA:30,7
DA:31,7
DA:35,1
DA:36,1
DA:38,2
DA:39,2
DA:40,2
DA:41,2
DA:43,2
DA:44,1
DA:45,2
DA:46,2
DA:47,1
DA:49,1
DA:50,1
DA:52,2
DA:53,2
DA:54,2
DA:55,2
DA:56,2
DA:58,2
DA:59,2
DA:60,2
DA:61,2
DA:62,2
DA:63,1
DA:65,1
DA:66,1
DA:68,2
DA:69,2
DA:70,2
DA:71,2
DA:73,1
DA:74,2
DA:75,2
DA:76,2
DA:77,1
DA:79,1
DA:80,1
DA:81,2
DA:82,2
DA:83,2
DA:84,2
DA:86,2
DA:87,2
DA:88,2
DA:89,2
DA:90,2
DA:92,2
DA:93,2
DA:94,2
DA:95,2
DA:96,2
DA:97,2
DA:98,1
DA:100,1
DA:101,1
DA:102,2
DA:103,2
DA:104,2
DA:105,2
DA:107,2
DA:108,2
DA:109,2
DA:110,2
DA:111,2
DA:113,1
DA:114,2
DA:115,2
DA:116,2
DA:117,2
DA:118,1
DA:119,1
BA:16,0
BA:16,0
BA:16,1
BA:16,2
BA:16,0
BA:16,0
BA:16,1
BA:16,2
BA:16,0
BA:16,0
BA:16,1
BA:16,2
BA:16,0
BA:16,0
BA:16,1
BA:16,2
BA:16,0
BA:16,0
BA:16,1
BA:16,2
LF:78
LH:76
end_of_record
SF:/srv/build/pkg/ept-work/default/wibble/wibble-test-generated-_home_mornfall_dev_pkg_ept-work_wibble_commandline_options.cpp
FN:7,_Z41__static_initialization_and_destruction_0ii
FN:7,_GLOBAL__I__Z30run_CommandlineOptions_boolOptv
FN:7,_Z38run_CommandlineOptions_vectorStringOptv
FN:3,_Z30run_CommandlineOptions_boolOptv
FN:6,_Z36run_CommandlineOptions_vectorBoolOptv
FN:5,_Z32run_CommandlineOptions_stringOptv
FN:4,_Z29run_CommandlineOptions_intOptv
DA:3,1
DA:4,1
DA:5,1
DA:6,1
DA:7,4
BA:7,2
BA:7,1
BA:7,2
BA:7,1
LF:5
LH:5
end_of_record
SF:/usr/include/c++/4.3/bits/allocator.h
FN:98,_ZNSaIcEC2Ev
FN:98,_ZNSaIcEC1Ev
FN:106,_ZNSaIcED2Ev
FN:106,_ZNSaIcED1Ev
FN:100,_ZNSaIcEC2ERKS_
FN:100,_ZNSaIcEC1ERKS_
FN:106,_ZNSaISsED2Ev
FN:106,_ZNSaISsED1Ev
FN:106,_ZNSaImED2Ev
FN:98,_ZNSaISsEC2Ev
FN:104,_ZNSaISsEC1ISt10_List_nodeISsEEERKSaIT_E
FN:118,_ZSteqIcEbRKSaIT_ES3_
FN:98,_ZNSaImEC2Ev
DA:98,1
DA:100,0
DA:101,0
DA:104,0
DA:106,1
DA:118,0
DA:119,0
LF:7
LH:2
end_of_record
SF:/usr/include/c++/4.3/bits/basic_ios.h
FN:131,_ZNKSt9basic_iosIcSt11char_traitsIcEE7rdstateEv
FN:454,_ZNSt9basic_iosIcSt11char_traitsIcEEC2Ev
FN:276,_ZNSt9basic_iosIcSt11char_traitsIcEED2Ev
FN:151,_ZNSt9basic_iosIcSt11char_traitsIcEE8setstateESt12_Ios_Iostate
FN:51,_ZSt13__check_facetISt5ctypeIcEERKT_PS3_
FN:443,_ZNKSt9basic_iosIcSt11char_traitsIcEE5widenEc
DA:51,0
DA:53,0
DA:54,0
DA:55,0
DA:131,0
DA:132,0
DA:151,0
DA:152,0
DA:276,0
DA:443,0
DA:444,0
DA:454,0
DA:456,0
DA:457,0
BA:53,0
BA:53,0
BA:276,0
BA:276,0
LF:14
LH:0
end_of_record
SF:/usr/include/c++/4.3/bits/basic_string.h
FN:277,_ZNKSs7_M_dataEv
FN:1534,_ZNKSs5c_strEv
FN:258,_ZNSs12_Alloc_hiderD1Ev
FN:285,_ZNKSs6_M_repEv
FN:606,_ZNKSs4sizeEv
FN:686,_ZNKSs5emptyEv
FN:612,_ZNKSs6lengthEv
FN:214,_ZNSs4_Rep10_M_refdataEv
FN:1544,_ZNKSs4dataEv
FN:178,_ZNSs4_Rep12_S_empty_repEv
FN:411,_ZNSs12_S_empty_repEv
FN:259,_ZNSs12_Alloc_hiderC1EPcRKSaIcE
FN:2067,_ZNSsC1Ev
FN:1551,_ZNKSs13get_allocatorEv
FN:200,_ZNSs4_Rep15_M_set_sharableEv
FN:204,_ZNSs4_Rep26_M_set_length_and_sharableEj
FN:2421,_ZStlsIcSt11char_traitsIcESaIcEERSt13basic_ostreamIT_T0_ES7_RKSbIS4_S5_T1_E
FN:339,_ZNSs7_M_copyEPcPKcj
FN:384,_ZNSs13_S_copy_charsEPcS_S_
FN:1462,_ZNSs16_S_construct_auxIPcEES0_T_S1_RKSaIcESt12__false_type
FN:1478,_ZNSs12_S_constructIPcEES0_T_S1_RKSaIcE
FN:835,_ZNSs6appendEPKc
FN:501,_ZNSsaSERKSs
FN:928,_ZNSs6assignEPKc
FN:509,_ZNSsaSEPKc
FN:2162,_ZSteqIcEN9__gnu_cxx11__enable_ifIXsrSt9__is_charIT_E7__valueEbE6__typeERKSbIS3_St11char_traitsIS3_ESaIS3_EESC_
FN:2188,_ZSteqIcSt11char_traitsIcESaIcEEbRKSbIT_T0_T1_EPKS3_
FN:229,_ZNSs4_Rep10_M_disposeERKSaIcE
FN:493,_ZNSsD1Ev
FN:2121,_ZStplIcSt11char_traitsIcESaIcEESbIT_T0_T1_ERKS6_PKS3_
FN:2084,_ZStplIcSt11char_traitsIcESaIcEESbIT_T0_T1_ERKS6_S8_
DA:178,0
DA:183,0
DA:184,0
DA:200,0
DA:201,0
DA:204,0
DA:206,0
DA:207,0
DA:208,0
DA:211,0
DA:214,0
DA:215,0
DA:229,0
DA:232,0
DA:234,0
DA:236,0
DA:237,0
DA:258,0
DA:259,0
DA:260,0
DA:277,0
DA:278,0
DA:285,0
DA:286,0
DA:339,0
DA:341,0
DA:342,0
DA:344,0
DA:345,0
DA:384,0
DA:385,0
DA:411,0
DA:412,0
DA:493,0
DA:494,0
DA:501,0
DA:502,0
DA:509,0
DA:510,0
DA:606,0
DA:607,0
DA:612,0
DA:613,0
DA:686,0
DA:687,0
DA:835,0
DA:838,0
DA:928,0
DA:931,0
DA:1462,0
DA:1465,0
DA:1478,0
DA:1481,0
DA:1534,0
DA:1535,0
DA:1544,0
DA:1545,0
DA:1551,0
DA:1552,0
DA:2067,0
DA:2069,0
DA:2084,0
DA:2086,0
DA:2087,0
DA:2088,0
DA:2121,0
DA:2123,0
DA:2124,0
DA:2125,0
DA:2162,0
DA:2165,0
DA:2188,0
DA:2189,0
DA:2421,0
DA:2425,0
BA:232,0
BA:232,0
BA:234,0
BA:234,0
BA:341,0
BA:341,0
BA:2165,0
BA:2165,0
BA:2165,0
BA:2165,0
LF:75
LH:0
end_of_record
SF:/usr/include/c++/4.3/bits/basic_string.tcc
FN:130,_ZNSs12_S_constructIPcEES0_T_S1_RKSaIcESt20forward_iterator_tag
FN:234,_ZNSsC1IPcEET_S1_RKSaIcE
DA:130,0
DA:133,0
DA:134,0
DA:137,0
DA:139,0
DA:142,0
DA:144,0
DA:146,0
DA:147,0
DA:149,0
DA:150,0
DA:152,0
DA:153,0
DA:234,0
DA:235,0
DA:236,0
BA:133,0
BA:133,0
BA:133,0
BA:133,0
BA:133,0
BA:133,0
BA:133,0
BA:133,0
BA:137,0
BA:137,0
BA:137,0
BA:137,0
BA:137,0
BA:137,0
LF:16
LH:0
end_of_record
SF:/usr/include/c++/4.3/bits/char_traits.h
FN:245,_ZNSt11char_traitsIcE6assignERcRKc
FN:261,_ZNSt11char_traitsIcE6lengthEPKc
FN:273,_ZNSt11char_traitsIcE4copyEPcPKcj
FN:257,_ZNSt11char_traitsIcE7compareEPKcS2_j
DA:245,0
DA:246,0
DA:257,0
DA:258,0
DA:261,0
DA:262,0
DA:273,0
DA:274,0
LF:8
LH:0
end_of_record
SF:/usr/include/c++/4.3/bits/ios_base.h
FN:125,_ZStorSt13_Ios_OpenmodeS_
FN:163,_ZStorSt12_Ios_IostateS_
DA:125,0
DA:126,0
DA:163,0
DA:164,0
LF:4
LH:0
end_of_record
SF:/usr/include/c++/4.3/bits/list.tcc
FN:109,_ZNSt4listISsSaISsEE5eraseESt14_List_iteratorISsE
DA:109,0
DA:111,0
DA:112,0
LF:3
LH:0
end_of_record
SF:/usr/include/c++/4.3/bits/locale_facets.h
FN:1165,_ZNKSt5ctypeIcE13_M_widen_initEv
FN:871,_ZNKSt5ctypeIcE5widenEc
DA:871,0
DA:873,0
DA:874,0
DA:875,0
DA:876,0
DA:1165,0
DA:1168,0
DA:1169,0
DA:1170,0
DA:1172,0
DA:1174,0
DA:1175,0
DA:1176,0
BA:873,0
BA:873,0
BA:1168,0
BA:1168,0
BA:1174,0
BA:1174,0
LF:13
LH:0
end_of_record
SF:/usr/include/c++/4.3/bits/stl_algobase.h
FN:268,_ZNSt12__niter_baseIPmLb0EE3__bES0_
FN:286,_ZNSt12__miter_baseIN9__gnu_cxx17__normal_iteratorIPKSsSt6vectorISsSaISsEEEELb0EE3__bES7_
FN:286,_ZNSt12__miter_baseIN9__gnu_cxx17__normal_iteratorIPSsSt6vectorISsSaISsEEEELb0EE3__bES6_
FN:276,_ZNSt12__niter_baseIN9__gnu_cxx17__normal_iteratorIPKSsSt6vectorISsSaISsEEEELb1EE3__bES7_
FN:268,_ZNSt12__niter_baseISt16ostream_iteratorISscSt11char_traitsIcEELb0EE3__bES3_
FN:286,_ZNSt12__miter_baseIPSsLb0EE3__bES0_
FN:210,_ZSt3maxIjERKT_S2_S2_
FN:276,_ZNSt12__niter_baseIN9__gnu_cxx17__normal_iteratorIPSsSt6vectorISsSaISsEEEELb1EE3__bES6_
FN:268,_ZNSt12__niter_baseISt20back_insert_iteratorISt6vectorISsSaISsEEELb0EE3__bES4_
FN:268,_ZNSt12__niter_baseIPSsLb0EE3__bES0_
FN:286,_ZNSt12__miter_baseISt13_Bit_iteratorLb0EE3__bES0_
FN:268,_ZNSt12__niter_baseISt13_Bit_iteratorLb0EE3__bES0_
FN:286,_ZNSt12__miter_baseIPmLb0EE3__bES0_
FN:286,_ZNSt12__miter_baseISt19_Bit_const_iteratorLb0EE3__bES0_
FN:539,_ZNSt20__copy_move_backwardILb0ELb0ESt26random_access_iterator_tagE13__copy_move_bISt13_Bit_iteratorS3_EET0_T_S5_S4_
FN:579,_ZSt22__copy_move_backward_aILb0ESt13_Bit_iteratorS0_ET1_T0_S2_S1_
FN:597,_ZSt23__copy_move_backward_a2ILb0ESt13_Bit_iteratorS0_ET1_T0_S2_S1_
FN:624,_ZSt13copy_backwardISt13_Bit_iteratorS0_ET0_T_S2_S1_
FN:268,_ZNSt12__niter_baseISt19_Bit_const_iteratorLb0EE3__bES0_
FN:337,_ZNSt11__copy_moveILb0ELb0ESt26random_access_iterator_tagE8__copy_mISt13_Bit_iteratorS3_EET0_T_S5_S4_
FN:385,_ZSt13__copy_move_aILb0ESt13_Bit_iteratorS0_ET1_T0_S2_S1_
FN:430,_ZSt14__copy_move_a2ILb0ESt13_Bit_iteratorS0_ET1_T0_S2_S1_
FN:456,_ZSt4copyISt13_Bit_iteratorS0_ET0_T_S2_S1_
FN:337,_ZNSt11__copy_moveILb0ELb0ESt26random_access_iterator_tagE8__copy_mISt19_Bit_const_iteratorSt13_Bit_iteratorEET0_T_S6_S5_
FN:385,_ZSt13__copy_move_aILb0ESt19_Bit_const_iteratorSt13_Bit_iteratorET1_T0_S3_S2_
FN:430,_ZSt14__copy_move_a2ILb0ESt19_Bit_const_iteratorSt13_Bit_iteratorET1_T0_S3_S2_
FN:456,_ZSt4copyISt19_Bit_const_iteratorSt13_Bit_iteratorET0_T_S3_S2_
FN:337,_ZNSt11__copy_moveILb0ELb0ESt26random_access_iterator_tagE8__copy_mIPKSsSt16ostream_iteratorISscSt11char_traitsIcEEEET0_T_SA_S9_
FN:385,_ZSt13__copy_move_aILb0EPKSsSt16ostream_iteratorISscSt11char_traitsIcEEET1_T0_S7_S6_
FN:430,_ZSt14__copy_move_a2ILb0EN9__gnu_cxx17__normal_iteratorIPKSsSt6vectorISsSaISsEEEESt16ostream_iteratorISscSt11char_traitsIcEEET1_T0_SD_SC_
FN:456,_ZSt4copyIN9__gnu_cxx17__normal_iteratorIPKSsSt6vectorISsSaISsEEEESt16ostream_iteratorISscSt11char_traitsIcEEET0_T_SD_SC_
FN:539,_ZNSt20__copy_move_backwardILb0ELb0ESt26random_access_iterator_tagE13__copy_move_bIPSsS3_EET0_T_S5_S4_
FN:579,_ZSt22__copy_move_backward_aILb0EPSsS0_ET1_T0_S2_S1_
FN:597,_ZSt23__copy_move_backward_a2ILb0EPSsS0_ET1_T0_S2_S1_
FN:624,_ZSt13copy_backwardIPSsS0_ET0_T_S2_S1_
FN:337,_ZNSt11__copy_moveILb0ELb0ESt26random_access_iterator_tagE8__copy_mIPSsSt20back_insert_iteratorISt6vectorISsSaISsEEEEET0_T_SA_S9_
FN:385,_ZSt13__copy_move_aILb0EPSsSt20back_insert_iteratorISt6vectorISsSaISsEEEET1_T0_S7_S6_
FN:430,_ZSt14__copy_move_a2ILb0EN9__gnu_cxx17__normal_iteratorIPSsSt6vectorISsSaISsEEEESt20back_insert_iteratorIS5_EET1_T0_SA_S9_
FN:456,_ZSt4copyIN9__gnu_cxx17__normal_iteratorIPSsSt6vectorISsSaISsEEEESt20back_insert_iteratorIS5_EET0_T_SA_S9_
FN:375,_ZNSt11__copy_moveILb0ELb1ESt26random_access_iterator_tagE8__copy_mImEEPT_PKS3_S6_S4_
FN:385,_ZSt13__copy_move_aILb0EPmS0_ET1_T0_S2_S1_
FN:430,_ZSt14__copy_move_a2ILb0EPmS0_ET1_T0_S2_S1_
FN:456,_ZSt4copyIPmS0_ET0_T_S2_S1_
DA:210,0
DA:215,0
DA:216,0
DA:217,0
DA:268,9
DA:269,9
DA:276,0
DA:277,0
DA:286,6
DA:287,6
DA:337,2
DA:340,2
DA:342,0
DA:343,0
DA:344,0
DA:346,2
DA:375,1
DA:377,1
DA:379,1
DA:385,3
DA:393,3
DA:396,3
DA:430,3
DA:435,3
DA:456,3
DA:466,3
DA:539,0
DA:542,0
DA:543,0
DA:544,0
DA:579,0
DA:587,0
DA:592,0
DA:597,0
DA:602,0
DA:624,0
DA:636,0
BA:215,0
BA:215,0
BA:340,1
BA:340,2
BA:340,1
BA:340,2
BA:340,0
BA:340,0
BA:340,0
BA:340,0
BA:542,0
BA:542,0
BA:542,0
BA:542,0
LF:37
LH:17
end_of_record
SF:/usr/include/c++/4.3/bits/stl_bvector.h
FN:75,_ZNSt14_Bit_referenceC1EPmm
FN:80,_ZNKSt14_Bit_referencecvbEv
FN:84,_ZNSt14_Bit_referenceaSEb
FN:94,_ZNSt14_Bit_referenceaSERKS_
FN:116,_ZNSt18_Bit_iterator_baseC2EPmj
FN:120,_ZNSt18_Bit_iterator_base10_M_bump_upEv
FN:130,_ZNSt18_Bit_iterator_base12_M_bump_downEv
FN:140,_ZNSt18_Bit_iterator_base7_M_incrEi
FN:154,_ZNKSt18_Bit_iterator_baseeqERKS_
FN:182,_ZStmiRKSt18_Bit_iterator_baseS1_
FN:194,_ZNSt13_Bit_iteratorC1Ev
FN:196,_ZNSt13_Bit_iteratorC1EPmj
FN:200,_ZNKSt13_Bit_iteratordeEv
FN:204,_ZNSt13_Bit_iteratorppEv
FN:211,_ZNSt13_Bit_iteratorppEi
FN:219,_ZNSt13_Bit_iteratormmEv
FN:234,_ZNSt13_Bit_iteratorpLEi
FN:248,_ZNKSt13_Bit_iteratorplEi
FN:279,_ZNSt19_Bit_const_iteratorC1EPmj
FN:282,_ZNSt19_Bit_const_iteratorC1ERKSt13_Bit_iterator
FN:286,_ZNKSt19_Bit_const_iteratordeEv
FN:290,_ZNSt19_Bit_const_iteratorppEv
FN:669,_ZNKSt6vectorIbSaIbEEixEj
FN:592,_ZNKSt6vectorIbSaIbEE5beginEv
FN:600,_ZNKSt6vectorIbSaIbEE3endEv
FN:658,_ZNKSt6vectorIbSaIbEE5emptyEv
FN:638,_ZNKSt6vectorIbSaIbEE4sizeEv
FN:384,_ZNSt13_Bvector_baseISaIbEE13_Bvector_implD1Ev
FN:596,_ZNSt6vectorIbSaIbEE3endEv
FN:588,_ZNSt6vectorIbSaIbEE5beginEv
FN:389,_ZNSt13_Bvector_baseISaIbEE13_Bvector_implC1Ev
FN:413,_ZNSt13_Bvector_baseISaIbEEC2Ev
FN:505,_ZNSt6vectorIbSaIbEEC1Ev
FN:406,_ZNKSt13_Bvector_baseISaIbEE20_M_get_Bit_allocatorEv
FN:642,_ZNKSt6vectorIbSaIbEE8max_sizeEv
FN:444,_ZNSt13_Bvector_baseISaIbEE13_M_deallocateEv
FN:432,_ZNSt13_Bvector_baseISaIbEED2Ev
FN:543,_ZNSt6vectorIbSaIbEED1Ev
FN:986,_ZNKSt6vectorIbSaIbEE12_M_check_lenEjPKc
FN:439,_ZNSt13_Bvector_baseISaIbEE11_M_allocateEj
FN:826,_ZNSt6vectorIbSaIbEE15_M_copy_alignedESt19_Bit_const_iteratorS2_St13_Bit_iterator
FN:720,_ZNSt6vectorIbSaIbEE9push_backEb
DA:75,5
DA:76,5
DA:80,3
DA:81,3
DA:84,2
DA:86,2
DA:87,1
DA:89,1
DA:90,2
DA:94,0
DA:95,0
DA:116,31
DA:117,31
DA:120,2
DA:122,2
DA:124,0
DA:125,0
DA:127,2
DA:130,0
DA:132,0
DA:134,0
DA:135,0
DA:137,0
DA:140,0
DA:142,0
DA:143,0
DA:144,0
DA:145,0
DA:147,0
DA:148,0
DA:150,0
DA:151,0
DA:154,3
DA:155,3
DA:182,9
DA:185,9
DA:194,2
DA:196,3
DA:197,3
DA:200,2
DA:201,2
DA:204,0
DA:206,0
DA:207,0
DA:211,2
DA:213,2
DA:214,2
DA:219,0
DA:221,0
DA:222,0
DA:234,0
DA:236,0
DA:237,0
DA:248,0
DA:250,0
DA:251,0
DA:279,4
DA:280,4
DA:282,22
DA:283,22
DA:286,3
DA:287,3
DA:290,0
DA:292,0
DA:293,0
DA:384,1
DA:389,1
DA:390,1
DA:391,1
DA:406,2
DA:407,2
DA:413,1
DA:414,1
DA:432,1
DA:433,1
DA:439,1
DA:441,1
DA:444,2
DA:446,2
DA:447,1
DA:449,2
DA:505,1
DA:506,1
DA:543,1
DA:588,1
DA:589,1
DA:592,10
DA:593,10
DA:596,2
DA:597,2
DA:600,10
DA:601,10
DA:638,7
DA:639,7
DA:642,2
DA:646,2
DA:647,2
DA:649,2
DA:658,3
DA:659,3
DA:669,3
DA:672,3
DA:720,2
DA:722,2
DA:723,1
DA:725,1
DA:726,2
DA:826,1
DA:828,1
DA:830,1
DA:986,1
DA:988,1
DA:989,0
DA:991,1
DA:992,1
BA:86,2
BA:86,2
BA:122,1
BA:122,2
BA:132,0
BA:132,0
BA:145,0
BA:145,0
BA:155,2
BA:155,1
BA:155,2
BA:155,2
BA:446,2
BA:446,2
BA:649,1
BA:649,2
BA:722,2
BA:722,2
BA:988,1
BA:988,2
BA:992,2
BA:992,1
BA:992,1
BA:992,2
LF:115
LH:81
end_of_record
SF:/usr/include/c++/4.3/bits/stl_construct.h
FN:97,_ZSt8_DestroyIPcEvT_S1_
FN:126,_ZSt8_DestroyIPccEvT_S1_RSaIT0_E
FN:87,_ZSt8_DestroyISsEvPT_
FN:97,_ZSt8_DestroyIPSsEvT_S1_
FN:126,_ZSt8_DestroyIPSsSsEvT_S1_RSaIT0_E
DA:87,0
DA:88,0
DA:97,0
DA:101,0
DA:103,0
DA:104,0
DA:126,0
DA:128,0
DA:129,0
BA:101,0
BA:101,0
LF:9
LH:0
end_of_record
SF:/usr/include/c++/4.3/bits/stl_iterator.h
FN:695,_ZNK9__gnu_cxx17__normal_iteratorIPSsSt6vectorISsSaISsEEEdeEv
FN:398,_ZNSt20back_insert_iteratorISt6vectorISsSaISsEEEC1ERS2_
FN:456,_ZSt13back_inserterISt6vectorISsSaISsEEESt20back_insert_iteratorIT_ERS4_
FN:683,_ZN9__gnu_cxx17__normal_iteratorIPKSsSt6vectorISsSaISsEEEC1ERKS2_
FN:747,_ZNK9__gnu_cxx17__normal_iteratorIPSsSt6vectorISsSaISsEEE4baseEv
FN:683,_ZN9__gnu_cxx17__normal_iteratorIPSsSt6vectorISsSaISsEEEC1ERKS1_
FN:747,_ZNK9__gnu_cxx17__normal_iteratorIPKSsSt6vectorISsSaISsEEE4baseEv
FN:769,_ZN9__gnu_cxxeqIPKSsSt6vectorISsSaISsEEEEbRKNS_17__normal_iteratorIT_T0_EESB_
FN:429,_ZNSt20back_insert_iteratorISt6vectorISsSaISsEEEdeEv
FN:434,_ZNSt20back_insert_iteratorISt6vectorISsSaISsEEEppEv
FN:412,_ZNSt20back_insert_iteratorISt6vectorISsSaISsEEEaSERKSs
DA:398,0
DA:412,0
DA:414,0
DA:415,0
DA:429,0
DA:430,0
DA:434,0
DA:435,0
DA:456,0
DA:457,0
DA:683,0
DA:695,0
DA:696,0
DA:747,0
DA:748,0
DA:769,0
DA:770,0
LF:17
LH:0
end_of_record
SF:/usr/include/c++/4.3/bits/stl_iterator_base_funcs.h
FN:93,_ZSt10__distanceIPcENSt15iterator_traitsIT_E15difference_typeES2_S2_St26random_access_iterator_tag
FN:115,_ZSt8distanceIPcENSt15iterator_traitsIT_E15difference_typeES2_S2_
DA:93,0
DA:98,0
DA:115,0
DA:119,0
LF:4
LH:0
end_of_record
SF:/usr/include/c++/4.3/bits/stl_iterator_base_types.h
FN:111,_ZNSt8iteratorISt26random_access_iterator_tagbiPbRbEC2Ev
FN:111,_ZNSt8iteratorISt19output_iterator_tagvvvvEC2Ev
FN:166,_ZSt19__iterator_categoryIPcENSt15iterator_traitsIT_E17iterator_categoryERKS2_
DA:111,31
DA:166,0
DA:167,0
LF:3
LH:1
end_of_record
SF:/usr/include/c++/4.3/bits/stl_list.h
FN:169,_ZNKSt14_List_iteratorISsEeqERKS0_
FN:139,_ZNSt14_List_iteratorISsEppEv
FN:126,_ZNSt14_List_iteratorISsEC1EPSt15_List_node_base
FN:666,_ZNSt4listISsSaISsEE3endEv
FN:328,_ZNKSt10_List_baseISsSaISsEE21_M_get_Node_allocatorEv
FN:332,_ZNKSt10_List_baseISsSaISsEE19_M_get_Tp_allocatorEv
FN:131,_ZNKSt14_List_iteratorISsEdeEv
FN:317,_ZNSt10_List_baseISsSaISsEE11_M_put_nodeEPSt10_List_nodeISsE
FN:1356,_ZNSt4listISsSaISsEE8_M_eraseESt14_List_iteratorISsE
DA:126,0
DA:127,0
DA:131,0
DA:132,0
DA:139,0
DA:141,0
DA:142,0
DA:169,0
DA:170,0
DA:317,0
DA:318,0
DA:328,0
DA:329,0
DA:332,0
DA:333,0
DA:666,0
DA:667,0
DA:1356,0
DA:1358,0
DA:1359,0
DA:1360,0
DA:1361,0
DA:1362,0
LF:23
LH:0
end_of_record
SF:/usr/include/c++/4.3/bits/stl_uninitialized.h
FN:73,_ZNSt20__uninitialized_copyILb0EE18uninitialized_copyIPSsS2_EET0_T_S4_S3_
FN:113,_ZSt18uninitialized_copyIPSsS0_ET0_T_S2_S1_
FN:261,_ZSt22__uninitialized_copy_aIPSsS0_SsET0_T_S2_S1_RSaIT1_E
FN:268,_ZSt22__uninitialized_move_aIPSsS0_SaISsEET0_T_S3_S2_RT1_
DA:73,0
DA:75,0
DA:78,0
DA:79,0
DA:81,0
DA:83,0
DA:85,0
DA:86,0
DA:113,0
DA:122,0
DA:261,0
DA:262,0
DA:268,0
DA:272,0
BA:78,0
BA:78,0
BA:79,0
BA:79,0
LF:14
LH:0
end_of_record
SF:/usr/include/c++/4.3/bits/stl_vector.h
FN:484,_ZNKSt6vectorISsSaISsEE4sizeEv
FN:577,_ZNKSt6vectorISsSaISsEEixEj
FN:97,_ZNSt12_Vector_baseISsSaISsEE19_M_get_Tp_allocatorEv
FN:404,_ZNKSt6vectorISsSaISsEE3endEv
FN:386,_ZNKSt6vectorISsSaISsEE5beginEv
FN:79,_ZNSt12_Vector_baseIcSaIcEE12_Vector_implD1Ev
FN:97,_ZNSt12_Vector_baseIcSaIcEE19_M_get_Tp_allocatorEv
FN:395,_ZNSt6vectorISsSaISsEE3endEv
FN:377,_ZNSt6vectorISsSaISsEE5beginEv
FN:526,_ZNKSt6vectorISsSaISsEE5emptyEv
FN:84,_ZNSt12_Vector_baseIcSaIcEE12_Vector_implC1Ev
FN:108,_ZNSt12_Vector_baseIcSaIcEEC2Ev
FN:213,_ZNSt6vectorIcSaIcEEC1Ev
FN:79,_ZNSt12_Vector_baseISsSaISsEE12_Vector_implD1Ev
FN:84,_ZNSt12_Vector_baseISsSaISsEE12_Vector_implC1Ev
FN:108,_ZNSt12_Vector_baseISsSaISsEEC2Ev
FN:213,_ZNSt6vectorISsSaISsEEC1Ev
FN:101,_ZNKSt12_Vector_baseISsSaISsEE19_M_get_Tp_allocatorEv
FN:489,_ZNKSt6vectorISsSaISsEE8max_sizeEv
FN:147,_ZNSt12_Vector_baseISsSaISsEE13_M_deallocateEPSsj
FN:135,_ZNSt12_Vector_baseISsSaISsEED2Ev
FN:147,_ZNSt12_Vector_baseIcSaIcEE13_M_deallocateEPcj
FN:135,_ZNSt12_Vector_baseIcSaIcEED2Ev
FN:299,_ZNSt6vectorIcSaIcEED1Ev
FN:1075,_ZNKSt6vectorISsSaISsEE12_M_check_lenEjPKc
FN:143,_ZNSt12_Vector_baseISsSaISsEE11_M_allocateEj
FN:299,_ZNSt6vectorISsSaISsEED1Ev
FN:686,_ZNSt6vectorISsSaISsEE9push_backERKSs
DA:79,0
DA:84,0
DA:85,0
DA:86,0
DA:97,0
DA:98,0
DA:101,0
DA:102,0
DA:108,0
DA:109,0
DA:135,0
DA:136,0
DA:137,0
DA:143,0
DA:144,0
DA:147,0
DA:149,0
DA:150,0
DA:151,0
DA:213,0
DA:214,0
DA:299,0
DA:300,0
DA:301,0
DA:377,0
DA:378,0
DA:386,0
DA:387,0
DA:395,0
DA:396,0
DA:404,0
DA:405,0
DA:484,0
DA:485,0
DA:489,0
DA:490,0
DA:526,0
DA:527,0
DA:577,3
DA:578,3
DA:686,0
DA:688,0
DA:690,0
DA:691,0
DA:694,0
DA:695,0
DA:1075,0
DA:1077,0
DA:1078,0
DA:1080,0
DA:1081,0
BA:144,0
BA:144,0
BA:149,0
BA:149,0
BA:149,0
BA:149,0
BA:688,0
BA:688,0
BA:1077,0
BA:1077,0
BA:1081,0
BA:1081,0
BA:1081,0
BA:1081,0
LF:51
LH:2
end_of_record
SF:/usr/include/c++/4.3/bits/stream_iterator.h
FN:181,_ZNSt16ostream_iteratorISscSt11char_traitsIcEEC1ERSoPKc
FN:185,_ZNSt16ostream_iteratorISscSt11char_traitsIcEEC1ERKS2_
FN:202,_ZNSt16ostream_iteratorISscSt11char_traitsIcEEdeEv
FN:206,_ZNSt16ostream_iteratorISscSt11char_traitsIcEEppEv
FN:191,_ZNSt16ostream_iteratorISscSt11char_traitsIcEEaSERKSs
DA:181,0
DA:182,0
DA:185,0
DA:186,0
DA:191,0
DA:196,0
DA:197,0
DA:198,0
DA:202,0
DA:203,0
DA:206,0
DA:207,0
BA:197,0
BA:197,0
LF:12
LH:0
end_of_record
SF:/usr/include/c++/4.3/bits/vector.tcc
FN:283,_ZNSt6vectorISsSaISsEE13_M_insert_auxEN9__gnu_cxx17__normal_iteratorIPSsS1_EERKSs
FN:628,_ZNSt6vectorIbSaIbEE13_M_insert_auxESt13_Bit_iteratorb
DA:283,0
DA:286,0
DA:288,0
DA:291,0
DA:293,0
DA:295,0
DA:299,0
DA:307,0
DA:308,0
DA:309,0
DA:316,0
DA:321,0
DA:323,0
DA:324,0
DA:330,0
DA:332,0
DA:333,0
DA:334,0
DA:336,0
DA:338,0
DA:341,0
DA:342,0
DA:343,0
DA:345,0
DA:628,1
DA:630,1
DA:632,0
DA:634,0
DA:635,0
DA:640,1
DA:641,1
DA:643,1
DA:644,1
DA:645,1
DA:646,1
DA:647,1
DA:650,1
DA:652,1
BA:286,0
BA:286,0
BA:630,1
BA:630,2
LF:38
LH:11
end_of_record
SF:/usr/include/c++/4.3/exception
FN:59,_ZNSt9exceptionC2Ev
DA:59,0
LF:1
LH:0
end_of_record
SF:/usr/include/c++/4.3/ext/atomicity.h
FN:67,_ZN9__gnu_cxxL25__exchange_and_add_singleEPii
FN:50,_ZN9__gnu_cxxL18__exchange_and_addEPVii
FN:80,_ZN9__gnu_cxxL27__exchange_and_add_dispatchEPii
DA:50,0
DA:51,0
DA:67,0
DA:69,0
DA:70,0
DA:71,0
DA:80,0
DA:83,0
DA:84,0
DA:86,0
BA:83,0
BA:83,0
LF:10
LH:0
end_of_record
SF:/usr/include/c++/4.3/ext/new_allocator.h
FN:69,_ZN9__gnu_cxx13new_allocatorIcEC2Ev
FN:76,_ZN9__gnu_cxx13new_allocatorIcED2Ev
FN:71,_ZN9__gnu_cxx13new_allocatorIcEC2ERKS1_
FN:76,_ZN9__gnu_cxx13new_allocatorISsED2Ev
FN:76,_ZN9__gnu_cxx13new_allocatorImED2Ev
FN:69,_ZN9__gnu_cxx13new_allocatorISsEC2Ev
FN:101,_ZNK9__gnu_cxx13new_allocatorISsE8max_sizeEv
FN:69,_ZN9__gnu_cxx13new_allocatorImEC2Ev
FN:101,_ZNK9__gnu_cxx13new_allocatorImE8max_sizeEv
FN:107,_ZN9__gnu_cxx13new_allocatorISsE9constructEPSsRKSs
FN:97,_ZN9__gnu_cxx13new_allocatorISsE10deallocateEPSsj
FN:97,_ZN9__gnu_cxx13new_allocatorISt10_List_nodeISsEE10deallocateEPS2_j
FN:97,_ZN9__gnu_cxx13new_allocatorIcE10deallocateEPcj
FN:97,_ZN9__gnu_cxx13new_allocatorImE10deallocateEPmj
FN:87,_ZN9__gnu_cxx13new_allocatorISsE8allocateEjPKv
FN:87,_ZN9__gnu_cxx13new_allocatorImE8allocateEjPKv
FN:118,_ZN9__gnu_cxx13new_allocatorISsE7destroyEPSs
DA:69,1
DA:71,0
DA:76,1
DA:87,1
DA:89,1
DA:90,0
DA:92,1
DA:97,1
DA:98,1
DA:101,3
DA:102,3
DA:107,0
DA:108,0
DA:118,0
BA:89,0
BA:89,0
BA:89,1
BA:89,2
BA:108,0
BA:108,0
LF:14
LH:9
end_of_record
SF:/usr/include/c++/4.3/ext/type_traits.h
FN:154,_ZN9__gnu_cxx17__is_null_pointerIcEEbPT_
DA:154,0
DA:155,0
LF:2
LH:0
end_of_record
SF:/usr/include/c++/4.3/i486-linux-gnu/bits/gthr-default.h
FN:212,_ZL18__gthread_active_pv
DA:212,0
DA:216,0
LF:2
LH:0
end_of_record
SF:/usr/include/c++/4.3/iosfwd
FN:68,_ZNSt15basic_stringbufIcSt11char_traitsIcESaIcEED1Ev
DA:68,0
BA:68,0
BA:68,0
LF:1
LH:0
end_of_record
SF:/usr/include/c++/4.3/iostream
DA:77,1
LF:1
LH:1
end_of_record
SF:/usr/include/c++/4.3/istream
FN:585,_ZNSiC2Ev
FN:105,_ZNSiD2Ev
FN:804,_ZNSdC2Ev
FN:801,_ZNSdD2Ev
DA:105,0
DA:106,0
DA:585,0
DA:586,0
DA:587,0
DA:801,0
DA:804,0
DA:805,0
BA:106,0
BA:106,0
BA:106,0
BA:106,0
BA:801,0
BA:801,0
BA:801,0
BA:801,0
BA:801,0
BA:801,0
LF:8
LH:0
end_of_record
SF:/usr/include/c++/4.3/new
FN:105,_ZnwjPv
FN:109,_ZdlPvS_
DA:105,0
DA:109,0
LF:2
LH:0
end_of_record
SF:/usr/include/c++/4.3/ostream
FN:112,_ZNSolsEPFRSoS_E
FN:365,_ZNSoC2Ev
FN:95,_ZNSoD2Ev
FN:512,_ZStlsISt11char_traitsIcEERSt13basic_ostreamIcT_ES5_PKc
FN:566,_ZSt5flushIcSt11char_traitsIcEERSt13basic_ostreamIT_T0_ES6_
FN:545,_ZSt4endlIcSt11char_traitsIcEERSt13basic_ostreamIT_T0_ES6_
FN:177,_ZNSolsEb
FN:195,_ZNSolsEj
DA:95,0
DA:112,0
DA:117,0
DA:177,0
DA:178,0
DA:195,0
DA:199,0
DA:365,0
DA:366,0
DA:512,0
DA:514,0
DA:515,0
DA:517,0
DA:519,0
DA:545,0
DA:546,0
DA:566,0
DA:567,0
BA:95,0
BA:95,0
BA:95,0
BA:95,0
BA:514,0
BA:514,0
LF:18
LH:0
end_of_record
SF:/usr/include/c++/4.3/sstream
FN:96,_ZNSt15basic_stringbufIcSt11char_traitsIcESaIcEEC1ESt13_Ios_Openmode
FN:509,_ZNSt18basic_stringstreamIcSt11char_traitsIcESaIcEEC1ESt13_Ios_Openmode
FN:536,_ZNSt18basic_stringstreamIcSt11char_traitsIcESaIcEED1Ev
FN:402,_ZNSt19basic_ostringstreamIcSt11char_traitsIcESaIcEEC1ESt13_Ios_Openmode
FN:431,_ZNSt19basic_ostringstreamIcSt11char_traitsIcESaIcEED1Ev
FN:124,_ZNKSt15basic_stringbufIcSt11char_traitsIcESaIcEE3strEv
FN:555,_ZNKSt18basic_stringstreamIcSt11char_traitsIcESaIcEE3strEv
FN:450,_ZNKSt19basic_ostringstreamIcSt11char_traitsIcESaIcEE3strEv
DA:96,0
DA:97,0
DA:98,0
DA:124,0
DA:126,0
DA:127,0
DA:130,0
DA:131,0
DA:133,0
DA:136,0
DA:137,0
DA:402,0
DA:403,0
DA:404,0
DA:431,0
DA:432,0
DA:450,0
DA:451,0
DA:509,0
DA:510,0
DA:511,0
DA:536,0
DA:537,0
DA:555,0
DA:556,0
BA:127,0
BA:127,0
BA:130,0
BA:130,0
BA:432,0
BA:432,0
BA:432,0
BA:432,0
BA:432,0
BA:432,0
BA:537,0
BA:537,0
BA:537,0
BA:537,0
BA:537,0
BA:537,0
LF:25
LH:0
end_of_record
SF:/usr/include/c++/4.3/streambuf
FN:513,_ZNKSt15basic_streambufIcSt11char_traitsIcEE4pptrEv
FN:469,_ZNKSt15basic_streambufIcSt11char_traitsIcEE5egptrEv
FN:510,_ZNKSt15basic_streambufIcSt11char_traitsIcEE5pbaseEv
FN:444,_ZNSt15basic_streambufIcSt11char_traitsIcEEC2Ev
FN:197,_ZNSt15basic_streambufIcSt11char_traitsIcEED2Ev
DA:197,0
DA:198,0
DA:444,0
DA:447,0
DA:448,0
DA:469,0
DA:510,0
DA:513,0
BA:198,0
BA:198,0
LF:8
LH:0
end_of_record
TN:
SF:/home/mornfall/dev/pkg/ept-work/wibble/regexp.h
FN:115,_ZNK6wibble9Tokenizer14const_iteratoreqERKS1_
FN:119,_ZNK6wibble9Tokenizer14const_iteratorneERKS1_
FN:173,_ZNK6wibble8Splitter14const_iteratordeEv
FN:177,_ZNK6wibble8Splitter14const_iteratorptEv
FN:107,_ZN6wibble9Tokenizer14const_iteratorC1ERS0_b
FN:129,_ZN6wibble9Tokenizer3endEv
FN:194,_ZN6wibble8SplitterC1ERKSsi
FN:125,_ZN6wibble9TokenizerC1ERKSsS2_i
FN:181,_ZNK6wibble8Splitter14const_iteratoreqERKS1_
FN:168,_ZN6wibble8Splitter14const_iteratorC1ERNS_6RegexpERKSs
FN:200,_ZN6wibble8Splitter5beginERKSs
FN:169,_ZN6wibble8Splitter14const_iteratorC1ERNS_6RegexpE
FN:201,_ZN6wibble8Splitter3endEv
FN:156,_ZN6wibble8Splitter14const_iteratorD1Ev
FN:146,_ZN6wibble8SplitterD1Ev
FN:90,_ZN6wibble9TokenizerD1Ev
FN:106,_ZN6wibble9Tokenizer14const_iteratorC1ERS0_
FN:128,_ZN6wibble9Tokenizer5beginEv
FN:111,_ZNK6wibble9Tokenizer14const_iteratordeEv
FN:85,_ZN6wibble7ERegexpC1ERKSsii
FN:83,_ZN6wibble7ERegexpD1Ev
DA:83,2
DA:85,2
DA:86,2
DA:90,1
DA:106,1
DA:107,5
DA:111,4
DA:113,4
DA:115,1
DA:117,1
DA:119,4
DA:121,4
DA:125,1
DA:126,1
DA:128,1
DA:129,5
DA:146,2
DA:156,4
DA:168,2
DA:169,2
DA:173,8
DA:175,8
DA:177,8
DA:179,8
DA:181,2
DA:183,2
DA:194,2
DA:195,2
DA:200,2
DA:201,2
BA:117,2
BA:117,1
BA:117,2
BA:117,1
BA:121,1
BA:121,2
BA:121,0
BA:121,0
BA:183,2
BA:183,1
BA:183,2
BA:183,1
LF:30
LH:30
end_of_record
SF:/home/mornfall/dev/pkg/ept-work/wibble/test.h
FN:13,_ZN8LocationC1ERKS_
FN:17,_ZN8LocationC1EPKciSs
FN:52,_ZlsISsER12AssertFailedS1_T_
FN:52,_ZlsIPKcER12AssertFailedS3_T_
FN:52,_ZlsIjER12AssertFailedS1_T_
FN:33,_ZN12AssertFailedC1E8LocationRSo
FN:41,_ZN12AssertFailedD1Ev
FN:13,_ZN8LocationD1Ev
FN:67,_Z12assert_eq_fnIjjEv8LocationT_T0_
FN:59,_Z9assert_fnIbEv8LocationT_
FN:67,_Z12assert_eq_fnISsPKcEv8LocationT_T0_
FN:67,_Z12assert_eq_fnISsSsEv8LocationT_T0_
DA:13,0
DA:17,0
DA:18,0
DA:33,0
DA:34,0
DA:36,0
DA:38,0
DA:39,0
DA:41,0
DA:42,0
DA:43,0
DA:45,0
DA:46,0
DA:48,0
DA:52,0
DA:54,0
DA:55,0
DA:59,0
DA:61,0
DA:62,0
DA:64,0
DA:67,452
DA:69,452
DA:70,0
DA:71,0
DA:75,452
BA:42,0
BA:42,0
BA:61,0
BA:61,0
BA:69,0
BA:69,0
BA:69,1
BA:69,2
BA:69,1
BA:69,2
LF:26
LH:3
end_of_record
SF:/home/mornfall/dev/pkg/ept-work/wibble/regexp.test.h
FN:92,_ZN12_GLOBAL__N_110TestRegexp13emptySplitterEv
FN:73,_ZN12_GLOBAL__N_110TestRegexp8splitterEv
FN:53,_ZN12_GLOBAL__N_110TestRegexp8tokenizeEv
FN:14,_ZN12_GLOBAL__N_110TestRegexp10basicMatchEv
FN:34,_ZN12_GLOBAL__N_110TestRegexp7captureEv
FN:24,_ZN12_GLOBAL__N_110TestRegexp13extendedMatchEv
DA:14,1
DA:15,1
DA:16,2
DA:17,2
DA:18,2
DA:19,2
DA:20,2
DA:21,2
DA:22,1
DA:24,1
DA:25,1
DA:26,2
DA:27,2
DA:28,2
DA:29,2
DA:30,2
DA:31,2
DA:32,1
DA:34,1
DA:35,1
DA:36,2
DA:37,2
DA:38,2
DA:39,2
DA:40,2
DA:41,2
DA:42,2
DA:43,2
DA:44,2
DA:45,2
DA:47,2
DA:48,2
DA:49,2
DA:50,2
DA:51,1
DA:53,1
DA:54,1
DA:55,2
DA:56,1
DA:58,1
DA:59,2
DA:60,1
DA:61,1
DA:62,2
DA:63,1
DA:64,1
DA:65,2
DA:66,1
DA:67,1
DA:68,2
DA:69,1
DA:70,1
DA:71,1
DA:73,1
DA:75,1
DA:76,2
DA:77,2
DA:78,1
DA:79,1
DA:80,1
DA:81,1
DA:82,1
DA:83,1
DA:84,1
DA:85,1
DA:86,1
DA:87,1
DA:88,1
DA:89,1
DA:90,1
DA:92,1
DA:94,1
DA:95,2
DA:96,2
DA:97,1
DA:98,1
DA:99,1
DA:100,1
DA:101,1
DA:102,1
DA:103,1
DA:104,1
DA:105,1
DA:106,1
DA:107,1
DA:108,1
DA:109,1
LF:87
LH:87
end_of_record
SF:/srv/build/pkg/ept-work/default/wibble/wibble-test-generated-_home_mornfall_dev_pkg_ept-work_wibble_regexp.cpp
FN:8,_Z41__static_initialization_and_destruction_0ii
FN:8,_GLOBAL__I__Z21run_Regexp_basicMatchv
FN:8,_Z24run_Regexp_emptySplitterv
FN:7,_Z19run_Regexp_splitterv
FN:6,_Z19run_Regexp_tokenizev
FN:3,_Z21run_Regexp_basicMatchv
FN:5,_Z18run_Regexp_capturev
FN:4,_Z24run_Regexp_extendedMatchv
DA:3,1
DA:4,1
DA:5,1
DA:6,1
DA:7,1
DA:8,4
BA:8,2
BA:8,1
BA:8,2
BA:8,1
LF:6
LH:6
end_of_record
SF:/usr/include/c++/4.3/bits/allocator.h
FN:98,_ZNSaIcEC1Ev
FN:106,_ZNSaIcED2Ev
FN:106,_ZNSaIcED1Ev
FN:100,_ZNSaIcEC2ERKS_
FN:100,_ZNSaIcEC1ERKS_
FN:118,_ZSteqIcEbRKSaIT_ES3_
DA:98,0
DA:100,0
DA:101,0
DA:106,0
DA:118,0
DA:119,0
LF:6
LH:0
end_of_record
SF:/usr/include/c++/4.3/bits/basic_ios.h
FN:131,_ZNKSt9basic_iosIcSt11char_traitsIcEE7rdstateEv
FN:454,_ZNSt9basic_iosIcSt11char_traitsIcEEC2Ev
FN:276,_ZNSt9basic_iosIcSt11char_traitsIcEED2Ev
FN:151,_ZNSt9basic_iosIcSt11char_traitsIcEE8setstateESt12_Ios_Iostate
FN:51,_ZSt13__check_facetISt5ctypeIcEERKT_PS3_
FN:443,_ZNKSt9basic_iosIcSt11char_traitsIcEE5widenEc
DA:51,0
DA:53,0
DA:54,0
DA:55,0
DA:131,0
DA:132,0
DA:151,0
DA:152,0
DA:276,0
DA:443,0
DA:444,0
DA:454,0
DA:456,0
DA:457,0
BA:53,0
BA:53,0
BA:276,0
BA:276,0
LF:14
LH:0
end_of_record
SF:/usr/include/c++/4.3/bits/basic_string.h
FN:277,_ZNKSs7_M_dataEv
FN:258,_ZNSs12_Alloc_hiderD1Ev
FN:285,_ZNKSs6_M_repEv
FN:606,_ZNKSs4sizeEv
FN:214,_ZNSs4_Rep10_M_refdataEv
FN:1544,_ZNKSs4dataEv
FN:178,_ZNSs4_Rep12_S_empty_repEv
FN:411,_ZNSs12_S_empty_repEv
FN:259,_ZNSs12_Alloc_hiderC1EPcRKSaIcE
FN:2067,_ZNSsC1Ev
FN:1551,_ZNKSs13get_allocatorEv
FN:200,_ZNSs4_Rep15_M_set_sharableEv
FN:204,_ZNSs4_Rep26_M_set_length_and_sharableEj
FN:2188,_ZSteqIcSt11char_traitsIcESaIcEEbRKSbIT_T0_T1_EPKS3_
FN:2421,_ZStlsIcSt11char_traitsIcESaIcEERSt13basic_ostreamIT_T0_ES7_RKSbIS4_S5_T1_E
FN:339,_ZNSs7_M_copyEPcPKcj
FN:384,_ZNSs13_S_copy_charsEPcS_S_
FN:1462,_ZNSs16_S_construct_auxIPcEES0_T_S1_RKSaIcESt12__false_type
FN:1478,_ZNSs12_S_constructIPcEES0_T_S1_RKSaIcE
FN:501,_ZNSsaSERKSs
FN:2162,_ZSteqIcEN9__gnu_cxx11__enable_ifIXsrSt9__is_charIT_E7__valueEbE6__typeERKSbIS3_St11char_traitsIS3_ESaIS3_EESC_
FN:229,_ZNSs4_Rep10_M_disposeERKSaIcE
FN:493,_ZNSsD1Ev
FN:306,_ZNKSs8_M_checkEjPKc
FN:1923,_ZNKSs6substrEjj
DA:178,0
DA:183,0
DA:184,0
DA:200,0
DA:201,0
DA:204,0
DA:206,0
DA:207,0
DA:208,0
DA:211,0
DA:214,0
DA:215,0
DA:229,0
DA:232,0
DA:234,0
DA:236,0
DA:237,0
DA:258,0
DA:259,0
DA:260,0
DA:277,0
DA:278,0
DA:285,0
DA:286,0
DA:306,0
DA:308,0
DA:309,0
DA:310,0
DA:339,0
DA:341,0
DA:342,0
DA:344,0
DA:345,0
DA:384,0
DA:385,0
DA:411,0
DA:412,0
DA:493,0
DA:494,0
DA:501,0
DA:502,0
DA:606,0
DA:607,0
DA:1462,0
DA:1465,0
DA:1478,0
DA:1481,0
DA:1544,0
DA:1545,0
DA:1551,0
DA:1552,0
DA:1923,0
DA:1925,0
DA:2067,0
DA:2069,0
DA:2162,304
DA:2165,304
DA:2188,618
DA:2189,618
DA:2421,0
DA:2425,0
BA:232,0
BA:232,0
BA:234,0
BA:234,0
BA:308,0
BA:308,0
BA:341,0
BA:341,0
BA:2165,2
BA:2165,1
BA:2165,2
BA:2165,2
LF:61
LH:4
end_of_record
SF:/usr/include/c++/4.3/bits/basic_string.tcc
FN:130,_ZNSs12_S_constructIPcEES0_T_S1_RKSaIcESt20forward_iterator_tag
FN:234,_ZNSsC1IPcEET_S1_RKSaIcE
DA:130,0
DA:133,0
DA:134,0
DA:137,0
DA:139,0
DA:142,0
DA:144,0
DA:146,0
DA:147,0
DA:149,0
DA:150,0
DA:152,0
DA:153,0
DA:234,0
DA:235,0
DA:236,0
BA:133,0
BA:133,0
BA:133,0
BA:133,0
BA:133,0
BA:133,0
BA:133,0
BA:133,0
BA:137,0
BA:137,0
BA:137,0
BA:137,0
BA:137,0
BA:137,0
LF:16
LH:0
end_of_record
SF:/usr/include/c++/4.3/bits/char_traits.h
FN:245,_ZNSt11char_traitsIcE6assignERcRKc
FN:261,_ZNSt11char_traitsIcE6lengthEPKc
FN:273,_ZNSt11char_traitsIcE4copyEPcPKcj
FN:257,_ZNSt11char_traitsIcE7compareEPKcS2_j
DA:245,0
DA:246,0
DA:257,304
DA:258,304
DA:261,0
DA:262,0
DA:273,0
DA:274,0
LF:8
LH:2
end_of_record
SF:/usr/include/c++/4.3/bits/ios_base.h
FN:125,_ZStorSt13_Ios_OpenmodeS_
FN:163,_ZStorSt12_Ios_IostateS_
DA:125,0
DA:126,0
DA:163,0
DA:164,0
LF:4
LH:0
end_of_record
SF:/usr/include/c++/4.3/bits/locale_facets.h
FN:1165,_ZNKSt5ctypeIcE13_M_widen_initEv
FN:871,_ZNKSt5ctypeIcE5widenEc
DA:871,0
DA:873,0
DA:874,0
DA:875,0
DA:876,0
DA:1165,0
DA:1168,0
DA:1169,0
DA:1170,0
DA:1172,0
DA:1174,0
DA:1175,0
DA:1176,0
BA:873,0
BA:873,0
BA:1168,0
BA:1168,0
BA:1174,0
BA:1174,0
LF:13
LH:0
end_of_record
SF:/usr/include/c++/4.3/bits/stl_iterator_base_funcs.h
FN:93,_ZSt10__distanceIPcENSt15iterator_traitsIT_E15difference_typeES2_S2_St26random_access_iterator_tag
FN:115,_ZSt8distanceIPcENSt15iterator_traitsIT_E15difference_typeES2_S2_
DA:93,0
DA:98,0
DA:115,0
DA:119,0
LF:4
LH:0
end_of_record
SF:/usr/include/c++/4.3/bits/stl_iterator_base_types.h
FN:166,_ZSt19__iterator_categoryIPcENSt15iterator_traitsIT_E17iterator_categoryERKS2_
DA:166,0
DA:167,0
LF:2
LH:0
end_of_record
SF:/usr/include/c++/4.3/ext/atomicity.h
FN:67,_ZN9__gnu_cxxL25__exchange_and_add_singleEPii
FN:50,_ZN9__gnu_cxxL18__exchange_and_addEPVii
FN:80,_ZN9__gnu_cxxL27__exchange_and_add_dispatchEPii
DA:50,0
DA:51,0
DA:67,0
DA:69,0
DA:70,0
DA:71,0
DA:80,0
DA:83,0
DA:84,0
DA:86,0
BA:83,0
BA:83,0
LF:10
LH:0
end_of_record
SF:/usr/include/c++/4.3/ext/new_allocator.h
FN:69,_ZN9__gnu_cxx13new_allocatorIcEC2Ev
FN:76,_ZN9__gnu_cxx13new_allocatorIcED2Ev
FN:71,_ZN9__gnu_cxx13new_allocatorIcEC2ERKS1_
DA:69,0
DA:71,0
DA:76,0
LF:3
LH:0
end_of_record
SF:/usr/include/c++/4.3/ext/type_traits.h
FN:154,_ZN9__gnu_cxx17__is_null_pointerIcEEbPT_
DA:154,0
DA:155,0
LF:2
LH:0
end_of_record
SF:/usr/include/c++/4.3/i486-linux-gnu/bits/gthr-default.h
FN:212,_ZL18__gthread_active_pv
DA:212,0
DA:216,0
LF:2
LH:0
end_of_record
SF:/usr/include/c++/4.3/iosfwd
FN:68,_ZNSt15basic_stringbufIcSt11char_traitsIcESaIcEED1Ev
DA:68,0
BA:68,0
BA:68,0
LF:1
LH:0
end_of_record
SF:/usr/include/c++/4.3/iostream
DA:77,1
LF:1
LH:1
end_of_record
SF:/usr/include/c++/4.3/ostream
FN:112,_ZNSolsEPFRSoS_E
FN:365,_ZNSoC2Ev
FN:95,_ZNSoD2Ev
FN:512,_ZStlsISt11char_traitsIcEERSt13basic_ostreamIcT_ES5_PKc
FN:566,_ZSt5flushIcSt11char_traitsIcEERSt13basic_ostreamIT_T0_ES6_
FN:545,_ZSt4endlIcSt11char_traitsIcEERSt13basic_ostreamIT_T0_ES6_
FN:195,_ZNSolsEj
DA:95,0
DA:112,0
DA:117,0
DA:195,0
DA:199,0
DA:365,0
DA:366,0
DA:512,0
DA:514,0
DA:515,0
DA:517,0
DA:519,0
DA:545,0
DA:546,0
DA:566,0
DA:567,0
BA:95,0
BA:95,0
BA:95,0
BA:95,0
BA:514,0
BA:514,0
LF:16
LH:0
end_of_record
SF:/usr/include/c++/4.3/sstream
FN:96,_ZNSt15basic_stringbufIcSt11char_traitsIcESaIcEEC1ESt13_Ios_Openmode
FN:402,_ZNSt19basic_ostringstreamIcSt11char_traitsIcESaIcEEC1ESt13_Ios_Openmode
FN:431,_ZNSt19basic_ostringstreamIcSt11char_traitsIcESaIcEED1Ev
FN:124,_ZNKSt15basic_stringbufIcSt11char_traitsIcESaIcEE3strEv
FN:450,_ZNKSt19basic_ostringstreamIcSt11char_traitsIcESaIcEE3strEv
DA:96,0
DA:97,0
DA:98,0
DA:124,0
DA:126,0
DA:127,0
DA:130,0
DA:131,0
DA:133,0
DA:136,0
DA:137,0
DA:402,0
DA:403,0
DA:404,0
DA:431,0
DA:432,0
DA:450,0
DA:451,0
BA:127,0
BA:127,0
BA:130,0
BA:130,0
BA:432,0
BA:432,0
BA:432,0
BA:432,0
BA:432,0
BA:432,0
LF:18
LH:0
end_of_record
SF:/usr/include/c++/4.3/streambuf
FN:513,_ZNKSt15basic_streambufIcSt11char_traitsIcEE4pptrEv
FN:469,_ZNKSt15basic_streambufIcSt11char_traitsIcEE5egptrEv
FN:510,_ZNKSt15basic_streambufIcSt11char_traitsIcEE5pbaseEv
FN:444,_ZNSt15basic_streambufIcSt11char_traitsIcEEC2Ev
FN:197,_ZNSt15basic_streambufIcSt11char_traitsIcEED2Ev
DA:197,0
DA:198,0
DA:444,0
DA:447,0
DA:448,0
DA:469,0
DA:510,0
DA:513,0
BA:198,0
BA:198,0
LF:8
LH:0
end_of_record
TN:
SF:/home/mornfall/dev/pkg/ept-work/wibble/amorph.h
FN:371,_ZNK6wibble6AmorphINS_5RangeIiEENS_14RangeInterfaceIiEELi0EE14morphInterfaceEv
FN:345,_ZN6wibble6AmorphINS_5RangeIiEENS_14RangeInterfaceIiEELi0EED2Ev
FN:332,_ZN6wibble6AmorphINS_5RangeIiEENS_14RangeInterfaceIiEELi0EE24setMorphInterfacePointerEPKNS_14MorphInterfaceIS4_EE
FN:288,_ZN6wibble6AmorphINS_5RangeIiEENS_14RangeInterfaceIiEELi0EEC2ERKS5_
FN:371,_ZNK6wibble6AmorphINS_8ConsumerIiEENS_17ConsumerInterfaceIiEELi0EE14morphInterfaceEv
FN:345,_ZN6wibble6AmorphINS_8ConsumerIiEENS_17ConsumerInterfaceIiEELi0EED2Ev
FN:332,_ZN6wibble6AmorphINS_8ConsumerIiEENS_17ConsumerInterfaceIiEELi0EE24setMorphInterfacePointerEPKNS_14MorphInterfaceIS4_EE
FN:288,_ZN6wibble6AmorphINS_8ConsumerIiEENS_17ConsumerInterfaceIiEELi0EEC2ERKS5_
FN:366,_ZN6wibble6AmorphINS_8ConsumerIiEENS_17ConsumerInterfaceIiEELi0EE14implementationEv
FN:284,_ZN6wibble6AmorphINS_5RangeIiEENS_14RangeInterfaceIiEELi0EEC2ERKNS_14MorphInterfaceIS4_EE
FN:366,_ZN6wibble6AmorphINS_5RangeIiEENS_14RangeInterfaceIiEELi0EE14implementationEv
FN:100,_ZN6wibble14MorphAllocatorC2Ev
FN:284,_ZN6wibble6AmorphINS_8ConsumerIiEENS_17ConsumerInterfaceIiEELi0EEC2ERKNS_14MorphInterfaceIS4_EE
FN:91,_ZN6wibble14MorphInterfaceINS_14RangeInterfaceIiEEEC2Ev
FN:115,_ZN6wibble9MorphBaseINS_13IteratorRangeISt14_List_iteratorIiEEENS_14RangeInterfaceIiEEEC2ERKS4_
FN:147,_ZN6wibble5MorphINS_10RangeMorphIiNS_13IteratorRangeISt14_List_iteratorIiEEEEES5_NS_14RangeInterfaceIiEEEC2ERKS5_
FN:91,_ZN6wibble14MorphInterfaceINS_17ConsumerInterfaceIiEEEC2Ev
FN:115,_ZN6wibble9MorphBaseINS_20ConsumerFromIteratorIiSt20back_insert_iteratorISt4listIiSaIiEEEEENS_17ConsumerInterfaceIiEEEC2ERKS7_
FN:147,_ZN6wibble5MorphINS_13ConsumerMorphIiNS_20ConsumerFromIteratorIiSt20back_insert_iteratorISt4listIiSaIiEEEEEEES8_NS_17ConsumerInterfaceIiEEEC2ERKS8_
FN:115,_ZN6wibble9MorphBaseINS_20ConsumerFromIteratorIiSt15insert_iteratorISt3setIiSt4lessIiESaIiEEEEENS_17ConsumerInterfaceIiEEEC2ERKS9_
FN:147,_ZN6wibble5MorphINS_13ConsumerMorphIiNS_20ConsumerFromIteratorIiSt15insert_iteratorISt3setIiSt4lessIiESaIiEEEEEEESA_NS_17ConsumerInterfaceIiEEEC2ERKSA_
FN:115,_ZN6wibble9MorphBaseINS_20ConsumerFromIteratorIiSt15insert_iteratorISt6vectorIiSaIiEEEEENS_17ConsumerInterfaceIiEEEC2ERKS7_
FN:147,_ZN6wibble5MorphINS_13ConsumerMorphIiNS_20ConsumerFromIteratorIiSt15insert_iteratorISt6vectorIiSaIiEEEEEEES8_NS_17ConsumerInterfaceIiEEEC2ERKS8_
FN:361,_ZNK6wibble6AmorphINS_5RangeIiEENS_14RangeInterfaceIiEELi0EE14implementationEv
FN:303,_ZNK6wibble6AmorphINS_5RangeIiEENS_14RangeInterfaceIiEELi0EE3leqERKS2_
FN:314,_ZNK6wibble6AmorphINS_5RangeIiEENS_14RangeInterfaceIiEELi0EEleERKS2_
FN:91,_ZN6wibble14MorphInterfaceINS_17ConsumerInterfaceIiEEEC2ERKS3_
FN:114,_ZN6wibble9MorphBaseINS_20ConsumerFromIteratorIiSt15insert_iteratorISt6vectorIiSaIiEEEEENS_17ConsumerInterfaceIiEEEC2ERKSA_
FN:144,_ZN6wibble5MorphINS_13ConsumerMorphIiNS_20ConsumerFromIteratorIiSt15insert_iteratorISt6vectorIiSaIiEEEEEEES8_NS_17ConsumerInterfaceIiEEEC2ERKSC_
FN:173,_ZN6wibble5MorphINS_13ConsumerMorphIiNS_20ConsumerFromIteratorIiSt15insert_iteratorISt6vectorIiSaIiEEEEEEES8_NS_17ConsumerInterfaceIiEEE7destroyEj
FN:114,_ZN6wibble9MorphBaseINS_20ConsumerFromIteratorIiSt15insert_iteratorISt3setIiSt4lessIiESaIiEEEEENS_17ConsumerInterfaceIiEEEC2ERKSC_
FN:144,_ZN6wibble5MorphINS_13ConsumerMorphIiNS_20ConsumerFromIteratorIiSt15insert_iteratorISt3setIiSt4lessIiESaIiEEEEEEESA_NS_17ConsumerInterfaceIiEEEC2ERKSE_
FN:173,_ZN6wibble5MorphINS_13ConsumerMorphIiNS_20ConsumerFromIteratorIiSt15insert_iteratorISt3setIiSt4lessIiESaIiEEEEEEESA_NS_17ConsumerInterfaceIiEEE7destroyEj
FN:114,_ZN6wibble9MorphBaseINS_20ConsumerFromIteratorIiSt20back_insert_iteratorISt4listIiSaIiEEEEENS_17ConsumerInterfaceIiEEEC2ERKSA_
FN:144,_ZN6wibble5MorphINS_13ConsumerMorphIiNS_20ConsumerFromIteratorIiSt20back_insert_iteratorISt4listIiSaIiEEEEEEES8_NS_17ConsumerInterfaceIiEEEC2ERKSC_
FN:173,_ZN6wibble5MorphINS_13ConsumerMorphIiNS_20ConsumerFromIteratorIiSt20back_insert_iteratorISt4listIiSaIiEEEEEEES8_NS_17ConsumerInterfaceIiEEE7destroyEj
FN:91,_ZN6wibble14MorphInterfaceINS_14RangeInterfaceIiEEEC2ERKS3_
FN:114,_ZN6wibble9MorphBaseINS_13IteratorRangeISt14_List_iteratorIiEEENS_14RangeInterfaceIiEEEC2ERKS7_
FN:144,_ZN6wibble5MorphINS_10RangeMorphIiNS_13IteratorRangeISt14_List_iteratorIiEEEEES5_NS_14RangeInterfaceIiEEEC2ERKS9_
FN:173,_ZN6wibble5MorphINS_10RangeMorphIiNS_13IteratorRangeISt14_List_iteratorIiEEEEES5_NS_14RangeInterfaceIiEEE7destroyEj
FN:92,_ZN6wibble14MorphInterfaceINS_17ConsumerInterfaceIiEEE11virtualBaseEv
FN:92,_ZN6wibble14MorphInterfaceINS_14RangeInterfaceIiEEE11virtualBaseEv
FN:185,_ZN6wibble5MorphINS_13ConsumerMorphIiNS_20ConsumerFromIteratorIiSt15insert_iteratorISt6vectorIiSaIiEEEEEEES8_NS_17ConsumerInterfaceIiEEE7wrappedEv
FN:124,_ZN6wibble9MorphBaseINS_20ConsumerFromIteratorIiSt15insert_iteratorISt6vectorIiSaIiEEEEENS_17ConsumerInterfaceIiEEE11virtualBaseIS7_EENS_8EnableIfINS_4TNotINS_13IsPolymorphicIT_EEEEPNS_11VirtualBaseEE1TEv
FN:128,_ZN6wibble9MorphBaseINS_20ConsumerFromIteratorIiSt15insert_iteratorISt6vectorIiSaIiEEEEENS_17ConsumerInterfaceIiEEE11virtualBaseEv
FN:149,_ZNK6wibble5MorphINS_13ConsumerMorphIiNS_20ConsumerFromIteratorIiSt15insert_iteratorISt6vectorIiSaIiEEEEEEES8_NS_17ConsumerInterfaceIiEEE4selfEv
FN:181,_ZNK6wibble5MorphINS_13ConsumerMorphIiNS_20ConsumerFromIteratorIiSt15insert_iteratorISt6vectorIiSaIiEEEEEEES8_NS_17ConsumerInterfaceIiEEE7wrappedEv
FN:185,_ZN6wibble5MorphINS_13ConsumerMorphIiNS_20ConsumerFromIteratorIiSt15insert_iteratorISt3setIiSt4lessIiESaIiEEEEEEESA_NS_17ConsumerInterfaceIiEEE7wrappedEv
FN:124,_ZN6wibble9MorphBaseINS_20ConsumerFromIteratorIiSt15insert_iteratorISt3setIiSt4lessIiESaIiEEEEENS_17ConsumerInterfaceIiEEE11virtualBaseIS9_EENS_8EnableIfINS_4TNotINS_13IsPolymorphicIT_EEEEPNS_11VirtualBaseEE1TEv
FN:128,_ZN6wibble9MorphBaseINS_20ConsumerFromIteratorIiSt15insert_iteratorISt3setIiSt4lessIiESaIiEEEEENS_17ConsumerInterfaceIiEEE11virtualBaseEv
FN:149,_ZNK6wibble5MorphINS_13ConsumerMorphIiNS_20ConsumerFromIteratorIiSt15insert_iteratorISt3setIiSt4lessIiESaIiEEEEEEESA_NS_17ConsumerInterfaceIiEEE4selfEv
FN:181,_ZNK6wibble5MorphINS_13ConsumerMorphIiNS_20ConsumerFromIteratorIiSt15insert_iteratorISt3setIiSt4lessIiESaIiEEEEEEESA_NS_17ConsumerInterfaceIiEEE7wrappedEv
FN:185,_ZN6wibble5MorphINS_13ConsumerMorphIiNS_20ConsumerFromIteratorIiSt20back_insert_iteratorISt4listIiSaIiEEEEEEES8_NS_17ConsumerInterfaceIiEEE7wrappedEv
FN:124,_ZN6wibble9MorphBaseINS_20ConsumerFromIteratorIiSt20back_insert_iteratorISt4listIiSaIiEEEEENS_17ConsumerInterfaceIiEEE11virtualBaseIS7_EENS_8EnableIfINS_4TNotINS_13IsPolymorphicIT_EEEEPNS_11VirtualBaseEE1TEv
FN:128,_ZN6wibble9MorphBaseINS_20ConsumerFromIteratorIiSt20back_insert_iteratorISt4listIiSaIiEEEEENS_17ConsumerInterfaceIiEEE11virtualBaseEv
FN:149,_ZNK6wibble5MorphINS_13ConsumerMorphIiNS_20ConsumerFromIteratorIiSt20back_insert_iteratorISt4listIiSaIiEEEEEEES8_NS_17ConsumerInterfaceIiEEE4selfEv
FN:181,_ZNK6wibble5MorphINS_13ConsumerMorphIiNS_20ConsumerFromIteratorIiSt20back_insert_iteratorISt4listIiSaIiEEEEEEES8_NS_17ConsumerInterfaceIiEEE7wrappedEv
FN:181,_ZNK6wibble5MorphINS_10RangeMorphIiNS_13IteratorRangeISt14_List_iteratorIiEEEEES5_NS_14RangeInterfaceIiEEE7wrappedEv
FN:185,_ZN6wibble5MorphINS_10RangeMorphIiNS_13IteratorRangeISt14_List_iteratorIiEEEEES5_NS_14RangeInterfaceIiEEE7wrappedEv
FN:124,_ZN6wibble9MorphBaseINS_13IteratorRangeISt14_List_iteratorIiEEENS_14RangeInterfaceIiEEE11virtualBaseIS4_EENS_8EnableIfINS_4TNotINS_13IsPolymorphicIT_EEEEPNS_11VirtualBaseEE1TEv
FN:128,_ZN6wibble9MorphBaseINS_13IteratorRangeISt14_List_iteratorIiEEENS_14RangeInterfaceIiEEE11virtualBaseEv
FN:149,_ZNK6wibble5MorphINS_10RangeMorphIiNS_13IteratorRangeISt14_List_iteratorIiEEEEES5_NS_14RangeInterfaceIiEEE4selfEv
FN:156,_ZNK6wibble5MorphINS_13ConsumerMorphIiNS_20ConsumerFromIteratorIiSt15insert_iteratorISt6vectorIiSaIiEEEEEEES8_NS_17ConsumerInterfaceIiEEE3leqEPKNS_14MorphInterfaceISB_EE
FN:316,_ZN6wibble6AmorphINS_5RangeIiEENS_14RangeInterfaceIiEELi0EE19setInterfacePointerEPKS4_
FN:340,_ZN6wibble6AmorphINS_5RangeIiEENS_14RangeInterfaceIiEELi0EEaSERKS5_
FN:156,_ZNK6wibble5MorphINS_13ConsumerMorphIiNS_20ConsumerFromIteratorIiSt15insert_iteratorISt3setIiSt4lessIiESaIiEEEEEEESA_NS_17ConsumerInterfaceIiEEE3leqEPKNS_14MorphInterfaceISD_EE
FN:156,_ZNK6wibble5MorphINS_10RangeMorphIiNS_13IteratorRangeISt14_List_iteratorIiEEEEES5_NS_14RangeInterfaceIiEEE3leqEPKNS_14MorphInterfaceIS8_EE
FN:156,_ZNK6wibble5MorphINS_13ConsumerMorphIiNS_20ConsumerFromIteratorIiSt20back_insert_iteratorISt4listIiSaIiEEEEEEES8_NS_17ConsumerInterfaceIiEEE3leqEPKNS_14MorphInterfaceISB_EE
FN:101,_ZN6wibble14MorphAllocatornwEjPvj
FN:168,_ZNK6wibble5MorphINS_13ConsumerMorphIiNS_20ConsumerFromIteratorIiSt15insert_iteratorISt6vectorIiSaIiEEEEEEES8_NS_17ConsumerInterfaceIiEEE13constructCopyEPvj
FN:168,_ZNK6wibble5MorphINS_13ConsumerMorphIiNS_20ConsumerFromIteratorIiSt15insert_iteratorISt3setIiSt4lessIiESaIiEEEEEEESA_NS_17ConsumerInterfaceIiEEE13constructCopyEPvj
FN:168,_ZNK6wibble5MorphINS_10RangeMorphIiNS_13IteratorRangeISt14_List_iteratorIiEEEEES5_NS_14RangeInterfaceIiEEE13constructCopyEPvj
FN:168,_ZNK6wibble5MorphINS_13ConsumerMorphIiNS_20ConsumerFromIteratorIiSt20back_insert_iteratorISt4listIiSaIiEEEEEEES8_NS_17ConsumerInterfaceIiEEE13constructCopyEPvj
FN:95,_ZN6wibble14MorphInterfaceINS_17ConsumerInterfaceIiEEED2Ev
FN:114,_ZN6wibble9MorphBaseINS_20ConsumerFromIteratorIiSt15insert_iteratorISt6vectorIiSaIiEEEEENS_17ConsumerInterfaceIiEEED2Ev
FN:189,_ZN6wibble5MorphINS_13ConsumerMorphIiNS_20ConsumerFromIteratorIiSt15insert_iteratorISt6vectorIiSaIiEEEEEEES8_NS_17ConsumerInterfaceIiEEED0Ev
FN:95,_ZN6wibble14MorphInterfaceINS_17ConsumerInterfaceIiEEED0Ev
FN:95,_ZN6wibble14MorphInterfaceINS_17ConsumerInterfaceIiEEED1Ev
FN:189,_ZN6wibble5MorphINS_13ConsumerMorphIiNS_20ConsumerFromIteratorIiSt15insert_iteratorISt6vectorIiSaIiEEEEEEES8_NS_17ConsumerInterfaceIiEEED1Ev
FN:189,_ZN6wibble5MorphINS_13ConsumerMorphIiNS_20ConsumerFromIteratorIiSt15insert_iteratorISt6vectorIiSaIiEEEEEEES8_NS_17ConsumerInterfaceIiEEED2Ev
FN:114,_ZN6wibble9MorphBaseINS_20ConsumerFromIteratorIiSt15insert_iteratorISt3setIiSt4lessIiESaIiEEEEENS_17ConsumerInterfaceIiEEED2Ev
FN:189,_ZN6wibble5MorphINS_13ConsumerMorphIiNS_20ConsumerFromIteratorIiSt15insert_iteratorISt3setIiSt4lessIiESaIiEEEEEEESA_NS_17ConsumerInterfaceIiEEED0Ev
FN:189,_ZN6wibble5MorphINS_13ConsumerMorphIiNS_20ConsumerFromIteratorIiSt15insert_iteratorISt3setIiSt4lessIiESaIiEEEEEEESA_NS_17ConsumerInterfaceIiEEED1Ev
FN:189,_ZN6wibble5MorphINS_13ConsumerMorphIiNS_20ConsumerFromIteratorIiSt15insert_iteratorISt3setIiSt4lessIiESaIiEEEEEEESA_NS_17ConsumerInterfaceIiEEED2Ev
FN:95,_ZN6wibble14MorphInterfaceINS_14RangeInterfaceIiEEED2Ev
FN:114,_ZN6wibble9MorphBaseINS_13IteratorRangeISt14_List_iteratorIiEEENS_14RangeInterfaceIiEEED2Ev
FN:189,_ZN6wibble5MorphINS_10RangeMorphIiNS_13IteratorRangeISt14_List_iteratorIiEEEEES5_NS_14RangeInterfaceIiEEED0Ev
FN:95,_ZN6wibble14MorphInterfaceINS_14RangeInterfaceIiEEED0Ev
FN:95,_ZN6wibble14MorphInterfaceINS_14RangeInterfaceIiEEED1Ev
FN:189,_ZN6wibble5MorphINS_10RangeMorphIiNS_13IteratorRangeISt14_List_iteratorIiEEEEES5_NS_14RangeInterfaceIiEEED1Ev
FN:189,_ZN6wibble5MorphINS_10RangeMorphIiNS_13IteratorRangeISt14_List_iteratorIiEEEEES5_NS_14RangeInterfaceIiEEED2Ev
FN:114,_ZN6wibble9MorphBaseINS_20ConsumerFromIteratorIiSt20back_insert_iteratorISt4listIiSaIiEEEEENS_17ConsumerInterfaceIiEEED2Ev
FN:189,_ZN6wibble5MorphINS_13ConsumerMorphIiNS_20ConsumerFromIteratorIiSt20back_insert_iteratorISt4listIiSaIiEEEEEEES8_NS_17ConsumerInterfaceIiEEED0Ev
FN:189,_ZN6wibble5MorphINS_13ConsumerMorphIiNS_20ConsumerFromIteratorIiSt20back_insert_iteratorISt4listIiSaIiEEEEEEES8_NS_17ConsumerInterfaceIiEEED1Ev
FN:189,_ZN6wibble5MorphINS_13ConsumerMorphIiNS_20ConsumerFromIteratorIiSt20back_insert_iteratorISt4listIiSaIiEEEEEEES8_NS_17ConsumerInterfaceIiEEED2Ev
DA:91,286
DA:92,0
DA:95,268
DA:100,31
DA:101,291
DA:102,291
DA:103,291
DA:104,291
DA:106,0
DA:114,249
DA:115,13
DA:124,0
DA:125,0
DA:128,0
DA:129,0
DA:144,119
DA:147,13
DA:149,119
DA:156,27
DA:157,27
DA:158,27
DA:159,0
DA:160,0
DA:162,0
DA:164,27
DA:168,119
DA:170,119
DA:173,117
DA:174,117
DA:175,0
DA:177,117
DA:179,117
DA:181,69
DA:182,69
DA:185,39
DA:186,39
DA:189,130
DA:284,25
DA:285,25
DA:286,25
DA:288,220
DA:289,220
DA:291,220
DA:303,62
DA:304,62
DA:305,62
DA:306,62
DA:308,0
DA:310,0
DA:314,62
DA:316,16
DA:317,16
DA:318,0
DA:319,0
DA:326,16
DA:332,245
DA:333,245
DA:334,0
DA:335,0
DA:337,245
DA:340,16
DA:341,16
DA:342,16
DA:345,243
DA:346,243
DA:347,243
DA:348,243
DA:361,60
DA:363,60
DA:366,93
DA:368,93
DA:371,954
DA:372,954
BA:95,1
BA:95,2
BA:95,0
BA:95,0
BA:95,0
BA:95,0
BA:95,1
BA:95,2
BA:95,0
BA:95,0
BA:95,0
BA:95,0
BA:102,1
BA:102,2
BA:102,0
BA:102,0
BA:114,1
BA:114,2
BA:114,0
BA:114,0
BA:114,0
BA:114,0
BA:114,1
BA:114,2
BA:114,0
BA:114,0
BA:114,0
BA:114,0
BA:114,1
BA:114,2
BA:114,0
BA:114,0
BA:114,0
BA:114,0
BA:114,1
BA:114,2
BA:114,0
BA:114,0
BA:114,0
BA:114,0
BA:157,0
BA:157,0
BA:157,0
BA:157,0
BA:157,1
BA:157,2
BA:157,0
BA:157,0
BA:158,0
BA:158,0
BA:158,0
BA:158,0
BA:158,1
BA:158,2
BA:158,0
BA:158,0
BA:159,0
BA:159,0
BA:159,0
BA:159,0
BA:159,0
BA:159,0
BA:159,0
BA:159,0
BA:174,1
BA:174,2
BA:174,1
BA:174,2
BA:174,1
BA:174,2
BA:174,1
BA:174,2
BA:177,2
BA:177,1
BA:177,2
BA:177,1
BA:177,2
BA:177,1
BA:177,2
BA:177,1
BA:189,0
BA:189,0
BA:189,0
BA:189,0
BA:189,1
BA:189,2
BA:189,0
BA:189,0
BA:189,0
BA:189,0
BA:189,1
BA:189,2
BA:189,0
BA:189,0
BA:189,0
BA:189,0
BA:189,1
BA:189,2
BA:189,0
BA:189,0
BA:189,0
BA:189,0
BA:189,1
BA:189,2
BA:304,2
BA:304,1
BA:305,2
BA:305,1
BA:317,1
BA:317,2
BA:326,2
BA:326,1
BA:333,1
BA:333,2
BA:333,1
BA:333,2
BA:346,2
BA:346,1
BA:346,2
BA:346,1
LF:73
LH:57
end_of_record
SF:/home/mornfall/dev/pkg/ept-work/wibble/consumer.h
FN:48,_ZN6wibble13ConsumerMixinIiNS_20ConsumerFromIteratorIiSt20back_insert_iteratorISt4listIiSaIiEEEEEEC2Ev
FN:91,_ZN6wibble20ConsumerFromIteratorIiSt20back_insert_iteratorISt4listIiSaIiEEEEC1ES5_
FN:66,_ZN6wibble8ConsumerIiED1Ev
FN:66,_ZN6wibble8ConsumerIiEC1ERKS1_
FN:77,_ZN6wibble8ConsumerIiE7consumeERKi
FN:48,_ZN6wibble13ConsumerMixinIiNS_8ConsumerIiEEEC2Ev
FN:48,_ZN6wibble13ConsumerMixinIiNS_20ConsumerFromIteratorIiSt15insert_iteratorISt3setIiSt4lessIiESaIiEEEEEEC2Ev
FN:91,_ZN6wibble20ConsumerFromIteratorIiSt15insert_iteratorISt3setIiSt4lessIiESaIiEEEEC1ES7_
FN:48,_ZN6wibble13ConsumerMixinIiNS_20ConsumerFromIteratorIiSt15insert_iteratorISt6vectorIiSaIiEEEEEEC2Ev
FN:91,_ZN6wibble20ConsumerFromIteratorIiSt15insert_iteratorISt6vectorIiSaIiEEEEC1ES5_
FN:74,_ZN6wibble8ConsumerIiEC1ERKNS_14MorphInterfaceINS_17ConsumerInterfaceIiEEEE
FN:21,_ZN6wibble17ConsumerInterfaceIiEC2Ev
FN:32,_ZN6wibble13ConsumerMorphIiNS_20ConsumerFromIteratorIiSt20back_insert_iteratorISt4listIiSaIiEEEEEEC1ERKS7_
FN:81,_ZN6wibble8ConsumerIiEaSERKi
FN:49,_ZN6wibble13ConsumerMixinIiNS_8ConsumerIiEEE4selfEv
FN:56,_ZN6wibble13ConsumerMixinIiNS_8ConsumerIiEEEdeEv
FN:54,_ZN6wibble13ConsumerMixinIiNS_8ConsumerIiEEEppEv
FN:32,_ZN6wibble13ConsumerMorphIiNS_20ConsumerFromIteratorIiSt15insert_iteratorISt3setIiSt4lessIiESaIiEEEEEEC1ERKS9_
FN:32,_ZN6wibble13ConsumerMorphIiNS_20ConsumerFromIteratorIiSt15insert_iteratorISt6vectorIiSaIiEEEEEEC1ERKS7_
FN:21,_ZN6wibble17ConsumerInterfaceIiEC2ERKS1_
FN:30,_ZN6wibble13ConsumerMorphIiNS_20ConsumerFromIteratorIiSt15insert_iteratorISt6vectorIiSaIiEEEEEEC1ERKS8_
FN:30,_ZN6wibble13ConsumerMorphIiNS_20ConsumerFromIteratorIiSt15insert_iteratorISt3setIiSt4lessIiESaIiEEEEEEC1ERKSA_
FN:30,_ZN6wibble13ConsumerMorphIiNS_20ConsumerFromIteratorIiSt20back_insert_iteratorISt4listIiSaIiEEEEEEC1ERKS8_
FN:53,_ZNK6wibble13ConsumerMixinIiNS_20ConsumerFromIteratorIiSt15insert_iteratorISt6vectorIiSaIiEEEEEEleERKS7_
FN:53,_ZNK6wibble13ConsumerMixinIiNS_20ConsumerFromIteratorIiSt15insert_iteratorISt3setIiSt4lessIiESaIiEEEEEEleERKS9_
FN:53,_ZNK6wibble13ConsumerMixinIiNS_20ConsumerFromIteratorIiSt20back_insert_iteratorISt4listIiSaIiEEEEEEleERKS7_
FN:38,_ZN6wibble13ConsumerMorphIiNS_20ConsumerFromIteratorIiSt15insert_iteratorISt6vectorIiSaIiEEEEEE7consumeENS_5RangeIiEE
FN:38,_ZN6wibble13ConsumerMorphIiNS_20ConsumerFromIteratorIiSt15insert_iteratorISt3setIiSt4lessIiESaIiEEEEEE7consumeENS_5RangeIiEE
FN:38,_ZN6wibble13ConsumerMorphIiNS_20ConsumerFromIteratorIiSt20back_insert_iteratorISt4listIiSaIiEEEEEE7consumeENS_5RangeIiEE
FN:25,_ZN6wibble17ConsumerInterfaceIiED2Ev
FN:25,_ZN6wibble17ConsumerInterfaceIiED0Ev
FN:25,_ZN6wibble17ConsumerInterfaceIiED1Ev
FN:30,_ZN6wibble13ConsumerMorphIiNS_20ConsumerFromIteratorIiSt15insert_iteratorISt6vectorIiSaIiEEEEEED1Ev
FN:101,_ZN6wibble13consumerMorphINS_20ConsumerFromIteratorIiSt15insert_iteratorISt6vectorIiSaIiEEEEEEENS_8ConsumerINT_12ConsumedTypeEEES9_
FN:107,_ZN6wibble8consumerISt15insert_iteratorISt6vectorIiSaIiEEEEENS_8ConsumerINT_14container_type10value_typeEEES7_
FN:114,_ZN6wibble8consumerISt6vectorIiSaIiEEEENS_6IsTypeINS_8ConsumerINT_10value_typeEEENS6_8iteratorEE1TERS6_
FN:30,_ZN6wibble13ConsumerMorphIiNS_20ConsumerFromIteratorIiSt15insert_iteratorISt3setIiSt4lessIiESaIiEEEEEED1Ev
FN:101,_ZN6wibble13consumerMorphINS_20ConsumerFromIteratorIiSt15insert_iteratorISt3setIiSt4lessIiESaIiEEEEEEENS_8ConsumerINT_12ConsumedTypeEEESB_
FN:107,_ZN6wibble8consumerISt15insert_iteratorISt3setIiSt4lessIiESaIiEEEEENS_8ConsumerINT_14container_type10value_typeEEES9_
FN:114,_ZN6wibble8consumerISt3setIiSt4lessIiESaIiEEEENS_6IsTypeINS_8ConsumerINT_10value_typeEEENS8_8iteratorEE1TERS8_
FN:30,_ZN6wibble13ConsumerMorphIiNS_20ConsumerFromIteratorIiSt20back_insert_iteratorISt4listIiSaIiEEEEEED1Ev
FN:101,_ZN6wibble13consumerMorphINS_20ConsumerFromIteratorIiSt20back_insert_iteratorISt4listIiSaIiEEEEEEENS_8ConsumerINT_12ConsumedTypeEEES9_
FN:107,_ZN6wibble8consumerISt20back_insert_iteratorISt4listIiSaIiEEEEENS_8ConsumerINT_14container_type10value_typeEEES7_
FN:92,_ZN6wibble20ConsumerFromIteratorIiSt15insert_iteratorISt6vectorIiSaIiEEEE7consumeERKi
FN:34,_ZN6wibble13ConsumerMorphIiNS_20ConsumerFromIteratorIiSt15insert_iteratorISt6vectorIiSaIiEEEEEE7consumeERKi
FN:92,_ZN6wibble20ConsumerFromIteratorIiSt15insert_iteratorISt3setIiSt4lessIiESaIiEEEE7consumeERKi
FN:34,_ZN6wibble13ConsumerMorphIiNS_20ConsumerFromIteratorIiSt15insert_iteratorISt3setIiSt4lessIiESaIiEEEEEE7consumeERKi
FN:92,_ZN6wibble20ConsumerFromIteratorIiSt20back_insert_iteratorISt4listIiSaIiEEEE7consumeERKi
FN:34,_ZN6wibble13ConsumerMorphIiNS_20ConsumerFromIteratorIiSt20back_insert_iteratorISt4listIiSaIiEEEEEE7consumeERKi
DA:21,37
DA:25,37
DA:30,67
DA:32,7
DA:34,14
DA:35,14
DA:38,0
DA:39,0
DA:40,0
DA:41,0
DA:43,0
DA:48,14
DA:49,18
DA:53,0
DA:54,9
DA:56,9
DA:66,53
DA:74,7
DA:77,14
DA:78,14
DA:81,9
DA:82,9
DA:83,9
DA:91,7
DA:92,14
DA:93,14
DA:94,14
DA:95,14
DA:101,7
DA:102,7
DA:107,7
DA:109,7
DA:114,6
DA:115,6
BA:25,1
BA:25,2
BA:25,0
BA:25,0
BA:25,0
BA:25,0
BA:30,2
BA:30,1
BA:30,1
BA:30,2
BA:30,2
BA:30,1
BA:30,1
BA:30,2
BA:30,2
BA:30,1
BA:30,1
BA:30,2
BA:39,0
BA:39,0
BA:39,0
BA:39,0
BA:39,0
BA:39,0
LF:34
LH:28
end_of_record
SF:/home/mornfall/dev/pkg/ept-work/wibble/mixin.h
FN:13,_ZN6wibble5mixin10ComparableINS_13IteratorRangeISt14_List_iteratorIiEEEEC2Ev
FN:13,_ZN6wibble5mixin10ComparableINS_5RangeIiEEEC2Ev
FN:13,_ZN6wibble5mixin10ComparableINS_20ConsumerFromIteratorIiSt20back_insert_iteratorISt4listIiSaIiEEEEEEC2Ev
FN:13,_ZN6wibble5mixin10ComparableINS_13RangeIteratorINS_5RangeIiEEEEEC2Ev
FN:13,_ZN6wibble5mixin10ComparableINS_8ConsumerIiEEEC2Ev
FN:13,_ZN6wibble5mixin10ComparableINS_20ConsumerFromIteratorIiSt15insert_iteratorISt3setIiSt4lessIiESaIiEEEEEEC2Ev
FN:13,_ZN6wibble5mixin10ComparableINS_20ConsumerFromIteratorIiSt15insert_iteratorISt6vectorIiSaIiEEEEEEC2Ev
FN:13,_ZN6wibble5mixin10ComparableINS_5MorphINS_10RangeMorphIiNS_13IteratorRangeISt14_List_iteratorIiEEEEES7_NS_14RangeInterfaceIiEEEEEC2Ev
FN:13,_ZN6wibble5mixin10ComparableINS_5MorphINS_13ConsumerMorphIiNS_20ConsumerFromIteratorIiSt20back_insert_iteratorISt4listIiSaIiEEEEEEESA_NS_17ConsumerInterfaceIiEEEEEC2Ev
FN:13,_ZN6wibble5mixin10ComparableINS_5MorphINS_13ConsumerMorphIiNS_20ConsumerFromIteratorIiSt15insert_iteratorISt3setIiSt4lessIiESaIiEEEEEEESC_NS_17ConsumerInterfaceIiEEEEEC2Ev
FN:13,_ZN6wibble5mixin10ComparableINS_5MorphINS_13ConsumerMorphIiNS_20ConsumerFromIteratorIiSt15insert_iteratorISt6vectorIiSaIiEEEEEEESA_NS_17ConsumerInterfaceIiEEEEEC2Ev
FN:15,_ZNK6wibble5mixin10ComparableINS_13RangeIteratorINS_5RangeIiEEEEE7cmpSelfEv
FN:23,_ZNK6wibble5mixin10ComparableINS_13RangeIteratorINS_5RangeIiEEEEEeqERKS5_
FN:19,_ZNK6wibble5mixin10ComparableINS_13RangeIteratorINS_5RangeIiEEEEEneERKS5_
DA:13,104
DA:15,76
DA:16,76
DA:19,20
DA:20,20
DA:23,36
DA:24,36
BA:24,2
BA:24,2
BA:24,2
BA:24,2
LF:7
LH:7
end_of_record
SF:/home/mornfall/dev/pkg/ept-work/wibble/operators.h
FN:29,_ZN6wibble9operatorsplISt23_Rb_tree_const_iteratorIiEEET_RKS4_NS4_15difference_typeE
DA:29,7
DA:30,7
DA:31,7
LF:3
LH:3
end_of_record
SF:/home/mornfall/dev/pkg/ept-work/wibble/range.h
FN:87,_ZN6wibble10RangeMixinIiNS_5RangeIiEEED2Ev
FN:63,_ZN6wibble10RangeMixinIiNS_13IteratorRangeISt14_List_iteratorIiEEEEC2Ev
FN:197,_ZN6wibble13IteratorRangeISt14_List_iteratorIiEEC1ES2_S2_
FN:87,_ZN6wibble10RangeMixinIiNS_13IteratorRangeISt14_List_iteratorIiEEEED2Ev
FN:193,_ZN6wibble13IteratorRangeISt14_List_iteratorIiEED1Ev
FN:63,_ZN6wibble10RangeMixinIiNS_5RangeIiEEEC2Ev
FN:156,_ZN6wibble5RangeIiED1Ev
FN:27,_ZN6wibble13RangeIteratorINS_5RangeIiEEED1Ev
FN:156,_ZN6wibble5RangeIiEC1ERKS1_
FN:27,_ZN6wibble13RangeIteratorINS_5RangeIiEEEC1ERKS3_
FN:66,_ZNK6wibble10RangeMixinIiNS_5RangeIiEEE4selfEv
FN:37,_ZN6wibble13RangeIteratorINS_5RangeIiEEEC1ERKS2_
FN:71,_ZNK6wibble10RangeMixinIiNS_5RangeIiEEE5beginEv
FN:166,_ZN6wibble5RangeIiE10setToEmptyEv
FN:94,_ZN6wibble14RangeInterfaceIiEC2Ev
FN:105,_ZN6wibble10RangeMorphIiNS_13IteratorRangeISt14_List_iteratorIiEEEEC1ERKS4_
FN:165,_ZN6wibble5RangeIiE11removeFirstEv
FN:51,_ZN6wibble13RangeIteratorINS_5RangeIiEEEppEv
FN:164,_ZNK6wibble5RangeIiE4headEv
FN:49,_ZNK6wibble13RangeIteratorINS_5RangeIiEEEdeEv
FN:53,_ZNK6wibble13RangeIteratorINS_5RangeIiEEEleERKS3_
FN:94,_ZN6wibble14RangeInterfaceIiEC2ERKS1_
FN:103,_ZN6wibble10RangeMorphIiNS_13IteratorRangeISt14_List_iteratorIiEEEEC1ERKS5_
FN:207,_ZN6wibble13IteratorRangeISt14_List_iteratorIiEE10setToEmptyEv
FN:106,_ZN6wibble10RangeMorphIiNS_13IteratorRangeISt14_List_iteratorIiEEEE10setToEmptyEv
FN:200,_ZNK6wibble13IteratorRangeISt14_List_iteratorIiEE4headEv
FN:108,_ZNK6wibble10RangeMorphIiNS_13IteratorRangeISt14_List_iteratorIiEEEE4headEv
FN:201,_ZN6wibble13IteratorRangeISt14_List_iteratorIiEE11removeFirstEv
FN:107,_ZN6wibble10RangeMorphIiNS_13IteratorRangeISt14_List_iteratorIiEEEE11removeFirstEv
FN:203,_ZNK6wibble13IteratorRangeISt14_List_iteratorIiEEleERKS3_
FN:76,_ZNK6wibble10RangeMixinIiNS_5RangeIiEEE4tailEv
FN:72,_ZNK6wibble10RangeMixinIiNS_5RangeIiEEE3endEv
FN:83,_ZNK6wibble10RangeMixinIiNS_5RangeIiEEE5emptyEv
FN:156,_ZN6wibble5RangeIiEaSERKS1_
FN:98,_ZN6wibble14RangeInterfaceIiED2Ev
FN:98,_ZN6wibble14RangeInterfaceIiED0Ev
FN:98,_ZN6wibble14RangeInterfaceIiED1Ev
FN:103,_ZN6wibble10RangeMorphIiNS_13IteratorRangeISt14_List_iteratorIiEEEED1Ev
FN:160,_ZN6wibble5RangeIiEC1INS_13IteratorRangeISt14_List_iteratorIiEEEEERKT_NS_6IsTypeIiNS7_19RangeImplementationEE1TE
FN:265,_ZN6wibble5rangeISt14_List_iteratorIiEEENS_5RangeINT_10value_typeEEES4_S4_
DA:27,207
DA:37,50
DA:49,23
DA:51,34
DA:53,56
DA:54,56
DA:63,27
DA:66,58
DA:71,27
DA:72,23
DA:76,8
DA:83,11
DA:84,11
DA:87,312
DA:94,249
DA:98,231
DA:103,182
DA:105,6
DA:106,9
DA:107,16
DA:108,15
DA:156,426
DA:160,6
DA:161,6
DA:164,44
DA:165,53
DA:166,26
DA:193,99
DA:197,6
DA:198,6
DA:200,15
DA:201,16
DA:203,27
DA:204,27
DA:207,9
DA:208,9
DA:209,9
DA:265,6
DA:266,6
BA:98,1
BA:98,2
BA:98,0
BA:98,0
BA:98,0
BA:98,0
BA:103,2
BA:103,1
BA:103,1
BA:103,2
BA:204,2
BA:204,2
BA:204,2
BA:204,1
LF:39
LH:39
end_of_record
SF:/home/mornfall/dev/pkg/ept-work/wibble/test.h
FN:17,_ZN8LocationC1EPKciSs
FN:13,_ZN8LocationC1ERKS_
FN:33,_ZN12AssertFailedC1E8LocationRSo
FN:41,_ZN12AssertFailedD1Ev
FN:13,_ZN8LocationD1Ev
FN:59,_Z9assert_fnIbEv8LocationT_
DA:13,0
DA:17,0
DA:18,0
DA:33,0
DA:34,0
DA:36,0
DA:38,0
DA:39,0
DA:41,0
DA:42,0
DA:43,0
DA:45,0
DA:46,0
DA:48,0
DA:59,0
DA:61,0
DA:62,0
DA:64,0
BA:42,0
BA:42,0
BA:61,0
BA:61,0
LF:18
LH:0
end_of_record
SF:/home/mornfall/dev/pkg/ept-work/wibble/consumer.test.h
FN:33,_ZN12_GLOBAL__N_112TestConsumer17stlVectorConsumerEv
FN:25,_ZN12_GLOBAL__N_112TestConsumer14stlSetConsumerEv
FN:13,_ZN12_GLOBAL__N_112TestConsumer19stlInserterConsumerEv
DA:13,1
DA:14,1
DA:15,1
DA:16,1
DA:17,1
DA:18,1
DA:19,1
DA:20,2
DA:21,1
DA:22,1
DA:23,1
DA:25,1
DA:26,1
DA:27,1
DA:28,1
DA:29,1
DA:30,2
DA:31,1
DA:33,1
DA:34,1
DA:35,1
DA:36,1
DA:37,1
DA:38,1
DA:39,2
DA:40,2
DA:41,1
LF:27
LH:27
end_of_record
SF:/srv/build/pkg/ept-work/default/wibble/wibble-test-generated-_home_mornfall_dev_pkg_ept-work_wibble_consumer.cpp
FN:5,_Z41__static_initialization_and_destruction_0ii
FN:5,_GLOBAL__I__Z32run_Consumer_stlInserterConsumerv
FN:5,_ZN6wibble9MorphBaseINS_20ConsumerFromIteratorIiSt15insert_iteratorISt6vectorIiSaIiEEEEENS_17ConsumerInterfaceIiEEED0Ev
FN:5,_ZN6wibble9MorphBaseINS_20ConsumerFromIteratorIiSt15insert_iteratorISt6vectorIiSaIiEEEEENS_17ConsumerInterfaceIiEEED1Ev
FN:5,_ZN6wibble13ConsumerMorphIiNS_20ConsumerFromIteratorIiSt15insert_iteratorISt6vectorIiSaIiEEEEEED0Ev
FN:5,_ZN6wibble9MorphBaseINS_20ConsumerFromIteratorIiSt15insert_iteratorISt3setIiSt4lessIiESaIiEEEEENS_17ConsumerInterfaceIiEEED0Ev
FN:5,_ZN6wibble9MorphBaseINS_20ConsumerFromIteratorIiSt15insert_iteratorISt3setIiSt4lessIiESaIiEEEEENS_17ConsumerInterfaceIiEEED1Ev
FN:5,_ZN6wibble13ConsumerMorphIiNS_20ConsumerFromIteratorIiSt15insert_iteratorISt3setIiSt4lessIiESaIiEEEEEED0Ev
FN:5,_ZN6wibble9MorphBaseINS_13IteratorRangeISt14_List_iteratorIiEEENS_14RangeInterfaceIiEEED0Ev
FN:5,_ZN6wibble9MorphBaseINS_13IteratorRangeISt14_List_iteratorIiEEENS_14RangeInterfaceIiEEED1Ev
FN:5,_ZN6wibble10RangeMorphIiNS_13IteratorRangeISt14_List_iteratorIiEEEED0Ev
FN:5,_ZN6wibble9MorphBaseINS_20ConsumerFromIteratorIiSt20back_insert_iteratorISt4listIiSaIiEEEEENS_17ConsumerInterfaceIiEEED0Ev
FN:5,_ZN6wibble9MorphBaseINS_20ConsumerFromIteratorIiSt20back_insert_iteratorISt4listIiSaIiEEEEENS_17ConsumerInterfaceIiEEED1Ev
FN:5,_ZN6wibble13ConsumerMorphIiNS_20ConsumerFromIteratorIiSt20back_insert_iteratorISt4listIiSaIiEEEEEED0Ev
FN:5,_Z30run_Consumer_stlVectorConsumerv
FN:4,_Z27run_Consumer_stlSetConsumerv
FN:3,_Z32run_Consumer_stlInserterConsumerv
DA:3,1
DA:4,1
DA:5,121
BA:5,2
BA:5,1
BA:5,2
BA:5,1
LF:3
LH:3
end_of_record
SF:/usr/include/c++/4.3/bits/allocator.h
FN:98,_ZNSaIcEC1Ev
FN:106,_ZNSaIcED2Ev
FN:106,_ZNSaIcED1Ev
FN:106,_ZNSaISt10_List_nodeIiEED2Ev
FN:106,_ZNSaISt13_Rb_tree_nodeIiEED2Ev
FN:100,_ZNSaIcEC2ERKS_
FN:100,_ZNSaIcEC1ERKS_
FN:106,_ZNSaIiED2Ev
FN:106,_ZNSaIiED1Ev
FN:98,_ZNSaISt10_List_nodeIiEEC2Ev
FN:98,_ZNSaIiEC2Ev
FN:104,_ZNSaIiEC1ISt10_List_nodeIiEEERKSaIT_E
FN:98,_ZNSaISt13_Rb_tree_nodeIiEEC2Ev
FN:104,_ZNSaIiEC1ISt13_Rb_tree_nodeIiEEERKSaIT_E
FN:118,_ZSteqIcEbRKSaIT_ES3_
DA:98,24
DA:100,0
DA:101,0
DA:104,98
DA:106,126
DA:118,0
DA:119,0
LF:7
LH:3
end_of_record
SF:/usr/include/c++/4.3/bits/basic_ios.h
FN:131,_ZNKSt9basic_iosIcSt11char_traitsIcEE7rdstateEv
FN:454,_ZNSt9basic_iosIcSt11char_traitsIcEEC2Ev
FN:276,_ZNSt9basic_iosIcSt11char_traitsIcEED2Ev
FN:151,_ZNSt9basic_iosIcSt11char_traitsIcEE8setstateESt12_Ios_Iostate
FN:51,_ZSt13__check_facetISt5ctypeIcEERKT_PS3_
FN:443,_ZNKSt9basic_iosIcSt11char_traitsIcEE5widenEc
DA:51,0
DA:53,0
DA:54,0
DA:55,0
DA:131,0
DA:132,0
DA:151,0
DA:152,0
DA:276,0
DA:443,0
DA:444,0
DA:454,0
DA:456,0
DA:457,0
BA:53,0
BA:53,0
BA:276,0
BA:276,0
LF:14
LH:0
end_of_record
SF:/usr/include/c++/4.3/bits/basic_string.h
FN:277,_ZNKSs7_M_dataEv
FN:258,_ZNSs12_Alloc_hiderD1Ev
FN:285,_ZNKSs6_M_repEv
FN:606,_ZNKSs4sizeEv
FN:214,_ZNSs4_Rep10_M_refdataEv
FN:1544,_ZNKSs4dataEv
FN:178,_ZNSs4_Rep12_S_empty_repEv
FN:411,_ZNSs12_S_empty_repEv
FN:259,_ZNSs12_Alloc_hiderC1EPcRKSaIcE
FN:2067,_ZNSsC1Ev
FN:1551,_ZNKSs13get_allocatorEv
FN:200,_ZNSs4_Rep15_M_set_sharableEv
FN:204,_ZNSs4_Rep26_M_set_length_and_sharableEj
FN:2421,_ZStlsIcSt11char_traitsIcESaIcEERSt13basic_ostreamIT_T0_ES7_RKSbIS4_S5_T1_E
FN:339,_ZNSs7_M_copyEPcPKcj
FN:384,_ZNSs13_S_copy_charsEPcS_S_
FN:1462,_ZNSs16_S_construct_auxIPcEES0_T_S1_RKSaIcESt12__false_type
FN:1478,_ZNSs12_S_constructIPcEES0_T_S1_RKSaIcE
FN:501,_ZNSsaSERKSs
FN:229,_ZNSs4_Rep10_M_disposeERKSaIcE
FN:493,_ZNSsD1Ev
DA:178,0
DA:183,0
DA:184,0
DA:200,0
DA:201,0
DA:204,0
DA:206,0
DA:207,0
DA:208,0
DA:211,0
DA:214,0
DA:215,0
DA:229,0
DA:232,0
DA:234,0
DA:236,0
DA:237,0
DA:258,0
DA:259,0
DA:260,0
DA:277,0
DA:278,0
DA:285,0
DA:286,0
DA:339,0
DA:341,0
DA:342,0
DA:344,0
DA:345,0
DA:384,0
DA:385,0
DA:411,0
DA:412,0
DA:493,0
DA:494,0
DA:501,0
DA:502,0
DA:606,0
DA:607,0
DA:1462,0
DA:1465,0
DA:1478,0
DA:1481,0
DA:1544,0
DA:1545,0
DA:1551,0
DA:1552,0
DA:2067,0
DA:2069,0
DA:2421,0
DA:2425,0
BA:232,0
BA:232,0
BA:234,0
BA:234,0
BA:341,0
BA:341,0
LF:51
LH:0
end_of_record
SF:/usr/include/c++/4.3/bits/basic_string.tcc
FN:130,_ZNSs12_S_constructIPcEES0_T_S1_RKSaIcESt20forward_iterator_tag
FN:234,_ZNSsC1IPcEET_S1_RKSaIcE
DA:130,0
DA:133,0
DA:134,0
DA:137,0
DA:139,0
DA:142,0
DA:144,0
DA:146,0
DA:147,0
DA:149,0
DA:150,0
DA:152,0
DA:153,0
DA:234,0
DA:235,0
DA:236,0
BA:133,0
BA:133,0
BA:133,0
BA:133,0
BA:133,0
BA:133,0
BA:133,0
BA:133,0
BA:137,0
BA:137,0
BA:137,0
BA:137,0
BA:137,0
BA:137,0
LF:16
LH:0
end_of_record
SF:/usr/include/c++/4.3/bits/char_traits.h
FN:245,_ZNSt11char_traitsIcE6assignERcRKc
FN:261,_ZNSt11char_traitsIcE6lengthEPKc
FN:273,_ZNSt11char_traitsIcE4copyEPcPKcj
DA:245,0
DA:246,0
DA:261,0
DA:262,0
DA:273,0
DA:274,0
LF:6
LH:0
end_of_record
SF:/usr/include/c++/4.3/bits/ios_base.h
FN:125,_ZStorSt13_Ios_OpenmodeS_
FN:163,_ZStorSt12_Ios_IostateS_
DA:125,0
DA:126,0
DA:163,0
DA:164,0
LF:4
LH:0
end_of_record
SF:/usr/include/c++/4.3/bits/list.tcc
FN:70,_ZNSt10_List_baseIiSaIiEE8_M_clearEv
DA:70,8
DA:73,8
DA:74,33
DA:76,17
DA:77,17
DA:78,17
DA:79,17
DA:81,8
BA:74,2
BA:74,2
LF:8
LH:8
end_of_record
SF:/usr/include/c++/4.3/bits/locale_facets.h
FN:1165,_ZNKSt5ctypeIcE13_M_widen_initEv
FN:871,_ZNKSt5ctypeIcE5widenEc
DA:871,0
DA:873,0
DA:874,0
DA:875,0
DA:876,0
DA:1165,0
DA:1168,0
DA:1169,0
DA:1170,0
DA:1172,0
DA:1174,0
DA:1175,0
DA:1176,0
BA:873,0
BA:873,0
BA:1168,0
BA:1168,0
BA:1174,0
BA:1174,0
LF:13
LH:0
end_of_record
SF:/usr/include/c++/4.3/bits/stl_algobase.h
FN:286,_ZNSt12__miter_baseIN6wibble13RangeIteratorINS0_5RangeIiEEEELb0EE3__bES4_
FN:268,_ZNSt12__niter_baseIN6wibble13RangeIteratorINS0_5RangeIiEEEELb0EE3__bES4_
FN:268,_ZNSt12__niter_baseIN6wibble8ConsumerIiEELb0EE3__bES2_
FN:210,_ZSt3maxIjERKT_S2_S2_
FN:309,_ZNSt11__copy_moveILb0ELb0ESt20forward_iterator_tagE8__copy_mIN6wibble13RangeIteratorINS3_5RangeIiEEEENS3_8ConsumerIiEEEET0_T_SB_SA_
FN:286,_ZNSt12__miter_baseIPiLb0EE3__bES0_
FN:268,_ZNSt12__niter_baseIPiLb0EE3__bES0_
FN:385,_ZSt13__copy_move_aILb0EN6wibble13RangeIteratorINS0_5RangeIiEEEENS0_8ConsumerIiEEET1_T0_S8_S7_
FN:430,_ZSt14__copy_move_a2ILb0EN6wibble13RangeIteratorINS0_5RangeIiEEEENS0_8ConsumerIiEEET1_T0_S8_S7_
FN:456,_ZSt4copyIN6wibble13RangeIteratorINS0_5RangeIiEEEENS0_8ConsumerIiEEET0_T_S8_S7_
FN:569,_ZNSt20__copy_move_backwardILb0ELb1ESt26random_access_iterator_tagE13__copy_move_bIiEEPT_PKS3_S6_S4_
FN:579,_ZSt22__copy_move_backward_aILb0EPiS0_ET1_T0_S2_S1_
FN:597,_ZSt23__copy_move_backward_a2ILb0EPiS0_ET1_T0_S2_S1_
FN:624,_ZSt13copy_backwardIPiS0_ET0_T_S2_S1_
FN:375,_ZNSt11__copy_moveILb0ELb1ESt26random_access_iterator_tagE8__copy_mIiEEPT_PKS3_S6_S4_
FN:385,_ZSt13__copy_move_aILb0EPiS0_ET1_T0_S2_S1_
FN:430,_ZSt14__copy_move_a2ILb0EPiS0_ET1_T0_S2_S1_
FN:456,_ZSt4copyIPiS0_ET0_T_S2_S1_
DA:210,0
DA:215,0
DA:216,0
DA:217,0
DA:268,14
DA:269,14
DA:286,10
DA:287,10
DA:309,4
DA:311,13
DA:312,9
DA:313,4
DA:375,0
DA:377,0
DA:379,0
DA:385,4
DA:393,4
DA:396,4
DA:430,4
DA:435,4
DA:456,4
DA:466,4
DA:569,0
DA:571,0
DA:572,0
DA:573,0
DA:579,0
DA:587,0
DA:592,0
DA:597,0
DA:602,0
DA:624,0
DA:636,0
BA:215,0
BA:215,0
BA:311,2
BA:311,2
LF:33
LH:15
end_of_record
SF:/usr/include/c++/4.3/bits/stl_construct.h
FN:97,_ZSt8_DestroyIPiEvT_S1_
FN:126,_ZSt8_DestroyIPiiEvT_S1_RSaIT0_E
DA:97,0
DA:104,0
DA:126,0
DA:128,0
DA:129,0
LF:5
LH:0
end_of_record
SF:/usr/include/c++/4.3/bits/stl_function.h
FN:469,_ZNKSt9_IdentityIiEclERKi
FN:229,_ZNKSt4lessIiEclERKiS2_
DA:229,80
DA:230,80
DA:469,104
DA:470,104
LF:4
LH:4
end_of_record
SF:/usr/include/c++/4.3/bits/stl_iterator.h
FN:695,_ZNK9__gnu_cxx17__normal_iteratorIPiSt6vectorIiSaIiEEEdeEv
FN:398,_ZNSt20back_insert_iteratorISt4listIiSaIiEEEC1ERS2_
FN:456,_ZSt13back_inserterISt4listIiSaIiEEESt20back_insert_iteratorIT_ERS4_
FN:683,_ZN9__gnu_cxx17__normal_iteratorIPiSt6vectorIiSaIiEEEC1ERKS1_
FN:735,_ZNK9__gnu_cxx17__normal_iteratorIPiSt6vectorIiSaIiEEEplERKi
FN:747,_ZNK9__gnu_cxx17__normal_iteratorIPiSt6vectorIiSaIiEEE4baseEv
FN:769,_ZN9__gnu_cxxeqIPiSt6vectorIiSaIiEEEEbRKNS_17__normal_iteratorIT_T0_EESA_
FN:572,_ZNSt15insert_iteratorISt3setIiSt4lessIiESaIiEEEC1ERS4_St23_Rb_tree_const_iteratorIiE
FN:645,_ZSt8inserterISt3setIiSt4lessIiESaIiEESt23_Rb_tree_const_iteratorIiEESt15insert_iteratorIT_ERS8_T0_
FN:572,_ZNSt15insert_iteratorISt6vectorIiSaIiEEEC1ERS2_N9__gnu_cxx17__normal_iteratorIPiS2_EE
FN:645,_ZSt8inserterISt6vectorIiSaIiEEN9__gnu_cxx17__normal_iteratorIPiS2_EEESt15insert_iteratorIT_ERS8_T0_
FN:618,_ZNSt15insert_iteratorISt6vectorIiSaIiEEEdeEv
FN:623,_ZNSt15insert_iteratorISt6vectorIiSaIiEEEppEv
FN:618,_ZNSt15insert_iteratorISt3setIiSt4lessIiESaIiEEEdeEv
FN:623,_ZNSt15insert_iteratorISt3setIiSt4lessIiESaIiEEEppEv
FN:429,_ZNSt20back_insert_iteratorISt4listIiSaIiEEEdeEv
FN:434,_ZNSt20back_insert_iteratorISt4listIiSaIiEEEppEv
FN:703,_ZN9__gnu_cxx17__normal_iteratorIPiSt6vectorIiSaIiEEEppEv
FN:846,_ZN9__gnu_cxxmiIPiSt6vectorIiSaIiEEEENS_17__normal_iteratorIT_T0_E15difference_typeERKS8_SB_
FN:599,_ZNSt15insert_iteratorISt6vectorIiSaIiEEEaSERKi
FN:599,_ZNSt15insert_iteratorISt3setIiSt4lessIiESaIiEEEaSERKi
FN:412,_ZNSt20back_insert_iteratorISt4listIiSaIiEEEaSERKi
DA:398,2
DA:412,4
DA:414,4
DA:415,4
DA:429,8
DA:430,8
DA:434,4
DA:435,4
DA:456,2
DA:457,2
DA:572,10
DA:573,10
DA:599,17
DA:601,17
DA:602,17
DA:603,17
DA:618,41
DA:619,41
DA:623,17
DA:624,17
DA:645,10
DA:648,10
DA:683,0
DA:695,0
DA:696,0
DA:703,0
DA:705,0
DA:706,0
DA:735,0
DA:736,0
DA:747,0
DA:748,0
DA:769,0
DA:770,0
DA:846,0
DA:847,0
LF:36
LH:22
end_of_record
SF:/usr/include/c++/4.3/bits/stl_iterator_base_funcs.h
FN:93,_ZSt10__distanceIPcENSt15iterator_traitsIT_E15difference_typeES2_S2_St26random_access_iterator_tag
FN:115,_ZSt8distanceIPcENSt15iterator_traitsIT_E15difference_typeES2_S2_
FN:135,_ZSt9__advanceISt23_Rb_tree_const_iteratorIiEiEvRT_T0_St26bidirectional_iterator_tag
FN:173,_ZSt7advanceISt23_Rb_tree_const_iteratorIiEiEvRT_T0_
DA:93,0
DA:98,0
DA:115,0
DA:119,0
DA:135,7
DA:140,7
DA:141,21
DA:142,7
DA:144,0
DA:145,0
DA:146,7
DA:173,7
DA:176,7
DA:177,7
DA:178,7
BA:140,2
BA:140,1
BA:141,2
BA:141,2
BA:144,0
BA:144,0
LF:15
LH:9
end_of_record
SF:/usr/include/c++/4.3/bits/stl_iterator_base_types.h
FN:111,_ZNSt8iteratorISt19output_iterator_tagvvvvEC2Ev
FN:166,_ZSt19__iterator_categoryISt23_Rb_tree_const_iteratorIiEENSt15iterator_traitsIT_E17iterator_categoryERKS3_
FN:166,_ZSt19__iterator_categoryIPcENSt15iterator_traitsIT_E17iterator_categoryERKS2_
DA:111,0
DA:166,7
DA:167,7
LF:3
LH:2
end_of_record
SF:/usr/include/c++/4.3/bits/stl_list.h
FN:126,_ZNSt14_List_iteratorIiEC1EPSt15_List_node_base
FN:666,_ZNSt4listIiSaIiEE3endEv
FN:648,_ZNSt4listIiSaIiEE5beginEv
FN:211,_ZNKSt20_List_const_iteratorIiEdeEv
FN:253,_ZNKSt20_List_const_iteratorIiEneERKS0_
FN:219,_ZNSt20_List_const_iteratorIiEppEv
FN:249,_ZNKSt20_List_const_iteratorIiEeqERKS0_
FN:364,_ZNSt10_List_baseIiSaIiEE7_M_initEv
FN:298,_ZNSt10_List_baseIiSaIiEE10_List_implD1Ev
FN:202,_ZNSt20_List_const_iteratorIiEC1EPKSt15_List_node_base
FN:675,_ZNKSt4listIiSaIiEE3endEv
FN:657,_ZNKSt4listIiSaIiEE5beginEv
FN:1386,_ZSteqIiSaIiEEbRKSt4listIT_T0_ES6_
FN:1422,_ZStneIiSaIiEEbRKSt4listIT_T0_ES6_
FN:328,_ZNKSt10_List_baseIiSaIiEE21_M_get_Node_allocatorEv
FN:301,_ZNSt10_List_baseIiSaIiEE10_List_implC1Ev
FN:339,_ZNSt10_List_baseIiSaIiEEC2Ev
FN:498,_ZNSt4listIiSaIiEEC1Ev
FN:332,_ZNKSt10_List_baseIiSaIiEE19_M_get_Tp_allocatorEv
FN:131,_ZNKSt14_List_iteratorIiEdeEv
FN:139,_ZNSt14_List_iteratorIiEppEv
FN:169,_ZNKSt14_List_iteratorIiEeqERKS0_
FN:317,_ZNSt10_List_baseIiSaIiEE11_M_put_nodeEPSt10_List_nodeIiE
FN:357,_ZNSt10_List_baseIiSaIiEED2Ev
FN:417,_ZNSt4listIiSaIiEED1Ev
FN:313,_ZNSt10_List_baseIiSaIiEE11_M_get_nodeEv
FN:458,_ZNSt4listIiSaIiEE14_M_create_nodeERKi
FN:1339,_ZNSt4listIiSaIiEE9_M_insertESt14_List_iteratorIiERKi
FN:875,_ZNSt4listIiSaIiEE9push_backERKi
DA:126,29
DA:127,29
DA:131,15
DA:132,15
DA:139,16
DA:141,16
DA:142,16
DA:169,41
DA:170,41
DA:202,16
DA:203,16
DA:211,8
DA:212,8
DA:219,8
DA:221,8
DA:222,8
DA:249,6
DA:250,6
DA:253,14
DA:254,14
DA:298,8
DA:301,8
DA:302,8
DA:303,8
DA:313,17
DA:314,17
DA:317,17
DA:318,17
DA:328,34
DA:329,34
DA:332,34
DA:333,34
DA:339,8
DA:340,8
DA:341,8
DA:357,8
DA:358,8
DA:364,8
DA:366,8
DA:367,8
DA:368,8
DA:417,8
DA:458,17
DA:460,17
DA:463,17
DA:465,0
DA:467,0
DA:468,0
DA:470,17
DA:498,8
DA:499,8
DA:648,6
DA:649,6
DA:657,8
DA:658,8
DA:666,23
DA:667,23
DA:675,8
DA:676,8
DA:875,17
DA:876,17
DA:1339,17
DA:1341,17
DA:1342,17
DA:1343,17
DA:1386,4
DA:1389,4
DA:1390,4
DA:1392,4
DA:1393,4
DA:1394,12
DA:1396,4
DA:1397,4
DA:1399,4
DA:1422,2
DA:1423,2
BA:1394,2
BA:1394,2
BA:1394,2
BA:1394,2
BA:1394,2
BA:1394,1
BA:1394,2
BA:1394,2
BA:1399,2
BA:1399,2
BA:1399,2
BA:1399,1
LF:76
LH:73
end_of_record
SF:/usr/include/c++/4.3/bits/stl_pair.h
FN:88,_ZNSt4pairISt17_Rb_tree_iteratorIiEbEC1ERKS1_RKb
DA:88,21
DA:89,21
LF:2
LH:2
end_of_record
SF:/usr/include/c++/4.3/bits/stl_set.h
FN:270,_ZNKSt3setIiSt4lessIiESaIiEE3endEv
FN:261,_ZNKSt3setIiSt4lessIiESaIiEE5beginEv
FN:141,_ZNSt3setIiSt4lessIiESaIiEEC1Ev
FN:93,_ZNSt3setIiSt4lessIiESaIiEED1Ev
FN:405,_ZNSt3setIiSt4lessIiESaIiEE6insertESt23_Rb_tree_const_iteratorIiERKi
DA:93,20
DA:141,16
DA:142,16
DA:261,32
DA:262,32
DA:270,86
DA:271,86
DA:405,10
DA:406,10
LF:9
LH:9
end_of_record
SF:/usr/include/c++/4.3/bits/stl_tree.h
FN:247,_ZNKSt23_Rb_tree_const_iteratorIiEdeEv
FN:285,_ZNKSt23_Rb_tree_const_iteratorIiEeqERKS0_
FN:452,_ZNSt8_Rb_treeIiiSt9_IdentityIiESt4lessIiESaIiEE8_M_beginEv
FN:398,_ZNSt8_Rb_treeIiiSt9_IdentityIiESt4lessIiESaIiEE13_Rb_tree_implIS3_Lb0EED1Ev
FN:487,_ZNSt8_Rb_treeIiiSt9_IdentityIiESt4lessIiESaIiEE8_S_rightEPSt18_Rb_tree_node_base
FN:479,_ZNSt8_Rb_treeIiiSt9_IdentityIiESt4lessIiESaIiEE7_S_leftEPSt18_Rb_tree_node_base
FN:240,_ZNSt23_Rb_tree_const_iteratorIiEC1EPKSt13_Rb_tree_nodeIiE
FN:614,_ZNKSt8_Rb_treeIiiSt9_IdentityIiESt4lessIiESaIiEE3endEv
FN:603,_ZNKSt8_Rb_treeIiiSt9_IdentityIiESt4lessIiESaIiEE5beginEv
FN:415,_ZNSt8_Rb_treeIiiSt9_IdentityIiESt4lessIiESaIiEE13_Rb_tree_implIS3_Lb0EE13_M_initializeEv
FN:403,_ZNSt8_Rb_treeIiiSt9_IdentityIiESt4lessIiESaIiEE13_Rb_tree_implIS3_Lb0EEC1Ev
FN:562,_ZNSt8_Rb_treeIiiSt9_IdentityIiESt4lessIiESaIiEEC1Ev
FN:347,_ZNKSt8_Rb_treeIiiSt9_IdentityIiESt4lessIiESaIiEE21_M_get_Node_allocatorEv
FN:351,_ZNKSt8_Rb_treeIiiSt9_IdentityIiESt4lessIiESaIiEE13get_allocatorEv
FN:243,_ZNSt23_Rb_tree_const_iteratorIiEC1ERKSt17_Rb_tree_iteratorIiE
FN:463,_ZNSt8_Rb_treeIiiSt9_IdentityIiESt4lessIiESaIiEE6_M_endEv
FN:444,_ZNSt8_Rb_treeIiiSt9_IdentityIiESt4lessIiESaIiEE12_M_rightmostEv
FN:641,_ZNKSt8_Rb_treeIiiSt9_IdentityIiESt4lessIiESaIiEE4sizeEv
FN:436,_ZNSt8_Rb_treeIiiSt9_IdentityIiESt4lessIiESaIiEE11_M_leftmostEv
FN:491,_ZNSt8_Rb_treeIiiSt9_IdentityIiESt4lessIiESaIiEE8_S_rightEPKSt18_Rb_tree_node_base
FN:168,_ZNSt17_Rb_tree_iteratorIiEC1EPSt13_Rb_tree_nodeIiE
FN:495,_ZNSt8_Rb_treeIiiSt9_IdentityIiESt4lessIiESaIiEE8_S_valueEPKSt18_Rb_tree_node_base
FN:499,_ZNSt8_Rb_treeIiiSt9_IdentityIiESt4lessIiESaIiEE6_S_keyEPKSt18_Rb_tree_node_base
FN:596,_ZNSt8_Rb_treeIiiSt9_IdentityIiESt4lessIiESaIiEE5beginEv
FN:210,_ZNKSt17_Rb_tree_iteratorIiEeqERKS0_
FN:471,_ZNSt8_Rb_treeIiiSt9_IdentityIiESt4lessIiESaIiEE8_S_valueEPKSt13_Rb_tree_nodeIiE
FN:475,_ZNSt8_Rb_treeIiiSt9_IdentityIiESt4lessIiESaIiEE6_S_keyEPKSt13_Rb_tree_nodeIiE
FN:360,_ZNSt8_Rb_treeIiiSt9_IdentityIiESt4lessIiESaIiEE11_M_put_nodeEPSt13_Rb_tree_nodeIiE
FN:388,_ZNSt8_Rb_treeIiiSt9_IdentityIiESt4lessIiESaIiEE15_M_destroy_nodeEPSt13_Rb_tree_nodeIiE
FN:936,_ZNSt8_Rb_treeIiiSt9_IdentityIiESt4lessIiESaIiEE8_M_eraseEPSt13_Rb_tree_nodeIiE
FN:584,_ZNSt8_Rb_treeIiiSt9_IdentityIiESt4lessIiESaIiEED1Ev
FN:356,_ZNSt8_Rb_treeIiiSt9_IdentityIiESt4lessIiESaIiEE11_M_get_nodeEv
FN:364,_ZNSt8_Rb_treeIiiSt9_IdentityIiESt4lessIiESaIiEE14_M_create_nodeERKi
FN:270,_ZNSt23_Rb_tree_const_iteratorIiEmmEv
FN:846,_ZNSt8_Rb_treeIiiSt9_IdentityIiESt4lessIiESaIiEE10_M_insert_EPKSt18_Rb_tree_node_baseS8_RKi
FN:195,_ZNSt17_Rb_tree_iteratorIiEmmEv
FN:1133,_ZNSt8_Rb_treeIiiSt9_IdentityIiESt4lessIiESaIiEE16_M_insert_uniqueERKi
FN:255,_ZNSt23_Rb_tree_const_iteratorIiEppEv
FN:1178,_ZNSt8_Rb_treeIiiSt9_IdentityIiESt4lessIiESaIiEE17_M_insert_unique_ESt23_Rb_tree_const_iteratorIiERKi
DA:168,129
DA:169,129
DA:195,0
DA:197,0
DA:198,0
DA:210,46
DA:211,46
DA:240,124
DA:241,124
DA:243,50
DA:244,50
DA:247,66
DA:248,66
DA:255,50
DA:257,50
DA:258,50
DA:270,0
DA:272,0
DA:273,0
DA:285,16
DA:286,16
DA:347,68
DA:348,68
DA:351,64
DA:352,64
DA:356,32
DA:357,32
DA:360,32
DA:361,32
DA:364,32
DA:366,32
DA:368,32
DA:369,0
DA:371,0
DA:372,0
DA:374,32
DA:388,32
DA:390,32
DA:391,32
DA:392,32
DA:398,20
DA:403,16
DA:405,16
DA:406,16
DA:415,20
DA:417,20
DA:418,20
DA:419,20
DA:420,20
DA:421,20
DA:436,22
DA:437,22
DA:444,20
DA:445,20
DA:452,77
DA:453,77
DA:463,105
DA:464,105
DA:471,45
DA:472,45
DA:475,45
DA:476,45
DA:479,58
DA:480,58
DA:487,45
DA:488,45
DA:491,1
DA:492,1
DA:495,35
DA:496,35
DA:499,35
DA:500,35
DA:562,16
DA:584,20
DA:585,20
DA:596,19
DA:599,19
DA:603,36
DA:606,36
DA:614,88
DA:617,88
DA:641,30
DA:642,30
DA:846,24
DA:850,24
DA:852,24
DA:854,24
DA:857,24
DA:858,24
DA:936,58
DA:939,145
DA:941,29
DA:942,29
DA:943,29
DA:944,29
DA:946,58
DA:1133,21
DA:1135,21
DA:1136,21
DA:1137,21
DA:1138,50
DA:1140,8
DA:1141,8
DA:1142,8
DA:1144,21
DA:1145,21
DA:1147,17
DA:1148,17
DA:1150,0
DA:1152,4
DA:1153,3
DA:1154,1
DA:1178,10
DA:1181,10
DA:1183,7
DA:1186,1
DA:1188,6
DA:1190,3
DA:1194,2
DA:1195,2
DA:1196,2
DA:1197,0
DA:1200,0
DA:1201,0
DA:1204,0
DA:1207,0
DA:1209,1
DA:1213,1
DA:1214,1
DA:1215,1
DA:1216,0
DA:1219,0
DA:1220,0
DA:1222,0
DA:1225,0
DA:1230,0
BA:850,2
BA:850,2
BA:850,2
BA:850,2
BA:850,2
BA:850,2
BA:939,2
BA:939,2
BA:1138,2
BA:1138,2
BA:1142,2
BA:1142,2
BA:1145,2
BA:1145,2
BA:1147,2
BA:1147,1
BA:1152,2
BA:1152,2
BA:1181,2
BA:1181,2
BA:1183,2
BA:1183,2
BA:1183,2
BA:1183,1
BA:1183,2
BA:1183,2
BA:1190,2
BA:1190,2
BA:1195,2
BA:1195,1
BA:1197,0
BA:1197,0
BA:1200,0
BA:1200,0
BA:1209,2
BA:1209,1
BA:1214,2
BA:1214,1
BA:1216,0
BA:1216,0
BA:1219,0
BA:1219,0
LF:136
LH:115
end_of_record
SF:/usr/include/c++/4.3/bits/stl_uninitialized.h
FN:97,_ZNSt20__uninitialized_copyILb1EE18uninitialized_copyIPiS2_EET0_T_S4_S3_
FN:113,_ZSt18uninitialized_copyIPiS0_ET0_T_S2_S1_
FN:261,_ZSt22__uninitialized_copy_aIPiS0_iET0_T_S2_S1_RSaIT1_E
FN:268,_ZSt22__uninitialized_move_aIPiS0_SaIiEET0_T_S3_S2_RT1_
DA:97,0
DA:98,0
DA:113,0
DA:122,0
DA:261,0
DA:262,0
DA:268,0
DA:272,0
LF:8
LH:0
end_of_record
SF:/usr/include/c++/4.3/bits/stl_vector.h
FN:97,_ZNSt12_Vector_baseIiSaIiEE19_M_get_Tp_allocatorEv
FN:395,_ZNSt6vectorIiSaIiEE3endEv
FN:377,_ZNSt6vectorIiSaIiEE5beginEv
FN:79,_ZNSt12_Vector_baseIiSaIiEE12_Vector_implD1Ev
FN:84,_ZNSt12_Vector_baseIiSaIiEE12_Vector_implC1Ev
FN:108,_ZNSt12_Vector_baseIiSaIiEEC2Ev
FN:213,_ZNSt6vectorIiSaIiEEC1Ev
FN:484,_ZNKSt6vectorIiSaIiEE4sizeEv
FN:101,_ZNKSt12_Vector_baseIiSaIiEE19_M_get_Tp_allocatorEv
FN:489,_ZNKSt6vectorIiSaIiEE8max_sizeEv
FN:147,_ZNSt12_Vector_baseIiSaIiEE13_M_deallocateEPij
FN:135,_ZNSt12_Vector_baseIiSaIiEED2Ev
FN:299,_ZNSt6vectorIiSaIiEED1Ev
FN:1075,_ZNKSt6vectorIiSaIiEE12_M_check_lenEjPKc
FN:143,_ZNSt12_Vector_baseIiSaIiEE11_M_allocateEj
DA:79,0
DA:84,0
DA:85,0
DA:86,0
DA:97,0
DA:98,0
DA:101,0
DA:102,0
DA:108,0
DA:109,0
DA:135,0
DA:136,0
DA:137,0
DA:143,0
DA:144,0
DA:147,0
DA:149,0
DA:150,0
DA:151,0
DA:213,0
DA:214,0
DA:299,0
DA:300,0
DA:301,0
DA:377,0
DA:378,0
DA:395,0
DA:396,0
DA:484,0
DA:485,0
DA:489,0
DA:490,0
DA:1075,0
DA:1077,0
DA:1078,0
DA:1080,0
DA:1081,0
BA:144,0
BA:144,0
BA:149,0
BA:149,0
BA:1077,0
BA:1077,0
BA:1081,0
BA:1081,0
BA:1081,0
BA:1081,0
LF:37
LH:0
end_of_record
SF:/usr/include/c++/4.3/bits/vector.tcc
FN:283,_ZNSt6vectorIiSaIiEE13_M_insert_auxEN9__gnu_cxx17__normal_iteratorIPiS1_EERKi
FN:94,_ZNSt6vectorIiSaIiEE6insertEN9__gnu_cxx17__normal_iteratorIPiS1_EERKi
DA:94,17
DA:96,17
DA:97,17
DA:100,0
DA:101,0
DA:113,17
DA:115,17
DA:283,0
DA:286,0
DA:288,0
DA:291,0
DA:293,0
DA:295,0
DA:299,0
DA:307,0
DA:308,0
DA:309,0
DA:316,0
DA:321,0
DA:323,0
DA:324,0
DA:330,0
DA:332,0
DA:333,0
DA:334,0
DA:336,0
DA:338,0
DA:341,0
DA:342,0
DA:343,0
DA:345,0
BA:97,1
BA:97,2
BA:97,0
BA:97,0
BA:97,1
BA:97,2
BA:286,0
BA:286,0
LF:31
LH:5
end_of_record
SF:/usr/include/c++/4.3/ext/atomicity.h
FN:67,_ZN9__gnu_cxxL25__exchange_and_add_singleEPii
FN:50,_ZN9__gnu_cxxL18__exchange_and_addEPVii
FN:80,_ZN9__gnu_cxxL27__exchange_and_add_dispatchEPii
DA:50,0
DA:51,0
DA:67,0
DA:69,0
DA:70,0
DA:71,0
DA:80,0
DA:83,0
DA:84,0
DA:86,0
BA:83,0
BA:83,0
LF:10
LH:0
end_of_record
SF:/usr/include/c++/4.3/ext/new_allocator.h
FN:69,_ZN9__gnu_cxx13new_allocatorIcEC2Ev
FN:76,_ZN9__gnu_cxx13new_allocatorIcED2Ev
FN:76,_ZN9__gnu_cxx13new_allocatorISt10_List_nodeIiEED2Ev
FN:118,_ZN9__gnu_cxx13new_allocatorIiE7destroyEPi
FN:76,_ZN9__gnu_cxx13new_allocatorISt13_Rb_tree_nodeIiEED2Ev
FN:71,_ZN9__gnu_cxx13new_allocatorIcEC2ERKS1_
FN:76,_ZN9__gnu_cxx13new_allocatorIiED2Ev
FN:107,_ZN9__gnu_cxx13new_allocatorIiE9constructEPiRKi
FN:69,_ZN9__gnu_cxx13new_allocatorISt10_List_nodeIiEEC2Ev
FN:69,_ZN9__gnu_cxx13new_allocatorIiEC2Ev
FN:69,_ZN9__gnu_cxx13new_allocatorISt13_Rb_tree_nodeIiEEC2Ev
FN:101,_ZNK9__gnu_cxx13new_allocatorISt10_List_nodeIiEE8max_sizeEv
FN:101,_ZNK9__gnu_cxx13new_allocatorIiE8max_sizeEv
FN:101,_ZNK9__gnu_cxx13new_allocatorISt13_Rb_tree_nodeIiEE8max_sizeEv
FN:97,_ZN9__gnu_cxx13new_allocatorIiE10deallocateEPij
FN:97,_ZN9__gnu_cxx13new_allocatorISt13_Rb_tree_nodeIiEE10deallocateEPS2_j
FN:97,_ZN9__gnu_cxx13new_allocatorISt10_List_nodeIiEE10deallocateEPS2_j
FN:87,_ZN9__gnu_cxx13new_allocatorIiE8allocateEjPKv
FN:87,_ZN9__gnu_cxx13new_allocatorISt13_Rb_tree_nodeIiEE8allocateEjPKv
FN:87,_ZN9__gnu_cxx13new_allocatorISt10_List_nodeIiEE8allocateEjPKv
DA:69,24
DA:71,0
DA:76,28
DA:87,49
DA:89,49
DA:90,0
DA:92,49
DA:97,49
DA:98,49
DA:101,49
DA:102,49
DA:107,0
DA:108,0
DA:118,49
BA:89,0
BA:89,0
BA:89,1
BA:89,2
BA:89,1
BA:89,2
BA:108,0
BA:108,0
LF:14
LH:10
end_of_record
SF:/usr/include/c++/4.3/ext/type_traits.h
FN:154,_ZN9__gnu_cxx17__is_null_pointerIcEEbPT_
DA:154,0
DA:155,0
LF:2
LH:0
end_of_record
SF:/usr/include/c++/4.3/i486-linux-gnu/bits/gthr-default.h
FN:212,_ZL18__gthread_active_pv
DA:212,0
DA:216,0
LF:2
LH:0
end_of_record
SF:/usr/include/c++/4.3/iosfwd
FN:68,_ZNSt15basic_stringbufIcSt11char_traitsIcESaIcEED1Ev
DA:68,0
BA:68,0
BA:68,0
LF:1
LH:0
end_of_record
SF:/usr/include/c++/4.3/iostream
DA:77,1
LF:1
LH:1
end_of_record
SF:/usr/include/c++/4.3/new
FN:105,_ZnwjPv
DA:105,0
LF:1
LH:0
end_of_record
SF:/usr/include/c++/4.3/ostream
FN:112,_ZNSolsEPFRSoS_E
FN:365,_ZNSoC2Ev
FN:95,_ZNSoD2Ev
FN:512,_ZStlsISt11char_traitsIcEERSt13basic_ostreamIcT_ES5_PKc
FN:566,_ZSt5flushIcSt11char_traitsIcEERSt13basic_ostreamIT_T0_ES6_
FN:545,_ZSt4endlIcSt11char_traitsIcEERSt13basic_ostreamIT_T0_ES6_
DA:95,0
DA:112,0
DA:117,0
DA:365,0
DA:366,0
DA:512,0
DA:514,0
DA:515,0
DA:517,0
DA:519,0
DA:545,0
DA:546,0
DA:566,0
DA:567,0
BA:95,0
BA:95,0
BA:95,0
BA:95,0
BA:514,0
BA:514,0
LF:14
LH:0
end_of_record
SF:/usr/include/c++/4.3/sstream
FN:96,_ZNSt15basic_stringbufIcSt11char_traitsIcESaIcEEC1ESt13_Ios_Openmode
FN:402,_ZNSt19basic_ostringstreamIcSt11char_traitsIcESaIcEEC1ESt13_Ios_Openmode
FN:431,_ZNSt19basic_ostringstreamIcSt11char_traitsIcESaIcEED1Ev
FN:124,_ZNKSt15basic_stringbufIcSt11char_traitsIcESaIcEE3strEv
FN:450,_ZNKSt19basic_ostringstreamIcSt11char_traitsIcESaIcEE3strEv
DA:96,0
DA:97,0
DA:98,0
DA:124,0
DA:126,0
DA:127,0
DA:130,0
DA:131,0
DA:133,0
DA:136,0
DA:137,0
DA:402,0
DA:403,0
DA:404,0
DA:431,0
DA:432,0
DA:450,0
DA:451,0
BA:127,0
BA:127,0
BA:130,0
BA:130,0
BA:432,0
BA:432,0
BA:432,0
BA:432,0
BA:432,0
BA:432,0
LF:18
LH:0
end_of_record
SF:/usr/include/c++/4.3/streambuf
FN:513,_ZNKSt15basic_streambufIcSt11char_traitsIcEE4pptrEv
FN:469,_ZNKSt15basic_streambufIcSt11char_traitsIcEE5egptrEv
FN:510,_ZNKSt15basic_streambufIcSt11char_traitsIcEE5pbaseEv
FN:444,_ZNSt15basic_streambufIcSt11char_traitsIcEEC2Ev
FN:197,_ZNSt15basic_streambufIcSt11char_traitsIcEED2Ev
DA:197,0
DA:198,0
DA:444,0
DA:447,0
DA:448,0
DA:469,0
DA:510,0
DA:513,0
BA:198,0
BA:198,0
LF:8
LH:0
end_of_record
SF:/usr/include/c++/4.3/typeinfo
FN:122,_ZNKSt9type_info6beforeERKS_
DA:122,0
DA:123,0
LF:2
LH:0
end_of_record
TN:
SF:/home/mornfall/dev/pkg/ept-work/wibble/test.h
FN:13,_ZN8LocationC1ERKS_
FN:17,_ZN8LocationC1EPKciSs
FN:52,_ZlsIiER12AssertFailedS1_T_
FN:52,_ZlsISsER12AssertFailedS1_T_
FN:52,_ZlsIcER12AssertFailedS1_T_
FN:52,_ZlsIPKcER12AssertFailedS3_T_
FN:52,_ZlsIjER12AssertFailedS1_T_
FN:33,_ZN12AssertFailedC1E8LocationRSo
FN:41,_ZN12AssertFailedD1Ev
FN:13,_ZN8LocationD1Ev
FN:59,_Z9assert_fnIbEv8LocationT_
FN:67,_Z12assert_eq_fnIccEv8LocationT_T0_
FN:67,_Z12assert_eq_fnIiiEv8LocationT_T0_
FN:67,_Z12assert_eq_fnIjjEv8LocationT_T0_
FN:67,_Z12assert_eq_fnIPKcS1_Ev8LocationT_T0_
FN:67,_Z12assert_eq_fnISsPKcEv8LocationT_T0_
FN:67,_Z12assert_eq_fnISsSsEv8LocationT_T0_
DA:13,0
DA:17,0
DA:18,0
DA:33,0
DA:34,0
DA:36,0
DA:38,0
DA:39,0
DA:41,0
DA:42,0
DA:43,0
DA:45,0
DA:46,0
DA:48,0
DA:52,0
DA:54,0
DA:55,0
DA:59,0
DA:61,0
DA:62,0
DA:64,0
DA:67,3
DA:69,3
DA:70,0
DA:71,0
DA:75,3
BA:42,0
BA:42,0
BA:61,0
BA:61,0
BA:69,0
BA:69,0
BA:69,0
BA:69,0
BA:69,0
BA:69,0
BA:69,1
BA:69,2
BA:69,0
BA:69,0
BA:69,0
BA:69,0
LF:26
LH:3
end_of_record
SF:/home/mornfall/dev/pkg/ept-work/wibble/sys/mmap.test.h
FN:29,_ZN8TestMMap6simpleEv
DA:29,1
DA:30,1
DA:31,1
DA:32,1
DA:33,2
DA:34,2
DA:36,2
DA:37,2
DA:38,1
DA:39,2
DA:40,2
DA:41,2
DA:42,2
DA:43,2
DA:45,1
DA:46,1
DA:47,1
DA:48,2
DA:49,2
DA:51,2
DA:52,1
DA:53,2
DA:54,2
DA:55,2
DA:56,2
DA:57,2
DA:59,1
DA:60,1
DA:61,1
DA:62,2
DA:63,2
DA:64,1
LF:32
LH:32
end_of_record
SF:/srv/build/pkg/ept-work/default/wibble/wibble-test-generated-_home_mornfall_dev_pkg_ept-work_wibble_sys_mmap.cpp
FN:3,_Z41__static_initialization_and_destruction_0ii
FN:3,_GLOBAL__I__Z15run_MMap_simplev
FN:3,_Z15run_MMap_simplev
DA:3,4
BA:3,2
BA:3,1
BA:3,2
BA:3,1
LF:1
LH:1
end_of_record
SF:/usr/include/c++/4.3/bits/allocator.h
FN:98,_ZNSaIcEC1Ev
FN:106,_ZNSaIcED2Ev
FN:106,_ZNSaIcED1Ev
FN:100,_ZNSaIcEC2ERKS_
FN:100,_ZNSaIcEC1ERKS_
FN:118,_ZSteqIcEbRKSaIT_ES3_
DA:98,0
DA:100,0
DA:101,0
DA:106,0
DA:118,0
DA:119,0
LF:6
LH:0
end_of_record
SF:/usr/include/c++/4.3/bits/basic_ios.h
FN:131,_ZNKSt9basic_iosIcSt11char_traitsIcEE7rdstateEv
FN:454,_ZNSt9basic_iosIcSt11char_traitsIcEEC2Ev
FN:276,_ZNSt9basic_iosIcSt11char_traitsIcEED2Ev
FN:151,_ZNSt9basic_iosIcSt11char_traitsIcEE8setstateESt12_Ios_Iostate
FN:51,_ZSt13__check_facetISt5ctypeIcEERKT_PS3_
FN:443,_ZNKSt9basic_iosIcSt11char_traitsIcEE5widenEc
DA:51,0
DA:53,0
DA:54,0
DA:55,0
DA:131,0
DA:132,0
DA:151,0
DA:152,0
DA:276,0
DA:443,0
DA:444,0
DA:454,0
DA:456,0
DA:457,0
BA:53,0
BA:53,0
BA:276,0
BA:276,0
LF:14
LH:0
end_of_record
SF:/usr/include/c++/4.3/bits/basic_string.h
FN:277,_ZNKSs7_M_dataEv
FN:258,_ZNSs12_Alloc_hiderD1Ev
FN:285,_ZNKSs6_M_repEv
FN:606,_ZNKSs4sizeEv
FN:214,_ZNSs4_Rep10_M_refdataEv
FN:1544,_ZNKSs4dataEv
FN:178,_ZNSs4_Rep12_S_empty_repEv
FN:411,_ZNSs12_S_empty_repEv
FN:259,_ZNSs12_Alloc_hiderC1EPcRKSaIcE
FN:2067,_ZNSsC1Ev
FN:1551,_ZNKSs13get_allocatorEv
FN:200,_ZNSs4_Rep15_M_set_sharableEv
FN:204,_ZNSs4_Rep26_M_set_length_and_sharableEj
FN:2188,_ZSteqIcSt11char_traitsIcESaIcEEbRKSbIT_T0_T1_EPKS3_
FN:2421,_ZStlsIcSt11char_traitsIcESaIcEERSt13basic_ostreamIT_T0_ES7_RKSbIS4_S5_T1_E
FN:339,_ZNSs7_M_copyEPcPKcj
FN:384,_ZNSs13_S_copy_charsEPcS_S_
FN:1462,_ZNSs16_S_construct_auxIPcEES0_T_S1_RKSaIcESt12__false_type
FN:1478,_ZNSs12_S_constructIPcEES0_T_S1_RKSaIcE
FN:501,_ZNSsaSERKSs
FN:2162,_ZSteqIcEN9__gnu_cxx11__enable_ifIXsrSt9__is_charIT_E7__valueEbE6__typeERKSbIS3_St11char_traitsIS3_ESaIS3_EESC_
FN:229,_ZNSs4_Rep10_M_disposeERKSaIcE
FN:493,_ZNSsD1Ev
DA:178,0
DA:183,0
DA:184,0
DA:200,0
DA:201,0
DA:204,0
DA:206,0
DA:207,0
DA:208,0
DA:211,0
DA:214,0
DA:215,0
DA:229,0
DA:232,0
DA:234,0
DA:236,0
DA:237,0
DA:258,0
DA:259,0
DA:260,0
DA:277,0
DA:278,0
DA:285,0
DA:286,0
DA:339,0
DA:341,0
DA:342,0
DA:344,0
DA:345,0
DA:384,0
DA:385,0
DA:411,0
DA:412,0
DA:493,0
DA:494,0
DA:501,0
DA:502,0
DA:606,0
DA:607,0
DA:1462,0
DA:1465,0
DA:1478,0
DA:1481,0
DA:1544,0
DA:1545,0
DA:1551,0
DA:1552,0
DA:2067,0
DA:2069,0
DA:2162,0
DA:2165,0
DA:2188,0
DA:2189,0
DA:2421,0
DA:2425,0
BA:232,0
BA:232,0
BA:234,0
BA:234,0
BA:341,0
BA:341,0
BA:2165,0
BA:2165,0
BA:2165,0
BA:2165,0
LF:55
LH:0
end_of_record
SF:/usr/include/c++/4.3/bits/basic_string.tcc
FN:130,_ZNSs12_S_constructIPcEES0_T_S1_RKSaIcESt20forward_iterator_tag
FN:234,_ZNSsC1IPcEET_S1_RKSaIcE
DA:130,0
DA:133,0
DA:134,0
DA:137,0
DA:139,0
DA:142,0
DA:144,0
DA:146,0
DA:147,0
DA:149,0
DA:150,0
DA:152,0
DA:153,0
DA:234,0
DA:235,0
DA:236,0
BA:133,0
BA:133,0
BA:133,0
BA:133,0
BA:133,0
BA:133,0
BA:133,0
BA:133,0
BA:137,0
BA:137,0
BA:137,0
BA:137,0
BA:137,0
BA:137,0
LF:16
LH:0
end_of_record
SF:/usr/include/c++/4.3/bits/char_traits.h
FN:245,_ZNSt11char_traitsIcE6assignERcRKc
FN:261,_ZNSt11char_traitsIcE6lengthEPKc
FN:273,_ZNSt11char_traitsIcE4copyEPcPKcj
FN:257,_ZNSt11char_traitsIcE7compareEPKcS2_j
DA:245,0
DA:246,0
DA:257,0
DA:258,0
DA:261,0
DA:262,0
DA:273,0
DA:274,0
LF:8
LH:0
end_of_record
SF:/usr/include/c++/4.3/bits/ios_base.h
FN:125,_ZStorSt13_Ios_OpenmodeS_
FN:163,_ZStorSt12_Ios_IostateS_
DA:125,0
DA:126,0
DA:163,0
DA:164,0
LF:4
LH:0
end_of_record
SF:/usr/include/c++/4.3/bits/locale_facets.h
FN:1165,_ZNKSt5ctypeIcE13_M_widen_initEv
FN:871,_ZNKSt5ctypeIcE5widenEc
DA:871,0
DA:873,0
DA:874,0
DA:875,0
DA:876,0
DA:1165,0
DA:1168,0
DA:1169,0
DA:1170,0
DA:1172,0
DA:1174,0
DA:1175,0
DA:1176,0
BA:873,0
BA:873,0
BA:1168,0
BA:1168,0
BA:1174,0
BA:1174,0
LF:13
LH:0
end_of_record
SF:/usr/include/c++/4.3/bits/stl_iterator_base_funcs.h
FN:93,_ZSt10__distanceIPcENSt15iterator_traitsIT_E15difference_typeES2_S2_St26random_access_iterator_tag
FN:115,_ZSt8distanceIPcENSt15iterator_traitsIT_E15difference_typeES2_S2_
DA:93,0
DA:98,0
DA:115,0
DA:119,0
LF:4
LH:0
end_of_record
SF:/usr/include/c++/4.3/bits/stl_iterator_base_types.h
FN:166,_ZSt19__iterator_categoryIPcENSt15iterator_traitsIT_E17iterator_categoryERKS2_
DA:166,0
DA:167,0
LF:2
LH:0
end_of_record
SF:/usr/include/c++/4.3/ext/atomicity.h
FN:67,_ZN9__gnu_cxxL25__exchange_and_add_singleEPii
FN:50,_ZN9__gnu_cxxL18__exchange_and_addEPVii
FN:80,_ZN9__gnu_cxxL27__exchange_and_add_dispatchEPii
DA:50,0
DA:51,0
DA:67,0
DA:69,0
DA:70,0
DA:71,0
DA:80,0
DA:83,0
DA:84,0
DA:86,0
BA:83,0
BA:83,0
LF:10
LH:0
end_of_record
SF:/usr/include/c++/4.3/ext/new_allocator.h
FN:69,_ZN9__gnu_cxx13new_allocatorIcEC2Ev
FN:76,_ZN9__gnu_cxx13new_allocatorIcED2Ev
FN:71,_ZN9__gnu_cxx13new_allocatorIcEC2ERKS1_
DA:69,0
DA:71,0
DA:76,0
LF:3
LH:0
end_of_record
SF:/usr/include/c++/4.3/ext/type_traits.h
FN:154,_ZN9__gnu_cxx17__is_null_pointerIcEEbPT_
DA:154,0
DA:155,0
LF:2
LH:0
end_of_record
SF:/usr/include/c++/4.3/i486-linux-gnu/bits/gthr-default.h
FN:212,_ZL18__gthread_active_pv
DA:212,0
DA:216,0
LF:2
LH:0
end_of_record
SF:/usr/include/c++/4.3/iosfwd
FN:68,_ZNSt15basic_stringbufIcSt11char_traitsIcESaIcEED1Ev
DA:68,0
BA:68,0
BA:68,0
LF:1
LH:0
end_of_record
SF:/usr/include/c++/4.3/iostream
DA:77,1
LF:1
LH:1
end_of_record
SF:/usr/include/c++/4.3/ostream
FN:112,_ZNSolsEPFRSoS_E
FN:365,_ZNSoC2Ev
FN:95,_ZNSoD2Ev
FN:464,_ZStlsISt11char_traitsIcEERSt13basic_ostreamIcT_ES5_c
FN:512,_ZStlsISt11char_traitsIcEERSt13basic_ostreamIcT_ES5_PKc
FN:566,_ZSt5flushIcSt11char_traitsIcEERSt13basic_ostreamIT_T0_ES6_
FN:545,_ZSt4endlIcSt11char_traitsIcEERSt13basic_ostreamIT_T0_ES6_
FN:195,_ZNSolsEj
DA:95,0
DA:112,0
DA:117,0
DA:195,0
DA:199,0
DA:365,0
DA:366,0
DA:464,0
DA:465,0
DA:512,0
DA:514,0
DA:515,0
DA:517,0
DA:519,0
DA:545,0
DA:546,0
DA:566,0
DA:567,0
BA:95,0
BA:95,0
BA:95,0
BA:95,0
BA:514,0
BA:514,0
LF:18
LH:0
end_of_record
SF:/usr/include/c++/4.3/sstream
FN:96,_ZNSt15basic_stringbufIcSt11char_traitsIcESaIcEEC1ESt13_Ios_Openmode
FN:402,_ZNSt19basic_ostringstreamIcSt11char_traitsIcESaIcEEC1ESt13_Ios_Openmode
FN:431,_ZNSt19basic_ostringstreamIcSt11char_traitsIcESaIcEED1Ev
FN:124,_ZNKSt15basic_stringbufIcSt11char_traitsIcESaIcEE3strEv
FN:450,_ZNKSt19basic_ostringstreamIcSt11char_traitsIcESaIcEE3strEv
DA:96,0
DA:97,0
DA:98,0
DA:124,0
DA:126,0
DA:127,0
DA:130,0
DA:131,0
DA:133,0
DA:136,0
DA:137,0
DA:402,0
DA:403,0
DA:404,0
DA:431,0
DA:432,0
DA:450,0
DA:451,0
BA:127,0
BA:127,0
BA:130,0
BA:130,0
BA:432,0
BA:432,0
BA:432,0
BA:432,0
BA:432,0
BA:432,0
LF:18
LH:0
end_of_record
SF:/usr/include/c++/4.3/streambuf
FN:513,_ZNKSt15basic_streambufIcSt11char_traitsIcEE4pptrEv
FN:469,_ZNKSt15basic_streambufIcSt11char_traitsIcEE5egptrEv
FN:510,_ZNKSt15basic_streambufIcSt11char_traitsIcEE5pbaseEv
FN:444,_ZNSt15basic_streambufIcSt11char_traitsIcEEC2Ev
FN:197,_ZNSt15basic_streambufIcSt11char_traitsIcEED2Ev
DA:197,0
DA:198,0
DA:444,0
DA:447,0
DA:448,0
DA:469,0
DA:510,0
DA:513,0
BA:198,0
BA:198,0
LF:8
LH:0
end_of_record
TN:
SF:/home/mornfall/dev/pkg/ept-work/wibble/list.h
FN:340,_ZN6wibble4list5countIN8TestList2MyEEEjT_
FN:340,_ZN6wibble4list5countIN8TestList3My2EEEjT_
FN:286,_ZNK6wibble4list5EmptyIiE5emptyEv
FN:298,_ZNK6wibble4list8SingularIiE4headEv
FN:299,_ZNK6wibble4list8SingularIiE5emptyEv
FN:311,_ZNK6wibble4list6AppendINS0_8SingularIiEES3_E4headEv
FN:317,_ZNK6wibble4list6AppendINS0_8SingularIiEES3_E5emptyEv
FN:169,_ZN6wibble4list8FilteredIN8TestList2MyEPFbiEEC1ES3_S5_
FN:370,_ZN6wibble4list6filterIN8TestList2MyEPFbiEEENS0_8FilteredIT_T0_EES7_S8_
FN:61,_ZN6wibble4list6SortedIN8TestList2MyEE9SharedVec6_derefEv
FN:241,_ZN6wibble4list4TakeIN8TestList2MyEEC1ES3_i
FN:400,_ZN6wibble4list4takeIN8TestList2MyEEENS0_4TakeIT_EEiS5_
FN:230,_ZNK6wibble4list4TakeIN8TestList2MyEE5emptyEv
FN:213,_ZN6wibble4list6UniqueIN8TestList3My2EEC1ES3_
FN:394,_ZN6wibble4list6uniqueIN8TestList3My2EEENS0_6UniqueIT_EES5_
FN:193,_ZNK6wibble4list6UniqueIN8TestList3My2EE4seekEv
FN:183,_ZNK6wibble4list6UniqueIN8TestList3My2EE5emptyEv
FN:205,_ZNK6wibble4list6UniqueIN8TestList3My2EE4tailEv
FN:340,_ZN6wibble4list5countINS0_6UniqueIN8TestList3My2EEEEEjT_
FN:188,_ZNK6wibble4list6UniqueIN8TestList3My2EE4headEv
FN:47,_ZN6wibble4list12ListIteratorIN8TestList2MyEEC1ES3_
FN:416,_ZN6wibble4list3endIN8TestList2MyEEENS0_12ListIteratorIT_EES5_
FN:411,_ZN6wibble4list5beginIN8TestList2MyEEENS0_12ListIteratorIT_EES5_
FN:270,_ZNK6wibble4list3MapIN8TestList2MyESt25pointer_to_unary_functionIiiEE5emptyEv
FN:297,_ZN6wibble4list8SingularIiEC1Ei
FN:330,_ZN6wibble4list8singularIiEENS0_8SingularIT_EERKS3_
FN:296,_ZN6wibble4list8SingularIiEC1Ev
FN:300,_ZNK6wibble4list8SingularIiE4tailEv
FN:310,_ZN6wibble4list6AppendINS0_8SingularIiEES3_EC1ES3_S3_
FN:335,_ZN6wibble4list6appendINS0_8SingularIiEES3_EENS0_6AppendIT_T0_EERKS5_RKS6_
FN:310,_ZN6wibble4list6AppendIN8TestList2MyENS2_3My2EEC1ES3_S4_
FN:335,_ZN6wibble4list6appendIN8TestList2MyENS2_3My2EEENS0_6AppendIT_T0_EERKS6_RKS7_
FN:317,_ZNK6wibble4list6AppendIN8TestList2MyENS2_3My2EE5emptyEv
FN:318,_ZNK6wibble4list6AppendIN8TestList2MyENS2_3My2EE4tailEv
FN:340,_ZN6wibble4list5countINS0_6AppendIN8TestList2MyENS3_3My2EEEEEjT_
FN:155,_ZNK6wibble4list8FilteredIN8TestList2MyEPFbiEE4seekEv
FN:150,_ZNK6wibble4list8FilteredIN8TestList2MyEPFbiEE4headEv
FN:161,_ZNK6wibble4list8FilteredIN8TestList2MyEPFbiEE4tailEv
FN:145,_ZNK6wibble4list8FilteredIN8TestList2MyEPFbiEE5emptyEv
FN:340,_ZN6wibble4list5countINS0_8FilteredIN8TestList2MyEPFbiEEEEEjT_
FN:60,_ZN6wibble4list6SortedIN8TestList2MyEE9SharedVec4_refEv
FN:68,_ZN6wibble4list6SortedIN8TestList2MyEE9SharedPtrC1ERKS5_
FN:125,_ZN6wibble4list6SortedIN8TestList2MyEEC1ERKS4_
FN:83,_ZN6wibble4list6SortedIN8TestList2MyEE9SharedPtrptEv
FN:74,_ZN6wibble4list6SortedIN8TestList2MyEE9SharedPtraSERKS5_
FN:128,_ZN6wibble4list6SortedIN8TestList2MyEEaSERKS4_
FN:82,_ZN6wibble4list6SortedIN8TestList2MyEE9SharedPtrdeEv
FN:242,_ZN6wibble4list4TakeIN8TestList2MyEEC1Ev
FN:234,_ZNK6wibble4list4TakeIN8TestList2MyEE4tailEv
FN:340,_ZN6wibble4list5countINS0_4TakeIN8TestList2MyEEEEEjT_
FN:250,_ZN6wibble4list3MapIN8TestList2MyESt25pointer_to_unary_functionIiiEE1fEv
FN:275,_ZN6wibble4list3MapIN8TestList2MyESt25pointer_to_unary_functionIiiEEC1ERKS3_RKS5_
FN:382,_ZN6wibble4list3mapIN8TestList2MyESt25pointer_to_unary_functionIiiEEENS0_3MapIT_T0_EERKS7_RKS8_
FN:253,_ZNK6wibble4list3MapIN8TestList2MyESt25pointer_to_unary_functionIiiEE1fEv
FN:259,_ZNK6wibble4list3MapIN8TestList2MyESt25pointer_to_unary_functionIiiEE4headEv
FN:274,_ZN6wibble4list3MapIN8TestList2MyESt25pointer_to_unary_functionIiiEEC1Ev
FN:263,_ZNK6wibble4list3MapIN8TestList2MyESt25pointer_to_unary_functionIiiEE4tailEv
FN:81,_ZN6wibble4list6SortedIN8TestList2MyEE9SharedPtrcvbEv
FN:59,_ZN6wibble4list6SortedIN8TestList2MyEE9SharedVecC1Ev
FN:43,_ZNK6wibble4list12ListIteratorIN8TestList2MyEEneERKS4_
FN:24,_ZN6wibble4list12ListIteratorIN8TestList2MyEEppEv
FN:35,_ZN6wibble4list12ListIteratorIN8TestList2MyEEdeEv
FN:56,_ZN6wibble4list6SortedIN8TestList2MyEE9SharedVecD1Ev
FN:85,_ZN6wibble4list6SortedIN8TestList2MyEE9SharedPtrD1Ev
FN:54,_ZN6wibble4list6SortedIN8TestList2MyEED1Ev
FN:318,_ZNK6wibble4list6AppendINS0_8SingularIiEES3_E4tailEv
FN:66,_ZN6wibble4list6SortedIN8TestList2MyEE9SharedPtrC1Eb
FN:135,_ZN6wibble4list6SortedIN8TestList2MyEEC1ES3_
FN:388,_ZN6wibble4list4sortIN8TestList2MyEEENS0_6SortedIT_EES5_
FN:99,_ZNK6wibble4list6SortedIN8TestList2MyEE4sortEv
FN:113,_ZNK6wibble4list6SortedIN8TestList2MyEE4tailEv
FN:120,_ZNK6wibble4list6SortedIN8TestList2MyEE5emptyEv
FN:340,_ZN6wibble4list5countINS0_6SortedIN8TestList2MyEEEEEjT_
FN:108,_ZNK6wibble4list6SortedIN8TestList2MyEE4headEv
DA:24,3170
DA:25,3170
DA:26,3170
DA:35,3170
DA:36,3170
DA:43,3174
DA:44,3174
DA:47,8
DA:48,8
DA:54,2149
DA:56,0
DA:59,3
DA:60,4295
DA:61,2152
DA:66,6
DA:68,2146
DA:69,2146
DA:70,2146
DA:71,2146
DA:72,2146
DA:74,2149
DA:75,2149
DA:76,2149
DA:77,2149
DA:78,2149
DA:81,6545
DA:82,2251
DA:83,2157
DA:85,2152
DA:86,2152
DA:87,2152
DA:88,2152
DA:89,0
DA:91,2152
DA:99,6545
DA:100,6545
DA:101,6542
DA:102,3
DA:103,3
DA:105,3
DA:108,2248
DA:109,2248
DA:110,2248
DA:113,2146
DA:114,2146
DA:115,2146
DA:116,2146
DA:120,2151
DA:121,2151
DA:122,2151
DA:125,2146
DA:126,2146
DA:128,2146
DA:129,2146
DA:130,2146
DA:131,2146
DA:132,2146
DA:135,3
DA:145,1026
DA:146,1026
DA:147,1026
DA:150,512
DA:151,512
DA:152,512
DA:155,2562
DA:157,6146
DA:158,1022
DA:159,2562
DA:161,1024
DA:163,1024
DA:164,1024
DA:165,1024
DA:169,2
DA:170,2
DA:172,2
DA:183,21
DA:184,21
DA:185,21
DA:188,2
DA:189,2
DA:190,2
DA:193,113
DA:195,113
DA:196,1
DA:197,112
DA:198,2
DA:199,110
DA:200,69
DA:201,69
DA:205,21
DA:207,21
DA:208,21
DA:209,21
DA:213,3
DA:214,3
DA:216,3
DA:230,51
DA:231,51
DA:234,50
DA:235,50
DA:236,50
DA:237,50
DA:241,1
DA:242,50
DA:250,513
DA:251,513
DA:253,1024
DA:254,1024
DA:259,512
DA:260,512
DA:263,512
DA:264,512
DA:265,512
DA:266,512
DA:270,513
DA:271,513
DA:274,512
DA:275,1
DA:276,1
DA:278,1
DA:279,1
DA:286,2
DA:296,10
DA:297,11
DA:298,6
DA:299,28
DA:300,10
DA:310,5
DA:311,4
DA:312,4
DA:313,2
DA:314,2
DA:317,28
DA:318,27
DA:319,27
DA:320,27
DA:321,14
DA:323,13
DA:330,11
DA:331,11
DA:335,5
DA:336,5
DA:340,10
DA:341,10
DA:342,5308
DA:343,5288
DA:344,5288
DA:346,10
DA:370,2
DA:372,2
DA:382,1
DA:384,1
DA:388,3
DA:390,3
DA:394,3
DA:396,3
DA:400,1
DA:402,1
DA:411,1
DA:412,1
DA:416,1
DA:417,1
BA:44,2
BA:44,2
BA:44,1
BA:44,2
BA:66,2
BA:66,2
BA:70,2
BA:70,1
BA:76,2
BA:76,1
BA:86,2
BA:86,1
BA:88,1
BA:88,2
BA:89,0
BA:89,0
BA:100,2
BA:100,2
BA:157,2
BA:157,2
BA:157,2
BA:157,2
BA:157,2
BA:157,2
BA:195,2
BA:195,2
BA:197,2
BA:197,2
BA:199,2
BA:199,2
BA:231,2
BA:231,1
BA:231,2
BA:231,2
BA:312,2
BA:312,2
BA:317,2
BA:317,2
BA:317,2
BA:317,2
BA:317,2
BA:317,2
BA:317,2
BA:317,2
BA:320,2
BA:320,2
BA:320,2
BA:320,2
BA:342,2
BA:342,2
BA:342,2
BA:342,2
BA:342,2
BA:342,2
BA:342,2
BA:342,2
BA:342,2
BA:342,2
BA:342,2
BA:342,2
BA:342,2
BA:342,2
LF:162
LH:160
end_of_record
SF:/home/mornfall/dev/pkg/ept-work/wibble/test.h
FN:110,_Z18beginAssertFailurev
FN:121,_ZN13ExpectFailureC1Ev
FN:17,_ZN8LocationC1EPKciSs
FN:13,_ZN8LocationC1ERKS_
FN:52,_ZlsIiER12AssertFailedS1_T_
FN:52,_ZlsIPKcER12AssertFailedS3_T_
FN:52,_ZlsIjER12AssertFailedS1_T_
FN:33,_ZN12AssertFailedC1E8LocationRSo
FN:41,_ZN12AssertFailedD1Ev
FN:13,_ZN8LocationD1Ev
FN:67,_Z12assert_eq_fnIjiEv8LocationT_T0_
FN:67,_Z12assert_eq_fnIiiEv8LocationT_T0_
FN:59,_Z9assert_fnIbEv8LocationT_
FN:67,_Z12assert_eq_fnIjjEv8LocationT_T0_
FN:114,_Z16endAssertFailurev
FN:122,_ZN13ExpectFailureD1Ev
DA:13,5482
DA:17,5284
DA:18,5284
DA:33,99
DA:34,99
DA:36,99
DA:38,99
DA:39,99
DA:41,99
DA:42,99
DA:43,99
DA:45,0
DA:46,0
DA:48,99
DA:52,0
DA:54,0
DA:55,0
DA:59,3533
DA:61,3533
DA:62,99
DA:64,3533
DA:67,1185
DA:69,1185
DA:70,0
DA:71,0
DA:75,1185
DA:110,1
DA:111,1
DA:112,1
DA:114,1
DA:115,1
DA:116,1
DA:117,1
DA:118,1
DA:121,1
DA:122,1
BA:42,2
BA:42,1
BA:61,2
BA:61,2
BA:69,1
BA:69,2
BA:69,1
BA:69,2
BA:69,1
BA:69,2
LF:36
LH:29
end_of_record
SF:/home/mornfall/dev/pkg/ept-work/wibble/list.test.h
FN:12,_ZNK8TestList2My4headEv
FN:14,_ZNK8TestList2My4tailEv
FN:23,_ZNK8TestList2My5emptyEv
FN:25,_ZN8TestList2MyC1Eii
FN:31,_ZNK8TestList3My24headEv
FN:33,_ZNK8TestList3My24tailEv
FN:47,_ZNK8TestList3My25emptyEv
FN:49,_ZN8TestList3My2C1Eiii
FN:53,_ZN8TestList3oddEi
FN:129,_ZN8TestList8mul2add1Ei
FN:157,_ZN8TestList11appendCountEv
FN:148,_ZN8TestList6appendEv
FN:143,_ZN8TestList6singleEv
FN:139,_ZN8TestList5emptyEv
FN:58,_ZN8TestList12checkOddListIN6wibble4list3MapINS_2MyESt25pointer_to_unary_functionIiiEEEEEvT_
FN:133,_ZN8TestList3mapEv
FN:112,_ZN8TestList6uniqueEv
FN:106,_ZN8TestList4takeEv
FN:69,_ZN8TestList15checkListSortedINS_2MyEEEvT_
FN:58,_ZN8TestList12checkOddListIN6wibble4list8FilteredINS_2MyEPFbiEEEEEvT_
FN:88,_ZN8TestList8filteredEv
FN:81,_ZN8TestList5countEv
FN:120,_ZN8TestList3stlEv
FN:69,_ZN8TestList15checkListSortedIN6wibble4list6SortedINS_2MyEEEEEvT_
FN:94,_ZN8TestList6sortedEv
DA:12,10024
DA:14,10494
DA:15,10494
DA:16,10494
DA:17,10294
DA:18,10494
DA:19,200
DA:23,13107
DA:25,576
DA:31,222
DA:33,402
DA:34,402
DA:35,402
DA:36,272
DA:38,130
DA:39,130
DA:40,130
DA:41,130
DA:42,0
DA:47,338
DA:49,2
DA:50,2
DA:53,4606
DA:54,4606
DA:58,2
DA:59,2
DA:60,1028
DA:61,1024
DA:62,1024
DA:63,1024
DA:65,2
DA:66,2
DA:69,4
DA:71,4
DA:72,0
DA:73,4
DA:74,2254
DA:75,2246
DA:76,2246
DA:77,3369
DA:81,1
DA:82,1
DA:83,1
DA:84,1
DA:85,2
DA:86,1
DA:88,1
DA:89,1
DA:90,1
DA:91,1
DA:92,1
DA:94,1
DA:95,1
DA:96,1
DA:97,1
DA:98,2
DA:100,1
DA:101,2
DA:103,2
DA:104,1
DA:106,1
DA:107,1
DA:108,1
DA:109,2
DA:110,1
DA:112,1
DA:113,1
DA:114,1
DA:115,2
DA:116,2
DA:117,2
DA:118,1
DA:120,1
DA:121,1
DA:122,1
DA:124,1
DA:125,2050
DA:126,1025
DA:127,1
DA:129,512
DA:130,512
DA:133,1
DA:134,1
DA:136,1
DA:137,1
DA:139,1
DA:140,1
DA:141,1
DA:143,1
DA:144,1
DA:145,2
DA:146,1
DA:148,1
DA:150,1
DA:152,2
DA:154,2
DA:155,1
DA:157,1
DA:159,1
DA:160,1
BA:16,2
BA:16,2
BA:18,2
BA:18,2
BA:35,2
BA:35,2
BA:39,2
BA:39,1
BA:41,1
BA:41,2
BA:60,2
BA:60,2
BA:60,2
BA:60,2
BA:71,1
BA:71,2
BA:71,1
BA:71,2
BA:74,2
BA:74,2
BA:74,2
BA:74,2
BA:125,2
BA:125,2
LF:100
LH:98
end_of_record
SF:/srv/build/pkg/ept-work/default/wibble/wibble-test-generated-_home_mornfall_dev_pkg_ept-work_wibble_list.cpp
FN:13,_Z41__static_initialization_and_destruction_0ii
FN:13,_GLOBAL__I__Z14run_List_countv
FN:13,_Z20run_List_appendCountv
FN:12,_Z15run_List_appendv
FN:11,_Z15run_List_singlev
FN:10,_Z14run_List_emptyv
FN:9,_Z12run_List_mapv
FN:7,_Z15run_List_uniquev
FN:6,_Z13run_List_takev
FN:4,_Z17run_List_filteredv
FN:3,_Z14run_List_countv
FN:8,_Z12run_List_stlv
FN:5,_Z15run_List_sortedv
DA:3,1
DA:4,1
DA:5,1
DA:6,1
DA:7,1
DA:8,1
DA:9,1
DA:10,1
DA:11,1
DA:12,1
DA:13,4
BA:13,2
BA:13,1
BA:13,2
BA:13,1
LF:11
LH:11
end_of_record
SF:/usr/include/c++/4.3/bits/allocator.h
FN:98,_ZNSaIcEC1Ev
FN:106,_ZNSaIcED2Ev
FN:106,_ZNSaIcED1Ev
FN:100,_ZNSaIcEC2ERKS_
FN:100,_ZNSaIcEC1ERKS_
FN:106,_ZNSaIiED2Ev
FN:98,_ZNSaIiEC2Ev
FN:118,_ZSteqIcEbRKSaIT_ES3_
DA:98,14
DA:100,0
DA:101,0
DA:106,11
DA:118,0
DA:119,0
LF:6
LH:2
end_of_record
SF:/usr/include/c++/4.3/bits/basic_ios.h
FN:131,_ZNKSt9basic_iosIcSt11char_traitsIcEE7rdstateEv
FN:454,_ZNSt9basic_iosIcSt11char_traitsIcEEC2Ev
FN:276,_ZNSt9basic_iosIcSt11char_traitsIcEED2Ev
FN:151,_ZNSt9basic_iosIcSt11char_traitsIcEE8setstateESt12_Ios_Iostate
FN:51,_ZSt13__check_facetISt5ctypeIcEERKT_PS3_
FN:443,_ZNKSt9basic_iosIcSt11char_traitsIcEE5widenEc
DA:51,0
DA:53,0
DA:54,0
DA:55,0
DA:131,0
DA:132,0
DA:151,0
DA:152,0
DA:276,0
DA:443,0
DA:444,0
DA:454,0
DA:456,0
DA:457,0
BA:53,0
BA:53,0
BA:276,0
BA:276,0
LF:14
LH:0
end_of_record
SF:/usr/include/c++/4.3/bits/basic_string.h
FN:277,_ZNKSs7_M_dataEv
FN:258,_ZNSs12_Alloc_hiderD1Ev
FN:285,_ZNKSs6_M_repEv
FN:606,_ZNKSs4sizeEv
FN:214,_ZNSs4_Rep10_M_refdataEv
FN:1544,_ZNKSs4dataEv
FN:178,_ZNSs4_Rep12_S_empty_repEv
FN:411,_ZNSs12_S_empty_repEv
FN:259,_ZNSs12_Alloc_hiderC1EPcRKSaIcE
FN:2067,_ZNSsC1Ev
FN:1551,_ZNKSs13get_allocatorEv
FN:200,_ZNSs4_Rep15_M_set_sharableEv
FN:204,_ZNSs4_Rep26_M_set_length_and_sharableEj
FN:2421,_ZStlsIcSt11char_traitsIcESaIcEERSt13basic_ostreamIT_T0_ES7_RKSbIS4_S5_T1_E
FN:339,_ZNSs7_M_copyEPcPKcj
FN:384,_ZNSs13_S_copy_charsEPcS_S_
FN:1462,_ZNSs16_S_construct_auxIPcEES0_T_S1_RKSaIcESt12__false_type
FN:1478,_ZNSs12_S_constructIPcEES0_T_S1_RKSaIcE
FN:501,_ZNSsaSERKSs
FN:229,_ZNSs4_Rep10_M_disposeERKSaIcE
FN:493,_ZNSsD1Ev
DA:178,0
DA:183,0
DA:184,0
DA:200,0
DA:201,0
DA:204,0
DA:206,0
DA:207,0
DA:208,0
DA:211,0
DA:214,0
DA:215,0
DA:229,0
DA:232,0
DA:234,0
DA:236,0
DA:237,0
DA:258,0
DA:259,0
DA:260,0
DA:277,0
DA:278,0
DA:285,0
DA:286,0
DA:339,0
DA:341,0
DA:342,0
DA:344,0
DA:345,0
DA:384,0
DA:385,0
DA:411,0
DA:412,0
DA:493,0
DA:494,0
DA:501,0
DA:502,0
DA:606,0
DA:607,0
DA:1462,0
DA:1465,0
DA:1478,0
DA:1481,0
DA:1544,0
DA:1545,0
DA:1551,0
DA:1552,0
DA:2067,0
DA:2069,0
DA:2421,0
DA:2425,0
BA:232,0
BA:232,0
BA:234,0
BA:234,0
BA:341,0
BA:341,0
LF:51
LH:0
end_of_record
SF:/usr/include/c++/4.3/bits/basic_string.tcc
FN:130,_ZNSs12_S_constructIPcEES0_T_S1_RKSaIcESt20forward_iterator_tag
FN:234,_ZNSsC1IPcEET_S1_RKSaIcE
DA:130,0
DA:133,0
DA:134,0
DA:137,0
DA:139,0
DA:142,0
DA:144,0
DA:146,0
DA:147,0
DA:149,0
DA:150,0
DA:152,0
DA:153,0
DA:234,0
DA:235,0
DA:236,0
BA:133,0
BA:133,0
BA:133,0
BA:133,0
BA:133,0
BA:133,0
BA:133,0
BA:133,0
BA:137,0
BA:137,0
BA:137,0
BA:137,0
BA:137,0
BA:137,0
LF:16
LH:0
end_of_record
SF:/usr/include/c++/4.3/bits/char_traits.h
FN:245,_ZNSt11char_traitsIcE6assignERcRKc
FN:261,_ZNSt11char_traitsIcE6lengthEPKc
FN:273,_ZNSt11char_traitsIcE4copyEPcPKcj
DA:245,0
DA:246,0
DA:261,0
DA:262,0
DA:273,0
DA:274,0
LF:6
LH:0
end_of_record
SF:/usr/include/c++/4.3/bits/ios_base.h
FN:125,_ZStorSt13_Ios_OpenmodeS_
FN:163,_ZStorSt12_Ios_IostateS_
DA:125,0
DA:126,0
DA:163,0
DA:164,0
LF:4
LH:0
end_of_record
SF:/usr/include/c++/4.3/bits/locale_facets.h
FN:1165,_ZNKSt5ctypeIcE13_M_widen_initEv
FN:871,_ZNKSt5ctypeIcE5widenEc
DA:871,0
DA:873,0
DA:874,0
DA:875,0
DA:876,0
DA:1165,0
DA:1168,0
DA:1169,0
DA:1170,0
DA:1172,0
DA:1174,0
DA:1175,0
DA:1176,0
BA:873,0
BA:873,0
BA:1168,0
BA:1168,0
BA:1174,0
BA:1174,0
LF:13
LH:0
end_of_record
SF:/usr/include/c++/4.3/bits/stl_algo.h
FN:89,_ZSt8__medianIiERKT_S2_S2_S2_
FN:1714,_ZSt25__unguarded_linear_insertIN9__gnu_cxx17__normal_iteratorIPiSt6vectorIiSaIiEEEEiEvT_T0_
FN:1793,_ZSt26__unguarded_insertion_sortIN9__gnu_cxx17__normal_iteratorIPiSt6vectorIiSaIiEEEEEvT_S7_
FN:1856,_ZSt21__unguarded_partitionIN9__gnu_cxx17__normal_iteratorIPiSt6vectorIiSaIiEEEEiET_S7_S7_T0_
FN:1555,_ZSt13__heap_selectIN9__gnu_cxx17__normal_iteratorIPiSt6vectorIiSaIiEEEEEvT_S7_S7_
FN:4622,_ZSt12partial_sortIN9__gnu_cxx17__normal_iteratorIPiSt6vectorIiSaIiEEEEEvT_S7_S7_
FN:1898,_ZSt16__introsort_loopIN9__gnu_cxx17__normal_iteratorIPiSt6vectorIiSaIiEEEEiEvT_S7_T0_
FN:1748,_ZSt16__insertion_sortIN9__gnu_cxx17__normal_iteratorIPiSt6vectorIiSaIiEEEEEvT_S7_
FN:1825,_ZSt22__final_insertion_sortIN9__gnu_cxx17__normal_iteratorIPiSt6vectorIiSaIiEEEEEvT_S7_
FN:1970,_ZSt4__lgi
FN:4770,_ZSt4sortIN9__gnu_cxx17__normal_iteratorIPiSt6vectorIiSaIiEEEEEvT_S7_
DA:89,133
DA:93,133
DA:94,132
DA:95,132
DA:96,0
DA:97,0
DA:99,0
DA:100,1
DA:101,0
DA:102,1
DA:103,0
DA:105,1
DA:1555,0
DA:1557,0
DA:1558,0
DA:1559,0
DA:1560,0
DA:1561,0
DA:1714,2144
DA:1716,2144
DA:1717,2144
DA:1718,4288
DA:1720,0
DA:1721,0
DA:1722,0
DA:1724,2144
DA:1725,2144
DA:1748,4
DA:1750,4
DA:1751,0
DA:1753,51
DA:1756,47
DA:1757,47
DA:1759,1
DA:1760,1
DA:1763,46
DA:1793,3
DA:1798,2101
DA:1799,2098
DA:1800,3
DA:1825,4
DA:1827,4
DA:1829,3
DA:1830,3
DA:1833,1
DA:1834,4
DA:1856,183
DA:1858,50
DA:1860,6596
DA:1861,6230
DA:1862,183
DA:1863,6480
DA:1864,6114
DA:1865,183
DA:1866,133
DA:1867,50
DA:1868,50
DA:1898,137
DA:1903,407
DA:1905,133
DA:1907,0
DA:1908,0
DA:1910,133
DA:1919,133
DA:1920,133
DA:1921,133
DA:1970,4
DA:1971,4
DA:4622,0
DA:4634,0
DA:4635,0
DA:4636,0
DA:4770,4
DA:4781,4
DA:4783,4
DA:4785,4
DA:4787,4
BA:93,2
BA:93,2
BA:94,2
BA:94,1
BA:96,0
BA:96,0
BA:100,1
BA:100,2
BA:102,1
BA:102,2
BA:1558,0
BA:1558,0
BA:1559,0
BA:1559,0
BA:1718,1
BA:1718,2
BA:1750,1
BA:1750,2
BA:1753,2
BA:1753,2
BA:1757,2
BA:1757,2
BA:1798,2
BA:1798,2
BA:1827,2
BA:1827,2
BA:1860,2
BA:1860,2
BA:1863,2
BA:1863,2
BA:1865,2
BA:1865,2
BA:1903,2
BA:1903,2
BA:1905,1
BA:1905,2
BA:4781,2
BA:4781,1
LF:77
LH:56
end_of_record
SF:/usr/include/c++/4.3/bits/stl_algobase.h
FN:286,_ZNSt12__miter_baseIN6wibble4list12ListIteratorIN8TestList2MyEEELb0EE3__bES5_
FN:268,_ZNSt12__niter_baseIN6wibble4list12ListIteratorIN8TestList2MyEEELb0EE3__bES5_
FN:268,_ZNSt12__niter_baseISt20back_insert_iteratorISt6vectorIiSaIiEEELb0EE3__bES4_
FN:286,_ZNSt12__miter_baseIN9__gnu_cxx17__normal_iteratorIPiSt6vectorIiSaIiEEEELb0EE3__bES6_
FN:104,_ZNSt11__iter_swapILb1EE9iter_swapIN9__gnu_cxx17__normal_iteratorIPiSt6vectorIiSaIiEEEES8_EEvT_T0_
FN:121,_ZSt9iter_swapIN9__gnu_cxx17__normal_iteratorIPiSt6vectorIiSaIiEEEES6_EvT_T0_
FN:276,_ZNSt12__niter_baseIN9__gnu_cxx17__normal_iteratorIPiSt6vectorIiSaIiEEEELb1EE3__bES6_
FN:286,_ZNSt12__miter_baseIPiLb0EE3__bES0_
FN:210,_ZSt3maxIjERKT_S2_S2_
FN:268,_ZNSt12__niter_baseIPiLb0EE3__bES0_
FN:569,_ZNSt20__copy_move_backwardILb0ELb1ESt26random_access_iterator_tagE13__copy_move_bIiEEPT_PKS3_S6_S4_
FN:579,_ZSt22__copy_move_backward_aILb0EPiS0_ET1_T0_S2_S1_
FN:597,_ZSt23__copy_move_backward_a2ILb0EPiS0_ET1_T0_S2_S1_
FN:624,_ZSt13copy_backwardIPiS0_ET0_T_S2_S1_
FN:597,_ZSt23__copy_move_backward_a2ILb0EN9__gnu_cxx17__normal_iteratorIPiSt6vectorIiSaIiEEEES6_ET1_T0_S8_S7_
FN:624,_ZSt13copy_backwardIN9__gnu_cxx17__normal_iteratorIPiSt6vectorIiSaIiEEEES6_ET0_T_S8_S7_
FN:375,_ZNSt11__copy_moveILb0ELb1ESt26random_access_iterator_tagE8__copy_mIiEEPT_PKS3_S6_S4_
FN:385,_ZSt13__copy_move_aILb0EPiS0_ET1_T0_S2_S1_
FN:430,_ZSt14__copy_move_a2ILb0EPiS0_ET1_T0_S2_S1_
FN:456,_ZSt4copyIPiS0_ET0_T_S2_S1_
FN:309,_ZNSt11__copy_moveILb0ELb0ESt20forward_iterator_tagE8__copy_mIN6wibble4list12ListIteratorIN8TestList2MyEEESt20back_insert_iteratorISt6vectorIiSaIiEEEEET0_T_SF_SE_
FN:385,_ZSt13__copy_move_aILb0EN6wibble4list12ListIteratorIN8TestList2MyEEESt20back_insert_iteratorISt6vectorIiSaIiEEEET1_T0_SC_SB_
FN:430,_ZSt14__copy_move_a2ILb0EN6wibble4list12ListIteratorIN8TestList2MyEEESt20back_insert_iteratorISt6vectorIiSaIiEEEET1_T0_SC_SB_
FN:456,_ZSt4copyIN6wibble4list12ListIteratorIN8TestList2MyEEESt20back_insert_iteratorISt6vectorIiSaIiEEEET0_T_SC_SB_
DA:104,50
DA:106,50
DA:107,50
DA:121,50
DA:142,50
DA:146,50
DA:210,230
DA:215,230
DA:216,111
DA:217,119
DA:268,402
DA:269,402
DA:276,5
DA:277,5
DA:286,272
DA:287,272
DA:309,4
DA:311,3174
DA:312,3170
DA:313,4
DA:375,130
DA:377,130
DA:379,130
DA:385,134
DA:393,134
DA:396,134
DA:430,134
DA:435,134
DA:456,134
DA:466,134
DA:569,1
DA:571,1
DA:572,1
DA:573,1
DA:579,1
DA:587,1
DA:592,1
DA:597,1
DA:602,1
DA:624,1
DA:636,1
BA:215,2
BA:215,2
BA:311,2
BA:311,2
LF:41
LH:41
end_of_record
SF:/usr/include/c++/4.3/bits/stl_construct.h
FN:97,_ZSt8_DestroyIPiEvT_S1_
FN:126,_ZSt8_DestroyIPiiEvT_S1_RSaIT0_E
DA:97,76
DA:104,76
DA:126,76
DA:128,76
DA:129,76
LF:5
LH:5
end_of_record
SF:/usr/include/c++/4.3/bits/stl_function.h
FN:104,_ZNSt14unary_functionIiiEC2Ev
FN:420,_ZNSt25pointer_to_unary_functionIiiEC1EPFiiE
FN:431,_ZSt7ptr_funIiiESt25pointer_to_unary_functionIT_T0_EPFS2_S1_E
FN:424,_ZNKSt25pointer_to_unary_functionIiiEclEi
DA:104,3
DA:420,1
DA:421,1
DA:424,512
DA:425,512
DA:431,1
DA:432,1
LF:7
LH:7
end_of_record
SF:/usr/include/c++/4.3/bits/stl_heap.h
FN:131,_ZSt11__push_heapIN9__gnu_cxx17__normal_iteratorIPiSt6vectorIiSaIiEEEEiiEvT_T0_S8_T1_
FN:225,_ZSt13__adjust_heapIN9__gnu_cxx17__normal_iteratorIPiSt6vectorIiSaIiEEEEiiEvT_T0_S8_T1_
FN:371,_ZSt9make_heapIN9__gnu_cxx17__normal_iteratorIPiSt6vectorIiSaIiEEEEEvT_S7_
FN:251,_ZSt10__pop_heapIN9__gnu_cxx17__normal_iteratorIPiSt6vectorIiSaIiEEEEEvT_S7_S7_
FN:276,_ZSt8pop_heapIN9__gnu_cxx17__normal_iteratorIPiSt6vectorIiSaIiEEEEEvT_S7_
FN:450,_ZSt9sort_heapIN9__gnu_cxx17__normal_iteratorIPiSt6vectorIiSaIiEEEEEvT_S7_
DA:131,0
DA:133,0
DA:134,0
DA:136,0
DA:137,0
DA:138,0
DA:140,0
DA:141,0
DA:225,0
DA:227,0
DA:228,0
DA:229,0
DA:231,0
DA:232,0
DA:233,0
DA:234,0
DA:235,0
DA:237,0
DA:239,0
DA:240,0
DA:242,0
DA:244,0
DA:246,0
DA:251,0
DA:258,0
DA:259,0
DA:260,0
DA:263,0
DA:276,0
DA:288,0
DA:289,0
DA:371,0
DA:384,0
DA:385,0
DA:387,0
DA:388,0
DA:389,0
DA:391,0
DA:392,0
DA:393,0
DA:394,0
DA:395,0
DA:450,0
DA:460,0
DA:461,0
DA:462,0
BA:134,0
BA:134,0
BA:134,0
BA:134,0
BA:134,0
BA:134,0
BA:229,0
BA:229,0
BA:232,0
BA:232,0
BA:237,0
BA:237,0
BA:237,0
BA:237,0
BA:384,0
BA:384,0
BA:393,0
BA:393,0
BA:460,0
BA:460,0
LF:46
LH:0
end_of_record
SF:/usr/include/c++/4.3/bits/stl_iterator.h
FN:398,_ZNSt20back_insert_iteratorISt6vectorIiSaIiEEEC1ERS2_
FN:456,_ZSt13back_inserterISt6vectorIiSaIiEEESt20back_insert_iteratorIT_ERS4_
FN:683,_ZN9__gnu_cxx17__normal_iteratorIPiSt6vectorIiSaIiEEEC1ERKS1_
FN:434,_ZNSt20back_insert_iteratorISt6vectorIiSaIiEEEppEv
FN:429,_ZNSt20back_insert_iteratorISt6vectorIiSaIiEEEdeEv
FN:747,_ZNK9__gnu_cxx17__normal_iteratorIPiSt6vectorIiSaIiEEE4baseEv
FN:781,_ZN9__gnu_cxxneIPiSt6vectorIiSaIiEEEEbRKNS_17__normal_iteratorIT_T0_EESA_
FN:846,_ZN9__gnu_cxxmiIPiSt6vectorIiSaIiEEEENS_17__normal_iteratorIT_T0_E15difference_typeERKS8_SB_
FN:695,_ZNK9__gnu_cxx17__normal_iteratorIPiSt6vectorIiSaIiEEEdeEv
FN:735,_ZNK9__gnu_cxx17__normal_iteratorIPiSt6vectorIiSaIiEEEplERKi
FN:743,_ZNK9__gnu_cxx17__normal_iteratorIPiSt6vectorIiSaIiEEEmiERKi
FN:703,_ZN9__gnu_cxx17__normal_iteratorIPiSt6vectorIiSaIiEEEppEv
FN:715,_ZN9__gnu_cxx17__normal_iteratorIPiSt6vectorIiSaIiEEEmmEv
FN:794,_ZN9__gnu_cxxltIPiSt6vectorIiSaIiEEEEbRKNS_17__normal_iteratorIT_T0_EESA_
FN:769,_ZN9__gnu_cxxeqIPiSt6vectorIiSaIiEEEEbRKNS_17__normal_iteratorIT_T0_EESA_
FN:722,_ZN9__gnu_cxx17__normal_iteratorIPiSt6vectorIiSaIiEEEmmEi
FN:412,_ZNSt20back_insert_iteratorISt6vectorIiSaIiEEEaSERKi
DA:398,4
DA:412,3170
DA:414,3170
DA:415,3170
DA:429,3170
DA:430,3170
DA:434,3170
DA:435,3170
DA:456,4
DA:457,4
DA:683,409
DA:695,19712
DA:696,19712
DA:703,8451
DA:705,8451
DA:706,8451
DA:715,8441
DA:717,8441
DA:718,8441
DA:722,0
DA:723,0
DA:735,149
DA:736,149
DA:743,133
DA:744,133
DA:747,5767
DA:748,5767
DA:769,49
DA:770,49
DA:781,2156
DA:782,2156
DA:794,183
DA:795,183
DA:846,428
DA:847,428
LF:35
LH:33
end_of_record
SF:/usr/include/c++/4.3/bits/stl_iterator_base_funcs.h
FN:93,_ZSt10__distanceIPcENSt15iterator_traitsIT_E15difference_typeES2_S2_St26random_access_iterator_tag
FN:115,_ZSt8distanceIPcENSt15iterator_traitsIT_E15difference_typeES2_S2_
DA:93,0
DA:98,0
DA:115,0
DA:119,0
LF:4
LH:0
end_of_record
SF:/usr/include/c++/4.3/bits/stl_iterator_base_types.h
FN:111,_ZNSt8iteratorISt19output_iterator_tagvvvvEC2Ev
FN:166,_ZSt19__iterator_categoryIPcENSt15iterator_traitsIT_E17iterator_categoryERKS2_
DA:111,550
DA:166,0
DA:167,0
LF:3
LH:1
end_of_record
SF:/usr/include/c++/4.3/bits/stl_move.h
FN:80,_ZSt4swapIiEvRT_S1_
DA:80,50
DA:85,50
DA:86,50
DA:87,50
DA:88,50
LF:5
LH:5
end_of_record
SF:/usr/include/c++/4.3/bits/stl_uninitialized.h
FN:97,_ZNSt20__uninitialized_copyILb1EE18uninitialized_copyIPiS2_EET0_T_S4_S3_
FN:113,_ZSt18uninitialized_copyIPiS0_ET0_T_S2_S1_
FN:261,_ZSt22__uninitialized_copy_aIPiS0_iET0_T_S2_S1_RSaIT1_E
FN:268,_ZSt22__uninitialized_move_aIPiS0_SaIiEET0_T_S3_S2_RT1_
DA:97,130
DA:98,130
DA:113,130
DA:122,130
DA:261,130
DA:262,130
DA:268,130
DA:272,130
LF:8
LH:8
end_of_record
SF:/usr/include/c++/4.3/bits/stl_vector.h
FN:562,_ZNSt6vectorIiSaIiEEixEj
FN:97,_ZNSt12_Vector_baseIiSaIiEE19_M_get_Tp_allocatorEv
FN:484,_ZNKSt6vectorIiSaIiEE4sizeEv
FN:79,_ZNSt12_Vector_baseIiSaIiEE12_Vector_implD1Ev
FN:395,_ZNSt6vectorIiSaIiEE3endEv
FN:377,_ZNSt6vectorIiSaIiEE5beginEv
FN:84,_ZNSt12_Vector_baseIiSaIiEE12_Vector_implC1Ev
FN:108,_ZNSt12_Vector_baseIiSaIiEEC2Ev
FN:213,_ZNSt6vectorIiSaIiEEC1Ev
FN:101,_ZNKSt12_Vector_baseIiSaIiEE19_M_get_Tp_allocatorEv
FN:489,_ZNKSt6vectorIiSaIiEE8max_sizeEv
FN:147,_ZNSt12_Vector_baseIiSaIiEE13_M_deallocateEPij
FN:135,_ZNSt12_Vector_baseIiSaIiEED2Ev
FN:299,_ZNSt6vectorIiSaIiEED1Ev
FN:1075,_ZNKSt6vectorIiSaIiEE12_M_check_lenEjPKc
FN:143,_ZNSt12_Vector_baseIiSaIiEE11_M_allocateEj
FN:686,_ZNSt6vectorIiSaIiEE9push_backERKi
DA:79,11
DA:84,14
DA:85,14
DA:86,14
DA:97,206
DA:98,206
DA:101,130
DA:102,130
DA:108,14
DA:109,14
DA:135,11
DA:136,11
DA:137,11
DA:143,65
DA:144,65
DA:147,76
DA:149,76
DA:150,62
DA:151,76
DA:213,14
DA:214,14
DA:299,11
DA:300,11
DA:301,11
DA:377,42
DA:378,42
DA:395,67
DA:396,67
DA:484,2411
DA:485,2411
DA:489,130
DA:490,130
DA:562,3272
DA:563,3272
DA:686,3177
DA:688,3177
DA:690,3129
DA:691,3129
DA:694,48
DA:695,3177
DA:1075,65
DA:1077,65
DA:1078,0
DA:1080,65
DA:1081,65
BA:144,2
BA:144,1
BA:149,2
BA:149,2
BA:688,2
BA:688,2
BA:1077,1
BA:1077,2
BA:1081,2
BA:1081,1
BA:1081,1
BA:1081,2
LF:45
LH:44
end_of_record
SF:/usr/include/c++/4.3/bits/vector.tcc
FN:283,_ZNSt6vectorIiSaIiEE13_M_insert_auxEN9__gnu_cxx17__normal_iteratorIPiS1_EERKi
DA:283,65
DA:286,65
DA:288,0
DA:291,0
DA:293,0
DA:295,0
DA:299,0
DA:307,65
DA:308,65
DA:309,65
DA:316,65
DA:321,65
DA:323,65
DA:324,65
DA:330,0
DA:332,0
DA:333,0
DA:334,0
DA:336,65
DA:338,65
DA:341,65
DA:342,65
DA:343,65
DA:345,65
BA:286,1
BA:286,2
LF:24
LH:15
end_of_record
SF:/usr/include/c++/4.3/ext/atomicity.h
FN:67,_ZN9__gnu_cxxL25__exchange_and_add_singleEPii
FN:50,_ZN9__gnu_cxxL18__exchange_and_addEPVii
FN:80,_ZN9__gnu_cxxL27__exchange_and_add_dispatchEPii
DA:50,0
DA:51,0
DA:67,0
DA:69,0
DA:70,0
DA:71,0
DA:80,0
DA:83,0
DA:84,0
DA:86,0
BA:83,0
BA:83,0
LF:10
LH:0
end_of_record
SF:/usr/include/c++/4.3/ext/new_allocator.h
FN:69,_ZN9__gnu_cxx13new_allocatorIcEC2Ev
FN:76,_ZN9__gnu_cxx13new_allocatorIcED2Ev
FN:71,_ZN9__gnu_cxx13new_allocatorIcEC2ERKS1_
FN:76,_ZN9__gnu_cxx13new_allocatorIiED2Ev
FN:69,_ZN9__gnu_cxx13new_allocatorIiEC2Ev
FN:107,_ZN9__gnu_cxx13new_allocatorIiE9constructEPiRKi
FN:101,_ZNK9__gnu_cxx13new_allocatorIiE8max_sizeEv
FN:97,_ZN9__gnu_cxx13new_allocatorIiE10deallocateEPij
FN:87,_ZN9__gnu_cxx13new_allocatorIiE8allocateEjPKv
DA:69,112
DA:71,0
DA:76,109
DA:87,65
DA:89,65
DA:90,0
DA:92,65
DA:97,62
DA:98,62
DA:101,195
DA:102,195
DA:107,3243
DA:108,3243
BA:89,1
BA:89,2
BA:108,2
BA:108,1
LF:13
LH:11
end_of_record
SF:/usr/include/c++/4.3/ext/type_traits.h
FN:154,_ZN9__gnu_cxx17__is_null_pointerIcEEbPT_
DA:154,0
DA:155,0
LF:2
LH:0
end_of_record
SF:/usr/include/c++/4.3/i486-linux-gnu/bits/gthr-default.h
FN:212,_ZL18__gthread_active_pv
DA:212,0
DA:216,0
LF:2
LH:0
end_of_record
SF:/usr/include/c++/4.3/iosfwd
FN:68,_ZNSt15basic_stringbufIcSt11char_traitsIcESaIcEED1Ev
DA:68,0
BA:68,0
BA:68,0
LF:1
LH:0
end_of_record
SF:/usr/include/c++/4.3/iostream
DA:77,1
LF:1
LH:1
end_of_record
SF:/usr/include/c++/4.3/new
FN:105,_ZnwjPv
DA:105,10297
LF:1
LH:1
end_of_record
SF:/usr/include/c++/4.3/ostream
FN:112,_ZNSolsEPFRSoS_E
FN:365,_ZNSoC2Ev
FN:95,_ZNSoD2Ev
FN:512,_ZStlsISt11char_traitsIcEERSt13basic_ostreamIcT_ES5_PKc
FN:195,_ZNSolsEj
FN:566,_ZSt5flushIcSt11char_traitsIcEERSt13basic_ostreamIT_T0_ES6_
FN:545,_ZSt4endlIcSt11char_traitsIcEERSt13basic_ostreamIT_T0_ES6_
DA:95,0
DA:112,0
DA:117,0
DA:195,0
DA:199,0
DA:365,0
DA:366,0
DA:512,0
DA:514,0
DA:515,0
DA:517,0
DA:519,0
DA:545,0
DA:546,0
DA:566,0
DA:567,0
BA:95,0
BA:95,0
BA:95,0
BA:95,0
BA:514,0
BA:514,0
LF:16
LH:0
end_of_record
SF:/usr/include/c++/4.3/sstream
FN:96,_ZNSt15basic_stringbufIcSt11char_traitsIcESaIcEEC1ESt13_Ios_Openmode
FN:402,_ZNSt19basic_ostringstreamIcSt11char_traitsIcESaIcEEC1ESt13_Ios_Openmode
FN:431,_ZNSt19basic_ostringstreamIcSt11char_traitsIcESaIcEED1Ev
FN:124,_ZNKSt15basic_stringbufIcSt11char_traitsIcESaIcEE3strEv
FN:450,_ZNKSt19basic_ostringstreamIcSt11char_traitsIcESaIcEE3strEv
DA:96,0
DA:97,0
DA:98,0
DA:124,0
DA:126,0
DA:127,0
DA:130,0
DA:131,0
DA:133,0
DA:136,0
DA:137,0
DA:402,0
DA:403,0
DA:404,0
DA:431,0
DA:432,0
DA:450,0
DA:451,0
BA:127,0
BA:127,0
BA:130,0
BA:130,0
BA:432,0
BA:432,0
BA:432,0
BA:432,0
BA:432,0
BA:432,0
LF:18
LH:0
end_of_record
SF:/usr/include/c++/4.3/streambuf
FN:513,_ZNKSt15basic_streambufIcSt11char_traitsIcEE4pptrEv
FN:469,_ZNKSt15basic_streambufIcSt11char_traitsIcEE5egptrEv
FN:510,_ZNKSt15basic_streambufIcSt11char_traitsIcEE5pbaseEv
FN:444,_ZNSt15basic_streambufIcSt11char_traitsIcEEC2Ev
FN:197,_ZNSt15basic_streambufIcSt11char_traitsIcEED2Ev
DA:197,0
DA:198,0
DA:444,0
DA:447,0
DA:448,0
DA:469,0
DA:510,0
DA:513,0
BA:198,0
BA:198,0
LF:8
LH:0
end_of_record
TN:
SF:/home/mornfall/dev/pkg/ept-work/wibble/exception.h
FN:190,_ZNK6wibble9exception7Generic4typeEv
FN:263,_ZNK6wibble9exception11Consistency4typeEv
FN:406,_ZNK6wibble9exception6System4codeEv
FN:428,_ZNK6wibble9exception4File4typeEv
FN:109,_ZN6wibble9exception10AddContext7contextEv
FN:193,_ZNK6wibble9exception7Generic4descEv
FN:213,_ZNK6wibble9exception7Generic4whatEv
FN:279,_ZNK6wibble9exception7BadCast8typeinfoEv
FN:265,_ZNK6wibble9exception11Consistency4descEv
FN:137,_ZN6wibble9exception7ContextD2Ev
FN:117,_ZN6wibble9exception10AddContext11copyContextISt20back_insert_iteratorISt6vectorISsSaISsEEEEEvT_
FN:153,_ZN6wibble9exception7Context10addContextERKSs
FN:147,_ZN6wibble9exception7ContextC2ERKSs
FN:186,_ZN6wibble9exception7GenericC1ERKSs
FN:186,_ZN6wibble9exception7GenericC2ERKSs
FN:123,_ZN6wibble9exception10AddContextC1ESs
FN:187,_ZN6wibble9exception7GenericD0Ev
FN:154,_ZNK6wibble9exception7Context13formatContextEv
FN:205,_ZNK6wibble9exception7Generic8fullInfoEv
FN:129,_ZN6wibble9exception10AddContextD1Ev
FN:187,_ZN6wibble9exception7GenericD1Ev
FN:292,_ZNK6wibble9exception10BadCastExtIiPKcE8typeinfoEv
FN:280,_ZNK6wibble9exception7BadCast4descEv
FN:187,_ZN6wibble9exception7GenericD2Ev
FN:259,_ZN6wibble9exception11ConsistencyC2ERKSsS3_
FN:395,_ZN6wibble9exception6SystemD2Ev
FN:395,_ZN6wibble9exception6SystemD1Ev
FN:261,_ZN6wibble9exception11ConsistencyD2Ev
FN:278,_ZN6wibble9exception7BadCastD2Ev
FN:291,_ZN6wibble9exception10BadCastExtIiPKcED0Ev
FN:291,_ZN6wibble9exception10BadCastExtIiPKcED1Ev
FN:278,_ZN6wibble9exception7BadCastD0Ev
FN:278,_ZN6wibble9exception7BadCastD1Ev
FN:261,_ZN6wibble9exception11ConsistencyD0Ev
FN:261,_ZN6wibble9exception11ConsistencyD1Ev
FN:275,_ZN6wibble9exception7BadCastC2ERKSs
FN:288,_ZN6wibble9exception10BadCastExtIiPKcEC1ERKSs
FN:426,_ZN6wibble9exception4FileD0Ev
FN:426,_ZN6wibble9exception4FileD1Ev
FN:424,_ZN6wibble9exception4FileC1ERKSsS3_
FN:430,_ZNK6wibble9exception4File4descEv
DA:109,21
DA:110,21
DA:111,20
DA:112,1
DA:113,1
DA:117,6
DA:118,6
DA:119,6
DA:123,3
DA:124,3
DA:126,3
DA:127,3
DA:129,3
DA:130,3
DA:131,3
DA:132,3
DA:137,6
DA:147,6
DA:148,6
DA:149,6
DA:150,6
DA:151,6
DA:153,6
DA:154,5
DA:155,0
DA:156,5
DA:157,0
DA:159,5
DA:161,5
DA:162,5
DA:163,5
DA:186,6
DA:187,6
DA:190,0
DA:193,2
DA:194,0
DA:195,2
DA:205,4
DA:206,0
DA:207,4
DA:209,4
DA:210,4
DA:213,1
DA:259,1
DA:260,1
DA:261,1
DA:263,0
DA:265,0
DA:266,0
DA:267,0
DA:268,0
DA:269,0
DA:275,1
DA:276,1
DA:277,1
DA:278,1
DA:279,0
DA:280,1
DA:281,1
DA:288,1
DA:289,1
DA:290,1
DA:291,1
DA:292,1
DA:295,1
DA:395,2
DA:406,2
DA:424,1
DA:425,1
DA:426,1
DA:428,0
DA:430,1
BA:110,2
BA:110,2
BA:156,1
BA:156,2
BA:187,0
BA:187,0
BA:187,1
BA:187,2
BA:187,1
BA:187,2
BA:207,2
BA:207,1
BA:261,1
BA:261,2
BA:261,0
BA:261,0
BA:261,0
BA:261,0
BA:267,0
BA:267,0
BA:278,1
BA:278,2
BA:278,0
BA:278,0
BA:278,0
BA:278,0
BA:291,0
BA:291,0
BA:291,1
BA:291,2
BA:395,1
BA:395,2
BA:395,1
BA:395,2
BA:426,0
BA:426,0
BA:426,1
BA:426,2
LF:72
LH:59
end_of_record
SF:/home/mornfall/dev/pkg/ept-work/wibble/test.h
FN:13,_ZN8LocationC1ERKS_
FN:17,_ZN8LocationC1EPKciSs
FN:52,_ZlsISsER12AssertFailedS1_T_
FN:52,_ZlsIPKcER12AssertFailedS3_T_
FN:52,_ZlsIiER12AssertFailedS1_T_
FN:33,_ZN12AssertFailedC1E8LocationRSo
FN:41,_ZN12AssertFailedD1Ev
FN:13,_ZN8LocationD1Ev
FN:67,_Z12assert_eq_fnIiiEv8LocationT_T0_
FN:59,_Z9assert_fnIbEv8LocationT_
FN:67,_Z12assert_eq_fnISsPKcEv8LocationT_T0_
FN:67,_Z12assert_eq_fnISsSsEv8LocationT_T0_
DA:13,0
DA:17,0
DA:18,0
DA:33,0
DA:34,0
DA:36,0
DA:38,0
DA:39,0
DA:41,0
DA:42,0
DA:43,0
DA:45,0
DA:46,0
DA:48,0
DA:52,0
DA:54,0
DA:55,0
DA:59,0
DA:61,0
DA:62,0
DA:64,0
DA:67,0
DA:69,0
DA:70,0
DA:71,0
DA:75,0
BA:42,0
BA:42,0
BA:61,0
BA:61,0
BA:69,0
BA:69,0
BA:69,0
BA:69,0
BA:69,0
BA:69,0
LF:26
LH:0
end_of_record
SF:/home/mornfall/dev/pkg/ept-work/wibble/exception.test.h
FN:79,_ZN13TestException10addContextEv
FN:64,_ZN13TestException7badCastEv
FN:44,_ZN13TestException6systemEv
FN:29,_ZN13TestException7genericEv
DA:29,1
DA:32,1
DA:33,2
DA:34,1
DA:38,2
DA:39,2
DA:40,1
DA:42,1
DA:44,1
DA:47,1
DA:48,2
DA:49,2
DA:51,1
DA:55,2
DA:56,2
DA:57,2
DA:59,1
DA:60,2
DA:62,1
DA:64,1
DA:66,1
DA:68,1
DA:69,1
DA:71,2
DA:73,1
DA:74,1
DA:76,2
DA:77,1
DA:79,1
DA:80,1
DA:81,1
DA:83,2
DA:84,1
DA:86,2
DA:87,2
DA:88,1
DA:89,2
DA:93,1
DA:94,1
DA:96,1
DA:97,1
LF:41
LH:41
end_of_record
SF:/srv/build/pkg/ept-work/default/wibble/wibble-test-generated-_home_mornfall_dev_pkg_ept-work_wibble_exception.cpp
FN:6,_Z41__static_initialization_and_destruction_0ii
FN:6,_GLOBAL__I__Z21run_Exception_genericv
FN:6,_Z24run_Exception_addContextv
FN:5,_Z21run_Exception_badCastv
FN:4,_Z20run_Exception_systemv
FN:3,_Z21run_Exception_genericv
DA:3,1
DA:4,1
DA:5,1
DA:6,4
BA:6,2
BA:6,1
BA:6,2
BA:6,1
LF:4
LH:4
end_of_record
SF:/usr/include/c++/4.3/bits/allocator.h
FN:98,_ZNSaIcEC1Ev
FN:106,_ZNSaIcED2Ev
FN:106,_ZNSaIcED1Ev
FN:100,_ZNSaIcEC2ERKS_
FN:100,_ZNSaIcEC1ERKS_
FN:106,_ZNSaISsED2Ev
FN:98,_ZNSaISsEC2Ev
FN:118,_ZSteqIcEbRKSaIT_ES3_
DA:98,83
DA:100,0
DA:101,0
DA:106,95
DA:118,0
DA:119,0
LF:6
LH:2
end_of_record
SF:/usr/include/c++/4.3/bits/basic_ios.h
FN:131,_ZNKSt9basic_iosIcSt11char_traitsIcEE7rdstateEv
FN:454,_ZNSt9basic_iosIcSt11char_traitsIcEEC2Ev
FN:276,_ZNSt9basic_iosIcSt11char_traitsIcEED2Ev
FN:151,_ZNSt9basic_iosIcSt11char_traitsIcEE8setstateESt12_Ios_Iostate
FN:51,_ZSt13__check_facetISt5ctypeIcEERKT_PS3_
FN:443,_ZNKSt9basic_iosIcSt11char_traitsIcEE5widenEc
DA:51,0
DA:53,0
DA:54,0
DA:55,0
DA:131,0
DA:132,0
DA:151,0
DA:152,0
DA:276,0
DA:443,0
DA:444,0
DA:454,0
DA:456,0
DA:457,0
BA:53,0
BA:53,0
BA:276,0
BA:276,0
LF:14
LH:0
end_of_record
SF:/usr/include/c++/4.3/bits/basic_string.h
FN:277,_ZNKSs7_M_dataEv
FN:1534,_ZNKSs5c_strEv
FN:258,_ZNSs12_Alloc_hiderD1Ev
FN:285,_ZNKSs6_M_repEv
FN:606,_ZNKSs4sizeEv
FN:686,_ZNKSs5emptyEv
FN:612,_ZNKSs6lengthEv
FN:214,_ZNSs4_Rep10_M_refdataEv
FN:1544,_ZNKSs4dataEv
FN:178,_ZNSs4_Rep12_S_empty_repEv
FN:411,_ZNSs12_S_empty_repEv
FN:259,_ZNSs12_Alloc_hiderC1EPcRKSaIcE
FN:2067,_ZNSsC1Ev
FN:1551,_ZNKSs13get_allocatorEv
FN:200,_ZNSs4_Rep15_M_set_sharableEv
FN:204,_ZNSs4_Rep26_M_set_length_and_sharableEj
FN:501,_ZNSsaSERKSs
FN:835,_ZNSs6appendEPKc
FN:2421,_ZStlsIcSt11char_traitsIcESaIcEERSt13basic_ostreamIT_T0_ES7_RKSbIS4_S5_T1_E
FN:339,_ZNSs7_M_copyEPcPKcj
FN:384,_ZNSs13_S_copy_charsEPcS_S_
FN:1462,_ZNSs16_S_construct_auxIPcEES0_T_S1_RKSaIcESt12__false_type
FN:1478,_ZNSs12_S_constructIPcEES0_T_S1_RKSaIcE
FN:2188,_ZSteqIcSt11char_traitsIcESaIcEEbRKSbIT_T0_T1_EPKS3_
FN:2162,_ZSteqIcEN9__gnu_cxx11__enable_ifIXsrSt9__is_charIT_E7__valueEbE6__typeERKSbIS3_St11char_traitsIS3_ESaIS3_EESC_
FN:229,_ZNSs4_Rep10_M_disposeERKSaIcE
FN:493,_ZNSsD1Ev
FN:2121,_ZStplIcSt11char_traitsIcESaIcEESbIT_T0_T1_ERKS6_PKS3_
FN:2084,_ZStplIcSt11char_traitsIcESaIcEESbIT_T0_T1_ERKS6_S8_
FN:1593,_ZNKSs4findEPKcj
DA:178,0
DA:183,0
DA:184,0
DA:200,0
DA:201,0
DA:204,0
DA:206,0
DA:207,0
DA:208,0
DA:211,0
DA:214,0
DA:215,0
DA:229,0
DA:232,0
DA:234,0
DA:236,0
DA:237,0
DA:258,0
DA:259,0
DA:260,0
DA:277,0
DA:278,0
DA:285,0
DA:286,0
DA:339,0
DA:341,0
DA:342,0
DA:344,0
DA:345,0
DA:384,0
DA:385,0
DA:411,0
DA:412,0
DA:493,0
DA:494,0
DA:501,0
DA:502,0
DA:606,0
DA:607,0
DA:612,0
DA:613,0
DA:686,0
DA:687,0
DA:835,0
DA:838,0
DA:1462,0
DA:1465,0
DA:1478,0
DA:1481,0
DA:1534,0
DA:1535,0
DA:1544,0
DA:1545,0
DA:1551,0
DA:1552,0
DA:1593,0
DA:1596,0
DA:2067,0
DA:2069,0
DA:2084,22
DA:2086,22
DA:2087,22
DA:2088,0
DA:2121,9
DA:2123,9
DA:2124,9
DA:2125,0
DA:2162,0
DA:2165,0
DA:2188,0
DA:2189,0
DA:2421,0
DA:2425,0
BA:232,0
BA:232,0
BA:234,0
BA:234,0
BA:341,0
BA:341,0
BA:2165,0
BA:2165,0
BA:2165,0
BA:2165,0
LF:73
LH:6
end_of_record
SF:/usr/include/c++/4.3/bits/basic_string.tcc
FN:130,_ZNSs12_S_constructIPcEES0_T_S1_RKSaIcESt20forward_iterator_tag
FN:234,_ZNSsC1IPcEET_S1_RKSaIcE
DA:130,0
DA:133,0
DA:134,0
DA:137,0
DA:139,0
DA:142,0
DA:144,0
DA:146,0
DA:147,0
DA:149,0
DA:150,0
DA:152,0
DA:153,0
DA:234,0
DA:235,0
DA:236,0
BA:133,0
BA:133,0
BA:133,0
BA:133,0
BA:133,0
BA:133,0
BA:133,0
BA:133,0
BA:137,0
BA:137,0
BA:137,0
BA:137,0
BA:137,0
BA:137,0
LF:16
LH:0
end_of_record
SF:/usr/include/c++/4.3/bits/char_traits.h
FN:245,_ZNSt11char_traitsIcE6assignERcRKc
FN:261,_ZNSt11char_traitsIcE6lengthEPKc
FN:273,_ZNSt11char_traitsIcE4copyEPcPKcj
FN:257,_ZNSt11char_traitsIcE7compareEPKcS2_j
DA:245,0
DA:246,0
DA:257,0
DA:258,0
DA:261,0
DA:262,0
DA:273,0
DA:274,0
LF:8
LH:0
end_of_record
SF:/usr/include/c++/4.3/bits/ios_base.h
FN:125,_ZStorSt13_Ios_OpenmodeS_
FN:163,_ZStorSt12_Ios_IostateS_
DA:125,63
DA:126,63
DA:163,0
DA:164,0
LF:4
LH:2
end_of_record
SF:/usr/include/c++/4.3/bits/locale_facets.h
FN:1165,_ZNKSt5ctypeIcE13_M_widen_initEv
FN:871,_ZNKSt5ctypeIcE5widenEc
DA:871,0
DA:873,0
DA:874,0
DA:875,0
DA:876,0
DA:1165,0
DA:1168,0
DA:1169,0
DA:1170,0
DA:1172,0
DA:1174,0
DA:1175,0
DA:1176,0
BA:873,0
BA:873,0
BA:1168,0
BA:1168,0
BA:1174,0
BA:1174,0
LF:13
LH:0
end_of_record
SF:/usr/include/c++/4.3/bits/stl_algobase.h
FN:286,_ZNSt12__miter_baseIN9__gnu_cxx17__normal_iteratorIPKSsSt6vectorISsSaISsEEEELb0EE3__bES7_
FN:286,_ZNSt12__miter_baseIN9__gnu_cxx17__normal_iteratorIPSsSt6vectorISsSaISsEEEELb0EE3__bES6_
FN:276,_ZNSt12__niter_baseIN9__gnu_cxx17__normal_iteratorIPKSsSt6vectorISsSaISsEEEELb1EE3__bES7_
FN:268,_ZNSt12__niter_baseISt16ostream_iteratorISscSt11char_traitsIcEELb0EE3__bES3_
FN:286,_ZNSt12__miter_baseIPSsLb0EE3__bES0_
FN:210,_ZSt3maxIjERKT_S2_S2_
FN:276,_ZNSt12__niter_baseIN9__gnu_cxx17__normal_iteratorIPSsSt6vectorISsSaISsEEEELb1EE3__bES6_
FN:268,_ZNSt12__niter_baseISt20back_insert_iteratorISt6vectorISsSaISsEEELb0EE3__bES4_
FN:268,_ZNSt12__niter_baseIPSsLb0EE3__bES0_
FN:539,_ZNSt20__copy_move_backwardILb0ELb0ESt26random_access_iterator_tagE13__copy_move_bIPSsS3_EET0_T_S5_S4_
FN:579,_ZSt22__copy_move_backward_aILb0EPSsS0_ET1_T0_S2_S1_
FN:597,_ZSt23__copy_move_backward_a2ILb0EPSsS0_ET1_T0_S2_S1_
FN:624,_ZSt13copy_backwardIPSsS0_ET0_T_S2_S1_
FN:337,_ZNSt11__copy_moveILb0ELb0ESt26random_access_iterator_tagE8__copy_mIPKSsSt16ostream_iteratorISscSt11char_traitsIcEEEET0_T_SA_S9_
FN:385,_ZSt13__copy_move_aILb0EPKSsSt16ostream_iteratorISscSt11char_traitsIcEEET1_T0_S7_S6_
FN:430,_ZSt14__copy_move_a2ILb0EN9__gnu_cxx17__normal_iteratorIPKSsSt6vectorISsSaISsEEEESt16ostream_iteratorISscSt11char_traitsIcEEET1_T0_SD_SC_
FN:456,_ZSt4copyIN9__gnu_cxx17__normal_iteratorIPKSsSt6vectorISsSaISsEEEESt16ostream_iteratorISscSt11char_traitsIcEEET0_T_SD_SC_
FN:337,_ZNSt11__copy_moveILb0ELb0ESt26random_access_iterator_tagE8__copy_mIPSsSt20back_insert_iteratorISt6vectorISsSaISsEEEEET0_T_SA_S9_
FN:385,_ZSt13__copy_move_aILb0EPSsSt20back_insert_iteratorISt6vectorISsSaISsEEEET1_T0_S7_S6_
FN:430,_ZSt14__copy_move_a2ILb0EN9__gnu_cxx17__normal_iteratorIPSsSt6vectorISsSaISsEEEESt20back_insert_iteratorIS5_EET1_T0_SA_S9_
FN:456,_ZSt4copyIN9__gnu_cxx17__normal_iteratorIPSsSt6vectorISsSaISsEEEESt20back_insert_iteratorIS5_EET0_T_SA_S9_
DA:210,0
DA:215,0
DA:216,0
DA:217,0
DA:268,11
DA:269,11
DA:276,22
DA:277,22
DA:286,22
DA:287,22
DA:337,11
DA:340,22
DA:342,11
DA:343,11
DA:344,11
DA:346,11
DA:385,11
DA:393,11
DA:396,11
DA:430,11
DA:435,11
DA:456,11
DA:466,11
DA:539,0
DA:542,0
DA:543,0
DA:544,0
DA:579,0
DA:587,0
DA:592,0
DA:597,0
DA:602,0
DA:624,0
DA:636,0
BA:215,0
BA:215,0
BA:340,2
BA:340,2
BA:340,2
BA:340,2
BA:542,0
BA:542,0
LF:34
LH:19
end_of_record
SF:/usr/include/c++/4.3/bits/stl_construct.h
FN:87,_ZSt8_DestroyISsEvPT_
FN:97,_ZSt8_DestroyIPSsEvT_S1_
FN:126,_ZSt8_DestroyIPSsSsEvT_S1_RSaIT0_E
DA:87,75
DA:88,75
DA:97,156
DA:101,231
DA:103,75
DA:104,156
DA:126,156
DA:128,156
DA:129,156
BA:101,2
BA:101,2
LF:9
LH:9
end_of_record
SF:/usr/include/c++/4.3/bits/stl_iterator.h
FN:695,_ZNK9__gnu_cxx17__normal_iteratorIPSsSt6vectorISsSaISsEEEdeEv
FN:398,_ZNSt20back_insert_iteratorISt6vectorISsSaISsEEEC1ERS2_
FN:456,_ZSt13back_inserterISt6vectorISsSaISsEEESt20back_insert_iteratorIT_ERS4_
FN:683,_ZN9__gnu_cxx17__normal_iteratorIPKSsSt6vectorISsSaISsEEEC1ERKS2_
FN:747,_ZNK9__gnu_cxx17__normal_iteratorIPSsSt6vectorISsSaISsEEE4baseEv
FN:683,_ZN9__gnu_cxx17__normal_iteratorIPSsSt6vectorISsSaISsEEEC1ERKS1_
FN:743,_ZNK9__gnu_cxx17__normal_iteratorIPSsSt6vectorISsSaISsEEEmiERKi
FN:747,_ZNK9__gnu_cxx17__normal_iteratorIPKSsSt6vectorISsSaISsEEE4baseEv
FN:769,_ZN9__gnu_cxxeqIPKSsSt6vectorISsSaISsEEEEbRKNS_17__normal_iteratorIT_T0_EESB_
FN:429,_ZNSt20back_insert_iteratorISt6vectorISsSaISsEEEdeEv
FN:434,_ZNSt20back_insert_iteratorISt6vectorISsSaISsEEEppEv
FN:412,_ZNSt20back_insert_iteratorISt6vectorISsSaISsEEEaSERKSs
DA:398,6
DA:412,3
DA:414,3
DA:415,3
DA:429,3
DA:430,3
DA:434,3
DA:435,3
DA:456,6
DA:457,6
DA:683,222
DA:695,3
DA:696,3
DA:743,3
DA:744,3
DA:747,286
DA:748,286
DA:769,8
DA:770,8
LF:19
LH:19
end_of_record
SF:/usr/include/c++/4.3/bits/stl_iterator_base_funcs.h
FN:93,_ZSt10__distanceIPcENSt15iterator_traitsIT_E15difference_typeES2_S2_St26random_access_iterator_tag
FN:115,_ZSt8distanceIPcENSt15iterator_traitsIT_E15difference_typeES2_S2_
DA:93,0
DA:98,0
DA:115,0
DA:119,0
LF:4
LH:0
end_of_record
SF:/usr/include/c++/4.3/bits/stl_iterator_base_types.h
FN:111,_ZNSt8iteratorISt19output_iterator_tagvvvvEC2Ev
FN:166,_ZSt19__iterator_categoryIPcENSt15iterator_traitsIT_E17iterator_categoryERKS2_
DA:111,0
DA:166,0
DA:167,0
LF:3
LH:0
end_of_record
SF:/usr/include/c++/4.3/bits/stl_uninitialized.h
FN:73,_ZNSt20__uninitialized_copyILb0EE18uninitialized_copyIPSsS2_EET0_T_S4_S3_
FN:113,_ZSt18uninitialized_copyIPSsS0_ET0_T_S2_S1_
FN:261,_ZSt22__uninitialized_copy_aIPSsS0_SsET0_T_S2_S1_RSaIT1_E
FN:268,_ZSt22__uninitialized_move_aIPSsS0_SaISsEET0_T_S3_S2_RT1_
DA:73,122
DA:75,122
DA:78,138
DA:79,16
DA:81,122
DA:83,0
DA:85,0
DA:86,0
DA:113,122
DA:122,122
DA:261,122
DA:262,122
DA:268,122
DA:272,122
BA:78,2
BA:78,2
BA:79,2
BA:79,1
LF:14
LH:11
end_of_record
SF:/usr/include/c++/4.3/bits/stl_vector.h
FN:97,_ZNSt12_Vector_baseISsSaISsEE19_M_get_Tp_allocatorEv
FN:404,_ZNKSt6vectorISsSaISsEE3endEv
FN:386,_ZNKSt6vectorISsSaISsEE5beginEv
FN:484,_ZNKSt6vectorISsSaISsEE4sizeEv
FN:101,_ZNKSt12_Vector_baseISsSaISsEE19_M_get_Tp_allocatorEv
FN:395,_ZNSt6vectorISsSaISsEE3endEv
FN:377,_ZNSt6vectorISsSaISsEE5beginEv
FN:647,_ZNSt6vectorISsSaISsEE4backEv
FN:526,_ZNKSt6vectorISsSaISsEE5emptyEv
FN:79,_ZNSt12_Vector_baseISsSaISsEE12_Vector_implD1Ev
FN:84,_ZNSt12_Vector_baseISsSaISsEE12_Vector_implC1Ev
FN:108,_ZNSt12_Vector_baseISsSaISsEEC2Ev
FN:213,_ZNSt6vectorISsSaISsEEC1Ev
FN:489,_ZNKSt6vectorISsSaISsEE8max_sizeEv
FN:147,_ZNSt12_Vector_baseISsSaISsEE13_M_deallocateEPSsj
FN:135,_ZNSt12_Vector_baseISsSaISsEED2Ev
FN:1075,_ZNKSt6vectorISsSaISsEE12_M_check_lenEjPKc
FN:143,_ZNSt12_Vector_baseISsSaISsEE11_M_allocateEj
FN:299,_ZNSt6vectorISsSaISsEED1Ev
FN:686,_ZNSt6vectorISsSaISsEE9push_backERKSs
FN:722,_ZNSt6vectorISsSaISsEE8pop_backEv
DA:79,69
DA:84,70
DA:85,70
DA:86,70
DA:97,252
DA:98,252
DA:101,122
DA:102,122
DA:108,70
DA:109,70
DA:135,69
DA:136,69
DA:137,69
DA:143,61
DA:144,61
DA:147,130
DA:149,130
DA:150,60
DA:151,130
DA:213,70
DA:214,70
DA:299,69
DA:300,69
DA:301,69
DA:377,12
DA:378,12
DA:386,36
DA:387,36
DA:395,79
DA:396,79
DA:404,64
DA:405,64
DA:484,247
DA:485,247
DA:489,122
DA:490,122
DA:526,8
DA:527,8
DA:647,3
DA:648,3
DA:686,62
DA:688,62
DA:690,1
DA:691,1
DA:694,61
DA:695,62
DA:722,3
DA:724,3
DA:725,3
DA:726,3
DA:1075,61
DA:1077,61
DA:1078,0
DA:1080,61
DA:1081,61
BA:144,2
BA:144,1
BA:149,2
BA:149,2
BA:688,2
BA:688,2
BA:1077,1
BA:1077,2
BA:1081,2
BA:1081,1
BA:1081,1
BA:1081,2
LF:55
LH:54
end_of_record
SF:/usr/include/c++/4.3/bits/stream_iterator.h
FN:181,_ZNSt16ostream_iteratorISscSt11char_traitsIcEEC1ERSoPKc
FN:185,_ZNSt16ostream_iteratorISscSt11char_traitsIcEEC1ERKS2_
FN:202,_ZNSt16ostream_iteratorISscSt11char_traitsIcEEdeEv
FN:206,_ZNSt16ostream_iteratorISscSt11char_traitsIcEEppEv
FN:191,_ZNSt16ostream_iteratorISscSt11char_traitsIcEEaSERKSs
DA:181,5
DA:182,5
DA:185,25
DA:186,25
DA:191,8
DA:196,8
DA:197,8
DA:198,8
DA:202,8
DA:203,8
DA:206,8
DA:207,8
BA:197,2
BA:197,1
LF:12
LH:12
end_of_record
SF:/usr/include/c++/4.3/bits/vector.tcc
FN:283,_ZNSt6vectorISsSaISsEE13_M_insert_auxEN9__gnu_cxx17__normal_iteratorIPSsS1_EERKSs
DA:283,61
DA:286,61
DA:288,0
DA:291,0
DA:293,0
DA:295,0
DA:299,0
DA:307,61
DA:308,61
DA:309,61
DA:316,61
DA:321,61
DA:323,61
DA:324,61
DA:330,0
DA:332,0
DA:333,0
DA:334,0
DA:336,61
DA:338,61
DA:341,61
DA:342,61
DA:343,61
DA:345,61
BA:286,1
BA:286,2
LF:24
LH:15
end_of_record
SF:/usr/include/c++/4.3/exception
FN:59,_ZNSt9exceptionC2Ev
DA:59,6
LF:1
LH:1
end_of_record
SF:/usr/include/c++/4.3/ext/atomicity.h
FN:67,_ZN9__gnu_cxxL25__exchange_and_add_singleEPii
FN:50,_ZN9__gnu_cxxL18__exchange_and_addEPVii
FN:80,_ZN9__gnu_cxxL27__exchange_and_add_dispatchEPii
DA:50,0
DA:51,0
DA:67,0
DA:69,0
DA:70,0
DA:71,0
DA:80,0
DA:83,0
DA:84,0
DA:86,0
BA:83,0
BA:83,0
LF:10
LH:0
end_of_record
SF:/usr/include/c++/4.3/ext/new_allocator.h
FN:69,_ZN9__gnu_cxx13new_allocatorIcEC2Ev
FN:76,_ZN9__gnu_cxx13new_allocatorIcED2Ev
FN:71,_ZN9__gnu_cxx13new_allocatorIcEC2ERKS1_
FN:76,_ZN9__gnu_cxx13new_allocatorISsED2Ev
FN:69,_ZN9__gnu_cxx13new_allocatorISsEC2Ev
FN:101,_ZNK9__gnu_cxx13new_allocatorISsE8max_sizeEv
FN:107,_ZN9__gnu_cxx13new_allocatorISsE9constructEPSsRKSs
FN:97,_ZN9__gnu_cxx13new_allocatorISsE10deallocateEPSsj
FN:87,_ZN9__gnu_cxx13new_allocatorISsE8allocateEjPKv
FN:118,_ZN9__gnu_cxx13new_allocatorISsE7destroyEPSs
DA:69,199
DA:71,0
DA:76,211
DA:87,87
DA:89,87
DA:90,0
DA:92,87
DA:97,86
DA:98,86
DA:101,209
DA:102,209
DA:107,144
DA:108,144
DA:118,85
BA:89,1
BA:89,2
BA:108,2
BA:108,1
LF:14
LH:12
end_of_record
SF:/usr/include/c++/4.3/ext/type_traits.h
FN:154,_ZN9__gnu_cxx17__is_null_pointerIcEEbPT_
DA:154,0
DA:155,0
LF:2
LH:0
end_of_record
SF:/usr/include/c++/4.3/i486-linux-gnu/bits/gthr-default.h
FN:212,_ZL18__gthread_active_pv
DA:212,0
DA:216,0
LF:2
LH:0
end_of_record
SF:/usr/include/c++/4.3/iosfwd
FN:68,_ZNSt15basic_stringbufIcSt11char_traitsIcESaIcEED1Ev
DA:68,0
BA:68,0
BA:68,0
LF:1
LH:0
end_of_record
SF:/usr/include/c++/4.3/iostream
DA:77,1
LF:1
LH:1
end_of_record
SF:/usr/include/c++/4.3/istream
FN:585,_ZNSiC2Ev
FN:105,_ZNSiD2Ev
FN:804,_ZNSdC2Ev
FN:801,_ZNSdD2Ev
DA:105,0
DA:106,0
DA:585,0
DA:586,0
DA:587,0
DA:801,0
DA:804,0
DA:805,0
BA:106,0
BA:106,0
BA:106,0
BA:106,0
BA:801,0
BA:801,0
BA:801,0
BA:801,0
BA:801,0
BA:801,0
LF:8
LH:0
end_of_record
SF:/usr/include/c++/4.3/new
FN:105,_ZnwjPv
FN:109,_ZdlPvS_
DA:105,0
DA:109,0
LF:2
LH:0
end_of_record
SF:/usr/include/c++/4.3/ostream
FN:112,_ZNSolsEPFRSoS_E
FN:365,_ZNSoC2Ev
FN:95,_ZNSoD2Ev
FN:512,_ZStlsISt11char_traitsIcEERSt13basic_ostreamIcT_ES5_PKc
FN:566,_ZSt5flushIcSt11char_traitsIcEERSt13basic_ostreamIT_T0_ES6_
FN:545,_ZSt4endlIcSt11char_traitsIcEERSt13basic_ostreamIT_T0_ES6_
DA:95,0
DA:112,0
DA:117,0
DA:365,0
DA:366,0
DA:512,0
DA:514,0
DA:515,0
DA:517,0
DA:519,0
DA:545,0
DA:546,0
DA:566,0
DA:567,0
BA:95,0
BA:95,0
BA:95,0
BA:95,0
BA:514,0
BA:514,0
LF:14
LH:0
end_of_record
SF:/usr/include/c++/4.3/sstream
FN:96,_ZNSt15basic_stringbufIcSt11char_traitsIcESaIcEEC1ESt13_Ios_Openmode
FN:509,_ZNSt18basic_stringstreamIcSt11char_traitsIcESaIcEEC1ESt13_Ios_Openmode
FN:536,_ZNSt18basic_stringstreamIcSt11char_traitsIcESaIcEED1Ev
FN:402,_ZNSt19basic_ostringstreamIcSt11char_traitsIcESaIcEEC1ESt13_Ios_Openmode
FN:431,_ZNSt19basic_ostringstreamIcSt11char_traitsIcESaIcEED1Ev
FN:124,_ZNKSt15basic_stringbufIcSt11char_traitsIcESaIcEE3strEv
FN:555,_ZNKSt18basic_stringstreamIcSt11char_traitsIcESaIcEE3strEv
FN:450,_ZNKSt19basic_ostringstreamIcSt11char_traitsIcESaIcEE3strEv
DA:96,0
DA:97,0
DA:98,0
DA:124,0
DA:126,0
DA:127,0
DA:130,0
DA:131,0
DA:133,0
DA:136,0
DA:137,0
DA:402,0
DA:403,0
DA:404,0
DA:431,0
DA:432,0
DA:450,0
DA:451,0
DA:509,0
DA:510,0
DA:511,0
DA:536,0
DA:537,0
DA:555,0
DA:556,0
BA:127,0
BA:127,0
BA:130,0
BA:130,0
BA:432,0
BA:432,0
BA:432,0
BA:432,0
BA:432,0
BA:432,0
BA:537,0
BA:537,0
BA:537,0
BA:537,0
BA:537,0
BA:537,0
LF:25
LH:0
end_of_record
SF:/usr/include/c++/4.3/streambuf
FN:513,_ZNKSt15basic_streambufIcSt11char_traitsIcEE4pptrEv
FN:469,_ZNKSt15basic_streambufIcSt11char_traitsIcEE5egptrEv
FN:510,_ZNKSt15basic_streambufIcSt11char_traitsIcEE5pbaseEv
FN:444,_ZNSt15basic_streambufIcSt11char_traitsIcEEC2Ev
FN:197,_ZNSt15basic_streambufIcSt11char_traitsIcEED2Ev
DA:197,0
DA:198,0
DA:444,0
DA:447,0
DA:448,0
DA:469,0
DA:510,0
DA:513,0
BA:198,0
BA:198,0
LF:8
LH:0
end_of_record
SF:/usr/include/c++/4.3/typeinfo
FN:104,_ZNKSt9type_info4nameEv
DA:104,2
DA:105,2
LF:2
LH:2
end_of_record
TN:
SF:/home/mornfall/dev/pkg/ept-work/wibble/mixin.h
FN:13,_ZN6wibble5mixin10ComparableIN12_GLOBAL__N_17IntegerEEC2Ev
FN:15,_ZNK6wibble5mixin10ComparableIN12_GLOBAL__N_17IntegerEE7cmpSelfEv
FN:23,_ZNK6wibble5mixin10ComparableIN12_GLOBAL__N_17IntegerEEeqERKS3_
FN:19,_ZNK6wibble5mixin10ComparableIN12_GLOBAL__N_17IntegerEEneERKS3_
FN:27,_ZNK6wibble5mixin10ComparableIN12_GLOBAL__N_17IntegerEEltERKS3_
FN:31,_ZNK6wibble5mixin10ComparableIN12_GLOBAL__N_17IntegerEEgtERKS3_
FN:35,_ZNK6wibble5mixin10ComparableIN12_GLOBAL__N_17IntegerEEgeERKS3_
FN:64,_ZN6wibble5mixin14OutputIteratorIN12_GLOBAL__N_17DiscardEEdeEv
FN:53,_ZN6wibble5mixin14OutputIteratorIN12_GLOBAL__N_17DiscardEEppEv
DA:13,3
DA:15,35
DA:16,35
DA:19,6
DA:20,6
DA:23,8
DA:24,8
DA:27,3
DA:28,3
DA:31,3
DA:32,3
DA:35,4
DA:36,4
DA:53,3
DA:54,3
DA:64,3
DA:65,3
BA:24,2
BA:24,2
BA:24,2
BA:24,2
BA:28,2
BA:28,2
BA:28,2
BA:28,2
BA:32,2
BA:32,2
BA:32,2
BA:32,2
LF:17
LH:17
end_of_record
SF:/home/mornfall/dev/pkg/ept-work/wibble/test.h
FN:17,_ZN8LocationC1EPKciSs
FN:13,_ZN8LocationC1ERKS_
FN:33,_ZN12AssertFailedC1E8LocationRSo
FN:41,_ZN12AssertFailedD1Ev
FN:13,_ZN8LocationD1Ev
FN:59,_Z9assert_fnIbEv8LocationT_
DA:13,0
DA:17,0
DA:18,0
DA:33,0
DA:34,0
DA:36,0
DA:38,0
DA:39,0
DA:41,0
DA:42,0
DA:43,0
DA:45,0
DA:46,0
DA:48,0
DA:59,0
DA:61,0
DA:62,0
DA:64,0
BA:42,0
BA:42,0
BA:61,0
BA:61,0
LF:18
LH:0
end_of_record
SF:/home/mornfall/dev/pkg/ept-work/wibble/mixin.test.h
FN:15,_ZN12_GLOBAL__N_17IntegerC1Ei
FN:16,_ZNK12_GLOBAL__N_17IntegerleERKS0_
FN:22,_ZN12_GLOBAL__N_17DiscardaSERKi
FN:63,_ZN12_GLOBAL__N_19TestMixin6outputEv
FN:31,_ZN12_GLOBAL__N_19TestMixin10comparableEv
DA:15,3
DA:16,29
DA:22,3
DA:24,3
DA:31,1
DA:32,1
DA:33,1
DA:34,1
DA:37,1
DA:38,2
DA:39,2
DA:40,2
DA:43,2
DA:44,2
DA:46,2
DA:47,2
DA:49,2
DA:50,2
DA:51,2
DA:53,2
DA:54,2
DA:55,2
DA:57,2
DA:58,2
DA:59,2
DA:60,2
DA:61,1
DA:63,1
DA:64,1
DA:65,1
DA:66,1
DA:67,1
DA:69,1
DA:70,1
LF:34
LH:34
end_of_record
SF:/srv/build/pkg/ept-work/default/wibble/wibble-test-generated-_home_mornfall_dev_pkg_ept-work_wibble_mixin.cpp
FN:4,_Z41__static_initialization_and_destruction_0ii
FN:4,_GLOBAL__I__Z20run_Mixin_comparablev
FN:4,_Z16run_Mixin_outputv
FN:3,_Z20run_Mixin_comparablev
DA:3,1
DA:4,4
BA:4,2
BA:4,1
BA:4,2
BA:4,1
LF:2
LH:2
end_of_record
SF:/usr/include/c++/4.3/bits/allocator.h
FN:98,_ZNSaIcEC1Ev
FN:106,_ZNSaIcED2Ev
FN:106,_ZNSaIcED1Ev
FN:100,_ZNSaIcEC2ERKS_
FN:100,_ZNSaIcEC1ERKS_
FN:106,_ZNSaIiED2Ev
FN:98,_ZNSaIiEC2Ev
FN:118,_ZSteqIcEbRKSaIT_ES3_
DA:98,0
DA:100,0
DA:101,0
DA:106,0
DA:118,0
DA:119,0
LF:6
LH:0
end_of_record
SF:/usr/include/c++/4.3/bits/basic_ios.h
FN:131,_ZNKSt9basic_iosIcSt11char_traitsIcEE7rdstateEv
FN:454,_ZNSt9basic_iosIcSt11char_traitsIcEEC2Ev
FN:276,_ZNSt9basic_iosIcSt11char_traitsIcEED2Ev
FN:151,_ZNSt9basic_iosIcSt11char_traitsIcEE8setstateESt12_Ios_Iostate
FN:51,_ZSt13__check_facetISt5ctypeIcEERKT_PS3_
FN:443,_ZNKSt9basic_iosIcSt11char_traitsIcEE5widenEc
DA:51,0
DA:53,0
DA:54,0
DA:55,0
DA:131,0
DA:132,0
DA:151,0
DA:152,0
DA:276,0
DA:443,0
DA:444,0
DA:454,0
DA:456,0
DA:457,0
BA:53,0
BA:53,0
BA:276,0
BA:276,0
LF:14
LH:0
end_of_record
SF:/usr/include/c++/4.3/bits/basic_string.h
FN:277,_ZNKSs7_M_dataEv
FN:258,_ZNSs12_Alloc_hiderD1Ev
FN:285,_ZNKSs6_M_repEv
FN:606,_ZNKSs4sizeEv
FN:214,_ZNSs4_Rep10_M_refdataEv
FN:1544,_ZNKSs4dataEv
FN:178,_ZNSs4_Rep12_S_empty_repEv
FN:411,_ZNSs12_S_empty_repEv
FN:259,_ZNSs12_Alloc_hiderC1EPcRKSaIcE
FN:2067,_ZNSsC1Ev
FN:1551,_ZNKSs13get_allocatorEv
FN:200,_ZNSs4_Rep15_M_set_sharableEv
FN:204,_ZNSs4_Rep26_M_set_length_and_sharableEj
FN:2421,_ZStlsIcSt11char_traitsIcESaIcEERSt13basic_ostreamIT_T0_ES7_RKSbIS4_S5_T1_E
FN:339,_ZNSs7_M_copyEPcPKcj
FN:384,_ZNSs13_S_copy_charsEPcS_S_
FN:1462,_ZNSs16_S_construct_auxIPcEES0_T_S1_RKSaIcESt12__false_type
FN:1478,_ZNSs12_S_constructIPcEES0_T_S1_RKSaIcE
FN:501,_ZNSsaSERKSs
FN:229,_ZNSs4_Rep10_M_disposeERKSaIcE
FN:493,_ZNSsD1Ev
DA:178,0
DA:183,0
DA:184,0
DA:200,0
DA:201,0
DA:204,0
DA:206,0
DA:207,0
DA:208,0
DA:211,0
DA:214,0
DA:215,0
DA:229,0
DA:232,0
DA:234,0
DA:236,0
DA:237,0
DA:258,0
DA:259,0
DA:260,0
DA:277,0
DA:278,0
DA:285,0
DA:286,0
DA:339,0
DA:341,0
DA:342,0
DA:344,0
DA:345,0
DA:384,0
DA:385,0
DA:411,0
DA:412,0
DA:493,0
DA:494,0
DA:501,0
DA:502,0
DA:606,0
DA:607,0
DA:1462,0
DA:1465,0
DA:1478,0
DA:1481,0
DA:1544,0
DA:1545,0
DA:1551,0
DA:1552,0
DA:2067,0
DA:2069,0
DA:2421,0
DA:2425,0
BA:232,0
BA:232,0
BA:234,0
BA:234,0
BA:341,0
BA:341,0
LF:51
LH:0
end_of_record
SF:/usr/include/c++/4.3/bits/basic_string.tcc
FN:130,_ZNSs12_S_constructIPcEES0_T_S1_RKSaIcESt20forward_iterator_tag
FN:234,_ZNSsC1IPcEET_S1_RKSaIcE
DA:130,0
DA:133,0
DA:134,0
DA:137,0
DA:139,0
DA:142,0
DA:144,0
DA:146,0
DA:147,0
DA:149,0
DA:150,0
DA:152,0
DA:153,0
DA:234,0
DA:235,0
DA:236,0
BA:133,0
BA:133,0
BA:133,0
BA:133,0
BA:133,0
BA:133,0
BA:133,0
BA:133,0
BA:137,0
BA:137,0
BA:137,0
BA:137,0
BA:137,0
BA:137,0
LF:16
LH:0
end_of_record
SF:/usr/include/c++/4.3/bits/char_traits.h
FN:245,_ZNSt11char_traitsIcE6assignERcRKc
FN:261,_ZNSt11char_traitsIcE6lengthEPKc
FN:273,_ZNSt11char_traitsIcE4copyEPcPKcj
DA:245,0
DA:246,0
DA:261,0
DA:262,0
DA:273,0
DA:274,0
LF:6
LH:0
end_of_record
SF:/usr/include/c++/4.3/bits/ios_base.h
FN:125,_ZStorSt13_Ios_OpenmodeS_
FN:163,_ZStorSt12_Ios_IostateS_
DA:125,0
DA:126,0
DA:163,0
DA:164,0
LF:4
LH:0
end_of_record
SF:/usr/include/c++/4.3/bits/locale_facets.h
FN:1165,_ZNKSt5ctypeIcE13_M_widen_initEv
FN:871,_ZNKSt5ctypeIcE5widenEc
DA:871,0
DA:873,0
DA:874,0
DA:875,0
DA:876,0
DA:1165,0
DA:1168,0
DA:1169,0
DA:1170,0
DA:1172,0
DA:1174,0
DA:1175,0
DA:1176,0
BA:873,0
BA:873,0
BA:1168,0
BA:1168,0
BA:1174,0
BA:1174,0
LF:13
LH:0
end_of_record
SF:/usr/include/c++/4.3/bits/stl_algobase.h
FN:286,_ZNSt12__miter_baseIN9__gnu_cxx17__normal_iteratorIPiSt6vectorIiSaIiEEEELb0EE3__bES6_
FN:276,_ZNSt12__niter_baseIN9__gnu_cxx17__normal_iteratorIPiSt6vectorIiSaIiEEEELb1EE3__bES6_
FN:268,_ZNSt12__niter_baseIN12_GLOBAL__N_17DiscardELb0EE3__bES1_
FN:286,_ZNSt12__miter_baseIPiLb0EE3__bES0_
FN:210,_ZSt3maxIjERKT_S2_S2_
FN:268,_ZNSt12__niter_baseIPiLb0EE3__bES0_
FN:337,_ZNSt11__copy_moveILb0ELb0ESt26random_access_iterator_tagE8__copy_mIPiN12_GLOBAL__N_17DiscardEEET0_T_S7_S6_
FN:385,_ZSt13__copy_move_aILb0EPiN12_GLOBAL__N_17DiscardEET1_T0_S4_S3_
FN:430,_ZSt14__copy_move_a2ILb0EN9__gnu_cxx17__normal_iteratorIPiSt6vectorIiSaIiEEEEN12_GLOBAL__N_17DiscardEET1_T0_SA_S9_
FN:456,_ZSt4copyIN9__gnu_cxx17__normal_iteratorIPiSt6vectorIiSaIiEEEEN12_GLOBAL__N_17DiscardEET0_T_SA_S9_
FN:569,_ZNSt20__copy_move_backwardILb0ELb1ESt26random_access_iterator_tagE13__copy_move_bIiEEPT_PKS3_S6_S4_
FN:579,_ZSt22__copy_move_backward_aILb0EPiS0_ET1_T0_S2_S1_
FN:597,_ZSt23__copy_move_backward_a2ILb0EPiS0_ET1_T0_S2_S1_
FN:624,_ZSt13copy_backwardIPiS0_ET0_T_S2_S1_
FN:375,_ZNSt11__copy_moveILb0ELb1ESt26random_access_iterator_tagE8__copy_mIiEEPT_PKS3_S6_S4_
FN:385,_ZSt13__copy_move_aILb0EPiS0_ET1_T0_S2_S1_
FN:430,_ZSt14__copy_move_a2ILb0EPiS0_ET1_T0_S2_S1_
FN:456,_ZSt4copyIPiS0_ET0_T_S2_S1_
DA:210,0
DA:215,0
DA:216,0
DA:217,0
DA:268,1
DA:269,1
DA:276,0
DA:277,0
DA:286,0
DA:287,0
DA:337,1
DA:340,4
DA:342,3
DA:343,3
DA:344,3
DA:346,1
DA:375,0
DA:377,0
DA:379,0
DA:385,1
DA:393,1
DA:396,1
DA:430,1
DA:435,1
DA:456,1
DA:466,1
DA:569,0
DA:571,0
DA:572,0
DA:573,0
DA:579,0
DA:587,0
DA:592,0
DA:597,0
DA:602,0
DA:624,0
DA:636,0
BA:215,0
BA:215,0
BA:340,2
BA:340,2
LF:37
LH:15
end_of_record
SF:/usr/include/c++/4.3/bits/stl_construct.h
FN:97,_ZSt8_DestroyIPiEvT_S1_
FN:126,_ZSt8_DestroyIPiiEvT_S1_RSaIT0_E
DA:97,0
DA:104,0
DA:126,0
DA:128,0
DA:129,0
LF:5
LH:0
end_of_record
SF:/usr/include/c++/4.3/bits/stl_iterator.h
FN:683,_ZN9__gnu_cxx17__normal_iteratorIPiSt6vectorIiSaIiEEEC1ERKS1_
FN:747,_ZNK9__gnu_cxx17__normal_iteratorIPiSt6vectorIiSaIiEEE4baseEv
FN:695,_ZNK9__gnu_cxx17__normal_iteratorIPiSt6vectorIiSaIiEEEdeEv
DA:683,0
DA:695,0
DA:696,0
DA:747,0
DA:748,0
LF:5
LH:0
end_of_record
SF:/usr/include/c++/4.3/bits/stl_iterator_base_funcs.h
FN:93,_ZSt10__distanceIPcENSt15iterator_traitsIT_E15difference_typeES2_S2_St26random_access_iterator_tag
FN:115,_ZSt8distanceIPcENSt15iterator_traitsIT_E15difference_typeES2_S2_
DA:93,0
DA:98,0
DA:115,0
DA:119,0
LF:4
LH:0
end_of_record
SF:/usr/include/c++/4.3/bits/stl_iterator_base_types.h
FN:166,_ZSt19__iterator_categoryIPcENSt15iterator_traitsIT_E17iterator_categoryERKS2_
DA:166,0
DA:167,0
LF:2
LH:0
end_of_record
SF:/usr/include/c++/4.3/bits/stl_uninitialized.h
FN:97,_ZNSt20__uninitialized_copyILb1EE18uninitialized_copyIPiS2_EET0_T_S4_S3_
FN:113,_ZSt18uninitialized_copyIPiS0_ET0_T_S2_S1_
FN:261,_ZSt22__uninitialized_copy_aIPiS0_iET0_T_S2_S1_RSaIT1_E
FN:268,_ZSt22__uninitialized_move_aIPiS0_SaIiEET0_T_S3_S2_RT1_
DA:97,0
DA:98,0
DA:113,0
DA:122,0
DA:261,0
DA:262,0
DA:268,0
DA:272,0
LF:8
LH:0
end_of_record
SF:/usr/include/c++/4.3/bits/stl_vector.h
FN:97,_ZNSt12_Vector_baseIiSaIiEE19_M_get_Tp_allocatorEv
FN:395,_ZNSt6vectorIiSaIiEE3endEv
FN:377,_ZNSt6vectorIiSaIiEE5beginEv
FN:79,_ZNSt12_Vector_baseIiSaIiEE12_Vector_implD1Ev
FN:484,_ZNKSt6vectorIiSaIiEE4sizeEv
FN:84,_ZNSt12_Vector_baseIiSaIiEE12_Vector_implC1Ev
FN:108,_ZNSt12_Vector_baseIiSaIiEEC2Ev
FN:213,_ZNSt6vectorIiSaIiEEC1Ev
FN:101,_ZNKSt12_Vector_baseIiSaIiEE19_M_get_Tp_allocatorEv
FN:489,_ZNKSt6vectorIiSaIiEE8max_sizeEv
FN:1075,_ZNKSt6vectorIiSaIiEE12_M_check_lenEjPKc
FN:143,_ZNSt12_Vector_baseIiSaIiEE11_M_allocateEj
FN:147,_ZNSt12_Vector_baseIiSaIiEE13_M_deallocateEPij
FN:686,_ZNSt6vectorIiSaIiEE9push_backERKi
FN:135,_ZNSt12_Vector_baseIiSaIiEED2Ev
FN:299,_ZNSt6vectorIiSaIiEED1Ev
DA:79,0
DA:84,0
DA:85,0
DA:86,0
DA:97,0
DA:98,0
DA:101,0
DA:102,0
DA:108,0
DA:109,0
DA:135,0
DA:136,0
DA:137,0
DA:143,0
DA:144,0
DA:147,0
DA:149,0
DA:150,0
DA:151,0
DA:213,0
DA:214,0
DA:299,0
DA:300,0
DA:301,0
DA:377,0
DA:378,0
DA:395,0
DA:396,0
DA:484,0
DA:485,0
DA:489,0
DA:490,0
DA:686,0
DA:688,0
DA:690,0
DA:691,0
DA:694,0
DA:695,0
DA:1075,0
DA:1077,0
DA:1078,0
DA:1080,0
DA:1081,0
BA:144,0
BA:144,0
BA:149,0
BA:149,0
BA:688,0
BA:688,0
BA:1077,0
BA:1077,0
BA:1081,0
BA:1081,0
BA:1081,0
BA:1081,0
LF:43
LH:0
end_of_record
SF:/usr/include/c++/4.3/bits/vector.tcc
FN:283,_ZNSt6vectorIiSaIiEE13_M_insert_auxEN9__gnu_cxx17__normal_iteratorIPiS1_EERKi
DA:283,0
DA:286,0
DA:288,0
DA:291,0
DA:293,0
DA:295,0
DA:299,0
DA:307,0
DA:308,0
DA:309,0
DA:316,0
DA:321,0
DA:323,0
DA:324,0
DA:330,0
DA:332,0
DA:333,0
DA:334,0
DA:336,0
DA:338,0
DA:341,0
DA:342,0
DA:343,0
DA:345,0
BA:286,0
BA:286,0
LF:24
LH:0
end_of_record
SF:/usr/include/c++/4.3/ext/atomicity.h
FN:67,_ZN9__gnu_cxxL25__exchange_and_add_singleEPii
FN:50,_ZN9__gnu_cxxL18__exchange_and_addEPVii
FN:80,_ZN9__gnu_cxxL27__exchange_and_add_dispatchEPii
DA:50,0
DA:51,0
DA:67,0
DA:69,0
DA:70,0
DA:71,0
DA:80,0
DA:83,0
DA:84,0
DA:86,0
BA:83,0
BA:83,0
LF:10
LH:0
end_of_record
SF:/usr/include/c++/4.3/ext/new_allocator.h
FN:69,_ZN9__gnu_cxx13new_allocatorIcEC2Ev
FN:76,_ZN9__gnu_cxx13new_allocatorIcED2Ev
FN:107,_ZN9__gnu_cxx13new_allocatorIiE9constructEPiRKi
FN:71,_ZN9__gnu_cxx13new_allocatorIcEC2ERKS1_
FN:76,_ZN9__gnu_cxx13new_allocatorIiED2Ev
FN:69,_ZN9__gnu_cxx13new_allocatorIiEC2Ev
FN:101,_ZNK9__gnu_cxx13new_allocatorIiE8max_sizeEv
FN:87,_ZN9__gnu_cxx13new_allocatorIiE8allocateEjPKv
FN:97,_ZN9__gnu_cxx13new_allocatorIiE10deallocateEPij
DA:69,0
DA:71,0
DA:76,0
DA:87,0
DA:89,0
DA:90,0
DA:92,0
DA:97,0
DA:98,0
DA:101,0
DA:102,0
DA:107,0
DA:108,0
BA:89,0
BA:89,0
BA:108,0
BA:108,0
LF:13
LH:0
end_of_record
SF:/usr/include/c++/4.3/ext/type_traits.h
FN:154,_ZN9__gnu_cxx17__is_null_pointerIcEEbPT_
DA:154,0
DA:155,0
LF:2
LH:0
end_of_record
SF:/usr/include/c++/4.3/i486-linux-gnu/bits/gthr-default.h
FN:212,_ZL18__gthread_active_pv
DA:212,0
DA:216,0
LF:2
LH:0
end_of_record
SF:/usr/include/c++/4.3/iosfwd
FN:68,_ZNSt15basic_stringbufIcSt11char_traitsIcESaIcEED1Ev
DA:68,0
BA:68,0
BA:68,0
LF:1
LH:0
end_of_record
SF:/usr/include/c++/4.3/iostream
DA:77,1
LF:1
LH:1
end_of_record
SF:/usr/include/c++/4.3/new
FN:105,_ZnwjPv
DA:105,0
LF:1
LH:0
end_of_record
SF:/usr/include/c++/4.3/ostream
FN:112,_ZNSolsEPFRSoS_E
FN:365,_ZNSoC2Ev
FN:95,_ZNSoD2Ev
FN:512,_ZStlsISt11char_traitsIcEERSt13basic_ostreamIcT_ES5_PKc
FN:566,_ZSt5flushIcSt11char_traitsIcEERSt13basic_ostreamIT_T0_ES6_
FN:545,_ZSt4endlIcSt11char_traitsIcEERSt13basic_ostreamIT_T0_ES6_
DA:95,0
DA:112,0
DA:117,0
DA:365,0
DA:366,0
DA:512,0
DA:514,0
DA:515,0
DA:517,0
DA:519,0
DA:545,0
DA:546,0
DA:566,0
DA:567,0
BA:95,0
BA:95,0
BA:95,0
BA:95,0
BA:514,0
BA:514,0
LF:14
LH:0
end_of_record
SF:/usr/include/c++/4.3/sstream
FN:96,_ZNSt15basic_stringbufIcSt11char_traitsIcESaIcEEC1ESt13_Ios_Openmode
FN:402,_ZNSt19basic_ostringstreamIcSt11char_traitsIcESaIcEEC1ESt13_Ios_Openmode
FN:431,_ZNSt19basic_ostringstreamIcSt11char_traitsIcESaIcEED1Ev
FN:124,_ZNKSt15basic_stringbufIcSt11char_traitsIcESaIcEE3strEv
FN:450,_ZNKSt19basic_ostringstreamIcSt11char_traitsIcESaIcEE3strEv
DA:96,0
DA:97,0
DA:98,0
DA:124,0
DA:126,0
DA:127,0
DA:130,0
DA:131,0
DA:133,0
DA:136,0
DA:137,0
DA:402,0
DA:403,0
DA:404,0
DA:431,0
DA:432,0
DA:450,0
DA:451,0
BA:127,0
BA:127,0
BA:130,0
BA:130,0
BA:432,0
BA:432,0
BA:432,0
BA:432,0
BA:432,0
BA:432,0
LF:18
LH:0
end_of_record
SF:/usr/include/c++/4.3/streambuf
FN:513,_ZNKSt15basic_streambufIcSt11char_traitsIcEE4pptrEv
FN:469,_ZNKSt15basic_streambufIcSt11char_traitsIcEE5egptrEv
FN:510,_ZNKSt15basic_streambufIcSt11char_traitsIcEE5pbaseEv
FN:444,_ZNSt15basic_streambufIcSt11char_traitsIcEEC2Ev
FN:197,_ZNSt15basic_streambufIcSt11char_traitsIcEED2Ev
DA:197,0
DA:198,0
DA:444,0
DA:447,0
DA:448,0
DA:469,0
DA:510,0
DA:513,0
BA:198,0
BA:198,0
LF:8
LH:0
end_of_record
TN:
SF:/home/mornfall/dev/pkg/ept-work/wibble/sys/buffer.h
FN:51,_ZNK6wibble3sys6Buffer4Data3refEv
FN:55,_ZNK6wibble3sys6Buffer4Data5unrefEv
FN:73,_ZN6wibble3sys6BufferC1Ev
FN:140,_ZN6wibble3sys6Buffer4dataEv
FN:146,_ZNK6wibble3sys6Buffer4sizeEv
FN:95,_ZN6wibble3sys6BufferC1EPvjb
FN:124,_ZN6wibble3sys6BufferD1Ev
FN:109,_ZN6wibble3sys6BufferC1EPKvj
FN:149,_ZN6wibble3sys6Buffer6resizeEj
FN:76,_ZN6wibble3sys6BufferC1Ej
FN:167,_ZNK6wibble3sys6BuffereqERKS1_
FN:176,_ZNK6wibble3sys6BufferneERKS1_
FN:182,_ZNK6wibble3sys6BufferltERKS1_
DA:51,0
DA:55,0
DA:73,3
DA:76,2
DA:78,2
DA:80,2
DA:81,2
DA:83,2
DA:95,1
DA:97,1
DA:99,1
DA:100,1
DA:102,1
DA:109,2
DA:111,2
DA:113,2
DA:114,2
DA:116,2
DA:124,8
DA:126,8
DA:127,5
DA:128,8
DA:140,0
DA:146,0
DA:149,1
DA:151,1
DA:152,0
DA:153,1
DA:155,0
DA:156,0
DA:157,0
DA:158,1
DA:159,1
DA:161,0
DA:162,0
DA:167,10
DA:169,10
DA:170,2
DA:171,8
DA:172,2
DA:173,6
DA:176,3
DA:178,3
DA:182,8
DA:184,8
DA:185,2
DA:186,6
DA:187,1
DA:188,5
DA:189,1
DA:190,4
BA:78,2
BA:78,1
BA:97,2
BA:97,1
BA:111,2
BA:111,1
BA:126,2
BA:126,2
BA:126,2
BA:126,1
BA:126,2
BA:126,2
BA:127,2
BA:127,1
BA:140,0
BA:140,0
BA:146,0
BA:146,0
BA:151,2
BA:151,1
BA:153,1
BA:153,2
BA:155,0
BA:155,0
BA:155,0
BA:155,0
BA:155,0
BA:155,0
BA:156,0
BA:156,0
BA:158,2
BA:158,1
BA:169,2
BA:169,2
BA:169,2
BA:169,1
BA:171,2
BA:171,1
BA:171,2
BA:171,2
BA:184,2
BA:184,2
BA:184,2
BA:184,2
BA:186,2
BA:186,2
BA:188,2
BA:188,2
LF:51
LH:41
end_of_record
SF:/home/mornfall/dev/pkg/ept-work/wibble/test.h
FN:13,_ZN8LocationC1ERKS_
FN:17,_ZN8LocationC1EPKciSs
FN:52,_ZlsIPKcER12AssertFailedS3_T_
FN:52,_ZlsIjER12AssertFailedS1_T_
FN:52,_ZlsIPvER12AssertFailedS2_T_
FN:33,_ZN12AssertFailedC1E8LocationRSo
FN:41,_ZN12AssertFailedD1Ev
FN:13,_ZN8LocationD1Ev
FN:67,_Z12assert_eq_fnIjjEv8LocationT_T0_
FN:67,_Z12assert_eq_fnIPvS0_Ev8LocationT_T0_
FN:59,_Z9assert_fnIbEv8LocationT_
DA:13,0
DA:17,0
DA:18,0
DA:33,0
DA:34,0
DA:36,0
DA:38,0
DA:39,0
DA:41,0
DA:42,0
DA:43,0
DA:45,0
DA:46,0
DA:48,0
DA:52,0
DA:54,0
DA:55,0
DA:59,0
DA:61,0
DA:62,0
DA:64,0
DA:67,0
DA:69,0
DA:70,0
DA:71,0
DA:75,0
BA:42,0
BA:42,0
BA:61,0
BA:61,0
BA:69,0
BA:69,0
BA:69,0
BA:69,0
LF:26
LH:0
end_of_record
SF:/home/mornfall/dev/pkg/ept-work/wibble/sys/buffer.test.h
FN:80,_ZN10TestBuffer8takeoverEv
FN:58,_ZN10TestBuffer4copyEv
FN:67,_ZN10TestBuffer6resizeEv
FN:26,_ZN10TestBuffer12nonemptinessEv
FN:13,_ZN10TestBuffer9emptinessEv
DA:13,1
DA:14,1
DA:15,1
DA:16,2
DA:19,1
DA:20,2
DA:21,2
DA:22,2
DA:23,2
DA:24,1
DA:26,1
DA:28,1
DA:29,1
DA:30,1
DA:31,2
DA:34,1
DA:35,1
DA:36,1
DA:37,2
DA:38,2
DA:39,2
DA:40,2
DA:41,2
DA:43,1
DA:44,2
DA:45,2
DA:46,2
DA:47,2
DA:50,1
DA:51,2
DA:52,2
DA:53,2
DA:54,2
DA:55,1
DA:58,1
DA:59,1
DA:60,1
DA:62,1
DA:63,2
DA:64,1
DA:67,1
DA:68,1
DA:69,1
DA:71,1
DA:72,2
DA:74,1
DA:75,1
DA:76,2
DA:77,1
DA:80,1
DA:81,1
DA:82,1
DA:83,1
DA:85,1
DA:86,2
DA:87,1
LF:56
LH:56
end_of_record
SF:/srv/build/pkg/ept-work/default/wibble/wibble-test-generated-_home_mornfall_dev_pkg_ept-work_wibble_sys_buffer.cpp
FN:7,_Z41__static_initialization_and_destruction_0ii
FN:7,_GLOBAL__I__Z20run_Buffer_emptinessv
FN:7,_Z19run_Buffer_takeoverv
FN:5,_Z15run_Buffer_copyv
FN:6,_Z17run_Buffer_resizev
FN:4,_Z23run_Buffer_nonemptinessv
FN:3,_Z20run_Buffer_emptinessv
DA:3,1
DA:4,1
DA:5,1
DA:6,1
DA:7,4
BA:7,2
BA:7,1
BA:7,2
BA:7,1
LF:5
LH:5
end_of_record
SF:/usr/include/c++/4.3/bits/allocator.h
FN:98,_ZNSaIcEC1Ev
FN:106,_ZNSaIcED2Ev
FN:106,_ZNSaIcED1Ev
FN:100,_ZNSaIcEC2ERKS_
FN:100,_ZNSaIcEC1ERKS_
FN:118,_ZSteqIcEbRKSaIT_ES3_
DA:98,0
DA:100,0
DA:101,0
DA:106,0
DA:118,0
DA:119,0
LF:6
LH:0
end_of_record
SF:/usr/include/c++/4.3/bits/basic_ios.h
FN:131,_ZNKSt9basic_iosIcSt11char_traitsIcEE7rdstateEv
FN:454,_ZNSt9basic_iosIcSt11char_traitsIcEEC2Ev
FN:276,_ZNSt9basic_iosIcSt11char_traitsIcEED2Ev
FN:151,_ZNSt9basic_iosIcSt11char_traitsIcEE8setstateESt12_Ios_Iostate
FN:51,_ZSt13__check_facetISt5ctypeIcEERKT_PS3_
FN:443,_ZNKSt9basic_iosIcSt11char_traitsIcEE5widenEc
DA:51,0
DA:53,0
DA:54,0
DA:55,0
DA:131,0
DA:132,0
DA:151,0
DA:152,0
DA:276,0
DA:443,0
DA:444,0
DA:454,0
DA:456,0
DA:457,0
BA:53,0
BA:53,0
BA:276,0
BA:276,0
LF:14
LH:0
end_of_record
SF:/usr/include/c++/4.3/bits/basic_string.h
FN:277,_ZNKSs7_M_dataEv
FN:258,_ZNSs12_Alloc_hiderD1Ev
FN:285,_ZNKSs6_M_repEv
FN:606,_ZNKSs4sizeEv
FN:214,_ZNSs4_Rep10_M_refdataEv
FN:1544,_ZNKSs4dataEv
FN:178,_ZNSs4_Rep12_S_empty_repEv
FN:411,_ZNSs12_S_empty_repEv
FN:259,_ZNSs12_Alloc_hiderC1EPcRKSaIcE
FN:2067,_ZNSsC1Ev
FN:1551,_ZNKSs13get_allocatorEv
FN:200,_ZNSs4_Rep15_M_set_sharableEv
FN:204,_ZNSs4_Rep26_M_set_length_and_sharableEj
FN:2421,_ZStlsIcSt11char_traitsIcESaIcEERSt13basic_ostreamIT_T0_ES7_RKSbIS4_S5_T1_E
FN:339,_ZNSs7_M_copyEPcPKcj
FN:384,_ZNSs13_S_copy_charsEPcS_S_
FN:1462,_ZNSs16_S_construct_auxIPcEES0_T_S1_RKSaIcESt12__false_type
FN:1478,_ZNSs12_S_constructIPcEES0_T_S1_RKSaIcE
FN:501,_ZNSsaSERKSs
FN:229,_ZNSs4_Rep10_M_disposeERKSaIcE
FN:493,_ZNSsD1Ev
DA:178,0
DA:183,0
DA:184,0
DA:200,0
DA:201,0
DA:204,0
DA:206,0
DA:207,0
DA:208,0
DA:211,0
DA:214,0
DA:215,0
DA:229,0
DA:232,0
DA:234,0
DA:236,0
DA:237,0
DA:258,0
DA:259,0
DA:260,0
DA:277,0
DA:278,0
DA:285,0
DA:286,0
DA:339,0
DA:341,0
DA:342,0
DA:344,0
DA:345,0
DA:384,0
DA:385,0
DA:411,0
DA:412,0
DA:493,0
DA:494,0
DA:501,0
DA:502,0
DA:606,0
DA:607,0
DA:1462,0
DA:1465,0
DA:1478,0
DA:1481,0
DA:1544,0
DA:1545,0
DA:1551,0
DA:1552,0
DA:2067,0
DA:2069,0
DA:2421,0
DA:2425,0
BA:232,0
BA:232,0
BA:234,0
BA:234,0
BA:341,0
BA:341,0
LF:51
LH:0
end_of_record
SF:/usr/include/c++/4.3/bits/basic_string.tcc
FN:130,_ZNSs12_S_constructIPcEES0_T_S1_RKSaIcESt20forward_iterator_tag
FN:234,_ZNSsC1IPcEET_S1_RKSaIcE
DA:130,0
DA:133,0
DA:134,0
DA:137,0
DA:139,0
DA:142,0
DA:144,0
DA:146,0
DA:147,0
DA:149,0
DA:150,0
DA:152,0
DA:153,0
DA:234,0
DA:235,0
DA:236,0
BA:133,0
BA:133,0
BA:133,0
BA:133,0
BA:133,0
BA:133,0
BA:133,0
BA:133,0
BA:137,0
BA:137,0
BA:137,0
BA:137,0
BA:137,0
BA:137,0
LF:16
LH:0
end_of_record
SF:/usr/include/c++/4.3/bits/char_traits.h
FN:245,_ZNSt11char_traitsIcE6assignERcRKc
FN:261,_ZNSt11char_traitsIcE6lengthEPKc
FN:273,_ZNSt11char_traitsIcE4copyEPcPKcj
DA:245,0
DA:246,0
DA:261,0
DA:262,0
DA:273,0
DA:274,0
LF:6
LH:0
end_of_record
SF:/usr/include/c++/4.3/bits/ios_base.h
FN:125,_ZStorSt13_Ios_OpenmodeS_
FN:163,_ZStorSt12_Ios_IostateS_
DA:125,0
DA:126,0
DA:163,0
DA:164,0
LF:4
LH:0
end_of_record
SF:/usr/include/c++/4.3/bits/locale_facets.h
FN:1165,_ZNKSt5ctypeIcE13_M_widen_initEv
FN:871,_ZNKSt5ctypeIcE5widenEc
DA:871,0
DA:873,0
DA:874,0
DA:875,0
DA:876,0
DA:1165,0
DA:1168,0
DA:1169,0
DA:1170,0
DA:1172,0
DA:1174,0
DA:1175,0
DA:1176,0
BA:873,0
BA:873,0
BA:1168,0
BA:1168,0
BA:1174,0
BA:1174,0
LF:13
LH:0
end_of_record
SF:/usr/include/c++/4.3/bits/stl_iterator_base_funcs.h
FN:93,_ZSt10__distanceIPcENSt15iterator_traitsIT_E15difference_typeES2_S2_St26random_access_iterator_tag
FN:115,_ZSt8distanceIPcENSt15iterator_traitsIT_E15difference_typeES2_S2_
DA:93,0
DA:98,0
DA:115,0
DA:119,0
LF:4
LH:0
end_of_record
SF:/usr/include/c++/4.3/bits/stl_iterator_base_types.h
FN:166,_ZSt19__iterator_categoryIPcENSt15iterator_traitsIT_E17iterator_categoryERKS2_
DA:166,0
DA:167,0
LF:2
LH:0
end_of_record
SF:/usr/include/c++/4.3/ext/atomicity.h
FN:67,_ZN9__gnu_cxxL25__exchange_and_add_singleEPii
FN:50,_ZN9__gnu_cxxL18__exchange_and_addEPVii
FN:80,_ZN9__gnu_cxxL27__exchange_and_add_dispatchEPii
DA:50,0
DA:51,0
DA:67,0
DA:69,0
DA:70,0
DA:71,0
DA:80,0
DA:83,0
DA:84,0
DA:86,0
BA:83,0
BA:83,0
LF:10
LH:0
end_of_record
SF:/usr/include/c++/4.3/ext/new_allocator.h
FN:69,_ZN9__gnu_cxx13new_allocatorIcEC2Ev
FN:76,_ZN9__gnu_cxx13new_allocatorIcED2Ev
FN:71,_ZN9__gnu_cxx13new_allocatorIcEC2ERKS1_
DA:69,0
DA:71,0
DA:76,0
LF:3
LH:0
end_of_record
SF:/usr/include/c++/4.3/ext/type_traits.h
FN:154,_ZN9__gnu_cxx17__is_null_pointerIcEEbPT_
DA:154,0
DA:155,0
LF:2
LH:0
end_of_record
SF:/usr/include/c++/4.3/i486-linux-gnu/bits/gthr-default.h
FN:212,_ZL18__gthread_active_pv
DA:212,0
DA:216,0
LF:2
LH:0
end_of_record
SF:/usr/include/c++/4.3/iosfwd
FN:68,_ZNSt15basic_stringbufIcSt11char_traitsIcESaIcEED1Ev
DA:68,0
BA:68,0
BA:68,0
LF:1
LH:0
end_of_record
SF:/usr/include/c++/4.3/iostream
DA:77,1
LF:1
LH:1
end_of_record
SF:/usr/include/c++/4.3/ostream
FN:112,_ZNSolsEPFRSoS_E
FN:365,_ZNSoC2Ev
FN:95,_ZNSoD2Ev
FN:512,_ZStlsISt11char_traitsIcEERSt13basic_ostreamIcT_ES5_PKc
FN:195,_ZNSolsEj
FN:566,_ZSt5flushIcSt11char_traitsIcEERSt13basic_ostreamIT_T0_ES6_
FN:545,_ZSt4endlIcSt11char_traitsIcEERSt13basic_ostreamIT_T0_ES6_
FN:229,_ZNSolsEPKv
DA:95,0
DA:112,0
DA:117,0
DA:195,0
DA:199,0
DA:229,0
DA:230,0
DA:365,0
DA:366,0
DA:512,0
DA:514,0
DA:515,0
DA:517,0
DA:519,0
DA:545,0
DA:546,0
DA:566,0
DA:567,0
BA:95,0
BA:95,0
BA:95,0
BA:95,0
BA:514,0
BA:514,0
LF:18
LH:0
end_of_record
SF:/usr/include/c++/4.3/sstream
FN:96,_ZNSt15basic_stringbufIcSt11char_traitsIcESaIcEEC1ESt13_Ios_Openmode
FN:402,_ZNSt19basic_ostringstreamIcSt11char_traitsIcESaIcEEC1ESt13_Ios_Openmode
FN:431,_ZNSt19basic_ostringstreamIcSt11char_traitsIcESaIcEED1Ev
FN:124,_ZNKSt15basic_stringbufIcSt11char_traitsIcESaIcEE3strEv
FN:450,_ZNKSt19basic_ostringstreamIcSt11char_traitsIcESaIcEE3strEv
DA:96,0
DA:97,0
DA:98,0
DA:124,0
DA:126,0
DA:127,0
DA:130,0
DA:131,0
DA:133,0
DA:136,0
DA:137,0
DA:402,0
DA:403,0
DA:404,0
DA:431,0
DA:432,0
DA:450,0
DA:451,0
BA:127,0
BA:127,0
BA:130,0
BA:130,0
BA:432,0
BA:432,0
BA:432,0
BA:432,0
BA:432,0
BA:432,0
LF:18
LH:0
end_of_record
SF:/usr/include/c++/4.3/streambuf
FN:513,_ZNKSt15basic_streambufIcSt11char_traitsIcEE4pptrEv
FN:469,_ZNKSt15basic_streambufIcSt11char_traitsIcEE5egptrEv
FN:510,_ZNKSt15basic_streambufIcSt11char_traitsIcEE5pbaseEv
FN:444,_ZNSt15basic_streambufIcSt11char_traitsIcEEC2Ev
FN:197,_ZNSt15basic_streambufIcSt11char_traitsIcEED2Ev
DA:197,0
DA:198,0
DA:444,0
DA:447,0
DA:448,0
DA:469,0
DA:510,0
DA:513,0
BA:198,0
BA:198,0
LF:8
LH:0
end_of_record
TN:
SF:/home/mornfall/dev/pkg/ept-work/wibble/empty.h
FN:60,_ZNK6wibble5EmptyIiE4sizeEv
FN:62,_ZN6wibble5EmptyIiE5beginEv
FN:63,_ZN6wibble5EmptyIiE3endEv
FN:55,_ZNK6wibble5EmptyIiE8iteratoreqERKS2_
FN:56,_ZNK6wibble5EmptyIiE8iteratorneERKS2_
DA:55,1
DA:56,1
DA:60,1
DA:62,1
DA:63,2
LF:5
LH:5
end_of_record
SF:/home/mornfall/dev/pkg/ept-work/wibble/test.h
FN:13,_ZN8LocationC1ERKS_
FN:17,_ZN8LocationC1EPKciSs
FN:52,_ZlsIPKcER12AssertFailedS3_T_
FN:52,_ZlsIjER12AssertFailedS1_T_
FN:33,_ZN12AssertFailedC1E8LocationRSo
FN:41,_ZN12AssertFailedD1Ev
FN:13,_ZN8LocationD1Ev
FN:67,_Z12assert_eq_fnIjjEv8LocationT_T0_
FN:59,_Z9assert_fnIbEv8LocationT_
DA:13,0
DA:17,0
DA:18,0
DA:33,0
DA:34,0
DA:36,0
DA:38,0
DA:39,0
DA:41,0
DA:42,0
DA:43,0
DA:45,0
DA:46,0
DA:48,0
DA:52,0
DA:54,0
DA:55,0
DA:59,0
DA:61,0
DA:62,0
DA:64,0
DA:67,0
DA:69,0
DA:70,0
DA:71,0
DA:75,0
BA:42,0
BA:42,0
BA:61,0
BA:61,0
BA:69,0
BA:69,0
LF:26
LH:0
end_of_record
SF:/home/mornfall/dev/pkg/ept-work/wibble/empty.test.h
FN:10,_ZN9TestEmpty5basicEv
DA:10,1
DA:13,1
DA:15,1
DA:16,2
DA:17,2
DA:18,1
LF:6
LH:6
end_of_record
SF:/srv/build/pkg/ept-work/default/wibble/wibble-test-generated-_home_mornfall_dev_pkg_ept-work_wibble_empty.cpp
FN:3,_Z41__static_initialization_and_destruction_0ii
FN:3,_GLOBAL__I__Z15run_Empty_basicv
FN:3,_Z15run_Empty_basicv
DA:3,4
BA:3,2
BA:3,1
BA:3,2
BA:3,1
LF:1
LH:1
end_of_record
SF:/usr/include/c++/4.3/bits/allocator.h
FN:98,_ZNSaIcEC1Ev
FN:106,_ZNSaIcED2Ev
FN:106,_ZNSaIcED1Ev
FN:100,_ZNSaIcEC2ERKS_
FN:100,_ZNSaIcEC1ERKS_
FN:118,_ZSteqIcEbRKSaIT_ES3_
DA:98,0
DA:100,0
DA:101,0
DA:106,0
DA:118,0
DA:119,0
LF:6
LH:0
end_of_record
SF:/usr/include/c++/4.3/bits/basic_ios.h
FN:131,_ZNKSt9basic_iosIcSt11char_traitsIcEE7rdstateEv
FN:454,_ZNSt9basic_iosIcSt11char_traitsIcEEC2Ev
FN:276,_ZNSt9basic_iosIcSt11char_traitsIcEED2Ev
FN:151,_ZNSt9basic_iosIcSt11char_traitsIcEE8setstateESt12_Ios_Iostate
FN:51,_ZSt13__check_facetISt5ctypeIcEERKT_PS3_
FN:443,_ZNKSt9basic_iosIcSt11char_traitsIcEE5widenEc
DA:51,0
DA:53,0
DA:54,0
DA:55,0
DA:131,0
DA:132,0
DA:151,0
DA:152,0
DA:276,0
DA:443,0
DA:444,0
DA:454,0
DA:456,0
DA:457,0
BA:53,0
BA:53,0
BA:276,0
BA:276,0
LF:14
LH:0
end_of_record
SF:/usr/include/c++/4.3/bits/basic_string.h
FN:277,_ZNKSs7_M_dataEv
FN:258,_ZNSs12_Alloc_hiderD1Ev
FN:285,_ZNKSs6_M_repEv
FN:606,_ZNKSs4sizeEv
FN:214,_ZNSs4_Rep10_M_refdataEv
FN:1544,_ZNKSs4dataEv
FN:178,_ZNSs4_Rep12_S_empty_repEv
FN:411,_ZNSs12_S_empty_repEv
FN:259,_ZNSs12_Alloc_hiderC1EPcRKSaIcE
FN:2067,_ZNSsC1Ev
FN:1551,_ZNKSs13get_allocatorEv
FN:200,_ZNSs4_Rep15_M_set_sharableEv
FN:204,_ZNSs4_Rep26_M_set_length_and_sharableEj
FN:2421,_ZStlsIcSt11char_traitsIcESaIcEERSt13basic_ostreamIT_T0_ES7_RKSbIS4_S5_T1_E
FN:339,_ZNSs7_M_copyEPcPKcj
FN:384,_ZNSs13_S_copy_charsEPcS_S_
FN:1462,_ZNSs16_S_construct_auxIPcEES0_T_S1_RKSaIcESt12__false_type
FN:1478,_ZNSs12_S_constructIPcEES0_T_S1_RKSaIcE
FN:501,_ZNSsaSERKSs
FN:229,_ZNSs4_Rep10_M_disposeERKSaIcE
FN:493,_ZNSsD1Ev
DA:178,0
DA:183,0
DA:184,0
DA:200,0
DA:201,0
DA:204,0
DA:206,0
DA:207,0
DA:208,0
DA:211,0
DA:214,0
DA:215,0
DA:229,0
DA:232,0
DA:234,0
DA:236,0
DA:237,0
DA:258,0
DA:259,0
DA:260,0
DA:277,0
DA:278,0
DA:285,0
DA:286,0
DA:339,0
DA:341,0
DA:342,0
DA:344,0
DA:345,0
DA:384,0
DA:385,0
DA:411,0
DA:412,0
DA:493,0
DA:494,0
DA:501,0
DA:502,0
DA:606,0
DA:607,0
DA:1462,0
DA:1465,0
DA:1478,0
DA:1481,0
DA:1544,0
DA:1545,0
DA:1551,0
DA:1552,0
DA:2067,0
DA:2069,0
DA:2421,0
DA:2425,0
BA:232,0
BA:232,0
BA:234,0
BA:234,0
BA:341,0
BA:341,0
LF:51
LH:0
end_of_record
SF:/usr/include/c++/4.3/bits/basic_string.tcc
FN:130,_ZNSs12_S_constructIPcEES0_T_S1_RKSaIcESt20forward_iterator_tag
FN:234,_ZNSsC1IPcEET_S1_RKSaIcE
DA:130,0
DA:133,0
DA:134,0
DA:137,0
DA:139,0
DA:142,0
DA:144,0
DA:146,0
DA:147,0
DA:149,0
DA:150,0
DA:152,0
DA:153,0
DA:234,0
DA:235,0
DA:236,0
BA:133,0
BA:133,0
BA:133,0
BA:133,0
BA:133,0
BA:133,0
BA:133,0
BA:133,0
BA:137,0
BA:137,0
BA:137,0
BA:137,0
BA:137,0
BA:137,0
LF:16
LH:0
end_of_record
SF:/usr/include/c++/4.3/bits/char_traits.h
FN:245,_ZNSt11char_traitsIcE6assignERcRKc
FN:261,_ZNSt11char_traitsIcE6lengthEPKc
FN:273,_ZNSt11char_traitsIcE4copyEPcPKcj
DA:245,0
DA:246,0
DA:261,0
DA:262,0
DA:273,0
DA:274,0
LF:6
LH:0
end_of_record
SF:/usr/include/c++/4.3/bits/ios_base.h
FN:125,_ZStorSt13_Ios_OpenmodeS_
FN:163,_ZStorSt12_Ios_IostateS_
DA:125,0
DA:126,0
DA:163,0
DA:164,0
LF:4
LH:0
end_of_record
SF:/usr/include/c++/4.3/bits/locale_facets.h
FN:1165,_ZNKSt5ctypeIcE13_M_widen_initEv
FN:871,_ZNKSt5ctypeIcE5widenEc
DA:871,0
DA:873,0
DA:874,0
DA:875,0
DA:876,0
DA:1165,0
DA:1168,0
DA:1169,0
DA:1170,0
DA:1172,0
DA:1174,0
DA:1175,0
DA:1176,0
BA:873,0
BA:873,0
BA:1168,0
BA:1168,0
BA:1174,0
BA:1174,0
LF:13
LH:0
end_of_record
SF:/usr/include/c++/4.3/bits/stl_iterator_base_funcs.h
FN:93,_ZSt10__distanceIPcENSt15iterator_traitsIT_E15difference_typeES2_S2_St26random_access_iterator_tag
FN:115,_ZSt8distanceIPcENSt15iterator_traitsIT_E15difference_typeES2_S2_
DA:93,0
DA:98,0
DA:115,0
DA:119,0
LF:4
LH:0
end_of_record
SF:/usr/include/c++/4.3/bits/stl_iterator_base_types.h
FN:166,_ZSt19__iterator_categoryIPcENSt15iterator_traitsIT_E17iterator_categoryERKS2_
DA:166,0
DA:167,0
LF:2
LH:0
end_of_record
SF:/usr/include/c++/4.3/ext/atomicity.h
FN:67,_ZN9__gnu_cxxL25__exchange_and_add_singleEPii
FN:50,_ZN9__gnu_cxxL18__exchange_and_addEPVii
FN:80,_ZN9__gnu_cxxL27__exchange_and_add_dispatchEPii
DA:50,0
DA:51,0
DA:67,0
DA:69,0
DA:70,0
DA:71,0
DA:80,0
DA:83,0
DA:84,0
DA:86,0
BA:83,0
BA:83,0
LF:10
LH:0
end_of_record
SF:/usr/include/c++/4.3/ext/new_allocator.h
FN:69,_ZN9__gnu_cxx13new_allocatorIcEC2Ev
FN:76,_ZN9__gnu_cxx13new_allocatorIcED2Ev
FN:71,_ZN9__gnu_cxx13new_allocatorIcEC2ERKS1_
DA:69,0
DA:71,0
DA:76,0
LF:3
LH:0
end_of_record
SF:/usr/include/c++/4.3/ext/type_traits.h
FN:154,_ZN9__gnu_cxx17__is_null_pointerIcEEbPT_
DA:154,0
DA:155,0
LF:2
LH:0
end_of_record
SF:/usr/include/c++/4.3/i486-linux-gnu/bits/gthr-default.h
FN:212,_ZL18__gthread_active_pv
DA:212,0
DA:216,0
LF:2
LH:0
end_of_record
SF:/usr/include/c++/4.3/iosfwd
FN:68,_ZNSt15basic_stringbufIcSt11char_traitsIcESaIcEED1Ev
DA:68,0
BA:68,0
BA:68,0
LF:1
LH:0
end_of_record
SF:/usr/include/c++/4.3/iostream
DA:77,1
LF:1
LH:1
end_of_record
SF:/usr/include/c++/4.3/ostream
FN:112,_ZNSolsEPFRSoS_E
FN:365,_ZNSoC2Ev
FN:95,_ZNSoD2Ev
FN:512,_ZStlsISt11char_traitsIcEERSt13basic_ostreamIcT_ES5_PKc
FN:195,_ZNSolsEj
FN:566,_ZSt5flushIcSt11char_traitsIcEERSt13basic_ostreamIT_T0_ES6_
FN:545,_ZSt4endlIcSt11char_traitsIcEERSt13basic_ostreamIT_T0_ES6_
DA:95,0
DA:112,0
DA:117,0
DA:195,0
DA:199,0
DA:365,0
DA:366,0
DA:512,0
DA:514,0
DA:515,0
DA:517,0
DA:519,0
DA:545,0
DA:546,0
DA:566,0
DA:567,0
BA:95,0
BA:95,0
BA:95,0
BA:95,0
BA:514,0
BA:514,0
LF:16
LH:0
end_of_record
SF:/usr/include/c++/4.3/sstream
FN:96,_ZNSt15basic_stringbufIcSt11char_traitsIcESaIcEEC1ESt13_Ios_Openmode
FN:402,_ZNSt19basic_ostringstreamIcSt11char_traitsIcESaIcEEC1ESt13_Ios_Openmode
FN:431,_ZNSt19basic_ostringstreamIcSt11char_traitsIcESaIcEED1Ev
FN:124,_ZNKSt15basic_stringbufIcSt11char_traitsIcESaIcEE3strEv
FN:450,_ZNKSt19basic_ostringstreamIcSt11char_traitsIcESaIcEE3strEv
DA:96,0
DA:97,0
DA:98,0
DA:124,0
DA:126,0
DA:127,0
DA:130,0
DA:131,0
DA:133,0
DA:136,0
DA:137,0
DA:402,0
DA:403,0
DA:404,0
DA:431,0
DA:432,0
DA:450,0
DA:451,0
BA:127,0
BA:127,0
BA:130,0
BA:130,0
BA:432,0
BA:432,0
BA:432,0
BA:432,0
BA:432,0
BA:432,0
LF:18
LH:0
end_of_record
SF:/usr/include/c++/4.3/streambuf
FN:513,_ZNKSt15basic_streambufIcSt11char_traitsIcEE4pptrEv
FN:469,_ZNKSt15basic_streambufIcSt11char_traitsIcEE5egptrEv
FN:510,_ZNKSt15basic_streambufIcSt11char_traitsIcEE5pbaseEv
FN:444,_ZNSt15basic_streambufIcSt11char_traitsIcEEC2Ev
FN:197,_ZNSt15basic_streambufIcSt11char_traitsIcEED2Ev
DA:197,0
DA:198,0
DA:444,0
DA:447,0
DA:448,0
DA:469,0
DA:510,0
DA:513,0
BA:198,0
BA:198,0
LF:8
LH:0
end_of_record
TN:
SF:/home/mornfall/dev/pkg/ept-work/wibble/commandline/core.h
FN:21,_ZNK6wibble9exception9BadOption4typeEv
FN:52,_ZN6wibble11commandline7ManagedC2Ev
FN:30,_ZN6wibble11commandline7ArgListC1Ev
FN:63,_ZN6wibble11commandline13MemoryManagerC1Ev
FN:54,_ZN6wibble11commandline7ManagedD0Ev
FN:54,_ZN6wibble11commandline7ManagedD1Ev
FN:54,_ZN6wibble11commandline7ManagedD2Ev
FN:68,_ZN6wibble11commandline13MemoryManagerD1Ev
FN:22,_ZNK6wibble9exception9BadOption4descEv
FN:66,_ZN6wibble11commandline13MemoryManager10addManagedEPNS0_7ManagedE
FN:76,_ZN6wibble11commandline13MemoryManager3addINS0_12SingleOptionINS0_6StringEEEEEPT_S7_
FN:76,_ZN6wibble11commandline13MemoryManager3addINS0_6EngineEEEPT_S5_
FN:76,_ZN6wibble11commandline13MemoryManager3addINS0_11OptionGroupEEEPT_S5_
FN:76,_ZN6wibble11commandline13MemoryManager3addINS0_10BoolOptionEEEPT_S5_
FN:30,_ZN6wibble11commandline7ArgListD1Ev
FN:34,_ZN6wibble11commandline7ArgList15eraseAndAdvanceERSt14_List_iteratorISsE
FN:17,_ZN6wibble9exception9BadOptionC1ERKSsS3_
FN:19,_ZN6wibble9exception9BadOptionD0Ev
FN:19,_ZN6wibble9exception9BadOptionD1Ev
DA:17,0
DA:18,0
DA:19,0
DA:21,0
DA:22,0
DA:30,0
DA:34,0
DA:36,0
DA:37,0
DA:38,0
DA:39,0
DA:40,0
DA:41,0
DA:42,0
DA:52,0
DA:54,0
DA:63,0
DA:66,0
DA:68,0
DA:70,0
DA:72,0
DA:73,0
DA:76,0
BA:19,0
BA:19,0
BA:19,0
BA:19,0
BA:36,0
BA:36,0
BA:54,0
BA:54,0
BA:54,0
BA:54,0
BA:54,0
BA:54,0
BA:70,0
BA:70,0
BA:72,0
BA:72,0
LF:23
LH:0
end_of_record
SF:/home/mornfall/dev/pkg/ept-work/wibble/commandline/doc.h
FN:21,_ZN6wibble11commandline8DocMakerC2ERKSsS3_
FN:31,_ZN6wibble11commandline4HelpC1ERKSsS3_
FN:15,_ZN6wibble11commandline8DocMakerD2Ev
FN:26,_ZN6wibble11commandline4HelpD1Ev
DA:15,1
DA:21,1
DA:22,1
DA:26,1
DA:31,1
DA:32,1
LF:6
LH:6
end_of_record
SF:/home/mornfall/dev/pkg/ept-work/wibble/commandline/engine.h
FN:106,_ZNK6wibble11commandline6Engine4nameEv
FN:150,_ZN6wibble11commandline6Engine11createGroupERKSs
FN:160,_ZN6wibble11commandline6Engine8addGroupERKSs
FN:101,_ZN6wibble11commandline6EngineC2EPNS0_13MemoryManagerERKSsS5_S5_S5_
FN:39,_ZN6wibble11commandline6EngineD0Ev
FN:39,_ZN6wibble11commandline6EngineD1Ev
FN:39,_ZN6wibble11commandline6EngineD2Ev
FN:101,_ZN6wibble11commandline6EngineC1EPNS0_13MemoryManagerERKSsS5_S5_S5_
FN:171,_ZN6wibble11commandline6Engine12createEngineERKSsS3_S3_S3_
FN:184,_ZN6wibble11commandline6Engine9addEngineERKSsS3_S3_S3_
DA:39,0
DA:101,0
DA:103,0
DA:106,1
DA:150,0
DA:152,0
DA:153,0
DA:154,0
DA:160,0
DA:162,0
DA:171,0
DA:173,0
DA:174,0
DA:175,0
DA:184,0
DA:186,0
BA:39,0
BA:39,0
BA:39,0
BA:39,0
BA:39,0
BA:39,0
BA:153,0
BA:153,0
BA:174,0
BA:174,0
LF:16
LH:1
end_of_record
SF:/home/mornfall/dev/pkg/ept-work/wibble/commandline/options.h
FN:135,_ZN6wibble11commandline10BoolOption5parseERNS0_7ArgListESt14_List_iteratorISsE
FN:136,_ZN6wibble11commandline10BoolOption5parseERKSs
FN:287,_ZN6wibble11commandline11OptionGroupC1EPNS0_13MemoryManagerERKSs
FN:100,_ZN6wibble11commandline6Option8addAliasEc
FN:291,_ZN6wibble11commandline11OptionGroup3addEPNS0_6OptionE
FN:177,_ZN6wibble11commandline12SingleOptionINS0_6StringEE5parseERKSs
FN:168,_ZN6wibble11commandline12SingleOptionINS0_6StringEE5parseERNS0_7ArgListESt14_List_iteratorISsE
FN:64,_ZN6wibble11commandline6OptionC2ERKSscS3_S3_S3_
FN:132,_ZN6wibble11commandline10BoolOptionC1ERKSscS3_S3_S3_
FN:308,_ZN6wibble11commandline11OptionGroup6createINS0_10BoolOptionEEEPT_RKSscS7_S7_S7_
FN:323,_ZN6wibble11commandline11OptionGroup3addINS0_10BoolOptionEEEPT_RKSscS7_S7_S7_
FN:95,_ZN6wibble11commandline6OptionD0Ev
FN:95,_ZN6wibble11commandline6OptionD1Ev
FN:95,_ZN6wibble11commandline6OptionD2Ev
FN:122,_ZN6wibble11commandline10BoolOptionD0Ev
FN:122,_ZN6wibble11commandline10BoolOptionD1Ev
FN:161,_ZN6wibble11commandline12SingleOptionINS0_6StringEEC1ERKSscS5_S5_S5_
FN:308,_ZN6wibble11commandline11OptionGroup6createINS0_12SingleOptionINS0_6StringEEEEEPT_RKSscS9_S9_S9_
FN:323,_ZN6wibble11commandline11OptionGroup3addINS0_12SingleOptionINS0_6StringEEEEEPT_RKSscS9_S9_S9_
FN:148,_ZN6wibble11commandline12SingleOptionINS0_6StringEED0Ev
FN:148,_ZN6wibble11commandline12SingleOptionINS0_6StringEED1Ev
FN:283,_ZN6wibble11commandline11OptionGroupD0Ev
FN:283,_ZN6wibble11commandline11OptionGroupD1Ev
DA:64,0
DA:65,0
DA:67,0
DA:68,0
DA:69,0
DA:70,0
DA:71,0
DA:95,0
DA:100,1
DA:122,0
DA:132,0
DA:133,0
DA:135,0
DA:136,0
DA:148,0
DA:161,0
DA:162,0
DA:164,0
DA:165,0
DA:166,0
DA:168,0
DA:170,0
DA:171,0
DA:172,0
DA:173,0
DA:175,0
DA:177,0
DA:179,0
DA:180,0
DA:181,0
DA:283,0
DA:287,0
DA:288,0
DA:291,0
DA:308,0
DA:310,0
DA:311,0
DA:312,0
DA:323,0
DA:325,0
DA:326,0
DA:327,0
BA:67,0
BA:67,0
BA:69,0
BA:69,0
BA:95,0
BA:95,0
BA:95,0
BA:95,0
BA:95,0
BA:95,0
BA:122,0
BA:122,0
BA:122,0
BA:122,0
BA:148,0
BA:148,0
BA:148,0
BA:148,0
BA:164,0
BA:164,0
BA:170,0
BA:170,0
BA:283,0
BA:283,0
BA:283,0
BA:283,0
BA:311,0
BA:311,0
BA:311,0
BA:311,0
LF:42
LH:1
end_of_record
SF:/home/mornfall/dev/pkg/ept-work/wibble/commandline/parser.h
FN:24,_ZN6wibble11commandline6ParserC2ERKSsS3_S3_S3_
FN:14,_ZN6wibble11commandline6ParserD0Ev
FN:14,_ZN6wibble11commandline6ParserD1Ev
FN:14,_ZN6wibble11commandline6ParserD2Ev
FN:58,_ZN6wibble11commandline14StandardParserD0Ev
FN:58,_ZN6wibble11commandline14StandardParserD1Ev
FN:63,_ZN6wibble11commandline14StandardParserC2ERKSsS3_
FN:58,_ZN6wibble11commandline14StandardParserD2Ev
FN:98,_ZN6wibble11commandline25StandardParserWithManpageC2ERKSsS3_iS3_
FN:88,_ZN6wibble11commandline25StandardParserWithManpageD0Ev
FN:88,_ZN6wibble11commandline25StandardParserWithManpageD1Ev
FN:88,_ZN6wibble11commandline25StandardParserWithManpageD2Ev
FN:116,_ZN6wibble11commandline34StandardParserWithMandatoryCommandD0Ev
FN:116,_ZN6wibble11commandline34StandardParserWithMandatoryCommandD1Ev
FN:122,_ZN6wibble11commandline34StandardParserWithMandatoryCommandC1ERKSsS3_iS3_
DA:14,1
DA:24,1
DA:25,1
DA:58,1
DA:63,1
DA:64,1
DA:66,1
DA:68,2
DA:69,1
DA:71,1
DA:72,1
DA:88,1
DA:98,1
DA:100,1
DA:103,1
DA:104,1
DA:116,1
DA:122,1
DA:123,1
DA:128,1
DA:129,1
BA:14,0
BA:14,0
BA:14,0
BA:14,0
BA:14,1
BA:14,2
BA:58,0
BA:58,0
BA:58,0
BA:58,0
BA:58,1
BA:58,2
BA:88,0
BA:88,0
BA:88,0
BA:88,0
BA:88,1
BA:88,2
BA:116,0
BA:116,0
BA:116,1
BA:116,2
LF:21
LH:21
end_of_record
SF:/home/mornfall/dev/pkg/ept-work/wibble/exception.h
FN:190,_ZNK6wibble9exception7Generic4typeEv
FN:263,_ZNK6wibble9exception11Consistency4typeEv
FN:109,_ZN6wibble9exception10AddContext7contextEv
FN:213,_ZNK6wibble9exception7Generic4whatEv
FN:265,_ZNK6wibble9exception11Consistency4descEv
FN:193,_ZNK6wibble9exception7Generic4descEv
FN:137,_ZN6wibble9exception7ContextD2Ev
FN:187,_ZN6wibble9exception7GenericD0Ev
FN:187,_ZN6wibble9exception7GenericD1Ev
FN:117,_ZN6wibble9exception10AddContext11copyContextISt20back_insert_iteratorISt6vectorISsSaISsEEEEEvT_
FN:153,_ZN6wibble9exception7Context10addContextERKSs
FN:147,_ZN6wibble9exception7ContextC2ERKSs
FN:186,_ZN6wibble9exception7GenericC2ERKSs
FN:187,_ZN6wibble9exception7GenericD2Ev
FN:259,_ZN6wibble9exception11ConsistencyC2ERKSsS3_
FN:261,_ZN6wibble9exception11ConsistencyD0Ev
FN:261,_ZN6wibble9exception11ConsistencyD1Ev
FN:261,_ZN6wibble9exception11ConsistencyD2Ev
FN:154,_ZNK6wibble9exception7Context13formatContextEv
FN:205,_ZNK6wibble9exception7Generic8fullInfoEv
DA:109,0
DA:110,0
DA:111,0
DA:112,0
DA:113,0
DA:117,0
DA:118,0
DA:119,0
DA:137,0
DA:147,0
DA:148,0
DA:149,0
DA:150,0
DA:151,0
DA:153,0
DA:154,0
DA:155,0
DA:156,0
DA:157,0
DA:159,0
DA:161,0
DA:162,0
DA:163,0
DA:186,0
DA:187,0
DA:190,0
DA:193,0
DA:194,0
DA:195,0
DA:205,0
DA:206,0
DA:207,0
DA:209,0
DA:210,0
DA:213,0
DA:259,0
DA:260,0
DA:261,0
DA:263,0
DA:265,0
DA:266,0
DA:267,0
DA:268,0
DA:269,0
BA:110,0
BA:110,0
BA:156,0
BA:156,0
BA:187,0
BA:187,0
BA:187,0
BA:187,0
BA:187,0
BA:187,0
BA:207,0
BA:207,0
BA:261,0
BA:261,0
BA:261,0
BA:261,0
BA:261,0
BA:261,0
BA:267,0
BA:267,0
LF:44
LH:0
end_of_record
SF:/home/mornfall/dev/pkg/ept-work/wibble/commandline/doc.test.h
FN:14,_ZN18TestCommandlineDoc5basicEv
DA:14,1
DA:15,1
DA:21,2
DA:22,1
DA:23,2
DA:25,2
DA:27,2
DA:32,1
LF:8
LH:8
end_of_record
SF:/srv/build/pkg/ept-work/default/wibble/wibble-test-generated-_home_mornfall_dev_pkg_ept-work_wibble_commandline_doc.cpp
FN:3,_Z41__static_initialization_and_destruction_0ii
FN:3,_GLOBAL__I__Z24run_CommandlineDoc_basicv
FN:3,_Z24run_CommandlineDoc_basicv
DA:3,4
BA:3,2
BA:3,1
BA:3,2
BA:3,1
LF:1
LH:1
end_of_record
SF:/usr/include/c++/4.3/bits/allocator.h
FN:98,_ZNSaIcEC2Ev
FN:98,_ZNSaIcEC1Ev
FN:106,_ZNSaIcED2Ev
FN:106,_ZNSaIcED1Ev
FN:106,_ZNSaISt13_Rb_tree_nodeIPN6wibble11commandline7ManagedEEED2Ev
FN:106,_ZNSaISt13_Rb_tree_nodeISt4pairIKcPN6wibble11commandline6OptionEEEED2Ev
FN:106,_ZNSaISt13_Rb_tree_nodeISt4pairIKSsPN6wibble11commandline6OptionEEEED2Ev
FN:106,_ZNSaISt13_Rb_tree_nodeISt4pairIKSsPN6wibble11commandline6EngineEEEED2Ev
FN:106,_ZNSaISt10_List_nodeISsEED2Ev
FN:100,_ZNSaIcEC2ERKS_
FN:100,_ZNSaIcEC1ERKS_
FN:106,_ZNSaISsED2Ev
FN:106,_ZNSaISsED1Ev
FN:106,_ZNSaIPN6wibble11commandline6OptionEED2Ev
FN:106,_ZNSaIPN6wibble11commandline11OptionGroupEED2Ev
FN:106,_ZNSaIPN6wibble11commandline6EngineEED2Ev
FN:98,_ZNSaISsEC2Ev
FN:104,_ZNSaISsEC1ISt10_List_nodeISsEEERKSaIT_E
FN:106,_ZNSaIPN6wibble11commandline7ManagedEED1Ev
FN:98,_ZNSaIPN6wibble11commandline6OptionEEC2Ev
FN:98,_ZNSaIPN6wibble11commandline11OptionGroupEEC2Ev
FN:98,_ZNSaIPN6wibble11commandline6EngineEEC2Ev
FN:98,_ZNSaISt13_Rb_tree_nodeISt4pairIKcPN6wibble11commandline6OptionEEEEC2Ev
FN:106,_ZNSaISt4pairIKcPN6wibble11commandline6OptionEEED1Ev
FN:98,_ZNSaISt13_Rb_tree_nodeISt4pairIKSsPN6wibble11commandline6OptionEEEEC2Ev
FN:106,_ZNSaISt4pairIKSsPN6wibble11commandline6OptionEEED1Ev
FN:98,_ZNSaISt13_Rb_tree_nodeISt4pairIKSsPN6wibble11commandline6EngineEEEEC2Ev
FN:106,_ZNSaISt4pairIKSsPN6wibble11commandline6EngineEEED1Ev
FN:98,_ZNSaISt10_List_nodeISsEEC2Ev
FN:98,_ZNSaISt13_Rb_tree_nodeIPN6wibble11commandline7ManagedEEEC2Ev
FN:104,_ZNSaIPN6wibble11commandline7ManagedEEC1ISt13_Rb_tree_nodeIS2_EEERKSaIT_E
FN:104,_ZNSaISt4pairIKcPN6wibble11commandline6OptionEEEC1ISt13_Rb_tree_nodeIS5_EEERKSaIT_E
FN:104,_ZNSaISt4pairIKSsPN6wibble11commandline6OptionEEEC1ISt13_Rb_tree_nodeIS5_EEERKSaIT_E
FN:104,_ZNSaISt4pairIKSsPN6wibble11commandline6EngineEEEC1ISt13_Rb_tree_nodeIS5_EEERKSaIT_E
FN:118,_ZSteqIcEbRKSaIT_ES3_
DA:98,0
DA:100,0
DA:101,0
DA:104,0
DA:106,0
DA:118,0
DA:119,0
LF:7
LH:0
end_of_record
SF:/usr/include/c++/4.3/bits/basic_ios.h
FN:131,_ZNKSt9basic_iosIcSt11char_traitsIcEE7rdstateEv
FN:151,_ZNSt9basic_iosIcSt11char_traitsIcEE8setstateESt12_Ios_Iostate
FN:454,_ZNSt9basic_iosIcSt11char_traitsIcEEC2Ev
FN:276,_ZNSt9basic_iosIcSt11char_traitsIcEED2Ev
DA:131,0
DA:132,0
DA:151,0
DA:152,0
DA:276,0
DA:454,0
DA:456,0
DA:457,0
BA:276,0
BA:276,0
LF:8
LH:0
end_of_record
SF:/usr/include/c++/4.3/bits/basic_string.h
FN:277,_ZNKSs7_M_dataEv
FN:1534,_ZNKSs5c_strEv
FN:258,_ZNSs12_Alloc_hiderD1Ev
FN:285,_ZNKSs6_M_repEv
FN:606,_ZNKSs4sizeEv
FN:686,_ZNKSs5emptyEv
FN:612,_ZNKSs6lengthEv
FN:214,_ZNSs4_Rep10_M_refdataEv
FN:1544,_ZNKSs4dataEv
FN:178,_ZNSs4_Rep12_S_empty_repEv
FN:411,_ZNSs12_S_empty_repEv
FN:259,_ZNSs12_Alloc_hiderC1EPcRKSaIcE
FN:2067,_ZNSsC1Ev
FN:1551,_ZNKSs13get_allocatorEv
FN:200,_ZNSs4_Rep15_M_set_sharableEv
FN:204,_ZNSs4_Rep26_M_set_length_and_sharableEj
FN:835,_ZNSs6appendEPKc
FN:501,_ZNSsaSERKSs
FN:2421,_ZStlsIcSt11char_traitsIcESaIcEERSt13basic_ostreamIT_T0_ES7_RKSbIS4_S5_T1_E
FN:339,_ZNSs7_M_copyEPcPKcj
FN:384,_ZNSs13_S_copy_charsEPcS_S_
FN:1462,_ZNSs16_S_construct_auxIPcEES0_T_S1_RKSaIcESt12__false_type
FN:1478,_ZNSs12_S_constructIPcEES0_T_S1_RKSaIcE
FN:928,_ZNSs6assignEPKc
FN:509,_ZNSsaSEPKc
FN:229,_ZNSs4_Rep10_M_disposeERKSaIcE
FN:493,_ZNSsD1Ev
FN:2121,_ZStplIcSt11char_traitsIcESaIcEESbIT_T0_T1_ERKS6_PKS3_
FN:2084,_ZStplIcSt11char_traitsIcESaIcEESbIT_T0_T1_ERKS6_S8_
DA:178,0
DA:183,0
DA:184,0
DA:200,0
DA:201,0
DA:204,0
DA:206,0
DA:207,0
DA:208,0
DA:211,0
DA:214,0
DA:215,0
DA:229,0
DA:232,0
DA:234,0
DA:236,0
DA:237,0
DA:258,0
DA:259,0
DA:260,0
DA:277,0
DA:278,0
DA:285,0
DA:286,0
DA:339,0
DA:341,0
DA:342,0
DA:344,0
DA:345,0
DA:384,0
DA:385,0
DA:411,0
DA:412,0
DA:493,0
DA:494,0
DA:501,0
DA:502,0
DA:509,0
DA:510,0
DA:606,0
DA:607,0
DA:612,0
DA:613,0
DA:686,0
DA:687,0
DA:835,0
DA:838,0
DA:928,0
DA:931,0
DA:1462,0
DA:1465,0
DA:1478,0
DA:1481,0
DA:1534,0
DA:1535,0
DA:1544,0
DA:1545,0
DA:1551,0
DA:1552,0
DA:2067,0
DA:2069,0
DA:2084,0
DA:2086,0
DA:2087,0
DA:2088,0
DA:2121,0
DA:2123,0
DA:2124,0
DA:2125,0
DA:2421,0
DA:2425,0
BA:232,0
BA:232,0
BA:234,0
BA:234,0
BA:341,0
BA:341,0
LF:71
LH:0
end_of_record
SF:/usr/include/c++/4.3/bits/basic_string.tcc
FN:130,_ZNSs12_S_constructIPcEES0_T_S1_RKSaIcESt20forward_iterator_tag
FN:234,_ZNSsC1IPcEET_S1_RKSaIcE
FN:668,_ZStplIcSt11char_traitsIcESaIcEESbIT_T0_T1_EPKS3_RKS6_
DA:130,0
DA:133,0
DA:134,0
DA:137,0
DA:139,0
DA:142,0
DA:144,0
DA:146,0
DA:147,0
DA:149,0
DA:150,0
DA:152,0
DA:153,0
DA:234,0
DA:235,0
DA:236,0
DA:668,1
DA:673,1
DA:674,1
DA:675,1
DA:676,1
DA:677,1
DA:678,0
BA:133,0
BA:133,0
BA:133,0
BA:133,0
BA:133,0
BA:133,0
BA:133,0
BA:133,0
BA:137,0
BA:137,0
BA:137,0
BA:137,0
BA:137,0
BA:137,0
LF:23
LH:6
end_of_record
SF:/usr/include/c++/4.3/bits/char_traits.h
FN:245,_ZNSt11char_traitsIcE6assignERcRKc
FN:261,_ZNSt11char_traitsIcE6lengthEPKc
FN:273,_ZNSt11char_traitsIcE4copyEPcPKcj
DA:245,0
DA:246,0
DA:261,1
DA:262,1
DA:273,0
DA:274,0
LF:6
LH:2
end_of_record
SF:/usr/include/c++/4.3/bits/ios_base.h
FN:125,_ZStorSt13_Ios_OpenmodeS_
FN:163,_ZStorSt12_Ios_IostateS_
DA:125,0
DA:126,0
DA:163,0
DA:164,0
LF:4
LH:0
end_of_record
SF:/usr/include/c++/4.3/bits/list.tcc
FN:70,_ZNSt10_List_baseISsSaISsEE8_M_clearEv
FN:109,_ZNSt4listISsSaISsEE5eraseESt14_List_iteratorISsE
DA:70,0
DA:73,0
DA:74,0
DA:76,0
DA:77,0
DA:78,0
DA:79,0
DA:81,0
DA:109,0
DA:111,0
DA:112,0
BA:74,0
BA:74,0
LF:11
LH:0
end_of_record
SF:/usr/include/c++/4.3/bits/stl_algobase.h
FN:286,_ZNSt12__miter_baseIN9__gnu_cxx17__normal_iteratorIPKSsSt6vectorISsSaISsEEEELb0EE3__bES7_
FN:286,_ZNSt12__miter_baseIN9__gnu_cxx17__normal_iteratorIPSsSt6vectorISsSaISsEEEELb0EE3__bES6_
FN:276,_ZNSt12__niter_baseIN9__gnu_cxx17__normal_iteratorIPKSsSt6vectorISsSaISsEEEELb1EE3__bES7_
FN:268,_ZNSt12__niter_baseISt16ostream_iteratorISscSt11char_traitsIcEELb0EE3__bES3_
FN:286,_ZNSt12__miter_baseIPSsLb0EE3__bES0_
FN:210,_ZSt3maxIjERKT_S2_S2_
FN:276,_ZNSt12__niter_baseIN9__gnu_cxx17__normal_iteratorIPSsSt6vectorISsSaISsEEEELb1EE3__bES6_
FN:268,_ZNSt12__niter_baseISt20back_insert_iteratorISt6vectorISsSaISsEEELb0EE3__bES4_
FN:286,_ZNSt12__miter_baseIPcLb0EE3__bES0_
FN:286,_ZNSt12__miter_baseIPPN6wibble11commandline6OptionELb0EE3__bES4_
FN:268,_ZNSt12__niter_baseIPSsLb0EE3__bES0_
FN:268,_ZNSt12__niter_baseIPcLb0EE3__bES0_
FN:268,_ZNSt12__niter_baseIPPN6wibble11commandline6OptionELb0EE3__bES4_
FN:569,_ZNSt20__copy_move_backwardILb0ELb1ESt26random_access_iterator_tagE13__copy_move_bIcEEPT_PKS3_S6_S4_
FN:579,_ZSt22__copy_move_backward_aILb0EPcS0_ET1_T0_S2_S1_
FN:597,_ZSt23__copy_move_backward_a2ILb0EPcS0_ET1_T0_S2_S1_
FN:624,_ZSt13copy_backwardIPcS0_ET0_T_S2_S1_
FN:375,_ZNSt11__copy_moveILb0ELb1ESt26random_access_iterator_tagE8__copy_mIcEEPT_PKS3_S6_S4_
FN:385,_ZSt13__copy_move_aILb0EPcS0_ET1_T0_S2_S1_
FN:430,_ZSt14__copy_move_a2ILb0EPcS0_ET1_T0_S2_S1_
FN:456,_ZSt4copyIPcS0_ET0_T_S2_S1_
FN:569,_ZNSt20__copy_move_backwardILb0ELb1ESt26random_access_iterator_tagE13__copy_move_bIPN6wibble11commandline6OptionEEEPT_PKS7_SA_S8_
FN:579,_ZSt22__copy_move_backward_aILb0EPPN6wibble11commandline6OptionES4_ET1_T0_S6_S5_
FN:597,_ZSt23__copy_move_backward_a2ILb0EPPN6wibble11commandline6OptionES4_ET1_T0_S6_S5_
FN:624,_ZSt13copy_backwardIPPN6wibble11commandline6OptionES4_ET0_T_S6_S5_
FN:375,_ZNSt11__copy_moveILb0ELb1ESt26random_access_iterator_tagE8__copy_mIPN6wibble11commandline6OptionEEEPT_PKS7_SA_S8_
FN:385,_ZSt13__copy_move_aILb0EPPN6wibble11commandline6OptionES4_ET1_T0_S6_S5_
FN:430,_ZSt14__copy_move_a2ILb0EPPN6wibble11commandline6OptionES4_ET1_T0_S6_S5_
FN:456,_ZSt4copyIPPN6wibble11commandline6OptionES4_ET0_T_S6_S5_
FN:539,_ZNSt20__copy_move_backwardILb0ELb0ESt26random_access_iterator_tagE13__copy_move_bIPSsS3_EET0_T_S5_S4_
FN:579,_ZSt22__copy_move_backward_aILb0EPSsS0_ET1_T0_S2_S1_
FN:597,_ZSt23__copy_move_backward_a2ILb0EPSsS0_ET1_T0_S2_S1_
FN:624,_ZSt13copy_backwardIPSsS0_ET0_T_S2_S1_
FN:337,_ZNSt11__copy_moveILb0ELb0ESt26random_access_iterator_tagE8__copy_mIPKSsSt16ostream_iteratorISscSt11char_traitsIcEEEET0_T_SA_S9_
FN:385,_ZSt13__copy_move_aILb0EPKSsSt16ostream_iteratorISscSt11char_traitsIcEEET1_T0_S7_S6_
FN:430,_ZSt14__copy_move_a2ILb0EN9__gnu_cxx17__normal_iteratorIPKSsSt6vectorISsSaISsEEEESt16ostream_iteratorISscSt11char_traitsIcEEET1_T0_SD_SC_
FN:456,_ZSt4copyIN9__gnu_cxx17__normal_iteratorIPKSsSt6vectorISsSaISsEEEESt16ostream_iteratorISscSt11char_traitsIcEEET0_T_SD_SC_
FN:337,_ZNSt11__copy_moveILb0ELb0ESt26random_access_iterator_tagE8__copy_mIPSsSt20back_insert_iteratorISt6vectorISsSaISsEEEEET0_T_SA_S9_
FN:385,_ZSt13__copy_move_aILb0EPSsSt20back_insert_iteratorISt6vectorISsSaISsEEEET1_T0_S7_S6_
FN:430,_ZSt14__copy_move_a2ILb0EN9__gnu_cxx17__normal_iteratorIPSsSt6vectorISsSaISsEEEESt20back_insert_iteratorIS5_EET1_T0_SA_S9_
FN:456,_ZSt4copyIN9__gnu_cxx17__normal_iteratorIPSsSt6vectorISsSaISsEEEESt20back_insert_iteratorIS5_EET0_T_SA_S9_
DA:210,0
DA:215,0
DA:216,0
DA:217,0
DA:268,0
DA:269,0
DA:276,0
DA:277,0
DA:286,0
DA:287,0
DA:337,0
DA:340,0
DA:342,0
DA:343,0
DA:344,0
DA:346,0
DA:375,0
DA:377,0
DA:379,0
DA:385,0
DA:393,0
DA:396,0
DA:430,0
DA:435,0
DA:456,0
DA:466,0
DA:539,0
DA:542,0
DA:543,0
DA:544,0
DA:569,0
DA:571,0
DA:572,0
DA:573,0
DA:579,0
DA:587,0
DA:592,0
DA:597,0
DA:602,0
DA:624,0
DA:636,0
BA:215,0
BA:215,0
BA:340,0
BA:340,0
BA:340,0
BA:340,0
BA:542,0
BA:542,0
LF:41
LH:0
end_of_record
SF:/usr/include/c++/4.3/bits/stl_construct.h
FN:97,_ZSt8_DestroyIPcEvT_S1_
FN:126,_ZSt8_DestroyIPccEvT_S1_RSaIT0_E
FN:97,_ZSt8_DestroyIPPN6wibble11commandline6OptionEEvT_S5_
FN:126,_ZSt8_DestroyIPPN6wibble11commandline6OptionES3_EvT_S5_RSaIT0_E
FN:97,_ZSt8_DestroyIPPN6wibble11commandline11OptionGroupEEvT_S5_
FN:126,_ZSt8_DestroyIPPN6wibble11commandline11OptionGroupES3_EvT_S5_RSaIT0_E
FN:97,_ZSt8_DestroyIPPN6wibble11commandline6EngineEEvT_S5_
FN:126,_ZSt8_DestroyIPPN6wibble11commandline6EngineES3_EvT_S5_RSaIT0_E
FN:87,_ZSt8_DestroyISsEvPT_
FN:97,_ZSt8_DestroyIPSsEvT_S1_
FN:126,_ZSt8_DestroyIPSsSsEvT_S1_RSaIT0_E
DA:87,0
DA:88,0
DA:97,0
DA:101,0
DA:103,0
DA:104,0
DA:126,0
DA:128,0
DA:129,0
BA:101,0
BA:101,0
LF:9
LH:0
end_of_record
SF:/usr/include/c++/4.3/bits/stl_function.h
FN:469,_ZNKSt9_IdentityIPN6wibble11commandline7ManagedEEclERKS3_
FN:229,_ZNKSt4lessIPN6wibble11commandline7ManagedEEclERKS3_S6_
DA:229,0
DA:230,0
DA:469,0
DA:470,0
LF:4
LH:0
end_of_record
SF:/usr/include/c++/4.3/bits/stl_iterator.h
FN:695,_ZNK9__gnu_cxx17__normal_iteratorIPSsSt6vectorISsSaISsEEEdeEv
FN:398,_ZNSt20back_insert_iteratorISt6vectorISsSaISsEEEC1ERS2_
FN:456,_ZSt13back_inserterISt6vectorISsSaISsEEESt20back_insert_iteratorIT_ERS4_
FN:683,_ZN9__gnu_cxx17__normal_iteratorIPKSsSt6vectorISsSaISsEEEC1ERKS2_
FN:747,_ZNK9__gnu_cxx17__normal_iteratorIPSsSt6vectorISsSaISsEEE4baseEv
FN:683,_ZN9__gnu_cxx17__normal_iteratorIPSsSt6vectorISsSaISsEEEC1ERKS1_
FN:747,_ZNK9__gnu_cxx17__normal_iteratorIPKSsSt6vectorISsSaISsEEE4baseEv
FN:769,_ZN9__gnu_cxxeqIPKSsSt6vectorISsSaISsEEEEbRKNS_17__normal_iteratorIT_T0_EESB_
FN:747,_ZNK9__gnu_cxx17__normal_iteratorIPcSt6vectorIcSaIcEEE4baseEv
FN:695,_ZNK9__gnu_cxx17__normal_iteratorIPcSt6vectorIcSaIcEEEdeEv
FN:683,_ZN9__gnu_cxx17__normal_iteratorIPcSt6vectorIcSaIcEEEC1ERKS1_
FN:747,_ZNK9__gnu_cxx17__normal_iteratorIPPN6wibble11commandline6OptionESt6vectorIS4_SaIS4_EEE4baseEv
FN:695,_ZNK9__gnu_cxx17__normal_iteratorIPPN6wibble11commandline6OptionESt6vectorIS4_SaIS4_EEEdeEv
FN:683,_ZN9__gnu_cxx17__normal_iteratorIPPN6wibble11commandline6OptionESt6vectorIS4_SaIS4_EEEC1ERKS5_
FN:429,_ZNSt20back_insert_iteratorISt6vectorISsSaISsEEEdeEv
FN:434,_ZNSt20back_insert_iteratorISt6vectorISsSaISsEEEppEv
FN:412,_ZNSt20back_insert_iteratorISt6vectorISsSaISsEEEaSERKSs
DA:398,0
DA:412,0
DA:414,0
DA:415,0
DA:429,0
DA:430,0
DA:434,0
DA:435,0
DA:456,0
DA:457,0
DA:683,0
DA:695,0
DA:696,0
DA:747,0
DA:748,0
DA:769,0
DA:770,0
LF:17
LH:0
end_of_record
SF:/usr/include/c++/4.3/bits/stl_iterator_base_funcs.h
FN:93,_ZSt10__distanceIPcENSt15iterator_traitsIT_E15difference_typeES2_S2_St26random_access_iterator_tag
FN:115,_ZSt8distanceIPcENSt15iterator_traitsIT_E15difference_typeES2_S2_
DA:93,0
DA:98,0
DA:115,0
DA:119,0
LF:4
LH:0
end_of_record
SF:/usr/include/c++/4.3/bits/stl_iterator_base_types.h
FN:111,_ZNSt8iteratorISt19output_iterator_tagvvvvEC2Ev
FN:166,_ZSt19__iterator_categoryIPcENSt15iterator_traitsIT_E17iterator_categoryERKS2_
DA:111,0
DA:166,0
DA:167,0
LF:3
LH:0
end_of_record
SF:/usr/include/c++/4.3/bits/stl_list.h
FN:169,_ZNKSt14_List_iteratorISsEeqERKS0_
FN:139,_ZNSt14_List_iteratorISsEppEv
FN:131,_ZNKSt14_List_iteratorISsEdeEv
FN:126,_ZNSt14_List_iteratorISsEC1EPSt15_List_node_base
FN:666,_ZNSt4listISsSaISsEE3endEv
FN:364,_ZNSt10_List_baseISsSaISsEE7_M_initEv
FN:298,_ZNSt10_List_baseISsSaISsEE10_List_implD1Ev
FN:328,_ZNKSt10_List_baseISsSaISsEE21_M_get_Node_allocatorEv
FN:332,_ZNKSt10_List_baseISsSaISsEE19_M_get_Tp_allocatorEv
FN:301,_ZNSt10_List_baseISsSaISsEE10_List_implC1Ev
FN:339,_ZNSt10_List_baseISsSaISsEEC2Ev
FN:498,_ZNSt4listISsSaISsEEC2Ev
FN:317,_ZNSt10_List_baseISsSaISsEE11_M_put_nodeEPSt10_List_nodeISsE
FN:357,_ZNSt10_List_baseISsSaISsEED2Ev
FN:417,_ZNSt4listISsSaISsEED2Ev
FN:1356,_ZNSt4listISsSaISsEE8_M_eraseESt14_List_iteratorISsE
DA:126,0
DA:127,0
DA:131,0
DA:132,0
DA:139,0
DA:141,0
DA:142,0
DA:169,0
DA:170,0
DA:298,0
DA:301,0
DA:302,0
DA:303,0
DA:317,0
DA:318,0
DA:328,0
DA:329,0
DA:332,0
DA:333,0
DA:339,0
DA:340,0
DA:341,0
DA:357,0
DA:358,0
DA:364,0
DA:366,0
DA:367,0
DA:368,0
DA:417,0
DA:498,0
DA:499,0
DA:666,0
DA:667,0
DA:1356,0
DA:1358,0
DA:1359,0
DA:1360,0
DA:1361,0
DA:1362,0
LF:39
LH:0
end_of_record
SF:/usr/include/c++/4.3/bits/stl_map.h
FN:155,_ZNSt3mapIcPN6wibble11commandline6OptionESt4lessIcESaISt4pairIKcS3_EEEC1Ev
FN:155,_ZNSt3mapISsPN6wibble11commandline6OptionESt4lessISsESaISt4pairIKSsS3_EEEC1Ev
FN:155,_ZNSt3mapISsPN6wibble11commandline6EngineESt4lessISsESaISt4pairIKSsS3_EEEC1Ev
FN:92,_ZNSt3mapIcPN6wibble11commandline6OptionESt4lessIcESaISt4pairIKcS3_EEED1Ev
FN:92,_ZNSt3mapISsPN6wibble11commandline6EngineESt4lessISsESaISt4pairIKSsS3_EEED1Ev
FN:92,_ZNSt3mapISsPN6wibble11commandline6OptionESt4lessISsESaISt4pairIKSsS3_EEED1Ev
DA:92,0
DA:155,0
DA:156,0
LF:3
LH:0
end_of_record
SF:/usr/include/c++/4.3/bits/stl_pair.h
FN:88,_ZNSt4pairISt23_Rb_tree_const_iteratorIPN6wibble11commandline7ManagedEEbEC1ERKS5_RKb
FN:88,_ZNSt4pairISt17_Rb_tree_iteratorIPN6wibble11commandline7ManagedEEbEC1ERKS5_RKb
FN:73,_ZNSt4pairIKcPN6wibble11commandline6OptionEED1Ev
FN:73,_ZNSt4pairIKSsPN6wibble11commandline6EngineEED1Ev
FN:73,_ZNSt4pairIKSsPN6wibble11commandline6OptionEED1Ev
DA:73,0
DA:88,0
DA:89,0
LF:3
LH:0
end_of_record
SF:/usr/include/c++/4.3/bits/stl_set.h
FN:261,_ZNKSt3setIPN6wibble11commandline7ManagedESt4lessIS3_ESaIS3_EE5beginEv
FN:270,_ZNKSt3setIPN6wibble11commandline7ManagedESt4lessIS3_ESaIS3_EE3endEv
FN:141,_ZNSt3setIPN6wibble11commandline7ManagedESt4lessIS3_ESaIS3_EEC1Ev
FN:93,_ZNSt3setIPN6wibble11commandline7ManagedESt4lessIS3_ESaIS3_EED1Ev
FN:378,_ZNSt3setIPN6wibble11commandline7ManagedESt4lessIS3_ESaIS3_EE6insertERKS3_
DA:93,0
DA:141,0
DA:142,0
DA:261,0
DA:262,0
DA:270,0
DA:271,0
DA:378,0
DA:381,0
DA:382,0
LF:10
LH:0
end_of_record
SF:/usr/include/c++/4.3/bits/stl_tree.h
FN:289,_ZNKSt23_Rb_tree_const_iteratorIPN6wibble11commandline7ManagedEEneERKS4_
FN:247,_ZNKSt23_Rb_tree_const_iteratorIPN6wibble11commandline7ManagedEEdeEv
FN:243,_ZNSt23_Rb_tree_const_iteratorIPN6wibble11commandline7ManagedEEC1ERKSt17_Rb_tree_iteratorIS3_E
FN:452,_ZNSt8_Rb_treeIPN6wibble11commandline7ManagedES3_St9_IdentityIS3_ESt4lessIS3_ESaIS3_EE8_M_beginEv
FN:452,_ZNSt8_Rb_treeIcSt4pairIKcPN6wibble11commandline6OptionEESt10_Select1stIS6_ESt4lessIcESaIS6_EE8_M_beginEv
FN:452,_ZNSt8_Rb_treeISsSt4pairIKSsPN6wibble11commandline6OptionEESt10_Select1stIS6_ESt4lessISsESaIS6_EE8_M_beginEv
FN:452,_ZNSt8_Rb_treeISsSt4pairIKSsPN6wibble11commandline6EngineEESt10_Select1stIS6_ESt4lessISsESaIS6_EE8_M_beginEv
FN:463,_ZNSt8_Rb_treeIPN6wibble11commandline7ManagedES3_St9_IdentityIS3_ESt4lessIS3_ESaIS3_EE6_M_endEv
FN:487,_ZNSt8_Rb_treeIPN6wibble11commandline7ManagedES3_St9_IdentityIS3_ESt4lessIS3_ESaIS3_EE8_S_rightEPSt18_Rb_tree_node_base
FN:479,_ZNSt8_Rb_treeIPN6wibble11commandline7ManagedES3_St9_IdentityIS3_ESt4lessIS3_ESaIS3_EE7_S_leftEPSt18_Rb_tree_node_base
FN:168,_ZNSt17_Rb_tree_iteratorIPN6wibble11commandline7ManagedEEC1EPSt13_Rb_tree_nodeIS3_E
FN:596,_ZNSt8_Rb_treeIPN6wibble11commandline7ManagedES3_St9_IdentityIS3_ESt4lessIS3_ESaIS3_EE5beginEv
FN:210,_ZNKSt17_Rb_tree_iteratorIPN6wibble11commandline7ManagedEEeqERKS4_
FN:398,_ZNSt8_Rb_treeIPN6wibble11commandline7ManagedES3_St9_IdentityIS3_ESt4lessIS3_ESaIS3_EE13_Rb_tree_implIS7_Lb0EED1Ev
FN:240,_ZNSt23_Rb_tree_const_iteratorIPN6wibble11commandline7ManagedEEC1EPKSt13_Rb_tree_nodeIS3_E
FN:603,_ZNKSt8_Rb_treeIPN6wibble11commandline7ManagedES3_St9_IdentityIS3_ESt4lessIS3_ESaIS3_EE5beginEv
FN:614,_ZNKSt8_Rb_treeIPN6wibble11commandline7ManagedES3_St9_IdentityIS3_ESt4lessIS3_ESaIS3_EE3endEv
FN:398,_ZNSt8_Rb_treeIcSt4pairIKcPN6wibble11commandline6OptionEESt10_Select1stIS6_ESt4lessIcESaIS6_EE13_Rb_tree_implISA_Lb0EED1Ev
FN:487,_ZNSt8_Rb_treeIcSt4pairIKcPN6wibble11commandline6OptionEESt10_Select1stIS6_ESt4lessIcESaIS6_EE8_S_rightEPSt18_Rb_tree_node_base
FN:479,_ZNSt8_Rb_treeIcSt4pairIKcPN6wibble11commandline6OptionEESt10_Select1stIS6_ESt4lessIcESaIS6_EE7_S_leftEPSt18_Rb_tree_node_base
FN:398,_ZNSt8_Rb_treeISsSt4pairIKSsPN6wibble11commandline6OptionEESt10_Select1stIS6_ESt4lessISsESaIS6_EE13_Rb_tree_implISA_Lb0EED1Ev
FN:487,_ZNSt8_Rb_treeISsSt4pairIKSsPN6wibble11commandline6OptionEESt10_Select1stIS6_ESt4lessISsESaIS6_EE8_S_rightEPSt18_Rb_tree_node_base
FN:479,_ZNSt8_Rb_treeISsSt4pairIKSsPN6wibble11commandline6OptionEESt10_Select1stIS6_ESt4lessISsESaIS6_EE7_S_leftEPSt18_Rb_tree_node_base
FN:398,_ZNSt8_Rb_treeISsSt4pairIKSsPN6wibble11commandline6EngineEESt10_Select1stIS6_ESt4lessISsESaIS6_EE13_Rb_tree_implISA_Lb0EED1Ev
FN:487,_ZNSt8_Rb_treeISsSt4pairIKSsPN6wibble11commandline6EngineEESt10_Select1stIS6_ESt4lessISsESaIS6_EE8_S_rightEPSt18_Rb_tree_node_base
FN:479,_ZNSt8_Rb_treeISsSt4pairIKSsPN6wibble11commandline6EngineEESt10_Select1stIS6_ESt4lessISsESaIS6_EE7_S_leftEPSt18_Rb_tree_node_base
FN:471,_ZNSt8_Rb_treeIPN6wibble11commandline7ManagedES3_St9_IdentityIS3_ESt4lessIS3_ESaIS3_EE8_S_valueEPKSt13_Rb_tree_nodeIS3_E
FN:475,_ZNSt8_Rb_treeIPN6wibble11commandline7ManagedES3_St9_IdentityIS3_ESt4lessIS3_ESaIS3_EE6_S_keyEPKSt13_Rb_tree_nodeIS3_E
FN:495,_ZNSt8_Rb_treeIPN6wibble11commandline7ManagedES3_St9_IdentityIS3_ESt4lessIS3_ESaIS3_EE8_S_valueEPKSt18_Rb_tree_node_base
FN:499,_ZNSt8_Rb_treeIPN6wibble11commandline7ManagedES3_St9_IdentityIS3_ESt4lessIS3_ESaIS3_EE6_S_keyEPKSt18_Rb_tree_node_base
FN:415,_ZNSt8_Rb_treeIcSt4pairIKcPN6wibble11commandline6OptionEESt10_Select1stIS6_ESt4lessIcESaIS6_EE13_Rb_tree_implISA_Lb0EE13_M_initializeEv
FN:415,_ZNSt8_Rb_treeISsSt4pairIKSsPN6wibble11commandline6OptionEESt10_Select1stIS6_ESt4lessISsESaIS6_EE13_Rb_tree_implISA_Lb0EE13_M_initializeEv
FN:415,_ZNSt8_Rb_treeISsSt4pairIKSsPN6wibble11commandline6EngineEESt10_Select1stIS6_ESt4lessISsESaIS6_EE13_Rb_tree_implISA_Lb0EE13_M_initializeEv
FN:415,_ZNSt8_Rb_treeIPN6wibble11commandline7ManagedES3_St9_IdentityIS3_ESt4lessIS3_ESaIS3_EE13_Rb_tree_implIS7_Lb0EE13_M_initializeEv
FN:347,_ZNKSt8_Rb_treeIPN6wibble11commandline7ManagedES3_St9_IdentityIS3_ESt4lessIS3_ESaIS3_EE21_M_get_Node_allocatorEv
FN:403,_ZNSt8_Rb_treeIcSt4pairIKcPN6wibble11commandline6OptionEESt10_Select1stIS6_ESt4lessIcESaIS6_EE13_Rb_tree_implISA_Lb0EEC1Ev
FN:562,_ZNSt8_Rb_treeIcSt4pairIKcPN6wibble11commandline6OptionEESt10_Select1stIS6_ESt4lessIcESaIS6_EEC1Ev
FN:347,_ZNKSt8_Rb_treeIcSt4pairIKcPN6wibble11commandline6OptionEESt10_Select1stIS6_ESt4lessIcESaIS6_EE21_M_get_Node_allocatorEv
FN:403,_ZNSt8_Rb_treeISsSt4pairIKSsPN6wibble11commandline6OptionEESt10_Select1stIS6_ESt4lessISsESaIS6_EE13_Rb_tree_implISA_Lb0EEC1Ev
FN:562,_ZNSt8_Rb_treeISsSt4pairIKSsPN6wibble11commandline6OptionEESt10_Select1stIS6_ESt4lessISsESaIS6_EEC1Ev
FN:347,_ZNKSt8_Rb_treeISsSt4pairIKSsPN6wibble11commandline6OptionEESt10_Select1stIS6_ESt4lessISsESaIS6_EE21_M_get_Node_allocatorEv
FN:403,_ZNSt8_Rb_treeISsSt4pairIKSsPN6wibble11commandline6EngineEESt10_Select1stIS6_ESt4lessISsESaIS6_EE13_Rb_tree_implISA_Lb0EEC1Ev
FN:562,_ZNSt8_Rb_treeISsSt4pairIKSsPN6wibble11commandline6EngineEESt10_Select1stIS6_ESt4lessISsESaIS6_EEC1Ev
FN:347,_ZNKSt8_Rb_treeISsSt4pairIKSsPN6wibble11commandline6EngineEESt10_Select1stIS6_ESt4lessISsESaIS6_EE21_M_get_Node_allocatorEv
FN:403,_ZNSt8_Rb_treeIPN6wibble11commandline7ManagedES3_St9_IdentityIS3_ESt4lessIS3_ESaIS3_EE13_Rb_tree_implIS7_Lb0EEC1Ev
FN:562,_ZNSt8_Rb_treeIPN6wibble11commandline7ManagedES3_St9_IdentityIS3_ESt4lessIS3_ESaIS3_EEC1Ev
FN:351,_ZNKSt8_Rb_treeIPN6wibble11commandline7ManagedES3_St9_IdentityIS3_ESt4lessIS3_ESaIS3_EE13get_allocatorEv
FN:351,_ZNKSt8_Rb_treeIcSt4pairIKcPN6wibble11commandline6OptionEESt10_Select1stIS6_ESt4lessIcESaIS6_EE13get_allocatorEv
FN:351,_ZNKSt8_Rb_treeISsSt4pairIKSsPN6wibble11commandline6OptionEESt10_Select1stIS6_ESt4lessISsESaIS6_EE13get_allocatorEv
FN:351,_ZNKSt8_Rb_treeISsSt4pairIKSsPN6wibble11commandline6EngineEESt10_Select1stIS6_ESt4lessISsESaIS6_EE13get_allocatorEv
FN:360,_ZNSt8_Rb_treeIPN6wibble11commandline7ManagedES3_St9_IdentityIS3_ESt4lessIS3_ESaIS3_EE11_M_put_nodeEPSt13_Rb_tree_nodeIS3_E
FN:388,_ZNSt8_Rb_treeIPN6wibble11commandline7ManagedES3_St9_IdentityIS3_ESt4lessIS3_ESaIS3_EE15_M_destroy_nodeEPSt13_Rb_tree_nodeIS3_E
FN:936,_ZNSt8_Rb_treeIPN6wibble11commandline7ManagedES3_St9_IdentityIS3_ESt4lessIS3_ESaIS3_EE8_M_eraseEPSt13_Rb_tree_nodeIS3_E
FN:584,_ZNSt8_Rb_treeIPN6wibble11commandline7ManagedES3_St9_IdentityIS3_ESt4lessIS3_ESaIS3_EED1Ev
FN:360,_ZNSt8_Rb_treeISsSt4pairIKSsPN6wibble11commandline6EngineEESt10_Select1stIS6_ESt4lessISsESaIS6_EE11_M_put_nodeEPSt13_Rb_tree_nodeIS6_E
FN:360,_ZNSt8_Rb_treeISsSt4pairIKSsPN6wibble11commandline6OptionEESt10_Select1stIS6_ESt4lessISsESaIS6_EE11_M_put_nodeEPSt13_Rb_tree_nodeIS6_E
FN:360,_ZNSt8_Rb_treeIcSt4pairIKcPN6wibble11commandline6OptionEESt10_Select1stIS6_ESt4lessIcESaIS6_EE11_M_put_nodeEPSt13_Rb_tree_nodeIS6_E
FN:388,_ZNSt8_Rb_treeIcSt4pairIKcPN6wibble11commandline6OptionEESt10_Select1stIS6_ESt4lessIcESaIS6_EE15_M_destroy_nodeEPSt13_Rb_tree_nodeIS6_E
FN:936,_ZNSt8_Rb_treeIcSt4pairIKcPN6wibble11commandline6OptionEESt10_Select1stIS6_ESt4lessIcESaIS6_EE8_M_eraseEPSt13_Rb_tree_nodeIS6_E
FN:584,_ZNSt8_Rb_treeIcSt4pairIKcPN6wibble11commandline6OptionEESt10_Select1stIS6_ESt4lessIcESaIS6_EED1Ev
FN:255,_ZNSt23_Rb_tree_const_iteratorIPN6wibble11commandline7ManagedEEppEv
FN:356,_ZNSt8_Rb_treeIPN6wibble11commandline7ManagedES3_St9_IdentityIS3_ESt4lessIS3_ESaIS3_EE11_M_get_nodeEv
FN:364,_ZNSt8_Rb_treeIPN6wibble11commandline7ManagedES3_St9_IdentityIS3_ESt4lessIS3_ESaIS3_EE14_M_create_nodeERKS3_
FN:195,_ZNSt17_Rb_tree_iteratorIPN6wibble11commandline7ManagedEEmmEv
FN:846,_ZNSt8_Rb_treeIPN6wibble11commandline7ManagedES3_St9_IdentityIS3_ESt4lessIS3_ESaIS3_EE10_M_insert_EPKSt18_Rb_tree_node_baseSC_RKS3_
FN:1133,_ZNSt8_Rb_treeIPN6wibble11commandline7ManagedES3_St9_IdentityIS3_ESt4lessIS3_ESaIS3_EE16_M_insert_uniqueERKS3_
FN:388,_ZNSt8_Rb_treeISsSt4pairIKSsPN6wibble11commandline6EngineEESt10_Select1stIS6_ESt4lessISsESaIS6_EE15_M_destroy_nodeEPSt13_Rb_tree_nodeIS6_E
FN:936,_ZNSt8_Rb_treeISsSt4pairIKSsPN6wibble11commandline6EngineEESt10_Select1stIS6_ESt4lessISsESaIS6_EE8_M_eraseEPSt13_Rb_tree_nodeIS6_E
FN:584,_ZNSt8_Rb_treeISsSt4pairIKSsPN6wibble11commandline6EngineEESt10_Select1stIS6_ESt4lessISsESaIS6_EED1Ev
FN:388,_ZNSt8_Rb_treeISsSt4pairIKSsPN6wibble11commandline6OptionEESt10_Select1stIS6_ESt4lessISsESaIS6_EE15_M_destroy_nodeEPSt13_Rb_tree_nodeIS6_E
FN:936,_ZNSt8_Rb_treeISsSt4pairIKSsPN6wibble11commandline6OptionEESt10_Select1stIS6_ESt4lessISsESaIS6_EE8_M_eraseEPSt13_Rb_tree_nodeIS6_E
FN:584,_ZNSt8_Rb_treeISsSt4pairIKSsPN6wibble11commandline6OptionEESt10_Select1stIS6_ESt4lessISsESaIS6_EED1Ev
DA:168,0
DA:169,0
DA:195,0
DA:197,0
DA:198,0
DA:210,0
DA:211,0
DA:240,0
DA:241,0
DA:243,0
DA:244,0
DA:247,0
DA:248,0
DA:255,0
DA:257,0
DA:258,0
DA:289,0
DA:290,0
DA:347,0
DA:348,0
DA:351,0
DA:352,0
DA:356,0
DA:357,0
DA:360,0
DA:361,0
DA:364,0
DA:366,0
DA:368,0
DA:369,0
DA:371,0
DA:372,0
DA:374,0
DA:388,0
DA:390,0
DA:391,0
DA:392,0
DA:398,0
DA:403,0
DA:405,0
DA:406,0
DA:415,0
DA:417,0
DA:418,0
DA:419,0
DA:420,0
DA:421,0
DA:452,0
DA:453,0
DA:463,0
DA:464,0
DA:471,0
DA:472,0
DA:475,0
DA:476,0
DA:479,0
DA:480,0
DA:487,0
DA:488,0
DA:495,0
DA:496,0
DA:499,0
DA:500,0
DA:562,0
DA:584,0
DA:585,0
DA:596,0
DA:599,0
DA:603,0
DA:606,0
DA:614,0
DA:617,0
DA:846,0
DA:850,0
DA:852,0
DA:854,0
DA:857,0
DA:858,0
DA:936,0
DA:939,0
DA:941,0
DA:942,0
DA:943,0
DA:944,0
DA:946,0
DA:1133,0
DA:1135,0
DA:1136,0
DA:1137,0
DA:1138,0
DA:1140,0
DA:1141,0
DA:1142,0
DA:1144,0
DA:1145,0
DA:1147,0
DA:1148,0
DA:1150,0
DA:1152,0
DA:1153,0
DA:1154,0
BA:850,0
BA:850,0
BA:850,0
BA:850,0
BA:850,0
BA:850,0
BA:939,0
BA:939,0
BA:939,0
BA:939,0
BA:939,0
BA:939,0
BA:939,0
BA:939,0
BA:1138,0
BA:1138,0
BA:1142,0
BA:1142,0
BA:1145,0
BA:1145,0
BA:1147,0
BA:1147,0
BA:1152,0
BA:1152,0
LF:101
LH:0
end_of_record
SF:/usr/include/c++/4.3/bits/stl_uninitialized.h
FN:97,_ZNSt20__uninitialized_copyILb1EE18uninitialized_copyIPcS2_EET0_T_S4_S3_
FN:113,_ZSt18uninitialized_copyIPcS0_ET0_T_S2_S1_
FN:261,_ZSt22__uninitialized_copy_aIPcS0_cET0_T_S2_S1_RSaIT1_E
FN:268,_ZSt22__uninitialized_move_aIPcS0_SaIcEET0_T_S3_S2_RT1_
FN:97,_ZNSt20__uninitialized_copyILb1EE18uninitialized_copyIPPN6wibble11commandline6OptionES6_EET0_T_S8_S7_
FN:113,_ZSt18uninitialized_copyIPPN6wibble11commandline6OptionES4_ET0_T_S6_S5_
FN:261,_ZSt22__uninitialized_copy_aIPPN6wibble11commandline6OptionES4_S3_ET0_T_S6_S5_RSaIT1_E
FN:268,_ZSt22__uninitialized_move_aIPPN6wibble11commandline6OptionES4_SaIS3_EET0_T_S7_S6_RT1_
FN:73,_ZNSt20__uninitialized_copyILb0EE18uninitialized_copyIPSsS2_EET0_T_S4_S3_
FN:113,_ZSt18uninitialized_copyIPSsS0_ET0_T_S2_S1_
FN:261,_ZSt22__uninitialized_copy_aIPSsS0_SsET0_T_S2_S1_RSaIT1_E
FN:268,_ZSt22__uninitialized_move_aIPSsS0_SaISsEET0_T_S3_S2_RT1_
DA:73,0
DA:75,0
DA:78,0
DA:79,0
DA:81,0
DA:83,0
DA:85,0
DA:86,0
DA:97,0
DA:98,0
DA:113,0
DA:122,0
DA:261,0
DA:262,0
DA:268,0
DA:272,0
BA:78,0
BA:78,0
BA:79,0
BA:79,0
LF:16
LH:0
end_of_record
SF:/usr/include/c++/4.3/bits/stl_vector.h
FN:97,_ZNSt12_Vector_baseISsSaISsEE19_M_get_Tp_allocatorEv
FN:404,_ZNKSt6vectorISsSaISsEE3endEv
FN:386,_ZNKSt6vectorISsSaISsEE5beginEv
FN:79,_ZNSt12_Vector_baseIcSaIcEE12_Vector_implD1Ev
FN:97,_ZNSt12_Vector_baseIcSaIcEE19_M_get_Tp_allocatorEv
FN:97,_ZNSt12_Vector_baseIPN6wibble11commandline6OptionESaIS3_EE19_M_get_Tp_allocatorEv
FN:97,_ZNSt12_Vector_baseIPN6wibble11commandline11OptionGroupESaIS3_EE19_M_get_Tp_allocatorEv
FN:97,_ZNSt12_Vector_baseIPN6wibble11commandline6EngineESaIS3_EE19_M_get_Tp_allocatorEv
FN:395,_ZNSt6vectorISsSaISsEE3endEv
FN:377,_ZNSt6vectorISsSaISsEE5beginEv
FN:526,_ZNKSt6vectorISsSaISsEE5emptyEv
FN:84,_ZNSt12_Vector_baseIcSaIcEE12_Vector_implC1Ev
FN:108,_ZNSt12_Vector_baseIcSaIcEEC2Ev
FN:213,_ZNSt6vectorIcSaIcEEC1Ev
FN:395,_ZNSt6vectorIcSaIcEE3endEv
FN:395,_ZNSt6vectorIPN6wibble11commandline6OptionESaIS3_EE3endEv
FN:79,_ZNSt12_Vector_baseISsSaISsEE12_Vector_implD1Ev
FN:484,_ZNKSt6vectorISsSaISsEE4sizeEv
FN:484,_ZNKSt6vectorIcSaIcEE4sizeEv
FN:79,_ZNSt12_Vector_baseIPN6wibble11commandline6OptionESaIS3_EE12_Vector_implD1Ev
FN:484,_ZNKSt6vectorIPN6wibble11commandline6OptionESaIS3_EE4sizeEv
FN:79,_ZNSt12_Vector_baseIPN6wibble11commandline11OptionGroupESaIS3_EE12_Vector_implD1Ev
FN:79,_ZNSt12_Vector_baseIPN6wibble11commandline6EngineESaIS3_EE12_Vector_implD1Ev
FN:84,_ZNSt12_Vector_baseISsSaISsEE12_Vector_implC1Ev
FN:108,_ZNSt12_Vector_baseISsSaISsEEC2Ev
FN:213,_ZNSt6vectorISsSaISsEEC1Ev
FN:101,_ZNKSt12_Vector_baseISsSaISsEE19_M_get_Tp_allocatorEv
FN:489,_ZNKSt6vectorISsSaISsEE8max_sizeEv
FN:101,_ZNKSt12_Vector_baseIcSaIcEE19_M_get_Tp_allocatorEv
FN:489,_ZNKSt6vectorIcSaIcEE8max_sizeEv
FN:84,_ZNSt12_Vector_baseIPN6wibble11commandline6OptionESaIS3_EE12_Vector_implC1Ev
FN:108,_ZNSt12_Vector_baseIPN6wibble11commandline6OptionESaIS3_EEC2Ev
FN:213,_ZNSt6vectorIPN6wibble11commandline6OptionESaIS3_EEC1Ev
FN:101,_ZNKSt12_Vector_baseIPN6wibble11commandline6OptionESaIS3_EE19_M_get_Tp_allocatorEv
FN:489,_ZNKSt6vectorIPN6wibble11commandline6OptionESaIS3_EE8max_sizeEv
FN:84,_ZNSt12_Vector_baseIPN6wibble11commandline11OptionGroupESaIS3_EE12_Vector_implC1Ev
FN:108,_ZNSt12_Vector_baseIPN6wibble11commandline11OptionGroupESaIS3_EEC2Ev
FN:213,_ZNSt6vectorIPN6wibble11commandline11OptionGroupESaIS3_EEC1Ev
FN:84,_ZNSt12_Vector_baseIPN6wibble11commandline6EngineESaIS3_EE12_Vector_implC1Ev
FN:108,_ZNSt12_Vector_baseIPN6wibble11commandline6EngineESaIS3_EEC2Ev
FN:213,_ZNSt6vectorIPN6wibble11commandline6EngineESaIS3_EEC1Ev
FN:147,_ZNSt12_Vector_baseISsSaISsEE13_M_deallocateEPSsj
FN:135,_ZNSt12_Vector_baseISsSaISsEED2Ev
FN:147,_ZNSt12_Vector_baseIPN6wibble11commandline6EngineESaIS3_EE13_M_deallocateEPS3_j
FN:135,_ZNSt12_Vector_baseIPN6wibble11commandline6EngineESaIS3_EED2Ev
FN:299,_ZNSt6vectorIPN6wibble11commandline6EngineESaIS3_EED1Ev
FN:147,_ZNSt12_Vector_baseIPN6wibble11commandline6OptionESaIS3_EE13_M_deallocateEPS3_j
FN:135,_ZNSt12_Vector_baseIPN6wibble11commandline6OptionESaIS3_EED2Ev
FN:299,_ZNSt6vectorIPN6wibble11commandline6OptionESaIS3_EED1Ev
FN:147,_ZNSt12_Vector_baseIPN6wibble11commandline11OptionGroupESaIS3_EE13_M_deallocateEPS3_j
FN:135,_ZNSt12_Vector_baseIPN6wibble11commandline11OptionGroupESaIS3_EED2Ev
FN:299,_ZNSt6vectorIPN6wibble11commandline11OptionGroupESaIS3_EED1Ev
FN:147,_ZNSt12_Vector_baseIcSaIcEE13_M_deallocateEPcj
FN:135,_ZNSt12_Vector_baseIcSaIcEED2Ev
FN:299,_ZNSt6vectorIcSaIcEED1Ev
FN:1075,_ZNKSt6vectorIcSaIcEE12_M_check_lenEjPKc
FN:1075,_ZNKSt6vectorISsSaISsEE12_M_check_lenEjPKc
FN:1075,_ZNKSt6vectorIPN6wibble11commandline6OptionESaIS3_EE12_M_check_lenEjPKc
FN:143,_ZNSt12_Vector_baseIcSaIcEE11_M_allocateEj
FN:686,_ZNSt6vectorIcSaIcEE9push_backERKc
FN:143,_ZNSt12_Vector_baseISsSaISsEE11_M_allocateEj
FN:143,_ZNSt12_Vector_baseIPN6wibble11commandline6OptionESaIS3_EE11_M_allocateEj
FN:686,_ZNSt6vectorIPN6wibble11commandline6OptionESaIS3_EE9push_backERKS3_
FN:299,_ZNSt6vectorISsSaISsEED1Ev
FN:686,_ZNSt6vectorISsSaISsEE9push_backERKSs
DA:79,0
DA:84,0
DA:85,0
DA:86,0
DA:97,0
DA:98,0
DA:101,0
DA:102,0
DA:108,0
DA:109,0
DA:135,0
DA:136,0
DA:137,0
DA:143,0
DA:144,0
DA:147,0
DA:149,0
DA:150,0
DA:151,0
DA:213,0
DA:214,0
DA:299,0
DA:300,0
DA:301,0
DA:377,0
DA:378,0
DA:386,0
DA:387,0
DA:395,0
DA:396,0
DA:404,0
DA:405,0
DA:484,0
DA:485,0
DA:489,0
DA:490,0
DA:526,0
DA:527,0
DA:686,0
DA:688,0
DA:690,0
DA:691,0
DA:694,0
DA:695,0
DA:1075,0
DA:1077,0
DA:1078,0
DA:1080,0
DA:1081,0
BA:144,0
BA:144,0
BA:144,0
BA:144,0
BA:144,0
BA:144,0
BA:149,0
BA:149,0
BA:149,0
BA:149,0
BA:149,0
BA:149,0
BA:149,0
BA:149,0
BA:149,0
BA:149,0
BA:688,0
BA:688,0
BA:688,0
BA:688,0
BA:688,0
BA:688,0
BA:1077,0
BA:1077,0
BA:1077,0
BA:1077,0
BA:1077,0
BA:1077,0
BA:1081,0
BA:1081,0
BA:1081,0
BA:1081,0
BA:1081,0
BA:1081,0
BA:1081,0
BA:1081,0
BA:1081,0
BA:1081,0
BA:1081,0
BA:1081,0
LF:49
LH:0
end_of_record
SF:/usr/include/c++/4.3/bits/stream_iterator.h
FN:181,_ZNSt16ostream_iteratorISscSt11char_traitsIcEEC1ERSoPKc
FN:185,_ZNSt16ostream_iteratorISscSt11char_traitsIcEEC1ERKS2_
FN:202,_ZNSt16ostream_iteratorISscSt11char_traitsIcEEdeEv
FN:206,_ZNSt16ostream_iteratorISscSt11char_traitsIcEEppEv
FN:191,_ZNSt16ostream_iteratorISscSt11char_traitsIcEEaSERKSs
DA:181,0
DA:182,0
DA:185,0
DA:186,0
DA:191,0
DA:196,0
DA:197,0
DA:198,0
DA:202,0
DA:203,0
DA:206,0
DA:207,0
BA:197,0
BA:197,0
LF:12
LH:0
end_of_record
SF:/usr/include/c++/4.3/bits/vector.tcc
FN:283,_ZNSt6vectorIcSaIcEE13_M_insert_auxEN9__gnu_cxx17__normal_iteratorIPcS1_EERKc
FN:283,_ZNSt6vectorIPN6wibble11commandline6OptionESaIS3_EE13_M_insert_auxEN9__gnu_cxx17__normal_iteratorIPS3_S5_EERKS3_
FN:283,_ZNSt6vectorISsSaISsEE13_M_insert_auxEN9__gnu_cxx17__normal_iteratorIPSsS1_EERKSs
DA:283,0
DA:286,0
DA:288,0
DA:291,0
DA:293,0
DA:295,0
DA:299,0
DA:307,0
DA:308,0
DA:309,0
DA:316,0
DA:321,0
DA:323,0
DA:324,0
DA:330,0
DA:332,0
DA:333,0
DA:334,0
DA:336,0
DA:338,0
DA:341,0
DA:342,0
DA:343,0
DA:345,0
BA:286,0
BA:286,0
BA:286,0
BA:286,0
BA:286,0
BA:286,0
LF:24
LH:0
end_of_record
SF:/usr/include/c++/4.3/exception
FN:59,_ZNSt9exceptionC2Ev
DA:59,0
LF:1
LH:0
end_of_record
SF:/usr/include/c++/4.3/ext/atomicity.h
FN:67,_ZN9__gnu_cxxL25__exchange_and_add_singleEPii
FN:50,_ZN9__gnu_cxxL18__exchange_and_addEPVii
FN:80,_ZN9__gnu_cxxL27__exchange_and_add_dispatchEPii
DA:50,0
DA:51,0
DA:67,0
DA:69,0
DA:70,0
DA:71,0
DA:80,0
DA:83,0
DA:84,0
DA:86,0
BA:83,0
BA:83,0
LF:10
LH:0
end_of_record
SF:/usr/include/c++/4.3/ext/new_allocator.h
FN:69,_ZN9__gnu_cxx13new_allocatorIcEC2Ev
FN:76,_ZN9__gnu_cxx13new_allocatorIcED2Ev
FN:107,_ZN9__gnu_cxx13new_allocatorIcE9constructEPcRKc
FN:107,_ZN9__gnu_cxx13new_allocatorIPN6wibble11commandline6OptionEE9constructEPS4_RKS4_
FN:76,_ZN9__gnu_cxx13new_allocatorISt13_Rb_tree_nodeIPN6wibble11commandline7ManagedEEED2Ev
FN:76,_ZN9__gnu_cxx13new_allocatorISt13_Rb_tree_nodeISt4pairIKcPN6wibble11commandline6OptionEEEED2Ev
FN:76,_ZN9__gnu_cxx13new_allocatorISt13_Rb_tree_nodeISt4pairIKSsPN6wibble11commandline6OptionEEEED2Ev
FN:76,_ZN9__gnu_cxx13new_allocatorISt13_Rb_tree_nodeISt4pairIKSsPN6wibble11commandline6EngineEEEED2Ev
FN:76,_ZN9__gnu_cxx13new_allocatorISt10_List_nodeISsEED2Ev
FN:71,_ZN9__gnu_cxx13new_allocatorIcEC2ERKS1_
FN:76,_ZN9__gnu_cxx13new_allocatorISsED2Ev
FN:118,_ZN9__gnu_cxx13new_allocatorIPN6wibble11commandline7ManagedEE7destroyEPS4_
FN:76,_ZN9__gnu_cxx13new_allocatorIPN6wibble11commandline6OptionEED2Ev
FN:76,_ZN9__gnu_cxx13new_allocatorIPN6wibble11commandline11OptionGroupEED2Ev
FN:76,_ZN9__gnu_cxx13new_allocatorIPN6wibble11commandline6EngineEED2Ev
FN:118,_ZN9__gnu_cxx13new_allocatorISt4pairIKcPN6wibble11commandline6OptionEEE7destroyEPS7_
FN:69,_ZN9__gnu_cxx13new_allocatorISsEC2Ev
FN:101,_ZNK9__gnu_cxx13new_allocatorISsE8max_sizeEv
FN:107,_ZN9__gnu_cxx13new_allocatorIPN6wibble11commandline7ManagedEE9constructEPS4_RKS4_
FN:76,_ZN9__gnu_cxx13new_allocatorIPN6wibble11commandline7ManagedEED2Ev
FN:101,_ZNK9__gnu_cxx13new_allocatorIcE8max_sizeEv
FN:69,_ZN9__gnu_cxx13new_allocatorIPN6wibble11commandline6OptionEEC2Ev
FN:101,_ZNK9__gnu_cxx13new_allocatorIPN6wibble11commandline6OptionEE8max_sizeEv
FN:69,_ZN9__gnu_cxx13new_allocatorIPN6wibble11commandline11OptionGroupEEC2Ev
FN:69,_ZN9__gnu_cxx13new_allocatorIPN6wibble11commandline6EngineEEC2Ev
FN:69,_ZN9__gnu_cxx13new_allocatorISt13_Rb_tree_nodeISt4pairIKcPN6wibble11commandline6OptionEEEEC2Ev
FN:76,_ZN9__gnu_cxx13new_allocatorISt4pairIKcPN6wibble11commandline6OptionEEED2Ev
FN:69,_ZN9__gnu_cxx13new_allocatorISt13_Rb_tree_nodeISt4pairIKSsPN6wibble11commandline6OptionEEEEC2Ev
FN:76,_ZN9__gnu_cxx13new_allocatorISt4pairIKSsPN6wibble11commandline6OptionEEED2Ev
FN:69,_ZN9__gnu_cxx13new_allocatorISt13_Rb_tree_nodeISt4pairIKSsPN6wibble11commandline6EngineEEEEC2Ev
FN:76,_ZN9__gnu_cxx13new_allocatorISt4pairIKSsPN6wibble11commandline6EngineEEED2Ev
FN:69,_ZN9__gnu_cxx13new_allocatorISt10_List_nodeISsEEC2Ev
FN:69,_ZN9__gnu_cxx13new_allocatorISt13_Rb_tree_nodeIPN6wibble11commandline7ManagedEEEC2Ev
FN:69,_ZN9__gnu_cxx13new_allocatorIPN6wibble11commandline7ManagedEEC2Ev
FN:69,_ZN9__gnu_cxx13new_allocatorISt4pairIKcPN6wibble11commandline6OptionEEEC2Ev
FN:69,_ZN9__gnu_cxx13new_allocatorISt4pairIKSsPN6wibble11commandline6OptionEEEC2Ev
FN:69,_ZN9__gnu_cxx13new_allocatorISt4pairIKSsPN6wibble11commandline6EngineEEEC2Ev
FN:101,_ZNK9__gnu_cxx13new_allocatorISt13_Rb_tree_nodeIPN6wibble11commandline7ManagedEEE8max_sizeEv
FN:97,_ZN9__gnu_cxx13new_allocatorISt13_Rb_tree_nodeIPN6wibble11commandline7ManagedEEE10deallocateEPS6_j
FN:97,_ZN9__gnu_cxx13new_allocatorISsE10deallocateEPSsj
FN:97,_ZN9__gnu_cxx13new_allocatorISt13_Rb_tree_nodeISt4pairIKSsPN6wibble11commandline6EngineEEEE10deallocateEPS9_j
FN:97,_ZN9__gnu_cxx13new_allocatorISt13_Rb_tree_nodeISt4pairIKSsPN6wibble11commandline6OptionEEEE10deallocateEPS9_j
FN:97,_ZN9__gnu_cxx13new_allocatorISt13_Rb_tree_nodeISt4pairIKcPN6wibble11commandline6OptionEEEE10deallocateEPS9_j
FN:97,_ZN9__gnu_cxx13new_allocatorIPN6wibble11commandline6EngineEE10deallocateEPS4_j
FN:97,_ZN9__gnu_cxx13new_allocatorIPN6wibble11commandline6OptionEE10deallocateEPS4_j
FN:97,_ZN9__gnu_cxx13new_allocatorIPN6wibble11commandline11OptionGroupEE10deallocateEPS4_j
FN:97,_ZN9__gnu_cxx13new_allocatorISt10_List_nodeISsEE10deallocateEPS2_j
FN:97,_ZN9__gnu_cxx13new_allocatorIcE10deallocateEPcj
FN:107,_ZN9__gnu_cxx13new_allocatorISsE9constructEPSsRKSs
FN:87,_ZN9__gnu_cxx13new_allocatorIcE8allocateEjPKv
FN:87,_ZN9__gnu_cxx13new_allocatorISsE8allocateEjPKv
FN:87,_ZN9__gnu_cxx13new_allocatorISt13_Rb_tree_nodeIPN6wibble11commandline7ManagedEEE8allocateEjPKv
FN:87,_ZN9__gnu_cxx13new_allocatorIPN6wibble11commandline6OptionEE8allocateEjPKv
FN:118,_ZN9__gnu_cxx13new_allocatorISt4pairIKSsPN6wibble11commandline6EngineEEE7destroyEPS7_
FN:118,_ZN9__gnu_cxx13new_allocatorISt4pairIKSsPN6wibble11commandline6OptionEEE7destroyEPS7_
FN:118,_ZN9__gnu_cxx13new_allocatorISsE7destroyEPSs
DA:69,0
DA:71,0
DA:76,0
DA:87,0
DA:89,0
DA:90,0
DA:92,0
DA:97,0
DA:98,0
DA:101,0
DA:102,0
DA:107,0
DA:108,0
DA:118,0
BA:89,0
BA:89,0
BA:89,0
BA:89,0
BA:89,0
BA:89,0
BA:89,0
BA:89,0
BA:108,0
BA:108,0
BA:108,0
BA:108,0
BA:108,0
BA:108,0
BA:108,0
BA:108,0
LF:14
LH:0
end_of_record
SF:/usr/include/c++/4.3/ext/type_traits.h
FN:154,_ZN9__gnu_cxx17__is_null_pointerIcEEbPT_
DA:154,0
DA:155,0
LF:2
LH:0
end_of_record
SF:/usr/include/c++/4.3/i486-linux-gnu/bits/gthr-default.h
FN:212,_ZL18__gthread_active_pv
DA:212,0
DA:216,0
LF:2
LH:0
end_of_record
SF:/usr/include/c++/4.3/iosfwd
FN:68,_ZNSt15basic_stringbufIcSt11char_traitsIcESaIcEED1Ev
DA:68,0
BA:68,0
BA:68,0
LF:1
LH:0
end_of_record
SF:/usr/include/c++/4.3/iostream
DA:77,1
LF:1
LH:1
end_of_record
SF:/usr/include/c++/4.3/istream
FN:585,_ZNSiC2Ev
FN:105,_ZNSiD2Ev
FN:804,_ZNSdC2Ev
FN:801,_ZNSdD2Ev
DA:105,0
DA:106,0
DA:585,0
DA:586,0
DA:587,0
DA:801,0
DA:804,0
DA:805,0
BA:106,0
BA:106,0
BA:106,0
BA:106,0
BA:801,0
BA:801,0
BA:801,0
BA:801,0
BA:801,0
BA:801,0
LF:8
LH:0
end_of_record
SF:/usr/include/c++/4.3/new
FN:105,_ZnwjPv
FN:109,_ZdlPvS_
DA:105,0
DA:109,0
LF:2
LH:0
end_of_record
SF:/usr/include/c++/4.3/ostream
FN:512,_ZStlsISt11char_traitsIcEERSt13basic_ostreamIcT_ES5_PKc
FN:365,_ZNSoC2Ev
FN:95,_ZNSoD2Ev
DA:95,0
DA:365,0
DA:366,0
DA:512,0
DA:514,0
DA:515,0
DA:517,0
DA:519,0
BA:95,0
BA:95,0
BA:95,0
BA:95,0
BA:514,0
BA:514,0
LF:8
LH:0
end_of_record
SF:/usr/include/c++/4.3/sstream
FN:124,_ZNKSt15basic_stringbufIcSt11char_traitsIcESaIcEE3strEv
FN:555,_ZNKSt18basic_stringstreamIcSt11char_traitsIcESaIcEE3strEv
FN:96,_ZNSt15basic_stringbufIcSt11char_traitsIcESaIcEEC1ESt13_Ios_Openmode
FN:509,_ZNSt18basic_stringstreamIcSt11char_traitsIcESaIcEEC1ESt13_Ios_Openmode
FN:536,_ZNSt18basic_stringstreamIcSt11char_traitsIcESaIcEED1Ev
DA:96,0
DA:97,0
DA:98,0
DA:124,0
DA:126,0
DA:127,0
DA:130,0
DA:131,0
DA:133,0
DA:136,0
DA:137,0
DA:509,0
DA:510,0
DA:511,0
DA:536,0
DA:537,0
DA:555,0
DA:556,0
BA:127,0
BA:127,0
BA:130,0
BA:130,0
BA:537,0
BA:537,0
BA:537,0
BA:537,0
BA:537,0
BA:537,0
LF:18
LH:0
end_of_record
SF:/usr/include/c++/4.3/streambuf
FN:513,_ZNKSt15basic_streambufIcSt11char_traitsIcEE4pptrEv
FN:469,_ZNKSt15basic_streambufIcSt11char_traitsIcEE5egptrEv
FN:510,_ZNKSt15basic_streambufIcSt11char_traitsIcEE5pbaseEv
FN:444,_ZNSt15basic_streambufIcSt11char_traitsIcEEC2Ev
FN:197,_ZNSt15basic_streambufIcSt11char_traitsIcEED2Ev
DA:197,0
DA:198,0
DA:444,0
DA:447,0
DA:448,0
DA:469,0
DA:510,0
DA:513,0
BA:198,0
BA:198,0
LF:8
LH:0
end_of_record
TN:
SF:/home/mornfall/dev/pkg/ept-work/wibble/operators.h
FN:109,_ZN6wibble9operatorsoRIiEERSt3setIT_St4lessIS3_ESaIS3_EES8_RKNS_5EmptyIS3_EE
FN:177,_ZN6wibble9operatorsmIIiEERSt3setIT_St4lessIS3_ESaIS3_EES8_RKNS_5EmptyIS3_EE
FN:123,_ZN6wibble9operatorsoRIiNS_9SingletonIiEEEERSt3setIT_St4lessIS5_ESaIS5_EESA_RKT0_
FN:115,_ZN6wibble9operatorsoRIiEERSt3setIT_St4lessIS3_ESaIS3_EES8_RKS3_
FN:225,_ZN6wibble9operatorsleIiEEbRKSt3setIT_St4lessIS3_ESaIS3_EES9_
FN:36,_ZN6wibble9operatorsanIiEESt3setIT_St4lessIS3_ESaIS3_EERKS7_S9_
FN:74,_ZN6wibble9operatorsorIiEESt3setIT_St4lessIS3_ESaIS3_EERKS7_S9_
FN:82,_ZN6wibble9operatorsmiIiEESt3setIT_St4lessIS3_ESaIS3_EERKS7_S9_
FN:133,_ZN6wibble9operatorsoRIiEERSt3setIT_St4lessIS3_ESaIS3_EES8_RKS7_
FN:62,_ZN6wibble9operatorsorIiEESt3setIT_St4lessIS3_ESaIS3_EERKS7_RKNS_5EmptyIS3_EE
FN:67,_ZN6wibble9operatorsorIiEESt3setIT_St4lessIS3_ESaIS3_EERKS7_RKNS_9SingletonIS3_EE
FN:104,_ZN6wibble9operatorsmiIiEESt3setIT_St4lessIS3_ESaIS3_EERKS7_RKNS_5EmptyIS3_EE
FN:145,_ZN6wibble9operatorsaNIiSt3setIiSt4lessIiESaIiEEEERS2_IT_S3_IS7_ESaIS7_EESB_RKT0_
FN:198,_ZN6wibble9operatorsmIIiSt3setIiSt4lessIiESaIiEEEERS2_IT_S3_IS7_ESaIS7_EESB_RKT0_
FN:97,_ZN6wibble9operatorsmiIiEESt3setIT_St4lessIS3_ESaIS3_EERKS7_RKNS_9SingletonIS3_EE
FN:190,_ZN6wibble9operatorsmIIiEERSt3setIT_St4lessIS3_ESaIS3_EES8_RKNS_9SingletonIS3_EE
DA:36,2
DA:37,2
DA:38,2
DA:40,0
DA:62,1
DA:63,1
DA:67,1
DA:68,1
DA:69,1
DA:70,0
DA:74,1
DA:75,1
DA:76,1
DA:78,0
DA:82,1
DA:83,1
DA:84,1
DA:86,0
DA:97,1
DA:98,1
DA:99,1
DA:100,0
DA:104,1
DA:105,1
DA:109,1
DA:111,1
DA:115,1
DA:117,1
DA:118,1
DA:123,1
DA:125,2
DA:127,1
DA:128,1
DA:133,1
DA:134,1
DA:135,0
DA:137,3
DA:139,2
DA:140,1
DA:145,2
DA:147,2
DA:149,0
DA:150,0
DA:153,2
DA:154,2
DA:155,9
DA:157,5
DA:159,1
DA:161,4
DA:163,1
DA:164,1
DA:165,1
DA:169,3
DA:170,3
DA:173,2
DA:177,1
DA:179,1
DA:190,1
DA:192,1
DA:193,1
DA:198,1
DA:200,1
DA:201,1
DA:202,5
DA:204,3
DA:206,2
DA:207,2
DA:208,2
DA:209,2
DA:211,1
DA:212,1
DA:214,0
DA:216,1
DA:225,2
DA:226,2
DA:228,2
DA:229,0
DA:230,0
DA:231,0
DA:232,0
DA:233,0
DA:234,0
DA:236,2
BA:125,2
BA:125,2
BA:134,1
BA:134,2
BA:137,2
BA:137,2
BA:147,1
BA:147,2
BA:155,2
BA:155,2
BA:157,2
BA:157,2
BA:157,2
BA:157,2
BA:157,2
BA:157,2
BA:161,2
BA:161,2
BA:161,1
BA:161,2
BA:161,2
BA:161,2
BA:202,2
BA:202,2
BA:202,2
BA:202,1
BA:202,2
BA:202,2
BA:204,2
BA:204,2
BA:211,2
BA:211,1
BA:228,1
BA:228,2
BA:229,0
BA:229,0
BA:231,0
BA:231,0
BA:233,0
BA:233,0
LF:83
LH:68
end_of_record
SF:/home/mornfall/dev/pkg/ept-work/wibble/singleton.h
FN:80,_ZN6wibble9SingletonIiEC1ERKi
FN:52,_ZNK6wibble9SingletonIiE14const_iteratordeEv
FN:56,_ZNK6wibble9SingletonIiE14const_iteratorneERKS2_
FN:54,_ZN6wibble9SingletonIiE14const_iteratorppEv
FN:47,_ZN6wibble9SingletonIiE14const_iteratorC1EPKi
FN:87,_ZNK6wibble9SingletonIiE5beginEv
FN:50,_ZN6wibble9SingletonIiE14const_iteratorC1Ev
FN:88,_ZNK6wibble9SingletonIiE3endEv
DA:47,4
DA:50,2
DA:52,4
DA:54,1
DA:56,2
DA:80,0
DA:87,4
DA:88,2
LF:8
LH:7
end_of_record
SF:/home/mornfall/dev/pkg/ept-work/wibble/test.h
FN:17,_ZN8LocationC1EPKciSs
FN:13,_ZN8LocationC1ERKS_
FN:52,_ZlsIPKcER12AssertFailedS3_T_
FN:33,_ZN12AssertFailedC1E8LocationRSo
FN:41,_ZN12AssertFailedD1Ev
FN:13,_ZN8LocationD1Ev
FN:59,_Z9assert_fnIbEv8LocationT_
FN:52,_ZlsIjER12AssertFailedS1_T_
FN:67,_Z12assert_eq_fnIjjEv8LocationT_T0_
DA:13,0
DA:17,0
DA:18,0
DA:33,0
DA:34,0
DA:36,0
DA:38,0
DA:39,0
DA:41,0
DA:42,0
DA:43,0
DA:45,0
DA:46,0
DA:48,0
DA:52,0
DA:54,0
DA:55,0
DA:59,0
DA:61,0
DA:62,0
DA:64,0
DA:67,0
DA:69,0
DA:70,0
DA:71,0
DA:75,0
BA:42,0
BA:42,0
BA:61,0
BA:61,0
BA:69,0
BA:69,0
LF:26
LH:0
end_of_record
SF:/home/mornfall/dev/pkg/ept-work/wibble/operators.test.h
FN:16,_ZN12_GLOBAL__N_1L5mksetEii
FN:12,_ZN12_GLOBAL__N_1L5mksetEi
FN:117,_ZN12_GLOBAL__N_113TestOperators23mutatingIntersectionBugEv
FN:111,_ZN12_GLOBAL__N_113TestOperators17emptySetInclusionEv
FN:77,_ZN12_GLOBAL__N_113TestOperators26specialContainerOperationsEv
FN:50,_ZN12_GLOBAL__N_113TestOperators21mutatingSetOperationsEv
FN:33,_ZN12_GLOBAL__N_113TestOperators19binarySetOperationsEv
DA:12,4
DA:14,4
DA:16,3
DA:18,3
DA:33,1
DA:34,1
DA:35,1
DA:36,1
DA:37,1
DA:38,2
DA:39,2
DA:40,2
DA:41,1
DA:42,2
DA:43,2
DA:44,2
DA:45,1
DA:46,2
DA:47,2
DA:48,1
DA:50,1
DA:51,1
DA:52,1
DA:53,1
DA:54,1
DA:55,2
DA:56,2
DA:57,2
DA:58,2
DA:59,1
DA:60,1
DA:61,2
DA:62,2
DA:63,2
DA:64,1
DA:65,1
DA:66,2
DA:67,2
DA:68,2
DA:69,2
DA:70,1
DA:71,1
DA:72,2
DA:73,2
DA:74,2
DA:75,1
DA:77,1
DA:78,1
DA:80,1
DA:81,1
DA:83,2
DA:84,1
DA:85,2
DA:87,2
DA:88,1
DA:89,2
DA:91,2
DA:92,1
DA:93,2
DA:95,1
DA:96,2
DA:98,1
DA:99,1
DA:100,2
DA:102,1
DA:103,2
DA:104,2
DA:106,1
DA:107,1
DA:108,2
DA:109,1
DA:111,1
DA:112,1
DA:113,1
DA:114,2
DA:115,1
DA:117,1
DA:120,1
DA:121,1
DA:122,1
DA:124,1
DA:125,1
DA:127,1
DA:128,1
DA:129,1
DA:130,1
LF:86
LH:86
end_of_record
SF:/srv/build/pkg/ept-work/default/wibble/wibble-test-generated-_home_mornfall_dev_pkg_ept-work_wibble_operators.cpp
FN:7,_Z41__static_initialization_and_destruction_0ii
FN:7,_GLOBAL__I__Z33run_Operators_binarySetOperationsv
FN:7,_Z37run_Operators_mutatingIntersectionBugv
FN:6,_Z31run_Operators_emptySetInclusionv
FN:5,_Z40run_Operators_specialContainerOperationsv
FN:4,_Z35run_Operators_mutatingSetOperationsv
FN:3,_Z33run_Operators_binarySetOperationsv
DA:3,1
DA:4,1
DA:5,1
DA:6,1
DA:7,4
BA:7,2
BA:7,1
BA:7,2
BA:7,1
LF:5
LH:5
end_of_record
SF:/usr/include/c++/4.3/bits/allocator.h
FN:98,_ZNSaIcEC1Ev
FN:106,_ZNSaIcED2Ev
FN:106,_ZNSaIcED1Ev
FN:106,_ZNSaISt13_Rb_tree_nodeIiEED2Ev
FN:100,_ZNSaIcEC2ERKS_
FN:100,_ZNSaIcEC1ERKS_
FN:98,_ZNSaISt13_Rb_tree_nodeIiEEC2Ev
FN:106,_ZNSaIiED1Ev
FN:100,_ZNSaISt13_Rb_tree_nodeIiEEC2ERKS1_
FN:104,_ZNSaIiEC1ISt13_Rb_tree_nodeIiEEERKSaIT_E
FN:118,_ZSteqIcEbRKSaIT_ES3_
DA:98,0
DA:100,4
DA:101,4
DA:104,0
DA:106,0
DA:118,0
DA:119,0
LF:7
LH:2
end_of_record
SF:/usr/include/c++/4.3/bits/basic_ios.h
FN:131,_ZNKSt9basic_iosIcSt11char_traitsIcEE7rdstateEv
FN:454,_ZNSt9basic_iosIcSt11char_traitsIcEEC2Ev
FN:276,_ZNSt9basic_iosIcSt11char_traitsIcEED2Ev
FN:151,_ZNSt9basic_iosIcSt11char_traitsIcEE8setstateESt12_Ios_Iostate
FN:51,_ZSt13__check_facetISt5ctypeIcEERKT_PS3_
FN:443,_ZNKSt9basic_iosIcSt11char_traitsIcEE5widenEc
DA:51,0
DA:53,0
DA:54,0
DA:55,0
DA:131,0
DA:132,0
DA:151,0
DA:152,0
DA:276,0
DA:443,0
DA:444,0
DA:454,0
DA:456,0
DA:457,0
BA:53,0
BA:53,0
BA:276,0
BA:276,0
LF:14
LH:0
end_of_record
SF:/usr/include/c++/4.3/bits/basic_string.h
FN:277,_ZNKSs7_M_dataEv
FN:258,_ZNSs12_Alloc_hiderD1Ev
FN:285,_ZNKSs6_M_repEv
FN:606,_ZNKSs4sizeEv
FN:214,_ZNSs4_Rep10_M_refdataEv
FN:1544,_ZNKSs4dataEv
FN:178,_ZNSs4_Rep12_S_empty_repEv
FN:411,_ZNSs12_S_empty_repEv
FN:259,_ZNSs12_Alloc_hiderC1EPcRKSaIcE
FN:2067,_ZNSsC1Ev
FN:1551,_ZNKSs13get_allocatorEv
FN:200,_ZNSs4_Rep15_M_set_sharableEv
FN:204,_ZNSs4_Rep26_M_set_length_and_sharableEj
FN:2421,_ZStlsIcSt11char_traitsIcESaIcEERSt13basic_ostreamIT_T0_ES7_RKSbIS4_S5_T1_E
FN:339,_ZNSs7_M_copyEPcPKcj
FN:384,_ZNSs13_S_copy_charsEPcS_S_
FN:1462,_ZNSs16_S_construct_auxIPcEES0_T_S1_RKSaIcESt12__false_type
FN:1478,_ZNSs12_S_constructIPcEES0_T_S1_RKSaIcE
FN:501,_ZNSsaSERKSs
FN:229,_ZNSs4_Rep10_M_disposeERKSaIcE
FN:493,_ZNSsD1Ev
DA:178,0
DA:183,0
DA:184,0
DA:200,0
DA:201,0
DA:204,0
DA:206,0
DA:207,0
DA:208,0
DA:211,0
DA:214,0
DA:215,0
DA:229,0
DA:232,0
DA:234,0
DA:236,0
DA:237,0
DA:258,0
DA:259,0
DA:260,0
DA:277,0
DA:278,0
DA:285,0
DA:286,0
DA:339,0
DA:341,0
DA:342,0
DA:344,0
DA:345,0
DA:384,0
DA:385,0
DA:411,0
DA:412,0
DA:493,0
DA:494,0
DA:501,0
DA:502,0
DA:606,0
DA:607,0
DA:1462,0
DA:1465,0
DA:1478,0
DA:1481,0
DA:1544,0
DA:1545,0
DA:1551,0
DA:1552,0
DA:2067,0
DA:2069,0
DA:2421,0
DA:2425,0
BA:232,0
BA:232,0
BA:234,0
BA:234,0
BA:341,0
BA:341,0
LF:51
LH:0
end_of_record
SF:/usr/include/c++/4.3/bits/basic_string.tcc
FN:130,_ZNSs12_S_constructIPcEES0_T_S1_RKSaIcESt20forward_iterator_tag
FN:234,_ZNSsC1IPcEET_S1_RKSaIcE
DA:130,0
DA:133,0
DA:134,0
DA:137,0
DA:139,0
DA:142,0
DA:144,0
DA:146,0
DA:147,0
DA:149,0
DA:150,0
DA:152,0
DA:153,0
DA:234,0
DA:235,0
DA:236,0
BA:133,0
BA:133,0
BA:133,0
BA:133,0
BA:133,0
BA:133,0
BA:133,0
BA:133,0
BA:137,0
BA:137,0
BA:137,0
BA:137,0
BA:137,0
BA:137,0
LF:16
LH:0
end_of_record
SF:/usr/include/c++/4.3/bits/char_traits.h
FN:245,_ZNSt11char_traitsIcE6assignERcRKc
FN:261,_ZNSt11char_traitsIcE6lengthEPKc
FN:273,_ZNSt11char_traitsIcE4copyEPcPKcj
DA:245,0
DA:246,0
DA:261,0
DA:262,0
DA:273,0
DA:274,0
LF:6
LH:0
end_of_record
SF:/usr/include/c++/4.3/bits/ios_base.h
FN:125,_ZStorSt13_Ios_OpenmodeS_
FN:163,_ZStorSt12_Ios_IostateS_
DA:125,0
DA:126,0
DA:163,0
DA:164,0
LF:4
LH:0
end_of_record
SF:/usr/include/c++/4.3/bits/locale_facets.h
FN:1165,_ZNKSt5ctypeIcE13_M_widen_initEv
FN:871,_ZNKSt5ctypeIcE5widenEc
DA:871,0
DA:873,0
DA:874,0
DA:875,0
DA:876,0
DA:1165,0
DA:1168,0
DA:1169,0
DA:1170,0
DA:1172,0
DA:1174,0
DA:1175,0
DA:1176,0
BA:873,0
BA:873,0
BA:1168,0
BA:1168,0
BA:1174,0
BA:1174,0
LF:13
LH:0
end_of_record
SF:/usr/include/c++/4.3/bits/stl_algo.h
FN:5187,_ZSt16set_intersectionISt23_Rb_tree_const_iteratorIiES1_St15insert_iteratorISt3setIiSt4lessIiESaIiEEEET1_T_SA_T0_SB_S9_
FN:5055,_ZSt9set_unionISt23_Rb_tree_const_iteratorIiES1_St15insert_iteratorISt3setIiSt4lessIiESaIiEEEET1_T_SA_T0_SB_S9_
FN:5300,_ZSt14set_differenceISt23_Rb_tree_const_iteratorIiES1_St15insert_iteratorISt3setIiSt4lessIiESaIiEEEET1_T_SA_T0_SB_S9_
DA:5055,1
DA:5074,4
DA:5076,2
DA:5078,1
DA:5079,1
DA:5081,1
DA:5083,0
DA:5084,0
DA:5088,1
DA:5089,1
DA:5090,1
DA:5092,2
DA:5095,1
DA:5187,2
DA:5204,8
DA:5205,4
DA:5206,1
DA:5207,3
DA:5208,1
DA:5211,2
DA:5212,2
DA:5213,2
DA:5214,2
DA:5216,2
DA:5300,1
DA:5317,4
DA:5318,2
DA:5320,1
DA:5321,1
DA:5322,1
DA:5324,1
DA:5325,0
DA:5328,1
DA:5329,1
DA:5331,1
BA:5074,2
BA:5074,2
BA:5074,2
BA:5074,1
BA:5074,2
BA:5074,2
BA:5076,2
BA:5076,2
BA:5081,1
BA:5081,2
BA:5204,2
BA:5204,2
BA:5204,2
BA:5204,1
BA:5204,2
BA:5204,2
BA:5205,2
BA:5205,2
BA:5207,2
BA:5207,2
BA:5317,2
BA:5317,2
BA:5317,2
BA:5317,1
BA:5317,2
BA:5317,2
BA:5318,2
BA:5318,2
BA:5324,1
BA:5324,2
LF:35
LH:32
end_of_record
SF:/usr/include/c++/4.3/bits/stl_algobase.h
FN:286,_ZNSt12__miter_baseISt23_Rb_tree_const_iteratorIiELb0EE3__bES1_
FN:268,_ZNSt12__niter_baseISt23_Rb_tree_const_iteratorIiELb0EE3__bES1_
FN:268,_ZNSt12__niter_baseISt15insert_iteratorISt3setIiSt4lessIiESaIiEEELb0EE3__bES6_
FN:792,_ZNSt7__equalILb0EE5equalISt23_Rb_tree_const_iteratorIiES3_EEbT_S4_T0_
FN:815,_ZSt11__equal_auxISt23_Rb_tree_const_iteratorIiES1_EbT_S2_T0_
FN:944,_ZSt5equalISt23_Rb_tree_const_iteratorIiES1_EbT_S2_T0_
FN:309,_ZNSt11__copy_moveILb0ELb0ESt26bidirectional_iterator_tagE8__copy_mISt23_Rb_tree_const_iteratorIiESt15insert_iteratorISt3setIiSt4lessIiESaIiEEEEET0_T_SD_SC_
FN:385,_ZSt13__copy_move_aILb0ESt23_Rb_tree_const_iteratorIiESt15insert_iteratorISt3setIiSt4lessIiESaIiEEEET1_T0_SA_S9_
FN:430,_ZSt14__copy_move_a2ILb0ESt23_Rb_tree_const_iteratorIiESt15insert_iteratorISt3setIiSt4lessIiESaIiEEEET1_T0_SA_S9_
FN:456,_ZSt4copyISt23_Rb_tree_const_iteratorIiESt15insert_iteratorISt3setIiSt4lessIiESaIiEEEET0_T_SA_S9_
DA:268,15
DA:269,15
DA:286,6
DA:287,6
DA:309,3
DA:311,3
DA:312,0
DA:313,3
DA:385,3
DA:393,3
DA:396,3
DA:430,3
DA:435,3
DA:456,3
DA:466,3
DA:792,2
DA:794,4
DA:795,2
DA:796,0
DA:797,2
DA:815,2
DA:822,2
DA:824,2
DA:944,2
DA:956,2
BA:311,1
BA:311,2
BA:794,2
BA:794,2
BA:795,1
BA:795,2
LF:25
LH:23
end_of_record
SF:/usr/include/c++/4.3/bits/stl_function.h
FN:469,_ZNKSt9_IdentityIiEclERKi
FN:229,_ZNKSt4lessIiEclERKiS2_
DA:229,0
DA:230,0
DA:469,0
DA:470,0
LF:4
LH:0
end_of_record
SF:/usr/include/c++/4.3/bits/stl_iterator.h
FN:572,_ZNSt15insert_iteratorISt3setIiSt4lessIiESaIiEEEC1ERS4_St23_Rb_tree_const_iteratorIiE
FN:645,_ZSt8inserterISt3setIiSt4lessIiESaIiEESt23_Rb_tree_const_iteratorIiEESt15insert_iteratorIT_ERS8_T0_
FN:618,_ZNSt15insert_iteratorISt3setIiSt4lessIiESaIiEEEdeEv
FN:623,_ZNSt15insert_iteratorISt3setIiSt4lessIiESaIiEEEppEv
FN:599,_ZNSt15insert_iteratorISt3setIiSt4lessIiESaIiEEEaSERKi
DA:572,0
DA:573,0
DA:599,0
DA:601,0
DA:602,0
DA:603,0
DA:618,0
DA:619,0
DA:623,0
DA:624,0
DA:645,0
DA:648,0
LF:12
LH:0
end_of_record
SF:/usr/include/c++/4.3/bits/stl_iterator_base_funcs.h
FN:93,_ZSt10__distanceIPcENSt15iterator_traitsIT_E15difference_typeES2_S2_St26random_access_iterator_tag
FN:115,_ZSt8distanceIPcENSt15iterator_traitsIT_E15difference_typeES2_S2_
DA:93,0
DA:98,0
DA:115,0
DA:119,0
LF:4
LH:0
end_of_record
SF:/usr/include/c++/4.3/bits/stl_iterator_base_types.h
FN:111,_ZNSt8iteratorISt19output_iterator_tagvvvvEC2Ev
FN:111,_ZNSt8iteratorISt20forward_iterator_tagKivPS1_RS1_EC2Ev
FN:166,_ZSt19__iterator_categoryIPcENSt15iterator_traitsIT_E17iterator_categoryERKS2_
DA:111,6
DA:166,0
DA:167,0
LF:3
LH:1
end_of_record
SF:/usr/include/c++/4.3/bits/stl_pair.h
FN:88,_ZNSt4pairISt23_Rb_tree_const_iteratorIiEbEC1ERKS1_RKb
FN:88,_ZNSt4pairISt17_Rb_tree_iteratorIiEbEC1ERKS1_RKb
FN:88,_ZNSt4pairISt17_Rb_tree_iteratorIiES1_EC1ERKS1_S4_
DA:88,17
DA:89,17
LF:2
LH:2
end_of_record
SF:/usr/include/c++/4.3/bits/stl_set.h
FN:336,_ZNKSt3setIiSt4lessIiESaIiEE4sizeEv
FN:270,_ZNKSt3setIiSt4lessIiESaIiEE3endEv
FN:261,_ZNKSt3setIiSt4lessIiESaIiEE5beginEv
FN:331,_ZNKSt3setIiSt4lessIiESaIiEE5emptyEv
FN:503,_ZNSt3setIiSt4lessIiESaIiEE4findERKi
FN:141,_ZNSt3setIiSt4lessIiESaIiEEC1Ev
FN:378,_ZNSt3setIiSt4lessIiESaIiEE6insertERKi
FN:405,_ZNSt3setIiSt4lessIiESaIiEE6insertESt23_Rb_tree_const_iteratorIiERKi
FN:596,_ZSteqIiSt4lessIiESaIiEEbRKSt3setIT_T0_T1_ES9_
FN:471,_ZNSt3setIiSt4lessIiESaIiEE5clearEv
FN:93,_ZNSt3setIiSt4lessIiESaIiEED1Ev
FN:216,_ZNSt3setIiSt4lessIiESaIiEEaSERKS3_
FN:193,_ZNSt3setIiSt4lessIiESaIiEEC1ERKS3_
FN:431,_ZNSt3setIiSt4lessIiESaIiEE5eraseESt23_Rb_tree_const_iteratorIiE
FN:446,_ZNSt3setIiSt4lessIiESaIiEE5eraseERKi
DA:93,0
DA:141,0
DA:142,0
DA:193,4
DA:194,4
DA:216,7
DA:218,7
DA:219,7
DA:261,0
DA:262,0
DA:270,0
DA:271,0
DA:331,0
DA:332,0
DA:336,15
DA:337,15
DA:378,15
DA:381,15
DA:382,15
DA:405,0
DA:406,0
DA:431,3
DA:432,3
DA:446,2
DA:447,2
DA:471,0
DA:472,0
DA:503,25
DA:504,25
DA:596,2
DA:597,2
LF:31
LH:18
end_of_record
SF:/usr/include/c++/4.3/bits/stl_tree.h
FN:103,_ZNSt18_Rb_tree_node_base10_S_minimumEPS_
FN:117,_ZNSt18_Rb_tree_node_base10_S_maximumEPS_
FN:285,_ZNKSt23_Rb_tree_const_iteratorIiEeqERKS0_
FN:289,_ZNKSt23_Rb_tree_const_iteratorIiEneERKS0_
FN:452,_ZNSt8_Rb_treeIiiSt9_IdentityIiESt4lessIiESaIiEE8_M_beginEv
FN:243,_ZNSt23_Rb_tree_const_iteratorIiEC1ERKSt17_Rb_tree_iteratorIiE
FN:641,_ZNKSt8_Rb_treeIiiSt9_IdentityIiESt4lessIiESaIiEE4sizeEv
FN:247,_ZNKSt23_Rb_tree_const_iteratorIiEdeEv
FN:398,_ZNSt8_Rb_treeIiiSt9_IdentityIiESt4lessIiESaIiEE13_Rb_tree_implIS3_Lb0EED1Ev
FN:487,_ZNSt8_Rb_treeIiiSt9_IdentityIiESt4lessIiESaIiEE8_S_rightEPSt18_Rb_tree_node_base
FN:479,_ZNSt8_Rb_treeIiiSt9_IdentityIiESt4lessIiESaIiEE7_S_leftEPSt18_Rb_tree_node_base
FN:463,_ZNSt8_Rb_treeIiiSt9_IdentityIiESt4lessIiESaIiEE6_M_endEv
FN:168,_ZNSt17_Rb_tree_iteratorIiEC1EPSt13_Rb_tree_nodeIiE
FN:596,_ZNSt8_Rb_treeIiiSt9_IdentityIiESt4lessIiESaIiEE5beginEv
FN:210,_ZNKSt17_Rb_tree_iteratorIiEeqERKS0_
FN:347,_ZNKSt8_Rb_treeIiiSt9_IdentityIiESt4lessIiESaIiEE21_M_get_Node_allocatorEv
FN:432,_ZNKSt8_Rb_treeIiiSt9_IdentityIiESt4lessIiESaIiEE7_M_rootEv
FN:456,_ZNKSt8_Rb_treeIiiSt9_IdentityIiESt4lessIiESaIiEE8_M_beginEv
FN:428,_ZNSt8_Rb_treeIiiSt9_IdentityIiESt4lessIiESaIiEE7_M_rootEv
FN:503,_ZNSt8_Rb_treeIiiSt9_IdentityIiESt4lessIiESaIiEE10_S_minimumEPSt18_Rb_tree_node_base
FN:436,_ZNSt8_Rb_treeIiiSt9_IdentityIiESt4lessIiESaIiEE11_M_leftmostEv
FN:511,_ZNSt8_Rb_treeIiiSt9_IdentityIiESt4lessIiESaIiEE10_S_maximumEPSt18_Rb_tree_node_base
FN:444,_ZNSt8_Rb_treeIiiSt9_IdentityIiESt4lessIiESaIiEE12_M_rightmostEv
FN:610,_ZNSt8_Rb_treeIiiSt9_IdentityIiESt4lessIiESaIiEE3endEv
FN:240,_ZNSt23_Rb_tree_const_iteratorIiEC1EPKSt13_Rb_tree_nodeIiE
FN:614,_ZNKSt8_Rb_treeIiiSt9_IdentityIiESt4lessIiESaIiEE3endEv
FN:603,_ZNKSt8_Rb_treeIiiSt9_IdentityIiESt4lessIiESaIiEE5beginEv
FN:637,_ZNKSt8_Rb_treeIiiSt9_IdentityIiESt4lessIiESaIiEE5emptyEv
FN:491,_ZNSt8_Rb_treeIiiSt9_IdentityIiESt4lessIiESaIiEE8_S_rightEPKSt18_Rb_tree_node_base
FN:415,_ZNSt8_Rb_treeIiiSt9_IdentityIiESt4lessIiESaIiEE13_Rb_tree_implIS3_Lb0EE13_M_initializeEv
FN:471,_ZNSt8_Rb_treeIiiSt9_IdentityIiESt4lessIiESaIiEE8_S_valueEPKSt13_Rb_tree_nodeIiE
FN:475,_ZNSt8_Rb_treeIiiSt9_IdentityIiESt4lessIiESaIiEE6_S_keyEPKSt13_Rb_tree_nodeIiE
FN:954,_ZNSt8_Rb_treeIiiSt9_IdentityIiESt4lessIiESaIiEE14_M_lower_boundEPSt13_Rb_tree_nodeIiES8_RKi
FN:495,_ZNSt8_Rb_treeIiiSt9_IdentityIiESt4lessIiESaIiEE8_S_valueEPKSt18_Rb_tree_node_base
FN:499,_ZNSt8_Rb_treeIiiSt9_IdentityIiESt4lessIiESaIiEE6_S_keyEPKSt18_Rb_tree_node_base
FN:1390,_ZNSt8_Rb_treeIiiSt9_IdentityIiESt4lessIiESaIiEE4findERKi
FN:483,_ZNSt8_Rb_treeIiiSt9_IdentityIiESt4lessIiESaIiEE7_S_leftEPKSt18_Rb_tree_node_base
FN:403,_ZNSt8_Rb_treeIiiSt9_IdentityIiESt4lessIiESaIiEE13_Rb_tree_implIS3_Lb0EEC1Ev
FN:562,_ZNSt8_Rb_treeIiiSt9_IdentityIiESt4lessIiESaIiEEC1Ev
FN:408,_ZNSt8_Rb_treeIiiSt9_IdentityIiESt4lessIiESaIiEE13_Rb_tree_implIS3_Lb0EEC1ERKS3_RKSaISt13_Rb_tree_nodeIiEE
FN:986,_ZNSt8_Rb_treeIiiSt9_IdentityIiESt4lessIiESaIiEE14_M_upper_boundEPSt13_Rb_tree_nodeIiES8_RKi
FN:1019,_ZNSt8_Rb_treeIiiSt9_IdentityIiESt4lessIiESaIiEE11equal_rangeERKi
FN:214,_ZNKSt17_Rb_tree_iteratorIiEneERKS0_
FN:351,_ZNKSt8_Rb_treeIiiSt9_IdentityIiESt4lessIiESaIiEE13get_allocatorEv
FN:270,_ZNSt23_Rb_tree_const_iteratorIiEmmEv
FN:356,_ZNSt8_Rb_treeIiiSt9_IdentityIiESt4lessIiESaIiEE11_M_get_nodeEv
FN:364,_ZNSt8_Rb_treeIiiSt9_IdentityIiESt4lessIiESaIiEE14_M_create_nodeERKi
FN:846,_ZNSt8_Rb_treeIiiSt9_IdentityIiESt4lessIiESaIiEE10_M_insert_EPKSt18_Rb_tree_node_baseS8_RKi
FN:378,_ZNSt8_Rb_treeIiiSt9_IdentityIiESt4lessIiESaIiEE13_M_clone_nodeEPKSt13_Rb_tree_nodeIiE
FN:195,_ZNSt17_Rb_tree_iteratorIiEmmEv
FN:1133,_ZNSt8_Rb_treeIiiSt9_IdentityIiESt4lessIiESaIiEE16_M_insert_uniqueERKi
FN:255,_ZNSt23_Rb_tree_const_iteratorIiEppEv
FN:1178,_ZNSt8_Rb_treeIiiSt9_IdentityIiESt4lessIiESaIiEE17_M_insert_unique_ESt23_Rb_tree_const_iteratorIiERKi
FN:745,_ZSteqIiiSt9_IdentityIiESt4lessIiESaIiEEbRKSt8_Rb_treeIT_T0_T1_T2_T3_ESD_
FN:360,_ZNSt8_Rb_treeIiiSt9_IdentityIiESt4lessIiESaIiEE11_M_put_nodeEPSt13_Rb_tree_nodeIiE
FN:388,_ZNSt8_Rb_treeIiiSt9_IdentityIiESt4lessIiESaIiEE15_M_destroy_nodeEPSt13_Rb_tree_nodeIiE
FN:936,_ZNSt8_Rb_treeIiiSt9_IdentityIiESt4lessIiESaIiEE8_M_eraseEPSt13_Rb_tree_nodeIiE
FN:695,_ZNSt8_Rb_treeIiiSt9_IdentityIiESt4lessIiESaIiEE5clearEv
FN:584,_ZNSt8_Rb_treeIiiSt9_IdentityIiESt4lessIiESaIiEED1Ev
FN:900,_ZNSt8_Rb_treeIiiSt9_IdentityIiESt4lessIiESaIiEE7_M_copyEPKSt13_Rb_tree_nodeIiEPS7_
FN:824,_ZNSt8_Rb_treeIiiSt9_IdentityIiESt4lessIiESaIiEEaSERKS5_
FN:568,_ZNSt8_Rb_treeIiiSt9_IdentityIiESt4lessIiESaIiEEC1ERKS5_
FN:1327,_ZNSt8_Rb_treeIiiSt9_IdentityIiESt4lessIiESaIiEE5eraseESt23_Rb_tree_const_iteratorIiE
FN:1313,_ZNSt8_Rb_treeIiiSt9_IdentityIiESt4lessIiESaIiEE5eraseESt17_Rb_tree_iteratorIiE
FN:187,_ZNSt17_Rb_tree_iteratorIiEppEi
FN:1353,_ZNSt8_Rb_treeIiiSt9_IdentityIiESt4lessIiESaIiEE5eraseESt17_Rb_tree_iteratorIiES7_
FN:1341,_ZNSt8_Rb_treeIiiSt9_IdentityIiESt4lessIiESaIiEE5eraseERKi
DA:103,7
DA:105,7
DA:106,7
DA:117,7
DA:119,7
DA:120,7
DA:168,0
DA:169,0
DA:187,0
DA:189,0
DA:190,0
DA:195,0
DA:197,0
DA:198,0
DA:210,0
DA:211,0
DA:214,0
DA:215,0
DA:240,0
DA:241,0
DA:243,0
DA:244,0
DA:247,0
DA:248,0
DA:255,0
DA:257,0
DA:258,0
DA:270,0
DA:272,0
DA:273,0
DA:285,0
DA:286,0
DA:289,0
DA:290,0
DA:347,0
DA:348,0
DA:351,0
DA:352,0
DA:356,0
DA:357,0
DA:360,0
DA:361,0
DA:364,0
DA:366,0
DA:368,0
DA:374,0
DA:378,8
DA:380,8
DA:381,8
DA:382,8
DA:383,8
DA:384,8
DA:388,0
DA:390,0
DA:391,0
DA:392,0
DA:398,0
DA:403,0
DA:405,0
DA:406,0
DA:408,4
DA:410,4
DA:411,4
DA:415,0
DA:417,0
DA:418,0
DA:419,0
DA:420,0
DA:421,0
DA:428,30
DA:429,30
DA:432,11
DA:433,11
DA:436,0
DA:437,0
DA:444,0
DA:445,0
DA:452,0
DA:453,0
DA:456,7
DA:459,7
DA:463,0
DA:464,0
DA:471,0
DA:472,0
DA:475,0
DA:476,0
DA:479,0
DA:480,0
DA:483,8
DA:484,8
DA:487,0
DA:488,0
DA:491,0
DA:492,0
DA:495,0
DA:496,0
DA:499,0
DA:500,0
DA:503,7
DA:504,7
DA:511,7
DA:512,7
DA:562,0
DA:568,4
DA:569,4
DA:571,4
DA:573,2
DA:574,2
DA:575,2
DA:576,2
DA:578,4
DA:584,0
DA:585,0
DA:596,0
DA:599,0
DA:603,0
DA:606,0
DA:610,36
DA:611,36
DA:614,0
DA:617,0
DA:637,0
DA:638,0
DA:641,0
DA:642,0
DA:695,9
DA:697,9
DA:698,9
DA:699,9
DA:700,9
DA:701,9
DA:702,9
DA:745,2
DA:748,2
DA:824,7
DA:826,7
DA:829,7
DA:830,7
DA:831,7
DA:833,5
DA:834,5
DA:835,5
DA:836,5
DA:839,7
DA:846,0
DA:850,0
DA:852,0
DA:854,0
DA:857,0
DA:858,0
DA:900,8
DA:903,8
DA:904,8
DA:908,8
DA:909,1
DA:910,8
DA:911,8
DA:913,16
DA:915,0
DA:916,0
DA:917,0
DA:918,0
DA:919,0
DA:920,0
DA:921,0
DA:924,0
DA:926,0
DA:927,0
DA:929,8
DA:936,0
DA:939,0
DA:941,0
DA:942,0
DA:943,0
DA:944,0
DA:946,0
DA:954,27
DA:956,87
DA:957,33
DA:958,23
DA:960,10
DA:961,27
DA:986,2
DA:988,4
DA:989,0
DA:990,0
DA:992,0
DA:993,2
DA:1019,2
DA:1021,2
DA:1022,2
DA:1023,4
DA:1025,2
DA:1026,0
DA:1027,2
DA:1028,0
DA:1031,2
DA:1032,2
DA:1033,2
DA:1036,2
DA:1040,0
DA:1133,0
DA:1135,0
DA:1136,0
DA:1137,0
DA:1138,0
DA:1140,0
DA:1141,0
DA:1142,0
DA:1144,0
DA:1145,0
DA:1147,0
DA:1148,0
DA:1150,0
DA:1152,0
DA:1153,0
DA:1154,0
DA:1178,0
DA:1181,0
DA:1183,0
DA:1186,0
DA:1188,0
DA:1190,0
DA:1194,0
DA:1195,0
DA:1196,0
DA:1197,0
DA:1200,0
DA:1201,0
DA:1204,0
DA:1207,0
DA:1209,0
DA:1213,0
DA:1214,0
DA:1215,0
DA:1216,0
DA:1219,0
DA:1220,0
DA:1222,0
DA:1225,0
DA:1230,0
DA:1313,0
DA:1318,0
DA:1319,0
DA:1320,0
DA:1321,0
DA:1327,3
DA:1332,3
DA:1333,3
DA:1334,3
DA:1335,3
DA:1341,2
DA:1343,2
DA:1344,2
DA:1345,2
DA:1346,2
DA:1353,2
DA:1355,2
DA:1356,2
DA:1358,0
DA:1359,0
DA:1360,2
DA:1390,25
DA:1392,25
DA:1395,25
BA:105,1
BA:105,2
BA:119,2
BA:119,2
BA:571,2
BA:571,2
BA:748,2
BA:748,1
BA:748,2
BA:748,1
BA:826,2
BA:826,1
BA:831,2
BA:831,2
BA:850,0
BA:850,0
BA:850,0
BA:850,0
BA:850,0
BA:850,0
BA:908,2
BA:908,2
BA:913,1
BA:913,2
BA:918,0
BA:918,0
BA:939,0
BA:939,0
BA:956,2
BA:956,2
BA:957,2
BA:957,2
BA:988,1
BA:988,2
BA:989,0
BA:989,0
BA:1023,2
BA:1023,1
BA:1025,1
BA:1025,2
BA:1027,1
BA:1027,2
BA:1138,0
BA:1138,0
BA:1142,0
BA:1142,0
BA:1145,0
BA:1145,0
BA:1147,0
BA:1147,0
BA:1152,0
BA:1152,0
BA:1181,0
BA:1181,0
BA:1183,0
BA:1183,0
BA:1183,0
BA:1183,0
BA:1183,0
BA:1183,0
BA:1190,0
BA:1190,0
BA:1195,0
BA:1195,0
BA:1197,0
BA:1197,0
BA:1200,0
BA:1200,0
BA:1209,0
BA:1209,0
BA:1214,0
BA:1214,0
BA:1216,0
BA:1216,0
BA:1219,0
BA:1219,0
BA:1355,2
BA:1355,1
BA:1355,2
BA:1355,1
BA:1355,2
BA:1355,1
BA:1358,0
BA:1358,0
BA:1395,2
BA:1395,2
BA:1395,2
BA:1395,2
LF:266
LH:101
end_of_record
SF:/usr/include/c++/4.3/ext/atomicity.h
FN:67,_ZN9__gnu_cxxL25__exchange_and_add_singleEPii
FN:50,_ZN9__gnu_cxxL18__exchange_and_addEPVii
FN:80,_ZN9__gnu_cxxL27__exchange_and_add_dispatchEPii
DA:50,0
DA:51,0
DA:67,0
DA:69,0
DA:70,0
DA:71,0
DA:80,0
DA:83,0
DA:84,0
DA:86,0
BA:83,0
BA:83,0
LF:10
LH:0
end_of_record
SF:/usr/include/c++/4.3/ext/new_allocator.h
FN:69,_ZN9__gnu_cxx13new_allocatorIcEC2Ev
FN:76,_ZN9__gnu_cxx13new_allocatorIcED2Ev
FN:76,_ZN9__gnu_cxx13new_allocatorISt13_Rb_tree_nodeIiEED2Ev
FN:71,_ZN9__gnu_cxx13new_allocatorIcEC2ERKS1_
FN:118,_ZN9__gnu_cxx13new_allocatorIiE7destroyEPi
FN:69,_ZN9__gnu_cxx13new_allocatorISt13_Rb_tree_nodeIiEEC2Ev
FN:76,_ZN9__gnu_cxx13new_allocatorIiED2Ev
FN:107,_ZN9__gnu_cxx13new_allocatorIiE9constructEPiRKi
FN:71,_ZN9__gnu_cxx13new_allocatorISt13_Rb_tree_nodeIiEEC2ERKS3_
FN:69,_ZN9__gnu_cxx13new_allocatorIiEC2Ev
FN:101,_ZNK9__gnu_cxx13new_allocatorISt13_Rb_tree_nodeIiEE8max_sizeEv
FN:87,_ZN9__gnu_cxx13new_allocatorISt13_Rb_tree_nodeIiEE8allocateEjPKv
FN:97,_ZN9__gnu_cxx13new_allocatorISt13_Rb_tree_nodeIiEE10deallocateEPS2_j
DA:69,0
DA:71,4
DA:76,0
DA:87,0
DA:89,0
DA:90,0
DA:92,0
DA:97,0
DA:98,0
DA:101,0
DA:102,0
DA:107,0
DA:108,0
DA:118,0
BA:89,0
BA:89,0
BA:108,0
BA:108,0
LF:14
LH:1
end_of_record
SF:/usr/include/c++/4.3/ext/type_traits.h
FN:154,_ZN9__gnu_cxx17__is_null_pointerIcEEbPT_
DA:154,0
DA:155,0
LF:2
LH:0
end_of_record
SF:/usr/include/c++/4.3/i486-linux-gnu/bits/gthr-default.h
FN:212,_ZL18__gthread_active_pv
DA:212,0
DA:216,0
LF:2
LH:0
end_of_record
SF:/usr/include/c++/4.3/iosfwd
FN:68,_ZNSt15basic_stringbufIcSt11char_traitsIcESaIcEED1Ev
DA:68,0
BA:68,0
BA:68,0
LF:1
LH:0
end_of_record
SF:/usr/include/c++/4.3/iostream
DA:77,1
LF:1
LH:1
end_of_record
SF:/usr/include/c++/4.3/new
FN:105,_ZnwjPv
DA:105,0
LF:1
LH:0
end_of_record
SF:/usr/include/c++/4.3/ostream
FN:112,_ZNSolsEPFRSoS_E
FN:365,_ZNSoC2Ev
FN:95,_ZNSoD2Ev
FN:512,_ZStlsISt11char_traitsIcEERSt13basic_ostreamIcT_ES5_PKc
FN:566,_ZSt5flushIcSt11char_traitsIcEERSt13basic_ostreamIT_T0_ES6_
FN:545,_ZSt4endlIcSt11char_traitsIcEERSt13basic_ostreamIT_T0_ES6_
FN:195,_ZNSolsEj
DA:95,0
DA:112,0
DA:117,0
DA:195,0
DA:199,0
DA:365,0
DA:366,0
DA:512,0
DA:514,0
DA:515,0
DA:517,0
DA:519,0
DA:545,0
DA:546,0
DA:566,0
DA:567,0
BA:95,0
BA:95,0
BA:95,0
BA:95,0
BA:514,0
BA:514,0
LF:16
LH:0
end_of_record
SF:/usr/include/c++/4.3/sstream
FN:96,_ZNSt15basic_stringbufIcSt11char_traitsIcESaIcEEC1ESt13_Ios_Openmode
FN:402,_ZNSt19basic_ostringstreamIcSt11char_traitsIcESaIcEEC1ESt13_Ios_Openmode
FN:431,_ZNSt19basic_ostringstreamIcSt11char_traitsIcESaIcEED1Ev
FN:124,_ZNKSt15basic_stringbufIcSt11char_traitsIcESaIcEE3strEv
FN:450,_ZNKSt19basic_ostringstreamIcSt11char_traitsIcESaIcEE3strEv
DA:96,0
DA:97,0
DA:98,0
DA:124,0
DA:126,0
DA:127,0
DA:130,0
DA:131,0
DA:133,0
DA:136,0
DA:137,0
DA:402,0
DA:403,0
DA:404,0
DA:431,0
DA:432,0
DA:450,0
DA:451,0
BA:127,0
BA:127,0
BA:130,0
BA:130,0
BA:432,0
BA:432,0
BA:432,0
BA:432,0
BA:432,0
BA:432,0
LF:18
LH:0
end_of_record
SF:/usr/include/c++/4.3/streambuf
FN:513,_ZNKSt15basic_streambufIcSt11char_traitsIcEE4pptrEv
