libntrack-qt4.so.1 libntrack-qt4-1 #MINVER#
 _ZN15QNtrackListener11qt_metacallEN11QMetaObject4CallEiPPv@Base 005
 _ZN15QNtrackListener11qt_metacastEPKc@Base 005
 _ZN15QNtrackListener12monitorEventE14ntrack_event_t@Base 005
 _ZN15QNtrackListener12stateChangedE14ntrack_state_tS0_@Base 005
 _ZN15QNtrackListener16staticMetaObjectE@Base 005
 _ZN15QNtrackListenerD0Ev@Base 005
 _ZN15QNtrackListenerD1Ev@Base 005
 _ZN15QNtrackListenerD2Ev@Base 016
 _ZN7QNtrack11qt_metacallEN11QMetaObject4CallEiPPv@Base 005
 _ZN7QNtrack11qt_metacastEPKc@Base 005
 _ZN7QNtrack12monitorEventE14ntrack_event_t@Base 005
 _ZN7QNtrack12networkStateEv@Base 005
 _ZN7QNtrack12stateChangedE14ntrack_state_tS0_@Base 005
 _ZN7QNtrack15monitorCallbackEP15_ntrack_monitor14ntrack_event_tPv@Base 005
 _ZN7QNtrack15socketActivatedEi@Base 005
 _ZN7QNtrack16staticMetaObjectE@Base 005
 _ZN7QNtrack19processMonitorEventE14ntrack_event_t@Base 005
 _ZN7QNtrack4initEPiPPPc@Base 010
 _ZN7QNtrack8instanceEv@Base 005
 _ZN7QNtrackC1Ev@Base 005
 _ZN7QNtrackC2Ev@Base 005
 _ZN7QNtrackD0Ev@Base 005
 _ZN7QNtrackD1Ev@Base 005
 _ZN7QNtrackD2Ev@Base 005
 _ZNK15QNtrackListener10metaObjectEv@Base 005
 _ZNK7QNtrack10metaObjectEv@Base 005
 _ZTI15QNtrackListener@Base 005
 _ZTI7QNtrack@Base 005
 _ZTS15QNtrackListener@Base 005
 _ZTS7QNtrack@Base 005
 _ZTV15QNtrackListener@Base 005
 _ZTV7QNtrack@Base 005
