# SymbolsHelper-Confirmed: 0.3 amd64 i386
libtins.so.1 libtins1 #MINVER#
 _ZN4Tins10Dot11CFEndC1EPKhj@Base 0.3
 (subst)_ZN4Tins10Dot11CFEndC1ERKNS_9HWAddressIL{size_t}6EhEES4_PNS_3PDUE@Base 0.3
 _ZN4Tins10Dot11CFEndC2EPKhj@Base 0.3
 (subst)_ZN4Tins10Dot11CFEndC2ERKNS_9HWAddressIL{size_t}6EhEES4_PNS_3PDUE@Base 0.3
 _ZN4Tins10Dot11CFEndD0Ev@Base 0.3
 _ZN4Tins10Dot11CFEndD1Ev@Base 0.3
 _ZN4Tins10Dot11CFEndD2Ev@Base 0.3
 _ZN4Tins10EthernetII12clone_packetEPKhj@Base 0.3
 _ZN4Tins10EthernetII12payload_typeEt@Base 0.3
 _ZN4Tins10EthernetII13recv_responseERNS_12PacketSenderE@Base 0.3
 _ZN4Tins10EthernetII16matches_responseEPhj@Base 0.3
 _ZN4Tins10EthernetII19write_serializationEPhjPKNS_3PDUE@Base 0.3
 _ZN4Tins10EthernetII4sendERNS_12PacketSenderE@Base 0.3
 _ZN4Tins10EthernetII5ifaceERKNS_16NetworkInterfaceE@Base 0.3
 (subst)_ZN4Tins10EthernetII8dst_addrERKNS_9HWAddressIL{size_t}6EhEE@Base 0.3
 (subst)_ZN4Tins10EthernetII8src_addrERKNS_9HWAddressIL{size_t}6EhEE@Base 0.3
 _ZN4Tins10EthernetII9BROADCASTE@Base 0.3
 _ZN4Tins10EthernetIIC1EPKhj@Base 0.3
 (subst)_ZN4Tins10EthernetIIC1ERKNS_16NetworkInterfaceERKNS_9HWAddressIL{size_t}6EhEES7_PNS_3PDUE@Base 0.3
 _ZN4Tins10EthernetIIC2EPKhj@Base 0.3
 (subst)_ZN4Tins10EthernetIIC2ERKNS_16NetworkInterfaceERKNS_9HWAddressIL{size_t}6EhEES7_PNS_3PDUE@Base 0.3
 _ZN4Tins10EthernetIID0Ev@Base 0.3
 _ZN4Tins10EthernetIID1Ev@Base 0.3
 _ZN4Tins10EthernetIID2Ev@Base 0.3
 (subst)_ZN4Tins10check_sizeEj{size_t}@Base 0.3
 _ZN4Tins11BaseSniffer10set_filterERKSs@Base 0.3
 _ZN4Tins11BaseSniffer10stop_sniffEv@Base 0.3
 _ZN4Tins11BaseSniffer11next_packetEv@Base 0.3
 _ZN4Tins11BaseSniffer18compile_set_filterERKSsR11bpf_program@Base 0.3
 _ZN4Tins11BaseSniffer4initEP4pcapRKSsj@Base 0.3
 _ZN4Tins11BaseSniffer6get_fdEv@Base 0.3
 _ZN4Tins11BaseSnifferC1EOS0_@Base 0.3
 _ZN4Tins11BaseSnifferC1Ev@Base 0.3
 _ZN4Tins11BaseSnifferC2EOS0_@Base 0.3
 _ZN4Tins11BaseSnifferC2Ev@Base 0.3
 _ZN4Tins11BaseSnifferD0Ev@Base 0.3
 _ZN4Tins11BaseSnifferD1Ev@Base 0.3
 _ZN4Tins11BaseSnifferD2Ev@Base 0.3
 _ZN4Tins11BaseSnifferaSEOS0_@Base 0.3
 _ZN4Tins11Dot11Beacon22write_fixed_parametersEPhj@Base 0.3
 _ZN4Tins11Dot11Beacon8intervalEt@Base 0.3
 (subst)_ZN4Tins11Dot11Beacon9timestampE{uint64_t}@Base 0.3
 _ZN4Tins11Dot11BeaconC1EPKhj@Base 0.3
 (subst)_ZN4Tins11Dot11BeaconC1ERKNS_9HWAddressIL{size_t}6EhEES4_@Base 0.3
 _ZN4Tins11Dot11BeaconC2EPKhj@Base 0.3
 (subst)_ZN4Tins11Dot11BeaconC2ERKNS_9HWAddressIL{size_t}6EhEES4_@Base 0.3
 _ZN4Tins11Dot11BeaconD0Ev@Base 0.3
 _ZN4Tins11Dot11BeaconD1Ev@Base 0.3
 _ZN4Tins11Dot11BeaconD2Ev@Base 0.3
 _ZN4Tins11Dot11PSPollC1EPKhj@Base 0.3
 (subst)_ZN4Tins11Dot11PSPollC1ERKNS_9HWAddressIL{size_t}6EhEES4_PNS_3PDUE@Base 0.3
 _ZN4Tins11Dot11PSPollC2EPKhj@Base 0.3
 (subst)_ZN4Tins11Dot11PSPollC2ERKNS_9HWAddressIL{size_t}6EhEES4_PNS_3PDUE@Base 0.3
 _ZN4Tins11Dot11PSPollD0Ev@Base 0.3
 _ZN4Tins11Dot11PSPollD1Ev@Base 0.3
 _ZN4Tins11Dot11PSPollD2Ev@Base 0.3
 _ZN4Tins11FileSnifferC1ERKSsS2_@Base 0.3
 _ZN4Tins11FileSnifferC2ERKSsS2_@Base 0.3
 _ZN4Tins11FileSnifferD0Ev@Base 0.3
 _ZN4Tins11FileSnifferD1Ev@Base 0.3
 _ZN4Tins11FileSnifferD2Ev@Base 0.3
 _ZN4Tins11IPv4Address9ip_to_intERKSs@Base 0.3
 _ZN4Tins11IPv4AddressC1EPKc@Base 0.3
 _ZN4Tins11IPv4AddressC1ERKSs@Base 0.3
 _ZN4Tins11IPv4AddressC1Ej@Base 0.3
 _ZN4Tins11IPv4AddressC2EPKc@Base 0.3
 _ZN4Tins11IPv4AddressC2ERKSs@Base 0.3
 _ZN4Tins11IPv4AddressC2Ej@Base 0.3
 _ZN4Tins11IPv6Address17malformed_addressD0Ev@Base 0.3
 _ZN4Tins11IPv6Address17malformed_addressD1Ev@Base 0.3
 _ZN4Tins11IPv6Address17malformed_addressD2Ev@Base 0.3
 _ZN4Tins11IPv6Address4initEPKc@Base 0.3
 _ZN4Tins11IPv6AddressC1EPKc@Base 0.3
 _ZN4Tins11IPv6AddressC1EPKh@Base 0.3
 _ZN4Tins11IPv6AddressC1ERKSs@Base 0.3
 _ZN4Tins11IPv6AddressC1Ev@Base 0.3
 _ZN4Tins11IPv6AddressC2EPKc@Base 0.3
 _ZN4Tins11IPv6AddressC2EPKh@Base 0.3
 _ZN4Tins11IPv6AddressC2ERKSs@Base 0.3
 _ZN4Tins11IPv6AddressC2Ev@Base 0.3
 _ZN4Tins12Dot11ControlC1EPKhj@Base 0.3
 (subst)_ZN4Tins12Dot11ControlC1ERKNS_9HWAddressIL{size_t}6EhEEPNS_3PDUE@Base 0.3
 _ZN4Tins12Dot11ControlC2EPKhj@Base 0.3
 (subst)_ZN4Tins12Dot11ControlC2ERKNS_9HWAddressIL{size_t}6EhEEPNS_3PDUE@Base 0.3
 _ZN4Tins12Dot11ControlD0Ev@Base 0.3
 _ZN4Tins12Dot11ControlD1Ev@Base 0.3
 _ZN4Tins12Dot11ControlD2Ev@Base 0.3
 _ZN4Tins12Dot11QoSData11qos_controlEt@Base 0.3
 _ZN4Tins12Dot11QoSData22write_fixed_parametersEPhj@Base 0.3
 _ZN4Tins12Dot11QoSDataC1EPKhj@Base 0.3
 (subst)_ZN4Tins12Dot11QoSDataC1ERKNS_9HWAddressIL{size_t}6EhEES4_PNS_3PDUE@Base 0.3
 _ZN4Tins12Dot11QoSDataC2EPKhj@Base 0.3
 (subst)_ZN4Tins12Dot11QoSDataC2ERKNS_9HWAddressIL{size_t}6EhEES4_PNS_3PDUE@Base 0.3
 _ZN4Tins12Dot11QoSDataD0Ev@Base 0.3
 _ZN4Tins12Dot11QoSDataD1Ev@Base 0.3
 _ZN4Tins12Dot11QoSDataD2Ev@Base 0.3
 _ZN4Tins12PacketSender12close_socketENS0_10SocketTypeERKNS_16NetworkInterfaceE@Base 0.3
 _ZN4Tins12PacketSender14open_l2_socketERKNS_16NetworkInterfaceE@Base 0.3
 _ZN4Tins12PacketSender14open_l3_socketENS0_10SocketTypeE@Base 0.3
 _ZN4Tins12PacketSender15DEFAULT_TIMEOUTE@Base 0.3
 _ZN4Tins12PacketSender15recv_match_loopEiRNS_3PDUEP8sockaddrj@Base 0.3
 _ZN4Tins12PacketSender16get_ether_socketERKNS_16NetworkInterfaceE@Base 0.3
 _ZN4Tins12PacketSender16timeval_subtractEP7timevalS2_S2_@Base 0.3
 _ZN4Tins12PacketSender18INVALID_RAW_SOCKETE@Base 0.3
 _ZN4Tins12PacketSender4sendERNS_3PDUE@Base 0.3
 _ZN4Tins12PacketSender7recv_l2ERNS_3PDUEP8sockaddrjRKNS_16NetworkInterfaceE@Base 0.3
 _ZN4Tins12PacketSender7recv_l3ERNS_3PDUEP8sockaddrjNS0_10SocketTypeE@Base 0.3
 _ZN4Tins12PacketSender7send_l2ERNS_3PDUEP8sockaddrjRKNS_16NetworkInterfaceE@Base 0.3
 _ZN4Tins12PacketSender7send_l3ERNS_3PDUEP8sockaddrjNS0_10SocketTypeE@Base 0.3
 _ZN4Tins12PacketSender9find_typeENS0_10SocketTypeE@Base 0.3
 _ZN4Tins12PacketSender9send_recvERNS_3PDUE@Base 0.3
 _ZN4Tins12PacketSenderC1Ejj@Base 0.3
 _ZN4Tins12PacketSenderC2Ejj@Base 0.3
 _ZN4Tins12PacketSenderD1Ev@Base 0.3
 _ZN4Tins12PacketSenderD2Ev@Base 0.3
 _ZN4Tins12PacketWriter5writeERNS_3PDUE@Base 0.3
 _ZN4Tins12PacketWriterC1EOS0_@Base 0.3
 _ZN4Tins12PacketWriterC1ERKSsNS0_8LinkTypeE@Base 0.3
 _ZN4Tins12PacketWriterC2EOS0_@Base 0.3
 _ZN4Tins12PacketWriterC2ERKSsNS0_8LinkTypeE@Base 0.3
 _ZN4Tins12PacketWriterD1Ev@Base 0.3
 _ZN4Tins12PacketWriterD2Ev@Base 0.3
 _ZN4Tins12PacketWriteraSEOS0_@Base 0.3
 _ZN4Tins13Dot11BlockAck11bar_controlEt@Base 0.3
 _ZN4Tins13Dot11BlockAck14start_sequenceEt@Base 0.3
 _ZN4Tins13Dot11BlockAck16write_ext_headerEPhj@Base 0.3
 _ZN4Tins13Dot11BlockAck6bitmapEPKh@Base 0.3
 _ZN4Tins13Dot11BlockAckC1EPKhj@Base 0.3
 (subst)_ZN4Tins13Dot11BlockAckC1ERKNS_9HWAddressIL{size_t}6EhEES4_PNS_3PDUE@Base 0.3
 _ZN4Tins13Dot11BlockAckC2EPKhj@Base 0.3
 (subst)_ZN4Tins13Dot11BlockAckC2ERKNS_9HWAddressIL{size_t}6EhEES4_PNS_3PDUE@Base 0.3
 _ZN4Tins13Dot11BlockAckD0Ev@Base 0.3
 _ZN4Tins13Dot11BlockAckD1Ev@Base 0.3
 _ZN4Tins13Dot11BlockAckD2Ev@Base 0.3
 _ZN4Tins13Dot11Disassoc11reason_codeEt@Base 0.3
 _ZN4Tins13Dot11Disassoc22write_fixed_parametersEPhj@Base 0.3
 _ZN4Tins13Dot11DisassocC1EPKhj@Base 0.3
 (subst)_ZN4Tins13Dot11DisassocC1ERKNS_9HWAddressIL{size_t}6EhEES4_@Base 0.3
 _ZN4Tins13Dot11DisassocC2EPKhj@Base 0.3
 (subst)_ZN4Tins13Dot11DisassocC2ERKNS_9HWAddressIL{size_t}6EhEES4_@Base 0.3
 _ZN4Tins13Dot11DisassocD0Ev@Base 0.3
 _ZN4Tins13Dot11DisassocD1Ev@Base 0.3
 _ZN4Tins13Dot11DisassocD2Ev@Base 0.3
 _ZN4Tins13Dot11EndCFAckC1EPKhj@Base 0.3
 (subst)_ZN4Tins13Dot11EndCFAckC1ERKNS_9HWAddressIL{size_t}6EhEES4_PNS_3PDUE@Base 0.3
 _ZN4Tins13Dot11EndCFAckC2EPKhj@Base 0.3
 (subst)_ZN4Tins13Dot11EndCFAckC2ERKNS_9HWAddressIL{size_t}6EhEES4_PNS_3PDUE@Base 0.3
 _ZN4Tins13Dot11EndCFAckD0Ev@Base 0.3
 _ZN4Tins13Dot11EndCFAckD1Ev@Base 0.3
 _ZN4Tins13Dot11EndCFAckD2Ev@Base 0.3
 (subst)_ZN4Tins14Dot11ControlTA11target_addrERKNS_9HWAddressIL{size_t}6EhEE@Base 0.3
 _ZN4Tins14Dot11ControlTA16write_ext_headerEPhj@Base 0.3
 _ZN4Tins14Dot11ControlTAC1EPKhj@Base 0.3
 (subst)_ZN4Tins14Dot11ControlTAC1ERKNS_9HWAddressIL{size_t}6EhEES4_PNS_3PDUE@Base 0.3
 _ZN4Tins14Dot11ControlTAC2EPKhj@Base 0.3
 (subst)_ZN4Tins14Dot11ControlTAC2ERKNS_9HWAddressIL{size_t}6EhEES4_PNS_3PDUE@Base 0.3
 _ZN4Tins14Dot11ControlTAD0Ev@Base 0.3
 _ZN4Tins14Dot11ControlTAD1Ev@Base 0.3
 _ZN4Tins14Dot11ControlTAD2Ev@Base 0.3
 _ZN4Tins14NamedDNSRRImplC1ERKSs@Base 0.3
 _ZN4Tins14NamedDNSRRImplC2ERKSs@Base 0.3
 _ZN4Tins14NamedDNSRRImplD0Ev@Base 0.3
 _ZN4Tins14NamedDNSRRImplD1Ev@Base 0.3
 _ZN4Tins14NamedDNSRRImplD2Ev@Base 0.3
 _ZN4Tins14RSNInformation11group_suiteENS0_12CypherSuitesE@Base 0.3
 _ZN4Tins14RSNInformation12capabilitiesEt@Base 0.3
 _ZN4Tins14RSNInformation14add_akm_cypherENS0_9AKMSuitesE@Base 0.3
 _ZN4Tins14RSNInformation19add_pairwise_cypherENS0_12CypherSuitesE@Base 0.3
 _ZN4Tins14RSNInformation4initEPKhj@Base 0.3
 _ZN4Tins14RSNInformation7versionEt@Base 0.3
 _ZN4Tins14RSNInformation8wpa2_pskEv@Base 0.3
 _ZN4Tins14RSNInformationC1EPKhj@Base 0.3
 _ZN4Tins14RSNInformationC1ERKSt6vectorIhSaIhEE@Base 0.3
 _ZN4Tins14RSNInformationC1Ev@Base 0.3
 _ZN4Tins14RSNInformationC2EPKhj@Base 0.3
 _ZN4Tins14RSNInformationC2ERKSt6vectorIhSaIhEE@Base 0.3
 _ZN4Tins14RSNInformationC2Ev@Base 0.3
 _ZN4Tins14contains_dnameEt@Base 0.3
 _ZN4Tins15SocketOpenErrorD0Ev@Base 0.3
 _ZN4Tins15SocketOpenErrorD1Ev@Base 0.3
 _ZN4Tins15SocketOpenErrorD2Ev@Base 0.3
 _ZN4Tins15value_too_largeD0Ev@Base 0.3
 _ZN4Tins15value_too_largeD1Ev@Base 0.3
 _ZN4Tins15value_too_largeD2Ev@Base 0.3
 _ZN4Tins16NetworkInterface13resolve_indexEPKc@Base 0.3
 _ZN4Tins16NetworkInterface17default_interfaceEv@Base 0.3
 _ZN4Tins16NetworkInterfaceC1ENS_11IPv4AddressE@Base 0.3
 _ZN4Tins16NetworkInterfaceC1EPKc@Base 0.3
 _ZN4Tins16NetworkInterfaceC1ERKSs@Base 0.3
 _ZN4Tins16NetworkInterfaceC1Ev@Base 0.3
 _ZN4Tins16NetworkInterfaceC2ENS_11IPv4AddressE@Base 0.3
 _ZN4Tins16NetworkInterfaceC2EPKc@Base 0.3
 _ZN4Tins16NetworkInterfaceC2ERKSs@Base 0.3
 _ZN4Tins16NetworkInterfaceC2Ev@Base 0.3
 _ZN4Tins16SocketCloseErrorD0Ev@Base 0.3
 _ZN4Tins16SocketCloseErrorD1Ev@Base 0.3
 _ZN4Tins16SocketCloseErrorD2Ev@Base 0.3
 _ZN4Tins16SocketWriteErrorD0Ev@Base 0.3
 _ZN4Tins16SocketWriteErrorD1Ev@Base 0.3
 _ZN4Tins16SocketWriteErrorD2Ev@Base 0.3
 _ZN4Tins16option_not_foundD0Ev@Base 0.3
 _ZN4Tins16option_not_foundD1Ev@Base 0.3
 _ZN4Tins16option_not_foundD2Ev@Base 0.3
 _ZN4Tins17DNSResourceRecordC1EOS0_@Base 0.3
 _ZN4Tins17DNSResourceRecordC1EPKhj@Base 0.3
 _ZN4Tins17DNSResourceRecordC1EPNS_9DNSRRImplEPKht@Base 0.3
 _ZN4Tins17DNSResourceRecordC1ERKS0_@Base 0.3
 _ZN4Tins17DNSResourceRecordC2EOS0_@Base 0.3
 _ZN4Tins17DNSResourceRecordC2EPKhj@Base 0.3
 _ZN4Tins17DNSResourceRecordC2EPNS_9DNSRRImplEPKht@Base 0.3
 _ZN4Tins17DNSResourceRecordC2ERKS0_@Base 0.3
 _ZN4Tins17DNSResourceRecordD1Ev@Base 0.3
 _ZN4Tins17DNSResourceRecordD2Ev@Base 0.3
 _ZN4Tins17DNSResourceRecordaSEOS0_@Base 0.3
 _ZN4Tins17DNSResourceRecordaSERKS0_@Base 0.3
 _ZN4Tins17Dot11AssocRequest15listen_intervalEt@Base 0.3
 _ZN4Tins17Dot11AssocRequest22write_fixed_parametersEPhj@Base 0.3
 _ZN4Tins17Dot11AssocRequestC1EPKhj@Base 0.3
 (subst)_ZN4Tins17Dot11AssocRequestC1ERKNS_9HWAddressIL{size_t}6EhEES4_@Base 0.3
 _ZN4Tins17Dot11AssocRequestC2EPKhj@Base 0.3
 (subst)_ZN4Tins17Dot11AssocRequestC2ERKNS_9HWAddressIL{size_t}6EhEES4_@Base 0.3
 _ZN4Tins17Dot11AssocRequestD0Ev@Base 0.3
 _ZN4Tins17Dot11AssocRequestD1Ev@Base 0.3
 _ZN4Tins17Dot11AssocRequestD2Ev@Base 0.3
 _ZN4Tins17Dot11ProbeRequestC1EPKhj@Base 0.3
 (subst)_ZN4Tins17Dot11ProbeRequestC1ERKNS_9HWAddressIL{size_t}6EhEES4_@Base 0.3
 _ZN4Tins17Dot11ProbeRequestC2EPKhj@Base 0.3
 (subst)_ZN4Tins17Dot11ProbeRequestC2ERKNS_9HWAddressIL{size_t}6EhEES4_@Base 0.3
 _ZN4Tins17Dot11ProbeRequestD0Ev@Base 0.3
 _ZN4Tins17Dot11ProbeRequestD1Ev@Base 0.3
 _ZN4Tins17Dot11ProbeRequestD2Ev@Base 0.3
 _ZN4Tins17OffsetedDNSRRImplC1Et@Base 0.3
 _ZN4Tins17OffsetedDNSRRImplC2Et@Base 0.3
 _ZN4Tins17OffsetedDNSRRImplD0Ev@Base 0.3
 _ZN4Tins17OffsetedDNSRRImplD1Ev@Base 0.3
 _ZN4Tins17OffsetedDNSRRImplD2Ev@Base 0.3
 _ZN4Tins17TCPStreamFollowerC1Ev@Base 0.3
 _ZN4Tins17TCPStreamFollowerC2Ev@Base 0.3
 _ZN4Tins17make_error_stringEv@Base 0.3
 _ZN4Tins18Dot11AssocResponse11status_codeEt@Base 0.3
 _ZN4Tins18Dot11AssocResponse22write_fixed_parametersEPhj@Base 0.3
 _ZN4Tins18Dot11AssocResponse3aidEt@Base 0.3
 _ZN4Tins18Dot11AssocResponseC1EPKhj@Base 0.3
 (subst)_ZN4Tins18Dot11AssocResponseC1ERKNS_9HWAddressIL{size_t}6EhEES4_@Base 0.3
 _ZN4Tins18Dot11AssocResponseC2EPKhj@Base 0.3
 (subst)_ZN4Tins18Dot11AssocResponseC2ERKNS_9HWAddressIL{size_t}6EhEES4_@Base 0.3
 _ZN4Tins18Dot11AssocResponseD0Ev@Base 0.3
 _ZN4Tins18Dot11AssocResponseD1Ev@Base 0.3
 _ZN4Tins18Dot11AssocResponseD2Ev@Base 0.3
 _ZN4Tins18Dot11ProbeResponse22write_fixed_parametersEPhj@Base 0.3
 _ZN4Tins18Dot11ProbeResponse8intervalEt@Base 0.3
 (subst)_ZN4Tins18Dot11ProbeResponse9timestampE{uint64_t}@Base 0.3
 _ZN4Tins18Dot11ProbeResponseC1EPKhj@Base 0.3
 (subst)_ZN4Tins18Dot11ProbeResponseC1ERKNS_9HWAddressIL{size_t}6EhEES4_@Base 0.3
 _ZN4Tins18Dot11ProbeResponseC2EPKhj@Base 0.3
 (subst)_ZN4Tins18Dot11ProbeResponseC2ERKNS_9HWAddressIL{size_t}6EhEES4_@Base 0.3
 _ZN4Tins18Dot11ProbeResponseD0Ev@Base 0.3
 _ZN4Tins18Dot11ProbeResponseD1Ev@Base 0.3
 _ZN4Tins18Dot11ProbeResponseD2Ev@Base 0.3
 _ZN4Tins19Dot11Authentication11status_codeEt@Base 0.3
 _ZN4Tins19Dot11Authentication14auth_algorithmEt@Base 0.3
 _ZN4Tins19Dot11Authentication15auth_seq_numberEt@Base 0.3
 _ZN4Tins19Dot11Authentication22write_fixed_parametersEPhj@Base 0.3
 _ZN4Tins19Dot11AuthenticationC1EPKhj@Base 0.3
 (subst)_ZN4Tins19Dot11AuthenticationC1ERKNS_9HWAddressIL{size_t}6EhEES4_@Base 0.3
 _ZN4Tins19Dot11AuthenticationC2EPKhj@Base 0.3
 (subst)_ZN4Tins19Dot11AuthenticationC2ERKNS_9HWAddressIL{size_t}6EhEES4_@Base 0.3
 _ZN4Tins19Dot11AuthenticationD0Ev@Base 0.3
 _ZN4Tins19Dot11AuthenticationD1Ev@Base 0.3
 _ZN4Tins19Dot11AuthenticationD2Ev@Base 0.3
 (subst)_ZN4Tins19Dot11ReAssocRequest10current_apERKNS_9HWAddressIL{size_t}6EhEE@Base 0.3
 _ZN4Tins19Dot11ReAssocRequest15listen_intervalEt@Base 0.3
 _ZN4Tins19Dot11ReAssocRequest22write_fixed_parametersEPhj@Base 0.3
 _ZN4Tins19Dot11ReAssocRequestC1EPKhj@Base 0.3
 (subst)_ZN4Tins19Dot11ReAssocRequestC1ERKNS_9HWAddressIL{size_t}6EhEES4_@Base 0.3
 _ZN4Tins19Dot11ReAssocRequestC2EPKhj@Base 0.3
 (subst)_ZN4Tins19Dot11ReAssocRequestC2ERKNS_9HWAddressIL{size_t}6EhEES4_@Base 0.3
 _ZN4Tins19Dot11ReAssocRequestD0Ev@Base 0.3
 _ZN4Tins19Dot11ReAssocRequestD1Ev@Base 0.3
 _ZN4Tins19Dot11ReAssocRequestD2Ev@Base 0.3
 _ZN4Tins20Dot11BlockAckRequest11bar_controlEt@Base 0.3
 _ZN4Tins20Dot11BlockAckRequest14init_block_ackEv@Base 0.3
 _ZN4Tins20Dot11BlockAckRequest14start_sequenceEt@Base 0.3
 _ZN4Tins20Dot11BlockAckRequest15fragment_numberEh@Base 0.3
 _ZN4Tins20Dot11BlockAckRequest16write_ext_headerEPhj@Base 0.3
 _ZN4Tins20Dot11BlockAckRequestC1EPKhj@Base 0.3
 (subst)_ZN4Tins20Dot11BlockAckRequestC1ERKNS_9HWAddressIL{size_t}6EhEES4_PNS_3PDUE@Base 0.3
 _ZN4Tins20Dot11BlockAckRequestC2EPKhj@Base 0.3
 (subst)_ZN4Tins20Dot11BlockAckRequestC2ERKNS_9HWAddressIL{size_t}6EhEES4_PNS_3PDUE@Base 0.3
 _ZN4Tins20Dot11BlockAckRequestD0Ev@Base 0.3
 _ZN4Tins20Dot11BlockAckRequestD1Ev@Base 0.3
 _ZN4Tins20Dot11BlockAckRequestD2Ev@Base 0.3
 _ZN4Tins20Dot11ManagementFrame10tpc_reportEhh@Base 0.3
 _ZN4Tins20Dot11ManagementFrame13fh_parametersEhh@Base 0.3
 _ZN4Tins20Dot11ManagementFrame14challenge_textERKSs@Base 0.3
 _ZN4Tins20Dot11ManagementFrame14channel_switchERKNS0_19channel_switch_typeE@Base 0.3
 _ZN4Tins20Dot11ManagementFrame14country_paramsD1Ev@Base 0.3
 _ZN4Tins20Dot11ManagementFrame14country_paramsD2Ev@Base 0.3
 _ZN4Tins20Dot11ManagementFrame14qos_capabilityEh@Base 0.3
 _ZN4Tins20Dot11ManagementFrame15erp_informationEh@Base 0.3
 _ZN4Tins20Dot11ManagementFrame15rsn_informationERKNS_14RSNInformationE@Base 0.3
 _ZN4Tins20Dot11ManagementFrame15rsn_informationEv@Base 0.3
 _ZN4Tins20Dot11ManagementFrame15serialize_ratesERKSt6vectorIfSaIfEE@Base 0.3
 _ZN4Tins20Dot11ManagementFrame15supported_ratesERKSt6vectorIfSaIfEE@Base 0.3
 _ZN4Tins20Dot11ManagementFrame16cf_parameter_setENS0_13cf_params_setE@Base 0.3
 _ZN4Tins20Dot11ManagementFrame16ds_parameter_setEh@Base 0.3
 _ZN4Tins20Dot11ManagementFrame16fh_parameter_setENS0_13fh_params_setE@Base 0.3
 _ZN4Tins20Dot11ManagementFrame16fh_pattern_tableERKNS0_15fh_pattern_typeE@Base 0.3
 _ZN4Tins20Dot11ManagementFrame16power_capabilityEhh@Base 0.3
 _ZN4Tins20Dot11ManagementFrame16power_constraintEh@Base 0.3
 _ZN4Tins20Dot11ManagementFrame16write_ext_headerEPhj@Base 0.3
 _ZN4Tins20Dot11ManagementFrame17deserialize_ratesEPKNS_9PDUOptionIhSt6vectorIhSaIhEEEE@Base 0.3
 _ZN4Tins20Dot11ManagementFrame18edca_parameter_setEjjjj@Base 0.3
 _ZN4Tins20Dot11ManagementFrame18ibss_parameter_setEt@Base 0.3
 _ZN4Tins20Dot11ManagementFrame18supported_channelsERKSt6vectorISt4pairIhhESaIS3_EE@Base 0.3
 _ZN4Tins20Dot11ManagementFrame19request_informationESt6vectorIhSaIhEE@Base 0.3
 _ZN4Tins20Dot11ManagementFrame24extended_supported_ratesERKSt6vectorIfSaIfEE@Base 0.3
 _ZN4Tins20Dot11ManagementFrame3timERKNS0_8tim_typeE@Base 0.3
 _ZN4Tins20Dot11ManagementFrame4ssidERKSs@Base 0.3
 (subst)_ZN4Tins20Dot11ManagementFrame5addr2ERKNS_9HWAddressIL{size_t}6EhEE@Base 0.3
 (subst)_ZN4Tins20Dot11ManagementFrame5addr3ERKNS_9HWAddressIL{size_t}6EhEE@Base 0.3
 (subst)_ZN4Tins20Dot11ManagementFrame5addr4ERKNS_9HWAddressIL{size_t}6EhEE@Base 0.3
 _ZN4Tins20Dot11ManagementFrame5quietERKNS0_10quiet_typeE@Base 0.3
 _ZN4Tins20Dot11ManagementFrame7countryERKNS0_14country_paramsE@Base 0.3
 (subst)_ZN4Tins20Dot11ManagementFrame7seq_numENS_10small_uintIL{size_t}12EEE@Base 0.3
 _ZN4Tins20Dot11ManagementFrame8bss_loadERKNS0_13bss_load_typeE@Base 0.3
 (subst)_ZN4Tins20Dot11ManagementFrame8frag_numENS_10small_uintIL{size_t}4EEE@Base 0.3
 _ZN4Tins20Dot11ManagementFrame8ibss_dfsERKNS0_15ibss_dfs_paramsE@Base 0.3
 _ZN4Tins20Dot11ManagementFrameC1EPKhj@Base 0.3
 (subst)_ZN4Tins20Dot11ManagementFrameC1ERKNS_9HWAddressIL{size_t}6EhEES4_@Base 0.3
 _ZN4Tins20Dot11ManagementFrameC2EPKhj@Base 0.3
 (subst)_ZN4Tins20Dot11ManagementFrameC2ERKNS_9HWAddressIL{size_t}6EhEES4_@Base 0.3
 _ZN4Tins20Dot11ManagementFrameD0Ev@Base 0.3
 _ZN4Tins20Dot11ManagementFrameD1Ev@Base 0.3
 _ZN4Tins20Dot11ManagementFrameD2Ev@Base 0.3
 _ZN4Tins20Dot11ReAssocResponse11status_codeEt@Base 0.3
 _ZN4Tins20Dot11ReAssocResponse22write_fixed_parametersEPhj@Base 0.3
 _ZN4Tins20Dot11ReAssocResponse3aidEt@Base 0.3
 _ZN4Tins20Dot11ReAssocResponseC1EPKhj@Base 0.3
 (subst)_ZN4Tins20Dot11ReAssocResponseC1ERKNS_9HWAddressIL{size_t}6EhEES4_@Base 0.3
 _ZN4Tins20Dot11ReAssocResponseC2EPKhj@Base 0.3
 (subst)_ZN4Tins20Dot11ReAssocResponseC2ERKNS_9HWAddressIL{size_t}6EhEES4_@Base 0.3
 _ZN4Tins20Dot11ReAssocResponseD0Ev@Base 0.3
 _ZN4Tins20Dot11ReAssocResponseD1Ev@Base 0.3
 _ZN4Tins20Dot11ReAssocResponseD2Ev@Base 0.3
 _ZN4Tins21Dot11Deauthentication11reason_codeEt@Base 0.3
 _ZN4Tins21Dot11Deauthentication22write_fixed_parametersEPhj@Base 0.3
 _ZN4Tins21Dot11DeauthenticationC1EPKhj@Base 0.3
 (subst)_ZN4Tins21Dot11DeauthenticationC1ERKNS_9HWAddressIL{size_t}6EhEES4_@Base 0.3
 _ZN4Tins21Dot11DeauthenticationC2EPKhj@Base 0.3
 (subst)_ZN4Tins21Dot11DeauthenticationC2ERKNS_9HWAddressIL{size_t}6EhEES4_@Base 0.3
 _ZN4Tins21Dot11DeauthenticationD0Ev@Base 0.3
 _ZN4Tins21Dot11DeauthenticationD1Ev@Base 0.3
 _ZN4Tins21Dot11DeauthenticationD2Ev@Base 0.3
 _ZN4Tins22InvalidSocketTypeErrorD0Ev@Base 0.3
 _ZN4Tins22InvalidSocketTypeErrorD1Ev@Base 0.3
 _ZN4Tins22InvalidSocketTypeErrorD2Ev@Base 0.3
 _ZN4Tins2IP10add_optionERKNS_9PDUOptionINS0_17option_identifierESt6vectorIhSaIhEEEE@Base 0.3
 _ZN4Tins2IP11DEFAULT_TTLE@Base 0.3
 _ZN4Tins2IP12clone_packetEPKhj@Base 0.3
 _ZN4Tins2IP12write_optionERKNS_9PDUOptionINS0_17option_identifierESt6vectorIhSaIhEEEEPh@Base 0.3
 _ZN4Tins2IP13recv_responseERNS_12PacketSenderE@Base 0.3
 _ZN4Tins2IP14init_ip_fieldsEv@Base 0.3
 _ZN4Tins2IP16add_route_optionENS0_17option_identifierERKNS0_25generic_route_option_typeE@Base 0.3
 _ZN4Tins2IP16matches_responseEPhj@Base 0.3
 _ZN4Tins2IP17stream_identifierEt@Base 0.3
 _ZN4Tins2IP19write_serializationEPhjPKNS_3PDUE@Base 0.3
 _ZN4Tins2IP2idEt@Base 0.3
 _ZN4Tins2IP3eolEv@Base 0.3
 _ZN4Tins2IP3tosEh@Base 0.3
 _ZN4Tins2IP3ttlEh@Base 0.3
 _ZN4Tins2IP4noopEv@Base 0.3
 _ZN4Tins2IP4sendERNS_12PacketSenderE@Base 0.3
 _ZN4Tins2IP5checkEt@Base 0.3
 _ZN4Tins2IP7tot_lenEt@Base 0.3
 (subst)_ZN4Tins2IP7versionENS_10small_uintIL{size_t}4EEE@Base 0.3
 _ZN4Tins2IP8dst_addrENS_11IPv4AddressE@Base 0.3
 _ZN4Tins2IP8frag_offEt@Base 0.3
 (subst)_ZN4Tins2IP8head_lenENS_10small_uintIL{size_t}4EEE@Base 0.3
 _ZN4Tins2IP8protocolEh@Base 0.3
 _ZN4Tins2IP8securityERKNS0_13security_typeE@Base 0.3
 _ZN4Tins2IP8src_addrENS_11IPv4AddressE@Base 0.3
 _ZN4Tins2IPC1ENS_11IPv4AddressES1_PNS_3PDUE@Base 0.3
 _ZN4Tins2IPC1EPKhj@Base 0.3
 _ZN4Tins2IPC2ENS_11IPv4AddressES1_PNS_3PDUE@Base 0.3
 _ZN4Tins2IPC2EPKhj@Base 0.3
 _ZN4Tins2IPD0Ev@Base 0.3
 _ZN4Tins2IPD1Ev@Base 0.3
 _ZN4Tins2IPD2Ev@Base 0.3
 _ZN4Tins3ARP12clone_packetEPKhj@Base 0.3
 _ZN4Tins3ARP14hw_addr_formatEt@Base 0.3
 _ZN4Tins3ARP14hw_addr_lengthEh@Base 0.3
 (subst)_ZN4Tins3ARP14make_arp_replyERKNS_16NetworkInterfaceENS_11IPv4AddressES4_RKNS_9HWAddressIL{size_t}6EhEES8_@Base 0.3
 (subst)_ZN4Tins3ARP14sender_hw_addrERKNS_9HWAddressIL{size_t}6EhEE@Base 0.3
 _ZN4Tins3ARP14sender_ip_addrENS_11IPv4AddressE@Base 0.3
 (subst)_ZN4Tins3ARP14target_hw_addrERKNS_9HWAddressIL{size_t}6EhEE@Base 0.3
 _ZN4Tins3ARP14target_ip_addrENS_11IPv4AddressE@Base 0.3
 (subst)_ZN4Tins3ARP16make_arp_requestERKNS_16NetworkInterfaceENS_11IPv4AddressES4_RKNS_9HWAddressIL{size_t}6EhEE@Base 0.3
 _ZN4Tins3ARP16matches_responseEPhj@Base 0.3
 _ZN4Tins3ARP16prot_addr_formatEt@Base 0.3
 _ZN4Tins3ARP16prot_addr_lengthEh@Base 0.3
 _ZN4Tins3ARP19write_serializationEPhjPKNS_3PDUE@Base 0.3
 _ZN4Tins3ARP6opcodeENS0_5FlagsE@Base 0.3
 (subst)_ZN4Tins3ARPC1ENS_11IPv4AddressES1_RKNS_9HWAddressIL{size_t}6EhEES5_@Base 0.3
 _ZN4Tins3ARPC1EPKhj@Base 0.3
 (subst)_ZN4Tins3ARPC2ENS_11IPv4AddressES1_RKNS_9HWAddressIL{size_t}6EhEES5_@Base 0.3
 _ZN4Tins3ARPC2EPKhj@Base 0.3
 _ZN4Tins3ARPD0Ev@Base 0.3
 _ZN4Tins3ARPD1Ev@Base 0.3
 _ZN4Tins3ARPD2Ev@Base 0.3
 _ZN4Tins3DNS10add_answerERKSsRKNS_17DNSResourceRecord4infoENS_11IPv4AddressE@Base 0.3
 _ZN4Tins3DNS10add_answerERKSsRKNS_17DNSResourceRecord4infoENS_11IPv6AddressE@Base 0.3
 _ZN4Tins3DNS10add_answerERKSsRKNS_17DNSResourceRecord4infoEPKhj@Base 0.3
 _ZN4Tins3DNS10add_answerERKSsRKNS_17DNSResourceRecord4infoES2_@Base 0.3
 _ZN4Tins3DNS11make_recordERKSsRKNS_17DNSResourceRecord4infoEPKhj@Base 0.3
 _ZN4Tins3DNS11make_recordERKSsRKNS_17DNSResourceRecord4infoES2_@Base 0.3
 _ZN4Tins3DNS11make_recordERKSsRKNS_17DNSResourceRecord4infoEj@Base 0.3
 _ZN4Tins3DNS13add_authorityERKSsRKNS_17DNSResourceRecord4infoEPKhj@Base 0.3
 _ZN4Tins3DNS14add_additionalERKSsRKNS_17DNSResourceRecord4infoEj@Base 0.3
 _ZN4Tins3DNS14contains_dnameEt@Base 0.3
 _ZN4Tins3DNS16find_domain_nameERKSs@Base 0.3
 _ZN4Tins3DNS16find_domain_nameERKSsRKSt4listINS_17DNSResourceRecordESaIS4_EERt@Base 0.3
 _ZN4Tins3DNS17checking_disabledEh@Base 0.3
 _ZN4Tins3DNS17recursion_desiredEh@Base 0.3
 _ZN4Tins3DNS18authenticated_dataEh@Base 0.3
 _ZN4Tins3DNS19build_resource_listERSt4listINS_17DNSResourceRecordESaIS2_EEPKhRjt@Base 0.3
 _ZN4Tins3DNS19recursion_availableEh@Base 0.3
 _ZN4Tins3DNS19write_serializationEPhjPKNS_3PDUE@Base 0.3
 _ZN4Tins3DNS1zEh@Base 0.3
 _ZN4Tins3DNS20authoritative_answerEh@Base 0.3
 _ZN4Tins3DNS2idEt@Base 0.3
 _ZN4Tins3DNS4typeENS0_6QRTypeE@Base 0.3
 _ZN4Tins3DNS5rcodeEh@Base 0.3
 _ZN4Tins3DNS6opcodeEh@Base 0.3
 _ZN4Tins3DNS9add_queryERKNS0_5QueryE@Base 0.3
 _ZN4Tins3DNS9truncatedEh@Base 0.3
 _ZN4Tins3DNSC1EPKhj@Base 0.3
 _ZN4Tins3DNSC1Ev@Base 0.3
 _ZN4Tins3DNSC2EPKhj@Base 0.3
 _ZN4Tins3DNSC2Ev@Base 0.3
 _ZN4Tins3DNSD0Ev@Base 0.3
 _ZN4Tins3DNSD1Ev@Base 0.3
 _ZN4Tins3DNSD2Ev@Base 0.3
 _ZN4Tins3LLC10poll_finalEb@Base 0.3
 _ZN4Tins3LLC15send_seq_numberEh@Base 0.3
 _ZN4Tins3LLC16GLOBAL_DSAP_ADDRE@Base 0.3
 _ZN4Tins3LLC17modifier_functionENS0_17ModifierFunctionsE@Base 0.3
 _ZN4Tins3LLC18receive_seq_numberEh@Base 0.3
 _ZN4Tins3LLC19add_xid_informationEhhh@Base 0.3
 _ZN4Tins3LLC19write_serializationEPhjPKNS_3PDUE@Base 0.3
 _ZN4Tins3LLC20supervisory_functionENS0_20SupervisoryFunctionsE@Base 0.3
 _ZN4Tins3LLC24clear_information_fieldsEv@Base 0.3
 _ZN4Tins3LLC4dsapEh@Base 0.3
 _ZN4Tins3LLC4ssapEh@Base 0.3
 _ZN4Tins3LLC4typeENS0_6FormatE@Base 0.3
 _ZN4Tins3LLC5groupEb@Base 0.3
 _ZN4Tins3LLC8responseEb@Base 0.3
 _ZN4Tins3LLC9NULL_ADDRE@Base 0.3
 _ZN4Tins3LLCC1EPKhj@Base 0.3
 _ZN4Tins3LLCC1EPNS_3PDUE@Base 0.3
 _ZN4Tins3LLCC1EhhPNS_3PDUE@Base 0.3
 _ZN4Tins3LLCC2EPKhj@Base 0.3
 _ZN4Tins3LLCC2EPNS_3PDUE@Base 0.3
 _ZN4Tins3LLCC2EhhPNS_3PDUE@Base 0.3
 _ZN4Tins3LLCD0Ev@Base 0.3
 _ZN4Tins3LLCD1Ev@Base 0.3
 _ZN4Tins3LLCD2Ev@Base 0.3
 _ZN4Tins3PDU12clone_packetEPKhj@Base 0.3
 _ZN4Tins3PDU13recv_responseERNS_12PacketSenderE@Base 0.3
 _ZN4Tins3PDU14copy_inner_pduERKS0_@Base 0.3
 _ZN4Tins3PDU15clone_inner_pduEPKhj@Base 0.3
 _ZN4Tins3PDU16matches_responseEPhj@Base 0.3
 _ZN4Tins3PDU17release_inner_pduEv@Base 0.3
 _ZN4Tins3PDU4sendERNS_12PacketSenderE@Base 0.3
 _ZN4Tins3PDU9inner_pduEPS0_@Base 0.3
 _ZN4Tins3PDU9serializeEPhjPKS0_@Base 0.3
 _ZN4Tins3PDU9serializeEv@Base 0.3
 _ZN4Tins3PDUC1EPS0_@Base 0.3
 _ZN4Tins3PDUC1ERKS0_@Base 0.3
 _ZN4Tins3PDUC2EPS0_@Base 0.3
 _ZN4Tins3PDUC2ERKS0_@Base 0.3
 _ZN4Tins3PDUD0Ev@Base 0.3
 _ZN4Tins3PDUD1Ev@Base 0.3
 _ZN4Tins3PDUD2Ev@Base 0.3
 _ZN4Tins3PDUaSERKS0_@Base 0.3
 _ZN4Tins3SLL10lladdr_lenEt@Base 0.3
 _ZN4Tins3SLL11lladdr_typeEt@Base 0.3
 _ZN4Tins3SLL11packet_typeEt@Base 0.3
 _ZN4Tins3SLL19write_serializationEPhjPKNS_3PDUE@Base 0.3
 (subst)_ZN4Tins3SLL7addressERKNS_9HWAddressIL{size_t}8EhEE@Base 0.3
 _ZN4Tins3SLL8protocolEt@Base 0.3
 _ZN4Tins3SLLC1EPKhj@Base 0.3
 _ZN4Tins3SLLC1Ev@Base 0.3
 _ZN4Tins3SLLC2EPKhj@Base 0.3
 _ZN4Tins3SLLC2Ev@Base 0.3
 _ZN4Tins3SLLD0Ev@Base 0.3
 _ZN4Tins3SLLD1Ev@Base 0.3
 _ZN4Tins3SLLD2Ev@Base 0.3
 _ZN4Tins3TCP10add_optionENS0_6OptionEhPKh@Base 0.3
 _ZN4Tins3TCP11altchecksumENS0_12AltChecksumsE@Base 0.3
 (subst)_ZN4Tins3TCP11data_offsetENS_10small_uintIL{size_t}4EEE@Base 0.3
 _ZN4Tins3TCP12write_optionERKNS_9PDUOptionIhSt6vectorIhSaIhEEEEPh@Base 0.3
 _ZN4Tins3TCP14DEFAULT_WINDOWE@Base 0.3
 _ZN4Tins3TCP14sack_permittedEv@Base 0.3
 _ZN4Tins3TCP19write_serializationEPhjPKNS_3PDUE@Base 0.3
 _ZN4Tins3TCP3mssEt@Base 0.3
 _ZN4Tins3TCP3seqEj@Base 0.3
 _ZN4Tins3TCP4sackERKSt6vectorIjSaIjEE@Base 0.3
 _ZN4Tins3TCP5checkEt@Base 0.3
 _ZN4Tins3TCP5dportEt@Base 0.3
 _ZN4Tins3TCP5sportEt@Base 0.3
 _ZN4Tins3TCP6windowEt@Base 0.3
 _ZN4Tins3TCP7ack_seqEj@Base 0.3
 _ZN4Tins3TCP7urg_ptrEt@Base 0.3
 _ZN4Tins3TCP8get_flagENS0_5FlagsE@Base 0.3
 (subst)_ZN4Tins3TCP8set_flagENS0_5FlagsENS_10small_uintIL{size_t}1EEE@Base 0.3
 _ZN4Tins3TCP8winscaleEh@Base 0.3
 _ZN4Tins3TCP9timestampEjj@Base 0.3
 _ZN4Tins3TCPC1EPKhj@Base 0.3
 _ZN4Tins3TCPC1Ett@Base 0.3
 _ZN4Tins3TCPC2EPKhj@Base 0.3
 _ZN4Tins3TCPC2Ett@Base 0.3
 _ZN4Tins3TCPD0Ev@Base 0.3
 _ZN4Tins3TCPD1Ev@Base 0.3
 _ZN4Tins3TCPD2Ev@Base 0.3
 _ZN4Tins3UDP11copy_fieldsEPKS0_@Base 0.3
 _ZN4Tins3UDP19write_serializationEPhjPKNS_3PDUE@Base 0.3
 _ZN4Tins3UDP5dportEt@Base 0.3
 _ZN4Tins3UDP5sportEt@Base 0.3
 _ZN4Tins3UDP6lengthEt@Base 0.3
 _ZN4Tins3UDPC1EPKhj@Base 0.3
 _ZN4Tins3UDPC1EttPNS_3PDUE@Base 0.3
 _ZN4Tins3UDPC2EPKhj@Base 0.3
 _ZN4Tins3UDPC2EttPNS_3PDUE@Base 0.3
 _ZN4Tins3UDPD0Ev@Base 0.3
 _ZN4Tins3UDPD1Ev@Base 0.3
 _ZN4Tins3UDPD2Ev@Base 0.3
 _ZN4Tins4DHCP10add_optionERKNS_9PDUOptionIhSt6vectorIhSaIhEEEE@Base 0.3
 _ZN4Tins4DHCP10lease_timeEj@Base 0.3
 _ZN4Tins4DHCP11domain_nameERKSs@Base 0.3
 _ZN4Tins4DHCP11rebind_timeEj@Base 0.3
 _ZN4Tins4DHCP11subnet_maskENS_11IPv4AddressE@Base 0.3
 _ZN4Tins4DHCP12renewal_timeEj@Base 0.3
 _ZN4Tins4DHCP12requested_ipENS_11IPv4AddressE@Base 0.3
 _ZN4Tins4DHCP14serialize_listERKSt4listINS_11IPv4AddressESaIS2_EE@Base 0.3
 _ZN4Tins4DHCP17server_identifierENS_11IPv4AddressE@Base 0.3
 _ZN4Tins4DHCP19domain_name_serversERKSt4listINS_11IPv4AddressESaIS2_EE@Base 0.3
 _ZN4Tins4DHCP19write_serializationEPhjPKNS_3PDUE@Base 0.3
 _ZN4Tins4DHCP3endEv@Base 0.3
 _ZN4Tins4DHCP4typeENS0_5FlagsE@Base 0.3
 _ZN4Tins4DHCP7routersERKSt4listINS_11IPv4AddressESaIS2_EE@Base 0.3
 _ZN4Tins4DHCP9broadcastENS_11IPv4AddressE@Base 0.3
 _ZN4Tins4DHCPC1EPKhj@Base 0.3
 _ZN4Tins4DHCPC1Ev@Base 0.3
 _ZN4Tins4DHCPC2EPKhj@Base 0.3
 _ZN4Tins4DHCPC2Ev@Base 0.3
 _ZN4Tins4DHCPD0Ev@Base 0.3
 _ZN4Tins4DHCPD1Ev@Base 0.3
 _ZN4Tins4DHCPD2Ev@Base 0.3
 _ZN4Tins4ICMP12clone_packetEPKhj@Base 0.3
 _ZN4Tins4ICMP12set_redirectEhj@Base 0.3
 _ZN4Tins4ICMP14set_echo_replyEtt@Base 0.3
 _ZN4Tins4ICMP14set_info_replyEtt@Base 0.3
 _ZN4Tins4ICMP16matches_responseEPhj@Base 0.3
 _ZN4Tins4ICMP16set_echo_requestEtt@Base 0.3
 _ZN4Tins4ICMP16set_info_requestEtt@Base 0.3
 _ZN4Tins4ICMP17set_param_problemEbh@Base 0.3
 _ZN4Tins4ICMP17set_source_quenchEv@Base 0.3
 _ZN4Tins4ICMP17set_time_exceededEb@Base 0.3
 _ZN4Tins4ICMP19write_serializationEPhjPKNS_3PDUE@Base 0.3
 _ZN4Tins4ICMP20set_dest_unreachableEv@Base 0.3
 _ZN4Tins4ICMP2idEt@Base 0.3
 _ZN4Tins4ICMP3mtuEt@Base 0.3
 _ZN4Tins4ICMP4codeEh@Base 0.3
 _ZN4Tins4ICMP4typeENS0_5FlagsE@Base 0.3
 _ZN4Tins4ICMP5checkEt@Base 0.3
 _ZN4Tins4ICMP7gatewayEj@Base 0.3
 _ZN4Tins4ICMP7pointerEh@Base 0.3
 _ZN4Tins4ICMP8sequenceEt@Base 0.3
 _ZN4Tins4ICMPC1ENS0_5FlagsE@Base 0.3
 _ZN4Tins4ICMPC1EPKhj@Base 0.3
 _ZN4Tins4ICMPC2ENS0_5FlagsE@Base 0.3
 _ZN4Tins4ICMPC2EPKhj@Base 0.3
 _ZN4Tins4ICMPD0Ev@Base 0.3
 _ZN4Tins4ICMPD1Ev@Base 0.3
 _ZN4Tins4ICMPD2Ev@Base 0.3
 (subst)_ZN4Tins4IPv610flow_labelENS_10small_uintIL{size_t}20EEE@Base 0.3
 _ZN4Tins4IPv611next_headerEh@Base 0.3
 _ZN4Tins4IPv612write_headerERKNS_9PDUOptionIhSt6vectorIhSaIhEEEEPh@Base 0.3
 _ZN4Tins4IPv613traffic_classEh@Base 0.3
 _ZN4Tins4IPv614add_ext_headerERKNS_9PDUOptionIhSt6vectorIhSaIhEEEE@Base 0.3
 _ZN4Tins4IPv614payload_lengthEt@Base 0.3
 _ZN4Tins4IPv617header_size_errorD0Ev@Base 0.3
 _ZN4Tins4IPv617header_size_errorD1Ev@Base 0.3
 _ZN4Tins4IPv617header_size_errorD2Ev@Base 0.3
 _ZN4Tins4IPv619is_extension_headerEh@Base 0.3
 _ZN4Tins4IPv619write_serializationEPhjPKNS_3PDUE@Base 0.3
 _ZN4Tins4IPv620set_last_next_headerEh@Base 0.3
 _ZN4Tins4IPv64sendERNS_12PacketSenderE@Base 0.3
 (subst)_ZN4Tins4IPv67versionENS_10small_uintIL{size_t}4EEE@Base 0.3
 _ZN4Tins4IPv68dst_addrERKNS_11IPv6AddressE@Base 0.3
 _ZN4Tins4IPv68src_addrERKNS_11IPv6AddressE@Base 0.3
 _ZN4Tins4IPv69hop_limitEh@Base 0.3
 _ZN4Tins4IPv6C1ENS_11IPv6AddressES1_PNS_3PDUE@Base 0.3
 _ZN4Tins4IPv6C1EPKhj@Base 0.3
 _ZN4Tins4IPv6C2ENS_11IPv6AddressES1_PNS_3PDUE@Base 0.3
 _ZN4Tins4IPv6C2EPKhj@Base 0.3
 _ZN4Tins4IPv6D0Ev@Base 0.3
 _ZN4Tins4IPv6D1Ev@Base 0.3
 _ZN4Tins4IPv6D2Ev@Base 0.3
 _ZN4Tins4SNAP19write_serializationEPhjPKNS_3PDUE@Base 0.3
 _ZN4Tins4SNAP7controlEh@Base 0.3
 _ZN4Tins4SNAP8eth_typeEt@Base 0.3
 (subst)_ZN4Tins4SNAP8org_codeENS_10small_uintIL{size_t}24EEE@Base 0.3
 _ZN4Tins4SNAPC1EPKhj@Base 0.3
 _ZN4Tins4SNAPC1EPNS_3PDUE@Base 0.3
 _ZN4Tins4SNAPC2EPKhj@Base 0.3
 _ZN4Tins4SNAPC2EPNS_3PDUE@Base 0.3
 _ZN4Tins4SNAPD0Ev@Base 0.3
 _ZN4Tins4SNAPD1Ev@Base 0.3
 _ZN4Tins4SNAPD2Ev@Base 0.3
 _ZN4Tins5BootP19write_serializationEPhjPKNS_3PDUE@Base 0.3
 _ZN4Tins5BootP3xidEj@Base 0.3
 _ZN4Tins5BootP4fileEPKh@Base 0.3
 _ZN4Tins5BootP4hlenEh@Base 0.3
 _ZN4Tins5BootP4hopsEh@Base 0.3
 _ZN4Tins5BootP4secsEt@Base 0.3
 _ZN4Tins5BootP4vendERKSt6vectorIhSaIhEE@Base 0.3
 _ZN4Tins5BootP5htypeEh@Base 0.3
 _ZN4Tins5BootP5snameEPKh@Base 0.3
 _ZN4Tins5BootP6ciaddrENS_11IPv4AddressE@Base 0.3
 _ZN4Tins5BootP6giaddrENS_11IPv4AddressE@Base 0.3
 _ZN4Tins5BootP6opcodeEh@Base 0.3
 _ZN4Tins5BootP6siaddrENS_11IPv4AddressE@Base 0.3
 _ZN4Tins5BootP6yiaddrENS_11IPv4AddressE@Base 0.3
 _ZN4Tins5BootP7paddingEt@Base 0.3
 _ZN4Tins5BootPC1EPKhjj@Base 0.3
 _ZN4Tins5BootPC1Ev@Base 0.3
 _ZN4Tins5BootPC2EPKhjj@Base 0.3
 _ZN4Tins5BootPC2Ev@Base 0.3
 _ZN4Tins5BootPD0Ev@Base 0.3
 _ZN4Tins5BootPD1Ev@Base 0.3
 _ZN4Tins5BootPD2Ev@Base 0.3
 _ZN4Tins5Dot1110from_bytesEPKhj@Base 0.3
 (subst)_ZN4Tins5Dot1110power_mgmtENS_10small_uintIL{size_t}1EEE@Base 0.3
 _ZN4Tins5Dot1111duration_idEt@Base 0.3
 _ZN4Tins5Dot1116write_ext_headerEPhj@Base 0.3
 _ZN4Tins5Dot1117add_tagged_optionENS0_12TaggedOptionEhPKh@Base 0.3
 _ZN4Tins5Dot1117add_tagged_optionERKNS_9PDUOptionIhSt6vectorIhSaIhEEEE@Base 0.3
 _ZN4Tins5Dot1119write_serializationEPhjPKNS_3PDUE@Base 0.3
 _ZN4Tins5Dot1122write_fixed_parametersEPhj@Base 0.3
 _ZN4Tins5Dot1123parse_tagged_parametersEPKhj@Base 0.3
 (subst)_ZN4Tins5Dot113wepENS_10small_uintIL{size_t}1EEE@Base 0.3
 _ZN4Tins5Dot114sendERNS_12PacketSenderE@Base 0.3
 (subst)_ZN4Tins5Dot114typeENS_10small_uintIL{size_t}2EEE@Base 0.3
 (subst)_ZN4Tins5Dot115addr1ERKNS_9HWAddressIL{size_t}6EhEE@Base 0.3
 _ZN4Tins5Dot115ifaceERKNS_16NetworkInterfaceE@Base 0.3
 (subst)_ZN4Tins5Dot115orderENS_10small_uintIL{size_t}1EEE@Base 0.3
 (subst)_ZN4Tins5Dot115retryENS_10small_uintIL{size_t}1EEE@Base 0.3
 (subst)_ZN4Tins5Dot115to_dsENS_10small_uintIL{size_t}1EEE@Base 0.3
 (subst)_ZN4Tins5Dot117from_dsENS_10small_uintIL{size_t}1EEE@Base 0.3
 (subst)_ZN4Tins5Dot117subtypeENS_10small_uintIL{size_t}4EEE@Base 0.3
 (subst)_ZN4Tins5Dot118protocolENS_10small_uintIL{size_t}2EEE@Base 0.3
 _ZN4Tins5Dot119BROADCASTE@Base 0.3
 (subst)_ZN4Tins5Dot119more_fragENS_10small_uintIL{size_t}1EEE@Base 0.3
 _ZN4Tins5Dot11C1EPKNS0_16ieee80211_headerE@Base 0.3
 _ZN4Tins5Dot11C1EPKhj@Base 0.3
 (subst)_ZN4Tins5Dot11C1ERKNS_9HWAddressIL{size_t}6EhEEPNS_3PDUE@Base 0.3
 _ZN4Tins5Dot11C2EPKNS0_16ieee80211_headerE@Base 0.3
 _ZN4Tins5Dot11C2EPKhj@Base 0.3
 (subst)_ZN4Tins5Dot11C2ERKNS_9HWAddressIL{size_t}6EhEEPNS_3PDUE@Base 0.3
 _ZN4Tins5Dot11D0Ev@Base 0.3
 _ZN4Tins5Dot11D1Ev@Base 0.3
 _ZN4Tins5Dot11D2Ev@Base 0.3
 _ZN4Tins5EAPOL10from_bytesEPKhj@Base 0.3
 _ZN4Tins5EAPOL11packet_typeEh@Base 0.3
 _ZN4Tins5EAPOL19write_serializationEPhjPKNS_3PDUE@Base 0.3
 _ZN4Tins5EAPOL4typeEh@Base 0.3
 _ZN4Tins5EAPOL6lengthEt@Base 0.3
 _ZN4Tins5EAPOL7versionEh@Base 0.3
 _ZN4Tins5EAPOLC1EPKhj@Base 0.3
 _ZN4Tins5EAPOLC1EhNS0_9EAPOLTYPEE@Base 0.3
 _ZN4Tins5EAPOLC2EPKhj@Base 0.3
 _ZN4Tins5EAPOLC2EhNS0_9EAPOLTYPEE@Base 0.3
 _ZN4Tins5EAPOLD0Ev@Base 0.3
 _ZN4Tins5EAPOLD1Ev@Base 0.3
 _ZN4Tins5EAPOLD2Ev@Base 0.3
 _ZN4Tins5Utils10RouteEntryD1Ev@Base 0.3
 _ZN4Tins5Utils10RouteEntryD2Ev@Base 0.3
 _ZN4Tins5Utils10resolve_ipERKSs@Base 0.3
 _ZN4Tins5Utils11do_checksumEPKhS2_@Base 0.3
 (optional=templinst)_ZN4Tins5Utils13route_entriesISt20back_insert_iteratorISt6vectorINS0_10RouteEntryESaIS4_EEEEEvT_@Base 0.3
 _ZN4Tins5Utils14channel_to_mhzEt@Base 0.3
 _ZN4Tins5Utils14mhz_to_channelEt@Base 0.3
 (subst)_ZN4Tins5Utils14resolve_hwaddrERKNS_16NetworkInterfaceENS_11IPv4AddressEPNS_9HWAddressIL{size_t}6EhEERNS_12PacketSenderE@Base 0.3
 _ZN4Tins5Utils14resolve_hwaddrERKNS_16NetworkInterfaceENS_11IPv4AddressERNS_12PacketSenderE@Base 0.3
 _ZN4Tins5Utils15gateway_from_ipENS_11IPv4AddressERS1_@Base 0.3
 (optional=templinst)_ZN4Tins5Utils18generic_iface_loopI18InterfaceCollectorEEvRT_@Base 0.3
 (optional=templinst)_ZN4Tins5Utils18generic_iface_loopI22InterfaceInfoCollectorEEvRT_@Base 0.3
 _ZN4Tins5Utils18network_interfacesEv@Base 0.3
 _ZN4Tins5Utils21pseudoheader_checksumENS_11IPv4AddressES1_jj@Base 0.3
 _ZN4Tins5Utils21pseudoheader_checksumENS_11IPv6AddressES1_jj@Base 0.3
 _ZN4Tins5Utils5crc32EPKhj@Base 0.3
 (subst)_ZN4Tins6Crypto12WEPDecrypter12add_passwordERKNS_9HWAddressIL{size_t}6EhEERKSs@Base 0.3
 (subst)_ZN4Tins6Crypto12WEPDecrypter15remove_passwordERKNS_9HWAddressIL{size_t}6EhEE@Base 0.3
 _ZN4Tins6Crypto12WEPDecrypter7decryptERNS_3PDUE@Base 0.3
 _ZN4Tins6Crypto12WEPDecrypter7decryptERNS_6RawPDUERKSs@Base 0.3
 _ZN4Tins6Crypto12WEPDecrypterC1Ev@Base 0.3
 _ZN4Tins6Crypto12WEPDecrypterC2Ev@Base 0.3
 _ZN4Tins6DHCPv610add_optionERKNS0_13dhcpv6_optionE@Base 0.3
 _ZN4Tins6DHCPv610ia_addressERKNS0_15ia_address_typeE@Base 0.3
 _ZN4Tins6DHCPv610preferenceEh@Base 0.3
 _ZN4Tins6DHCPv610user_classERKSt6vectorIS1_IhSaIhEESaIS3_EE@Base 0.3
 _ZN4Tins6DHCPv611status_codeERKNS0_16status_code_typeE@Base 0.3
 _ZN4Tins6DHCPv611vendor_infoERKNS0_16vendor_info_typeE@Base 0.3
 _ZN4Tins6DHCPv612elapsed_timeEt@Base 0.3
 _ZN4Tins6DHCPv612interface_idERKSt6vectorIhSaIhEE@Base 0.3
 _ZN4Tins6DHCPv612link_addressERKNS_11IPv6AddressE@Base 0.3
 _ZN4Tins6DHCPv612peer_addressERKNS_11IPv6AddressE@Base 0.3
 _ZN4Tins6DHCPv612rapid_commitEv@Base 0.3
 _ZN4Tins6DHCPv612vendor_classERKNS0_17vendor_class_typeE@Base 0.3
 _ZN4Tins6DHCPv613dhcpv6_optionD1Ev@Base 0.3
 _ZN4Tins6DHCPv613dhcpv6_optionD2Ev@Base 0.3
 _ZN4Tins6DHCPv613relay_messageERKSt6vectorIhSaIhEE@Base 0.3
 _ZN4Tins6DHCPv614authenticationERKNS0_19authentication_typeE@Base 0.3
 _ZN4Tins6DHCPv614option_requestERKSt6vectorINS0_6OptionESaIS2_EE@Base 0.3
 _ZN4Tins6DHCPv614server_unicastERKNS_11IPv6AddressE@Base 0.3
 (subst)_ZN4Tins6DHCPv614transaction_idENS_10small_uintIL{size_t}24EEE@Base 0.3
 _ZN4Tins6DHCPv615reconfigure_msgEh@Base 0.3
 _ZN4Tins6DHCPv618reconfigure_acceptEv@Base 0.3
 _ZN4Tins6DHCPv619write_serializationEPhjPKNS_3PDUE@Base 0.3
 _ZN4Tins6DHCPv65ia_naERKNS0_10ia_na_typeE@Base 0.3
 _ZN4Tins6DHCPv65ia_taERKNS0_10ia_ta_typeE@Base 0.3
 _ZN4Tins6DHCPv67duid_en10from_bytesEPKhj@Base 0.3
 _ZN4Tins6DHCPv67duid_ll10from_bytesEPKhj@Base 0.3
 _ZN4Tins6DHCPv68duid_llt10from_bytesEPKhj@Base 0.3
 _ZN4Tins6DHCPv68msg_typeENS0_11MessageTypeE@Base 0.3
 _ZN4Tins6DHCPv69client_idERKNS0_9duid_typeE@Base 0.3
 _ZN4Tins6DHCPv69hop_countEh@Base 0.3
 _ZN4Tins6DHCPv69server_idERKNS0_9duid_typeE@Base 0.3
 _ZN4Tins6DHCPv6C1EPKhj@Base 0.3
 _ZN4Tins6DHCPv6C1Ev@Base 0.3
 _ZN4Tins6DHCPv6C2EPKhj@Base 0.3
 _ZN4Tins6DHCPv6C2Ev@Base 0.3
 _ZN4Tins6DHCPv6D0Ev@Base 0.3
 _ZN4Tins6DHCPv6D1Ev@Base 0.3
 _ZN4Tins6DHCPv6D2Ev@Base 0.3
 _ZN4Tins6ICMPv610add_optionERKNS_9PDUOptionIhSt6vectorIhSaIhEEEE@Base 0.3
 (subst)_ZN4Tins6ICMPv610home_agentENS_10small_uintIL{size_t}1EEE@Base 0.3
 _ZN4Tins6ICMPv610identifierEt@Base 0.3
 _ZN4Tins6ICMPv610route_infoERKNS0_15route_info_typeE@Base 0.3
 _ZN4Tins6ICMPv611prefix_infoENS0_16prefix_info_typeE@Base 0.3
 (subst)_ZN4Tins6ICMPv611router_prefENS_10small_uintIL{size_t}2EEE@Base 0.3
 _ZN4Tins6ICMPv611target_addrERKNS_11IPv6AddressE@Base 0.3
 _ZN4Tins6ICMPv612write_optionERKNS_9PDUOptionIhSt6vectorIhSaIhEEEEPh@Base 0.3
 _ZN4Tins6ICMPv613add_addr_listEhRKSt6vectorINS_11IPv6AddressESaIS2_EE@Base 0.3
 _ZN4Tins6ICMPv613parse_optionsERPKhRj@Base 0.3
 _ZN4Tins6ICMPv613rsa_signatureERKNS0_13rsa_sign_typeE@Base 0.3
 _ZN4Tins6ICMPv614reachable_timeEj@Base 0.3
 _ZN4Tins6ICMPv614shortcut_limitEh@Base 0.3
 _ZN4Tins6ICMPv615dns_search_listERKNS0_20dns_search_list_typeE@Base 0.3
 _ZN4Tins6ICMPv615link_layer_addrENS0_11lladdr_typeE@Base 0.3
 _ZN4Tins6ICMPv615redirect_headerESt6vectorIhSaIhEE@Base 0.3
 _ZN4Tins6ICMPv615router_lifetimeEt@Base 0.3
 _ZN4Tins6ICMPv616retransmit_timerEj@Base 0.3
 _ZN4Tins6ICMPv616source_addr_listERKSt6vectorINS_11IPv6AddressESaIS2_EE@Base 0.3
 _ZN4Tins6ICMPv616target_addr_listERKSt6vectorINS_11IPv6AddressESaIS2_EE@Base 0.3
 _ZN4Tins6ICMPv618handover_key_replyERKNS0_23handover_key_reply_typeE@Base 0.3
 _ZN4Tins6ICMPv619new_advert_intervalEj@Base 0.3
 _ZN4Tins6ICMPv619new_home_agent_infoERKSt4pairIttE@Base 0.3
 _ZN4Tins6ICMPv619write_serializationEPhjPKNS_3PDUE@Base 0.3
 _ZN4Tins6ICMPv620handover_assist_infoERKNS0_25handover_assist_info_typeE@Base 0.3
 _ZN4Tins6ICMPv620handover_key_requestERKNS0_21handover_key_req_typeE@Base 0.3
 _ZN4Tins6ICMPv621recursive_dns_serversERKNS0_18recursive_dns_typeE@Base 0.3
 _ZN4Tins6ICMPv622mobile_node_identifierERKNS0_19mobile_node_id_typeE@Base 0.3
 (subst)_ZN4Tins6ICMPv622source_link_layer_addrERKNS_9HWAddressIL{size_t}6EhEE@Base 0.3
 (subst)_ZN4Tins6ICMPv622target_link_layer_addrERKNS_9HWAddressIL{size_t}6EhEE@Base 0.3
 _ZN4Tins6ICMPv63mapERKNS0_8map_typeE@Base 0.3
 _ZN4Tins6ICMPv63mtuEj@Base 0.3
 _ZN4Tins6ICMPv64codeEh@Base 0.3
 _ZN4Tins6ICMPv64typeENS0_5TypesE@Base 0.3
 _ZN4Tins6ICMPv65naackERKSt4pairIhhE@Base 0.3
 _ZN4Tins6ICMPv65nonceERKSt6vectorIhSaIhEE@Base 0.3
 (subst)_ZN4Tins6ICMPv65otherENS_10small_uintIL{size_t}1EEE@Base 0.3
 (subst)_ZN4Tins6ICMPv66routerENS_10small_uintIL{size_t}1EEE@Base 0.3
 (subst)_ZN4Tins6ICMPv67managedENS_10small_uintIL{size_t}1EEE@Base 0.3
 _ZN4Tins6ICMPv68checksumEt@Base 0.3
 (subst)_ZN4Tins6ICMPv68overrideENS_10small_uintIL{size_t}1EEE@Base 0.3
 _ZN4Tins6ICMPv68sequenceEt@Base 0.3
 _ZN4Tins6ICMPv69dest_addrERKNS_11IPv6AddressE@Base 0.3
 _ZN4Tins6ICMPv69hop_limitEh@Base 0.3
 _ZN4Tins6ICMPv69ip_prefixERKNS0_14ip_prefix_typeE@Base 0.3
 (subst)_ZN4Tins6ICMPv69solicitedENS_10small_uintIL{size_t}1EEE@Base 0.3
 (subst)_ZN4Tins6ICMPv69timestampE{uint64_t}@Base 0.3
 _ZN4Tins6ICMPv6C1ENS0_5TypesE@Base 0.3
 _ZN4Tins6ICMPv6C1EPKhj@Base 0.3
 _ZN4Tins6ICMPv6C2ENS0_5TypesE@Base 0.3
 _ZN4Tins6ICMPv6C2EPKhj@Base 0.3
 _ZN4Tins6ICMPv6D0Ev@Base 0.3
 _ZN4Tins6ICMPv6D1Ev@Base 0.3
 _ZN4Tins6ICMPv6D2Ev@Base 0.3
 _ZN4Tins6RawPDU19write_serializationEPhjPKNS_3PDUE@Base 0.3
 _ZN4Tins6RawPDU7payloadERKSt6vectorIhSaIhEE@Base 0.3
 _ZN4Tins6RawPDUC1EPKhj@Base 0.3
 _ZN4Tins6RawPDUC1ERKSs@Base 0.3
 _ZN4Tins6RawPDUC2EPKhj@Base 0.3
 _ZN4Tins6RawPDUC2ERKSs@Base 0.3
 _ZN4Tins6RawPDUD0Ev@Base 0.3
 _ZN4Tins6RawPDUD1Ev@Base 0.3
 _ZN4Tins6RawPDUD2Ev@Base 0.3
 _ZN4Tins7SnifferC1ERKSsjbS2_@Base 0.3
 _ZN4Tins7SnifferC2ERKSsjbS2_@Base 0.3
 _ZN4Tins7SnifferD0Ev@Base 0.3
 _ZN4Tins7SnifferD1Ev@Base 0.3
 _ZN4Tins7SnifferD2Ev@Base 0.3
 _ZN4Tins8Dot11AckC1EPKhj@Base 0.3
 (subst)_ZN4Tins8Dot11AckC1ERKNS_9HWAddressIL{size_t}6EhEEPNS_3PDUE@Base 0.3
 _ZN4Tins8Dot11AckC2EPKhj@Base 0.3
 (subst)_ZN4Tins8Dot11AckC2ERKNS_9HWAddressIL{size_t}6EhEEPNS_3PDUE@Base 0.3
 _ZN4Tins8Dot11AckD0Ev@Base 0.3
 _ZN4Tins8Dot11AckD1Ev@Base 0.3
 _ZN4Tins8Dot11AckD2Ev@Base 0.3
 _ZN4Tins8Dot11RTSC1EPKhj@Base 0.3
 (subst)_ZN4Tins8Dot11RTSC1ERKNS_9HWAddressIL{size_t}6EhEES4_PNS_3PDUE@Base 0.3
 _ZN4Tins8Dot11RTSC2EPKhj@Base 0.3
 (subst)_ZN4Tins8Dot11RTSC2ERKNS_9HWAddressIL{size_t}6EhEES4_PNS_3PDUE@Base 0.3
 _ZN4Tins8Dot11RTSD0Ev@Base 0.3
 _ZN4Tins8Dot11RTSD1Ev@Base 0.3
 _ZN4Tins8Dot11RTSD2Ev@Base 0.3
 _ZN4Tins8Loopback19write_serializationEPhjPKNS_3PDUE@Base 0.3
 _ZN4Tins8Loopback5ifaceERKNS_16NetworkInterfaceE@Base 0.3
 _ZN4Tins8Loopback6familyEj@Base 0.3
 _ZN4Tins8LoopbackC1EPKhj@Base 0.3
 _ZN4Tins8LoopbackC1ERKNS_16NetworkInterfaceEPNS_3PDUE@Base 0.3
 _ZN4Tins8LoopbackC1Ev@Base 0.3
 _ZN4Tins8LoopbackC2EPKhj@Base 0.3
 _ZN4Tins8LoopbackC2ERKNS_16NetworkInterfaceEPNS_3PDUE@Base 0.3
 _ZN4Tins8LoopbackC2Ev@Base 0.3
 _ZN4Tins8LoopbackD0Ev@Base 0.3
 _ZN4Tins8LoopbackD1Ev@Base 0.3
 _ZN4Tins8LoopbackD2Ev@Base 0.3
 _ZN4Tins8RC4EAPOL10key_lengthEt@Base 0.3
 _ZN4Tins8RC4EAPOL10write_bodyEPhj@Base 0.3
 (subst)_ZN4Tins8RC4EAPOL14replay_counterE{uint64_t}@Base 0.3
 _ZN4Tins8RC4EAPOL3keyERKSt6vectorIhSaIhEE@Base 0.3
 _ZN4Tins8RC4EAPOL6key_ivEPKh@Base 0.3
 (subst)_ZN4Tins8RC4EAPOL8key_flagENS_10small_uintIL{size_t}1EEE@Base 0.3
 _ZN4Tins8RC4EAPOL8key_signEPKh@Base 0.3
 (subst)_ZN4Tins8RC4EAPOL9key_indexENS_10small_uintIL{size_t}7EEE@Base 0.3
 _ZN4Tins8RC4EAPOLC1EPKhj@Base 0.3
 _ZN4Tins8RC4EAPOLC1Ev@Base 0.3
 _ZN4Tins8RC4EAPOLC2EPKhj@Base 0.3
 _ZN4Tins8RC4EAPOLC2Ev@Base 0.3
 _ZN4Tins8RC4EAPOLD0Ev@Base 0.3
 _ZN4Tins8RC4EAPOLD1Ev@Base 0.3
 _ZN4Tins8RC4EAPOLD2Ev@Base 0.3
 _ZN4Tins8RSNEAPOL10key_lengthEt@Base 0.3
 _ZN4Tins8RSNEAPOL10wpa_lengthEt@Base 0.3
 _ZN4Tins8RSNEAPOL10write_bodyEPhj@Base 0.3
 (subst)_ZN4Tins8RSNEAPOL14key_descriptorENS_10small_uintIL{size_t}3EEE@Base 0.3
 (subst)_ZN4Tins8RSNEAPOL14replay_counterE{uint64_t}@Base 0.3
 _ZN4Tins8RSNEAPOL2idEPKh@Base 0.3
 _ZN4Tins8RSNEAPOL3keyERKSt6vectorIhSaIhEE@Base 0.3
 _ZN4Tins8RSNEAPOL3micEPKh@Base 0.3
 _ZN4Tins8RSNEAPOL3rscEPKh@Base 0.3
 (subst)_ZN4Tins8RSNEAPOL5errorENS_10small_uintIL{size_t}1EEE@Base 0.3
 (subst)_ZN4Tins8RSNEAPOL5key_tENS_10small_uintIL{size_t}1EEE@Base 0.3
 _ZN4Tins8RSNEAPOL5nonceEPKh@Base 0.3
 _ZN4Tins8RSNEAPOL6key_ivEPKh@Base 0.3
 (subst)_ZN4Tins8RSNEAPOL6secureENS_10small_uintIL{size_t}1EEE@Base 0.3
 (subst)_ZN4Tins8RSNEAPOL7installENS_10small_uintIL{size_t}1EEE@Base 0.3
 (subst)_ZN4Tins8RSNEAPOL7key_ackENS_10small_uintIL{size_t}1EEE@Base 0.3
 (subst)_ZN4Tins8RSNEAPOL7key_micENS_10small_uintIL{size_t}1EEE@Base 0.3
 (subst)_ZN4Tins8RSNEAPOL7requestENS_10small_uintIL{size_t}1EEE@Base 0.3
 (subst)_ZN4Tins8RSNEAPOL9encryptedENS_10small_uintIL{size_t}1EEE@Base 0.3
 (subst)_ZN4Tins8RSNEAPOL9key_indexENS_10small_uintIL{size_t}2EEE@Base 0.3
 _ZN4Tins8RSNEAPOLC1EPKhj@Base 0.3
 _ZN4Tins8RSNEAPOLC1Ev@Base 0.3
 _ZN4Tins8RSNEAPOLC2EPKhj@Base 0.3
 _ZN4Tins8RSNEAPOLC2Ev@Base 0.3
 _ZN4Tins8RSNEAPOLD0Ev@Base 0.3
 _ZN4Tins8RSNEAPOLD1Ev@Base 0.3
 _ZN4Tins8RSNEAPOLD2Ev@Base 0.3
 _ZN4Tins8RadioTap10dbm_signalEh@Base 0.3
 _ZN4Tins8RadioTap19write_serializationEPhjPKNS_3PDUE@Base 0.3
 _ZN4Tins8RadioTap4initEv@Base 0.3
 _ZN4Tins8RadioTap4rateEh@Base 0.3
 _ZN4Tins8RadioTap4sendERNS_12PacketSenderE@Base 0.3
 (subst)_ZN4Tins8RadioTap4tsftE{uint64_t}@Base 0.3
 _ZN4Tins8RadioTap5flagsENS0_10FrameFlagsE@Base 0.3
 _ZN4Tins8RadioTap6lengthEt@Base 0.3
 _ZN4Tins8RadioTap7antennaEh@Base 0.3
 _ZN4Tins8RadioTap7channelEtt@Base 0.3
 _ZN4Tins8RadioTap7paddingEh@Base 0.3
 _ZN4Tins8RadioTap7versionEh@Base 0.3
 _ZN4Tins8RadioTap8rx_flagsEt@Base 0.3
 _ZN4Tins8RadioTap9dbm_noiseEh@Base 0.3
 _ZN4Tins8RadioTapC1EPKhj@Base 0.3
 _ZN4Tins8RadioTapC1ERKNS_16NetworkInterfaceEPNS_3PDUE@Base 0.3
 _ZN4Tins8RadioTapC2EPKhj@Base 0.3
 _ZN4Tins8RadioTapC2ERKNS_16NetworkInterfaceEPNS_3PDUE@Base 0.3
 _ZN4Tins8RadioTapD0Ev@Base 0.3
 _ZN4Tins8RadioTapD1Ev@Base 0.3
 _ZN4Tins8RadioTapD2Ev@Base 0.3
 _ZN4Tins9DNSRRImplD0Ev@Base 0.3
 _ZN4Tins9DNSRRImplD1Ev@Base 0.3
 _ZN4Tins9DNSRRImplD2Ev@Base 0.3
 _ZN4Tins9Dot11Data16write_ext_headerEPhj@Base 0.3
 (subst)_ZN4Tins9Dot11Data5addr2ERKNS_9HWAddressIL{size_t}6EhEE@Base 0.3
 (subst)_ZN4Tins9Dot11Data5addr3ERKNS_9HWAddressIL{size_t}6EhEE@Base 0.3
 (subst)_ZN4Tins9Dot11Data5addr4ERKNS_9HWAddressIL{size_t}6EhEE@Base 0.3
 (subst)_ZN4Tins9Dot11Data7seq_numENS_10small_uintIL{size_t}12EEE@Base 0.3
 (subst)_ZN4Tins9Dot11Data8frag_numENS_10small_uintIL{size_t}4EEE@Base 0.3
 _ZN4Tins9Dot11DataC1EPKhj@Base 0.3
 (subst)_ZN4Tins9Dot11DataC1ERKNS_9HWAddressIL{size_t}6EhEES4_PNS_3PDUE@Base 0.3
 _ZN4Tins9Dot11DataC2EPKhj@Base 0.3
 (subst)_ZN4Tins9Dot11DataC2ERKNS_9HWAddressIL{size_t}6EhEES4_PNS_3PDUE@Base 0.3
 _ZN4Tins9Dot11DataD0Ev@Base 0.3
 _ZN4Tins9Dot11DataD1Ev@Base 0.3
 _ZN4Tins9Dot11DataD2Ev@Base 0.3
 (optional=templinst|subst)_ZN4Tins9HWAddressIL{size_t}6EhE7convertIPhEEvRKSsT_@Base 0.3
 (optional=templinst|subst)_ZN4Tins9HWAddressIL{size_t}6EhEC1IL{size_t}18EEERAT__Kc@Base 0.3
 (optional=templinst|subst)_ZN4Tins9HWAddressIL{size_t}6EhEC2IL{size_t}18EEERAT__Kc@Base 0.3
 _ZN4Tins9IEEE802_312clone_packetEPKhj@Base 0.3
 _ZN4Tins9IEEE802_313recv_responseERNS_12PacketSenderE@Base 0.3
 _ZN4Tins9IEEE802_316matches_responseEPhj@Base 0.3
 _ZN4Tins9IEEE802_319write_serializationEPhjPKNS_3PDUE@Base 0.3
 _ZN4Tins9IEEE802_34sendERNS_12PacketSenderE@Base 0.3
 _ZN4Tins9IEEE802_35ifaceERKNS_16NetworkInterfaceE@Base 0.3
 _ZN4Tins9IEEE802_36lengthEt@Base 0.3
 (subst)_ZN4Tins9IEEE802_38dst_addrERKNS_9HWAddressIL{size_t}6EhEE@Base 0.3
 (subst)_ZN4Tins9IEEE802_38src_addrERKNS_9HWAddressIL{size_t}6EhEE@Base 0.3
 _ZN4Tins9IEEE802_39BROADCASTE@Base 0.3
 _ZN4Tins9IEEE802_3C1EPKhj@Base 0.3
 (subst)_ZN4Tins9IEEE802_3C1ERKNS_16NetworkInterfaceERKNS_9HWAddressIL{size_t}6EhEES7_PNS_3PDUE@Base 0.3
 _ZN4Tins9IEEE802_3C2EPKhj@Base 0.3
 (subst)_ZN4Tins9IEEE802_3C2ERKNS_16NetworkInterfaceERKNS_9HWAddressIL{size_t}6EhEES7_PNS_3PDUE@Base 0.3
 _ZN4Tins9IEEE802_3D0Ev@Base 0.3
 _ZN4Tins9IEEE802_3D1Ev@Base 0.3
 _ZN4Tins9IEEE802_3D2Ev@Base 0.3
 _ZN4Tins9Internals13pdu_from_flagENS_9Constants8Ethernet1eEPKhjb@Base 0.3
 _ZN4Tins9Internals22pdu_flag_to_ether_typeENS_3PDU7PDUTypeE@Base 0.3
 _ZN4Tins9Internals8from_hexERKSsRj@Base 0.3
 _ZN4Tins9Internals9skip_lineERSi@Base 0.3
 (optional=templinst)_ZN4Tins9PDUOptionINS_2IP17option_identifierESt6vectorIhSaIhEEED1Ev@Base 0.3
 (optional=templinst)_ZN4Tins9PDUOptionINS_2IP17option_identifierESt6vectorIhSaIhEEED2Ev@Base 0.3
 (optional=templinst)_ZN4Tins9PDUOptionIhSt6vectorIhSaIhEEED1Ev@Base 0.3
 (optional=templinst)_ZN4Tins9PDUOptionIhSt6vectorIhSaIhEEED2Ev@Base 0.3
 _ZN4Tins9TCPStream10StreamInfoC1ENS_11IPv4AddressES2_tt@Base 0.3
 _ZN4Tins9TCPStream10StreamInfoC2ENS_11IPv4AddressES2_tt@Base 0.3
 _ZN4Tins9TCPStream14free_fragmentsERSt3mapIjPNS_6RawPDUESt4lessIjESaISt4pairIKjS3_EEE@Base 0.3
 _ZN4Tins9TCPStream15clone_fragmentsERKSt3mapIjPNS_6RawPDUESt4lessIjESaISt4pairIKjS3_EEE@Base 0.3
 _ZN4Tins9TCPStream15generic_processERjS1_RSt6vectorIhSaIhEERSt3mapIjPNS_6RawPDUESt4lessIjESaISt4pairIKjS8_EEEPNS_3TCPES8_@Base 0.3
 _ZN4Tins9TCPStream6updateEPNS_2IPEPNS_3TCPE@Base 0.3
 (subst)_ZN4Tins9TCPStreamC1EPNS_2IPEPNS_3TCPE{uint64_t}@Base 0.3
 _ZN4Tins9TCPStreamC1ERKS0_@Base 0.3
 (subst)_ZN4Tins9TCPStreamC2EPNS_2IPEPNS_3TCPE{uint64_t}@Base 0.3
 _ZN4Tins9TCPStreamC2ERKS0_@Base 0.3
 _ZN4Tins9TCPStreamD1Ev@Base 0.3
 _ZN4Tins9TCPStreamD2Ev@Base 0.3
 _ZN4Tins9TCPStreamaSERKS0_@Base 0.3
 _ZN4TinslsERSoRKNS_11IPv4AddressE@Base 0.3
 _ZNK4Tins10Dot11CFEnd12matches_flagENS_3PDU7PDUTypeE@Base 0.3
 _ZNK4Tins10Dot11CFEnd5cloneEv@Base 0.3
 _ZNK4Tins10Dot11CFEnd8pdu_typeEv@Base 0.3
 _ZNK4Tins10EthernetII11header_sizeEv@Base 0.3
 _ZNK4Tins10EthernetII5cloneEv@Base 0.3
 _ZNK4Tins10EthernetII8pdu_typeEv@Base 0.3
 _ZNK4Tins11Dot11Beacon11header_sizeEv@Base 0.3
 _ZNK4Tins11Dot11Beacon12matches_flagENS_3PDU7PDUTypeE@Base 0.3
 _ZNK4Tins11Dot11Beacon5cloneEv@Base 0.3
 _ZNK4Tins11Dot11Beacon8pdu_typeEv@Base 0.3
 _ZNK4Tins11Dot11PSPoll12matches_flagENS_3PDU7PDUTypeE@Base 0.3
 _ZNK4Tins11Dot11PSPoll5cloneEv@Base 0.3
 _ZNK4Tins11Dot11PSPoll8pdu_typeEv@Base 0.3
 _ZNK4Tins11IPv4Address9to_stringEv@Base 0.3
 _ZNK4Tins11IPv4AddresscvjEv@Base 0.3
 _ZNK4Tins11IPv6Address17malformed_address4whatEv@Base 0.3
 _ZNK4Tins11IPv6Address9to_stringEv@Base 0.3
 _ZNK4Tins12Dot11Control12matches_flagENS_3PDU7PDUTypeE@Base 0.3
 _ZNK4Tins12Dot11Control8pdu_typeEv@Base 0.3
 _ZNK4Tins12Dot11QoSData11header_sizeEv@Base 0.3
 _ZNK4Tins12Dot11QoSData12matches_flagENS_3PDU7PDUTypeE@Base 0.3
 _ZNK4Tins12Dot11QoSData5cloneEv@Base 0.3
 _ZNK4Tins12Dot11QoSData8pdu_typeEv@Base 0.3
 _ZNK4Tins12PacketSender24ether_socket_initializedERKNS_16NetworkInterfaceE@Base 0.3
 _ZNK4Tins13Dot11BlockAck11header_sizeEv@Base 0.3
 _ZNK4Tins13Dot11BlockAck12matches_flagENS_3PDU7PDUTypeE@Base 0.3
 _ZNK4Tins13Dot11BlockAck5cloneEv@Base 0.3
 _ZNK4Tins13Dot11BlockAck8pdu_typeEv@Base 0.3
 _ZNK4Tins13Dot11Disassoc11header_sizeEv@Base 0.3
 _ZNK4Tins13Dot11Disassoc12matches_flagENS_3PDU7PDUTypeE@Base 0.3
 _ZNK4Tins13Dot11Disassoc5cloneEv@Base 0.3
 _ZNK4Tins13Dot11Disassoc8pdu_typeEv@Base 0.3
 _ZNK4Tins13Dot11EndCFAck12matches_flagENS_3PDU7PDUTypeE@Base 0.3
 _ZNK4Tins13Dot11EndCFAck5cloneEv@Base 0.3
 _ZNK4Tins13Dot11EndCFAck8pdu_typeEv@Base 0.3
 _ZNK4Tins14Dot11ControlTA11header_sizeEv@Base 0.3
 _ZNK4Tins14NamedDNSRRImpl13dname_pointerEv@Base 0.3
 _ZNK4Tins14NamedDNSRRImpl4sizeEv@Base 0.3
 _ZNK4Tins14NamedDNSRRImpl5cloneEv@Base 0.3
 _ZNK4Tins14NamedDNSRRImpl7matchesERKSs@Base 0.3
 _ZNK4Tins14NamedDNSRRImpl8do_writeEPh@Base 0.3
 _ZNK4Tins14RSNInformation9serializeEv@Base 0.3
 _ZNK4Tins15value_too_large4whatEv@Base 0.3
 _ZNK4Tins16NetworkInterface4nameEv@Base 0.3
 _ZNK4Tins16NetworkInterface9addressesEv@Base 0.3
 _ZNK4Tins16option_not_found4whatEv@Base 0.3
 _ZNK4Tins17DNSResourceRecord10clone_implEv@Base 0.3
 _ZNK4Tins17DNSResourceRecord15has_domain_nameEv@Base 0.3
 _ZNK4Tins17DNSResourceRecord4sizeEv@Base 0.3
 _ZNK4Tins17DNSResourceRecord5dnameEv@Base 0.3
 _ZNK4Tins17DNSResourceRecord5writeEPh@Base 0.3
 _ZNK4Tins17DNSResourceRecord6offsetEv@Base 0.3
 _ZNK4Tins17DNSResourceRecord7matchesERKSs@Base 0.3
 _ZNK4Tins17DNSResourceRecord9impl_sizeEv@Base 0.3
 _ZNK4Tins17Dot11AssocRequest11header_sizeEv@Base 0.3
 _ZNK4Tins17Dot11AssocRequest12matches_flagENS_3PDU7PDUTypeE@Base 0.3
 _ZNK4Tins17Dot11AssocRequest5cloneEv@Base 0.3
 _ZNK4Tins17Dot11AssocRequest8pdu_typeEv@Base 0.3
 _ZNK4Tins17Dot11ProbeRequest12matches_flagENS_3PDU7PDUTypeE@Base 0.3
 _ZNK4Tins17Dot11ProbeRequest5cloneEv@Base 0.3
 _ZNK4Tins17Dot11ProbeRequest8pdu_typeEv@Base 0.3
 _ZNK4Tins17OffsetedDNSRRImpl4sizeEv@Base 0.3
 _ZNK4Tins17OffsetedDNSRRImpl5cloneEv@Base 0.3
 _ZNK4Tins17OffsetedDNSRRImpl6offsetEv@Base 0.3
 _ZNK4Tins17OffsetedDNSRRImpl8do_writeEPh@Base 0.3
 _ZNK4Tins18Dot11AssocResponse11header_sizeEv@Base 0.3
 _ZNK4Tins18Dot11AssocResponse12matches_flagENS_3PDU7PDUTypeE@Base 0.3
 _ZNK4Tins18Dot11AssocResponse5cloneEv@Base 0.3
 _ZNK4Tins18Dot11AssocResponse8pdu_typeEv@Base 0.3
 _ZNK4Tins18Dot11ProbeResponse11header_sizeEv@Base 0.3
 _ZNK4Tins18Dot11ProbeResponse12matches_flagENS_3PDU7PDUTypeE@Base 0.3
 _ZNK4Tins18Dot11ProbeResponse5cloneEv@Base 0.3
 _ZNK4Tins18Dot11ProbeResponse8pdu_typeEv@Base 0.3
 _ZNK4Tins19Dot11Authentication11header_sizeEv@Base 0.3
 _ZNK4Tins19Dot11Authentication12matches_flagENS_3PDU7PDUTypeE@Base 0.3
 _ZNK4Tins19Dot11Authentication5cloneEv@Base 0.3
 _ZNK4Tins19Dot11Authentication8pdu_typeEv@Base 0.3
 _ZNK4Tins19Dot11ReAssocRequest11header_sizeEv@Base 0.3
 _ZNK4Tins19Dot11ReAssocRequest12matches_flagENS_3PDU7PDUTypeE@Base 0.3
 _ZNK4Tins19Dot11ReAssocRequest5cloneEv@Base 0.3
 _ZNK4Tins19Dot11ReAssocRequest8pdu_typeEv@Base 0.3
 _ZNK4Tins20Dot11BlockAckRequest11header_sizeEv@Base 0.3
 _ZNK4Tins20Dot11BlockAckRequest12matches_flagENS_3PDU7PDUTypeE@Base 0.3
 _ZNK4Tins20Dot11BlockAckRequest5cloneEv@Base 0.3
 _ZNK4Tins20Dot11BlockAckRequest8pdu_typeEv@Base 0.3
 _ZNK4Tins20Dot11ManagementFrame10tpc_reportEv@Base 0.3
 _ZNK4Tins20Dot11ManagementFrame11header_sizeEv@Base 0.3
 _ZNK4Tins20Dot11ManagementFrame12matches_flagENS_3PDU7PDUTypeE@Base 0.3
 _ZNK4Tins20Dot11ManagementFrame13fh_parametersEv@Base 0.3
 _ZNK4Tins20Dot11ManagementFrame14challenge_textEv@Base 0.3
 _ZNK4Tins20Dot11ManagementFrame14channel_switchEv@Base 0.3
 _ZNK4Tins20Dot11ManagementFrame14qos_capabilityEv@Base 0.3
 _ZNK4Tins20Dot11ManagementFrame15erp_informationEv@Base 0.3
 _ZNK4Tins20Dot11ManagementFrame15supported_ratesEv@Base 0.3
 _ZNK4Tins20Dot11ManagementFrame16ds_parameter_setEv@Base 0.3
 _ZNK4Tins20Dot11ManagementFrame16fh_parameter_setEv@Base 0.3
 _ZNK4Tins20Dot11ManagementFrame16fh_pattern_tableEv@Base 0.3
 _ZNK4Tins20Dot11ManagementFrame16power_capabilityEv@Base 0.3
 _ZNK4Tins20Dot11ManagementFrame16power_constraintEv@Base 0.3
 _ZNK4Tins20Dot11ManagementFrame18ibss_parameter_setEv@Base 0.3
 _ZNK4Tins20Dot11ManagementFrame18supported_channelsEv@Base 0.3
 _ZNK4Tins20Dot11ManagementFrame19request_informationEv@Base 0.3
 _ZNK4Tins20Dot11ManagementFrame24extended_supported_ratesEv@Base 0.3
 _ZNK4Tins20Dot11ManagementFrame3timEv@Base 0.3
 _ZNK4Tins20Dot11ManagementFrame4ssidEv@Base 0.3
 _ZNK4Tins20Dot11ManagementFrame5quietEv@Base 0.3
 _ZNK4Tins20Dot11ManagementFrame7countryEv@Base 0.3
 _ZNK4Tins20Dot11ManagementFrame8bss_loadEv@Base 0.3
 _ZNK4Tins20Dot11ManagementFrame8ibss_dfsEv@Base 0.3
 _ZNK4Tins20Dot11ManagementFrame8pdu_typeEv@Base 0.3
 _ZNK4Tins20Dot11ReAssocResponse11header_sizeEv@Base 0.3
 _ZNK4Tins20Dot11ReAssocResponse12matches_flagENS_3PDU7PDUTypeE@Base 0.3
 _ZNK4Tins20Dot11ReAssocResponse5cloneEv@Base 0.3
 _ZNK4Tins20Dot11ReAssocResponse8pdu_typeEv@Base 0.3
 _ZNK4Tins21Dot11Deauthentication11header_sizeEv@Base 0.3
 _ZNK4Tins21Dot11Deauthentication12matches_flagENS_3PDU7PDUTypeE@Base 0.3
 _ZNK4Tins21Dot11Deauthentication5cloneEv@Base 0.3
 _ZNK4Tins21Dot11Deauthentication8pdu_typeEv@Base 0.3
 _ZNK4Tins22InvalidSocketTypeError4whatEv@Base 0.3
 _ZNK4Tins2IP11header_sizeEv@Base 0.3
 _ZNK4Tins2IP13search_optionENS0_17option_identifierE@Base 0.3
 _ZNK4Tins2IP17stream_identifierEv@Base 0.3
 _ZNK4Tins2IP19search_route_optionENS0_17option_identifierE@Base 0.3
 _ZNK4Tins2IP5cloneEv@Base 0.3
 _ZNK4Tins2IP8pdu_typeEv@Base 0.3
 _ZNK4Tins2IP8securityEv@Base 0.3
 _ZNK4Tins3ARP11header_sizeEv@Base 0.3
 _ZNK4Tins3ARP5cloneEv@Base 0.3
 _ZNK4Tins3ARP8pdu_typeEv@Base 0.3
 _ZNK4Tins3DNS10add_suffixEjPKhj@Base 0.3
 _ZNK4Tins3DNS11header_sizeEv@Base 0.3
 _ZNK4Tins3DNS12compose_nameEPKhjRSs@Base 0.3
 _ZNK4Tins3DNS14serialize_listERKSt4listINS_17DNSResourceRecordESaIS2_EEPh@Base 0.3
 _ZNK4Tins3DNS16build_suffix_mapEjRKSt4listINS0_5QueryESaIS2_EE@Base 0.3
 _ZNK4Tins3DNS16build_suffix_mapEjRKSt4listINS_17DNSResourceRecordESaIS2_EE@Base 0.3
 _ZNK4Tins3DNS16build_suffix_mapEv@Base 0.3
 _ZNK4Tins3DNS17convert_resourcesERKSt4listINS_17DNSResourceRecordESaIS2_EERS1_INS0_8ResourceESaIS7_EE@Base 0.3
 _ZNK4Tins3DNS17parse_domain_nameERKSsRSs@Base 0.3
 _ZNK4Tins3DNS19unparse_domain_nameERKSsRSs@Base 0.3
 _ZNK4Tins3DNS5cloneEv@Base 0.3
 _ZNK4Tins3DNS7answersEv@Base 0.3
 _ZNK4Tins3DNS7queriesEv@Base 0.3
 _ZNK4Tins3DNS8pdu_typeEv@Base 0.3
 _ZNK4Tins3LLC11header_sizeEv@Base 0.3
 _ZNK4Tins3LLC5cloneEv@Base 0.3
 _ZNK4Tins3LLC8pdu_typeEv@Base 0.3
 _ZNK4Tins3PDU12matches_flagENS0_7PDUTypeE@Base 0.3
 _ZNK4Tins3PDU12trailer_sizeEv@Base 0.3
 _ZNK4Tins3PDU4sizeEv@Base 0.3
 _ZNK4Tins3SLL11header_sizeEv@Base 0.3
 _ZNK4Tins3SLL5cloneEv@Base 0.3
 _ZNK4Tins3SLL8pdu_typeEv@Base 0.3
 _ZNK4Tins3TCP11altchecksumEv@Base 0.3
 _ZNK4Tins3TCP11header_sizeEv@Base 0.3
 _ZNK4Tins3TCP13search_optionENS0_6OptionE@Base 0.3
 _ZNK4Tins3TCP18has_sack_permittedEv@Base 0.3
 _ZNK4Tins3TCP3mssEv@Base 0.3
 _ZNK4Tins3TCP4sackEv@Base 0.3
 _ZNK4Tins3TCP5cloneEv@Base 0.3
 _ZNK4Tins3TCP8pdu_typeEv@Base 0.3
 _ZNK4Tins3TCP8winscaleEv@Base 0.3
 _ZNK4Tins3TCP9timestampEv@Base 0.3
 _ZNK4Tins3UDP11header_sizeEv@Base 0.3
 _ZNK4Tins3UDP5cloneEv@Base 0.3
 _ZNK4Tins3UDP8pdu_typeEv@Base 0.3
 _ZNK4Tins4DHCP10lease_timeEv@Base 0.3
 _ZNK4Tins4DHCP11domain_nameEv@Base 0.3
 _ZNK4Tins4DHCP11header_sizeEv@Base 0.3
 _ZNK4Tins4DHCP11rebind_timeEv@Base 0.3
 _ZNK4Tins4DHCP11subnet_maskEv@Base 0.3
 _ZNK4Tins4DHCP12renewal_timeEv@Base 0.3
 _ZNK4Tins4DHCP12requested_ipEv@Base 0.3
 _ZNK4Tins4DHCP13search_optionENS0_7OptionsE@Base 0.3
 _ZNK4Tins4DHCP14generic_searchENS0_7OptionsENS0_9type2typeINS_11IPv4AddressEEE@Base 0.3
 _ZNK4Tins4DHCP14generic_searchENS0_7OptionsENS0_9type2typeISsEE@Base 0.3
 _ZNK4Tins4DHCP14generic_searchENS0_7OptionsENS0_9type2typeISt4listINS_11IPv4AddressESaIS4_EEEE@Base 0.3
 _ZNK4Tins4DHCP17server_identifierEv@Base 0.3
 _ZNK4Tins4DHCP19domain_name_serversEv@Base 0.3
 _ZNK4Tins4DHCP4typeEv@Base 0.3
 _ZNK4Tins4DHCP5cloneEv@Base 0.3
 _ZNK4Tins4DHCP7routersEv@Base 0.3
 _ZNK4Tins4DHCP8pdu_typeEv@Base 0.3
 _ZNK4Tins4DHCP9broadcastEv@Base 0.3
 _ZNK4Tins4ICMP11header_sizeEv@Base 0.3
 _ZNK4Tins4ICMP5cloneEv@Base 0.3
 _ZNK4Tins4ICMP8pdu_typeEv@Base 0.3
 _ZNK4Tins4IPv611header_sizeEv@Base 0.3
 _ZNK4Tins4IPv613search_headerENS0_15ExtensionHeaderE@Base 0.3
 _ZNK4Tins4IPv617header_size_error4whatEv@Base 0.3
 _ZNK4Tins4IPv65cloneEv@Base 0.3
 _ZNK4Tins4IPv68pdu_typeEv@Base 0.3
 _ZNK4Tins4SNAP11header_sizeEv@Base 0.3
 _ZNK4Tins4SNAP5cloneEv@Base 0.3
 _ZNK4Tins4SNAP8pdu_typeEv@Base 0.3
 _ZNK4Tins5BootP11header_sizeEv@Base 0.3
 _ZNK4Tins5BootP5cloneEv@Base 0.3
 _ZNK4Tins5BootP8pdu_typeEv@Base 0.3
 _ZNK4Tins5Dot1111header_sizeEv@Base 0.3
 _ZNK4Tins5Dot1112matches_flagENS_3PDU7PDUTypeE@Base 0.3
 _ZNK4Tins5Dot1113search_optionENS0_12TaggedOptionE@Base 0.3
 _ZNK4Tins5Dot115cloneEv@Base 0.3
 _ZNK4Tins5Dot118pdu_typeEv@Base 0.3
 _ZNK4Tins5EAPOL8pdu_typeEv@Base 0.3
 _ZNK4Tins6DHCPv610ia_addressEv@Base 0.3
 _ZNK4Tins6DHCPv610preferenceEv@Base 0.3
 _ZNK4Tins6DHCPv610user_classEv@Base 0.3
 _ZNK4Tins6DHCPv611header_sizeEv@Base 0.3
 _ZNK4Tins6DHCPv611status_codeEv@Base 0.3
 _ZNK4Tins6DHCPv611vendor_infoEv@Base 0.3
 _ZNK4Tins6DHCPv612elapsed_timeEv@Base 0.3
 _ZNK4Tins6DHCPv612interface_idEv@Base 0.3
 _ZNK4Tins6DHCPv612vendor_classEv@Base 0.3
 _ZNK4Tins6DHCPv612write_optionERKNS0_13dhcpv6_optionEPh@Base 0.3
 _ZNK4Tins6DHCPv613relay_messageEv@Base 0.3
 _ZNK4Tins6DHCPv613search_optionENS0_6OptionE@Base 0.3
 _ZNK4Tins6DHCPv614authenticationEv@Base 0.3
 _ZNK4Tins6DHCPv614option_requestEv@Base 0.3
 _ZNK4Tins6DHCPv614server_unicastEv@Base 0.3
 _ZNK4Tins6DHCPv615reconfigure_msgEv@Base 0.3
 _ZNK4Tins6DHCPv616has_rapid_commitEv@Base 0.3
 _ZNK4Tins6DHCPv616is_relay_messageEv@Base 0.3
 _ZNK4Tins6DHCPv622has_reconfigure_acceptEv@Base 0.3
 _ZNK4Tins6DHCPv65cloneEv@Base 0.3
 _ZNK4Tins6DHCPv65ia_naEv@Base 0.3
 _ZNK4Tins6DHCPv65ia_taEv@Base 0.3
 _ZNK4Tins6DHCPv67duid_en9serializeEv@Base 0.3
 _ZNK4Tins6DHCPv67duid_ll9serializeEv@Base 0.3
 _ZNK4Tins6DHCPv68duid_llt9serializeEv@Base 0.3
 _ZNK4Tins6DHCPv68pdu_typeEv@Base 0.3
 _ZNK4Tins6DHCPv69client_idEv@Base 0.3
 _ZNK4Tins6DHCPv69server_idEv@Base 0.3
 _ZNK4Tins6ICMPv610route_infoEv@Base 0.3
 _ZNK4Tins6ICMPv611has_optionsEv@Base 0.3
 _ZNK4Tins6ICMPv611header_sizeEv@Base 0.3
 _ZNK4Tins6ICMPv611prefix_infoEv@Base 0.3
 _ZNK4Tins6ICMPv613rsa_signatureEv@Base 0.3
 _ZNK4Tins6ICMPv613search_optionENS0_7OptionsE@Base 0.3
 _ZNK4Tins6ICMPv614shortcut_limitEv@Base 0.3
 _ZNK4Tins6ICMPv615dns_search_listEv@Base 0.3
 _ZNK4Tins6ICMPv615link_layer_addrEv@Base 0.3
 _ZNK4Tins6ICMPv615redirect_headerEv@Base 0.3
 _ZNK4Tins6ICMPv616search_addr_listENS0_7OptionsE@Base 0.3
 _ZNK4Tins6ICMPv616source_addr_listEv@Base 0.3
 _ZNK4Tins6ICMPv616target_addr_listEv@Base 0.3
 _ZNK4Tins6ICMPv618handover_key_replyEv@Base 0.3
 _ZNK4Tins6ICMPv619new_advert_intervalEv@Base 0.3
 _ZNK4Tins6ICMPv619new_home_agent_infoEv@Base 0.3
 _ZNK4Tins6ICMPv620handover_assist_infoEv@Base 0.3
 _ZNK4Tins6ICMPv620handover_key_requestEv@Base 0.3
 _ZNK4Tins6ICMPv621recursive_dns_serversEv@Base 0.3
 _ZNK4Tins6ICMPv622mobile_node_identifierEv@Base 0.3
 _ZNK4Tins6ICMPv622source_link_layer_addrEv@Base 0.3
 _ZNK4Tins6ICMPv622target_link_layer_addrEv@Base 0.3
 _ZNK4Tins6ICMPv63mapEv@Base 0.3
 _ZNK4Tins6ICMPv63mtuEv@Base 0.3
 _ZNK4Tins6ICMPv65cloneEv@Base 0.3
 _ZNK4Tins6ICMPv65naackEv@Base 0.3
 _ZNK4Tins6ICMPv65nonceEv@Base 0.3
 _ZNK4Tins6ICMPv68pdu_typeEv@Base 0.3
 _ZNK4Tins6ICMPv69ip_prefixEv@Base 0.3
 _ZNK4Tins6ICMPv69timestampEv@Base 0.3
 _ZNK4Tins6RawPDU11header_sizeEv@Base 0.3
 _ZNK4Tins6RawPDU5cloneEv@Base 0.3
 _ZNK4Tins6RawPDU8pdu_typeEv@Base 0.3
 _ZNK4Tins8Dot11Ack12matches_flagENS_3PDU7PDUTypeE@Base 0.3
 _ZNK4Tins8Dot11Ack5cloneEv@Base 0.3
 _ZNK4Tins8Dot11Ack8pdu_typeEv@Base 0.3
 _ZNK4Tins8Dot11RTS12matches_flagENS_3PDU7PDUTypeE@Base 0.3
 _ZNK4Tins8Dot11RTS5cloneEv@Base 0.3
 _ZNK4Tins8Dot11RTS8pdu_typeEv@Base 0.3
 _ZNK4Tins8Loopback11header_sizeEv@Base 0.3
 _ZNK4Tins8Loopback5cloneEv@Base 0.3
 _ZNK4Tins8Loopback8pdu_typeEv@Base 0.3
 _ZNK4Tins8RC4EAPOL11header_sizeEv@Base 0.3
 _ZNK4Tins8RC4EAPOL12matches_flagENS_3PDU7PDUTypeE@Base 0.3
 _ZNK4Tins8RC4EAPOL5cloneEv@Base 0.3
 _ZNK4Tins8RC4EAPOL8pdu_typeEv@Base 0.3
 _ZNK4Tins8RSNEAPOL11header_sizeEv@Base 0.3
 _ZNK4Tins8RSNEAPOL12matches_flagENS_3PDU7PDUTypeE@Base 0.3
 _ZNK4Tins8RSNEAPOL5cloneEv@Base 0.3
 _ZNK4Tins8RSNEAPOL8pdu_typeEv@Base 0.3
 _ZNK4Tins8RadioTap11header_sizeEv@Base 0.3
 _ZNK4Tins8RadioTap12trailer_sizeEv@Base 0.3
 _ZNK4Tins8RadioTap5cloneEv@Base 0.3
 _ZNK4Tins8RadioTap8pdu_typeEv@Base 0.3
 _ZNK4Tins9DNSRRImpl7matchesERKSs@Base 0.3
 _ZNK4Tins9Dot11Data11header_sizeEv@Base 0.3
 _ZNK4Tins9Dot11Data12matches_flagENS_3PDU7PDUTypeE@Base 0.3
 _ZNK4Tins9Dot11Data5cloneEv@Base 0.3
 _ZNK4Tins9Dot11Data8pdu_typeEv@Base 0.3
 _ZNK4Tins9IEEE802_311header_sizeEv@Base 0.3
 _ZNK4Tins9IEEE802_35cloneEv@Base 0.3
 _ZNK4Tins9IEEE802_38pdu_typeEv@Base 0.3
 _ZNK4Tins9TCPStream10StreamInfoltERKS1_@Base 0.3
 (optional=templinst)_ZNSs19_M_replace_dispatchIPKhEERSsN9__gnu_cxx17__normal_iteratorIPcSsEES6_T_S7_St12__false_type@Base 0.3
 (optional=templinst)_ZNSt10_List_baseIN4Tins17DNSResourceRecordESaIS1_EE8_M_clearEv@Base 0.3
 (optional=templinst)_ZNSt10_List_baseIN4Tins3DNS5QueryESaIS2_EE8_M_clearEv@Base 0.3
 (optional=templinst)_ZNSt10_List_baseIN4Tins3DNS8ResourceESaIS2_EE8_M_clearEv@Base 0.3
 (optional=templinst)_ZNSt10_List_baseIN4Tins6DHCPv613dhcpv6_optionESaIS2_EE8_M_clearEv@Base 0.3
 (optional=templinst)_ZNSt10_List_baseIN4Tins9PDUOptionINS0_2IP17option_identifierESt6vectorIhSaIhEEEESaIS7_EE8_M_clearEv@Base 0.3
 (optional=templinst)_ZNSt10_List_baseIN4Tins9PDUOptionIhSt6vectorIhSaIhEEEESaIS5_EE8_M_clearEv@Base 0.3
 (optional=templinst)_ZNSt10_List_baseISt6vectorIhSaIhEESaIS2_EE8_M_clearEv@Base 0.3
 (optional=templinst)_ZNSt12_Destroy_auxILb0EE9__destroyIPSsEEvT_S3_@Base 0.3
 (optional=templinst)_ZNSt12_Vector_baseIhSaIhEED1Ev@Base 0.3
 (optional=templinst)_ZNSt12_Vector_baseIhSaIhEED2Ev@Base 0.3
 (optional=templinst)_ZNSt3mapIjPN4Tins6RawPDUESt4lessIjESaISt4pairIKjS2_EEED1Ev@Base 0.3
 (optional=templinst)_ZNSt3mapIjPN4Tins6RawPDUESt4lessIjESaISt4pairIKjS2_EEED2Ev@Base 0.3
 (optional=templinst)_ZNSt4listIN4Tins17DNSResourceRecordESaIS1_EED1Ev@Base 0.3
 (optional=templinst)_ZNSt4listIN4Tins17DNSResourceRecordESaIS1_EED2Ev@Base 0.3
 (optional=templinst)_ZNSt6vectorIN4Tins11IPv4AddressESaIS1_EE19_M_emplace_back_auxIIS1_EEEvDpOT_@Base 0.3
 _ZNSt6vectorIN4Tins11IPv4AddressESaIS1_EE19_M_emplace_back_auxIJS1_EEEvDpOT_@Base 0.3
 (optional=templinst)_ZNSt6vectorIN4Tins11IPv6AddressESaIS1_EE19_M_emplace_back_auxIIS1_EEEvDpOT_@Base 0.3
 _ZNSt6vectorIN4Tins11IPv6AddressESaIS1_EE19_M_emplace_back_auxIJS1_EEEvDpOT_@Base 0.3
 (optional=templinst)_ZNSt6vectorIN4Tins11IPv6AddressESaIS1_EED1Ev@Base 0.3
 (optional=templinst)_ZNSt6vectorIN4Tins11IPv6AddressESaIS1_EED2Ev@Base 0.3
 (optional=templinst)_ZNSt6vectorIN4Tins14RSNInformation12CypherSuitesESaIS2_EE19_M_emplace_back_auxIIRKS2_EEEvDpOT_@Base 0.3
 _ZNSt6vectorIN4Tins14RSNInformation12CypherSuitesESaIS2_EE19_M_emplace_back_auxIJRKS2_EEEvDpOT_@Base 0.3
 (optional=templinst)_ZNSt6vectorIN4Tins14RSNInformation12CypherSuitesESaIS2_EED1Ev@Base 0.3
 (optional=templinst)_ZNSt6vectorIN4Tins14RSNInformation12CypherSuitesESaIS2_EED2Ev@Base 0.3
 (optional=templinst)_ZNSt6vectorIN4Tins14RSNInformation9AKMSuitesESaIS2_EE19_M_emplace_back_auxIIRKS2_EEEvDpOT_@Base 0.3
 _ZNSt6vectorIN4Tins14RSNInformation9AKMSuitesESaIS2_EE19_M_emplace_back_auxIJRKS2_EEEvDpOT_@Base 0.3
 (optional=templinst)_ZNSt6vectorIN4Tins14RSNInformation9AKMSuitesESaIS2_EED1Ev@Base 0.3
 (optional=templinst)_ZNSt6vectorIN4Tins14RSNInformation9AKMSuitesESaIS2_EED2Ev@Base 0.3
 (optional=templinst)_ZNSt6vectorIN4Tins5Utils10RouteEntryESaIS2_EE19_M_emplace_back_auxIIRKS2_EEEvDpOT_@Base 0.3
 _ZNSt6vectorIN4Tins5Utils10RouteEntryESaIS2_EE19_M_emplace_back_auxIJRKS2_EEEvDpOT_@Base 0.3
 (optional=templinst)_ZNSt6vectorIN4Tins6DHCPv66OptionESaIS2_EE19_M_emplace_back_auxIIS2_EEEvDpOT_@Base 0.3
 _ZNSt6vectorIN4Tins6DHCPv66OptionESaIS2_EE19_M_emplace_back_auxIJS2_EEEvDpOT_@Base 0.3
 (optional=templinst)_ZNSt6vectorIS_IhSaIhEESaIS1_EE19_M_emplace_back_auxIIS1_EEEvDpOT_@Base 0.3
 _ZNSt6vectorIS_IhSaIhEESaIS1_EE19_M_emplace_back_auxIJS1_EEEvDpOT_@Base 0.3
 (optional=templinst)_ZNSt6vectorIS_IhSaIhEESaIS1_EED1Ev@Base 0.3
 (optional=templinst)_ZNSt6vectorIS_IhSaIhEESaIS1_EED2Ev@Base 0.3
 (optional=templinst)_ZNSt6vectorISsSaISsEE19_M_emplace_back_auxIIRKSsEEEvDpOT_@Base 0.3
 _ZNSt6vectorISsSaISsEE19_M_emplace_back_auxIJRKSsEEEvDpOT_@Base 0.3
 (optional=templinst)_ZNSt6vectorISsSaISsEED1Ev@Base 0.3
 (optional=templinst)_ZNSt6vectorISsSaISsEED2Ev@Base 0.3
 (optional=templinst)_ZNSt6vectorISt4pairIhhESaIS1_EE19_M_emplace_back_auxIIS1_EEEvDpOT_@Base 0.3
 _ZNSt6vectorISt4pairIhhESaIS1_EE19_M_emplace_back_auxIJS1_EEEvDpOT_@Base 0.3
 (optional=templinst)_ZNSt6vectorIfSaIfEE19_M_emplace_back_auxIIfEEEvDpOT_@Base 0.3
 _ZNSt6vectorIfSaIfEE19_M_emplace_back_auxIJfEEEvDpOT_@Base 0.3
 (optional=templinst)_ZNSt6vectorIhSaIhEE13_M_assign_auxIPKhEEvT_S5_St20forward_iterator_tag@Base 0.3
 (optional=templinst)_ZNSt6vectorIhSaIhEE13_M_insert_auxIIRKhEEEvN9__gnu_cxx17__normal_iteratorIPhS1_EEDpOT_@Base 0.3
 (optional=templinst)_ZNSt6vectorIhSaIhEE13_M_insert_auxIIhEEEvN9__gnu_cxx17__normal_iteratorIPhS1_EEDpOT_@Base 0.3
 _ZNSt6vectorIhSaIhEE13_M_insert_auxIJRKhEEEvN9__gnu_cxx17__normal_iteratorIPhS1_EEDpOT_@Base 0.3
 _ZNSt6vectorIhSaIhEE13_M_insert_auxIJhEEEvN9__gnu_cxx17__normal_iteratorIPhS1_EEDpOT_@Base 0.3
 (optional=templinst|subst)_ZNSt6vectorIhSaIhEE14_M_fill_insertEN9__gnu_cxx17__normal_iteratorIPhS1_EE{size_t}RKh@Base 0.3
 (optional=templinst)_ZNSt6vectorIhSaIhEE15_M_range_insertIN9__gnu_cxx17__normal_iteratorIPKcSsEEEEvNS4_IPhS1_EET_SA_St20forward_iterator_tag@Base 0.3
 (optional=templinst)_ZNSt6vectorIhSaIhEE15_M_range_insertIN9__gnu_cxx17__normal_iteratorIPKhS1_EEEEvNS4_IPhS1_EET_SA_St20forward_iterator_tag@Base 0.3
 (optional=templinst)_ZNSt6vectorIhSaIhEE15_M_range_insertIN9__gnu_cxx17__normal_iteratorIPhS1_EEEEvS6_T_S7_St20forward_iterator_tag@Base 0.3
 (optional=templinst)_ZNSt6vectorIhSaIhEE15_M_range_insertIPKhEEvN9__gnu_cxx17__normal_iteratorIPhS1_EET_S9_St20forward_iterator_tag@Base 0.3
 (optional=templinst)_ZNSt6vectorIhSaIhEE15_M_range_insertIPhEEvN9__gnu_cxx17__normal_iteratorIS3_S1_EET_S7_St20forward_iterator_tag@Base 0.3
 (optional=templinst|subst)_ZNSt6vectorIhSaIhEE17_M_default_appendE{size_t}@Base 0.3
 (optional=templinst)_ZNSt6vectorIhSaIhEE19_M_emplace_back_auxIIRKhEEEvDpOT_@Base 0.3
 (optional=templinst)_ZNSt6vectorIhSaIhEE19_M_emplace_back_auxIIhEEEvDpOT_@Base 0.3
 _ZNSt6vectorIhSaIhEE19_M_emplace_back_auxIJRKhEEEvDpOT_@Base 0.3
 _ZNSt6vectorIhSaIhEE19_M_emplace_back_auxIJhEEEvDpOT_@Base 0.3
 (optional=templinst)_ZNSt6vectorIhSaIhEED1Ev@Base 0.3
 (optional=templinst)_ZNSt6vectorIhSaIhEED2Ev@Base 0.3
 (optional=templinst)_ZNSt6vectorIhSaIhEEaSERKS1_@Base 0.3
 (optional=templinst)_ZNSt6vectorIiSaIiEED1Ev@Base 0.3
 (optional=templinst)_ZNSt6vectorIiSaIiEED2Ev@Base 0.3
 (optional=templinst)_ZNSt8_Rb_treeIN4Tins12PacketSender10SocketTypeESt4pairIKS2_iESt10_Select1stIS5_ESt4lessIS2_ESaIS5_EE16_M_insert_uniqueIS3_IS2_iEEES3_ISt17_Rb_tree_iteratorIS5_EbEOT_@Base 0.3
 (optional=templinst)_ZNSt8_Rb_treeIN4Tins12PacketSender10SocketTypeESt4pairIKS2_iESt10_Select1stIS5_ESt4lessIS2_ESaIS5_EE17_M_insert_unique_IS3_IS2_iEEESt17_Rb_tree_iteratorIS5_ESt23_Rb_tree_const_iteratorIS5_EOT_@Base 0.3
 (optional=templinst)_ZNSt8_Rb_treeIN4Tins12PacketSender10SocketTypeESt4pairIKS2_iESt10_Select1stIS5_ESt4lessIS2_ESaIS5_EE8_M_eraseEPSt13_Rb_tree_nodeIS5_E@Base 0.3
 (optional=templinst|arch=amd64)_ZNSt8_Rb_treeIN4Tins9HWAddressILm6EhEESt4pairIKS2_SsESt10_Select1stIS5_ESt4lessIS2_ESaIS5_EE4findERS4_@Base 0.3
 (optional=templinst|subst)_ZNSt8_Rb_treeIN4Tins9HWAddressIL{size_t}6EhEESt4pairIKS2_SsESt10_Select1stIS5_ESt4lessIS2_ESaIS5_EE10_M_insert_IS5_EESt17_Rb_tree_iteratorIS5_EPKSt18_Rb_tree_node_baseSH_OT_@Base 0.3
 (optional=templinst|subst)_ZNSt8_Rb_treeIN4Tins9HWAddressIL{size_t}6EhEESt4pairIKS2_SsESt10_Select1stIS5_ESt4lessIS2_ESaIS5_EE11equal_rangeERS4_@Base 0.3
 (optional=templinst|subst)_ZNSt8_Rb_treeIN4Tins9HWAddressIL{size_t}6EhEESt4pairIKS2_SsESt10_Select1stIS5_ESt4lessIS2_ESaIS5_EE12_M_erase_auxESt23_Rb_tree_const_iteratorIS5_ESD_@Base 0.3
 (optional=templinst|subst)_ZNSt8_Rb_treeIN4Tins9HWAddressIL{size_t}6EhEESt4pairIKS2_SsESt10_Select1stIS5_ESt4lessIS2_ESaIS5_EE16_M_insert_uniqueIS5_EES3_ISt17_Rb_tree_iteratorIS5_EbEOT_@Base 0.3
 (optional=templinst|subst)_ZNSt8_Rb_treeIN4Tins9HWAddressIL{size_t}6EhEESt4pairIKS2_SsESt10_Select1stIS5_ESt4lessIS2_ESaIS5_EE17_M_insert_unique_IS5_EESt17_Rb_tree_iteratorIS5_ESt23_Rb_tree_const_iteratorIS5_EOT_@Base 0.3
 (optional=templinst|subst)_ZNSt8_Rb_treeIN4Tins9HWAddressIL{size_t}6EhEESt4pairIKS2_SsESt10_Select1stIS5_ESt4lessIS2_ESaIS5_EE8_M_eraseEPSt13_Rb_tree_nodeIS5_E@Base 0.3
 (optional=templinst|arch=amd64)_ZNSt8_Rb_treeISsSsSt9_IdentityISsESt4lessISsESaISsEE10_M_insert_ISsEESt17_Rb_tree_iteratorISsEPKSt18_Rb_tree_node_baseSB_OT_@Base 0.3
 (optional=templinst)_ZNSt8_Rb_treeISsSsSt9_IdentityISsESt4lessISsESaISsEE16_M_insert_uniqueISsEESt4pairISt17_Rb_tree_iteratorISsEbEOT_@Base 0.3
 (optional=templinst)_ZNSt8_Rb_treeISsSsSt9_IdentityISsESt4lessISsESaISsEE7_M_copyEPKSt13_Rb_tree_nodeISsEPS7_@Base 0.3
 (optional=templinst)_ZNSt8_Rb_treeISsSsSt9_IdentityISsESt4lessISsESaISsEE8_M_eraseEPSt13_Rb_tree_nodeISsE@Base 0.3
 (optional=templinst)_ZNSt8_Rb_treeIjSt4pairIKjPN4Tins6RawPDUEESt10_Select1stIS5_ESt4lessIjESaIS5_EE16_M_insert_uniqueIS0_IjS4_EEES0_ISt17_Rb_tree_iteratorIS5_EbEOT_@Base 0.3
 (optional=templinst)_ZNSt8_Rb_treeIjSt4pairIKjPN4Tins6RawPDUEESt10_Select1stIS5_ESt4lessIjESaIS5_EE17_M_insert_unique_IS0_IjS4_EEESt17_Rb_tree_iteratorIS5_ESt23_Rb_tree_const_iteratorIS5_EOT_@Base 0.3
 (optional=templinst)_ZNSt8_Rb_treeIjSt4pairIKjPN4Tins6RawPDUEESt10_Select1stIS5_ESt4lessIjESaIS5_EE8_M_eraseEPSt13_Rb_tree_nodeIS5_E@Base 0.3
 (optional=templinst)_ZNSt8_Rb_treeItSt4pairIKtSsESt10_Select1stIS2_ESt4lessItESaIS2_EE7_M_copyEPKSt13_Rb_tree_nodeIS2_EPSA_@Base 0.3
 (optional=templinst)_ZNSt8_Rb_treeItSt4pairIKtSsESt10_Select1stIS2_ESt4lessItESaIS2_EE8_M_eraseEPSt13_Rb_tree_nodeIS2_E@Base 0.3
 (optional=templinst)_ZNSt8_Rb_treeItSt4pairIKttESt10_Select1stIS2_ESt4lessItESaIS2_EE16_M_insert_uniqueIS0_IttEEES0_ISt17_Rb_tree_iteratorIS2_EbEOT_@Base 0.3
 (optional=templinst)_ZNSt8_Rb_treeItSt4pairIKttESt10_Select1stIS2_ESt4lessItESaIS2_EE17_M_insert_unique_IS0_IttEEESt17_Rb_tree_iteratorIS2_ESt23_Rb_tree_const_iteratorIS2_EOT_@Base 0.3
 (optional=templinst)_ZNSt8_Rb_treeItSt4pairIKttESt10_Select1stIS2_ESt4lessItESaIS2_EE7_M_copyEPKSt13_Rb_tree_nodeIS2_EPSA_@Base 0.3
 (optional=templinst)_ZNSt8_Rb_treeItSt4pairIKttESt10_Select1stIS2_ESt4lessItESaIS2_EE8_M_eraseEPSt13_Rb_tree_nodeIS2_E@Base 0.3
 _ZTIN4Tins10Dot11CFEndE@Base 0.3
 _ZTIN4Tins10EthernetIIE@Base 0.3
 _ZTIN4Tins11BaseSnifferE@Base 0.3
 _ZTIN4Tins11Dot11BeaconE@Base 0.3
 _ZTIN4Tins11Dot11PSPollE@Base 0.3
 _ZTIN4Tins11FileSnifferE@Base 0.3
 _ZTIN4Tins11IPv6Address17malformed_addressE@Base 0.3
 _ZTIN4Tins12Dot11ControlE@Base 0.3
 _ZTIN4Tins12Dot11QoSDataE@Base 0.3
 _ZTIN4Tins13Dot11BlockAckE@Base 0.3
 _ZTIN4Tins13Dot11DisassocE@Base 0.3
 _ZTIN4Tins13Dot11EndCFAckE@Base 0.3
 _ZTIN4Tins14Dot11ControlTAE@Base 0.3
 _ZTIN4Tins14NamedDNSRRImplE@Base 0.3
 _ZTIN4Tins15SocketOpenErrorE@Base 0.3
 _ZTIN4Tins15value_too_largeE@Base 0.3
 _ZTIN4Tins16SocketCloseErrorE@Base 0.3
 _ZTIN4Tins16SocketWriteErrorE@Base 0.3
 _ZTIN4Tins16option_not_foundE@Base 0.3
 _ZTIN4Tins17Dot11AssocRequestE@Base 0.3
 _ZTIN4Tins17Dot11ProbeRequestE@Base 0.3
 _ZTIN4Tins17OffsetedDNSRRImplE@Base 0.3
 _ZTIN4Tins18Dot11AssocResponseE@Base 0.3
 _ZTIN4Tins18Dot11ProbeResponseE@Base 0.3
 _ZTIN4Tins19Dot11AuthenticationE@Base 0.3
 _ZTIN4Tins19Dot11ReAssocRequestE@Base 0.3
 _ZTIN4Tins20Dot11BlockAckRequestE@Base 0.3
 _ZTIN4Tins20Dot11ManagementFrameE@Base 0.3
 _ZTIN4Tins20Dot11ReAssocResponseE@Base 0.3
 _ZTIN4Tins21Dot11DeauthenticationE@Base 0.3
 _ZTIN4Tins22InvalidSocketTypeErrorE@Base 0.3
 _ZTIN4Tins2IPE@Base 0.3
 _ZTIN4Tins3ARPE@Base 0.3
 _ZTIN4Tins3DNSE@Base 0.3
 _ZTIN4Tins3LLCE@Base 0.3
 _ZTIN4Tins3PDUE@Base 0.3
 _ZTIN4Tins3SLLE@Base 0.3
 _ZTIN4Tins3TCPE@Base 0.3
 _ZTIN4Tins3UDPE@Base 0.3
 _ZTIN4Tins4DHCPE@Base 0.3
 _ZTIN4Tins4ICMPE@Base 0.3
 _ZTIN4Tins4IPv617header_size_errorE@Base 0.3
 _ZTIN4Tins4IPv6E@Base 0.3
 _ZTIN4Tins4SNAPE@Base 0.3
 _ZTIN4Tins5BootPE@Base 0.3
 _ZTIN4Tins5Dot11E@Base 0.3
 _ZTIN4Tins5EAPOLE@Base 0.3
 _ZTIN4Tins6DHCPv6E@Base 0.3
 _ZTIN4Tins6ICMPv6E@Base 0.3
 _ZTIN4Tins6RawPDUE@Base 0.3
 _ZTIN4Tins7SnifferE@Base 0.3
 _ZTIN4Tins8Dot11AckE@Base 0.3
 _ZTIN4Tins8Dot11RTSE@Base 0.3
 _ZTIN4Tins8LoopbackE@Base 0.3
 _ZTIN4Tins8RC4EAPOLE@Base 0.3
 _ZTIN4Tins8RSNEAPOLE@Base 0.3
 _ZTIN4Tins8RadioTapE@Base 0.3
 _ZTIN4Tins9DNSRRImplE@Base 0.3
 _ZTIN4Tins9Dot11DataE@Base 0.3
 _ZTIN4Tins9IEEE802_3E@Base 0.3
 _ZTSN4Tins10Dot11CFEndE@Base 0.3
 _ZTSN4Tins10EthernetIIE@Base 0.3
 _ZTSN4Tins11BaseSnifferE@Base 0.3
 _ZTSN4Tins11Dot11BeaconE@Base 0.3
 _ZTSN4Tins11Dot11PSPollE@Base 0.3
 _ZTSN4Tins11FileSnifferE@Base 0.3
 _ZTSN4Tins11IPv6Address17malformed_addressE@Base 0.3
 _ZTSN4Tins12Dot11ControlE@Base 0.3
 _ZTSN4Tins12Dot11QoSDataE@Base 0.3
 _ZTSN4Tins13Dot11BlockAckE@Base 0.3
 _ZTSN4Tins13Dot11DisassocE@Base 0.3
 _ZTSN4Tins13Dot11EndCFAckE@Base 0.3
 _ZTSN4Tins14Dot11ControlTAE@Base 0.3
 _ZTSN4Tins14NamedDNSRRImplE@Base 0.3
 _ZTSN4Tins15SocketOpenErrorE@Base 0.3
 _ZTSN4Tins15value_too_largeE@Base 0.3
 _ZTSN4Tins16SocketCloseErrorE@Base 0.3
 _ZTSN4Tins16SocketWriteErrorE@Base 0.3
 _ZTSN4Tins16option_not_foundE@Base 0.3
 _ZTSN4Tins17Dot11AssocRequestE@Base 0.3
 _ZTSN4Tins17Dot11ProbeRequestE@Base 0.3
 _ZTSN4Tins17OffsetedDNSRRImplE@Base 0.3
 _ZTSN4Tins18Dot11AssocResponseE@Base 0.3
 _ZTSN4Tins18Dot11ProbeResponseE@Base 0.3
 _ZTSN4Tins19Dot11AuthenticationE@Base 0.3
 _ZTSN4Tins19Dot11ReAssocRequestE@Base 0.3
 _ZTSN4Tins20Dot11BlockAckRequestE@Base 0.3
 _ZTSN4Tins20Dot11ManagementFrameE@Base 0.3
 _ZTSN4Tins20Dot11ReAssocResponseE@Base 0.3
 _ZTSN4Tins21Dot11DeauthenticationE@Base 0.3
 _ZTSN4Tins22InvalidSocketTypeErrorE@Base 0.3
 _ZTSN4Tins2IPE@Base 0.3
 _ZTSN4Tins3ARPE@Base 0.3
 _ZTSN4Tins3DNSE@Base 0.3
 _ZTSN4Tins3LLCE@Base 0.3
 _ZTSN4Tins3PDUE@Base 0.3
 _ZTSN4Tins3SLLE@Base 0.3
 _ZTSN4Tins3TCPE@Base 0.3
 _ZTSN4Tins3UDPE@Base 0.3
 _ZTSN4Tins4DHCPE@Base 0.3
 _ZTSN4Tins4ICMPE@Base 0.3
 _ZTSN4Tins4IPv617header_size_errorE@Base 0.3
 _ZTSN4Tins4IPv6E@Base 0.3
 _ZTSN4Tins4SNAPE@Base 0.3
 _ZTSN4Tins5BootPE@Base 0.3
 _ZTSN4Tins5Dot11E@Base 0.3
 _ZTSN4Tins5EAPOLE@Base 0.3
 _ZTSN4Tins6DHCPv6E@Base 0.3
 _ZTSN4Tins6ICMPv6E@Base 0.3
 _ZTSN4Tins6RawPDUE@Base 0.3
 _ZTSN4Tins7SnifferE@Base 0.3
 _ZTSN4Tins8Dot11AckE@Base 0.3
 _ZTSN4Tins8Dot11RTSE@Base 0.3
 _ZTSN4Tins8LoopbackE@Base 0.3
 _ZTSN4Tins8RC4EAPOLE@Base 0.3
 _ZTSN4Tins8RSNEAPOLE@Base 0.3
 _ZTSN4Tins8RadioTapE@Base 0.3
 _ZTSN4Tins9DNSRRImplE@Base 0.3
 _ZTSN4Tins9Dot11DataE@Base 0.3
 _ZTSN4Tins9IEEE802_3E@Base 0.3
 _ZTVN4Tins10Dot11CFEndE@Base 0.3
 _ZTVN4Tins10EthernetIIE@Base 0.3
 _ZTVN4Tins11BaseSnifferE@Base 0.3
 _ZTVN4Tins11Dot11BeaconE@Base 0.3
 _ZTVN4Tins11Dot11PSPollE@Base 0.3
 _ZTVN4Tins11FileSnifferE@Base 0.3
 _ZTVN4Tins11IPv6Address17malformed_addressE@Base 0.3
 _ZTVN4Tins12Dot11ControlE@Base 0.3
 _ZTVN4Tins12Dot11QoSDataE@Base 0.3
 _ZTVN4Tins13Dot11BlockAckE@Base 0.3
 _ZTVN4Tins13Dot11DisassocE@Base 0.3
 _ZTVN4Tins13Dot11EndCFAckE@Base 0.3
 _ZTVN4Tins14Dot11ControlTAE@Base 0.3
 _ZTVN4Tins14NamedDNSRRImplE@Base 0.3
 _ZTVN4Tins15SocketOpenErrorE@Base 0.3
 _ZTVN4Tins15value_too_largeE@Base 0.3
 _ZTVN4Tins16SocketCloseErrorE@Base 0.3
 _ZTVN4Tins16SocketWriteErrorE@Base 0.3
 _ZTVN4Tins16option_not_foundE@Base 0.3
 _ZTVN4Tins17Dot11AssocRequestE@Base 0.3
 _ZTVN4Tins17Dot11ProbeRequestE@Base 0.3
 _ZTVN4Tins17OffsetedDNSRRImplE@Base 0.3
 _ZTVN4Tins18Dot11AssocResponseE@Base 0.3
 _ZTVN4Tins18Dot11ProbeResponseE@Base 0.3
 _ZTVN4Tins19Dot11AuthenticationE@Base 0.3
 _ZTVN4Tins19Dot11ReAssocRequestE@Base 0.3
 _ZTVN4Tins20Dot11BlockAckRequestE@Base 0.3
 _ZTVN4Tins20Dot11ManagementFrameE@Base 0.3
 _ZTVN4Tins20Dot11ReAssocResponseE@Base 0.3
 _ZTVN4Tins21Dot11DeauthenticationE@Base 0.3
 _ZTVN4Tins22InvalidSocketTypeErrorE@Base 0.3
 _ZTVN4Tins2IPE@Base 0.3
 _ZTVN4Tins3ARPE@Base 0.3
 _ZTVN4Tins3DNSE@Base 0.3
 _ZTVN4Tins3LLCE@Base 0.3
 _ZTVN4Tins3PDUE@Base 0.3
 _ZTVN4Tins3SLLE@Base 0.3
 _ZTVN4Tins3TCPE@Base 0.3
 _ZTVN4Tins3UDPE@Base 0.3
 _ZTVN4Tins4DHCPE@Base 0.3
 _ZTVN4Tins4ICMPE@Base 0.3
 _ZTVN4Tins4IPv617header_size_errorE@Base 0.3
 _ZTVN4Tins4IPv6E@Base 0.3
 _ZTVN4Tins4SNAPE@Base 0.3
 _ZTVN4Tins5BootPE@Base 0.3
 _ZTVN4Tins5Dot11E@Base 0.3
 _ZTVN4Tins5EAPOLE@Base 0.3
 _ZTVN4Tins6DHCPv6E@Base 0.3
 _ZTVN4Tins6ICMPv6E@Base 0.3
 _ZTVN4Tins6RawPDUE@Base 0.3
 _ZTVN4Tins7SnifferE@Base 0.3
 _ZTVN4Tins8Dot11AckE@Base 0.3
 _ZTVN4Tins8Dot11RTSE@Base 0.3
 _ZTVN4Tins8LoopbackE@Base 0.3
 _ZTVN4Tins8RC4EAPOLE@Base 0.3
 _ZTVN4Tins8RSNEAPOLE@Base 0.3
 _ZTVN4Tins8RadioTapE@Base 0.3
 _ZTVN4Tins9DNSRRImplE@Base 0.3
 _ZTVN4Tins9Dot11DataE@Base 0.3
 _ZTVN4Tins9IEEE802_3E@Base 0.3
