libGL.so.1 libgl1-mesa-swx11 #MINVER#
 DRI2Authenticate@Base 9.0.1
 DRI2Connect@Base 9.0.1
 DRI2CopyRegion@Base 9.0.1
 DRI2CreateDrawable@Base 9.0.1
 DRI2DestroyDrawable@Base 9.0.1
 DRI2GetBuffers@Base 9.0.1
 DRI2GetBuffersWithFormat@Base 9.0.1
 DRI2GetMSC@Base 9.0.1
 DRI2QueryExtension@Base 9.0.1
 DRI2QueryVersion@Base 9.0.1
 DRI2SwapBuffers@Base 9.0.1
 DRI2SwapInterval@Base 9.0.1
 DRI2WaitMSC@Base 9.0.1
 DRI2WaitSBC@Base 9.0.1
 XF86DRIAuthConnection@Base 9.0.1
 XF86DRICloseConnection@Base 9.0.1
 XF86DRICloseFullScreen@Base 9.0.1
 XF86DRICreateContext@Base 9.0.1
 XF86DRICreateContextWithConfig@Base 9.0.1
 XF86DRICreateDrawable@Base 9.0.1
 XF86DRIDestroyContext@Base 9.0.1
 XF86DRIDestroyDrawable@Base 9.0.1
 XF86DRIGetClientDriverName@Base 9.0.1
 XF86DRIGetDeviceInfo@Base 9.0.1
 XF86DRIGetDrawableInfo@Base 9.0.1
 XF86DRIOpenConnection@Base 9.0.1
 XF86DRIOpenFullScreen@Base 9.0.1
 XF86DRIQueryDirectRenderingCapable@Base 9.0.1
 XF86DRIQueryExtension@Base 9.0.1
 XF86DRIQueryVersion@Base 9.0.1
 __glBytesPerElement@Base 9.0.1
 __glElementsPerGroup@Base 9.0.1
 __glEmptyImage@Base 9.0.1
 __glExtensionBitIsEnabled@Base 9.0.1
 __glFillImage@Base 9.0.1
 __glFillMap1d@Base 9.0.1
 __glFillMap1f@Base 9.0.1
 __glFillMap2d@Base 9.0.1
 __glFillMap2f@Base 9.0.1
 __glFreeAttributeState@Base 9.0.1
 __glImageSize@Base 9.0.1
 __glXArrayDisableAll@Base 9.0.1
 __glXCalculateUsableExtensions@Base 9.0.1
 __glXCalculateUsableGLExtensions@Base 9.0.1
 __glXClientInfo@Base 9.0.1
 __glXDefaultPixelStore@Base 9.0.1
 __glXEnableDirectExtension@Base 9.0.1
 __glXExtensionBitIsEnabled@Base 9.0.1
 __glXFreeVertexArrayState@Base 9.0.1
 __glXGetActiveTextureUnit@Base 9.0.1
 __glXGetArrayEnable@Base 9.0.1
 __glXGetArrayNormalized@Base 9.0.1
 __glXGetArrayPointer@Base 9.0.1
 __glXGetArraySize@Base 9.0.1
 __glXGetArrayStride@Base 9.0.1
 __glXGetArrayType@Base 9.0.1
 __glXGetClientExtensions@Base 9.0.1
 __glXGetClientGLExtensionString@Base 9.0.1
 __glXGetGLVersion@Base 9.0.1
 __glXGetString@Base 9.0.1
 __glXInitVertexArrayState@Base 9.0.1
 __glXNewIndirectAPI@Base 9.0.1
 __glXPopArrayState@Base 9.0.1
 __glXPushArrayState@Base 9.0.1
 __glXQueryServerString@Base 9.0.1
 __glXSendError@Base 9.0.1
 __glXSendLargeImage@Base 9.0.1
 __glXSetArrayEnable@Base 9.0.1
 __glXTypeSize_table@Base 9.0.1
 dri2GetSwapEventType@Base 9.0.1
 dummyContext@Base 9.0.1
 glAccum@Base 9.0.1
 glActiveProgramEXT@Base 9.0.1
 glActiveTexture@Base 9.0.1
 glActiveTextureARB@Base 9.0.1
 glAlphaFragmentOp1ATI@Base 9.0.1
 glAlphaFragmentOp2ATI@Base 9.0.1
 glAlphaFragmentOp3ATI@Base 9.0.1
 glAlphaFunc@Base 9.0.1
 glAreProgramsResidentNV@Base 9.0.1
 glAreTexturesResident@Base 9.0.1
 glAreTexturesResidentEXT@Base 9.0.1
 glArrayElement@Base 9.0.1
 glArrayElementEXT@Base 9.0.1
 glAttachObjectARB@Base 9.0.1
 glAttachShader@Base 9.0.1
 glBegin@Base 9.0.1
 glBeginConditionalRender@Base 9.0.1
 glBeginConditionalRenderNV@Base 9.0.1
 glBeginFragmentShaderATI@Base 9.0.1
 glBeginQuery@Base 9.0.1
 glBeginQueryARB@Base 9.0.1
 glBeginQueryIndexed@Base 9.0.1
 glBeginTransformFeedback@Base 9.0.1
 glBeginTransformFeedbackEXT@Base 9.0.1
 glBindAttribLocation@Base 9.0.1
 glBindAttribLocationARB@Base 9.0.1
 glBindBuffer@Base 9.0.1
 glBindBufferARB@Base 9.0.1
 glBindBufferBase@Base 9.0.1
 glBindBufferBaseEXT@Base 9.0.1
 glBindBufferOffsetEXT@Base 9.0.1
 glBindBufferRange@Base 9.0.1
 glBindBufferRangeEXT@Base 9.0.1
 glBindFragDataLocation@Base 9.0.1
 glBindFragDataLocationEXT@Base 9.0.1
 glBindFragDataLocationIndexed@Base 9.0.1
 glBindFragmentShaderATI@Base 9.0.1
 glBindFramebuffer@Base 9.0.1
 glBindFramebufferEXT@Base 9.0.1
 glBindProgramARB@Base 9.0.1
 glBindProgramNV@Base 9.0.1
 glBindRenderbuffer@Base 9.0.1
 glBindRenderbufferEXT@Base 9.0.1
 glBindSampler@Base 9.0.1
 glBindTexture@Base 9.0.1
 glBindTextureEXT@Base 9.0.1
 glBindTransformFeedback@Base 9.0.1
 glBindVertexArray@Base 9.0.1
 glBindVertexArrayOES@Base 9.0.1
 glBitmap@Base 9.0.1
 glBlendColor@Base 9.0.1
 glBlendColorEXT@Base 9.0.1
 glBlendEquation@Base 9.0.1
 glBlendEquationEXT@Base 9.0.1
 glBlendEquationIndexedAMD@Base 9.0.1
 glBlendEquationSeparate@Base 9.0.1
 glBlendEquationSeparateIndexedAMD@Base 9.0.1
 glBlendEquationSeparateiARB@Base 9.0.1
 glBlendEquationiARB@Base 9.0.1
 glBlendFunc@Base 9.0.1
 glBlendFuncIndexedAMD@Base 9.0.1
 glBlendFuncSeparate@Base 9.0.1
 glBlendFuncSeparateEXT@Base 9.0.1
 glBlendFuncSeparateIndexedAMD@Base 9.0.1
 glBlendFuncSeparateiARB@Base 9.0.1
 glBlendFunciARB@Base 9.0.1
 glBlitFramebuffer@Base 9.0.1
 glBufferData@Base 9.0.1
 glBufferDataARB@Base 9.0.1
 glBufferSubData@Base 9.0.1
 glBufferSubDataARB@Base 9.0.1
 glCallList@Base 9.0.1
 glCallLists@Base 9.0.1
 glCheckFramebufferStatus@Base 9.0.1
 glCheckFramebufferStatusEXT@Base 9.0.1
 glClampColor@Base 9.0.1
 glClampColorARB@Base 9.0.1
 glClear@Base 9.0.1
 glClearAccum@Base 9.0.1
 glClearBufferfi@Base 9.0.1
 glClearBufferfv@Base 9.0.1
 glClearBufferiv@Base 9.0.1
 glClearBufferuiv@Base 9.0.1
 glClearColor@Base 9.0.1
 glClearColorIiEXT@Base 9.0.1
 glClearColorIuiEXT@Base 9.0.1
 glClearDepth@Base 9.0.1
 glClearDepthf@Base 9.0.1
 glClearIndex@Base 9.0.1
 glClearStencil@Base 9.0.1
 glClientActiveTexture@Base 9.0.1
 glClientActiveTextureARB@Base 9.0.1
 glClientWaitSync@Base 9.0.1
 glClipPlane@Base 9.0.1
 glColor3b@Base 9.0.1
 glColor3bv@Base 9.0.1
 glColor3d@Base 9.0.1
 glColor3dv@Base 9.0.1
 glColor3f@Base 9.0.1
 glColor3fv@Base 9.0.1
 glColor3i@Base 9.0.1
 glColor3iv@Base 9.0.1
 glColor3s@Base 9.0.1
 glColor3sv@Base 9.0.1
 glColor3ub@Base 9.0.1
 glColor3ubv@Base 9.0.1
 glColor3ui@Base 9.0.1
 glColor3uiv@Base 9.0.1
 glColor3us@Base 9.0.1
 glColor3usv@Base 9.0.1
 glColor4b@Base 9.0.1
 glColor4bv@Base 9.0.1
 glColor4d@Base 9.0.1
 glColor4dv@Base 9.0.1
 glColor4f@Base 9.0.1
 glColor4fv@Base 9.0.1
 glColor4i@Base 9.0.1
 glColor4iv@Base 9.0.1
 glColor4s@Base 9.0.1
 glColor4sv@Base 9.0.1
 glColor4ub@Base 9.0.1
 glColor4ubv@Base 9.0.1
 glColor4ui@Base 9.0.1
 glColor4uiv@Base 9.0.1
 glColor4us@Base 9.0.1
 glColor4usv@Base 9.0.1
 glColorFragmentOp1ATI@Base 9.0.1
 glColorFragmentOp2ATI@Base 9.0.1
 glColorFragmentOp3ATI@Base 9.0.1
 glColorMask@Base 9.0.1
 glColorMaskIndexedEXT@Base 9.0.1
 glColorMaski@Base 9.0.1
 glColorMaterial@Base 9.0.1
 glColorP3ui@Base 9.0.1
 glColorP3uiv@Base 9.0.1
 glColorP4ui@Base 9.0.1
 glColorP4uiv@Base 9.0.1
 glColorPointer@Base 9.0.1
 glColorPointerEXT@Base 9.0.1
 glColorSubTable@Base 9.0.1
 glColorTable@Base 9.0.1
 glColorTableEXT@Base 9.0.1
 glColorTableParameterfv@Base 9.0.1
 glColorTableParameteriv@Base 9.0.1
 glCompileShader@Base 9.0.1
 glCompileShaderARB@Base 9.0.1
 glCompressedTexImage1D@Base 9.0.1
 glCompressedTexImage1DARB@Base 9.0.1
 glCompressedTexImage2D@Base 9.0.1
 glCompressedTexImage2DARB@Base 9.0.1
 glCompressedTexImage3D@Base 9.0.1
 glCompressedTexImage3DARB@Base 9.0.1
 glCompressedTexSubImage1D@Base 9.0.1
 glCompressedTexSubImage1DARB@Base 9.0.1
 glCompressedTexSubImage2D@Base 9.0.1
 glCompressedTexSubImage2DARB@Base 9.0.1
 glCompressedTexSubImage3D@Base 9.0.1
 glCompressedTexSubImage3DARB@Base 9.0.1
 glConvolutionFilter1D@Base 9.0.1
 glConvolutionFilter2D@Base 9.0.1
 glConvolutionParameterf@Base 9.0.1
 glConvolutionParameterfv@Base 9.0.1
 glConvolutionParameteri@Base 9.0.1
 glConvolutionParameteriv@Base 9.0.1
 glCopyBufferSubData@Base 9.0.1
 glCopyColorSubTable@Base 9.0.1
 glCopyColorTable@Base 9.0.1
 glCopyConvolutionFilter1D@Base 9.0.1
 glCopyConvolutionFilter2D@Base 9.0.1
 glCopyPixels@Base 9.0.1
 glCopyTexImage1D@Base 9.0.1
 glCopyTexImage1DEXT@Base 9.0.1
 glCopyTexImage2D@Base 9.0.1
 glCopyTexImage2DEXT@Base 9.0.1
 glCopyTexSubImage1D@Base 9.0.1
 glCopyTexSubImage1DEXT@Base 9.0.1
 glCopyTexSubImage2D@Base 9.0.1
 glCopyTexSubImage2DEXT@Base 9.0.1
 glCopyTexSubImage3D@Base 9.0.1
 glCopyTexSubImage3DEXT@Base 9.0.1
 glCreateProgram@Base 9.0.1
 glCreateProgramObjectARB@Base 9.0.1
 glCreateShader@Base 9.0.1
 glCreateShaderObjectARB@Base 9.0.1
 glCreateShaderProgramEXT@Base 9.0.1
 glCullFace@Base 9.0.1
 glDebugMessageCallbackARB@Base 9.0.1
 glDebugMessageControlARB@Base 9.0.1
 glDebugMessageInsertARB@Base 9.0.1
 glDeleteBuffers@Base 9.0.1
 glDeleteBuffersARB@Base 9.0.1
 glDeleteFragmentShaderATI@Base 9.0.1
 glDeleteFramebuffers@Base 9.0.1
 glDeleteFramebuffersEXT@Base 9.0.1
 glDeleteLists@Base 9.0.1
 glDeleteObjectARB@Base 9.0.1
 glDeleteProgram@Base 9.0.1
 glDeleteProgramsARB@Base 9.0.1
 glDeleteProgramsNV@Base 9.0.1
 glDeleteQueries@Base 9.0.1
 glDeleteQueriesARB@Base 9.0.1
 glDeleteRenderbuffers@Base 9.0.1
 glDeleteRenderbuffersEXT@Base 9.0.1
 glDeleteSamplers@Base 9.0.1
 glDeleteShader@Base 9.0.1
 glDeleteSync@Base 9.0.1
 glDeleteTextures@Base 9.0.1
 glDeleteTexturesEXT@Base 9.0.1
 glDeleteTransformFeedbacks@Base 9.0.1
 glDeleteVertexArrays@Base 9.0.1
 glDeleteVertexArraysOES@Base 9.0.1
 glDepthFunc@Base 9.0.1
 glDepthMask@Base 9.0.1
 glDepthRange@Base 9.0.1
 glDepthRangef@Base 9.0.1
 glDetachObjectARB@Base 9.0.1
 glDetachShader@Base 9.0.1
 glDisable@Base 9.0.1
 glDisableClientState@Base 9.0.1
 glDisableIndexedEXT@Base 9.0.1
 glDisableVertexAttribArray@Base 9.0.1
 glDisableVertexAttribArrayARB@Base 9.0.1
 glDisablei@Base 9.0.1
 glDrawArrays@Base 9.0.1
 glDrawArraysEXT@Base 9.0.1
 glDrawArraysInstanced@Base 9.0.1
 glDrawArraysInstancedARB@Base 9.0.1
 glDrawArraysInstancedBaseInstance@Base 9.0.1
 glDrawArraysInstancedEXT@Base 9.0.1
 glDrawBuffer@Base 9.0.1
 glDrawBuffers@Base 9.0.1
 glDrawBuffersARB@Base 9.0.1
 glDrawBuffersATI@Base 9.0.1
 glDrawBuffersNV@Base 9.0.1
 glDrawElements@Base 9.0.1
 glDrawElementsBaseVertex@Base 9.0.1
 glDrawElementsInstanced@Base 9.0.1
 glDrawElementsInstancedARB@Base 9.0.1
 glDrawElementsInstancedBaseInstance@Base 9.0.1
 glDrawElementsInstancedBaseVertex@Base 9.0.1
 glDrawElementsInstancedBaseVertexBaseInstance@Base 9.0.1
 glDrawElementsInstancedEXT@Base 9.0.1
 glDrawPixels@Base 9.0.1
 glDrawRangeElements@Base 9.0.1
 glDrawRangeElementsBaseVertex@Base 9.0.1
 glDrawRangeElementsEXT@Base 9.0.1
 glDrawTransformFeedback@Base 9.0.1
 glDrawTransformFeedbackInstanced@Base 9.0.1
 glDrawTransformFeedbackStream@Base 9.0.1
 glDrawTransformFeedbackStreamInstanced@Base 9.0.1
 glEGLImageTargetRenderbufferStorageOES@Base 9.0.1
 glEGLImageTargetTexture2DOES@Base 9.0.1
 glEdgeFlag@Base 9.0.1
 glEdgeFlagPointer@Base 9.0.1
 glEdgeFlagPointerEXT@Base 9.0.1
 glEdgeFlagv@Base 9.0.1
 glEnable@Base 9.0.1
 glEnableClientState@Base 9.0.1
 glEnableIndexedEXT@Base 9.0.1
 glEnableVertexAttribArray@Base 9.0.1
 glEnableVertexAttribArrayARB@Base 9.0.1
 glEnablei@Base 9.0.1
 glEnd@Base 9.0.1
 glEndConditionalRender@Base 9.0.1
 glEndConditionalRenderNV@Base 9.0.1
 glEndFragmentShaderATI@Base 9.0.1
 glEndList@Base 9.0.1
 glEndQuery@Base 9.0.1
 glEndQueryARB@Base 9.0.1
 glEndQueryIndexed@Base 9.0.1
 glEndTransformFeedback@Base 9.0.1
 glEndTransformFeedbackEXT@Base 9.0.1
 glEvalCoord1d@Base 9.0.1
 glEvalCoord1dv@Base 9.0.1
 glEvalCoord1f@Base 9.0.1
 glEvalCoord1fv@Base 9.0.1
 glEvalCoord2d@Base 9.0.1
 glEvalCoord2dv@Base 9.0.1
 glEvalCoord2f@Base 9.0.1
 glEvalCoord2fv@Base 9.0.1
 glEvalMesh1@Base 9.0.1
 glEvalMesh2@Base 9.0.1
 glEvalPoint1@Base 9.0.1
 glEvalPoint2@Base 9.0.1
 glExecuteProgramNV@Base 9.0.1
 glFeedbackBuffer@Base 9.0.1
 glFenceSync@Base 9.0.1
 glFinish@Base 9.0.1
 glFlush@Base 9.0.1
 glFlushMappedBufferRange@Base 9.0.1
 glFogCoordPointer@Base 9.0.1
 glFogCoordPointerEXT@Base 9.0.1
 glFogCoordd@Base 9.0.1
 glFogCoorddEXT@Base 9.0.1
 glFogCoorddv@Base 9.0.1
 glFogCoorddvEXT@Base 9.0.1
 glFogCoordf@Base 9.0.1
 glFogCoordfEXT@Base 9.0.1
 glFogCoordfv@Base 9.0.1
 glFogCoordfvEXT@Base 9.0.1
 glFogf@Base 9.0.1
 glFogfv@Base 9.0.1
 glFogi@Base 9.0.1
 glFogiv@Base 9.0.1
 glFramebufferRenderbuffer@Base 9.0.1
 glFramebufferRenderbufferEXT@Base 9.0.1
 glFramebufferTexture1D@Base 9.0.1
 glFramebufferTexture1DEXT@Base 9.0.1
 glFramebufferTexture2D@Base 9.0.1
 glFramebufferTexture2DEXT@Base 9.0.1
 glFramebufferTexture3D@Base 9.0.1
 glFramebufferTexture3DEXT@Base 9.0.1
 glFramebufferTexture@Base 9.0.1
 glFramebufferTextureARB@Base 9.0.1
 glFramebufferTextureFaceARB@Base 9.0.1
 glFramebufferTextureLayer@Base 9.0.1
 glFramebufferTextureLayerARB@Base 9.0.1
 glFramebufferTextureLayerEXT@Base 9.0.1
 glFrontFace@Base 9.0.1
 glFrustum@Base 9.0.1
 glGenBuffers@Base 9.0.1
 glGenBuffersARB@Base 9.0.1
 glGenFragmentShadersATI@Base 9.0.1
 glGenFramebuffers@Base 9.0.1
 glGenFramebuffersEXT@Base 9.0.1
 glGenLists@Base 9.0.1
 glGenProgramsARB@Base 9.0.1
 glGenProgramsNV@Base 9.0.1
 glGenQueries@Base 9.0.1
 glGenQueriesARB@Base 9.0.1
 glGenRenderbuffers@Base 9.0.1
 glGenRenderbuffersEXT@Base 9.0.1
 glGenSamplers@Base 9.0.1
 glGenTextures@Base 9.0.1
 glGenTexturesEXT@Base 9.0.1
 glGenTransformFeedbacks@Base 9.0.1
 glGenVertexArrays@Base 9.0.1
 glGenVertexArraysOES@Base 9.0.1
 glGenerateMipmap@Base 9.0.1
 glGenerateMipmapEXT@Base 9.0.1
 glGetActiveAttrib@Base 9.0.1
 glGetActiveAttribARB@Base 9.0.1
 glGetActiveUniform@Base 9.0.1
 glGetActiveUniformARB@Base 9.0.1
 glGetActiveUniformBlockName@Base 9.0.1
 glGetActiveUniformBlockiv@Base 9.0.1
 glGetActiveUniformName@Base 9.0.1
 glGetActiveUniformsiv@Base 9.0.1
 glGetAttachedObjectsARB@Base 9.0.1
 glGetAttachedShaders@Base 9.0.1
 glGetAttribLocation@Base 9.0.1
 glGetAttribLocationARB@Base 9.0.1
 glGetBooleanIndexedvEXT@Base 9.0.1
 glGetBooleani_v@Base 9.0.1
 glGetBooleanv@Base 9.0.1
 glGetBufferParameteri64v@Base 9.0.1
 glGetBufferParameteriv@Base 9.0.1
 glGetBufferParameterivARB@Base 9.0.1
 glGetBufferPointerv@Base 9.0.1
 glGetBufferPointervARB@Base 9.0.1
 glGetBufferSubData@Base 9.0.1
 glGetBufferSubDataARB@Base 9.0.1
 glGetClipPlane@Base 9.0.1
 glGetColorTable@Base 9.0.1
 glGetColorTableEXT@Base 9.0.1
 glGetColorTableParameterfv@Base 9.0.1
 glGetColorTableParameterfvEXT@Base 9.0.1
 glGetColorTableParameteriv@Base 9.0.1
 glGetColorTableParameterivEXT@Base 9.0.1
 glGetCompressedTexImage@Base 9.0.1
 glGetCompressedTexImageARB@Base 9.0.1
 glGetConvolutionFilter@Base 9.0.1
 glGetConvolutionParameterfv@Base 9.0.1
 glGetConvolutionParameteriv@Base 9.0.1
 glGetDebugMessageLogARB@Base 9.0.1
 glGetDoublev@Base 9.0.1
 glGetError@Base 9.0.1
 glGetFloatv@Base 9.0.1
 glGetFragDataIndex@Base 9.0.1
 glGetFragDataLocation@Base 9.0.1
 glGetFragDataLocationEXT@Base 9.0.1
 glGetFramebufferAttachmentParameteriv@Base 9.0.1
 glGetFramebufferAttachmentParameterivEXT@Base 9.0.1
 glGetGraphicsResetStatusARB@Base 9.0.1
 glGetHandleARB@Base 9.0.1
 glGetHistogram@Base 9.0.1
 glGetHistogramParameterfv@Base 9.0.1
 glGetHistogramParameteriv@Base 9.0.1
 glGetInfoLogARB@Base 9.0.1
 glGetInteger64i_v@Base 9.0.1
 glGetInteger64v@Base 9.0.1
 glGetIntegerIndexedvEXT@Base 9.0.1
 glGetIntegeri_v@Base 9.0.1
 glGetIntegerv@Base 9.0.1
 glGetLightfv@Base 9.0.1
 glGetLightiv@Base 9.0.1
 glGetMapdv@Base 9.0.1
 glGetMapfv@Base 9.0.1
 glGetMapiv@Base 9.0.1
 glGetMaterialfv@Base 9.0.1
 glGetMaterialiv@Base 9.0.1
 glGetMinmax@Base 9.0.1
 glGetMinmaxParameterfv@Base 9.0.1
 glGetMinmaxParameteriv@Base 9.0.1
 glGetObjectParameterfvARB@Base 9.0.1
 glGetObjectParameterivAPPLE@Base 9.0.1
 glGetObjectParameterivARB@Base 9.0.1
 glGetPixelMapfv@Base 9.0.1
 glGetPixelMapuiv@Base 9.0.1
 glGetPixelMapusv@Base 9.0.1
 glGetPointerv@Base 9.0.1
 glGetPointervEXT@Base 9.0.1
 glGetPolygonStipple@Base 9.0.1
 glGetProgramEnvParameterdvARB@Base 9.0.1
 glGetProgramEnvParameterfvARB@Base 9.0.1
 glGetProgramInfoLog@Base 9.0.1
 glGetProgramLocalParameterdvARB@Base 9.0.1
 glGetProgramLocalParameterfvARB@Base 9.0.1
 glGetProgramNamedParameterdvNV@Base 9.0.1
 glGetProgramNamedParameterfvNV@Base 9.0.1
 glGetProgramParameterdvNV@Base 9.0.1
 glGetProgramParameterfvNV@Base 9.0.1
 glGetProgramStringARB@Base 9.0.1
 glGetProgramStringNV@Base 9.0.1
 glGetProgramiv@Base 9.0.1
 glGetProgramivARB@Base 9.0.1
 glGetProgramivNV@Base 9.0.1
 glGetQueryIndexediv@Base 9.0.1
 glGetQueryObjectiv@Base 9.0.1
 glGetQueryObjectivARB@Base 9.0.1
 glGetQueryObjectuiv@Base 9.0.1
 glGetQueryObjectuivARB@Base 9.0.1
 glGetQueryiv@Base 9.0.1
 glGetQueryivARB@Base 9.0.1
 glGetRenderbufferParameteriv@Base 9.0.1
 glGetRenderbufferParameterivEXT@Base 9.0.1
 glGetSamplerParameterIiv@Base 9.0.1
 glGetSamplerParameterIuiv@Base 9.0.1
 glGetSamplerParameterfv@Base 9.0.1
 glGetSamplerParameteriv@Base 9.0.1
 glGetSeparableFilter@Base 9.0.1
 glGetShaderInfoLog@Base 9.0.1
 glGetShaderPrecisionFormat@Base 9.0.1
 glGetShaderSource@Base 9.0.1
 glGetShaderSourceARB@Base 9.0.1
 glGetShaderiv@Base 9.0.1
 glGetString@Base 9.0.1
 glGetStringi@Base 9.0.1
 glGetSynciv@Base 9.0.1
 glGetTexBumpParameterfvATI@Base 9.0.1
 glGetTexBumpParameterivATI@Base 9.0.1
 glGetTexEnvfv@Base 9.0.1
 glGetTexEnviv@Base 9.0.1
 glGetTexGendv@Base 9.0.1
 glGetTexGenfv@Base 9.0.1
 glGetTexGeniv@Base 9.0.1
 glGetTexImage@Base 9.0.1
 glGetTexLevelParameterfv@Base 9.0.1
 glGetTexLevelParameteriv@Base 9.0.1
 glGetTexParameterIiv@Base 9.0.1
 glGetTexParameterIivEXT@Base 9.0.1
 glGetTexParameterIuiv@Base 9.0.1
 glGetTexParameterIuivEXT@Base 9.0.1
 glGetTexParameterfv@Base 9.0.1
 glGetTexParameteriv@Base 9.0.1
 glGetTrackMatrixivNV@Base 9.0.1
 glGetTransformFeedbackVarying@Base 9.0.1
 glGetTransformFeedbackVaryingEXT@Base 9.0.1
 glGetUniformBlockIndex@Base 9.0.1
 glGetUniformIndices@Base 9.0.1
 glGetUniformLocation@Base 9.0.1
 glGetUniformLocationARB@Base 9.0.1
 glGetUniformfv@Base 9.0.1
 glGetUniformfvARB@Base 9.0.1
 glGetUniformiv@Base 9.0.1
 glGetUniformivARB@Base 9.0.1
 glGetUniformuiv@Base 9.0.1
 glGetUniformuivEXT@Base 9.0.1
 glGetVertexAttribIiv@Base 9.0.1
 glGetVertexAttribIivEXT@Base 9.0.1
 glGetVertexAttribIuiv@Base 9.0.1
 glGetVertexAttribIuivEXT@Base 9.0.1
 glGetVertexAttribPointerv@Base 9.0.1
 glGetVertexAttribPointervARB@Base 9.0.1
 glGetVertexAttribPointervNV@Base 9.0.1
 glGetVertexAttribdv@Base 9.0.1
 glGetVertexAttribdvARB@Base 9.0.1
 glGetVertexAttribdvNV@Base 9.0.1
 glGetVertexAttribfv@Base 9.0.1
 glGetVertexAttribfvARB@Base 9.0.1
 glGetVertexAttribfvNV@Base 9.0.1
 glGetVertexAttribiv@Base 9.0.1
 glGetVertexAttribivARB@Base 9.0.1
 glGetVertexAttribivNV@Base 9.0.1
 glGetnColorTableARB@Base 9.0.1
 glGetnCompressedTexImageARB@Base 9.0.1
 glGetnConvolutionFilterARB@Base 9.0.1
 glGetnHistogramARB@Base 9.0.1
 glGetnMapdvARB@Base 9.0.1
 glGetnMapfvARB@Base 9.0.1
 glGetnMapivARB@Base 9.0.1
 glGetnMinmaxARB@Base 9.0.1
 glGetnPixelMapfvARB@Base 9.0.1
 glGetnPixelMapuivARB@Base 9.0.1
 glGetnPixelMapusvARB@Base 9.0.1
 glGetnPolygonStippleARB@Base 9.0.1
 glGetnSeparableFilterARB@Base 9.0.1
 glGetnTexImageARB@Base 9.0.1
 glGetnUniformdvARB@Base 9.0.1
 glGetnUniformfvARB@Base 9.0.1
 glGetnUniformivARB@Base 9.0.1
 glGetnUniformuivARB@Base 9.0.1
 glHint@Base 9.0.1
 glHistogram@Base 9.0.1
 glIndexMask@Base 9.0.1
 glIndexPointer@Base 9.0.1
 glIndexPointerEXT@Base 9.0.1
 glIndexd@Base 9.0.1
 glIndexdv@Base 9.0.1
 glIndexf@Base 9.0.1
 glIndexfv@Base 9.0.1
 glIndexi@Base 9.0.1
 glIndexiv@Base 9.0.1
 glIndexs@Base 9.0.1
 glIndexsv@Base 9.0.1
 glIndexub@Base 9.0.1
 glIndexubv@Base 9.0.1
 glInitNames@Base 9.0.1
 glInterleavedArrays@Base 9.0.1
 glInvalidateBufferData@Base 9.0.1
 glInvalidateBufferSubData@Base 9.0.1
 glInvalidateFramebuffer@Base 9.0.1
 glInvalidateSubFramebuffer@Base 9.0.1
 glInvalidateTexImage@Base 9.0.1
 glInvalidateTexSubImage@Base 9.0.1
 glIsBuffer@Base 9.0.1
 glIsBufferARB@Base 9.0.1
 glIsEnabled@Base 9.0.1
 glIsEnabledIndexedEXT@Base 9.0.1
 glIsEnabledi@Base 9.0.1
 glIsFramebuffer@Base 9.0.1
 glIsFramebufferEXT@Base 9.0.1
 glIsList@Base 9.0.1
 glIsProgram@Base 9.0.1
 glIsProgramARB@Base 9.0.1
 glIsProgramNV@Base 9.0.1
 glIsQuery@Base 9.0.1
 glIsQueryARB@Base 9.0.1
 glIsRenderbuffer@Base 9.0.1
 glIsRenderbufferEXT@Base 9.0.1
 glIsSampler@Base 9.0.1
 glIsShader@Base 9.0.1
 glIsSync@Base 9.0.1
 glIsTexture@Base 9.0.1
 glIsTextureEXT@Base 9.0.1
 glIsTransformFeedback@Base 9.0.1
 glIsVertexArray@Base 9.0.1
 glIsVertexArrayOES@Base 9.0.1
 glLightModelf@Base 9.0.1
 glLightModelfv@Base 9.0.1
 glLightModeli@Base 9.0.1
 glLightModeliv@Base 9.0.1
 glLightf@Base 9.0.1
 glLightfv@Base 9.0.1
 glLighti@Base 9.0.1
 glLightiv@Base 9.0.1
 glLineStipple@Base 9.0.1
 glLineWidth@Base 9.0.1
 glLinkProgram@Base 9.0.1
 glLinkProgramARB@Base 9.0.1
 glListBase@Base 9.0.1
 glLoadIdentity@Base 9.0.1
 glLoadMatrixd@Base 9.0.1
 glLoadMatrixf@Base 9.0.1
 glLoadName@Base 9.0.1
 glLoadProgramNV@Base 9.0.1
 glLoadTransposeMatrixd@Base 9.0.1
 glLoadTransposeMatrixdARB@Base 9.0.1
 glLoadTransposeMatrixf@Base 9.0.1
 glLoadTransposeMatrixfARB@Base 9.0.1
 glLockArraysEXT@Base 9.0.1
 glLogicOp@Base 9.0.1
 glMap1d@Base 9.0.1
 glMap1f@Base 9.0.1
 glMap2d@Base 9.0.1
 glMap2f@Base 9.0.1
 glMapBuffer@Base 9.0.1
 glMapBufferARB@Base 9.0.1
 glMapBufferRange@Base 9.0.1
 glMapGrid1d@Base 9.0.1
 glMapGrid1f@Base 9.0.1
 glMapGrid2d@Base 9.0.1
 glMapGrid2f@Base 9.0.1
 glMaterialf@Base 9.0.1
 glMaterialfv@Base 9.0.1
 glMateriali@Base 9.0.1
 glMaterialiv@Base 9.0.1
 glMatrixMode@Base 9.0.1
 glMinmax@Base 9.0.1
 glMultMatrixd@Base 9.0.1
 glMultMatrixf@Base 9.0.1
 glMultTransposeMatrixd@Base 9.0.1
 glMultTransposeMatrixdARB@Base 9.0.1
 glMultTransposeMatrixf@Base 9.0.1
 glMultTransposeMatrixfARB@Base 9.0.1
 glMultiDrawArrays@Base 9.0.1
 glMultiDrawArraysEXT@Base 9.0.1
 glMultiDrawElements@Base 9.0.1
 glMultiDrawElementsBaseVertex@Base 9.0.1
 glMultiDrawElementsEXT@Base 9.0.1
 glMultiTexCoord1d@Base 9.0.1
 glMultiTexCoord1dARB@Base 9.0.1
 glMultiTexCoord1dv@Base 9.0.1
 glMultiTexCoord1dvARB@Base 9.0.1
 glMultiTexCoord1f@Base 9.0.1
 glMultiTexCoord1fARB@Base 9.0.1
 glMultiTexCoord1fv@Base 9.0.1
 glMultiTexCoord1fvARB@Base 9.0.1
 glMultiTexCoord1i@Base 9.0.1
 glMultiTexCoord1iARB@Base 9.0.1
 glMultiTexCoord1iv@Base 9.0.1
 glMultiTexCoord1ivARB@Base 9.0.1
 glMultiTexCoord1s@Base 9.0.1
 glMultiTexCoord1sARB@Base 9.0.1
 glMultiTexCoord1sv@Base 9.0.1
 glMultiTexCoord1svARB@Base 9.0.1
 glMultiTexCoord2d@Base 9.0.1
 glMultiTexCoord2dARB@Base 9.0.1
 glMultiTexCoord2dv@Base 9.0.1
 glMultiTexCoord2dvARB@Base 9.0.1
 glMultiTexCoord2f@Base 9.0.1
 glMultiTexCoord2fARB@Base 9.0.1
 glMultiTexCoord2fv@Base 9.0.1
 glMultiTexCoord2fvARB@Base 9.0.1
 glMultiTexCoord2i@Base 9.0.1
 glMultiTexCoord2iARB@Base 9.0.1
 glMultiTexCoord2iv@Base 9.0.1
 glMultiTexCoord2ivARB@Base 9.0.1
 glMultiTexCoord2s@Base 9.0.1
 glMultiTexCoord2sARB@Base 9.0.1
 glMultiTexCoord2sv@Base 9.0.1
 glMultiTexCoord2svARB@Base 9.0.1
 glMultiTexCoord3d@Base 9.0.1
 glMultiTexCoord3dARB@Base 9.0.1
 glMultiTexCoord3dv@Base 9.0.1
 glMultiTexCoord3dvARB@Base 9.0.1
 glMultiTexCoord3f@Base 9.0.1
 glMultiTexCoord3fARB@Base 9.0.1
 glMultiTexCoord3fv@Base 9.0.1
 glMultiTexCoord3fvARB@Base 9.0.1
 glMultiTexCoord3i@Base 9.0.1
 glMultiTexCoord3iARB@Base 9.0.1
 glMultiTexCoord3iv@Base 9.0.1
 glMultiTexCoord3ivARB@Base 9.0.1
 glMultiTexCoord3s@Base 9.0.1
 glMultiTexCoord3sARB@Base 9.0.1
 glMultiTexCoord3sv@Base 9.0.1
 glMultiTexCoord3svARB@Base 9.0.1
 glMultiTexCoord4d@Base 9.0.1
 glMultiTexCoord4dARB@Base 9.0.1
 glMultiTexCoord4dv@Base 9.0.1
 glMultiTexCoord4dvARB@Base 9.0.1
 glMultiTexCoord4f@Base 9.0.1
 glMultiTexCoord4fARB@Base 9.0.1
 glMultiTexCoord4fv@Base 9.0.1
 glMultiTexCoord4fvARB@Base 9.0.1
 glMultiTexCoord4i@Base 9.0.1
 glMultiTexCoord4iARB@Base 9.0.1
 glMultiTexCoord4iv@Base 9.0.1
 glMultiTexCoord4ivARB@Base 9.0.1
 glMultiTexCoord4s@Base 9.0.1
 glMultiTexCoord4sARB@Base 9.0.1
 glMultiTexCoord4sv@Base 9.0.1
 glMultiTexCoord4svARB@Base 9.0.1
 glMultiTexCoordP1ui@Base 9.0.1
 glMultiTexCoordP1uiv@Base 9.0.1
 glMultiTexCoordP2ui@Base 9.0.1
 glMultiTexCoordP2uiv@Base 9.0.1
 glMultiTexCoordP3ui@Base 9.0.1
 glMultiTexCoordP3uiv@Base 9.0.1
 glMultiTexCoordP4ui@Base 9.0.1
 glMultiTexCoordP4uiv@Base 9.0.1
 glNewList@Base 9.0.1
 glNormal3b@Base 9.0.1
 glNormal3bv@Base 9.0.1
 glNormal3d@Base 9.0.1
 glNormal3dv@Base 9.0.1
 glNormal3f@Base 9.0.1
 glNormal3fv@Base 9.0.1
 glNormal3i@Base 9.0.1
 glNormal3iv@Base 9.0.1
 glNormal3s@Base 9.0.1
 glNormal3sv@Base 9.0.1
 glNormalP3ui@Base 9.0.1
 glNormalP3uiv@Base 9.0.1
 glNormalPointer@Base 9.0.1
 glNormalPointerEXT@Base 9.0.1
 glObjectPurgeableAPPLE@Base 9.0.1
 glObjectUnpurgeableAPPLE@Base 9.0.1
 glOrtho@Base 9.0.1
 glPassTexCoordATI@Base 9.0.1
 glPassThrough@Base 9.0.1
 glPauseTransformFeedback@Base 9.0.1
 glPixelMapfv@Base 9.0.1
 glPixelMapuiv@Base 9.0.1
 glPixelMapusv@Base 9.0.1
 glPixelStoref@Base 9.0.1
 glPixelStorei@Base 9.0.1
 glPixelTransferf@Base 9.0.1
 glPixelTransferi@Base 9.0.1
 glPixelZoom@Base 9.0.1
 glPointParameterf@Base 9.0.1
 glPointParameterfARB@Base 9.0.1
 glPointParameterfEXT@Base 9.0.1
 glPointParameterfv@Base 9.0.1
 glPointParameterfvARB@Base 9.0.1
 glPointParameterfvEXT@Base 9.0.1
 glPointParameteri@Base 9.0.1
 glPointParameteriNV@Base 9.0.1
 glPointParameteriv@Base 9.0.1
 glPointParameterivNV@Base 9.0.1
 glPointSize@Base 9.0.1
 glPolygonMode@Base 9.0.1
 glPolygonOffset@Base 9.0.1
 glPolygonOffsetEXT@Base 9.0.1
 glPolygonStipple@Base 9.0.1
 glPopAttrib@Base 9.0.1
 glPopClientAttrib@Base 9.0.1
 glPopMatrix@Base 9.0.1
 glPopName@Base 9.0.1
 glPrimitiveRestartIndex@Base 9.0.1
 glPrimitiveRestartIndexNV@Base 9.0.1
 glPrimitiveRestartNV@Base 9.0.1
 glPrioritizeTextures@Base 9.0.1
 glPrioritizeTexturesEXT@Base 9.0.1
 glProgramEnvParameter4dARB@Base 9.0.1
 glProgramEnvParameter4dvARB@Base 9.0.1
 glProgramEnvParameter4fARB@Base 9.0.1
 glProgramEnvParameter4fvARB@Base 9.0.1
 glProgramLocalParameter4dARB@Base 9.0.1
 glProgramLocalParameter4dvARB@Base 9.0.1
 glProgramLocalParameter4fARB@Base 9.0.1
 glProgramLocalParameter4fvARB@Base 9.0.1
 glProgramNamedParameter4dNV@Base 9.0.1
 glProgramNamedParameter4dvNV@Base 9.0.1
 glProgramNamedParameter4fNV@Base 9.0.1
 glProgramNamedParameter4fvNV@Base 9.0.1
 glProgramParameter4dNV@Base 9.0.1
 glProgramParameter4dvNV@Base 9.0.1
 glProgramParameter4fNV@Base 9.0.1
 glProgramParameter4fvNV@Base 9.0.1
 glProgramParameteriARB@Base 9.0.1
 glProgramParameters4dvNV@Base 9.0.1
 glProgramParameters4fvNV@Base 9.0.1
 glProgramStringARB@Base 9.0.1
 glProvokingVertex@Base 9.0.1
 glProvokingVertexEXT@Base 9.0.1
 glPushAttrib@Base 9.0.1
 glPushClientAttrib@Base 9.0.1
 glPushMatrix@Base 9.0.1
 glPushName@Base 9.0.1
 glRasterPos2d@Base 9.0.1
 glRasterPos2dv@Base 9.0.1
 glRasterPos2f@Base 9.0.1
 glRasterPos2fv@Base 9.0.1
 glRasterPos2i@Base 9.0.1
 glRasterPos2iv@Base 9.0.1
 glRasterPos2s@Base 9.0.1
 glRasterPos2sv@Base 9.0.1
 glRasterPos3d@Base 9.0.1
 glRasterPos3dv@Base 9.0.1
 glRasterPos3f@Base 9.0.1
 glRasterPos3fv@Base 9.0.1
 glRasterPos3i@Base 9.0.1
 glRasterPos3iv@Base 9.0.1
 glRasterPos3s@Base 9.0.1
 glRasterPos3sv@Base 9.0.1
 glRasterPos4d@Base 9.0.1
 glRasterPos4dv@Base 9.0.1
 glRasterPos4f@Base 9.0.1
 glRasterPos4fv@Base 9.0.1
 glRasterPos4i@Base 9.0.1
 glRasterPos4iv@Base 9.0.1
 glRasterPos4s@Base 9.0.1
 glRasterPos4sv@Base 9.0.1
 glReadBuffer@Base 9.0.1
 glReadBufferNV@Base 9.0.1
 glReadPixels@Base 9.0.1
 glReadnPixelsARB@Base 9.0.1
 glRectd@Base 9.0.1
 glRectdv@Base 9.0.1
 glRectf@Base 9.0.1
 glRectfv@Base 9.0.1
 glRecti@Base 9.0.1
 glRectiv@Base 9.0.1
 glRects@Base 9.0.1
 glRectsv@Base 9.0.1
 glReleaseShaderCompiler@Base 9.0.1
 glRenderMode@Base 9.0.1
 glRenderbufferStorage@Base 9.0.1
 glRenderbufferStorageEXT@Base 9.0.1
 glRenderbufferStorageMultisample@Base 9.0.1
 glRenderbufferStorageMultisampleEXT@Base 9.0.1
 glRequestResidentProgramsNV@Base 9.0.1
 glResetHistogram@Base 9.0.1
 glResetMinmax@Base 9.0.1
 glResizeBuffersMESA@Base 9.0.1
 glResumeTransformFeedback@Base 9.0.1
 glRotated@Base 9.0.1
 glRotatef@Base 9.0.1
 glSampleCoverage@Base 9.0.1
 glSampleCoverageARB@Base 9.0.1
 glSampleMapATI@Base 9.0.1
 glSamplerParameterIiv@Base 9.0.1
 glSamplerParameterIuiv@Base 9.0.1
 glSamplerParameterf@Base 9.0.1
 glSamplerParameterfv@Base 9.0.1
 glSamplerParameteri@Base 9.0.1
 glSamplerParameteriv@Base 9.0.1
 glScaled@Base 9.0.1
 glScalef@Base 9.0.1
 glScissor@Base 9.0.1
 glSecondaryColor3b@Base 9.0.1
 glSecondaryColor3bEXT@Base 9.0.1
 glSecondaryColor3bv@Base 9.0.1
 glSecondaryColor3bvEXT@Base 9.0.1
 glSecondaryColor3d@Base 9.0.1
 glSecondaryColor3dEXT@Base 9.0.1
 glSecondaryColor3dv@Base 9.0.1
 glSecondaryColor3dvEXT@Base 9.0.1
 glSecondaryColor3f@Base 9.0.1
 glSecondaryColor3fEXT@Base 9.0.1
 glSecondaryColor3fv@Base 9.0.1
 glSecondaryColor3fvEXT@Base 9.0.1
 glSecondaryColor3i@Base 9.0.1
 glSecondaryColor3iEXT@Base 9.0.1
 glSecondaryColor3iv@Base 9.0.1
 glSecondaryColor3ivEXT@Base 9.0.1
 glSecondaryColor3s@Base 9.0.1
 glSecondaryColor3sEXT@Base 9.0.1
 glSecondaryColor3sv@Base 9.0.1
 glSecondaryColor3svEXT@Base 9.0.1
 glSecondaryColor3ub@Base 9.0.1
 glSecondaryColor3ubEXT@Base 9.0.1
 glSecondaryColor3ubv@Base 9.0.1
 glSecondaryColor3ubvEXT@Base 9.0.1
 glSecondaryColor3ui@Base 9.0.1
 glSecondaryColor3uiEXT@Base 9.0.1
 glSecondaryColor3uiv@Base 9.0.1
 glSecondaryColor3uivEXT@Base 9.0.1
 glSecondaryColor3us@Base 9.0.1
 glSecondaryColor3usEXT@Base 9.0.1
 glSecondaryColor3usv@Base 9.0.1
 glSecondaryColor3usvEXT@Base 9.0.1
 glSecondaryColorP3ui@Base 9.0.1
 glSecondaryColorP3uiv@Base 9.0.1
 glSecondaryColorPointer@Base 9.0.1
 glSecondaryColorPointerEXT@Base 9.0.1
 glSelectBuffer@Base 9.0.1
 glSeparableFilter2D@Base 9.0.1
 glSetFragmentShaderConstantATI@Base 9.0.1
 glShadeModel@Base 9.0.1
 glShaderBinary@Base 9.0.1
 glShaderSource@Base 9.0.1
 glShaderSourceARB@Base 9.0.1
 glStencilFunc@Base 9.0.1
 glStencilFuncSeparate@Base 9.0.1
 glStencilMask@Base 9.0.1
 glStencilMaskSeparate@Base 9.0.1
 glStencilOp@Base 9.0.1
 glStencilOpSeparate@Base 9.0.1
 glTexBuffer@Base 9.0.1
 glTexBufferARB@Base 9.0.1
 glTexBumpParameterfvATI@Base 9.0.1
 glTexBumpParameterivATI@Base 9.0.1
 glTexCoord1d@Base 9.0.1
 glTexCoord1dv@Base 9.0.1
 glTexCoord1f@Base 9.0.1
 glTexCoord1fv@Base 9.0.1
 glTexCoord1i@Base 9.0.1
 glTexCoord1iv@Base 9.0.1
 glTexCoord1s@Base 9.0.1
 glTexCoord1sv@Base 9.0.1
 glTexCoord2d@Base 9.0.1
 glTexCoord2dv@Base 9.0.1
 glTexCoord2f@Base 9.0.1
 glTexCoord2fv@Base 9.0.1
 glTexCoord2i@Base 9.0.1
 glTexCoord2iv@Base 9.0.1
 glTexCoord2s@Base 9.0.1
 glTexCoord2sv@Base 9.0.1
 glTexCoord3d@Base 9.0.1
 glTexCoord3dv@Base 9.0.1
 glTexCoord3f@Base 9.0.1
 glTexCoord3fv@Base 9.0.1
 glTexCoord3i@Base 9.0.1
 glTexCoord3iv@Base 9.0.1
 glTexCoord3s@Base 9.0.1
 glTexCoord3sv@Base 9.0.1
 glTexCoord4d@Base 9.0.1
 glTexCoord4dv@Base 9.0.1
 glTexCoord4f@Base 9.0.1
 glTexCoord4fv@Base 9.0.1
 glTexCoord4i@Base 9.0.1
 glTexCoord4iv@Base 9.0.1
 glTexCoord4s@Base 9.0.1
 glTexCoord4sv@Base 9.0.1
 glTexCoordP1ui@Base 9.0.1
 glTexCoordP1uiv@Base 9.0.1
 glTexCoordP2ui@Base 9.0.1
 glTexCoordP2uiv@Base 9.0.1
 glTexCoordP3ui@Base 9.0.1
 glTexCoordP3uiv@Base 9.0.1
 glTexCoordP4ui@Base 9.0.1
 glTexCoordP4uiv@Base 9.0.1
 glTexCoordPointer@Base 9.0.1
 glTexCoordPointerEXT@Base 9.0.1
 glTexEnvf@Base 9.0.1
 glTexEnvfv@Base 9.0.1
 glTexEnvi@Base 9.0.1
 glTexEnviv@Base 9.0.1
 glTexGend@Base 9.0.1
 glTexGendv@Base 9.0.1
 glTexGenf@Base 9.0.1
 glTexGenfv@Base 9.0.1
 glTexGeni@Base 9.0.1
 glTexGeniv@Base 9.0.1
 glTexImage1D@Base 9.0.1
 glTexImage2D@Base 9.0.1
 glTexImage3D@Base 9.0.1
 glTexImage3DEXT@Base 9.0.1
 glTexParameterIiv@Base 9.0.1
 glTexParameterIivEXT@Base 9.0.1
 glTexParameterIuiv@Base 9.0.1
 glTexParameterIuivEXT@Base 9.0.1
 glTexParameterf@Base 9.0.1
 glTexParameterfv@Base 9.0.1
 glTexParameteri@Base 9.0.1
 glTexParameteriv@Base 9.0.1
 glTexStorage1D@Base 9.0.1
 glTexStorage2D@Base 9.0.1
 glTexStorage3D@Base 9.0.1
 glTexSubImage1D@Base 9.0.1
 glTexSubImage1DEXT@Base 9.0.1
 glTexSubImage2D@Base 9.0.1
 glTexSubImage2DEXT@Base 9.0.1
 glTexSubImage3D@Base 9.0.1
 glTexSubImage3DEXT@Base 9.0.1
 glTextureBarrierNV@Base 9.0.1
 glTextureStorage1DEXT@Base 9.0.1
 glTextureStorage2DEXT@Base 9.0.1
 glTextureStorage3DEXT@Base 9.0.1
 glTrackMatrixNV@Base 9.0.1
 glTransformFeedbackVaryings@Base 9.0.1
 glTransformFeedbackVaryingsEXT@Base 9.0.1
 glTranslated@Base 9.0.1
 glTranslatef@Base 9.0.1
 glUniform1f@Base 9.0.1
 glUniform1fARB@Base 9.0.1
 glUniform1fv@Base 9.0.1
 glUniform1fvARB@Base 9.0.1
 glUniform1i@Base 9.0.1
 glUniform1iARB@Base 9.0.1
 glUniform1iv@Base 9.0.1
 glUniform1ivARB@Base 9.0.1
 glUniform1ui@Base 9.0.1
 glUniform1uiEXT@Base 9.0.1
 glUniform1uiv@Base 9.0.1
 glUniform1uivEXT@Base 9.0.1
 glUniform2f@Base 9.0.1
 glUniform2fARB@Base 9.0.1
 glUniform2fv@Base 9.0.1
 glUniform2fvARB@Base 9.0.1
 glUniform2i@Base 9.0.1
 glUniform2iARB@Base 9.0.1
 glUniform2iv@Base 9.0.1
 glUniform2ivARB@Base 9.0.1
 glUniform2ui@Base 9.0.1
 glUniform2uiEXT@Base 9.0.1
 glUniform2uiv@Base 9.0.1
 glUniform2uivEXT@Base 9.0.1
 glUniform3f@Base 9.0.1
 glUniform3fARB@Base 9.0.1
 glUniform3fv@Base 9.0.1
 glUniform3fvARB@Base 9.0.1
 glUniform3i@Base 9.0.1
 glUniform3iARB@Base 9.0.1
 glUniform3iv@Base 9.0.1
 glUniform3ivARB@Base 9.0.1
 glUniform3ui@Base 9.0.1
 glUniform3uiEXT@Base 9.0.1
 glUniform3uiv@Base 9.0.1
 glUniform3uivEXT@Base 9.0.1
 glUniform4f@Base 9.0.1
 glUniform4fARB@Base 9.0.1
 glUniform4fv@Base 9.0.1
 glUniform4fvARB@Base 9.0.1
 glUniform4i@Base 9.0.1
 glUniform4iARB@Base 9.0.1
 glUniform4iv@Base 9.0.1
 glUniform4ivARB@Base 9.0.1
 glUniform4ui@Base 9.0.1
 glUniform4uiEXT@Base 9.0.1
 glUniform4uiv@Base 9.0.1
 glUniform4uivEXT@Base 9.0.1
 glUniformBlockBinding@Base 9.0.1
 glUniformMatrix2fv@Base 9.0.1
 glUniformMatrix2fvARB@Base 9.0.1
 glUniformMatrix2x3fv@Base 9.0.1
 glUniformMatrix2x4fv@Base 9.0.1
 glUniformMatrix3fv@Base 9.0.1
 glUniformMatrix3fvARB@Base 9.0.1
 glUniformMatrix3x2fv@Base 9.0.1
 glUniformMatrix3x4fv@Base 9.0.1
 glUniformMatrix4fv@Base 9.0.1
 glUniformMatrix4fvARB@Base 9.0.1
 glUniformMatrix4x2fv@Base 9.0.1
 glUniformMatrix4x3fv@Base 9.0.1
 glUnlockArraysEXT@Base 9.0.1
 glUnmapBuffer@Base 9.0.1
 glUnmapBufferARB@Base 9.0.1
 glUseProgram@Base 9.0.1
 glUseProgramObjectARB@Base 9.0.1
 glUseShaderProgramEXT@Base 9.0.1
 glValidateProgram@Base 9.0.1
 glValidateProgramARB@Base 9.0.1
 glVertex2d@Base 9.0.1
 glVertex2dv@Base 9.0.1
 glVertex2f@Base 9.0.1
 glVertex2fv@Base 9.0.1
 glVertex2i@Base 9.0.1
 glVertex2iv@Base 9.0.1
 glVertex2s@Base 9.0.1
 glVertex2sv@Base 9.0.1
 glVertex3d@Base 9.0.1
 glVertex3dv@Base 9.0.1
 glVertex3f@Base 9.0.1
 glVertex3fv@Base 9.0.1
 glVertex3i@Base 9.0.1
 glVertex3iv@Base 9.0.1
 glVertex3s@Base 9.0.1
 glVertex3sv@Base 9.0.1
 glVertex4d@Base 9.0.1
 glVertex4dv@Base 9.0.1
 glVertex4f@Base 9.0.1
 glVertex4fv@Base 9.0.1
 glVertex4i@Base 9.0.1
 glVertex4iv@Base 9.0.1
 glVertex4s@Base 9.0.1
 glVertex4sv@Base 9.0.1
 glVertexAttrib1d@Base 9.0.1
 glVertexAttrib1dARB@Base 9.0.1
 glVertexAttrib1dNV@Base 9.0.1
 glVertexAttrib1dv@Base 9.0.1
 glVertexAttrib1dvARB@Base 9.0.1
 glVertexAttrib1dvNV@Base 9.0.1
 glVertexAttrib1f@Base 9.0.1
 glVertexAttrib1fARB@Base 9.0.1
 glVertexAttrib1fNV@Base 9.0.1
 glVertexAttrib1fv@Base 9.0.1
 glVertexAttrib1fvARB@Base 9.0.1
 glVertexAttrib1fvNV@Base 9.0.1
 glVertexAttrib1s@Base 9.0.1
 glVertexAttrib1sARB@Base 9.0.1
 glVertexAttrib1sNV@Base 9.0.1
 glVertexAttrib1sv@Base 9.0.1
 glVertexAttrib1svARB@Base 9.0.1
 glVertexAttrib1svNV@Base 9.0.1
 glVertexAttrib2d@Base 9.0.1
 glVertexAttrib2dARB@Base 9.0.1
 glVertexAttrib2dNV@Base 9.0.1
 glVertexAttrib2dv@Base 9.0.1
 glVertexAttrib2dvARB@Base 9.0.1
 glVertexAttrib2dvNV@Base 9.0.1
 glVertexAttrib2f@Base 9.0.1
 glVertexAttrib2fARB@Base 9.0.1
 glVertexAttrib2fNV@Base 9.0.1
 glVertexAttrib2fv@Base 9.0.1
 glVertexAttrib2fvARB@Base 9.0.1
 glVertexAttrib2fvNV@Base 9.0.1
 glVertexAttrib2s@Base 9.0.1
 glVertexAttrib2sARB@Base 9.0.1
 glVertexAttrib2sNV@Base 9.0.1
 glVertexAttrib2sv@Base 9.0.1
 glVertexAttrib2svARB@Base 9.0.1
 glVertexAttrib2svNV@Base 9.0.1
 glVertexAttrib3d@Base 9.0.1
 glVertexAttrib3dARB@Base 9.0.1
 glVertexAttrib3dNV@Base 9.0.1
 glVertexAttrib3dv@Base 9.0.1
 glVertexAttrib3dvARB@Base 9.0.1
 glVertexAttrib3dvNV@Base 9.0.1
 glVertexAttrib3f@Base 9.0.1
 glVertexAttrib3fARB@Base 9.0.1
 glVertexAttrib3fNV@Base 9.0.1
 glVertexAttrib3fv@Base 9.0.1
 glVertexAttrib3fvARB@Base 9.0.1
 glVertexAttrib3fvNV@Base 9.0.1
 glVertexAttrib3s@Base 9.0.1
 glVertexAttrib3sARB@Base 9.0.1
 glVertexAttrib3sNV@Base 9.0.1
 glVertexAttrib3sv@Base 9.0.1
 glVertexAttrib3svARB@Base 9.0.1
 glVertexAttrib3svNV@Base 9.0.1
 glVertexAttrib4Nbv@Base 9.0.1
 glVertexAttrib4NbvARB@Base 9.0.1
 glVertexAttrib4Niv@Base 9.0.1
 glVertexAttrib4NivARB@Base 9.0.1
 glVertexAttrib4Nsv@Base 9.0.1
 glVertexAttrib4NsvARB@Base 9.0.1
 glVertexAttrib4Nub@Base 9.0.1
 glVertexAttrib4NubARB@Base 9.0.1
 glVertexAttrib4Nubv@Base 9.0.1
 glVertexAttrib4NubvARB@Base 9.0.1
 glVertexAttrib4Nuiv@Base 9.0.1
 glVertexAttrib4NuivARB@Base 9.0.1
 glVertexAttrib4Nusv@Base 9.0.1
 glVertexAttrib4NusvARB@Base 9.0.1
 glVertexAttrib4bv@Base 9.0.1
 glVertexAttrib4bvARB@Base 9.0.1
 glVertexAttrib4d@Base 9.0.1
 glVertexAttrib4dARB@Base 9.0.1
 glVertexAttrib4dNV@Base 9.0.1
 glVertexAttrib4dv@Base 9.0.1
 glVertexAttrib4dvARB@Base 9.0.1
 glVertexAttrib4dvNV@Base 9.0.1
 glVertexAttrib4f@Base 9.0.1
 glVertexAttrib4fARB@Base 9.0.1
 glVertexAttrib4fNV@Base 9.0.1
 glVertexAttrib4fv@Base 9.0.1
 glVertexAttrib4fvARB@Base 9.0.1
 glVertexAttrib4fvNV@Base 9.0.1
 glVertexAttrib4iv@Base 9.0.1
 glVertexAttrib4ivARB@Base 9.0.1
 glVertexAttrib4s@Base 9.0.1
 glVertexAttrib4sARB@Base 9.0.1
 glVertexAttrib4sNV@Base 9.0.1
 glVertexAttrib4sv@Base 9.0.1
 glVertexAttrib4svARB@Base 9.0.1
 glVertexAttrib4svNV@Base 9.0.1
 glVertexAttrib4ubNV@Base 9.0.1
 glVertexAttrib4ubv@Base 9.0.1
 glVertexAttrib4ubvARB@Base 9.0.1
 glVertexAttrib4ubvNV@Base 9.0.1
 glVertexAttrib4uiv@Base 9.0.1
 glVertexAttrib4uivARB@Base 9.0.1
 glVertexAttrib4usv@Base 9.0.1
 glVertexAttrib4usvARB@Base 9.0.1
 glVertexAttribDivisor@Base 9.0.1
 glVertexAttribDivisorARB@Base 9.0.1
 glVertexAttribI1i@Base 9.0.1
 glVertexAttribI1iEXT@Base 9.0.1
 glVertexAttribI1iv@Base 9.0.1
 glVertexAttribI1ivEXT@Base 9.0.1
 glVertexAttribI1ui@Base 9.0.1
 glVertexAttribI1uiEXT@Base 9.0.1
 glVertexAttribI1uiv@Base 9.0.1
 glVertexAttribI1uivEXT@Base 9.0.1
 glVertexAttribI2i@Base 9.0.1
 glVertexAttribI2iEXT@Base 9.0.1
 glVertexAttribI2iv@Base 9.0.1
 glVertexAttribI2ivEXT@Base 9.0.1
 glVertexAttribI2ui@Base 9.0.1
 glVertexAttribI2uiEXT@Base 9.0.1
 glVertexAttribI2uiv@Base 9.0.1
 glVertexAttribI2uivEXT@Base 9.0.1
 glVertexAttribI3i@Base 9.0.1
 glVertexAttribI3iEXT@Base 9.0.1
 glVertexAttribI3iv@Base 9.0.1
 glVertexAttribI3ivEXT@Base 9.0.1
 glVertexAttribI3ui@Base 9.0.1
 glVertexAttribI3uiEXT@Base 9.0.1
 glVertexAttribI3uiv@Base 9.0.1
 glVertexAttribI3uivEXT@Base 9.0.1
 glVertexAttribI4bv@Base 9.0.1
 glVertexAttribI4bvEXT@Base 9.0.1
 glVertexAttribI4i@Base 9.0.1
 glVertexAttribI4iEXT@Base 9.0.1
 glVertexAttribI4iv@Base 9.0.1
 glVertexAttribI4ivEXT@Base 9.0.1
 glVertexAttribI4sv@Base 9.0.1
 glVertexAttribI4svEXT@Base 9.0.1
 glVertexAttribI4ubv@Base 9.0.1
 glVertexAttribI4ubvEXT@Base 9.0.1
 glVertexAttribI4ui@Base 9.0.1
 glVertexAttribI4uiEXT@Base 9.0.1
 glVertexAttribI4uiv@Base 9.0.1
 glVertexAttribI4uivEXT@Base 9.0.1
 glVertexAttribI4usv@Base 9.0.1
 glVertexAttribI4usvEXT@Base 9.0.1
 glVertexAttribIPointer@Base 9.0.1
 glVertexAttribIPointerEXT@Base 9.0.1
 glVertexAttribP1ui@Base 9.0.1
 glVertexAttribP1uiv@Base 9.0.1
 glVertexAttribP2ui@Base 9.0.1
 glVertexAttribP2uiv@Base 9.0.1
 glVertexAttribP3ui@Base 9.0.1
 glVertexAttribP3uiv@Base 9.0.1
 glVertexAttribP4ui@Base 9.0.1
 glVertexAttribP4uiv@Base 9.0.1
 glVertexAttribPointer@Base 9.0.1
 glVertexAttribPointerARB@Base 9.0.1
 glVertexAttribPointerNV@Base 9.0.1
 glVertexAttribs1dvNV@Base 9.0.1
 glVertexAttribs1fvNV@Base 9.0.1
 glVertexAttribs1svNV@Base 9.0.1
 glVertexAttribs2dvNV@Base 9.0.1
 glVertexAttribs2fvNV@Base 9.0.1
 glVertexAttribs2svNV@Base 9.0.1
 glVertexAttribs3dvNV@Base 9.0.1
 glVertexAttribs3fvNV@Base 9.0.1
 glVertexAttribs3svNV@Base 9.0.1
 glVertexAttribs4dvNV@Base 9.0.1
 glVertexAttribs4fvNV@Base 9.0.1
 glVertexAttribs4svNV@Base 9.0.1
 glVertexAttribs4ubvNV@Base 9.0.1
 glVertexP2ui@Base 9.0.1
 glVertexP2uiv@Base 9.0.1
 glVertexP3ui@Base 9.0.1
 glVertexP3uiv@Base 9.0.1
 glVertexP4ui@Base 9.0.1
 glVertexP4uiv@Base 9.0.1
 glVertexPointer@Base 9.0.1
 glVertexPointerEXT@Base 9.0.1
 glViewport@Base 9.0.1
 glWaitSync@Base 9.0.1
 glWindowPos2d@Base 9.0.1
 glWindowPos2dARB@Base 9.0.1
 glWindowPos2dMESA@Base 9.0.1
 glWindowPos2dv@Base 9.0.1
 glWindowPos2dvARB@Base 9.0.1
 glWindowPos2dvMESA@Base 9.0.1
 glWindowPos2f@Base 9.0.1
 glWindowPos2fARB@Base 9.0.1
 glWindowPos2fMESA@Base 9.0.1
 glWindowPos2fv@Base 9.0.1
 glWindowPos2fvARB@Base 9.0.1
 glWindowPos2fvMESA@Base 9.0.1
 glWindowPos2i@Base 9.0.1
 glWindowPos2iARB@Base 9.0.1
 glWindowPos2iMESA@Base 9.0.1
 glWindowPos2iv@Base 9.0.1
 glWindowPos2ivARB@Base 9.0.1
 glWindowPos2ivMESA@Base 9.0.1
 glWindowPos2s@Base 9.0.1
 glWindowPos2sARB@Base 9.0.1
 glWindowPos2sMESA@Base 9.0.1
 glWindowPos2sv@Base 9.0.1
 glWindowPos2svARB@Base 9.0.1
 glWindowPos2svMESA@Base 9.0.1
 glWindowPos3d@Base 9.0.1
 glWindowPos3dARB@Base 9.0.1
 glWindowPos3dMESA@Base 9.0.1
 glWindowPos3dv@Base 9.0.1
 glWindowPos3dvARB@Base 9.0.1
 glWindowPos3dvMESA@Base 9.0.1
 glWindowPos3f@Base 9.0.1
 glWindowPos3fARB@Base 9.0.1
 glWindowPos3fMESA@Base 9.0.1
 glWindowPos3fv@Base 9.0.1
 glWindowPos3fvARB@Base 9.0.1
 glWindowPos3fvMESA@Base 9.0.1
 glWindowPos3i@Base 9.0.1
 glWindowPos3iARB@Base 9.0.1
 glWindowPos3iMESA@Base 9.0.1
 glWindowPos3iv@Base 9.0.1
 glWindowPos3ivARB@Base 9.0.1
 glWindowPos3ivMESA@Base 9.0.1
 glWindowPos3s@Base 9.0.1
 glWindowPos3sARB@Base 9.0.1
 glWindowPos3sMESA@Base 9.0.1
 glWindowPos3sv@Base 9.0.1
 glWindowPos3svARB@Base 9.0.1
 glWindowPos3svMESA@Base 9.0.1
 glWindowPos4dMESA@Base 9.0.1
 glWindowPos4dvMESA@Base 9.0.1
 glWindowPos4fMESA@Base 9.0.1
 glWindowPos4fvMESA@Base 9.0.1
 glWindowPos4iMESA@Base 9.0.1
 glWindowPos4ivMESA@Base 9.0.1
 glWindowPos4sMESA@Base 9.0.1
 glWindowPos4svMESA@Base 9.0.1
 glXChooseFBConfig@Base 9.0.1
 glXChooseFBConfigSGIX@Base 9.0.1
 glXChooseVisual@Base 9.0.1
 glXCopyContext@Base 9.0.1
 glXCreateContext@Base 9.0.1
 glXCreateContextWithConfigSGIX@Base 9.0.1
 glXCreateGLXPbufferSGIX@Base 9.0.1
 glXCreateGLXPixmap@Base 9.0.1
 glXCreateGLXPixmapMESA@Base 9.0.1
 glXCreateGLXPixmapWithConfigSGIX@Base 9.0.1
 glXCreateNewContext@Base 9.0.1
 glXCreatePbuffer@Base 9.0.1
 glXCreatePixmap@Base 9.0.1
 glXCreateWindow@Base 9.0.1
 glXDestroyContext@Base 9.0.1
 glXDestroyGLXPbufferSGIX@Base 9.0.1
 glXDestroyGLXPixmap@Base 9.0.1
 glXDestroyPbuffer@Base 9.0.1
 glXDestroyPixmap@Base 9.0.1
 glXDestroyWindow@Base 9.0.1
 glXFreeContextEXT@Base 9.0.1
 glXGetClientString@Base 9.0.1
 glXGetConfig@Base 9.0.1
 glXGetContextIDEXT@Base 9.0.1
 glXGetCurrentContext@Base 9.0.1
 glXGetCurrentDisplay@Base 9.0.1
 glXGetCurrentDisplayEXT@Base 9.0.1
 glXGetCurrentDrawable@Base 9.0.1
 glXGetCurrentReadDrawable@Base 9.0.1
 glXGetDriverConfig@Base 9.0.1
 glXGetFBConfigAttrib@Base 9.0.1
 glXGetFBConfigAttribSGIX@Base 9.0.1
 glXGetFBConfigFromVisualSGIX@Base 9.0.1
 glXGetFBConfigs@Base 9.0.1
 glXGetProcAddress@Base 9.0.1
 glXGetProcAddressARB@Base 9.0.1
 glXGetScreenDriver@Base 9.0.1
 glXGetSelectedEvent@Base 9.0.1
 glXGetSelectedEventSGIX@Base 9.0.1
 glXGetVisualFromFBConfig@Base 9.0.1
 glXGetVisualFromFBConfigSGIX@Base 9.0.1
 glXImportContextEXT@Base 9.0.1
 glXIsDirect@Base 9.0.1
 glXMakeContextCurrent@Base 9.0.1
 glXMakeCurrent@Base 9.0.1
 glXMakeCurrentReadSGI@Base 9.0.1
 glXQueryContext@Base 9.0.1
 glXQueryContextInfoEXT@Base 9.0.1
 glXQueryDrawable@Base 9.0.1
 glXQueryExtension@Base 9.0.1
 glXQueryExtensionsString@Base 9.0.1
 glXQueryGLXPbufferSGIX@Base 9.0.1
 glXQueryServerString@Base 9.0.1
 glXQueryVersion@Base 9.0.1
 glXSelectEvent@Base 9.0.1
 glXSelectEventSGIX@Base 9.0.1
 glXSwapBuffers@Base 9.0.1
 glXUseXFont@Base 9.0.1
 glXWaitGL@Base 9.0.1
 glXWaitX@Base 9.0.1
 indirect_screen_vtable@Base 9.0.1
libdricore9.0.2.so.1 libgl1-mesa-swx11 #MINVER#
 _Z10can_inlineP7ir_call@Base 9.0.1
 _Z10visit_treeP14ir_instructionPFvS0_PvES1_@Base 9.0.1
 _Z11lower_noiseP9exec_list@Base 9.0.1
 _Z11reparent_irP9exec_listPv@Base 9.0.1
 _Z12do_algebraicP9exec_list@Base 9.0.1
 _Z12do_dead_codeP9exec_listb@Base 9.0.1
 _Z12link_shadersP10gl_contextP17gl_shader_program@Base 9.0.1
 _Z12linker_errorP17gl_shader_programPKcz@Base 9.0.1
 _Z12unroll_loopsP9exec_listP10loop_statej@Base 9.0.1
 _Z13clone_ir_listPvP9exec_listPKS0_@Base 9.0.1
 _Z13do_assignmentP9exec_listP22_mesa_glsl_parse_statePKcP9ir_rvalueS6_b7YYLTYPE@Base 9.0.1
 _Z13emit_functionP22_mesa_glsl_parse_stateP11ir_function@Base 9.0.1
 _Z13lower_discardP9exec_list@Base 9.0.1
 _Z13read_builtinsjPKcPS0_j@Base 9.0.1
 _Z14_mesa_glsl_lexP7YYSTYPEP7YYLTYPEPv@Base 9.0.1
 _Z14_mesa_print_irP9exec_listP22_mesa_glsl_parse_state@Base 9.0.1
 _Z14do_lower_jumpsP9exec_listbbbbb@Base 9.0.1
 _Z14linker_warningP17gl_shader_programPKcz@Base 9.0.1
 _Z15_mesa_glsl_freePvS_@Base 9.0.1
 _Z15check_node_typeP14ir_instructionPv@Base 9.0.1
 _Z15do_noop_swizzleP9exec_list@Base 9.0.1
 _Z15remap_variablesP14ir_instructionP9gl_shaderP10hash_table@Base 9.0.1
 _Z15visit_exec_listP9exec_listP10ir_visitor@Base 9.0.1
 _Z16_mesa_ast_to_hirP9exec_listP22_mesa_glsl_parse_state@Base 9.0.1
 _Z16_mesa_glsl_allocmPv@Base 9.0.1
 _Z16_mesa_glsl_errorP7YYLTYPEP22_mesa_glsl_parse_statePKcz@Base 9.0.1
 _Z16_mesa_glsl_parseP22_mesa_glsl_parse_state@Base 9.0.1
 _Z16do_mat_op_to_vecP9exec_list@Base 9.0.1
 _Z16do_tree_graftingP9exec_list@Base 9.0.1
 _Z16prototype_stringPK9glsl_typePKcP9exec_list@Base 9.0.1
 _Z16validate_ir_treeP9exec_list@Base 9.0.1
 _Z17_mesa_glsl_get_inPv@Base 9.0.1
 _Z17_mesa_glsl_set_inP8_IO_FILEPv@Base 9.0.1
 _Z17do_dead_functionsP9exec_list@Base 9.0.1
 _Z17import_prototypesPK9exec_listPS_P17glsl_symbol_tablePv@Base 9.0.1
 _Z17set_loop_controlsP9exec_listP10loop_state@Base 9.0.1
 _Z18_mesa_glsl_get_outPv@Base 9.0.1
 _Z18_mesa_glsl_read_irP22_mesa_glsl_parse_stateP9exec_listPKcb@Base 9.0.1
 _Z18_mesa_glsl_reallocPvmS_@Base 9.0.1
 _Z18_mesa_glsl_restartP8_IO_FILEPv@Base 9.0.1
 _Z18_mesa_glsl_set_outP8_IO_FILEPv@Base 9.0.1
 _Z18_mesa_glsl_warningPK7YYLTYPEP22_mesa_glsl_parse_statePKcz@Base 9.0.1
 _Z18check_control_flowP14ir_instructionPv@Base 9.0.1
 _Z18do_dead_code_localP9exec_list@Base 9.0.1
 _Z18do_swizzle_swizzleP9exec_list@Base 9.0.1
 _Z18find_initial_valueP7ir_loopP11ir_variable@Base 9.0.1
 _Z18lower_discard_flowP9exec_list@Base 9.0.1
 _Z18lower_instructionsP9exec_listj@Base 9.0.1
 _Z18lower_output_readsP9exec_list@Base 9.0.1
 _Z19_mesa_glsl_get_lengPv@Base 9.0.1
 _Z19_mesa_glsl_get_llocPv@Base 9.0.1
 _Z19_mesa_glsl_get_lvalPv@Base 9.0.1
 _Z19_mesa_glsl_get_textPv@Base 9.0.1
 _Z19_mesa_glsl_lex_initPPv@Base 9.0.1
 _Z19_mesa_glsl_set_llocP7YYLTYPEPv@Base 9.0.1
 _Z19_mesa_glsl_set_lvalP7YYSTYPEPv@Base 9.0.1
 _Z19compare_index_blockP9exec_listP11ir_variablejjPv@Base 9.0.1
 _Z19depth_layout_string15ir_depth_layout@Base 9.0.1
 _Z19do_constant_foldingP9exec_list@Base 9.0.1
 _Z19do_copy_propagationP9exec_list@Base 9.0.1
 _Z19is_extended_swizzleP13ir_expression@Base 9.0.1
 _Z19link_function_callsP17gl_shader_programP9gl_shaderPS2_j@Base 9.0.1
 _Z19lower_clip_distanceP9exec_list@Base 9.0.1
 _Z19lower_quadop_vectorP9exec_listb@Base 9.0.1
 _Z19lower_ubo_referenceP9gl_shaderP9exec_list@Base 9.0.1
 _Z19process_initializerP11ir_variableP15ast_declarationP24ast_fully_specified_typeP9exec_listP22_mesa_glsl_parse_state@Base 9.0.1
 _Z19validate_assignmentP22_mesa_glsl_parse_statePK9glsl_typeP9ir_rvalueb@Base 9.0.1
 _Z19visit_list_elementsP23ir_hierarchical_visitorP9exec_listb@Base 9.0.1
 _Z20_mesa_glsl_get_debugPv@Base 9.0.1
 _Z20_mesa_glsl_get_extraPv@Base 9.0.1
 _Z20_mesa_glsl_set_debugiPv@Base 9.0.1
 _Z20_mesa_glsl_set_extraP22_mesa_glsl_parse_statePv@Base 9.0.1
 _Z20calculate_iterationsP9ir_rvalueS0_S0_23ir_expression_operation@Base 9.0.1
 _Z20do_constant_variableP9exec_list@Base 9.0.1
 _Z20do_function_inliningP9exec_list@Base 9.0.1
 _Z20do_if_simplificationP9exec_list@Base 9.0.1
 _Z20find_available_slotsjj@Base 9.0.1
 _Z21_mesa_glsl_get_columnPv@Base 9.0.1
 _Z21_mesa_glsl_get_linenoPv@Base 9.0.1
 _Z21_mesa_glsl_lexer_ctorP22_mesa_glsl_parse_statePKc@Base 9.0.1
 _Z21_mesa_glsl_lexer_dtorP22_mesa_glsl_parse_state@Base 9.0.1
 _Z21_mesa_glsl_set_columniPv@Base 9.0.1
 _Z21_mesa_glsl_set_linenoiPv@Base 9.0.1
 _Z21call_for_basic_blocksP9exec_listPFvP14ir_instructionS2_PvES3_@Base 9.0.1
 _Z21count_attribute_slotsPK9glsl_type@Base 9.0.1
 _Z21do_dead_code_unlinkedP9exec_list@Base 9.0.1
 _Z21do_set_program_inoutsP9exec_listP10gl_programb@Base 9.0.1
 _Z21move_non_declarationsP9exec_listP9exec_nodebP9gl_shader@Base 9.0.1
 _Z21optimize_split_arraysP9exec_listb@Base 9.0.1
 _Z22_mesa_glsl__scan_bytesPKciPv@Base 9.0.1
 _Z22_mesa_glsl_lex_destroyPv@Base 9.0.1
 _Z22analyze_loop_variablesP9exec_list@Base 9.0.1
 _Z22cross_validate_globalsP17gl_shader_programPP9gl_shaderjb@Base 9.0.1
 _Z22do_common_optimizationP9exec_listbbj@Base 9.0.1
 _Z22do_structure_splittingP9exec_list@Base 9.0.1
 _Z23_mesa_glsl__scan_bufferPcmPv@Base 9.0.1
 _Z23_mesa_glsl__scan_stringPKcPv@Base 9.0.1
 _Z23assign_to_matrix_columnP11ir_variablejjP9ir_rvaluejjPv@Base 9.0.1
 _Z23assign_varying_locationP11ir_variableS0_PjS1_@Base 9.0.1
 _Z23cross_validate_uniformsP17gl_shader_program@Base 9.0.1
 _Z23detect_recursion_linkedP17gl_shader_programP9exec_list@Base 9.0.1
 _Z23do_constant_propagationP9exec_list@Base 9.0.1
 _Z23do_vec_index_to_swizzleP9exec_list@Base 9.0.1
 _Z23lower_if_to_cond_assignP9exec_listj@Base 9.0.1
 _Z23single_scalar_parameterP9exec_list@Base 9.0.1
 _Z24_mesa_glsl__flush_bufferP15yy_buffer_statePv@Base 9.0.1
 _Z24assign_varying_locationsP10gl_contextP17gl_shader_programP9gl_shaderS4_jP14tfeedback_decl@Base 9.0.1
 _Z24do_expression_flatteningP9exec_listPFbP14ir_instructionE@Base 9.0.1
 _Z24optimize_redundant_jumpsP9exec_list@Base 9.0.1
 _Z25_mesa_glsl__create_bufferP8_IO_FILEiPv@Base 9.0.1
 _Z25_mesa_glsl__delete_bufferP15yy_buffer_statePv@Base 9.0.1
 _Z25_mesa_glsl_lex_init_extraP22_mesa_glsl_parse_statePPv@Base 9.0.1
 _Z25apply_implicit_conversionPK9glsl_typeRP9ir_rvalueP22_mesa_glsl_parse_state@Base 9.0.1
 _Z25detect_recursion_unlinkedP22_mesa_glsl_parse_stateP9exec_list@Base 9.0.1
 _Z25move_block_to_cond_assignPvP5ir_ifP9ir_rvalueP9exec_listP10hash_table@Base 9.0.1
 _Z26get_scalar_boolean_operandP9exec_listP22_mesa_glsl_parse_stateP14ast_expressioniPKcPb@Base 9.0.1
 _Z27_mesa_glsl_pop_buffer_statePv@Base 9.0.1
 _Z27do_lower_texture_projectionP9exec_list@Base 9.0.1
 _Z27do_vec_index_to_cond_assignP9exec_list@Base 9.0.1
 _Z28_mesa_glsl__switch_to_bufferP15yy_buffer_statePv@Base 9.0.1
 _Z28_mesa_glsl_process_extensionPKcP7YYLTYPES0_S2_P22_mesa_glsl_parse_state@Base 9.0.1
 _Z28_mesa_glsl_push_buffer_stateP15yy_buffer_statePv@Base 9.0.1
 _Z28_mesa_glsl_release_functionsv@Base 9.0.1
 _Z28do_copy_propagation_elementsP9exec_list@Base 9.0.1
 _Z29_mesa_glsl_shader_target_name25_mesa_glsl_parser_targets@Base 9.0.1
 _Z29do_constant_variable_unlinkedP9exec_list@Base 9.0.1
 _Z29get_variable_being_redeclaredP11ir_variableP15ast_declarationP22_mesa_glsl_parse_state@Base 9.0.1
 _Z29link_assign_uniform_locationsP17gl_shader_program@Base 9.0.1
 _Z29link_set_uniform_initializersP17gl_shader_program@Base 9.0.1
 _Z30_mesa_ast_type_qualifier_printPK18ast_type_qualifier@Base 9.0.1
 _Z30emit_inline_matrix_constructorPK9glsl_typeP9exec_listS3_Pv@Base 9.0.1
 _Z30emit_inline_record_constructorPK9glsl_typeP9exec_listS3_Pv@Base 9.0.1
 _Z30emit_inline_vector_constructorPK9glsl_typeP9exec_listS3_Pv@Base 9.0.1
 _Z31_mesa_glsl_initialize_functionsP22_mesa_glsl_parse_state@Base 9.0.1
 _Z31_mesa_glsl_initialize_variablesP9exec_listP22_mesa_glsl_parse_state@Base 9.0.1
 _Z32_mesa_ast_field_selection_to_hirPK14ast_expressionP9exec_listP22_mesa_glsl_parse_state@Base 9.0.1
 _Z32cross_validate_outputs_to_inputsP17gl_shader_programP9gl_shaderS2_@Base 9.0.1
 _Z32demote_shader_inputs_and_outputsP9gl_shader16ir_variable_mode@Base 9.0.1
 _Z33link_assign_uniform_block_offsetsP9gl_shader@Base 9.0.1
 _Z33link_cross_validate_uniform_blockPvPP16gl_uniform_blockPjS1_@Base 9.0.1
 _Z33validate_vertex_shader_executableP17gl_shader_programP9gl_shader@Base 9.0.1
 _Z34link_invalidate_variable_locationsP9gl_shader16ir_variable_modei@Base 9.0.1
 _Z35assign_attribute_or_color_locationsP17gl_shader_programjj@Base 9.0.1
 _Z35lower_variable_index_to_cond_assignP9exec_listbbbb@Base 9.0.1
 _Z35validate_fragment_shader_executableP17gl_shader_programP9gl_shader@Base 9.0.1
 _Z7s_matchP12s_expressionjP9s_patternb@Base 9.0.1
 _ZN10ir_builder10ir_factory4emitEP14ir_instruction@Base 9.0.1
 _ZN10ir_builder10ir_factory9make_tempEPK9glsl_typePKc@Base 9.0.1
 _ZN10ir_builder10swizzle_xyENS_7operandE@Base 9.0.1
 _ZN10ir_builder11swizzle_xyzENS_7operandE@Base 9.0.1
 _ZN10ir_builder12swizzle_wwwwENS_7operandE@Base 9.0.1
 _ZN10ir_builder12swizzle_xxxxENS_7operandE@Base 9.0.1
 _ZN10ir_builder12swizzle_xyzwENS_7operandE@Base 9.0.1
 _ZN10ir_builder12swizzle_yyyyENS_7operandE@Base 9.0.1
 _ZN10ir_builder12swizzle_zzzzENS_7operandE@Base 9.0.1
 _ZN10ir_builder16swizzle_for_sizeENS_7operandEi@Base 9.0.1
 _ZN10ir_builder3addENS_7operandES0_@Base 9.0.1
 _ZN10ir_builder3dotENS_7operandES0_@Base 9.0.1
 _ZN10ir_builder3mulENS_7operandES0_@Base 9.0.1
 _ZN10ir_builder3subENS_7operandES0_@Base 9.0.1
 _ZN10ir_builder4exprE23ir_expression_operationNS_7operandE@Base 9.0.1
 _ZN10ir_builder4exprE23ir_expression_operationNS_7operandES1_@Base 9.0.1
 _ZN10ir_builder6assignENS_5derefENS_7operandE@Base 9.0.1
 _ZN10ir_builder6assignENS_5derefENS_7operandEi@Base 9.0.1
 _ZN10ir_builder7swizzleENS_7operandEii@Base 9.0.1
 _ZN10ir_builder8saturateENS_7operandE@Base 9.0.1
 _ZN10ir_builder9swizzle_wENS_7operandE@Base 9.0.1
 _ZN10ir_builder9swizzle_xENS_7operandE@Base 9.0.1
 _ZN10ir_builder9swizzle_yENS_7operandE@Base 9.0.1
 _ZN10ir_builder9swizzle_zENS_7operandE@Base 9.0.1
 _ZN10ir_discard10as_discardEv@Base 9.0.1
 _ZN10ir_discard6acceptEP10ir_visitor@Base 9.0.1
 _ZN10ir_discard6acceptEP23ir_hierarchical_visitor@Base 9.0.1
 _ZN10ir_discardD0Ev@Base 9.0.1
 _ZN10ir_discardD1Ev@Base 9.0.1
 _ZN10ir_discardD2Ev@Base 9.0.1
 _ZN10ir_swizzle10as_swizzleEv@Base 9.0.1
 _ZN10ir_swizzle25constant_expression_valueEP10hash_table@Base 9.0.1
 _ZN10ir_swizzle6acceptEP10ir_visitor@Base 9.0.1
 _ZN10ir_swizzle6acceptEP23ir_hierarchical_visitor@Base 9.0.1
 _ZN10ir_swizzle6createEP9ir_rvaluePKcj@Base 9.0.1
 _ZN10ir_swizzle9init_maskEPKjj@Base 9.0.1
 _ZN10ir_swizzleC1EP9ir_rvalue15ir_swizzle_mask@Base 9.0.1
 _ZN10ir_swizzleC1EP9ir_rvaluePKjj@Base 9.0.1
 _ZN10ir_swizzleC1EP9ir_rvaluejjjjj@Base 9.0.1
 _ZN10ir_swizzleC2EP9ir_rvalue15ir_swizzle_mask@Base 9.0.1
 _ZN10ir_swizzleC2EP9ir_rvaluePKjj@Base 9.0.1
 _ZN10ir_swizzleC2EP9ir_rvaluejjjjj@Base 9.0.1
 _ZN10ir_swizzleD0Ev@Base 9.0.1
 _ZN10ir_swizzleD1Ev@Base 9.0.1
 _ZN10ir_swizzleD2Ev@Base 9.0.1
 _ZN10ir_texture10get_opcodeEPKc@Base 9.0.1
 _ZN10ir_texture11set_samplerEP14ir_dereferencePK9glsl_type@Base 9.0.1
 _ZN10ir_texture13opcode_stringEv@Base 9.0.1
 _ZN10ir_texture25constant_expression_valueEP10hash_table@Base 9.0.1
 _ZN10ir_texture6acceptEP10ir_visitor@Base 9.0.1
 _ZN10ir_texture6acceptEP23ir_hierarchical_visitor@Base 9.0.1
 _ZN10ir_textureD0Ev@Base 9.0.1
 _ZN10ir_textureD1Ev@Base 9.0.1
 _ZN10ir_textureD2Ev@Base 9.0.1
 _ZN10ir_visitor5visitEP9ir_rvalue@Base 9.0.1
 _ZN10ir_visitorD0Ev@Base 9.0.1
 _ZN10ir_visitorD1Ev@Base 9.0.1
 _ZN10ir_visitorD2Ev@Base 9.0.1
 _ZN10loop_state3getEPK7ir_loop@Base 9.0.1
 _ZN10loop_state6insertEP7ir_loop@Base 9.0.1
 _ZN10loop_stateC1Ev@Base 9.0.1
 _ZN10loop_stateC2Ev@Base 9.0.1
 _ZN10loop_stateD1Ev@Base 9.0.1
 _ZN10loop_stateD2Ev@Base 9.0.1
 _ZN11examine_rhs5visitEP23ir_dereference_variable@Base 9.0.1
 _ZN11ir_constant11as_constantEv@Base 9.0.1
 _ZN11ir_constant11copy_offsetEPS_i@Base 9.0.1
 _ZN11ir_constant16get_record_fieldEPKc@Base 9.0.1
 _ZN11ir_constant18copy_masked_offsetEPS_ij@Base 9.0.1
 _ZN11ir_constant25constant_expression_valueEP10hash_table@Base 9.0.1
 _ZN11ir_constant4zeroEPvPK9glsl_type@Base 9.0.1
 _ZN11ir_constant6acceptEP10ir_visitor@Base 9.0.1
 _ZN11ir_constant6acceptEP23ir_hierarchical_visitor@Base 9.0.1
 _ZN11ir_constantC1EPK9glsl_typeP9exec_list@Base 9.0.1
 _ZN11ir_constantC1EPK9glsl_typePK16ir_constant_data@Base 9.0.1
 _ZN11ir_constantC1EPKS_j@Base 9.0.1
 _ZN11ir_constantC1Eb@Base 9.0.1
 _ZN11ir_constantC1Ef@Base 9.0.1
 _ZN11ir_constantC1Ei@Base 9.0.1
 _ZN11ir_constantC1Ej@Base 9.0.1
 _ZN11ir_constantC1Ev@Base 9.0.1
 _ZN11ir_constantC2EPK9glsl_typeP9exec_list@Base 9.0.1
 _ZN11ir_constantC2EPK9glsl_typePK16ir_constant_data@Base 9.0.1
 _ZN11ir_constantC2EPKS_j@Base 9.0.1
 _ZN11ir_constantC2Eb@Base 9.0.1
 _ZN11ir_constantC2Ef@Base 9.0.1
 _ZN11ir_constantC2Ei@Base 9.0.1
 _ZN11ir_constantC2Ej@Base 9.0.1
 _ZN11ir_constantC2Ev@Base 9.0.1
 _ZN11ir_constantD0Ev@Base 9.0.1
 _ZN11ir_constantD1Ev@Base 9.0.1
 _ZN11ir_constantD2Ev@Base 9.0.1
 _ZN11ir_function11as_functionEv@Base 9.0.1
 _ZN11ir_function18has_user_signatureEv@Base 9.0.1
 _ZN11ir_function18matching_signatureEPK9exec_list@Base 9.0.1
 _ZN11ir_function18matching_signatureEPK9exec_listPb@Base 9.0.1
 _ZN11ir_function24exact_matching_signatureEPK9exec_list@Base 9.0.1
 _ZN11ir_function6acceptEP10ir_visitor@Base 9.0.1
 _ZN11ir_function6acceptEP23ir_hierarchical_visitor@Base 9.0.1
 _ZN11ir_functionC1EPKc@Base 9.0.1
 _ZN11ir_functionC2EPKc@Base 9.0.1
 _ZN11ir_functionD0Ev@Base 9.0.1
 _ZN11ir_functionD1Ev@Base 9.0.1
 _ZN11ir_functionD2Ev@Base 9.0.1
 _ZN11ir_validate11validate_irEP14ir_instructionPv@Base 9.0.1
 _ZN11ir_validate11visit_enterEP11ir_function@Base 9.0.1
 _ZN11ir_validate11visit_enterEP13ir_assignment@Base 9.0.1
 _ZN11ir_validate11visit_enterEP21ir_function_signature@Base 9.0.1
 _ZN11ir_validate11visit_enterEP5ir_if@Base 9.0.1
 _ZN11ir_validate11visit_enterEP7ir_call@Base 9.0.1
 _ZN11ir_validate11visit_leaveEP10ir_swizzle@Base 9.0.1
 _ZN11ir_validate11visit_leaveEP11ir_function@Base 9.0.1
 _ZN11ir_validate11visit_leaveEP13ir_expression@Base 9.0.1
 _ZN11ir_validate11visit_leaveEP7ir_loop@Base 9.0.1
 _ZN11ir_validate5visitEP11ir_variable@Base 9.0.1
 _ZN11ir_validate5visitEP23ir_dereference_variable@Base 9.0.1
 _ZN11ir_variable11as_variableEv@Base 9.0.1
 _ZN11ir_variable28determine_interpolation_modeEb@Base 9.0.1
 _ZN11ir_variable6acceptEP10ir_visitor@Base 9.0.1
 _ZN11ir_variable6acceptEP23ir_hierarchical_visitor@Base 9.0.1
 _ZN11ir_variableC1EPK9glsl_typePKc16ir_variable_mode@Base 9.0.1
 _ZN11ir_variableC2EPK9glsl_typePKc16ir_variable_mode@Base 9.0.1
 _ZN11ir_variableD0Ev@Base 9.0.1
 _ZN11ir_variableD1Ev@Base 9.0.1
 _ZN11ir_variableD2Ev@Base 9.0.1
 _ZN12ast_function3hirEP9exec_listP22_mesa_glsl_parse_state@Base 9.0.1
 _ZN12ast_functionC1Ev@Base 9.0.1
 _ZN12ast_functionC2Ev@Base 9.0.1
 _ZN12ir_loop_jump6acceptEP10ir_visitor@Base 9.0.1
 _ZN12ir_loop_jump6acceptEP23ir_hierarchical_visitor@Base 9.0.1
 _ZN12ir_loop_jumpD0Ev@Base 9.0.1
 _ZN12ir_loop_jumpD1Ev@Base 9.0.1
 _ZN12ir_loop_jumpD2Ev@Base 9.0.1
 _ZN12s_expression15read_expressionEPvRPKc@Base 9.0.1
 _ZN13ir_assignment13as_assignmentEv@Base 9.0.1
 _ZN13ir_assignment22whole_variable_writtenEv@Base 9.0.1
 _ZN13ir_assignment25constant_expression_valueEP10hash_table@Base 9.0.1
 _ZN13ir_assignment6acceptEP10ir_visitor@Base 9.0.1
 _ZN13ir_assignment6acceptEP23ir_hierarchical_visitor@Base 9.0.1
 _ZN13ir_assignment7set_lhsEP9ir_rvalue@Base 9.0.1
 _ZN13ir_assignmentC1EP14ir_dereferenceP9ir_rvalueS3_j@Base 9.0.1
 _ZN13ir_assignmentC1EP9ir_rvalueS1_S1_@Base 9.0.1
 _ZN13ir_assignmentC2EP14ir_dereferenceP9ir_rvalueS3_j@Base 9.0.1
 _ZN13ir_assignmentC2EP9ir_rvalueS1_S1_@Base 9.0.1
 _ZN13ir_assignmentD0Ev@Base 9.0.1
 _ZN13ir_assignmentD1Ev@Base 9.0.1
 _ZN13ir_assignmentD2Ev@Base 9.0.1
 _ZN13ir_expression12get_operatorEPKc@Base 9.0.1
 _ZN13ir_expression13as_expressionEv@Base 9.0.1
 _ZN13ir_expression15operator_stringE23ir_expression_operation@Base 9.0.1
 _ZN13ir_expression15operator_stringEv@Base 9.0.1
 _ZN13ir_expression16get_num_operandsE23ir_expression_operation@Base 9.0.1
 _ZN13ir_expression25constant_expression_valueEP10hash_table@Base 9.0.1
 _ZN13ir_expression6acceptEP10ir_visitor@Base 9.0.1
 _ZN13ir_expression6acceptEP23ir_hierarchical_visitor@Base 9.0.1
 _ZN13ir_expressionC1EiP9ir_rvalue@Base 9.0.1
 _ZN13ir_expressionC1EiP9ir_rvalueS1_@Base 9.0.1
 _ZN13ir_expressionC1EiPK9glsl_typeP9ir_rvalue@Base 9.0.1
 _ZN13ir_expressionC1EiPK9glsl_typeP9ir_rvalueS4_@Base 9.0.1
 _ZN13ir_expressionC1EiPK9glsl_typeP9ir_rvalueS4_S4_S4_@Base 9.0.1
 _ZN13ir_expressionC2EiP9ir_rvalue@Base 9.0.1
 _ZN13ir_expressionC2EiP9ir_rvalueS1_@Base 9.0.1
 _ZN13ir_expressionC2EiPK9glsl_typeP9ir_rvalue@Base 9.0.1
 _ZN13ir_expressionC2EiPK9glsl_typeP9ir_rvalueS4_@Base 9.0.1
 _ZN13ir_expressionC2EiPK9glsl_typeP9ir_rvalueS4_S4_S4_@Base 9.0.1
 _ZN13ir_expressionD0Ev@Base 9.0.1
 _ZN13ir_expressionD1Ev@Base 9.0.1
 _ZN13ir_expressionD2Ev@Base 9.0.1
 _ZN13loop_analysis11visit_enterEP13ir_assignment@Base 9.0.1
 _ZN13loop_analysis11visit_enterEP5ir_if@Base 9.0.1
 _ZN13loop_analysis11visit_enterEP7ir_call@Base 9.0.1
 _ZN13loop_analysis11visit_enterEP7ir_loop@Base 9.0.1
 _ZN13loop_analysis11visit_leaveEP13ir_assignment@Base 9.0.1
 _ZN13loop_analysis11visit_leaveEP5ir_if@Base 9.0.1
 _ZN13loop_analysis11visit_leaveEP7ir_loop@Base 9.0.1
 _ZN13loop_analysis5visitEP12ir_loop_jump@Base 9.0.1
 _ZN13loop_analysis5visitEP23ir_dereference_variable@Base 9.0.1
 _ZN13loop_analysisC1Ev@Base 9.0.1
 _ZN13loop_analysisC2Ev@Base 9.0.1
 _ZN14ast_case_label3hirEP9exec_listP22_mesa_glsl_parse_state@Base 9.0.1
 _ZN14ast_case_labelC1EP14ast_expression@Base 9.0.1
 _ZN14ast_case_labelC2EP14ast_expression@Base 9.0.1
 _ZN14ast_expression15operator_stringE13ast_operators@Base 9.0.1
 _ZN14ast_expression3hirEP9exec_listP22_mesa_glsl_parse_state@Base 9.0.1
 _ZN14ast_expressionC1EiPS_S0_S0_@Base 9.0.1
 _ZN14ast_expressionC2EiPS_S0_S0_@Base 9.0.1
 _ZN14deref_replacer13handle_rvalueEPP9ir_rvalue@Base 9.0.1
 _ZN14ir_dereference14as_dereferenceEv@Base 9.0.1
 _ZN14ir_dereferenceD0Ev@Base 9.0.1
 _ZN14ir_dereferenceD1Ev@Base 9.0.1
 _ZN14ir_dereferenceD2Ev@Base 9.0.1
 _ZN14ir_instruction10as_discardEv@Base 9.0.1
 _ZN14ir_instruction10as_swizzleEv@Base 9.0.1
 _ZN14ir_instruction11as_constantEv@Base 9.0.1
 _ZN14ir_instruction11as_functionEv@Base 9.0.1
 _ZN14ir_instruction11as_variableEv@Base 9.0.1
 _ZN14ir_instruction13as_assignmentEv@Base 9.0.1
 _ZN14ir_instruction13as_expressionEv@Base 9.0.1
 _ZN14ir_instruction14as_dereferenceEv@Base 9.0.1
 _ZN14ir_instruction20as_dereference_arrayEv@Base 9.0.1
 _ZN14ir_instruction23as_dereference_variableEv@Base 9.0.1
 _ZN14ir_instruction5as_ifEv@Base 9.0.1
 _ZN14ir_instruction7as_callEv@Base 9.0.1
 _ZN14ir_instruction7as_loopEv@Base 9.0.1
 _ZN14ir_instruction9as_returnEv@Base 9.0.1
 _ZN14ir_instruction9as_rvalueEv@Base 9.0.1
 _ZN14ir_instructionD0Ev@Base 9.0.1
 _ZN14ir_instructionD1Ev@Base 9.0.1
 _ZN14ir_instructionD2Ev@Base 9.0.1
 _ZN14tfeedback_decl15assign_locationEP10gl_contextP17gl_shader_programP11ir_variable@Base 9.0.1
 _ZN14tfeedback_decl22accumulate_num_outputsEP17gl_shader_programPj@Base 9.0.1
 _ZN14tfeedback_decl4initEP10gl_contextP17gl_shader_programPKvPKc@Base 9.0.1
 _ZN14tfeedback_decl7is_sameERKS_S1_@Base 9.0.1
 _ZN15ast_declarationC1EPKciP14ast_expressionS3_@Base 9.0.1
 _ZN15ast_declarationC2EPKciP14ast_expressionS3_@Base 9.0.1
 _ZN15ast_switch_body3hirEP9exec_listP22_mesa_glsl_parse_state@Base 9.0.1
 _ZN15ast_switch_bodyC1EP23ast_case_statement_list@Base 9.0.1
 _ZN15ast_switch_bodyC2EP23ast_case_statement_list@Base 9.0.1
 _ZN16get_sampler_name11visit_leaveEP20ir_dereference_array@Base 9.0.1
 _ZN16get_sampler_name11visit_leaveEP21ir_dereference_record@Base 9.0.1
 _ZN16get_sampler_name5visitEP23ir_dereference_variable@Base 9.0.1
 _ZN16ir_print_visitor11unique_nameEP11ir_variable@Base 9.0.1
 _ZN16ir_print_visitor5visitEP10ir_discard@Base 9.0.1
 _ZN16ir_print_visitor5visitEP10ir_swizzle@Base 9.0.1
 _ZN16ir_print_visitor5visitEP10ir_texture@Base 9.0.1
 _ZN16ir_print_visitor5visitEP11ir_constant@Base 9.0.1
 _ZN16ir_print_visitor5visitEP11ir_function@Base 9.0.1
 _ZN16ir_print_visitor5visitEP11ir_variable@Base 9.0.1
 _ZN16ir_print_visitor5visitEP12ir_loop_jump@Base 9.0.1
 _ZN16ir_print_visitor5visitEP13ir_assignment@Base 9.0.1
 _ZN16ir_print_visitor5visitEP13ir_expression@Base 9.0.1
 _ZN16ir_print_visitor5visitEP20ir_dereference_array@Base 9.0.1
 _ZN16ir_print_visitor5visitEP21ir_dereference_record@Base 9.0.1
 _ZN16ir_print_visitor5visitEP21ir_function_signature@Base 9.0.1
 _ZN16ir_print_visitor5visitEP23ir_dereference_variable@Base 9.0.1
 _ZN16ir_print_visitor5visitEP5ir_if@Base 9.0.1
 _ZN16ir_print_visitor5visitEP7ir_call@Base 9.0.1
 _ZN16ir_print_visitor5visitEP7ir_loop@Base 9.0.1
 _ZN16ir_print_visitor5visitEP9ir_return@Base 9.0.1
 _ZN16ir_print_visitor5visitEP9ir_rvalue@Base 9.0.1
 _ZN16ir_print_visitor6indentEv@Base 9.0.1
 _ZN16ir_print_visitorC1Ev@Base 9.0.1
 _ZN16ir_print_visitorC2Ev@Base 9.0.1
 _ZN16ir_print_visitorD0Ev@Base 9.0.1
 _ZN16ir_print_visitorD1Ev@Base 9.0.1
 _ZN16ir_print_visitorD2Ev@Base 9.0.1
 _ZN16switch_generator15linear_sequenceEjjP9exec_list@Base 9.0.1
 _ZN16switch_generator6bisectEjjP9exec_list@Base 9.0.1
 _ZN17ast_uniform_block3hirEP9exec_listP22_mesa_glsl_parse_state@Base 9.0.1
 _ZN17call_link_visitor11visit_enterEP7ir_call@Base 9.0.1
 _ZN17call_link_visitor5visitEP11ir_variable@Base 9.0.1
 _ZN17call_link_visitor5visitEP23ir_dereference_variable@Base 9.0.1
 _ZN17glsl_symbol_table10push_scopeEv@Base 9.0.1
 _ZN17glsl_symbol_table12add_functionEP11ir_function@Base 9.0.1
 _ZN17glsl_symbol_table12add_variableEP11ir_variable@Base 9.0.1
 _ZN17glsl_symbol_table12get_functionEPKc@Base 9.0.1
 _ZN17glsl_symbol_table12get_variableEPKc@Base 9.0.1
 _ZN17glsl_symbol_table19add_global_functionEP11ir_function@Base 9.0.1
 _ZN17glsl_symbol_table24name_declared_this_scopeEPKc@Base 9.0.1
 _ZN17glsl_symbol_table29_glsl_symbol_table_destructorEPS_@Base 9.0.1
 _ZN17glsl_symbol_table8add_typeEPKcPK9glsl_type@Base 9.0.1
 _ZN17glsl_symbol_table8get_typeEPKc@Base 9.0.1
 _ZN17glsl_symbol_table9get_entryEPKc@Base 9.0.1
 _ZN17glsl_symbol_table9pop_scopeEv@Base 9.0.1
 _ZN17glsl_symbol_tableC1Ev@Base 9.0.1
 _ZN17glsl_symbol_tableC2Ev@Base 9.0.1
 _ZN17glsl_symbol_tableD1Ev@Base 9.0.1
 _ZN17glsl_symbol_tableD2Ev@Base 9.0.1
 _ZN17ir_rvalue_visitor11visit_leaveEP10ir_swizzle@Base 9.0.1
 _ZN17ir_rvalue_visitor11visit_leaveEP10ir_texture@Base 9.0.1
 _ZN17ir_rvalue_visitor11visit_leaveEP13ir_assignment@Base 9.0.1
 _ZN17ir_rvalue_visitor11visit_leaveEP13ir_expression@Base 9.0.1
 _ZN17ir_rvalue_visitor11visit_leaveEP20ir_dereference_array@Base 9.0.1
 _ZN17ir_rvalue_visitor11visit_leaveEP21ir_dereference_record@Base 9.0.1
 _ZN17ir_rvalue_visitor11visit_leaveEP5ir_if@Base 9.0.1
 _ZN17ir_rvalue_visitor11visit_leaveEP7ir_call@Base 9.0.1
 _ZN17ir_rvalue_visitor11visit_leaveEP9ir_return@Base 9.0.1
 _ZN17loop_unroll_count11visit_enterEP13ir_assignment@Base 9.0.1
 _ZN17loop_unroll_count11visit_enterEP13ir_expression@Base 9.0.1
 _ZN17loop_unroll_count11visit_enterEP7ir_loop@Base 9.0.1
 _ZN18ast_case_statement3hirEP9exec_listP22_mesa_glsl_parse_state@Base 9.0.1
 _ZN18ast_case_statementC1EP19ast_case_label_list@Base 9.0.1
 _ZN18ast_case_statementC2EP19ast_case_label_list@Base 9.0.1
 _ZN18ast_expression_binC1EiP14ast_expressionS1_@Base 9.0.1
 _ZN18ast_expression_binC2EiP14ast_expressionS1_@Base 9.0.1
 _ZN18ast_jump_statement3hirEP9exec_listP22_mesa_glsl_parse_state@Base 9.0.1
 _ZN18ast_jump_statementC1EiP14ast_expression@Base 9.0.1
 _ZN18ast_jump_statementC2EiP14ast_expression@Base 9.0.1
 _ZN18ast_type_qualifier15merge_qualifierEP7YYLTYPEP22_mesa_glsl_parse_stateS_@Base 9.0.1
 _ZN18ast_type_specifier3hirEP9exec_listP22_mesa_glsl_parse_state@Base 9.0.1
 _ZN18count_uniform_size11visit_fieldEPK9glsl_typePKc@Base 9.0.1
 _ZN18find_deref_visitor5visitEP23ir_dereference_variable@Base 9.0.1
 _ZN18ir_to_mesa_visitor11emit_scalarEP14ir_instruction11prog_opcode7dst_reg7src_reg@Base 9.0.1
 _ZN18ir_to_mesa_visitor11emit_scalarEP14ir_instruction11prog_opcode7dst_reg7src_regS4_@Base 9.0.1
 _ZN18ir_to_mesa_visitor12try_emit_madEP13ir_expressioni@Base 9.0.1
 _ZN18ir_to_mesa_visitor12try_emit_satEP13ir_expression@Base 9.0.1
 _ZN18ir_to_mesa_visitor14copy_propagateEv@Base 9.0.1
 _ZN18ir_to_mesa_visitor15reladdr_to_tempEP14ir_instructionP7src_regPi@Base 9.0.1
 _ZN18ir_to_mesa_visitor17src_reg_for_floatEf@Base 9.0.1
 _ZN18ir_to_mesa_visitor21find_variable_storageEP11ir_variable@Base 9.0.1
 _ZN18ir_to_mesa_visitor22process_move_conditionEP9ir_rvalue@Base 9.0.1
 _ZN18ir_to_mesa_visitor24try_emit_mad_for_and_notEP13ir_expressioni@Base 9.0.1
 _ZN18ir_to_mesa_visitor4emitEP14ir_instruction11prog_opcode7dst_reg7src_reg@Base 9.0.1
 _ZN18ir_to_mesa_visitor4emitEP14ir_instruction11prog_opcode7dst_reg7src_regS4_@Base 9.0.1
 _ZN18ir_to_mesa_visitor4emitEP14ir_instruction11prog_opcode7dst_reg7src_regS4_S4_@Base 9.0.1
 _ZN18ir_to_mesa_visitor4emitEP14ir_instruction11prog_opcode@Base 9.0.1
 _ZN18ir_to_mesa_visitor5visitEP10ir_discard@Base 9.0.1
 _ZN18ir_to_mesa_visitor5visitEP10ir_swizzle@Base 9.0.1
 _ZN18ir_to_mesa_visitor5visitEP10ir_texture@Base 9.0.1
 _ZN18ir_to_mesa_visitor5visitEP11ir_constant@Base 9.0.1
 _ZN18ir_to_mesa_visitor5visitEP11ir_function@Base 9.0.1
 _ZN18ir_to_mesa_visitor5visitEP11ir_variable@Base 9.0.1
 _ZN18ir_to_mesa_visitor5visitEP12ir_loop_jump@Base 9.0.1
 _ZN18ir_to_mesa_visitor5visitEP13ir_assignment@Base 9.0.1
 _ZN18ir_to_mesa_visitor5visitEP13ir_expression@Base 9.0.1
 _ZN18ir_to_mesa_visitor5visitEP20ir_dereference_array@Base 9.0.1
 _ZN18ir_to_mesa_visitor5visitEP21ir_dereference_record@Base 9.0.1
 _ZN18ir_to_mesa_visitor5visitEP21ir_function_signature@Base 9.0.1
 _ZN18ir_to_mesa_visitor5visitEP23ir_dereference_variable@Base 9.0.1
 _ZN18ir_to_mesa_visitor5visitEP5ir_if@Base 9.0.1
 _ZN18ir_to_mesa_visitor5visitEP7ir_call@Base 9.0.1
 _ZN18ir_to_mesa_visitor5visitEP7ir_loop@Base 9.0.1
 _ZN18ir_to_mesa_visitor5visitEP9ir_return@Base 9.0.1
 _ZN18ir_to_mesa_visitor7emit_dpEP14ir_instruction7dst_reg7src_regS3_j@Base 9.0.1
 _ZN18ir_to_mesa_visitor8emit_scsEP14ir_instruction11prog_opcode7dst_regRK7src_reg@Base 9.0.1
 _ZN18ir_to_mesa_visitor8emit_swzEP13ir_expression@Base 9.0.1
 _ZN18ir_to_mesa_visitor8get_tempEPK9glsl_type@Base 9.0.1
 _ZN18ir_to_mesa_visitorC1Ev@Base 9.0.1
 _ZN18ir_to_mesa_visitorC2Ev@Base 9.0.1
 _ZN18ir_to_mesa_visitorD0Ev@Base 9.0.1
 _ZN18ir_to_mesa_visitorD1Ev@Base 9.0.1
 _ZN18ir_to_mesa_visitorD2Ev@Base 9.0.1
 _ZN18string_to_uint_map10delete_keyEPKvPvS2_@Base 9.0.1
 _ZN19ast_case_label_list3hirEP9exec_listP22_mesa_glsl_parse_state@Base 9.0.1
 _ZN19ast_case_label_listC1Ev@Base 9.0.1
 _ZN19ast_case_label_listC2Ev@Base 9.0.1
 _ZN19ast_declarator_list3hirEP9exec_listP22_mesa_glsl_parse_state@Base 9.0.1
 _ZN19ast_declarator_listC1EP24ast_fully_specified_type@Base 9.0.1
 _ZN19ast_declarator_listC2EP24ast_fully_specified_type@Base 9.0.1
 _ZN19find_variable_index11visit_enterEP20ir_dereference_array@Base 9.0.1
 _ZN19loop_unroll_visitor11visit_leaveEP7ir_loop@Base 9.0.1
 _ZN19loop_variable_state10destructorEPS_@Base 9.0.1
 _ZN19loop_variable_state3getEPK11ir_variable@Base 9.0.1
 _ZN19loop_variable_state6insertEP11ir_variable@Base 9.0.1
 _ZN19loop_variable_state6insertEP5ir_if@Base 9.0.1
 _ZN19lower_noise_visitor13handle_rvalueEPP9ir_rvalue@Base 9.0.1
 _ZN19output_read_remover11visit_leaveEP21ir_function_signature@Base 9.0.1
 _ZN19output_read_remover11visit_leaveEP9ir_return@Base 9.0.1
 _ZN19output_read_remover5visitEP23ir_dereference_variable@Base 9.0.1
 _ZN19output_read_removerC1Ev@Base 9.0.1
 _ZN19output_read_removerC2Ev@Base 9.0.1
 _ZN19output_read_removerD1Ev@Base 9.0.1
 _ZN19output_read_removerD2Ev@Base 9.0.1
 _ZN20array_sizing_visitor5visitEP11ir_variable@Base 9.0.1
 _ZN20ast_struct_specifier3hirEP9exec_listP22_mesa_glsl_parse_state@Base 9.0.1
 _ZN20ast_struct_specifierC1EPKcP19ast_declarator_list@Base 9.0.1
 _ZN20ast_struct_specifierC2EPKcP19ast_declarator_list@Base 9.0.1
 _ZN20ast_switch_statement11test_to_hirEP9exec_listP22_mesa_glsl_parse_state@Base 9.0.1
 _ZN20ast_switch_statement3hirEP9exec_listP22_mesa_glsl_parse_state@Base 9.0.1
 _ZN20ast_switch_statementC1EP14ast_expressionP8ast_node@Base 9.0.1
 _ZN20ast_switch_statementC2EP14ast_expressionP8ast_node@Base 9.0.1
 _ZN20ir_dereference_array20as_dereference_arrayEv@Base 9.0.1
 _ZN20ir_dereference_array25constant_expression_valueEP10hash_table@Base 9.0.1
 _ZN20ir_dereference_array6acceptEP10ir_visitor@Base 9.0.1
 _ZN20ir_dereference_array6acceptEP23ir_hierarchical_visitor@Base 9.0.1
 _ZN20ir_dereference_array9set_arrayEP9ir_rvalue@Base 9.0.1
 _ZN20ir_dereference_arrayC1EP11ir_variableP9ir_rvalue@Base 9.0.1
 _ZN20ir_dereference_arrayC1EP9ir_rvalueS1_@Base 9.0.1
 _ZN20ir_dereference_arrayC2EP11ir_variableP9ir_rvalue@Base 9.0.1
 _ZN20ir_dereference_arrayC2EP9ir_rvalueS1_@Base 9.0.1
 _ZN20ir_dereference_arrayD0Ev@Base 9.0.1
 _ZN20ir_dereference_arrayD1Ev@Base 9.0.1
 _ZN20ir_dereference_arrayD2Ev@Base 9.0.1
 _ZN20loop_control_visitor11visit_leaveEP7ir_loop@Base 9.0.1
 _ZN20lower_vector_visitor13handle_rvalueEPP9ir_rvalue@Base 9.0.1
 _ZN21add_uniform_to_shader11visit_fieldEPK9glsl_typePKc@Base 9.0.1
 _ZN21fixup_ir_call_visitor11visit_enterEP7ir_call@Base 9.0.1
 _ZN21has_recursion_visitor11visit_enterEP21ir_function_signature@Base 9.0.1
 _ZN21has_recursion_visitor11visit_enterEP7ir_call@Base 9.0.1
 _ZN21has_recursion_visitor11visit_leaveEP21ir_function_signature@Base 9.0.1
 _ZN21ir_dereference_record25constant_expression_valueEP10hash_table@Base 9.0.1
 _ZN21ir_dereference_record6acceptEP10ir_visitor@Base 9.0.1
 _ZN21ir_dereference_record6acceptEP23ir_hierarchical_visitor@Base 9.0.1
 _ZN21ir_dereference_recordC1EP11ir_variablePKc@Base 9.0.1
 _ZN21ir_dereference_recordC1EP9ir_rvaluePKc@Base 9.0.1
 _ZN21ir_dereference_recordC2EP11ir_variablePKc@Base 9.0.1
 _ZN21ir_dereference_recordC2EP9ir_rvaluePKc@Base 9.0.1
 _ZN21ir_dereference_recordD0Ev@Base 9.0.1
 _ZN21ir_dereference_recordD1Ev@Base 9.0.1
 _ZN21ir_dereference_recordD2Ev@Base 9.0.1
 _ZN21ir_function_signature16qualifiers_matchEP9exec_list@Base 9.0.1
 _ZN21ir_function_signature18replace_parametersEP9exec_list@Base 9.0.1
 _ZN21ir_function_signature25constant_expression_valueEP9exec_listP10hash_table@Base 9.0.1
 _ZN21ir_function_signature44constant_expression_evaluate_expression_listERK9exec_listP10hash_tablePP11ir_constant@Base 9.0.1
 _ZN21ir_function_signature6acceptEP10ir_visitor@Base 9.0.1
 _ZN21ir_function_signature6acceptEP23ir_hierarchical_visitor@Base 9.0.1
 _ZN21ir_function_signatureC1EPK9glsl_type@Base 9.0.1
 _ZN21ir_function_signatureC2EPK9glsl_type@Base 9.0.1
 _ZN21ir_function_signatureD0Ev@Base 9.0.1
 _ZN21ir_function_signatureD1Ev@Base 9.0.1
 _ZN21ir_function_signatureD2Ev@Base 9.0.1
 _ZN21lower_discard_visitor11visit_leaveEP5ir_if@Base 9.0.1
 _ZN21uniform_field_visitor7processEP11ir_variable@Base 9.0.1
 _ZN21uniform_field_visitor9recursionEPK9glsl_typePPcm@Base 9.0.1
 _ZN22_mesa_glsl_parse_stateC1EP10gl_contextjPv@Base 9.0.1
 _ZN22_mesa_glsl_parse_stateC2EP10gl_contextjPv@Base 9.0.1
 _ZN22ast_compound_statement3hirEP9exec_listP22_mesa_glsl_parse_state@Base 9.0.1
 _ZN22ast_compound_statementC1EiP8ast_node@Base 9.0.1
 _ZN22ast_compound_statementC2EiP8ast_node@Base 9.0.1
 _ZN22ir_lower_jumps_visitor5visitEP10ir_discard@Base 9.0.1
 _ZN22ir_lower_jumps_visitor5visitEP11ir_function@Base 9.0.1
 _ZN22ir_lower_jumps_visitor5visitEP12ir_loop_jump@Base 9.0.1
 _ZN22ir_lower_jumps_visitor5visitEP21ir_function_signature@Base 9.0.1
 _ZN22ir_lower_jumps_visitor5visitEP5ir_if@Base 9.0.1
 _ZN22ir_lower_jumps_visitor5visitEP7ir_loop@Base 9.0.1
 _ZN22ir_lower_jumps_visitor5visitEP9ir_return@Base 9.0.1
 _ZN22ir_lower_jumps_visitorD0Ev@Base 9.0.1
 _ZN22ir_lower_jumps_visitorD1Ev@Base 9.0.1
 _ZN22ir_lower_jumps_visitorD2Ev@Base 9.0.1
 _ZN22ir_rvalue_base_visitor12rvalue_visitEP10ir_swizzle@Base 9.0.1
 _ZN22ir_rvalue_base_visitor12rvalue_visitEP10ir_texture@Base 9.0.1
 _ZN22ir_rvalue_base_visitor12rvalue_visitEP13ir_assignment@Base 9.0.1
 _ZN22ir_rvalue_base_visitor12rvalue_visitEP13ir_expression@Base 9.0.1
 _ZN22ir_rvalue_base_visitor12rvalue_visitEP20ir_dereference_array@Base 9.0.1
 _ZN22ir_rvalue_base_visitor12rvalue_visitEP21ir_dereference_record@Base 9.0.1
 _ZN22ir_rvalue_base_visitor12rvalue_visitEP5ir_if@Base 9.0.1
 _ZN22ir_rvalue_base_visitor12rvalue_visitEP7ir_call@Base 9.0.1
 _ZN22ir_rvalue_base_visitor12rvalue_visitEP9ir_return@Base 9.0.1
 _ZN23ast_case_statement_list3hirEP9exec_listP22_mesa_glsl_parse_state@Base 9.0.1
 _ZN23ast_case_statement_listC1Ev@Base 9.0.1
 _ZN23ast_case_statement_listC2Ev@Base 9.0.1
 _ZN23ast_function_definition3hirEP9exec_listP22_mesa_glsl_parse_state@Base 9.0.1
 _ZN23ast_function_expression3hirEP9exec_listP22_mesa_glsl_parse_state@Base 9.0.1
 _ZN23ast_iteration_statement16condition_to_hirEP7ir_loopP22_mesa_glsl_parse_state@Base 9.0.1
 _ZN23ast_iteration_statement3hirEP9exec_listP22_mesa_glsl_parse_state@Base 9.0.1
 _ZN23ast_iteration_statementC1EiP8ast_nodeS1_P14ast_expressionS1_@Base 9.0.1
 _ZN23ast_iteration_statementC2EiP8ast_nodeS1_P14ast_expressionS1_@Base 9.0.1
 _ZN23ast_selection_statement3hirEP9exec_listP22_mesa_glsl_parse_state@Base 9.0.1
 _ZN23ast_selection_statementC1EP14ast_expressionP8ast_nodeS3_@Base 9.0.1
 _ZN23ast_selection_statementC2EP14ast_expressionP8ast_nodeS3_@Base 9.0.1
 _ZN23find_assignment_visitor11visit_enterEP13ir_assignment@Base 9.0.1
 _ZN23find_assignment_visitor11visit_enterEP7ir_call@Base 9.0.1
 _ZN23ir_control_flow_visitor5visitEP10ir_swizzle@Base 9.0.1
 _ZN23ir_control_flow_visitor5visitEP10ir_texture@Base 9.0.1
 _ZN23ir_control_flow_visitor5visitEP11ir_constant@Base 9.0.1
 _ZN23ir_control_flow_visitor5visitEP11ir_variable@Base 9.0.1
 _ZN23ir_control_flow_visitor5visitEP13ir_assignment@Base 9.0.1
 _ZN23ir_control_flow_visitor5visitEP13ir_expression@Base 9.0.1
 _ZN23ir_control_flow_visitor5visitEP20ir_dereference_array@Base 9.0.1
 _ZN23ir_control_flow_visitor5visitEP21ir_dereference_record@Base 9.0.1
 _ZN23ir_control_flow_visitor5visitEP23ir_dereference_variable@Base 9.0.1
 _ZN23ir_control_flow_visitor5visitEP7ir_call@Base 9.0.1
 _ZN23ir_control_flow_visitorD0Ev@Base 9.0.1
 _ZN23ir_control_flow_visitorD1Ev@Base 9.0.1
 _ZN23ir_control_flow_visitorD2Ev@Base 9.0.1
 _ZN23ir_dereference_variable23as_dereference_variableEv@Base 9.0.1
 _ZN23ir_dereference_variable25constant_expression_valueEP10hash_table@Base 9.0.1
 _ZN23ir_dereference_variable25whole_variable_referencedEv@Base 9.0.1
 _ZN23ir_dereference_variable6acceptEP10ir_visitor@Base 9.0.1
 _ZN23ir_dereference_variable6acceptEP23ir_hierarchical_visitor@Base 9.0.1
 _ZN23ir_dereference_variableC1EP11ir_variable@Base 9.0.1
 _ZN23ir_dereference_variableC2EP11ir_variable@Base 9.0.1
 _ZN23ir_dereference_variableD0Ev@Base 9.0.1
 _ZN23ir_dereference_variableD1Ev@Base 9.0.1
 _ZN23ir_dereference_variableD2Ev@Base 9.0.1
 _ZN23ir_hierarchical_visitor11visit_enterEP10ir_discard@Base 9.0.1
 _ZN23ir_hierarchical_visitor11visit_enterEP10ir_swizzle@Base 9.0.1
 _ZN23ir_hierarchical_visitor11visit_enterEP10ir_texture@Base 9.0.1
 _ZN23ir_hierarchical_visitor11visit_enterEP11ir_function@Base 9.0.1
 _ZN23ir_hierarchical_visitor11visit_enterEP13ir_assignment@Base 9.0.1
 _ZN23ir_hierarchical_visitor11visit_enterEP13ir_expression@Base 9.0.1
 _ZN23ir_hierarchical_visitor11visit_enterEP20ir_dereference_array@Base 9.0.1
 _ZN23ir_hierarchical_visitor11visit_enterEP21ir_dereference_record@Base 9.0.1
 _ZN23ir_hierarchical_visitor11visit_enterEP21ir_function_signature@Base 9.0.1
 _ZN23ir_hierarchical_visitor11visit_enterEP5ir_if@Base 9.0.1
 _ZN23ir_hierarchical_visitor11visit_enterEP7ir_call@Base 9.0.1
 _ZN23ir_hierarchical_visitor11visit_enterEP7ir_loop@Base 9.0.1
 _ZN23ir_hierarchical_visitor11visit_enterEP9ir_return@Base 9.0.1
 _ZN23ir_hierarchical_visitor11visit_leaveEP10ir_discard@Base 9.0.1
 _ZN23ir_hierarchical_visitor11visit_leaveEP10ir_swizzle@Base 9.0.1
 _ZN23ir_hierarchical_visitor11visit_leaveEP10ir_texture@Base 9.0.1
 _ZN23ir_hierarchical_visitor11visit_leaveEP11ir_function@Base 9.0.1
 _ZN23ir_hierarchical_visitor11visit_leaveEP13ir_assignment@Base 9.0.1
 _ZN23ir_hierarchical_visitor11visit_leaveEP13ir_expression@Base 9.0.1
 _ZN23ir_hierarchical_visitor11visit_leaveEP20ir_dereference_array@Base 9.0.1
 _ZN23ir_hierarchical_visitor11visit_leaveEP21ir_dereference_record@Base 9.0.1
 _ZN23ir_hierarchical_visitor11visit_leaveEP21ir_function_signature@Base 9.0.1
 _ZN23ir_hierarchical_visitor11visit_leaveEP5ir_if@Base 9.0.1
 _ZN23ir_hierarchical_visitor11visit_leaveEP7ir_call@Base 9.0.1
 _ZN23ir_hierarchical_visitor11visit_leaveEP7ir_loop@Base 9.0.1
 _ZN23ir_hierarchical_visitor11visit_leaveEP9ir_return@Base 9.0.1
 _ZN23ir_hierarchical_visitor3runEP9exec_list@Base 9.0.1
 _ZN23ir_hierarchical_visitor5visitEP11ir_constant@Base 9.0.1
 _ZN23ir_hierarchical_visitor5visitEP11ir_variable@Base 9.0.1
 _ZN23ir_hierarchical_visitor5visitEP12ir_loop_jump@Base 9.0.1
 _ZN23ir_hierarchical_visitor5visitEP23ir_dereference_variable@Base 9.0.1
 _ZN23ir_hierarchical_visitor5visitEP9ir_rvalue@Base 9.0.1
 _ZN23ir_hierarchical_visitorC1Ev@Base 9.0.1
 _ZN23ir_hierarchical_visitorC2Ev@Base 9.0.1
 _ZN23ir_rvalue_enter_visitor11visit_enterEP10ir_swizzle@Base 9.0.1
 _ZN23ir_rvalue_enter_visitor11visit_enterEP10ir_texture@Base 9.0.1
 _ZN23ir_rvalue_enter_visitor11visit_enterEP13ir_assignment@Base 9.0.1
 _ZN23ir_rvalue_enter_visitor11visit_enterEP13ir_expression@Base 9.0.1
 _ZN23ir_rvalue_enter_visitor11visit_enterEP20ir_dereference_array@Base 9.0.1
 _ZN23ir_rvalue_enter_visitor11visit_enterEP21ir_dereference_record@Base 9.0.1
 _ZN23ir_rvalue_enter_visitor11visit_enterEP5ir_if@Base 9.0.1
 _ZN23ir_rvalue_enter_visitor11visit_enterEP7ir_call@Base 9.0.1
 _ZN23ir_rvalue_enter_visitor11visit_enterEP9ir_return@Base 9.0.1
 _ZN24ast_expression_statement3hirEP9exec_listP22_mesa_glsl_parse_state@Base 9.0.1
 _ZN24ast_expression_statementC1EP14ast_expression@Base 9.0.1
 _ZN24ast_expression_statementC2EP14ast_expression@Base 9.0.1
 _ZN24ast_parameter_declarator17parameters_to_hirEP9exec_listbS1_P22_mesa_glsl_parse_state@Base 9.0.1
 _ZN24ast_parameter_declarator3hirEP9exec_listP22_mesa_glsl_parse_state@Base 9.0.1
 _ZN24import_prototype_visitor11visit_enterEP11ir_function@Base 9.0.1
 _ZN24import_prototype_visitor11visit_enterEP21ir_function_signature@Base 9.0.1
 _ZN24import_prototype_visitor11visit_leaveEP11ir_function@Base 9.0.1
 _ZN24ir_mat_op_to_vec_visitor10get_columnEP14ir_dereferencei@Base 9.0.1
 _ZN24ir_mat_op_to_vec_visitor11get_elementEP14ir_dereferenceii@Base 9.0.1
 _ZN24ir_mat_op_to_vec_visitor11visit_leaveEP13ir_assignment@Base 9.0.1
 _ZN24ir_mat_op_to_vec_visitor14do_mul_mat_matEP14ir_dereferenceS1_S1_@Base 9.0.1
 _ZN24ir_mat_op_to_vec_visitor14do_mul_mat_vecEP14ir_dereferenceS1_S1_@Base 9.0.1
 _ZN24ir_mat_op_to_vec_visitor14do_mul_vec_matEP14ir_dereferenceS1_S1_@Base 9.0.1
 _ZN24ir_mat_op_to_vec_visitor16do_equal_mat_matEP14ir_dereferenceS1_S1_b@Base 9.0.1
 _ZN24ir_mat_op_to_vec_visitor17do_mul_mat_scalarEP14ir_dereferenceS1_S1_@Base 9.0.1
 _ZN26ir_array_reference_visitor11visit_enterEP20ir_dereference_array@Base 9.0.1
 _ZN26ir_array_reference_visitor11visit_enterEP21ir_function_signature@Base 9.0.1
 _ZN26ir_array_reference_visitor14get_split_listEP9exec_listb@Base 9.0.1
 _ZN26ir_array_reference_visitor18get_variable_entryEP11ir_variable@Base 9.0.1
 _ZN26ir_array_reference_visitor5visitEP11ir_variable@Base 9.0.1
 _ZN26ir_array_reference_visitor5visitEP23ir_dereference_variable@Base 9.0.1
 _ZN26ir_array_splitting_visitor11split_derefEPP14ir_dereference@Base 9.0.1
 _ZN26ir_array_splitting_visitor11visit_leaveEP13ir_assignment@Base 9.0.1
 _ZN26ir_array_splitting_visitor13handle_rvalueEPP9ir_rvalue@Base 9.0.1
 _ZN26ir_array_splitting_visitor19get_splitting_entryEP11ir_variable@Base 9.0.1
 _ZN26ir_array_splitting_visitorD0Ev@Base 9.0.1
 _ZN26ir_array_splitting_visitorD1Ev@Base 9.0.1
 _ZN26ir_array_splitting_visitorD2Ev@Base 9.0.1
 _ZN26ir_variable_refcount_entryC1EP11ir_variable@Base 9.0.1
 _ZN26ir_variable_refcount_entryC2EP11ir_variable@Base 9.0.1
 _ZN26lower_discard_flow_visitor11visit_enterEP10ir_discard@Base 9.0.1
 _ZN26lower_discard_flow_visitor11visit_enterEP12ir_loop_jump@Base 9.0.1
 _ZN26lower_discard_flow_visitor11visit_enterEP21ir_function_signature@Base 9.0.1
 _ZN26lower_discard_flow_visitor11visit_enterEP7ir_loop@Base 9.0.1
 _ZN26lower_discard_flow_visitor22generate_discard_breakEv@Base 9.0.1
 _ZN26lower_instructions_visitor11exp_to_exp2EP13ir_expression@Base 9.0.1
 _ZN26lower_instructions_visitor11log_to_log2EP13ir_expression@Base 9.0.1
 _ZN26lower_instructions_visitor11pow_to_exp2EP13ir_expression@Base 9.0.1
 _ZN26lower_instructions_visitor11visit_leaveEP13ir_expression@Base 9.0.1
 _ZN26lower_instructions_visitor12mod_to_fractEP13ir_expression@Base 9.0.1
 _ZN26lower_instructions_visitor14div_to_mul_rcpEP13ir_expression@Base 9.0.1
 _ZN26lower_instructions_visitor14sub_to_add_negEP13ir_expression@Base 9.0.1
 _ZN26lower_instructions_visitor18int_div_to_mul_rcpEP13ir_expression@Base 9.0.1
 _ZN26parcel_out_uniform_storage11visit_fieldEPK9glsl_typePKc@Base 9.0.1
 _ZN27lower_clip_distance_visitor11visit_leaveEP13ir_assignment@Base 9.0.1
 _ZN27lower_clip_distance_visitor11visit_leaveEP20ir_dereference_array@Base 9.0.1
 _ZN27lower_clip_distance_visitor11visit_leaveEP7ir_call@Base 9.0.1
 _ZN27lower_clip_distance_visitor14create_indicesEP9ir_rvalueRS1_S2_@Base 9.0.1
 _ZN27lower_clip_distance_visitor20visit_new_assignmentEP13ir_assignment@Base 9.0.1
 _ZN27lower_clip_distance_visitor5visitEP11ir_variable@Base 9.0.1
 _ZN28ir_if_to_cond_assign_visitor11visit_enterEP5ir_if@Base 9.0.1
 _ZN28ir_if_to_cond_assign_visitor11visit_leaveEP5ir_if@Base 9.0.1
 _ZN28ir_variable_refcount_visitor11visit_enterEP21ir_function_signature@Base 9.0.1
 _ZN28ir_variable_refcount_visitor11visit_leaveEP13ir_assignment@Base 9.0.1
 _ZN28ir_variable_refcount_visitor18get_variable_entryEP11ir_variable@Base 9.0.1
 _ZN28ir_variable_refcount_visitor5visitEP11ir_variable@Base 9.0.1
 _ZN28ir_variable_refcount_visitor5visitEP23ir_dereference_variable@Base 9.0.1
 _ZN29ir_set_program_inouts_visitor11visit_enterEP10ir_discard@Base 9.0.1
 _ZN29ir_set_program_inouts_visitor11visit_enterEP13ir_expression@Base 9.0.1
 _ZN29ir_set_program_inouts_visitor11visit_enterEP20ir_dereference_array@Base 9.0.1
 _ZN29ir_set_program_inouts_visitor11visit_enterEP21ir_function_signature@Base 9.0.1
 _ZN29ir_set_program_inouts_visitor5visitEP11ir_variable@Base 9.0.1
 _ZN29ir_set_program_inouts_visitor5visitEP23ir_dereference_variable@Base 9.0.1
 _ZN30ir_function_can_inline_visitor11visit_enterEP9ir_return@Base 9.0.1
 _ZN30ir_sampler_replacement_visitor11visit_leaveEP10ir_texture@Base 9.0.1
 _ZN30ir_sampler_replacement_visitor11visit_leaveEP20ir_dereference_array@Base 9.0.1
 _ZN30ir_sampler_replacement_visitor11visit_leaveEP21ir_dereference_record@Base 9.0.1
 _ZN30ir_sampler_replacement_visitor11visit_leaveEP7ir_call@Base 9.0.1
 _ZN30ir_sampler_replacement_visitor13replace_derefEPP14ir_dereference@Base 9.0.1
 _ZN30ir_sampler_replacement_visitor14replace_rvalueEPP9ir_rvalue@Base 9.0.1
 _ZN30ir_sampler_replacement_visitorD0Ev@Base 9.0.1
 _ZN30ir_sampler_replacement_visitorD1Ev@Base 9.0.1
 _ZN30ir_sampler_replacement_visitorD2Ev@Base 9.0.1
 _ZN31ir_vec_index_to_swizzle_visitor11visit_enterEP10ir_swizzle@Base 9.0.1
 _ZN31ir_vec_index_to_swizzle_visitor11visit_enterEP13ir_assignment@Base 9.0.1
 _ZN31ir_vec_index_to_swizzle_visitor11visit_enterEP13ir_expression@Base 9.0.1
 _ZN31ir_vec_index_to_swizzle_visitor11visit_enterEP5ir_if@Base 9.0.1
 _ZN31ir_vec_index_to_swizzle_visitor11visit_enterEP7ir_call@Base 9.0.1
 _ZN31ir_vec_index_to_swizzle_visitor11visit_enterEP9ir_return@Base 9.0.1
 _ZN31ir_vec_index_to_swizzle_visitor28convert_vec_index_to_swizzleEP9ir_rvalue@Base 9.0.1
 _ZN32ir_expression_flattening_visitor13handle_rvalueEPP9ir_rvalue@Base 9.0.1
 _ZN32ir_expression_flattening_visitorD0Ev@Base 9.0.1
 _ZN32ir_expression_flattening_visitorD1Ev@Base 9.0.1
 _ZN32ir_expression_flattening_visitorD2Ev@Base 9.0.1
 _ZN32lower_texture_projection_visitor11visit_leaveEP10ir_texture@Base 9.0.1
 _ZN35ir_vec_index_to_cond_assign_visitor11visit_enterEP10ir_swizzle@Base 9.0.1
 _ZN35ir_vec_index_to_cond_assign_visitor11visit_enterEP13ir_expression@Base 9.0.1
 _ZN35ir_vec_index_to_cond_assign_visitor11visit_enterEP5ir_if@Base 9.0.1
 _ZN35ir_vec_index_to_cond_assign_visitor11visit_enterEP7ir_call@Base 9.0.1
 _ZN35ir_vec_index_to_cond_assign_visitor11visit_enterEP9ir_return@Base 9.0.1
 _ZN35ir_vec_index_to_cond_assign_visitor11visit_leaveEP13ir_assignment@Base 9.0.1
 _ZN35ir_vec_index_to_cond_assign_visitor32convert_vec_index_to_cond_assignEP9ir_rvalue@Base 9.0.1
 _ZN37variable_index_to_cond_assign_visitor11visit_leaveEP13ir_assignment@Base 9.0.1
 _ZN37variable_index_to_cond_assign_visitor13handle_rvalueEPP9ir_rvalue@Base 9.0.1
 _ZN37variable_index_to_cond_assign_visitor25convert_dereference_arrayEP20ir_dereference_arrayP13ir_assignmentP14ir_dereference@Base 9.0.1
 _ZN5ir_if5as_ifEv@Base 9.0.1
 _ZN5ir_if6acceptEP10ir_visitor@Base 9.0.1
 _ZN5ir_if6acceptEP23ir_hierarchical_visitor@Base 9.0.1
 _ZN5ir_ifD0Ev@Base 9.0.1
 _ZN5ir_ifD1Ev@Base 9.0.1
 _ZN5ir_ifD2Ev@Base 9.0.1
 _ZN5s_int5printEv@Base 9.0.1
 _ZN5s_int6fvalueEv@Base 9.0.1
 _ZN6linker11get_storageEP18gl_uniform_storagejPKc@Base 9.0.1
 _ZN6linker23set_uniform_initializerEPvP17gl_shader_programPKcPK9glsl_typeP11ir_constant@Base 9.0.1
 _ZN6linker24copy_constant_to_storageEP17gl_constant_valuePK11ir_constant14glsl_base_typej@Base 9.0.1
 _ZN6s_list5printEv@Base 9.0.1
 _ZN6s_listC1Ev@Base 9.0.1
 _ZN6s_listC2Ev@Base 9.0.1
 _ZN7dst_regC1E7src_reg@Base 9.0.1
 _ZN7dst_regC2E7src_reg@Base 9.0.1
 _ZN7ir_call15generate_inlineEP14ir_instruction@Base 9.0.1
 _ZN7ir_call25constant_expression_valueEP10hash_table@Base 9.0.1
 _ZN7ir_call6acceptEP10ir_visitor@Base 9.0.1
 _ZN7ir_call6acceptEP23ir_hierarchical_visitor@Base 9.0.1
 _ZN7ir_call7as_callEv@Base 9.0.1
 _ZN7ir_callD0Ev@Base 9.0.1
 _ZN7ir_callD1Ev@Base 9.0.1
 _ZN7ir_callD2Ev@Base 9.0.1
 _ZN7ir_jumpD0Ev@Base 9.0.1
 _ZN7ir_jumpD1Ev@Base 9.0.1
 _ZN7ir_jumpD2Ev@Base 9.0.1
 _ZN7ir_loop6acceptEP10ir_visitor@Base 9.0.1
 _ZN7ir_loop6acceptEP23ir_hierarchical_visitor@Base 9.0.1
 _ZN7ir_loop7as_loopEv@Base 9.0.1
 _ZN7ir_loopC1Ev@Base 9.0.1
 _ZN7ir_loopC2Ev@Base 9.0.1
 _ZN7ir_loopD0Ev@Base 9.0.1
 _ZN7ir_loopD1Ev@Base 9.0.1
 _ZN7ir_loopD2Ev@Base 9.0.1
 _ZN7s_float5printEv@Base 9.0.1
 _ZN7s_float6fvalueEv@Base 9.0.1
 _ZN7src_regC1E7dst_reg@Base 9.0.1
 _ZN7src_regC2E7dst_reg@Base 9.0.1
 _ZN8ast_node3hirEP9exec_listP22_mesa_glsl_parse_state@Base 9.0.1
 _ZN8ast_nodeC1Ev@Base 9.0.1
 _ZN8ast_nodeC2Ev@Base 9.0.1
 _ZN8s_symbol5printEv@Base 9.0.1
 _ZN8s_symbolC1EPKcm@Base 9.0.1
 _ZN8s_symbolC2EPKcm@Base 9.0.1
 _ZN9glsl_type10_void_typeE@Base 9.0.1
 _ZN9glsl_type10bvec2_typeE@Base 9.0.1
 _ZN9glsl_type10bvec3_typeE@Base 9.0.1
 _ZN9glsl_type10bvec4_typeE@Base 9.0.1
 _ZN9glsl_type10error_typeE@Base 9.0.1
 _ZN9glsl_type10float_typeE@Base 9.0.1
 _ZN9glsl_type10ivec2_typeE@Base 9.0.1
 _ZN9glsl_type10ivec3_typeE@Base 9.0.1
 _ZN9glsl_type10ivec4_typeE@Base 9.0.1
 _ZN9glsl_type10uvec2_typeE@Base 9.0.1
 _ZN9glsl_type10uvec3_typeE@Base 9.0.1
 _ZN9glsl_type10uvec4_typeE@Base 9.0.1
 _ZN9glsl_type11_error_typeE@Base 9.0.1
 _ZN9glsl_type11array_typesE@Base 9.0.1
 _ZN9glsl_type11mat2x3_typeE@Base 9.0.1
 _ZN9glsl_type11mat2x4_typeE@Base 9.0.1
 _ZN9glsl_type11mat3x2_typeE@Base 9.0.1
 _ZN9glsl_type11mat3x4_typeE@Base 9.0.1
 _ZN9glsl_type11mat4x2_typeE@Base 9.0.1
 _ZN9glsl_type11mat4x3_typeE@Base 9.0.1
 _ZN9glsl_type12get_instanceEjjj@Base 9.0.1
 _ZN9glsl_type12record_typesE@Base 9.0.1
 _ZN9glsl_type15_sampler3D_typeE@Base 9.0.1
 _ZN9glsl_type15record_key_hashEPKv@Base 9.0.1
 _ZN9glsl_type17builtin_110_typesE@Base 9.0.1
 _ZN9glsl_type17builtin_120_typesE@Base 9.0.1
 _ZN9glsl_type17builtin_130_typesE@Base 9.0.1
 _ZN9glsl_type17builtin_140_typesE@Base 9.0.1
 _ZN9glsl_type18builtin_core_typesE@Base 9.0.1
 _ZN9glsl_type18generate_110_typesEP17glsl_symbol_tableb@Base 9.0.1
 _ZN9glsl_type18generate_120_typesEP17glsl_symbol_tableb@Base 9.0.1
 _ZN9glsl_type18generate_130_typesEP17glsl_symbol_tableb@Base 9.0.1
 _ZN9glsl_type18generate_140_typesEP17glsl_symbol_table@Base 9.0.1
 _ZN9glsl_type18get_array_instanceEPKS_j@Base 9.0.1
 _ZN9glsl_type18record_key_compareEPKvS1_@Base 9.0.1
 _ZN9glsl_type19get_record_instanceEPK17glsl_struct_fieldjPKc@Base 9.0.1
 _ZN9glsl_type20generate_100ES_typesEP17glsl_symbol_table@Base 9.0.1
 _ZN9glsl_type20init_ralloc_type_ctxEv@Base 9.0.1
 _ZN9glsl_type23builtin_structure_typesE@Base 9.0.1
 _ZN9glsl_type29generate_OES_texture_3D_typesEP17glsl_symbol_tableb@Base 9.0.1
 _ZN9glsl_type31builtin_EXT_texture_array_typesE@Base 9.0.1
 _ZN9glsl_type32generate_EXT_texture_array_typesEP17glsl_symbol_tableb@Base 9.0.1
 _ZN9glsl_type35builtin_ARB_texture_rectangle_typesE@Base 9.0.1
 _ZN9glsl_type36builtin_OES_EGL_image_external_typesE@Base 9.0.1
 _ZN9glsl_type36generate_ARB_texture_rectangle_typesEP17glsl_symbol_tableb@Base 9.0.1
 _ZN9glsl_type37generate_OES_EGL_image_external_typesEP17glsl_symbol_tableb@Base 9.0.1
 _ZN9glsl_type38builtin_110_deprecated_structure_typesE@Base 9.0.1
 _ZN9glsl_type39builtin_EXT_texture_buffer_object_typesE@Base 9.0.1
 _ZN9glsl_type7mem_ctxE@Base 9.0.1
 _ZN9glsl_type8int_typeE@Base 9.0.1
 _ZN9glsl_type9bool_typeE@Base 9.0.1
 _ZN9glsl_type9mat2_typeE@Base 9.0.1
 _ZN9glsl_type9mat3_typeE@Base 9.0.1
 _ZN9glsl_type9mat4_typeE@Base 9.0.1
 _ZN9glsl_type9uint_typeE@Base 9.0.1
 _ZN9glsl_type9vec2_typeE@Base 9.0.1
 _ZN9glsl_type9vec3_typeE@Base 9.0.1
 _ZN9glsl_type9vec4_typeE@Base 9.0.1
 _ZN9glsl_type9void_typeE@Base 9.0.1
 _ZN9glsl_typeC1EPK17glsl_struct_fieldjPKc@Base 9.0.1
 _ZN9glsl_typeC1EPKS_j@Base 9.0.1
 _ZN9glsl_typeC1Ej14glsl_base_typejjPKc@Base 9.0.1
 _ZN9glsl_typeC1Ej16glsl_sampler_dimbbjPKc@Base 9.0.1
 _ZN9glsl_typeC2EPK17glsl_struct_fieldjPKc@Base 9.0.1
 _ZN9glsl_typeC2EPKS_j@Base 9.0.1
 _ZN9glsl_typeC2Ej14glsl_base_typejjPKc@Base 9.0.1
 _ZN9glsl_typeC2Ej16glsl_sampler_dimbbjPKc@Base 9.0.1
 _ZN9ir_reader11read_returnEP12s_expression@Base 9.0.1
 _ZN9ir_reader11read_rvalueEP12s_expression@Base 9.0.1
 _ZN9ir_reader12read_swizzleEP12s_expression@Base 9.0.1
 _ZN9ir_reader12read_textureEP12s_expression@Base 9.0.1
 _ZN9ir_reader12read_var_refEP12s_expression@Base 9.0.1
 _ZN9ir_reader13ir_read_errorEP12s_expressionPKcz@Base 9.0.1
 _ZN9ir_reader13read_constantEP12s_expression@Base 9.0.1
 _ZN9ir_reader13read_functionEP12s_expressionb@Base 9.0.1
 _ZN9ir_reader15read_assignmentEP12s_expression@Base 9.0.1
 _ZN9ir_reader15read_expressionEP12s_expression@Base 9.0.1
 _ZN9ir_reader16read_declarationEP12s_expression@Base 9.0.1
 _ZN9ir_reader16read_dereferenceEP12s_expression@Base 9.0.1
 _ZN9ir_reader16read_instructionEP12s_expressionP7ir_loop@Base 9.0.1
 _ZN9ir_reader17read_function_sigEP11ir_functionP12s_expressionb@Base 9.0.1
 _ZN9ir_reader17read_instructionsEP9exec_listP12s_expressionP7ir_loop@Base 9.0.1
 _ZN9ir_reader19scan_for_prototypesEP9exec_listP12s_expression@Base 9.0.1
 _ZN9ir_reader4readEP9exec_listPKcb@Base 9.0.1
 _ZN9ir_reader7read_ifEP12s_expressionP7ir_loop@Base 9.0.1
 _ZN9ir_reader9read_callEP12s_expression@Base 9.0.1
 _ZN9ir_reader9read_loopEP12s_expression@Base 9.0.1
 _ZN9ir_reader9read_typeEP12s_expression@Base 9.0.1
 _ZN9ir_readerC1EP22_mesa_glsl_parse_state@Base 9.0.1
 _ZN9ir_readerC2EP22_mesa_glsl_parse_state@Base 9.0.1
 _ZN9ir_return6acceptEP10ir_visitor@Base 9.0.1
 _ZN9ir_return6acceptEP23ir_hierarchical_visitor@Base 9.0.1
 _ZN9ir_return9as_returnEv@Base 9.0.1
 _ZN9ir_returnD0Ev@Base 9.0.1
 _ZN9ir_returnD1Ev@Base 9.0.1
 _ZN9ir_returnD2Ev@Base 9.0.1
 _ZN9ir_rvalue11error_valueEPv@Base 9.0.1
 _ZN9ir_rvalue21as_rvalue_to_saturateEv@Base 9.0.1
 _ZN9ir_rvalue25constant_expression_valueEP10hash_table@Base 9.0.1
 _ZN9ir_rvalue25whole_variable_referencedEv@Base 9.0.1
 _ZN9ir_rvalue6acceptEP10ir_visitor@Base 9.0.1
 _ZN9ir_rvalue6acceptEP23ir_hierarchical_visitor@Base 9.0.1
 _ZN9ir_rvalue9as_rvalueEv@Base 9.0.1
 _ZN9ir_rvalueC1Ev@Base 9.0.1
 _ZN9ir_rvalueC2Ev@Base 9.0.1
 _ZN9ir_rvalueD0Ev@Base 9.0.1
 _ZN9ir_rvalueD1Ev@Base 9.0.1
 _ZN9ir_rvalueD2Ev@Base 9.0.1
 _ZN9s_pattern5matchEP12s_expression@Base 9.0.1
 _ZNK10ir_discard5cloneEPvP10hash_table@Base 9.0.1
 _ZNK10ir_swizzle19variable_referencedEv@Base 9.0.1
 _ZNK10ir_swizzle5cloneEPvP10hash_table@Base 9.0.1
 _ZNK10ir_swizzle9is_lvalueEv@Base 9.0.1
 _ZNK10ir_texture5cloneEPvP10hash_table@Base 9.0.1
 _ZNK11ir_constant15is_negative_oneEv@Base 9.0.1
 _ZNK11ir_constant17get_array_elementEj@Base 9.0.1
 _ZNK11ir_constant17get_int_componentEj@Base 9.0.1
 _ZNK11ir_constant18get_bool_componentEj@Base 9.0.1
 _ZNK11ir_constant18get_uint_componentEj@Base 9.0.1
 _ZNK11ir_constant19get_float_componentEj@Base 9.0.1
 _ZNK11ir_constant5cloneEPvP10hash_table@Base 9.0.1
 _ZNK11ir_constant6is_oneEv@Base 9.0.1
 _ZNK11ir_constant7is_zeroEv@Base 9.0.1
 _ZNK11ir_constant8is_basisEv@Base 9.0.1
 _ZNK11ir_constant9has_valueEPKS_@Base 9.0.1
 _ZNK11ir_function5cloneEPvP10hash_table@Base 9.0.1
 _ZNK11ir_variable20interpolation_stringEv@Base 9.0.1
 _ZNK11ir_variable5cloneEPvP10hash_table@Base 9.0.1
 _ZNK12ast_function5printEv@Base 9.0.1
 _ZNK12ir_loop_jump5cloneEPvP10hash_table@Base 9.0.1
 _ZNK12s_expression6is_intEv@Base 9.0.1
 _ZNK12s_expression7is_listEv@Base 9.0.1
 _ZNK12s_expression9is_numberEv@Base 9.0.1
 _ZNK12s_expression9is_symbolEv@Base 9.0.1
 _ZNK13ir_assignment5cloneEPvP10hash_table@Base 9.0.1
 _ZNK13ir_expression5cloneEPvP10hash_table@Base 9.0.1
 _ZNK14ast_case_label5printEv@Base 9.0.1
 _ZNK14ast_expression5printEv@Base 9.0.1
 _ZNK14ir_dereference9is_lvalueEv@Base 9.0.1
 _ZNK14ir_instruction5printEv@Base 9.0.1
 _ZNK14tfeedback_decl5storeEP10gl_contextP17gl_shader_programP26gl_transform_feedback_infojj@Base 9.0.1
 _ZNK15ast_declaration5printEv@Base 9.0.1
 _ZNK15ast_switch_body5printEv@Base 9.0.1
 _ZNK18ast_case_statement5printEv@Base 9.0.1
 _ZNK18ast_expression_bin5printEv@Base 9.0.1
 _ZNK18ast_jump_statement5printEv@Base 9.0.1
 _ZNK18ast_type_qualifier17has_interpolationEv@Base 9.0.1
 _ZNK18ast_type_qualifier20interpolation_stringEv@Base 9.0.1
 _ZNK18ast_type_specifier5printEv@Base 9.0.1
 _ZNK18ast_type_specifier9glsl_typeEPPKcP22_mesa_glsl_parse_state@Base 9.0.1
 _ZNK19ast_case_label_list5printEv@Base 9.0.1
 _ZNK19ast_declarator_list5printEv@Base 9.0.1
 _ZNK20_mesa_glsl_extension21compatible_with_stateEPK22_mesa_glsl_parse_state@Base 9.0.1
 _ZNK20_mesa_glsl_extension9set_flagsEP22_mesa_glsl_parse_state12ext_behavior@Base 9.0.1
 _ZNK20ast_struct_specifier5printEv@Base 9.0.1
 _ZNK20ast_switch_statement5printEv@Base 9.0.1
 _ZNK20ir_dereference_array19constant_referencedEP10hash_tableRP11ir_constantRi@Base 9.0.1
 _ZNK20ir_dereference_array19variable_referencedEv@Base 9.0.1
 _ZNK20ir_dereference_array5cloneEPvP10hash_table@Base 9.0.1
 _ZNK21ir_dereference_record19constant_referencedEP10hash_tableRP11ir_constantRi@Base 9.0.1
 _ZNK21ir_dereference_record19variable_referencedEv@Base 9.0.1
 _ZNK21ir_dereference_record5cloneEPvP10hash_table@Base 9.0.1
 _ZNK21ir_function_signature15clone_prototypeEPvP10hash_table@Base 9.0.1
 _ZNK21ir_function_signature5cloneEPvP10hash_table@Base 9.0.1
 _ZNK22ast_compound_statement5printEv@Base 9.0.1
 _ZNK23ast_case_statement_list5printEv@Base 9.0.1
 _ZNK23ast_function_definition5printEv@Base 9.0.1
 _ZNK23ast_iteration_statement5printEv@Base 9.0.1
 _ZNK23ast_selection_statement5printEv@Base 9.0.1
 _ZNK23ir_dereference_variable19constant_referencedEP10hash_tableRP11ir_constantRi@Base 9.0.1
 _ZNK23ir_dereference_variable19variable_referencedEv@Base 9.0.1
 _ZNK23ir_dereference_variable5cloneEPvP10hash_table@Base 9.0.1
 _ZNK24ast_expression_statement5printEv@Base 9.0.1
 _ZNK24ast_fully_specified_type14has_qualifiersEv@Base 9.0.1
 _ZNK24ast_fully_specified_type5printEv@Base 9.0.1
 _ZNK24ast_parameter_declarator5printEv@Base 9.0.1
 _ZNK5ir_if5cloneEPvP10hash_table@Base 9.0.1
 _ZNK5s_int6is_intEv@Base 9.0.1
 _ZNK6s_list7is_listEv@Base 9.0.1
 _ZNK7ir_call5cloneEPvP10hash_table@Base 9.0.1
 _ZNK7ir_loop5cloneEPvP10hash_table@Base 9.0.1
 _ZNK8ast_node5printEv@Base 9.0.1
 _ZNK8s_number9is_numberEv@Base 9.0.1
 _ZNK8s_symbol9is_symbolEv@Base 9.0.1
 _ZNK9glsl_type10field_typeEPKc@Base 9.0.1
 _ZNK9glsl_type11column_typeEv@Base 9.0.1
 _ZNK9glsl_type11field_indexEPKc@Base 9.0.1
 _ZNK9glsl_type11std140_sizeEb@Base 9.0.1
 _ZNK9glsl_type13get_base_typeEv@Base 9.0.1
 _ZNK9glsl_type13sampler_indexEv@Base 9.0.1
 _ZNK9glsl_type15component_slotsEv@Base 9.0.1
 _ZNK9glsl_type15get_scalar_typeEv@Base 9.0.1
 _ZNK9glsl_type16contains_samplerEv@Base 9.0.1
 _ZNK9glsl_type21std140_base_alignmentEb@Base 9.0.1
 _ZNK9glsl_type25can_implicitly_convert_toEPKS_@Base 9.0.1
 _ZNK9glsl_type8row_typeEv@Base 9.0.1
 _ZNK9ir_return5cloneEPvP10hash_table@Base 9.0.1
 _ZNK9ir_rvalue15is_negative_oneEv@Base 9.0.1
 _ZNK9ir_rvalue19variable_referencedEv@Base 9.0.1
 _ZNK9ir_rvalue5cloneEPvP10hash_table@Base 9.0.1
 _ZNK9ir_rvalue6is_oneEv@Base 9.0.1
 _ZNK9ir_rvalue7is_zeroEv@Base 9.0.1
 _ZNK9ir_rvalue8is_basisEv@Base 9.0.1
 _ZNK9ir_rvalue9is_lvalueEv@Base 9.0.1
 _ZTI10ir_discard@Base 9.0.1
 _ZTI10ir_swizzle@Base 9.0.1
 _ZTI10ir_texture@Base 9.0.1
 _ZTI10ir_visitor@Base 9.0.1
 _ZTI11examine_rhs@Base 9.0.1
 _ZTI11ir_constant@Base 9.0.1
 _ZTI11ir_function@Base 9.0.1
 _ZTI11ir_validate@Base 9.0.1
 _ZTI11ir_variable@Base 9.0.1
 _ZTI12ast_function@Base 9.0.1
 _ZTI12ir_loop_jump@Base 9.0.1
 _ZTI12s_expression@Base 9.0.1
 _ZTI13ir_assignment@Base 9.0.1
 _ZTI13ir_expression@Base 9.0.1
 _ZTI13loop_analysis@Base 9.0.1
 _ZTI14ast_case_label@Base 9.0.1
 _ZTI14ast_expression@Base 9.0.1
 _ZTI14deref_replacer@Base 9.0.1
 _ZTI14ir_dereference@Base 9.0.1
 _ZTI14ir_instruction@Base 9.0.1
 _ZTI15ast_declaration@Base 9.0.1
 _ZTI15ast_switch_body@Base 9.0.1
 _ZTI16get_sampler_name@Base 9.0.1
 _ZTI16ir_print_visitor@Base 9.0.1
 _ZTI17ast_uniform_block@Base 9.0.1
 _ZTI17call_link_visitor@Base 9.0.1
 _ZTI17ir_rvalue_visitor@Base 9.0.1
 _ZTI17loop_unroll_count@Base 9.0.1
 _ZTI18ast_case_statement@Base 9.0.1
 _ZTI18ast_expression_bin@Base 9.0.1
 _ZTI18ast_jump_statement@Base 9.0.1
 _ZTI18ast_type_specifier@Base 9.0.1
 _ZTI18count_uniform_size@Base 9.0.1
 _ZTI18find_deref_visitor@Base 9.0.1
 _ZTI18ir_to_mesa_visitor@Base 9.0.1
 _ZTI19ast_case_label_list@Base 9.0.1
 _ZTI19ast_declarator_list@Base 9.0.1
 _ZTI19find_variable_index@Base 9.0.1
 _ZTI19loop_unroll_visitor@Base 9.0.1
 _ZTI19lower_noise_visitor@Base 9.0.1
 _ZTI19output_read_remover@Base 9.0.1
 _ZTI20array_sizing_visitor@Base 9.0.1
 _ZTI20ast_struct_specifier@Base 9.0.1
 _ZTI20ast_switch_statement@Base 9.0.1
 _ZTI20ir_dereference_array@Base 9.0.1
 _ZTI20loop_control_visitor@Base 9.0.1
 _ZTI20lower_vector_visitor@Base 9.0.1
 _ZTI21add_uniform_to_shader@Base 9.0.1
 _ZTI21fixup_ir_call_visitor@Base 9.0.1
 _ZTI21has_recursion_visitor@Base 9.0.1
 _ZTI21ir_dereference_record@Base 9.0.1
 _ZTI21ir_function_signature@Base 9.0.1
 _ZTI21lower_discard_visitor@Base 9.0.1
 _ZTI21uniform_field_visitor@Base 9.0.1
 _ZTI22ast_compound_statement@Base 9.0.1
 _ZTI22ir_lower_jumps_visitor@Base 9.0.1
 _ZTI22ir_rvalue_base_visitor@Base 9.0.1
 _ZTI23ast_case_statement_list@Base 9.0.1
 _ZTI23ast_function_definition@Base 9.0.1
 _ZTI23ast_function_expression@Base 9.0.1
 _ZTI23ast_iteration_statement@Base 9.0.1
 _ZTI23ast_selection_statement@Base 9.0.1
 _ZTI23find_assignment_visitor@Base 9.0.1
 _ZTI23ir_control_flow_visitor@Base 9.0.1
 _ZTI23ir_dereference_variable@Base 9.0.1
 _ZTI23ir_hierarchical_visitor@Base 9.0.1
 _ZTI23ir_rvalue_enter_visitor@Base 9.0.1
 _ZTI24ast_expression_statement@Base 9.0.1
 _ZTI24ast_fully_specified_type@Base 9.0.1
 _ZTI24ast_parameter_declarator@Base 9.0.1
 _ZTI24import_prototype_visitor@Base 9.0.1
 _ZTI24ir_mat_op_to_vec_visitor@Base 9.0.1
 _ZTI26ir_array_reference_visitor@Base 9.0.1
 _ZTI26ir_array_splitting_visitor@Base 9.0.1
 _ZTI26lower_discard_flow_visitor@Base 9.0.1
 _ZTI26lower_instructions_visitor@Base 9.0.1
 _ZTI26parcel_out_uniform_storage@Base 9.0.1
 _ZTI27lower_clip_distance_visitor@Base 9.0.1
 _ZTI28ir_if_to_cond_assign_visitor@Base 9.0.1
 _ZTI28ir_variable_refcount_visitor@Base 9.0.1
 _ZTI29ir_set_program_inouts_visitor@Base 9.0.1
 _ZTI30ir_function_can_inline_visitor@Base 9.0.1
 _ZTI30ir_sampler_replacement_visitor@Base 9.0.1
 _ZTI31ir_vec_index_to_swizzle_visitor@Base 9.0.1
 _ZTI32ir_expression_flattening_visitor@Base 9.0.1
 _ZTI32lower_texture_projection_visitor@Base 9.0.1
 _ZTI35ir_vec_index_to_cond_assign_visitor@Base 9.0.1
 _ZTI37variable_index_to_cond_assign_visitor@Base 9.0.1
 _ZTI5ir_if@Base 9.0.1
 _ZTI5s_int@Base 9.0.1
 _ZTI6s_list@Base 9.0.1
 _ZTI7ir_call@Base 9.0.1
 _ZTI7ir_jump@Base 9.0.1
 _ZTI7ir_loop@Base 9.0.1
 _ZTI7s_float@Base 9.0.1
 _ZTI8ast_node@Base 9.0.1
 _ZTI8s_number@Base 9.0.1
 _ZTI8s_symbol@Base 9.0.1
 _ZTI9exec_node@Base 9.0.1
 _ZTI9ir_return@Base 9.0.1
 _ZTI9ir_rvalue@Base 9.0.1
 _ZTS10ir_discard@Base 9.0.1
 _ZTS10ir_swizzle@Base 9.0.1
 _ZTS10ir_texture@Base 9.0.1
 _ZTS10ir_visitor@Base 9.0.1
 _ZTS11examine_rhs@Base 9.0.1
 _ZTS11ir_constant@Base 9.0.1
 _ZTS11ir_function@Base 9.0.1
 _ZTS11ir_validate@Base 9.0.1
 _ZTS11ir_variable@Base 9.0.1
 _ZTS12ast_function@Base 9.0.1
 _ZTS12ir_loop_jump@Base 9.0.1
 _ZTS12s_expression@Base 9.0.1
 _ZTS13ir_assignment@Base 9.0.1
 _ZTS13ir_expression@Base 9.0.1
 _ZTS13loop_analysis@Base 9.0.1
 _ZTS14ast_case_label@Base 9.0.1
 _ZTS14ast_expression@Base 9.0.1
 _ZTS14deref_replacer@Base 9.0.1
 _ZTS14ir_dereference@Base 9.0.1
 _ZTS14ir_instruction@Base 9.0.1
 _ZTS15ast_declaration@Base 9.0.1
 _ZTS15ast_switch_body@Base 9.0.1
 _ZTS16get_sampler_name@Base 9.0.1
 _ZTS16ir_print_visitor@Base 9.0.1
 _ZTS17ast_uniform_block@Base 9.0.1
 _ZTS17call_link_visitor@Base 9.0.1
 _ZTS17ir_rvalue_visitor@Base 9.0.1
 _ZTS17loop_unroll_count@Base 9.0.1
 _ZTS18ast_case_statement@Base 9.0.1
 _ZTS18ast_expression_bin@Base 9.0.1
 _ZTS18ast_jump_statement@Base 9.0.1
 _ZTS18ast_type_specifier@Base 9.0.1
 _ZTS18count_uniform_size@Base 9.0.1
 _ZTS18find_deref_visitor@Base 9.0.1
 _ZTS18ir_to_mesa_visitor@Base 9.0.1
 _ZTS19ast_case_label_list@Base 9.0.1
 _ZTS19ast_declarator_list@Base 9.0.1
 _ZTS19find_variable_index@Base 9.0.1
 _ZTS19loop_unroll_visitor@Base 9.0.1
 _ZTS19lower_noise_visitor@Base 9.0.1
 _ZTS19output_read_remover@Base 9.0.1
 _ZTS20array_sizing_visitor@Base 9.0.1
 _ZTS20ast_struct_specifier@Base 9.0.1
 _ZTS20ast_switch_statement@Base 9.0.1
 _ZTS20ir_dereference_array@Base 9.0.1
 _ZTS20loop_control_visitor@Base 9.0.1
 _ZTS20lower_vector_visitor@Base 9.0.1
 _ZTS21add_uniform_to_shader@Base 9.0.1
 _ZTS21fixup_ir_call_visitor@Base 9.0.1
 _ZTS21has_recursion_visitor@Base 9.0.1
 _ZTS21ir_dereference_record@Base 9.0.1
 _ZTS21ir_function_signature@Base 9.0.1
 _ZTS21lower_discard_visitor@Base 9.0.1
 _ZTS21uniform_field_visitor@Base 9.0.1
 _ZTS22ast_compound_statement@Base 9.0.1
 _ZTS22ir_lower_jumps_visitor@Base 9.0.1
 _ZTS22ir_rvalue_base_visitor@Base 9.0.1
 _ZTS23ast_case_statement_list@Base 9.0.1
 _ZTS23ast_function_definition@Base 9.0.1
 _ZTS23ast_function_expression@Base 9.0.1
 _ZTS23ast_iteration_statement@Base 9.0.1
 _ZTS23ast_selection_statement@Base 9.0.1
 _ZTS23find_assignment_visitor@Base 9.0.1
 _ZTS23ir_control_flow_visitor@Base 9.0.1
 _ZTS23ir_dereference_variable@Base 9.0.1
 _ZTS23ir_hierarchical_visitor@Base 9.0.1
 _ZTS23ir_rvalue_enter_visitor@Base 9.0.1
 _ZTS24ast_expression_statement@Base 9.0.1
 _ZTS24ast_fully_specified_type@Base 9.0.1
 _ZTS24ast_parameter_declarator@Base 9.0.1
 _ZTS24import_prototype_visitor@Base 9.0.1
 _ZTS24ir_mat_op_to_vec_visitor@Base 9.0.1
 _ZTS26ir_array_reference_visitor@Base 9.0.1
 _ZTS26ir_array_splitting_visitor@Base 9.0.1
 _ZTS26lower_discard_flow_visitor@Base 9.0.1
 _ZTS26lower_instructions_visitor@Base 9.0.1
 _ZTS26parcel_out_uniform_storage@Base 9.0.1
 _ZTS27lower_clip_distance_visitor@Base 9.0.1
 _ZTS28ir_if_to_cond_assign_visitor@Base 9.0.1
 _ZTS28ir_variable_refcount_visitor@Base 9.0.1
 _ZTS29ir_set_program_inouts_visitor@Base 9.0.1
 _ZTS30ir_function_can_inline_visitor@Base 9.0.1
 _ZTS30ir_sampler_replacement_visitor@Base 9.0.1
 _ZTS31ir_vec_index_to_swizzle_visitor@Base 9.0.1
 _ZTS32ir_expression_flattening_visitor@Base 9.0.1
 _ZTS32lower_texture_projection_visitor@Base 9.0.1
 _ZTS35ir_vec_index_to_cond_assign_visitor@Base 9.0.1
 _ZTS37variable_index_to_cond_assign_visitor@Base 9.0.1
 _ZTS5ir_if@Base 9.0.1
 _ZTS5s_int@Base 9.0.1
 _ZTS6s_list@Base 9.0.1
 _ZTS7ir_call@Base 9.0.1
 _ZTS7ir_jump@Base 9.0.1
 _ZTS7ir_loop@Base 9.0.1
 _ZTS7s_float@Base 9.0.1
 _ZTS8ast_node@Base 9.0.1
 _ZTS8s_number@Base 9.0.1
 _ZTS8s_symbol@Base 9.0.1
 _ZTS9exec_node@Base 9.0.1
 _ZTS9ir_return@Base 9.0.1
 _ZTS9ir_rvalue@Base 9.0.1
 _ZTV10ir_discard@Base 9.0.1
 _ZTV10ir_swizzle@Base 9.0.1
 _ZTV10ir_texture@Base 9.0.1
 _ZTV10ir_visitor@Base 9.0.1
 _ZTV11examine_rhs@Base 9.0.1
 _ZTV11ir_constant@Base 9.0.1
 _ZTV11ir_function@Base 9.0.1
 _ZTV11ir_validate@Base 9.0.1
 _ZTV11ir_variable@Base 9.0.1
 _ZTV12ast_function@Base 9.0.1
 _ZTV12ir_loop_jump@Base 9.0.1
 _ZTV12s_expression@Base 9.0.1
 _ZTV13ir_assignment@Base 9.0.1
 _ZTV13ir_expression@Base 9.0.1
 _ZTV13loop_analysis@Base 9.0.1
 _ZTV14ast_case_label@Base 9.0.1
 _ZTV14ast_expression@Base 9.0.1
 _ZTV14deref_replacer@Base 9.0.1
 _ZTV14ir_dereference@Base 9.0.1
 _ZTV14ir_instruction@Base 9.0.1
 _ZTV15ast_declaration@Base 9.0.1
 _ZTV15ast_switch_body@Base 9.0.1
 _ZTV16get_sampler_name@Base 9.0.1
 _ZTV16ir_print_visitor@Base 9.0.1
 _ZTV17ast_uniform_block@Base 9.0.1
 _ZTV17call_link_visitor@Base 9.0.1
 _ZTV17ir_rvalue_visitor@Base 9.0.1
 _ZTV17loop_unroll_count@Base 9.0.1
 _ZTV18ast_case_statement@Base 9.0.1
 _ZTV18ast_expression_bin@Base 9.0.1
 _ZTV18ast_jump_statement@Base 9.0.1
 _ZTV18ast_type_specifier@Base 9.0.1
 _ZTV18count_uniform_size@Base 9.0.1
 _ZTV18find_deref_visitor@Base 9.0.1
 _ZTV18ir_to_mesa_visitor@Base 9.0.1
 _ZTV19ast_case_label_list@Base 9.0.1
 _ZTV19ast_declarator_list@Base 9.0.1
 _ZTV19find_variable_index@Base 9.0.1
 _ZTV19loop_unroll_visitor@Base 9.0.1
 _ZTV19lower_noise_visitor@Base 9.0.1
 _ZTV19output_read_remover@Base 9.0.1
 _ZTV20array_sizing_visitor@Base 9.0.1
 _ZTV20ast_struct_specifier@Base 9.0.1
 _ZTV20ast_switch_statement@Base 9.0.1
 _ZTV20ir_dereference_array@Base 9.0.1
 _ZTV20loop_control_visitor@Base 9.0.1
 _ZTV20lower_vector_visitor@Base 9.0.1
 _ZTV21add_uniform_to_shader@Base 9.0.1
 _ZTV21fixup_ir_call_visitor@Base 9.0.1
 _ZTV21has_recursion_visitor@Base 9.0.1
 _ZTV21ir_dereference_record@Base 9.0.1
 _ZTV21ir_function_signature@Base 9.0.1
 _ZTV21lower_discard_visitor@Base 9.0.1
 _ZTV21uniform_field_visitor@Base 9.0.1
 _ZTV22ast_compound_statement@Base 9.0.1
 _ZTV22ir_lower_jumps_visitor@Base 9.0.1
 _ZTV22ir_rvalue_base_visitor@Base 9.0.1
 _ZTV23ast_case_statement_list@Base 9.0.1
 _ZTV23ast_function_definition@Base 9.0.1
 _ZTV23ast_function_expression@Base 9.0.1
 _ZTV23ast_iteration_statement@Base 9.0.1
 _ZTV23ast_selection_statement@Base 9.0.1
 _ZTV23find_assignment_visitor@Base 9.0.1
 _ZTV23ir_control_flow_visitor@Base 9.0.1
 _ZTV23ir_dereference_variable@Base 9.0.1
 _ZTV23ir_hierarchical_visitor@Base 9.0.1
 _ZTV23ir_rvalue_enter_visitor@Base 9.0.1
 _ZTV24ast_expression_statement@Base 9.0.1
 _ZTV24ast_fully_specified_type@Base 9.0.1
 _ZTV24ast_parameter_declarator@Base 9.0.1
 _ZTV24import_prototype_visitor@Base 9.0.1
 _ZTV24ir_mat_op_to_vec_visitor@Base 9.0.1
 _ZTV26ir_array_reference_visitor@Base 9.0.1
 _ZTV26ir_array_splitting_visitor@Base 9.0.1
 _ZTV26lower_discard_flow_visitor@Base 9.0.1
 _ZTV26lower_instructions_visitor@Base 9.0.1
 _ZTV26parcel_out_uniform_storage@Base 9.0.1
 _ZTV27lower_clip_distance_visitor@Base 9.0.1
 _ZTV28ir_if_to_cond_assign_visitor@Base 9.0.1
 _ZTV28ir_variable_refcount_visitor@Base 9.0.1
 _ZTV29ir_set_program_inouts_visitor@Base 9.0.1
 _ZTV30ir_function_can_inline_visitor@Base 9.0.1
 _ZTV30ir_sampler_replacement_visitor@Base 9.0.1
 _ZTV31ir_vec_index_to_swizzle_visitor@Base 9.0.1
 _ZTV32ir_expression_flattening_visitor@Base 9.0.1
 _ZTV32lower_texture_projection_visitor@Base 9.0.1
 _ZTV35ir_vec_index_to_cond_assign_visitor@Base 9.0.1
 _ZTV37variable_index_to_cond_assign_visitor@Base 9.0.1
 _ZTV5ir_if@Base 9.0.1
 _ZTV5s_int@Base 9.0.1
 _ZTV6s_list@Base 9.0.1
 _ZTV7ir_call@Base 9.0.1
 _ZTV7ir_jump@Base 9.0.1
 _ZTV7ir_loop@Base 9.0.1
 _ZTV7s_float@Base 9.0.1
 _ZTV8ast_node@Base 9.0.1
 _ZTV8s_number@Base 9.0.1
 _ZTV8s_symbol@Base 9.0.1
 _ZTV9ir_return@Base 9.0.1
 _ZTV9ir_rvalue@Base 9.0.1
 _ae_ArrayElement@Base 9.0.1
 _ae_create_context@Base 9.0.1
 _ae_destroy_context@Base 9.0.1
 _ae_invalidate_state@Base 9.0.1
 _ae_map_vbos@Base 9.0.1
 _ae_unmap_vbos@Base 9.0.1
 _es_Color4f@Base 9.0.1
 _es_Materialf@Base 9.0.1
 _es_Materialfv@Base 9.0.1
 _es_MultiTexCoord4f@Base 9.0.1
 _es_Normal3f@Base 9.0.1
 _es_QueryMatrixxOES@Base 9.0.1
 _es_RenderbufferStorageEXT@Base 9.0.1
 _es_VertexAttrib1f@Base 9.0.1
 _es_VertexAttrib1fv@Base 9.0.1
 _es_VertexAttrib2f@Base 9.0.1
 _es_VertexAttrib2fv@Base 9.0.1
 _es_VertexAttrib3f@Base 9.0.1
 _es_VertexAttrib3fv@Base 9.0.1
 _es_VertexAttrib4f@Base 9.0.1
 _es_VertexAttrib4fv@Base 9.0.1
 _math_de_casteljau_surf@Base 9.0.1
 _math_horner_bezier_curve@Base 9.0.1
 _math_horner_bezier_surf@Base 9.0.1
 _math_init_eval@Base 9.0.1
 _math_init_transformation@Base 9.0.1
 _math_init_translate@Base 9.0.1
 _math_matrix_analyse@Base 9.0.1
 _math_matrix_copy@Base 9.0.1
 _math_matrix_ctr@Base 9.0.1
 _math_matrix_dtr@Base 9.0.1
 _math_matrix_frustum@Base 9.0.1
 _math_matrix_has_rotation@Base 9.0.1
 _math_matrix_is_dirty@Base 9.0.1
 _math_matrix_is_general_scale@Base 9.0.1
 _math_matrix_is_length_preserving@Base 9.0.1
 _math_matrix_loadf@Base 9.0.1
 _math_matrix_mul_floats@Base 9.0.1
 _math_matrix_mul_matrix@Base 9.0.1
 _math_matrix_ortho@Base 9.0.1
 _math_matrix_print@Base 9.0.1
 _math_matrix_rotate@Base 9.0.1
 _math_matrix_scale@Base 9.0.1
 _math_matrix_set_identity@Base 9.0.1
 _math_matrix_translate@Base 9.0.1
 _math_matrix_viewport@Base 9.0.1
 _math_trans_1f@Base 9.0.1
 _math_trans_1ub@Base 9.0.1
 _math_trans_1ui@Base 9.0.1
 _math_trans_3fn@Base 9.0.1
 _math_trans_4chan@Base 9.0.1
 _math_trans_4f@Base 9.0.1
 _math_trans_4fn@Base 9.0.1
 _math_trans_4ub@Base 9.0.1
 _math_trans_4us@Base 9.0.1
 _math_transposed@Base 9.0.1
 _math_transposef@Base 9.0.1
 _math_transposefd@Base 9.0.1
 _mesa_ARBfp_parse_option@Base 9.0.1
 _mesa_ARBvp_parse_option@Base 9.0.1
 _mesa_ActiveProgramEXT@Base 9.0.1
 _mesa_ActiveStencilFaceEXT@Base 9.0.1
 _mesa_ActiveTextureARB@Base 9.0.1
 _mesa_AlphaFragmentOp1ATI@Base 9.0.1
 _mesa_AlphaFragmentOp2ATI@Base 9.0.1
 _mesa_AlphaFragmentOp3ATI@Base 9.0.1
 _mesa_AlphaFunc@Base 9.0.1
 _mesa_AreProgramsResidentNV@Base 9.0.1
 _mesa_AreTexturesResident@Base 9.0.1
 _mesa_AttachObjectARB@Base 9.0.1
 _mesa_AttachShader@Base 9.0.1
 _mesa_BeginConditionalRender@Base 9.0.1
 _mesa_BeginFragmentShaderATI@Base 9.0.1
 _mesa_BeginTransformFeedback@Base 9.0.1
 _mesa_BindAttribLocationARB@Base 9.0.1
 _mesa_BindBufferARB@Base 9.0.1
 _mesa_BindBufferBase@Base 9.0.1
 _mesa_BindBufferOffsetEXT@Base 9.0.1
 _mesa_BindBufferRange@Base 9.0.1
 _mesa_BindFragDataLocation@Base 9.0.1
 _mesa_BindFragDataLocationIndexed@Base 9.0.1
 _mesa_BindFragmentShaderATI@Base 9.0.1
 _mesa_BindFramebufferEXT@Base 9.0.1
 _mesa_BindProgram@Base 9.0.1
 _mesa_BindRenderbufferEXT@Base 9.0.1
 _mesa_BindSampler@Base 9.0.1
 _mesa_BindTexture@Base 9.0.1
 _mesa_BindTransformFeedback@Base 9.0.1
 _mesa_BindVertexArray@Base 9.0.1
 _mesa_BindVertexArrayAPPLE@Base 9.0.1
 _mesa_BlendColor@Base 9.0.1
 _mesa_BlendEquation@Base 9.0.1
 _mesa_BlendEquationSeparateEXT@Base 9.0.1
 _mesa_BlendEquationSeparatei@Base 9.0.1
 _mesa_BlendEquationi@Base 9.0.1
 _mesa_BlendFunc@Base 9.0.1
 _mesa_BlendFuncSeparateEXT@Base 9.0.1
 _mesa_BlendFuncSeparatei@Base 9.0.1
 _mesa_BlendFunci@Base 9.0.1
 _mesa_BlitFramebufferEXT@Base 9.0.1
 _mesa_BufferDataARB@Base 9.0.1
 _mesa_BufferSubDataARB@Base 9.0.1
 _mesa_CallList@Base 9.0.1
 _mesa_CallLists@Base 9.0.1
 _mesa_CheckFramebufferStatusEXT@Base 9.0.1
 _mesa_ClampColorARB@Base 9.0.1
 _mesa_Clear@Base 9.0.1
 _mesa_ClearAccum@Base 9.0.1
 _mesa_ClearBufferfi@Base 9.0.1
 _mesa_ClearBufferfv@Base 9.0.1
 _mesa_ClearBufferiv@Base 9.0.1
 _mesa_ClearBufferuiv@Base 9.0.1
 _mesa_ClearColor@Base 9.0.1
 _mesa_ClearColorIiEXT@Base 9.0.1
 _mesa_ClearColorIuiEXT@Base 9.0.1
 _mesa_ClearDepth@Base 9.0.1
 _mesa_ClearDepthf@Base 9.0.1
 _mesa_ClearIndex@Base 9.0.1
 _mesa_ClearStencil@Base 9.0.1
 _mesa_ClientActiveTextureARB@Base 9.0.1
 _mesa_ClientWaitSync@Base 9.0.1
 _mesa_ClipPlane@Base 9.0.1
 _mesa_ColorFragmentOp1ATI@Base 9.0.1
 _mesa_ColorFragmentOp2ATI@Base 9.0.1
 _mesa_ColorFragmentOp3ATI@Base 9.0.1
 _mesa_ColorMask@Base 9.0.1
 _mesa_ColorMaskIndexed@Base 9.0.1
 _mesa_ColorMaterial@Base 9.0.1
 _mesa_ColorPointer@Base 9.0.1
 _mesa_ColorPointerEXT@Base 9.0.1
 _mesa_ColorSubTable@Base 9.0.1
 _mesa_ColorTable@Base 9.0.1
 _mesa_CompileShaderARB@Base 9.0.1
 _mesa_CompressedTexImage1DARB@Base 9.0.1
 _mesa_CompressedTexImage2DARB@Base 9.0.1
 _mesa_CompressedTexImage3DARB@Base 9.0.1
 _mesa_CompressedTexSubImage1DARB@Base 9.0.1
 _mesa_CompressedTexSubImage2DARB@Base 9.0.1
 _mesa_CompressedTexSubImage3DARB@Base 9.0.1
 _mesa_CopyBufferSubData@Base 9.0.1
 _mesa_CopyTexImage1D@Base 9.0.1
 _mesa_CopyTexImage2D@Base 9.0.1
 _mesa_CopyTexSubImage1D@Base 9.0.1
 _mesa_CopyTexSubImage2D@Base 9.0.1
 _mesa_CopyTexSubImage3D@Base 9.0.1
 _mesa_CreateProgram@Base 9.0.1
 _mesa_CreateProgramObjectARB@Base 9.0.1
 _mesa_CreateShader@Base 9.0.1
 _mesa_CreateShaderObjectARB@Base 9.0.1
 _mesa_CreateShaderProgramEXT@Base 9.0.1
 _mesa_CullFace@Base 9.0.1
 _mesa_DeleteBuffersARB@Base 9.0.1
 _mesa_DeleteFragmentShaderATI@Base 9.0.1
 _mesa_DeleteFramebuffersEXT@Base 9.0.1
 _mesa_DeleteHashTable@Base 9.0.1
 _mesa_DeleteObjectARB@Base 9.0.1
 _mesa_DeleteProgram@Base 9.0.1
 _mesa_DeletePrograms@Base 9.0.1
 _mesa_DeleteRenderbuffersEXT@Base 9.0.1
 _mesa_DeleteSamplers@Base 9.0.1
 _mesa_DeleteShader@Base 9.0.1
 _mesa_DeleteSync@Base 9.0.1
 _mesa_DeleteTextures@Base 9.0.1
 _mesa_DeleteTransformFeedbacks@Base 9.0.1
 _mesa_DeleteVertexArraysAPPLE@Base 9.0.1
 _mesa_DepthBoundsEXT@Base 9.0.1
 _mesa_DepthFunc@Base 9.0.1
 _mesa_DepthMask@Base 9.0.1
 _mesa_DepthRange@Base 9.0.1
 _mesa_DepthRangef@Base 9.0.1
 _mesa_DetachObjectARB@Base 9.0.1
 _mesa_DetachShader@Base 9.0.1
 _mesa_Disable@Base 9.0.1
 _mesa_DisableClientState@Base 9.0.1
 _mesa_DisableIndexed@Base 9.0.1
 _mesa_DisableVertexAttribArrayARB@Base 9.0.1
 _mesa_DrawArrays@Base 9.0.1
 _mesa_DrawBuffer@Base 9.0.1
 _mesa_DrawBuffersARB@Base 9.0.1
 _mesa_DrawElements@Base 9.0.1
 _mesa_DrawElementsBaseVertex@Base 9.0.1
 _mesa_DrawRangeElements@Base 9.0.1
 _mesa_DrawRangeElementsBaseVertex@Base 9.0.1
 _mesa_DrawTransformFeedback@Base 9.0.1
 _mesa_DummyProgram@Base 9.0.1
 _mesa_EGLImageTargetRenderbufferStorageOES@Base 9.0.1
 _mesa_EGLImageTargetTexture2DOES@Base 9.0.1
 _mesa_EdgeFlagPointer@Base 9.0.1
 _mesa_EdgeFlagPointerEXT@Base 9.0.1
 _mesa_Enable@Base 9.0.1
 _mesa_EnableClientState@Base 9.0.1
 _mesa_EnableIndexed@Base 9.0.1
 _mesa_EnableVertexAttribArrayARB@Base 9.0.1
 _mesa_EndConditionalRender@Base 9.0.1
 _mesa_EndFragmentShaderATI@Base 9.0.1
 _mesa_EndTransformFeedback@Base 9.0.1
 _mesa_ExecuteProgramNV@Base 9.0.1
 _mesa_FenceSync@Base 9.0.1
 _mesa_Finish@Base 9.0.1
 _mesa_Flush@Base 9.0.1
 _mesa_FlushMappedBufferRange@Base 9.0.1
 _mesa_FogCoordPointerEXT@Base 9.0.1
 _mesa_Fogf@Base 9.0.1
 _mesa_Fogfv@Base 9.0.1
 _mesa_Fogi@Base 9.0.1
 _mesa_Fogiv@Base 9.0.1
 _mesa_FramebufferRenderbufferEXT@Base 9.0.1
 _mesa_FramebufferTexture1DEXT@Base 9.0.1
 _mesa_FramebufferTexture2DEXT@Base 9.0.1
 _mesa_FramebufferTexture3DEXT@Base 9.0.1
 _mesa_FramebufferTextureARB@Base 9.0.1
 _mesa_FramebufferTextureFaceARB@Base 9.0.1
 _mesa_FramebufferTextureLayerEXT@Base 9.0.1
 _mesa_FrontFace@Base 9.0.1
 _mesa_Frustum@Base 9.0.1
 _mesa_GenBuffersARB@Base 9.0.1
 _mesa_GenFragmentShadersATI@Base 9.0.1
 _mesa_GenFramebuffersEXT@Base 9.0.1
 _mesa_GenPrograms@Base 9.0.1
 _mesa_GenRenderbuffersEXT@Base 9.0.1
 _mesa_GenSamplers@Base 9.0.1
 _mesa_GenTextures@Base 9.0.1
 _mesa_GenTransformFeedbacks@Base 9.0.1
 _mesa_GenVertexArrays@Base 9.0.1
 _mesa_GenVertexArraysAPPLE@Base 9.0.1
 _mesa_GenerateMipmapEXT@Base 9.0.1
 _mesa_GetActiveAttribARB@Base 9.0.1
 _mesa_GetActiveUniformARB@Base 9.0.1
 _mesa_GetActiveUniformsiv@Base 9.0.1
 _mesa_GetAttachedObjectsARB@Base 9.0.1
 _mesa_GetAttachedShaders@Base 9.0.1
 _mesa_GetAttribLocationARB@Base 9.0.1
 _mesa_GetBooleanIndexedv@Base 9.0.1
 _mesa_GetBooleanv@Base 9.0.1
 _mesa_GetBufferParameteri64v@Base 9.0.1
 _mesa_GetBufferParameterivARB@Base 9.0.1
 _mesa_GetBufferPointervARB@Base 9.0.1
 _mesa_GetBufferSubDataARB@Base 9.0.1
 _mesa_GetClipPlane@Base 9.0.1
 _mesa_GetCompressedTexImageARB@Base 9.0.1
 _mesa_GetDoublev@Base 9.0.1
 _mesa_GetError@Base 9.0.1
 _mesa_GetFloatv@Base 9.0.1
 _mesa_GetFragDataIndex@Base 9.0.1
 _mesa_GetFragDataLocation@Base 9.0.1
 _mesa_GetFramebufferAttachmentParameterivEXT@Base 9.0.1
 _mesa_GetGraphicsResetStatusARB@Base 9.0.1
 _mesa_GetHandleARB@Base 9.0.1
 _mesa_GetInfoLogARB@Base 9.0.1
 _mesa_GetInteger64Indexedv@Base 9.0.1
 _mesa_GetInteger64v@Base 9.0.1
 _mesa_GetIntegerIndexedv@Base 9.0.1
 _mesa_GetIntegerv@Base 9.0.1
 _mesa_GetLightfv@Base 9.0.1
 _mesa_GetLightiv@Base 9.0.1
 _mesa_GetMaterialfv@Base 9.0.1
 _mesa_GetMaterialiv@Base 9.0.1
 _mesa_GetObjectParameterfvARB@Base 9.0.1
 _mesa_GetObjectParameterivAPPLE@Base 9.0.1
 _mesa_GetObjectParameterivARB@Base 9.0.1
 _mesa_GetPointerv@Base 9.0.1
 _mesa_GetPolygonStipple@Base 9.0.1
 _mesa_GetProgramEnvParameterdvARB@Base 9.0.1
 _mesa_GetProgramEnvParameterfvARB@Base 9.0.1
 _mesa_GetProgramInfoLog@Base 9.0.1
 _mesa_GetProgramLocalParameterdvARB@Base 9.0.1
 _mesa_GetProgramLocalParameterfvARB@Base 9.0.1
 _mesa_GetProgramNamedParameterdvNV@Base 9.0.1
 _mesa_GetProgramNamedParameterfvNV@Base 9.0.1
 _mesa_GetProgramParameterdvNV@Base 9.0.1
 _mesa_GetProgramParameterfvNV@Base 9.0.1
 _mesa_GetProgramStringARB@Base 9.0.1
 _mesa_GetProgramStringNV@Base 9.0.1
 _mesa_GetProgramiv@Base 9.0.1
 _mesa_GetProgramivARB@Base 9.0.1
 _mesa_GetProgramivNV@Base 9.0.1
 _mesa_GetRenderbufferParameterivEXT@Base 9.0.1
 _mesa_GetShaderInfoLog@Base 9.0.1
 _mesa_GetShaderPrecisionFormat@Base 9.0.1
 _mesa_GetShaderSourceARB@Base 9.0.1
 _mesa_GetShaderiv@Base 9.0.1
 _mesa_GetString@Base 9.0.1
 _mesa_GetStringi@Base 9.0.1
 _mesa_GetSynciv@Base 9.0.1
 _mesa_GetTexBumpParameterfvATI@Base 9.0.1
 _mesa_GetTexBumpParameterivATI@Base 9.0.1
 _mesa_GetTexEnvfv@Base 9.0.1
 _mesa_GetTexEnviv@Base 9.0.1
 _mesa_GetTexGenfv@Base 9.0.1
 _mesa_GetTexGeniv@Base 9.0.1
 _mesa_GetTexImage@Base 9.0.1
 _mesa_GetTexLevelParameterfv@Base 9.0.1
 _mesa_GetTexLevelParameteriv@Base 9.0.1
 _mesa_GetTexParameterIiv@Base 9.0.1
 _mesa_GetTexParameterIuiv@Base 9.0.1
 _mesa_GetTexParameterfv@Base 9.0.1
 _mesa_GetTexParameteriv@Base 9.0.1
 _mesa_GetTrackMatrixivNV@Base 9.0.1
 _mesa_GetTransformFeedbackVarying@Base 9.0.1
 _mesa_GetUniformLocationARB@Base 9.0.1
 _mesa_GetUniformdv@Base 9.0.1
 _mesa_GetUniformfvARB@Base 9.0.1
 _mesa_GetUniformivARB@Base 9.0.1
 _mesa_GetUniformuiv@Base 9.0.1
 _mesa_GetVertexAttribIiv@Base 9.0.1
 _mesa_GetVertexAttribIuiv@Base 9.0.1
 _mesa_GetVertexAttribPointervARB@Base 9.0.1
 _mesa_GetVertexAttribPointervNV@Base 9.0.1
 _mesa_GetVertexAttribdvARB@Base 9.0.1
 _mesa_GetVertexAttribdvNV@Base 9.0.1
 _mesa_GetVertexAttribfvARB@Base 9.0.1
 _mesa_GetVertexAttribfvNV@Base 9.0.1
 _mesa_GetVertexAttribivARB@Base 9.0.1
 _mesa_GetVertexAttribivNV@Base 9.0.1
 _mesa_GetnCompressedTexImageARB@Base 9.0.1
 _mesa_GetnPolygonStippleARB@Base 9.0.1
 _mesa_GetnTexImageARB@Base 9.0.1
 _mesa_GetnUniformdvARB@Base 9.0.1
 _mesa_GetnUniformfvARB@Base 9.0.1
 _mesa_GetnUniformivARB@Base 9.0.1
 _mesa_GetnUniformuivARB@Base 9.0.1
 _mesa_HashDeleteAll@Base 9.0.1
 _mesa_HashFindFreeKeyBlock@Base 9.0.1
 _mesa_HashFirstEntry@Base 9.0.1
 _mesa_HashInsert@Base 9.0.1
 _mesa_HashLookup@Base 9.0.1
 _mesa_HashNextEntry@Base 9.0.1
 _mesa_HashNumEntries@Base 9.0.1
 _mesa_HashPrint@Base 9.0.1
 _mesa_HashRemove@Base 9.0.1
 _mesa_HashWalk@Base 9.0.1
 _mesa_Hint@Base 9.0.1
 _mesa_IndexMask@Base 9.0.1
 _mesa_IndexPointer@Base 9.0.1
 _mesa_IndexPointerEXT@Base 9.0.1
 _mesa_InterleavedArrays@Base 9.0.1
 _mesa_InvalidateFramebuffer@Base 9.0.1
 _mesa_InvalidateSubFramebuffer@Base 9.0.1
 _mesa_InvalidateTexImage@Base 9.0.1
 _mesa_InvalidateTexSubImage@Base 9.0.1
 _mesa_IsBufferARB@Base 9.0.1
 _mesa_IsEnabled@Base 9.0.1
 _mesa_IsEnabledIndexed@Base 9.0.1
 _mesa_IsFramebufferEXT@Base 9.0.1
 _mesa_IsProgram@Base 9.0.1
 _mesa_IsProgramARB@Base 9.0.1
 _mesa_IsRenderbufferEXT@Base 9.0.1
 _mesa_IsShader@Base 9.0.1
 _mesa_IsSync@Base 9.0.1
 _mesa_IsTexture@Base 9.0.1
 _mesa_IsTransformFeedback@Base 9.0.1
 _mesa_IsVertexArrayAPPLE@Base 9.0.1
 _mesa_LightModelf@Base 9.0.1
 _mesa_LightModelfv@Base 9.0.1
 _mesa_LightModeli@Base 9.0.1
 _mesa_LightModeliv@Base 9.0.1
 _mesa_Lightf@Base 9.0.1
 _mesa_Lightfv@Base 9.0.1
 _mesa_Lighti@Base 9.0.1
 _mesa_Lightiv@Base 9.0.1
 _mesa_LineStipple@Base 9.0.1
 _mesa_LineWidth@Base 9.0.1
 _mesa_LinkProgramARB@Base 9.0.1
 _mesa_LoadIdentity@Base 9.0.1
 _mesa_LoadMatrixd@Base 9.0.1
 _mesa_LoadMatrixf@Base 9.0.1
 _mesa_LoadProgramNV@Base 9.0.1
 _mesa_LoadTransposeMatrixdARB@Base 9.0.1
 _mesa_LoadTransposeMatrixfARB@Base 9.0.1
 _mesa_LockArraysEXT@Base 9.0.1
 _mesa_LogicOp@Base 9.0.1
 _mesa_MapBufferARB@Base 9.0.1
 _mesa_MapBufferRange@Base 9.0.1
 _mesa_MatrixMode@Base 9.0.1
 _mesa_MultMatrixd@Base 9.0.1
 _mesa_MultMatrixf@Base 9.0.1
 _mesa_MultTransposeMatrixdARB@Base 9.0.1
 _mesa_MultTransposeMatrixfARB@Base 9.0.1
 _mesa_MultiDrawArraysEXT@Base 9.0.1
 _mesa_MultiDrawElementsBaseVertex@Base 9.0.1
 _mesa_MultiDrawElementsEXT@Base 9.0.1
 _mesa_MultiModeDrawArraysIBM@Base 9.0.1
 _mesa_MultiModeDrawElementsIBM@Base 9.0.1
 _mesa_NewHashTable@Base 9.0.1
 _mesa_NormalPointer@Base 9.0.1
 _mesa_NormalPointerEXT@Base 9.0.1
 _mesa_ObjectPurgeableAPPLE@Base 9.0.1
 _mesa_ObjectUnpurgeableAPPLE@Base 9.0.1
 _mesa_Ortho@Base 9.0.1
 _mesa_PassTexCoordATI@Base 9.0.1
 _mesa_PauseTransformFeedback@Base 9.0.1
 _mesa_PixelStoref@Base 9.0.1
 _mesa_PixelStorei@Base 9.0.1
 _mesa_PixelTransferf@Base 9.0.1
 _mesa_PointParameterf@Base 9.0.1
 _mesa_PointParameterfv@Base 9.0.1
 _mesa_PointParameteri@Base 9.0.1
 _mesa_PointParameteriv@Base 9.0.1
 _mesa_PointSize@Base 9.0.1
 _mesa_PointSizePointer@Base 9.0.1
 _mesa_PolygonMode@Base 9.0.1
 _mesa_PolygonOffset@Base 9.0.1
 _mesa_PolygonOffsetEXT@Base 9.0.1
 _mesa_PolygonStipple@Base 9.0.1
 _mesa_PopAttrib@Base 9.0.1
 _mesa_PopClientAttrib@Base 9.0.1
 _mesa_PopMatrix@Base 9.0.1
 _mesa_PrimitiveRestartIndex@Base 9.0.1
 _mesa_PrioritizeTextures@Base 9.0.1
 _mesa_ProgramEnvParameter4dARB@Base 9.0.1
 _mesa_ProgramEnvParameter4dvARB@Base 9.0.1
 _mesa_ProgramEnvParameter4fARB@Base 9.0.1
 _mesa_ProgramEnvParameter4fvARB@Base 9.0.1
 _mesa_ProgramEnvParameters4fvEXT@Base 9.0.1
 _mesa_ProgramLocalParameter4dARB@Base 9.0.1
 _mesa_ProgramLocalParameter4dvARB@Base 9.0.1
 _mesa_ProgramLocalParameter4fARB@Base 9.0.1
 _mesa_ProgramLocalParameter4fvARB@Base 9.0.1
 _mesa_ProgramLocalParameters4fvEXT@Base 9.0.1
 _mesa_ProgramNamedParameter4dNV@Base 9.0.1
 _mesa_ProgramNamedParameter4dvNV@Base 9.0.1
 _mesa_ProgramNamedParameter4fNV@Base 9.0.1
 _mesa_ProgramNamedParameter4fvNV@Base 9.0.1
 _mesa_ProgramParameteriARB@Base 9.0.1
 _mesa_ProgramParameters4dvNV@Base 9.0.1
 _mesa_ProgramParameters4fvNV@Base 9.0.1
 _mesa_ProgramStringARB@Base 9.0.1
 _mesa_ProvokingVertexEXT@Base 9.0.1
 _mesa_PushAttrib@Base 9.0.1
 _mesa_PushClientAttrib@Base 9.0.1
 _mesa_PushMatrix@Base 9.0.1
 _mesa_ReadBuffer@Base 9.0.1
 _mesa_ReadPixels@Base 9.0.1
 _mesa_ReadnPixelsARB@Base 9.0.1
 _mesa_ReleaseShaderCompiler@Base 9.0.1
 _mesa_RenderMode@Base 9.0.1
 _mesa_RenderbufferStorageEXT@Base 9.0.1
 _mesa_RenderbufferStorageMultisample@Base 9.0.1
 _mesa_RequestResidentProgramsNV@Base 9.0.1
 _mesa_ResizeBuffersMESA@Base 9.0.1
 _mesa_ResumeTransformFeedback@Base 9.0.1
 _mesa_Rotated@Base 9.0.1
 _mesa_Rotatef@Base 9.0.1
 _mesa_SampleCoverageARB@Base 9.0.1
 _mesa_SampleMapATI@Base 9.0.1
 _mesa_SamplerParameteri@Base 9.0.1
 _mesa_Scaled@Base 9.0.1
 _mesa_Scalef@Base 9.0.1
 _mesa_Scissor@Base 9.0.1
 _mesa_SecondaryColorPointerEXT@Base 9.0.1
 _mesa_SetFragmentShaderConstantATI@Base 9.0.1
 _mesa_ShadeModel@Base 9.0.1
 _mesa_ShaderBinary@Base 9.0.1
 _mesa_ShaderSourceARB@Base 9.0.1
 _mesa_StencilFunc@Base 9.0.1
 _mesa_StencilFuncSeparate@Base 9.0.1
 _mesa_StencilFuncSeparateATI@Base 9.0.1
 _mesa_StencilMask@Base 9.0.1
 _mesa_StencilMaskSeparate@Base 9.0.1
 _mesa_StencilOp@Base 9.0.1
 _mesa_StencilOpSeparate@Base 9.0.1
 _mesa_TexBuffer@Base 9.0.1
 _mesa_TexBumpParameterfvATI@Base 9.0.1
 _mesa_TexBumpParameterivATI@Base 9.0.1
 _mesa_TexCoordPointer@Base 9.0.1
 _mesa_TexCoordPointerEXT@Base 9.0.1
 _mesa_TexEnvf@Base 9.0.1
 _mesa_TexEnvfv@Base 9.0.1
 _mesa_TexEnvi@Base 9.0.1
 _mesa_TexEnviv@Base 9.0.1
 _mesa_TexGenf@Base 9.0.1
 _mesa_TexGenfv@Base 9.0.1
 _mesa_TexGeni@Base 9.0.1
 _mesa_TexImage1D@Base 9.0.1
 _mesa_TexImage2D@Base 9.0.1
 _mesa_TexImage3D@Base 9.0.1
 _mesa_TexImage3DEXT@Base 9.0.1
 _mesa_TexParameterIiv@Base 9.0.1
 _mesa_TexParameterIuiv@Base 9.0.1
 _mesa_TexParameterf@Base 9.0.1
 _mesa_TexParameterfv@Base 9.0.1
 _mesa_TexParameteri@Base 9.0.1
 _mesa_TexParameteriv@Base 9.0.1
 _mesa_TexStorage1D@Base 9.0.1
 _mesa_TexStorage2D@Base 9.0.1
 _mesa_TexStorage3D@Base 9.0.1
 _mesa_TexSubImage1D@Base 9.0.1
 _mesa_TexSubImage2D@Base 9.0.1
 _mesa_TexSubImage3D@Base 9.0.1
 _mesa_TextureBarrierNV@Base 9.0.1
 _mesa_TextureStorage1DEXT@Base 9.0.1
 _mesa_TextureStorage2DEXT@Base 9.0.1
 _mesa_TextureStorage3DEXT@Base 9.0.1
 _mesa_TrackMatrixNV@Base 9.0.1
 _mesa_TransformFeedbackVaryings@Base 9.0.1
 _mesa_Translated@Base 9.0.1
 _mesa_Translatef@Base 9.0.1
 _mesa_Uniform1fARB@Base 9.0.1
 _mesa_Uniform1fvARB@Base 9.0.1
 _mesa_Uniform1iARB@Base 9.0.1
 _mesa_Uniform1ivARB@Base 9.0.1
 _mesa_Uniform1ui@Base 9.0.1
 _mesa_Uniform1uiv@Base 9.0.1
 _mesa_Uniform2fARB@Base 9.0.1
 _mesa_Uniform2fvARB@Base 9.0.1
 _mesa_Uniform2iARB@Base 9.0.1
 _mesa_Uniform2ivARB@Base 9.0.1
 _mesa_Uniform2ui@Base 9.0.1
 _mesa_Uniform2uiv@Base 9.0.1
 _mesa_Uniform3fARB@Base 9.0.1
 _mesa_Uniform3fvARB@Base 9.0.1
 _mesa_Uniform3iARB@Base 9.0.1
 _mesa_Uniform3ivARB@Base 9.0.1
 _mesa_Uniform3ui@Base 9.0.1
 _mesa_Uniform3uiv@Base 9.0.1
 _mesa_Uniform4fARB@Base 9.0.1
 _mesa_Uniform4fvARB@Base 9.0.1
 _mesa_Uniform4iARB@Base 9.0.1
 _mesa_Uniform4ivARB@Base 9.0.1
 _mesa_Uniform4ui@Base 9.0.1
 _mesa_Uniform4uiv@Base 9.0.1
 _mesa_UniformMatrix2fvARB@Base 9.0.1
 _mesa_UniformMatrix2x3fv@Base 9.0.1
 _mesa_UniformMatrix2x4fv@Base 9.0.1
 _mesa_UniformMatrix3fvARB@Base 9.0.1
 _mesa_UniformMatrix3x2fv@Base 9.0.1
 _mesa_UniformMatrix3x4fv@Base 9.0.1
 _mesa_UniformMatrix4fvARB@Base 9.0.1
 _mesa_UniformMatrix4x2fv@Base 9.0.1
 _mesa_UniformMatrix4x3fv@Base 9.0.1
 _mesa_UnlockArraysEXT@Base 9.0.1
 _mesa_UnmapBufferARB@Base 9.0.1
 _mesa_UseProgramObjectARB@Base 9.0.1
 _mesa_UseShaderProgramEXT@Base 9.0.1
 _mesa_ValidateProgramARB@Base 9.0.1
 _mesa_VertexAttribDivisor@Base 9.0.1
 _mesa_VertexAttribIPointer@Base 9.0.1
 _mesa_VertexAttribPointerARB@Base 9.0.1
 _mesa_VertexAttribPointerNV@Base 9.0.1
 _mesa_VertexPointer@Base 9.0.1
 _mesa_VertexPointerEXT@Base 9.0.1
 _mesa_Viewport@Base 9.0.1
 _mesa_WaitSync@Base 9.0.1
 _mesa_accum@Base 9.0.1
 _mesa_active_program@Base 9.0.1
 _mesa_add_attribute@Base 9.0.1
 _mesa_add_named_constant@Base 9.0.1
 _mesa_add_named_parameter@Base 9.0.1
 _mesa_add_parameter@Base 9.0.1
 _mesa_add_renderbuffer@Base 9.0.1
 _mesa_add_state_reference@Base 9.0.1
 _mesa_add_typed_unnamed_constant@Base 9.0.1
 _mesa_add_unnamed_constant@Base 9.0.1
 _mesa_add_varying@Base 9.0.1
 _mesa_align_calloc@Base 9.0.1
 _mesa_align_free@Base 9.0.1
 _mesa_align_malloc@Base 9.0.1
 _mesa_align_realloc@Base 9.0.1
 _mesa_alloc_dispatch_table@Base 9.0.1
 _mesa_alloc_instructions@Base 9.0.1
 _mesa_alloc_shared_state@Base 9.0.1
 _mesa_allow_light_in_model@Base 9.0.1
 _mesa_append_fog_code@Base 9.0.1
 _mesa_append_uniforms_to_file@Base 9.0.1
 _mesa_apply_ci_transfer_ops@Base 9.0.1
 _mesa_apply_rgba_transfer_ops@Base 9.0.1
 _mesa_apply_stencil_transfer_ops@Base 9.0.1
 _mesa_associate_uniform_storage@Base 9.0.1
 _mesa_base_fbo_format@Base 9.0.1
 _mesa_base_format_has_channel@Base 9.0.1
 _mesa_base_format_to_integer_format@Base 9.0.1
 _mesa_base_tex_format@Base 9.0.1
 _mesa_bind_buffer_base_transform_feedback@Base 9.0.1
 _mesa_bind_buffer_range_transform_feedback@Base 9.0.1
 _mesa_bsearch@Base 9.0.1
 _mesa_builtin_uniform_desc@Base 9.0.1
 _mesa_bytes_per_pixel@Base 9.0.1
 _mesa_check_conditional_render@Base 9.0.1
 _mesa_check_init_viewport@Base 9.0.1
 _mesa_check_soa_dependencies@Base 9.0.1
 _mesa_choose_tex_format@Base 9.0.1
 _mesa_choose_texture_format@Base 9.0.1
 _mesa_clear_accum_buffer@Base 9.0.1
 _mesa_clear_shader_program_data@Base 9.0.1
 _mesa_clear_texture_image@Base 9.0.1
 _mesa_clear_texture_object@Base 9.0.1
 _mesa_clip_blit@Base 9.0.1
 _mesa_clip_copytexsubimage@Base 9.0.1
 _mesa_clip_drawpixels@Base 9.0.1
 _mesa_clip_np_tab@Base 9.0.1
 _mesa_clip_readpixels@Base 9.0.1
 _mesa_clip_tab@Base 9.0.1
 _mesa_clip_to_region@Base 9.0.1
 _mesa_clone_parameter_list@Base 9.0.1
 _mesa_clone_program@Base 9.0.1
 _mesa_combine_parameter_lists@Base 9.0.1
 _mesa_combine_programs@Base 9.0.1
 _mesa_combine_swizzles@Base 9.0.1
 _mesa_compile_error@Base 9.0.1
 _mesa_components_in_format@Base 9.0.1
 _mesa_compressed_format_to_glenum@Base 9.0.1
 _mesa_compressed_image_address@Base 9.0.1
 _mesa_compute_version@Base 9.0.1
 _mesa_condcode_string@Base 9.0.1
 _mesa_constant_fold@Base 9.0.1
 _mesa_convert_colors@Base 9.0.1
 _mesa_copy_client_array@Base 9.0.1
 _mesa_copy_context@Base 9.0.1
 _mesa_copy_instructions@Base 9.0.1
 _mesa_copy_map_points1d@Base 9.0.1
 _mesa_copy_map_points1f@Base 9.0.1
 _mesa_copy_map_points2d@Base 9.0.1
 _mesa_copy_map_points2f@Base 9.0.1
 _mesa_copy_string@Base 9.0.1
 _mesa_copy_tab@Base 9.0.1
 _mesa_copy_texture_object@Base 9.0.1
 _mesa_copy_texture_state@Base 9.0.1
 _mesa_count_active_attribs@Base 9.0.1
 _mesa_count_texture_indirections@Base 9.0.1
 _mesa_count_texture_instructions@Base 9.0.1
 _mesa_create_context@Base 9.0.1
 _mesa_create_exec_table@Base 9.0.1
 _mesa_create_framebuffer@Base 9.0.1
 _mesa_create_save_table@Base 9.0.1
 _mesa_create_visual@Base 9.0.1
 _mesa_cube_complete@Base 9.0.1
 _mesa_debug@Base 9.0.1
 _mesa_decompress_image@Base 9.0.1
 _mesa_delete_array_object@Base 9.0.1
 _mesa_delete_ati_fragment_shader@Base 9.0.1
 _mesa_delete_instructions@Base 9.0.1
 _mesa_delete_list@Base 9.0.1
 _mesa_delete_program@Base 9.0.1
 _mesa_delete_program_cache@Base 9.0.1
 _mesa_delete_renderbuffer@Base 9.0.1
 _mesa_delete_sampler_object@Base 9.0.1
 _mesa_delete_shader_cache@Base 9.0.1
 _mesa_delete_texture_image@Base 9.0.1
 _mesa_delete_texture_object@Base 9.0.1
 _mesa_dest_buffer_exists@Base 9.0.1
 _mesa_destroy_context@Base 9.0.1
 _mesa_destroy_framebuffer@Base 9.0.1
 _mesa_destroy_shader_compiler@Base 9.0.1
 _mesa_destroy_shader_compiler_caches@Base 9.0.1
 _mesa_destroy_visual@Base 9.0.1
 _mesa_dirty_texobj@Base 9.0.1
 _mesa_disable_extension@Base 9.0.1
 _mesa_dlist_alloc@Base 9.0.1
 _mesa_dlist_alloc_opcode@Base 9.0.1
 _mesa_dotprod_tab@Base 9.0.1
 _mesa_drawbuffers@Base 9.0.1
 _mesa_dump_color_buffer@Base 9.0.1
 _mesa_dump_depth_buffer@Base 9.0.1
 _mesa_dump_image@Base 9.0.1
 _mesa_dump_renderbuffers@Base 9.0.1
 _mesa_dump_stencil_buffer@Base 9.0.1
 _mesa_dump_texture@Base 9.0.1
 _mesa_dump_textures@Base 9.0.1
 _mesa_emit_nv_temp_initialization@Base 9.0.1
 _mesa_enable_1_3_extensions@Base 9.0.1
 _mesa_enable_1_4_extensions@Base 9.0.1
 _mesa_enable_1_5_extensions@Base 9.0.1
 _mesa_enable_2_0_extensions@Base 9.0.1
 _mesa_enable_2_1_extensions@Base 9.0.1
 _mesa_enable_extension@Base 9.0.1
 _mesa_enable_sw_extensions@Base 9.0.1
 _mesa_error@Base 9.0.1
 _mesa_error_check_format_and_type@Base 9.0.1
 _mesa_es_error_check_format_and_type@Base 9.0.1
 _mesa_etc1_unpack_rgba8888@Base 9.0.1
 _mesa_evaluator_components@Base 9.0.1
 _mesa_exec_free@Base 9.0.1
 _mesa_exec_malloc@Base 9.0.1
 _mesa_execute_program@Base 9.0.1
 _mesa_expand_bitmap@Base 9.0.1
 _mesa_extension_is_enabled@Base 9.0.1
 _mesa_feedback_vertex@Base 9.0.1
 _mesa_fetch_texel_2d_f_etc1_rgb8@Base 9.0.1
 _mesa_fetch_texel_2d_f_rgb_fxt1@Base 9.0.1
 _mesa_fetch_texel_2d_f_rgba_fxt1@Base 9.0.1
 _mesa_fetch_texel_l_latc1@Base 9.0.1
 _mesa_fetch_texel_la_latc2@Base 9.0.1
 _mesa_fetch_texel_red_rgtc1@Base 9.0.1
 _mesa_fetch_texel_rg_rgtc2@Base 9.0.1
 _mesa_fetch_texel_rgb_dxt1@Base 9.0.1
 _mesa_fetch_texel_rgba_dxt1@Base 9.0.1
 _mesa_fetch_texel_rgba_dxt3@Base 9.0.1
 _mesa_fetch_texel_rgba_dxt5@Base 9.0.1
 _mesa_fetch_texel_signed_l_latc1@Base 9.0.1
 _mesa_fetch_texel_signed_la_latc2@Base 9.0.1
 _mesa_fetch_texel_signed_red_rgtc1@Base 9.0.1
 _mesa_fetch_texel_signed_rg_rgtc2@Base 9.0.1
 _mesa_fetch_texel_srgb_dxt1@Base 9.0.1
 _mesa_fetch_texel_srgba_dxt1@Base 9.0.1
 _mesa_fetch_texel_srgba_dxt3@Base 9.0.1
 _mesa_fetch_texel_srgba_dxt5@Base 9.0.1
 _mesa_find_free_register@Base 9.0.1
 _mesa_find_line_column@Base 9.0.1
 _mesa_find_temp_intervals@Base 9.0.1
 _mesa_find_used_registers@Base 9.0.1
 _mesa_finish@Base 9.0.1
 _mesa_float_to_half@Base 9.0.1
 _mesa_flush@Base 9.0.1
 _mesa_format_image_size64@Base 9.0.1
 _mesa_format_image_size@Base 9.0.1
 _mesa_format_matches_format_and_type@Base 9.0.1
 _mesa_format_num_components@Base 9.0.1
 _mesa_format_row_stride@Base 9.0.1
 _mesa_format_to_type_and_comps@Base 9.0.1
 _mesa_fprint_alu_instruction@Base 9.0.1
 _mesa_fprint_instruction_opt@Base 9.0.1
 _mesa_fprint_program_opt@Base 9.0.1
 _mesa_framebuffer_renderbuffer@Base 9.0.1
 _mesa_free_attrib_data@Base 9.0.1
 _mesa_free_buffer_objects@Base 9.0.1
 _mesa_free_context_data@Base 9.0.1
 _mesa_free_display_list_data@Base 9.0.1
 _mesa_free_errors_data@Base 9.0.1
 _mesa_free_eval_data@Base 9.0.1
 _mesa_free_framebuffer_data@Base 9.0.1
 _mesa_free_instructions@Base 9.0.1
 _mesa_free_lighting_data@Base 9.0.1
 _mesa_free_matrix_data@Base 9.0.1
 _mesa_free_parameter_list@Base 9.0.1
 _mesa_free_program_data@Base 9.0.1
 _mesa_free_queryobj_data@Base 9.0.1
 _mesa_free_shader_program_data@Base 9.0.1
 _mesa_free_shader_state@Base 9.0.1
 _mesa_free_sync_data@Base 9.0.1
 _mesa_free_texture_data@Base 9.0.1
 _mesa_free_transform_feedback@Base 9.0.1
 _mesa_free_varray_data@Base 9.0.1
 _mesa_free_viewport_data@Base 9.0.1
 _mesa_generate_mipmap@Base 9.0.1
 _mesa_generate_mipmap_level@Base 9.0.1
 _mesa_generate_parameters_list_for_uniforms@Base 9.0.1
 _mesa_generic_compressed_format_to_uncompressed_format@Base 9.0.1
 _mesa_get_attachment@Base 9.0.1
 _mesa_get_color_read_format@Base 9.0.1
 _mesa_get_color_read_type@Base 9.0.1
 _mesa_get_compressed_formats@Base 9.0.1
 _mesa_get_compressed_teximage@Base 9.0.1
 _mesa_get_cpu_features@Base 9.0.1
 _mesa_get_cpu_string@Base 9.0.1
 _mesa_get_current_context@Base 9.0.1
 _mesa_get_current_tex_object@Base 9.0.1
 _mesa_get_dispatch@Base 9.0.1
 _mesa_get_enabled_extension@Base 9.0.1
 _mesa_get_extension_count@Base 9.0.1
 _mesa_get_fallback_texture@Base 9.0.1
 _mesa_get_fixed_func_fragment_program@Base 9.0.1
 _mesa_get_fixed_func_vertex_program@Base 9.0.1
 _mesa_get_format_base_format@Base 9.0.1
 _mesa_get_format_bits@Base 9.0.1
 _mesa_get_format_block_size@Base 9.0.1
 _mesa_get_format_bytes@Base 9.0.1
 _mesa_get_format_color_encoding@Base 9.0.1
 _mesa_get_format_datatype@Base 9.0.1
 _mesa_get_format_max_bits@Base 9.0.1
 _mesa_get_format_name@Base 9.0.1
 _mesa_get_function_spec@Base 9.0.1
 _mesa_get_incomplete_framebuffer@Base 9.0.1
 _mesa_get_pack_float_rgba_function@Base 9.0.1
 _mesa_get_pack_float_z_func@Base 9.0.1
 _mesa_get_pack_ubyte_rgba_function@Base 9.0.1
 _mesa_get_pack_ubyte_stencil_func@Base 9.0.1
 _mesa_get_pack_uint_z_func@Base 9.0.1
 _mesa_get_proxy_target@Base 9.0.1
 _mesa_get_sampler_uniform_value@Base 9.0.1
 _mesa_get_srgb_format_linear@Base 9.0.1
 _mesa_get_tex_image@Base 9.0.1
 _mesa_get_texel_fetch_func@Base 9.0.1
 _mesa_get_teximage@Base 9.0.1
 _mesa_get_texture_dimensions@Base 9.0.1
 _mesa_get_uncompressed_format@Base 9.0.1
 _mesa_get_uniform@Base 9.0.1
 _mesa_get_uniform_location@Base 9.0.1
 _mesa_get_x86_features@Base 9.0.1
 _mesa_getenv@Base 9.0.1
 _mesa_gl_compressed_format_base_format@Base 9.0.1
 _mesa_glenum_to_compressed_format@Base 9.0.1
 _mesa_glsl_compile_shader@Base 9.0.1
 _mesa_glsl_initialize_types@Base 9.0.1
 _mesa_glsl_link_shader@Base 9.0.1
 _mesa_glsl_release_types@Base 9.0.1
 _mesa_half_to_float@Base 9.0.1
 _mesa_image_address1d@Base 9.0.1
 _mesa_image_address2d@Base 9.0.1
 _mesa_image_address3d@Base 9.0.1
 _mesa_image_address@Base 9.0.1
 _mesa_image_image_stride@Base 9.0.1
 _mesa_image_offset@Base 9.0.1
 _mesa_image_row_stride@Base 9.0.1
 _mesa_init_3dnow_transform_asm@Base 9.0.1
 _mesa_init_accum@Base 9.0.1
 _mesa_init_accum_dispatch@Base 9.0.1
 _mesa_init_all_x86_64_transform_asm@Base 9.0.1
 _mesa_init_all_x86_transform_asm@Base 9.0.1
 _mesa_init_ati_fragment_shader_dispatch@Base 9.0.1
 _mesa_init_attrib@Base 9.0.1
 _mesa_init_attrib_dispatch@Base 9.0.1
 _mesa_init_buffer_object_functions@Base 9.0.1
 _mesa_init_buffer_objects@Base 9.0.1
 _mesa_init_bufferobj_dispatch@Base 9.0.1
 _mesa_init_color@Base 9.0.1
 _mesa_init_colortable_dispatch@Base 9.0.1
 _mesa_init_convolve_dispatch@Base 9.0.1
 _mesa_init_debug@Base 9.0.1
 _mesa_init_depth@Base 9.0.1
 _mesa_init_display_list@Base 9.0.1
 _mesa_init_dlist_dispatch@Base 9.0.1
 _mesa_init_drawpix_dispatch@Base 9.0.1
 _mesa_init_driver_functions@Base 9.0.1
 _mesa_init_driver_state@Base 9.0.1
 _mesa_init_errors@Base 9.0.1
 _mesa_init_errors_dispatch@Base 9.0.1
 _mesa_init_eval@Base 9.0.1
 _mesa_init_eval_dispatch@Base 9.0.1
 _mesa_init_extensions@Base 9.0.1
 _mesa_init_fbobjects@Base 9.0.1
 _mesa_init_feedback@Base 9.0.1
 _mesa_init_feedback_dispatch@Base 9.0.1
 _mesa_init_fog@Base 9.0.1
 _mesa_init_fragment_program@Base 9.0.1
 _mesa_init_geometry_program@Base 9.0.1
 _mesa_init_get_hash@Base 9.0.1
 _mesa_init_hint@Base 9.0.1
 _mesa_init_instructions@Base 9.0.1
 _mesa_init_lighting@Base 9.0.1
 _mesa_init_line@Base 9.0.1
 _mesa_init_matrix@Base 9.0.1
 _mesa_init_multisample@Base 9.0.1
 _mesa_init_pixel@Base 9.0.1
 _mesa_init_pixel_dispatch@Base 9.0.1
 _mesa_init_pixelstore@Base 9.0.1
 _mesa_init_point@Base 9.0.1
 _mesa_init_polygon@Base 9.0.1
 _mesa_init_program@Base 9.0.1
 _mesa_init_query_object_functions@Base 9.0.1
 _mesa_init_queryobj@Base 9.0.1
 _mesa_init_queryobj_dispatch@Base 9.0.1
 _mesa_init_rastpos@Base 9.0.1
 _mesa_init_rastpos_dispatch@Base 9.0.1
 _mesa_init_remap_table@Base 9.0.1
 _mesa_init_renderbuffer@Base 9.0.1
 _mesa_init_sampler_object@Base 9.0.1
 _mesa_init_sampler_object_dispatch@Base 9.0.1
 _mesa_init_sampler_object_functions@Base 9.0.1
 _mesa_init_scissor@Base 9.0.1
 _mesa_init_shader@Base 9.0.1
 _mesa_init_shader_dispatch@Base 9.0.1
 _mesa_init_shader_object_functions@Base 9.0.1
 _mesa_init_shader_program@Base 9.0.1
 _mesa_init_shader_state@Base 9.0.1
 _mesa_init_shader_uniform_dispatch@Base 9.0.1
 _mesa_init_sse_transform_asm@Base 9.0.1
 _mesa_init_stencil@Base 9.0.1
 _mesa_init_sync@Base 9.0.1
 _mesa_init_sync_dispatch@Base 9.0.1
 _mesa_init_sync_object_functions@Base 9.0.1
 _mesa_init_texgen_dispatch@Base 9.0.1
 _mesa_init_teximage_fields@Base 9.0.1
 _mesa_init_texture@Base 9.0.1
 _mesa_init_texture_barrier_functions@Base 9.0.1
 _mesa_init_texture_s3tc@Base 9.0.1
 _mesa_init_transform@Base 9.0.1
 _mesa_init_transform_feedback@Base 9.0.1
 _mesa_init_transform_feedback_dispatch@Base 9.0.1
 _mesa_init_transform_feedback_functions@Base 9.0.1
 _mesa_init_varray@Base 9.0.1
 _mesa_init_vertex_program@Base 9.0.1
 _mesa_init_viewport@Base 9.0.1
 _mesa_initialize_array_object@Base 9.0.1
 _mesa_initialize_buffer_object@Base 9.0.1
 _mesa_initialize_context@Base 9.0.1
 _mesa_initialize_texture_object@Base 9.0.1
 _mesa_initialize_user_framebuffer@Base 9.0.1
 _mesa_initialize_visual@Base 9.0.1
 _mesa_initialize_window_framebuffer@Base 9.0.1
 _mesa_insert_instructions@Base 9.0.1
 _mesa_insert_mvp_code@Base 9.0.1
 _mesa_install_arrayelt_vtxfmt@Base 9.0.1
 _mesa_install_dlist_vtxfmt@Base 9.0.1
 _mesa_install_eval_vtxfmt@Base 9.0.1
 _mesa_install_exec_vtxfmt@Base 9.0.1
 _mesa_install_save_vtxfmt@Base 9.0.1
 _mesa_ir_link_shader@Base 9.0.1
 _mesa_is_color_format@Base 9.0.1
 _mesa_is_compressed_format@Base 9.0.1
 _mesa_is_depth_format@Base 9.0.1
 _mesa_is_depth_or_stencil_format@Base 9.0.1
 _mesa_is_depthstencil_format@Base 9.0.1
 _mesa_is_dudv_format@Base 9.0.1
 _mesa_is_enum_format_integer@Base 9.0.1
 _mesa_is_enum_format_or_type_integer@Base 9.0.1
 _mesa_is_format_compressed@Base 9.0.1
 _mesa_is_format_integer_color@Base 9.0.1
 _mesa_is_format_packed_depth_stencil@Base 9.0.1
 _mesa_is_format_unsigned@Base 9.0.1
 _mesa_is_legal_color_format@Base 9.0.1
 _mesa_is_proxy_texture@Base 9.0.1
 _mesa_is_stencil_format@Base 9.0.1
 _mesa_is_tex_instruction@Base 9.0.1
 _mesa_is_type_integer@Base 9.0.1
 _mesa_is_type_unsigned@Base 9.0.1
 _mesa_is_ycbcr_format@Base 9.0.1
 _mesa_layout_parameters@Base 9.0.1
 _mesa_light@Base 9.0.1
 _mesa_load_state_parameters@Base 9.0.1
 _mesa_load_tracked_matrices@Base 9.0.1
 _mesa_lock_context_textures@Base 9.0.1
 _mesa_longest_attribute_name_length@Base 9.0.1
 _mesa_lookup_bufferobj@Base 9.0.1
 _mesa_lookup_enum_by_name@Base 9.0.1
 _mesa_lookup_enum_by_nr@Base 9.0.1
 _mesa_lookup_framebuffer@Base 9.0.1
 _mesa_lookup_parameter_constant@Base 9.0.1
 _mesa_lookup_parameter_index@Base 9.0.1
 _mesa_lookup_parameter_value@Base 9.0.1
 _mesa_lookup_prim_by_nr@Base 9.0.1
 _mesa_lookup_program@Base 9.0.1
 _mesa_lookup_renderbuffer@Base 9.0.1
 _mesa_lookup_shader@Base 9.0.1
 _mesa_lookup_shader_err@Base 9.0.1
 _mesa_lookup_shader_program@Base 9.0.1
 _mesa_lookup_shader_program_err@Base 9.0.1
 _mesa_lookup_texture@Base 9.0.1
 _mesa_lookup_transform_feedback_object@Base 9.0.1
 _mesa_loopback_init_api_table@Base 9.0.1
 _mesa_make_current@Base 9.0.1
 _mesa_make_extension_string@Base 9.0.1
 _mesa_make_temp_float_image@Base 9.0.1
 _mesa_make_temp_ubyte_image@Base 9.0.1
 _mesa_map_ci_to_rgba@Base 9.0.1
 _mesa_map_function_array@Base 9.0.1
 _mesa_map_function_spec@Base 9.0.1
 _mesa_map_pbo_dest@Base 9.0.1
 _mesa_map_pbo_source@Base 9.0.1
 _mesa_map_rgba@Base 9.0.1
 _mesa_map_static_functions@Base 9.0.1
 _mesa_map_validate_pbo_dest@Base 9.0.1
 _mesa_map_validate_pbo_source@Base 9.0.1
 _mesa_material_bitmask@Base 9.0.1
 _mesa_max_buffer_index@Base 9.0.1
 _mesa_max_texture_levels@Base 9.0.1
 _mesa_meta_Bitmap@Base 9.0.1
 _mesa_meta_BlitFramebuffer@Base 9.0.1
 _mesa_meta_Clear@Base 9.0.1
 _mesa_meta_CopyPixels@Base 9.0.1
 _mesa_meta_CopyTexSubImage@Base 9.0.1
 _mesa_meta_DrawPixels@Base 9.0.1
 _mesa_meta_DrawTex@Base 9.0.1
 _mesa_meta_GenerateMipmap@Base 9.0.1
 _mesa_meta_GetTexImage@Base 9.0.1
 _mesa_meta_begin@Base 9.0.1
 _mesa_meta_check_generate_mipmap_fallback@Base 9.0.1
 _mesa_meta_end@Base 9.0.1
 _mesa_meta_free@Base 9.0.1
 _mesa_meta_glsl_Clear@Base 9.0.1
 _mesa_meta_in_progress@Base 9.0.1
 _mesa_meta_init@Base 9.0.1
 _mesa_new_array_object@Base 9.0.1
 _mesa_new_ati_fragment_shader@Base 9.0.1
 _mesa_new_framebuffer@Base 9.0.1
 _mesa_new_parameter_list@Base 9.0.1
 _mesa_new_parameter_list_sized@Base 9.0.1
 _mesa_new_program@Base 9.0.1
 _mesa_new_program_cache@Base 9.0.1
 _mesa_new_renderbuffer@Base 9.0.1
 _mesa_new_sampler_object@Base 9.0.1
 _mesa_new_shader@Base 9.0.1
 _mesa_new_texture_image@Base 9.0.1
 _mesa_new_texture_object@Base 9.0.1
 _mesa_noise1@Base 9.0.1
 _mesa_noise2@Base 9.0.1
 _mesa_noise3@Base 9.0.1
 _mesa_noise4@Base 9.0.1
 _mesa_noop_vtxfmt_init@Base 9.0.1
 _mesa_nop_fragment_program@Base 9.0.1
 _mesa_nop_vertex_program@Base 9.0.1
 _mesa_normal_tab@Base 9.0.1
 _mesa_notifySwapBuffers@Base 9.0.1
 _mesa_num_inst_dst_regs@Base 9.0.1
 _mesa_num_inst_src_regs@Base 9.0.1
 _mesa_num_parameters_of_type@Base 9.0.1
 _mesa_nv_fragment_input_register_name@Base 9.0.1
 _mesa_nv_vertex_input_register_name@Base 9.0.1
 _mesa_nv_vertex_output_register_name@Base 9.0.1
 _mesa_opcode_string@Base 9.0.1
 _mesa_optimize_program@Base 9.0.1
 _mesa_override_glsl_version@Base 9.0.1
 _mesa_pack_bitmap@Base 9.0.1
 _mesa_pack_colormask@Base 9.0.1
 _mesa_pack_depth_span@Base 9.0.1
 _mesa_pack_depth_stencil_span@Base 9.0.1
 _mesa_pack_float_rgba_row@Base 9.0.1
 _mesa_pack_float_z_row@Base 9.0.1
 _mesa_pack_index_span@Base 9.0.1
 _mesa_pack_polygon_stipple@Base 9.0.1
 _mesa_pack_rgba_span_float@Base 9.0.1
 _mesa_pack_rgba_span_from_ints@Base 9.0.1
 _mesa_pack_rgba_span_from_uints@Base 9.0.1
 _mesa_pack_stencil_span@Base 9.0.1
 _mesa_pack_ubyte_rgba_rect@Base 9.0.1
 _mesa_pack_ubyte_rgba_row@Base 9.0.1
 _mesa_pack_ubyte_stencil_row@Base 9.0.1
 _mesa_pack_uint_24_8_depth_stencil_row@Base 9.0.1
 _mesa_pack_uint_z_row@Base 9.0.1
 _mesa_parse_arb_fragment_program@Base 9.0.1
 _mesa_parse_arb_program@Base 9.0.1
 _mesa_parse_arb_vertex_program@Base 9.0.1
 _mesa_parse_cc@Base 9.0.1
 _mesa_parse_instruction_suffix@Base 9.0.1
 _mesa_parse_nv_fragment_program@Base 9.0.1
 _mesa_parse_nv_vertex_program@Base 9.0.1
 _mesa_polygon_stipple@Base 9.0.1
 _mesa_postprocess_program@Base 9.0.1
 _mesa_prepare_mipmap_level@Base 9.0.1
 _mesa_print_alu_instruction@Base 9.0.1
 _mesa_print_arrays@Base 9.0.1
 _mesa_print_fp_inputs@Base 9.0.1
 _mesa_print_framebuffer@Base 9.0.1
 _mesa_print_info@Base 9.0.1
 _mesa_print_instruction@Base 9.0.1
 _mesa_print_instruction_opt@Base 9.0.1
 _mesa_print_parameter_list@Base 9.0.1
 _mesa_print_program@Base 9.0.1
 _mesa_print_program_parameters@Base 9.0.1
 _mesa_print_state@Base 9.0.1
 _mesa_print_swizzle@Base 9.0.1
 _mesa_print_texture@Base 9.0.1
 _mesa_print_texunit_state@Base 9.0.1
 _mesa_print_tri_caps@Base 9.0.1
 _mesa_print_vp_inputs@Base 9.0.1
 _mesa_problem@Base 9.0.1
 _mesa_program__create_buffer@Base 9.0.1
 _mesa_program__delete_buffer@Base 9.0.1
 _mesa_program__flush_buffer@Base 9.0.1
 _mesa_program__scan_buffer@Base 9.0.1
 _mesa_program__scan_bytes@Base 9.0.1
 _mesa_program__scan_string@Base 9.0.1
 _mesa_program__switch_to_buffer@Base 9.0.1
 _mesa_program_alloc@Base 9.0.1
 _mesa_program_cache_insert@Base 9.0.1
 _mesa_program_free@Base 9.0.1
 _mesa_program_get_column@Base 9.0.1
 _mesa_program_get_debug@Base 9.0.1
 _mesa_program_get_extra@Base 9.0.1
 _mesa_program_get_in@Base 9.0.1
 _mesa_program_get_leng@Base 9.0.1
 _mesa_program_get_lineno@Base 9.0.1
 _mesa_program_get_lloc@Base 9.0.1
 _mesa_program_get_lval@Base 9.0.1
 _mesa_program_get_out@Base 9.0.1
 _mesa_program_get_text@Base 9.0.1
 _mesa_program_lex@Base 9.0.1
 _mesa_program_lex_destroy@Base 9.0.1
 _mesa_program_lex_init@Base 9.0.1
 _mesa_program_lex_init_extra@Base 9.0.1
 _mesa_program_lexer_ctor@Base 9.0.1
 _mesa_program_lexer_dtor@Base 9.0.1
 _mesa_program_pop_buffer_state@Base 9.0.1
 _mesa_program_push_buffer_state@Base 9.0.1
 _mesa_program_realloc@Base 9.0.1
 _mesa_program_restart@Base 9.0.1
 _mesa_program_set_column@Base 9.0.1
 _mesa_program_set_debug@Base 9.0.1
 _mesa_program_set_extra@Base 9.0.1
 _mesa_program_set_in@Base 9.0.1
 _mesa_program_set_lineno@Base 9.0.1
 _mesa_program_set_lloc@Base 9.0.1
 _mesa_program_set_lval@Base 9.0.1
 _mesa_program_set_out@Base 9.0.1
 _mesa_program_state_flags@Base 9.0.1
 _mesa_program_state_string@Base 9.0.1
 _mesa_propagate_uniforms_to_driver_storage@Base 9.0.1
 _mesa_readbuffer@Base 9.0.1
 _mesa_readpixels@Base 9.0.1
 _mesa_realloc@Base 9.0.1
 _mesa_realloc_instructions@Base 9.0.1
 _mesa_rebase_rgba_float@Base 9.0.1
 _mesa_rebase_rgba_uint@Base 9.0.1
 _mesa_record_error@Base 9.0.1
 _mesa_ref_sync_object@Base 9.0.1
 _mesa_reference_array_object_@Base 9.0.1
 _mesa_reference_buffer_object_@Base 9.0.1
 _mesa_reference_framebuffer_@Base 9.0.1
 _mesa_reference_program_@Base 9.0.1
 _mesa_reference_renderbuffer_@Base 9.0.1
 _mesa_reference_sampler_object_@Base 9.0.1
 _mesa_reference_shader@Base 9.0.1
 _mesa_reference_shader_program@Base 9.0.1
 _mesa_reference_shared_state@Base 9.0.1
 _mesa_reference_texobj_@Base 9.0.1
 _mesa_register_file_name@Base 9.0.1
 _mesa_remove_attachment@Base 9.0.1
 _mesa_remove_output_reads@Base 9.0.1
 _mesa_remove_renderbuffer@Base 9.0.1
 _mesa_resize_framebuffer@Base 9.0.1
 _mesa_resizebuffers@Base 9.0.1
 _mesa_sampler_uniforms_are_valid@Base 9.0.1
 _mesa_save_vtxfmt_init@Base 9.0.1
 _mesa_scale_and_bias_depth@Base 9.0.1
 _mesa_scale_and_bias_depth_uint@Base 9.0.1
 _mesa_scale_and_bias_rgba@Base 9.0.1
 _mesa_search_program_cache@Base 9.0.1
 _mesa_select_tex_image@Base 9.0.1
 _mesa_select_tex_object@Base 9.0.1
 _mesa_set_enable@Base 9.0.1
 _mesa_set_enablei@Base 9.0.1
 _mesa_set_mvp_with_dp4@Base 9.0.1
 _mesa_set_program_error@Base 9.0.1
 _mesa_set_renderbuffer_attachment@Base 9.0.1
 _mesa_set_scissor@Base 9.0.1
 _mesa_set_texture_attachment@Base 9.0.1
 _mesa_set_varying_vp_inputs@Base 9.0.1
 _mesa_set_viewport@Base 9.0.1
 _mesa_set_vp_override@Base 9.0.1
 _mesa_setup_nv_temporary_count@Base 9.0.1
 _mesa_shader_cache_insert@Base 9.0.1
 _mesa_shader_debug@Base 9.0.1
 _mesa_share_state@Base 9.0.1
 _mesa_shift_and_offset_ci@Base 9.0.1
 _mesa_sizeof_packed_type@Base 9.0.1
 _mesa_sizeof_type@Base 9.0.1
 _mesa_snprintf@Base 9.0.1
 _mesa_source_buffer_exists@Base 9.0.1
 _mesa_store_compressed_teximage@Base 9.0.1
 _mesa_store_compressed_texsubimage@Base 9.0.1
 _mesa_store_teximage@Base 9.0.1
 _mesa_store_texsubimage@Base 9.0.1
 _mesa_str_checksum@Base 9.0.1
 _mesa_strdup@Base 9.0.1
 _mesa_strtof@Base 9.0.1
 _mesa_swap2@Base 9.0.1
 _mesa_swap4@Base 9.0.1
 _mesa_swizzle_string@Base 9.0.1
 _mesa_symbol_table_add_global_symbol@Base 9.0.1
 _mesa_symbol_table_add_symbol@Base 9.0.1
 _mesa_symbol_table_ctor@Base 9.0.1
 _mesa_symbol_table_dtor@Base 9.0.1
 _mesa_symbol_table_find_symbol@Base 9.0.1
 _mesa_symbol_table_iterator_ctor@Base 9.0.1
 _mesa_symbol_table_iterator_dtor@Base 9.0.1
 _mesa_symbol_table_iterator_get@Base 9.0.1
 _mesa_symbol_table_iterator_next@Base 9.0.1
 _mesa_symbol_table_pop_scope@Base 9.0.1
 _mesa_symbol_table_push_scope@Base 9.0.1
 _mesa_symbol_table_symbol_scope@Base 9.0.1
 _mesa_test_formats@Base 9.0.1
 _mesa_test_framebuffer_completeness@Base 9.0.1
 _mesa_test_proxy_teximage@Base 9.0.1
 _mesa_test_texobj_completeness@Base 9.0.1
 _mesa_tex_target_to_face@Base 9.0.1
 _mesa_texstore@Base 9.0.1
 _mesa_texstore_etc1_rgb8@Base 9.0.1
 _mesa_texstore_red_rgtc1@Base 9.0.1
 _mesa_texstore_rg_rgtc2@Base 9.0.1
 _mesa_texstore_rgb_dxt1@Base 9.0.1
 _mesa_texstore_rgb_fxt1@Base 9.0.1
 _mesa_texstore_rgba_dxt1@Base 9.0.1
 _mesa_texstore_rgba_dxt3@Base 9.0.1
 _mesa_texstore_rgba_dxt5@Base 9.0.1
 _mesa_texstore_rgba_fxt1@Base 9.0.1
 _mesa_texstore_signed_red_rgtc1@Base 9.0.1
 _mesa_texstore_signed_rg_rgtc2@Base 9.0.1
 _mesa_total_buffer_object_memory@Base 9.0.1
 _mesa_total_texture_memory@Base 9.0.1
 _mesa_transform_tab@Base 9.0.1
 _mesa_transform_vector@Base 9.0.1
 _mesa_type_is_packed@Base 9.0.1
 _mesa_ubyte_to_float_color_tab@Base 9.0.1
 _mesa_uniform@Base 9.0.1
 _mesa_uniform_attach_driver_storage@Base 9.0.1
 _mesa_uniform_detach_all_driver_storage@Base 9.0.1
 _mesa_uniform_matrix@Base 9.0.1
 _mesa_unlock_context_textures@Base 9.0.1
 _mesa_unmap_pbo_dest@Base 9.0.1
 _mesa_unmap_pbo_source@Base 9.0.1
 _mesa_unmap_teximage_pbo@Base 9.0.1
 _mesa_unpack_bitmap@Base 9.0.1
 _mesa_unpack_color_span_float@Base 9.0.1
 _mesa_unpack_color_span_ubyte@Base 9.0.1
 _mesa_unpack_color_span_uint@Base 9.0.1
 _mesa_unpack_depth_span@Base 9.0.1
 _mesa_unpack_dudv_span_byte@Base 9.0.1
 _mesa_unpack_float_z_row@Base 9.0.1
 _mesa_unpack_image@Base 9.0.1
 _mesa_unpack_index_span@Base 9.0.1
 _mesa_unpack_polygon_stipple@Base 9.0.1
 _mesa_unpack_rgba_block@Base 9.0.1
 _mesa_unpack_rgba_row@Base 9.0.1
 _mesa_unpack_stencil_span@Base 9.0.1
 _mesa_unpack_ubyte_rgba_row@Base 9.0.1
 _mesa_unpack_ubyte_stencil_row@Base 9.0.1
 _mesa_unpack_uint_24_8_depth_stencil_row@Base 9.0.1
 _mesa_unpack_uint_rgba_row@Base 9.0.1
 _mesa_unpack_uint_z_row@Base 9.0.1
 _mesa_unref_sync_object@Base 9.0.1
 _mesa_update_array_object_max_element@Base 9.0.1
 _mesa_update_clip_plane@Base 9.0.1
 _mesa_update_color_material@Base 9.0.1
 _mesa_update_default_objects_buffer_objects@Base 9.0.1
 _mesa_update_default_objects_program@Base 9.0.1
 _mesa_update_default_objects_texture@Base 9.0.1
 _mesa_update_draw_buffer_bounds@Base 9.0.1
 _mesa_update_draw_buffers@Base 9.0.1
 _mesa_update_fbo_texture@Base 9.0.1
 _mesa_update_fetch_functions@Base 9.0.1
 _mesa_update_framebuffer@Base 9.0.1
 _mesa_update_framebuffer_visual@Base 9.0.1
 _mesa_update_hitflag@Base 9.0.1
 _mesa_update_lighting@Base 9.0.1
 _mesa_update_material@Base 9.0.1
 _mesa_update_modelview_project@Base 9.0.1
 _mesa_update_pixel@Base 9.0.1
 _mesa_update_shader_textures_used@Base 9.0.1
 _mesa_update_state@Base 9.0.1
 _mesa_update_state_locked@Base 9.0.1
 _mesa_update_stencil@Base 9.0.1
 _mesa_update_texture@Base 9.0.1
 _mesa_update_tnl_spaces@Base 9.0.1
 _mesa_use_program@Base 9.0.1
 _mesa_use_shader_program@Base 9.0.1
 _mesa_using_noop_vtxfmt@Base 9.0.1
 _mesa_valid_prim_mode@Base 9.0.1
 _mesa_valid_register_index@Base 9.0.1
 _mesa_valid_to_render@Base 9.0.1
 _mesa_validate_DrawArrays@Base 9.0.1
 _mesa_validate_DrawArraysInstanced@Base 9.0.1
 _mesa_validate_DrawElements@Base 9.0.1
 _mesa_validate_DrawElementsInstanced@Base 9.0.1
 _mesa_validate_DrawRangeElements@Base 9.0.1
 _mesa_validate_DrawTransformFeedback@Base 9.0.1
 _mesa_validate_MultiDrawElements@Base 9.0.1
 _mesa_validate_framebuffer@Base 9.0.1
 _mesa_validate_pbo_access@Base 9.0.1
 _mesa_validate_pbo_compressed_teximage@Base 9.0.1
 _mesa_validate_pbo_teximage@Base 9.0.1
 _mesa_validate_transform_feedback_buffers@Base 9.0.1
 _mesa_vector4f_alloc@Base 9.0.1
 _mesa_vector4f_clean_elem@Base 9.0.1
 _mesa_vector4f_free@Base 9.0.1
 _mesa_vector4f_init@Base 9.0.1
 _mesa_vector4f_print@Base 9.0.1
 _mesa_vsnprintf@Base 9.0.1
 _mesa_warning@Base 9.0.1
 _mesa_write_renderbuffer_image@Base 9.0.1
 _mesa_write_shader_to_file@Base 9.0.1
 _mesa_writemask_string@Base 9.0.1
 _mesa_x86_cpu_features@Base 9.0.1
 _swrast_AllocTextureStorage@Base 9.0.1
 _swrast_Bitmap@Base 9.0.1
 _swrast_BlitFramebuffer@Base 9.0.1
 _swrast_Clear@Base 9.0.1
 _swrast_CopyPixels@Base 9.0.1
 _swrast_CreateContext@Base 9.0.1
 _swrast_DestroyContext@Base 9.0.1
 _swrast_DrawPixels@Base 9.0.1
 _swrast_GetDeviceDriverReference@Base 9.0.1
 _swrast_InvalidateState@Base 9.0.1
 _swrast_Line@Base 9.0.1
 _swrast_Point@Base 9.0.1
 _swrast_Quad@Base 9.0.1
 _swrast_ResetLineStipple@Base 9.0.1
 _swrast_SetFacing@Base 9.0.1
 _swrast_Triangle@Base 9.0.1
 _swrast_add_soft_renderbuffers@Base 9.0.1
 _swrast_add_spec_terms_line@Base 9.0.1
 _swrast_add_spec_terms_point@Base 9.0.1
 _swrast_add_spec_terms_triangle@Base 9.0.1
 _swrast_alloc_texture_image_buffer@Base 9.0.1
 _swrast_allow_pixel_fog@Base 9.0.1
 _swrast_allow_vertex_fog@Base 9.0.1
 _swrast_alpha_test@Base 9.0.1
 _swrast_blend_span@Base 9.0.1
 _swrast_choose_aa_line_function@Base 9.0.1
 _swrast_choose_blend_func@Base 9.0.1
 _swrast_choose_line@Base 9.0.1
 _swrast_choose_point@Base 9.0.1
 _swrast_choose_texture_sample_func@Base 9.0.1
 _swrast_choose_triangle@Base 9.0.1
 _swrast_clear_depth_buffer@Base 9.0.1
 _swrast_clear_depth_stencil_buffer@Base 9.0.1
 _swrast_clear_stencil_buffer@Base 9.0.1
 _swrast_compute_lambda@Base 9.0.1
 _swrast_culltriangle@Base 9.0.1
 _swrast_delete_texture_image@Base 9.0.1
 _swrast_depth_bounds_test@Base 9.0.1
 _swrast_depth_clamp_span@Base 9.0.1
 _swrast_depth_test_span@Base 9.0.1
 _swrast_exec_fragment_program@Base 9.0.1
 _swrast_exec_fragment_shader@Base 9.0.1
 _swrast_feedback_line@Base 9.0.1
 _swrast_feedback_point@Base 9.0.1
 _swrast_feedback_triangle@Base 9.0.1
 _swrast_finish_render_texture@Base 9.0.1
 _swrast_flush@Base 9.0.1
 _swrast_fog_rgba_span@Base 9.0.1
 _swrast_free_texture_image_buffer@Base 9.0.1
 _swrast_get_dest_rgba@Base 9.0.1
 _swrast_init_texture_image@Base 9.0.1
 _swrast_logicop_rgba_span@Base 9.0.1
 _swrast_map_renderbuffers@Base 9.0.1
 _swrast_map_soft_renderbuffer@Base 9.0.1
 _swrast_map_teximage@Base 9.0.1
 _swrast_map_texture@Base 9.0.1
 _swrast_map_textures@Base 9.0.1
 _swrast_mask_rgba_span@Base 9.0.1
 _swrast_new_soft_renderbuffer@Base 9.0.1
 _swrast_new_texture_image@Base 9.0.1
 _swrast_print_vertex@Base 9.0.1
 _swrast_put_row@Base 9.0.1
 _swrast_read_depth_span_float@Base 9.0.1
 _swrast_read_rgba_span@Base 9.0.1
 _swrast_read_stencil_span@Base 9.0.1
 _swrast_render_finish@Base 9.0.1
 _swrast_render_primitive@Base 9.0.1
 _swrast_render_start@Base 9.0.1
 _swrast_render_texture@Base 9.0.1
 _swrast_select_line@Base 9.0.1
 _swrast_select_point@Base 9.0.1
 _swrast_select_triangle@Base 9.0.1
 _swrast_set_aa_triangle_function@Base 9.0.1
 _swrast_span_default_attribs@Base 9.0.1
 _swrast_span_interpolate_z@Base 9.0.1
 _swrast_span_render_finish@Base 9.0.1
 _swrast_span_render_start@Base 9.0.1
 _swrast_stencil_and_ztest_span@Base 9.0.1
 _swrast_texture_span@Base 9.0.1
 _swrast_unmap_renderbuffers@Base 9.0.1
 _swrast_unmap_soft_renderbuffer@Base 9.0.1
 _swrast_unmap_teximage@Base 9.0.1
 _swrast_unmap_texture@Base 9.0.1
 _swrast_unmap_textures@Base 9.0.1
 _swrast_update_texture_samplers@Base 9.0.1
 _swrast_use_fragment_program@Base 9.0.1
 _swrast_validate_derived@Base 9.0.1
 _swrast_write_rgba_span@Base 9.0.1
 _swrast_write_stencil_span@Base 9.0.1
 _swrast_write_zoomed_depth_span@Base 9.0.1
 _swrast_write_zoomed_rgb_span@Base 9.0.1
 _swrast_write_zoomed_rgba_span@Base 9.0.1
 _swrast_write_zoomed_stencil_span@Base 9.0.1
 _swrast_write_zoomed_z_span@Base 9.0.1
 _swrast_z_to_fogfactor@Base 9.0.1
 _swsetup_CreateContext@Base 9.0.1
 _swsetup_DestroyContext@Base 9.0.1
 _swsetup_InvalidateState@Base 9.0.1
 _swsetup_Translate@Base 9.0.1
 _swsetup_Wakeup@Base 9.0.1
 _swsetup_choose_trifuncs@Base 9.0.1
 _swsetup_trifuncs_init@Base 9.0.1
 _tnl_CreateContext@Base 9.0.1
 _tnl_DestroyContext@Base 9.0.1
 _tnl_InvalidateState@Base 9.0.1
 _tnl_RasterPos@Base 9.0.1
 _tnl_RenderClippedLine@Base 9.0.1
 _tnl_RenderClippedPolygon@Base 9.0.1
 _tnl_UpdateFixedFunctionProgram@Base 9.0.1
 _tnl_allow_pixel_fog@Base 9.0.1
 _tnl_allow_vertex_fog@Base 9.0.1
 _tnl_build_vertices@Base 9.0.1
 _tnl_copy_pv@Base 9.0.1
 _tnl_default_pipeline@Base 9.0.1
 _tnl_destroy_pipeline@Base 9.0.1
 _tnl_draw_prims@Base 9.0.1
 _tnl_emit_indexed_vertices_to_buffer@Base 9.0.1
 _tnl_emit_vertices_to_buffer@Base 9.0.1
 _tnl_fog_coordinate_stage@Base 9.0.1
 _tnl_format_info@Base 9.0.1
 _tnl_free_vertices@Base 9.0.1
 _tnl_generate_hardwired_emit@Base 9.0.1
 _tnl_generate_sse_emit@Base 9.0.1
 _tnl_generic_copy_pv@Base 9.0.1
 _tnl_generic_copy_pv_extras@Base 9.0.1
 _tnl_generic_emit@Base 9.0.1
 _tnl_generic_interp@Base 9.0.1
 _tnl_generic_interp_extras@Base 9.0.1
 _tnl_get_attr@Base 9.0.1
 _tnl_get_vertex@Base 9.0.1
 _tnl_init_vertices@Base 9.0.1
 _tnl_install_attrs@Base 9.0.1
 _tnl_install_pipeline@Base 9.0.1
 _tnl_interp@Base 9.0.1
 _tnl_invalidate_vertex_state@Base 9.0.1
 _tnl_invalidate_vertices@Base 9.0.1
 _tnl_lighting_stage@Base 9.0.1
 _tnl_need_projected_coords@Base 9.0.1
 _tnl_normal_transform_stage@Base 9.0.1
 _tnl_notify_pipeline_output_change@Base 9.0.1
 _tnl_point_attenuation_stage@Base 9.0.1
 _tnl_program_string@Base 9.0.1
 _tnl_register_fastpath@Base 9.0.1
 _tnl_render_stage@Base 9.0.1
 _tnl_render_tab_elts@Base 9.0.1
 _tnl_render_tab_verts@Base 9.0.1
 _tnl_run_pipeline@Base 9.0.1
 _tnl_set_attr@Base 9.0.1
 _tnl_texgen_stage@Base 9.0.1
 _tnl_texture_transform_stage@Base 9.0.1
 _tnl_validate_shine_tables@Base 9.0.1
 _tnl_vbo_draw_prims@Base 9.0.1
 _tnl_vertex_program_stage@Base 9.0.1
 _tnl_vertex_transform_stage@Base 9.0.1
 _tnl_vp_pipeline@Base 9.0.1
 _tnl_wakeup@Base 9.0.1
 _vbo_CreateContext@Base 9.0.1
 _vbo_DestroyContext@Base 9.0.1
 _vbo_InvalidateState@Base 9.0.1
 address_reg@Base 9.0.1
 ati_fs_opcodes@Base 9.0.1
 builtin_mem_ctx@Base 9.0.1
 count_tessellated_primitives@Base 9.0.1
 driDispatchRemapTable@Base 9.0.1
 fetch_ext_rgb_dxt1@Base 9.0.1
 fetch_ext_rgba_dxt1@Base 9.0.1
 fetch_ext_rgba_dxt3@Base 9.0.1
 fetch_ext_rgba_dxt5@Base 9.0.1
 fxt1_decode_1@Base 9.0.1
 glcpp__create_buffer@Base 9.0.1
 glcpp__delete_buffer@Base 9.0.1
 glcpp__flush_buffer@Base 9.0.1
 glcpp__scan_buffer@Base 9.0.1
 glcpp__scan_bytes@Base 9.0.1
 glcpp__scan_string@Base 9.0.1
 glcpp__switch_to_buffer@Base 9.0.1
 glcpp_alloc@Base 9.0.1
 glcpp_error@Base 9.0.1
 glcpp_free@Base 9.0.1
 glcpp_get_column@Base 9.0.1
 glcpp_get_debug@Base 9.0.1
 glcpp_get_extra@Base 9.0.1
 glcpp_get_in@Base 9.0.1
 glcpp_get_leng@Base 9.0.1
 glcpp_get_lineno@Base 9.0.1
 glcpp_get_lloc@Base 9.0.1
 glcpp_get_lval@Base 9.0.1
 glcpp_get_out@Base 9.0.1
 glcpp_get_text@Base 9.0.1
 glcpp_lex@Base 9.0.1
 glcpp_lex_destroy@Base 9.0.1
 glcpp_lex_init@Base 9.0.1
 glcpp_lex_init_extra@Base 9.0.1
 glcpp_lex_set_source_string@Base 9.0.1
 glcpp_parser_create@Base 9.0.1
 glcpp_parser_destroy@Base 9.0.1
 glcpp_parser_parse@Base 9.0.1
 glcpp_pop_buffer_state@Base 9.0.1
 glcpp_preprocess@Base 9.0.1
 glcpp_push_buffer_state@Base 9.0.1
 glcpp_realloc@Base 9.0.1
 glcpp_restart@Base 9.0.1
 glcpp_set_column@Base 9.0.1
 glcpp_set_debug@Base 9.0.1
 glcpp_set_extra@Base 9.0.1
 glcpp_set_in@Base 9.0.1
 glcpp_set_lineno@Base 9.0.1
 glcpp_set_lloc@Base 9.0.1
 glcpp_set_lval@Base 9.0.1
 glcpp_set_out@Base 9.0.1
 glcpp_warning@Base 9.0.1
 glsl_strtod@Base 9.0.1
 hash_table_call_foreach@Base 9.0.1
 hash_table_clear@Base 9.0.1
 hash_table_ctor@Base 9.0.1
 hash_table_dtor@Base 9.0.1
 hash_table_find@Base 9.0.1
 hash_table_insert@Base 9.0.1
 hash_table_pointer_compare@Base 9.0.1
 hash_table_pointer_hash@Base 9.0.1
 hash_table_remove@Base 9.0.1
 hash_table_replace@Base 9.0.1
 hash_table_string_hash@Base 9.0.1
 init_c_cliptest@Base 9.0.1
 mesa_print_display_list@Base 9.0.1
 mmAllocMem@Base 9.0.1
 mmDestroy@Base 9.0.1
 mmDumpMemInfo@Base 9.0.1
 mmFindBlock@Base 9.0.1
 mmFreeMem@Base 9.0.1
 mmInit@Base 9.0.1
 perm@Base 9.0.1
 ra_add_node_interference@Base 9.0.1
 ra_add_reg_conflict@Base 9.0.1
 ra_add_transitive_reg_conflict@Base 9.0.1
 ra_alloc_interference_graph@Base 9.0.1
 ra_alloc_reg_class@Base 9.0.1
 ra_alloc_reg_set@Base 9.0.1
 ra_allocate_no_spills@Base 9.0.1
 ra_class_add_reg@Base 9.0.1
 ra_get_best_spill_node@Base 9.0.1
 ra_get_node_reg@Base 9.0.1
 ra_optimistic_color@Base 9.0.1
 ra_select@Base 9.0.1
 ra_set_finalize@Base 9.0.1
 ra_set_node_class@Base 9.0.1
 ra_set_node_reg@Base 9.0.1
 ra_set_node_spill_cost@Base 9.0.1
 ra_simplify@Base 9.0.1
 ralloc_array_size@Base 9.0.1
 ralloc_asprintf@Base 9.0.1
 ralloc_asprintf_append@Base 9.0.1
 ralloc_asprintf_rewrite_tail@Base 9.0.1
 ralloc_autofree_context@Base 9.0.1
 ralloc_context@Base 9.0.1
 ralloc_free@Base 9.0.1
 ralloc_parent@Base 9.0.1
 ralloc_set_destructor@Base 9.0.1
 ralloc_size@Base 9.0.1
 ralloc_steal@Base 9.0.1
 ralloc_strcat@Base 9.0.1
 ralloc_strdup@Base 9.0.1
 ralloc_strncat@Base 9.0.1
 ralloc_strndup@Base 9.0.1
 ralloc_vasprintf@Base 9.0.1
 ralloc_vasprintf_append@Base 9.0.1
 ralloc_vasprintf_rewrite_tail@Base 9.0.1
 reralloc_array_size@Base 9.0.1
 reralloc_size@Base 9.0.1
 rzalloc_array_size@Base 9.0.1
 rzalloc_size@Base 9.0.1
 split_prim_inplace@Base 9.0.1
 string_to_uint_map_ctor@Base 9.0.1
 string_to_uint_map_dtor@Base 9.0.1
 swrast_fast_copy_pixels@Base 9.0.1
 tex_opcode_strs@Base 9.0.1
 tnl_clip_prepare@Base 9.0.1
 undef_dst@Base 9.0.1
 undef_src@Base 9.0.1
 vbo_all_varyings_in_vbos@Base 9.0.1
 vbo_always_unmap_buffers@Base 9.0.1
 vbo_any_varyings_in_vbos@Base 9.0.1
 vbo_bind_arrays@Base 9.0.1
 vbo_check_buffers_are_unmapped@Base 9.0.1
 vbo_exec_BeginVertices@Base 9.0.1
 vbo_exec_FlushVertices@Base 9.0.1
 vbo_exec_array_destroy@Base 9.0.1
 vbo_exec_array_init@Base 9.0.1
 vbo_exec_destroy@Base 9.0.1
 vbo_exec_do_EvalCoord1f@Base 9.0.1
 vbo_exec_do_EvalCoord2f@Base 9.0.1
 vbo_exec_eval_update@Base 9.0.1
 vbo_exec_init@Base 9.0.1
 vbo_exec_invalidate_state@Base 9.0.1
 vbo_exec_vtx_destroy@Base 9.0.1
 vbo_exec_vtx_flush@Base 9.0.1
 vbo_exec_vtx_init@Base 9.0.1
 vbo_exec_vtx_map@Base 9.0.1
 vbo_exec_vtx_wrap@Base 9.0.1
 vbo_get_minmax_indices@Base 9.0.1
 vbo_loopback_vertex_list@Base 9.0.1
 vbo_rebase_prims@Base 9.0.1
 vbo_save_BeginCallList@Base 9.0.1
 vbo_save_EndCallList@Base 9.0.1
 vbo_save_EndList@Base 9.0.1
 vbo_save_NewList@Base 9.0.1
 vbo_save_NotifyBegin@Base 9.0.1
 vbo_save_SaveFlushVertices@Base 9.0.1
 vbo_save_api_init@Base 9.0.1
 vbo_save_destroy@Base 9.0.1
 vbo_save_fallback@Base 9.0.1
 vbo_save_init@Base 9.0.1
 vbo_save_map_vertex_store@Base 9.0.1
 vbo_save_playback_vertex_list@Base 9.0.1
 vbo_save_unmap_vertex_store@Base 9.0.1
 vbo_set_draw_func@Base 9.0.1
 vbo_split_copy@Base 9.0.1
 vbo_split_inplace@Base 9.0.1
 vbo_split_prims@Base 9.0.1
 vbo_sw_primitive_restart@Base 9.0.1
 vbo_use_buffer_objects@Base 9.0.1
 x86sse_c_dummy_var@Base 9.0.1
