libnux-4.0.so.0 libnux0 #MINVER#
 _ZN15ProgramTemplate15GetWindowThreadEv@Base 4.0~bzr753
 _ZN15ProgramTemplate15ProgramExitCallEPv@Base 4.0~bzr753
 _ZN15ProgramTemplate17SendMessageToTestERKSs@Base 4.0.0
 _ZN15ProgramTemplate17ThreadInitializerEPN3nux7NThreadEPv@Base 4.0.0
 _ZN15ProgramTemplate18UserInterfaceSetupEv@Base 4.0~bzr753
 _ZN15ProgramTemplate20HandleProgramMessageERKSs@Base 4.0.0
 _ZN15ProgramTemplate20SendMessageToProgramERKSs@Base 4.0.0
 _ZN15ProgramTemplate21WaitForConfigureEventEiiii@Base 4.0~bzr753
 _ZN15ProgramTemplate23MessageReceivedFromTestEv@Base 4.0.0
 _ZN15ProgramTemplate25WaitForMessageFromProgramERKSs@Base 4.0.0
 _ZN15ProgramTemplate3RunEv@Base 4.0~bzr753
 _ZN15ProgramTemplate7StartupEv@Base 4.0~bzr753
 _ZN15ProgramTemplate9ReadyToGoEv@Base 4.0~bzr753
 _ZN15ProgramTemplateC1EPKciii@Base 4.0~bzr753
 _ZN15ProgramTemplateC2EPKciii@Base 4.0~bzr753
 _ZN15ProgramTemplateD0Ev@Base 4.0~bzr753
 _ZN15ProgramTemplateD1Ev@Base 4.0~bzr753
 _ZN15ProgramTemplateD2Ev@Base 4.0~bzr753
 _ZN3nux10ActionItem14DrawAsMenuItemERNS_14GraphicsEngineERNS_9InputAreaEbb@Base 4.0~bzr753
 _ZN3nux10ActionItem16DrawAsToolButtonERNS_14GraphicsEngineERNS_9InputAreaE@Base 4.0~bzr753
 _ZN3nux10ActionItem16StaticObjectTypeE@Base 4.0~bzr753
 _ZN3nux10ActionItem6EnableEb@Base 4.0~bzr753
 _ZN3nux10ActionItem7GetIconEv@Base 4.0~bzr753
 _ZN3nux10ActionItem7SetIconEPKNS_11BaseTextureE@Base 4.0~bzr753
 _ZN3nux10ActionItem8ActivateEb@Base 4.0~bzr753
 _ZN3nux10ActionItem8SetLabelEPKc@Base 4.0~bzr753
 _ZN3nux10ActionItemC1EPKciS2_i@Base 4.0~bzr753
 _ZN3nux10ActionItemC2EPKciS2_i@Base 4.0~bzr753
 _ZN3nux10ActionItemD0Ev@Base 4.0~bzr753
 _ZN3nux10ActionItemD1Ev@Base 4.0~bzr753
 _ZN3nux10ActionItemD2Ev@Base 4.0~bzr753
 _ZN3nux10BaseWindow10GetOpacityEv@Base 4.0~bzr753
 _ZN3nux10BaseWindow10PushHigherEPS0_@Base 4.0~bzr753
 _ZN3nux10BaseWindow10PushToBackEv@Base 4.0~bzr753
 _ZN3nux10BaseWindow10SetOpacityEf@Base 4.0~bzr753
 _ZN3nux10BaseWindow10ShowWindowEbb@Base 4.0~bzr753
 _ZN3nux10BaseWindow11DrawContentERNS_14GraphicsEngineEb@Base 4.0~bzr753
 _ZN3nux10BaseWindow11PushToFrontEv@Base 4.0~bzr753
 _ZN3nux10BaseWindow11SetGeometryERKNS_4RectE@Base 4.0~bzr753
 _ZN3nux10BaseWindow12SetTopBorderEi@Base 4.0~bzr753
 _ZN3nux10BaseWindow13SetInputFocusEv@Base 4.0~bzr753
 _ZN3nux10BaseWindow16ChildNeedsRedrawEv@Base 4.0~bzr753
 _ZN3nux10BaseWindow16GetInputWindowIdEv@Base 4.0~bzr753
 _ZN3nux10BaseWindow16StaticObjectTypeE@Base 4.0~bzr753
 _ZN3nux10BaseWindow17AcceptKeyNavFocusEv@Base 4.0~bzr753
 _ZN3nux10BaseWindow17EnableInputWindowEbPKcbb@Base 4.0~bzr753
 _ZN3nux10BaseWindow18FindAreaUnderMouseERKNS_7Point2DIiEENS_9EventTypeE@Base 4.0~bzr753
 _ZN3nux10BaseWindow18InputWindowEnabledEv@Base 4.0~bzr753
 _ZN3nux10BaseWindow18SetBackgroundColorERKNS_5color5ColorE@Base 4.0~bzr753
 _ZN3nux10BaseWindow18SetBackgroundLayerEPNS_18AbstractPaintLayerE@Base 4.0~bzr753
 _ZN3nux10BaseWindow19PreLayoutManagementEv@Base 4.0~bzr753
 _ZN3nux10BaseWindow20GetBackupTextureDataERiS1_S1_@Base 4.0~bzr753
 _ZN3nux10BaseWindow20LayoutWindowElementsEv@Base 4.0~bzr753
 _ZN3nux10BaseWindow20PostLayoutManagementEl@Base 4.0~bzr753
 _ZN3nux10BaseWindow20SetAcceptKeyNavFocusEb@Base 4.0~bzr753
 _ZN3nux10BaseWindow22ComputeContentPositionEff@Base 4.0~bzr753
 _ZN3nux10BaseWindow22SetEnterFocusInputAreaEPNS_9InputAreaE@Base 4.0~bzr753
 _ZN3nux10BaseWindow23InputWindowEnableStrutsEb@Base 4.0~bzr753
 _ZN3nux10BaseWindow24GetInputAreaHitByGestureERKNS_12GestureEventE@Base 4.0~bzr753
 _ZN3nux10BaseWindow24InputWindowStrutsEnabledEv@Base 4.0~bzr753
 _ZN3nux10BaseWindow24SetWindowSizeMatchLayoutEb@Base 4.0~bzr753
 _ZN3nux10BaseWindow25NotifyConfigurationChangeEii@Base 4.0~bzr753
 _ZN3nux10BaseWindow26SetConfigureNotifyCallbackEPFviiRNS_4RectEPvES3_@Base 4.0~bzr753
 _ZN3nux10BaseWindow30InputWindowEnableOverlayStrutsEb@Base 4.0~bzr753
 _ZN3nux10BaseWindow31InputWindowOverlayStrutsEnabledEv@Base 4.0~bzr753
 _ZN3nux10BaseWindow4DrawERNS_14GraphicsEngineEb@Base 4.0~bzr753
 _ZN3nux10BaseWindow9GetLayoutEv@Base 4.0~bzr753
 _ZN3nux10BaseWindow9SetBorderEi@Base 4.0~bzr753
 _ZN3nux10BaseWindow9SetLayoutEPNS_6LayoutE@Base 4.0~bzr753
 _ZN3nux10BaseWindow9StopModalEv@Base 4.0~bzr753
 _ZN3nux10BaseWindowC1EPKcS2_i@Base 4.0~bzr753
 _ZN3nux10BaseWindowC2EPKcS2_i@Base 4.0~bzr753
 _ZN3nux10BaseWindowD0Ev@Base 4.0~bzr753
 _ZN3nux10BaseWindowD1Ev@Base 4.0~bzr753
 _ZN3nux10BaseWindowD2Ev@Base 4.0~bzr753
 _ZN3nux10COLOR_BLUEE@Base 4.0~bzr753
 _ZN3nux10ClientArea10ClientDrawERNS_14GraphicsEngineERNS_15DrawAreaContextEb@Base 4.0~bzr753
 _ZN3nux10ClientArea11DrawContentERNS_14GraphicsEngineEb@Base 4.0~bzr753
 _ZN3nux10ClientArea11RecvMouseUpEiimm@Base 4.0~bzr753
 _ZN3nux10ClientArea11Setup2DModeERNS_14GraphicsEngineE@Base 4.0~bzr753
 _ZN3nux10ClientArea12RecvKeyEventEmmmPKct@Base 4.0~bzr753
 _ZN3nux10ClientArea13RecvMouseDownEiimm@Base 4.0~bzr753
 _ZN3nux10ClientArea13RecvMouseDragEiiiimm@Base 4.0~bzr753
 _ZN3nux10ClientArea13RecvMouseMoveEiiiimm@Base 4.0~bzr753
 _ZN3nux10ClientArea17AcceptKeyNavFocusEv@Base 4.0~bzr753
 _ZN3nux10ClientArea17SetClientViewportERNS_14GraphicsEngineE@Base 4.0~bzr753
 _ZN3nux10ClientArea4DrawERNS_14GraphicsEngineEb@Base 4.0~bzr753
 _ZN3nux10ClientArea9BeginDrawERNS_14GraphicsEngineEb@Base 4.0~bzr753
 _ZN3nux10ClientAreaC1EPKci@Base 4.0~bzr753
 _ZN3nux10ClientAreaC2EPKci@Base 4.0~bzr753
 _ZN3nux10ClientAreaD0Ev@Base 4.0~bzr753
 _ZN3nux10ClientAreaD1Ev@Base 4.0~bzr753
 _ZN3nux10ClientAreaD2Ev@Base 4.0~bzr753
 _ZN3nux10ColorLayer11RenderlayerERNS_14GraphicsEngineE@Base 4.0~bzr753
 _ZN3nux10ColorLayer8SetColorERKNS_5color5ColorE@Base 4.0~bzr753
 _ZN3nux10ColorLayerC1ERKNS_5color5ColorEbRKNS_9ROPConfigE@Base 4.0~bzr753
 _ZN3nux10ColorLayerC2ERKNS_5color5ColorEbRKNS_9ROPConfigE@Base 4.0~bzr753
 _ZN3nux10ColorLayerD0Ev@Base 4.0~bzr753
 _ZN3nux10ColorLayerD1Ev@Base 4.0~bzr753
 _ZN3nux10ColorLayerD2Ev@Base 4.0~bzr753
 _ZN3nux10GestureSet14FindFromTargetESt10shared_ptrINS_13GestureTargetEE@Base 4.0~bzr753
 _ZN3nux10GestureSet17FindFromGestureIdEi@Base 4.0~bzr753
 _ZN3nux10GestureSet22GetConflictingGesturesERSt10shared_ptrINS_7GestureEE@Base 4.0~bzr753
 _ZN3nux10GestureSet3AddEPNS_7GestureE@Base 4.0~bzr753
 _ZN3nux10GestureSet3AddERSt10shared_ptrINS_7GestureEE@Base 4.0~bzr753
 _ZN3nux10GestureSet6RemoveERKNS_7GestureE@Base 4.0~bzr753
 _ZN3nux10GetPainterEv@Base 4.0~bzr753
 _ZN3nux10GetSysFontEv@Base 4.0~bzr753
 _ZN3nux10HScrollBar10ScrollLeftEPv@Base 4.0~bzr753
 _ZN3nux10HScrollBar10TrackRightEPv@Base 4.0~bzr753
 _ZN3nux10HScrollBar11DrawContentERNS_14GraphicsEngineEb@Base 4.0~bzr753
 _ZN3nux10HScrollBar11ScrollRightEPv@Base 4.0~bzr753
 _ZN3nux10HScrollBar14SetContentSizeEiiii@Base 4.0~bzr753
 _ZN3nux10HScrollBar15OnSliderMouseUpEiimm@Base 4.0~bzr753
 _ZN3nux10HScrollBar16ComputeScrollingEv@Base 4.0~bzr753
 _ZN3nux10HScrollBar16RecvTrackMouseUpEiimm@Base 4.0~bzr753
 _ZN3nux10HScrollBar16SetContainerSizeEiiii@Base 4.0~bzr753
 _ZN3nux10HScrollBar16SetContentOffsetEff@Base 4.0~bzr753
 _ZN3nux10HScrollBar16SetParameterNameEPKc@Base 4.0~bzr753
 _ZN3nux10HScrollBar17HScrollBarHandlerEPv@Base 4.0~bzr753
 _ZN3nux10HScrollBar17OnSliderMouseDownEiimm@Base 4.0~bzr753
 _ZN3nux10HScrollBar17OnSliderMouseDragEiiiimm@Base 4.0~bzr753
 _ZN3nux10HScrollBar17RecvEndScrollLeftEiimm@Base 4.0~bzr753
 _ZN3nux10HScrollBar18FindAreaUnderMouseERKNS_7Point2DIiEENS_9EventTypeE@Base 4.0~bzr753
 _ZN3nux10HScrollBar18RecvEndScrollRightEiimm@Base 4.0~bzr753
 _ZN3nux10HScrollBar18RecvTrackMouseDownEiimm@Base 4.0~bzr753
 _ZN3nux10HScrollBar18RecvTrackMouseDragEiiiimm@Base 4.0~bzr753
 _ZN3nux10HScrollBar19RecvStartScrollLeftEiimm@Base 4.0~bzr753
 _ZN3nux10HScrollBar20PostLayoutManagementEl@Base 4.0~bzr753
 _ZN3nux10HScrollBar20RecvStartScrollRightEiimm@Base 4.0~bzr753
 _ZN3nux10HScrollBar4DrawERNS_14GraphicsEngineEb@Base 4.0~bzr753
 _ZN3nux10HScrollBar8SetValueEf@Base 4.0~bzr753
 _ZN3nux10HScrollBar9AtMaximumEv@Base 4.0~bzr753
 _ZN3nux10HScrollBar9AtMinimumEv@Base 4.0~bzr753
 _ZN3nux10HScrollBar9TrackLeftEPv@Base 4.0~bzr753
 _ZN3nux10HScrollBarC1EPKci@Base 4.0~bzr753
 _ZN3nux10HScrollBarC2EPKci@Base 4.0~bzr753
 _ZN3nux10HScrollBarD0Ev@Base 4.0~bzr753
 _ZN3nux10HScrollBarD1Ev@Base 4.0~bzr753
 _ZN3nux10HScrollBarD2Ev@Base 4.0~bzr753
 _ZN3nux10RangeValue10DrawMarkerERNS_14GraphicsEngineE@Base 4.0~bzr753
 _ZN3nux10RangeValue11DrawContentERNS_14GraphicsEngineEb@Base 4.0~bzr753
 _ZN3nux10RangeValue15OnKeyboardFocusEv@Base 4.0~bzr753
 _ZN3nux10RangeValue16InitializeLayoutEv@Base 4.0~bzr753
 _ZN3nux10RangeValue16OnReceiveMouseUpEiimm@Base 4.0~bzr753
 _ZN3nux10RangeValue16StaticObjectTypeE@Base 4.0~bzr753
 _ZN3nux10RangeValue17InitializeWidgetsEv@Base 4.0~bzr753
 _ZN3nux10RangeValue18OnReceiveMouseDownEiimm@Base 4.0~bzr753
 _ZN3nux10RangeValue18OnReceiveMouseDragEiiiimm@Base 4.0~bzr753
 _ZN3nux10RangeValue18SetBackgroundColorERKNS_5color5ColorE@Base 4.0~bzr753
 _ZN3nux10RangeValue19OnLostKeyboardFocusEv@Base 4.0~bzr753
 _ZN3nux10RangeValue22EmitFloatChangedSignalEv@Base 4.0~bzr753
 _ZN3nux10RangeValue23OnValidateKeyboardEntryEPNS_11EditTextBoxERKSs@Base 4.0~bzr753
 _ZN3nux10RangeValue4DrawERNS_14GraphicsEngineEb@Base 4.0~bzr753
 _ZN3nux10RangeValue8SetRangeEff@Base 4.0~bzr753
 _ZN3nux10RangeValue8SetValueEf@Base 4.0~bzr753
 _ZN3nux10RangeValueC1EfffPKci@Base 4.0~bzr753
 _ZN3nux10RangeValueC2EfffPKci@Base 4.0~bzr753
 _ZN3nux10RangeValueD0Ev@Base 4.0~bzr753
 _ZN3nux10RangeValueD1Ev@Base 4.0~bzr753
 _ZN3nux10RangeValueD2Ev@Base 4.0~bzr753
 _ZN3nux10ScrollView10ScrollDownEfi@Base 4.0~bzr753
 _ZN3nux10ScrollView10ScrollLeftEfi@Base 4.0~bzr753
 _ZN3nux10ScrollView11DrawContentERNS_14GraphicsEngineEb@Base 4.0~bzr753
 _ZN3nux10ScrollView11ScrollRightEfi@Base 4.0~bzr753
 _ZN3nux10ScrollView13FormatContentEv@Base 4.0~bzr753
 _ZN3nux10ScrollView13SetVScrollBarEPNS_10VScrollBarE@Base 4.0~bzr753
 _ZN3nux10ScrollView14RecvMouseWheelEiiilm@Base 4.0~bzr753
 _ZN3nux10ScrollView15ResetScrollToUpEv@Base 4.0~bzr753
 _ZN3nux10ScrollView16StaticObjectTypeE@Base 4.0~bzr753
 _ZN3nux10ScrollView17AcceptKeyNavFocusEv@Base 4.0~bzr753
 _ZN3nux10ScrollView17ResetScrollToDownEv@Base 4.0~bzr753
 _ZN3nux10ScrollView17ResetScrollToLeftEv@Base 4.0~bzr753
 _ZN3nux10ScrollView18FindAreaUnderMouseERKNS_7Point2DIiEENS_9EventTypeE@Base 4.0~bzr753
 _ZN3nux10ScrollView18ResetScrollToRightEv@Base 4.0~bzr753
 _ZN3nux10ScrollView19PreLayoutManagementEv@Base 4.0~bzr753
 _ZN3nux10ScrollView20PostLayoutManagementEl@Base 4.0~bzr753
 _ZN3nux10ScrollView22ComputeContentPositionEff@Base 4.0~bzr753
 _ZN3nux10ScrollView23EnableVerticalScrollBarEb@Base 4.0~bzr753
 _ZN3nux10ScrollView25EnableHorizontalScrollBarEb@Base 4.0~bzr753
 _ZN3nux10ScrollView4DrawERNS_14GraphicsEngineEb@Base 4.0~bzr753
 _ZN3nux10ScrollView8ScrollUpEfi@Base 4.0~bzr753
 _ZN3nux10ScrollView9SetLayoutEPNS_6LayoutE@Base 4.0~bzr753
 _ZN3nux10ScrollViewC1EPKci@Base 4.0~bzr753
 _ZN3nux10ScrollViewC2EPKci@Base 4.0~bzr753
 _ZN3nux10ScrollViewD0Ev@Base 4.0~bzr753
 _ZN3nux10ScrollViewD1Ev@Base 4.0~bzr753
 _ZN3nux10ScrollViewD2Ev@Base 4.0~bzr753
 _ZN3nux10ShapeLayer11RenderlayerERNS_14GraphicsEngineE@Base 4.0~bzr753
 _ZN3nux10ShapeLayerC1ENS_15UXStyleImageRefERKNS_5color5ColorEmbRKNS_9ROPConfigE@Base 4.0~bzr753
 _ZN3nux10ShapeLayerC2ENS_15UXStyleImageRefERKNS_5color5ColorEmbRKNS_9ROPConfigE@Base 4.0~bzr753
 _ZN3nux10ShapeLayerD0Ev@Base 4.0~bzr753
 _ZN3nux10ShapeLayerD1Ev@Base 4.0~bzr753
 _ZN3nux10ShapeLayerD2Ev@Base 4.0~bzr753
 _ZN3nux10StaticText11SetClippingEi@Base 4.0~bzr753
 _ZN3nux10StaticText11SetFontNameERKSs@Base 4.0~bzr753
 _ZN3nux10StaticText11SetFontSizeEi@Base 4.0~bzr753
 _ZN3nux10StaticText12SetTextColorERKNS_5color5ColorE@Base 4.0~bzr753
 _ZN3nux10StaticText13ApplyMinWidthEv@Base 4.0~bzr753
 _ZN3nux10StaticText13RasterizeTextEPvNS_5color5ColorE@Base 4.0~bzr753
 _ZN3nux10StaticText14GetTextTextureEv@Base 4.0~bzr753
 _ZN3nux10StaticText15ComputeTextSizeEbb@Base 4.0~bzr753
 _ZN3nux10StaticText16SetMaximumHeightEv@Base 4.0~bzr753
 _ZN3nux10StaticText16SetMinimumHeightEv@Base 4.0~bzr753
 _ZN3nux10StaticText16SetSizeMatchTextEb@Base 4.0~bzr753
 _ZN3nux10StaticText16SetTextAlignmentENS0_13TextAlignmentE@Base 4.0~bzr753
 _ZN3nux10StaticText16SetTextPointSizeEi@Base 4.0~bzr753
 _ZN3nux10StaticText16StaticObjectTypeE@Base 4.0~bzr753
 _ZN3nux10StaticText17GetTextSizeNoClipEv@Base 4.0~bzr753
 _ZN3nux10StaticText18ComputeContentSizeEv@Base 4.0~bzr753
 _ZN3nux10StaticText19UpdateTextRenderingEv@Base 4.0~bzr753
 _ZN3nux10StaticText4DrawERNS_14GraphicsEngineEb@Base 4.0~bzr753
 _ZN3nux10StaticText7SetTextERKSs@Base 4.0~bzr753
 _ZN3nux10StaticTextC1ERKSsPKci@Base 4.0~bzr753
 _ZN3nux10StaticTextC2ERKSsPKci@Base 4.0~bzr753
 _ZN3nux10StaticTextD0Ev@Base 4.0~bzr753
 _ZN3nux10StaticTextD1Ev@Base 4.0~bzr753
 _ZN3nux10StaticTextD2Ev@Base 4.0~bzr753
 _ZN3nux10TextLoader13CreateTextureEv@Base 4.0~bzr753
 _ZN3nux10TextLoader4Impl13RasterizeTextEPvNS_5color5ColorE@Base 4.0~bzr753
 _ZN3nux10TextLoader4Impl15ComputeTextSizeEv@Base 4.0~bzr753
 _ZN3nux10TextLoader4Impl16GetPangoFontNameEv@Base 4.0~bzr753
 _ZN3nux10TextLoader4ImplC1EPS0_@Base 4.0~bzr753
 _ZN3nux10TextLoader4ImplC2EPS0_@Base 4.0~bzr753
 _ZN3nux10TextLoader4ImplD1Ev@Base 4.0~bzr753
 _ZN3nux10TextLoader4ImplD2Ev@Base 4.0~bzr753
 _ZN3nux10TextLoaderC1Ev@Base 4.0~bzr753
 _ZN3nux10TextLoaderC2Ev@Base 4.0~bzr753
 _ZN3nux10TextLoaderD1Ev@Base 4.0~bzr753
 _ZN3nux10TextLoaderD2Ev@Base 4.0~bzr753
 _ZN3nux10ToolButton11DrawContentERNS_14GraphicsEngineEb@Base 4.0~bzr753
 _ZN3nux10ToolButton11RecvMouseUpEiimm@Base 4.0~bzr753
 _ZN3nux10ToolButton13RecvMouseDownEiimm@Base 4.0~bzr753
 _ZN3nux10ToolButton14RecvMouseEnterEiimm@Base 4.0~bzr753
 _ZN3nux10ToolButton14RecvMouseLeaveEiimm@Base 4.0~bzr753
 _ZN3nux10ToolButton20RecvMouseDoubleClickEiimm@Base 4.0~bzr753
 _ZN3nux10ToolButton4DrawERNS_14GraphicsEngineEb@Base 4.0~bzr753
 _ZN3nux10ToolButton8SetStateEb@Base 4.0~bzr753
 _ZN3nux10ToolButton9EmitClickEiimm@Base 4.0~bzr753
 _ZN3nux10ToolButton9SetActionEPNS_10ActionItemE@Base 4.0~bzr753
 _ZN3nux10ToolButton9SetBitmapEPKNS_11BaseTextureE@Base 4.0~bzr753
 _ZN3nux10ToolButtonC1EPKcS2_i@Base 4.0~bzr753
 _ZN3nux10ToolButtonC2EPKcS2_i@Base 4.0~bzr753
 _ZN3nux10ToolButtonD0Ev@Base 4.0~bzr753
 _ZN3nux10ToolButtonD1Ev@Base 4.0~bzr753
 _ZN3nux10ToolButtonD2Ev@Base 4.0~bzr753
 _ZN3nux10VScrollBar10ScrollDownEPv@Base 4.0~bzr753
 _ZN3nux10VScrollBar11DrawContentERNS_14GraphicsEngineEb@Base 4.0~bzr753
 _ZN3nux10VScrollBar14SetContentSizeEiiii@Base 4.0~bzr753
 _ZN3nux10VScrollBar15OnSliderMouseUpEiimm@Base 4.0~bzr753
 _ZN3nux10VScrollBar15RecvEndScrollUpEiimm@Base 4.0~bzr753
 _ZN3nux10VScrollBar16ComputeScrollingEv@Base 4.0~bzr753
 _ZN3nux10VScrollBar16RecvTrackMouseUpEiimm@Base 4.0~bzr753
 _ZN3nux10VScrollBar16SetContainerSizeEiiii@Base 4.0~bzr753
 _ZN3nux10VScrollBar16SetContentOffsetEff@Base 4.0~bzr753
 _ZN3nux10VScrollBar16SetParameterNameEPKc@Base 4.0~bzr753
 _ZN3nux10VScrollBar17OnSliderMouseDownEiimm@Base 4.0~bzr753
 _ZN3nux10VScrollBar17OnSliderMouseDragEiiiimm@Base 4.0~bzr753
 _ZN3nux10VScrollBar17RecvEndScrollDownEiimm@Base 4.0~bzr753
 _ZN3nux10VScrollBar17RecvStartScrollUpEiimm@Base 4.0~bzr753
 _ZN3nux10VScrollBar17VScrollBarHandlerEPv@Base 4.0~bzr753
 _ZN3nux10VScrollBar18FindAreaUnderMouseERKNS_7Point2DIiEENS_9EventTypeE@Base 4.0~bzr753
 _ZN3nux10VScrollBar18RecvTrackMouseDownEiimm@Base 4.0~bzr753
 _ZN3nux10VScrollBar18RecvTrackMouseDragEiiiimm@Base 4.0~bzr753
 _ZN3nux10VScrollBar19RecvStartScrollDownEiimm@Base 4.0~bzr753
 _ZN3nux10VScrollBar20PostLayoutManagementEl@Base 4.0~bzr753
 _ZN3nux10VScrollBar4DrawERNS_14GraphicsEngineEb@Base 4.0~bzr753
 _ZN3nux10VScrollBar7TrackUpEPv@Base 4.0~bzr753
 _ZN3nux10VScrollBar8ScrollUpEPv@Base 4.0~bzr753
 _ZN3nux10VScrollBar8SetValueEf@Base 4.0~bzr753
 _ZN3nux10VScrollBar9AtMaximumEv@Base 4.0~bzr753
 _ZN3nux10VScrollBar9AtMinimumEv@Base 4.0~bzr753
 _ZN3nux10VScrollBar9TrackDownEPv@Base 4.0~bzr753
 _ZN3nux10VScrollBarC1EPKci@Base 4.0~bzr753
 _ZN3nux10VScrollBarC2EPKci@Base 4.0~bzr753
 _ZN3nux10VScrollBarD0Ev@Base 4.0~bzr753
 _ZN3nux10VScrollBarD1Ev@Base 4.0~bzr753
 _ZN3nux10VScrollBarD2Ev@Base 4.0~bzr753
 _ZN3nux11BasePainter13PaintCheckBoxERNS_14GraphicsEngineERKNS_4RectERKNS_13InteractStateENS_5color5ColorESA_@Base 4.0~bzr753
 _ZN3nux11BasePainter13PopBackgroundEi@Base 4.0~bzr753
 _ZN3nux11BasePainter13PopPaintLayerEi@Base 4.0~bzr753
 _ZN3nux11BasePainter13PushDrawLayerERNS_14GraphicsEngineERKNS_4RectEPNS_18AbstractPaintLayerE@Base 4.0~bzr753
 _ZN3nux11BasePainter14PushColorLayerERNS_14GraphicsEngineERKNS_4RectENS_5color5ColorEbRKNS_9ROPConfigE@Base 4.0~bzr753
 _ZN3nux11BasePainter14PushShapeLayerERNS_14GraphicsEngineENS_4RectENS_15UXStyleImageRefERKNS_5color5ColorEmbRKNS_9ROPConfigE@Base 4.0~bzr753
 _ZN3nux11BasePainter15PaintBackgroundERNS_14GraphicsEngineERKNS_4RectE@Base 4.0~bzr753
 _ZN3nux11BasePainter16PaintRadioButtonERNS_14GraphicsEngineERKNS_4RectERKNS_13InteractStateENS_5color5ColorESA_@Base 4.0~bzr753
 _ZN3nux11BasePainter16PushTextureLayerERNS_14GraphicsEngineENS_4RectENS_9ObjectPtrINS_18IOpenGLBaseTextureEEENS_13TexCoordXFormERKNS_5color5ColorEbRKNS_9ROPConfigE@Base 4.0~bzr753
 _ZN3nux11BasePainter18PaintAllLayerStackERNS_14GraphicsEngineERKNS_4RectE@Base 4.0~bzr753
 _ZN3nux11BasePainter18PopBackgroundStackEv@Base 4.0~bzr753
 _ZN3nux11BasePainter18PopPaintLayerStackEv@Base 4.0~bzr753
 _ZN3nux11BasePainter18PushDrawColorLayerERNS_14GraphicsEngineERKNS_4RectENS_5color5ColorEbRKNS_9ROPConfigE@Base 4.0~bzr753
 _ZN3nux11BasePainter18PushDrawShapeLayerERNS_14GraphicsEngineENS_4RectENS_15UXStyleImageRefERKNS_5color5ColorEmbRKNS_9ROPConfigE@Base 4.0~bzr753
 _ZN3nux11BasePainter19Draw2DTriangleColorERNS_14GraphicsEngineEiiiiiiNS_5color5ColorE@Base 4.0~bzr753
 _ZN3nux11BasePainter19Draw2DTriangleColorERNS_14GraphicsEngineEiiiiiiNS_5color5ColorES4_S4_@Base 4.0~bzr753
 _ZN3nux11BasePainter19PushBackgroundStackEv@Base 4.0~bzr753
 _ZN3nux11BasePainter19PushPaintLayerStackEv@Base 4.0~bzr753
 _ZN3nux11BasePainter20EmptyBackgroundStackEv@Base 4.0~bzr753
 _ZN3nux11BasePainter20PushCompositionLayerERNS_14GraphicsEngineENS_4RectENS_9ObjectPtrINS_18IOpenGLBaseTextureEEENS_13TexCoordXFormERKNS_5color5ColorES6_S7_SB_NS_14LayerBlendModeEbRKNS_9ROPConfigE@Base 4.0~bzr753
 _ZN3nux11BasePainter20PushCompositionLayerERNS_14GraphicsEngineENS_4RectENS_9ObjectPtrINS_18IOpenGLBaseTextureEEENS_13TexCoordXFormERKNS_5color5ColorESB_NS_14LayerBlendModeEbRKNS_9ROPConfigE@Base 4.0~bzr753
 _ZN3nux11BasePainter20PushCompositionLayerERNS_14GraphicsEngineENS_4RectERKNS_5color5ColorENS_9ObjectPtrINS_18IOpenGLBaseTextureEEENS_13TexCoordXFormES7_NS_14LayerBlendModeEbRKNS_9ROPConfigE@Base 4.0~bzr753
 _ZN3nux11BasePainter20PushDrawTextureLayerERNS_14GraphicsEngineENS_4RectENS_9ObjectPtrINS_18IOpenGLBaseTextureEEENS_13TexCoordXFormERKNS_5color5ColorEbRKNS_9ROPConfigE@Base 4.0~bzr753
 _ZN3nux11BasePainter22RenderSinglePaintLayerERNS_14GraphicsEngineENS_4RectEPNS_18AbstractPaintLayerE@Base 4.0~bzr753
 _ZN3nux11BasePainter24PushColorizeTextureLayerERNS_14GraphicsEngineENS_4RectENS_9ObjectPtrINS_18IOpenGLBaseTextureEEENS_13TexCoordXFormERKNS_5color5ColorEbRKNS_9ROPConfigESB_NS_14LayerBlendModeE@Base 4.0~bzr753
 _ZN3nux11BasePainter24PushDrawCompositionLayerERNS_14GraphicsEngineENS_4RectENS_9ObjectPtrINS_18IOpenGLBaseTextureEEENS_13TexCoordXFormERKNS_5color5ColorES6_S7_SB_NS_14LayerBlendModeEbRKNS_9ROPConfigE@Base 4.0~bzr753
 _ZN3nux11BasePainter24PushDrawCompositionLayerERNS_14GraphicsEngineENS_4RectENS_9ObjectPtrINS_18IOpenGLBaseTextureEEENS_13TexCoordXFormERKNS_5color5ColorESB_NS_14LayerBlendModeEbRKNS_9ROPConfigE@Base 4.0~bzr753
 _ZN3nux11BasePainter24PushDrawCompositionLayerERNS_14GraphicsEngineENS_4RectERKNS_5color5ColorENS_9ObjectPtrINS_18IOpenGLBaseTextureEEENS_13TexCoordXFormES7_NS_14LayerBlendModeEbRKNS_9ROPConfigE@Base 4.0~bzr753
 _ZN3nux11BasePainter26EmptyActivePaintLayerStackEv@Base 4.0~bzr753
 _ZN3nux11BasePainter26EmptyPushedPaintLayerStackEv@Base 4.0~bzr753
 _ZN3nux11BasePainter26PaintActivePaintLayerStackERNS_14GraphicsEngineERKNS_4RectE@Base 4.0~bzr753
 _ZN3nux11BasePainter27PaintHorizontalGradientQuadERNS_14GraphicsEngineERKNS_4RectEiPfPNS_5color5ColorE@Base 4.0~bzr753
 _ZN3nux11BasePainter27PushSliceScaledTextureLayerERNS_14GraphicsEngineENS_4RectENS_15UXStyleImageRefERKNS_5color5ColorEmbRKNS_9ROPConfigE@Base 4.0~bzr753
 _ZN3nux11BasePainter28PushDrawColorizeTextureLayerERNS_14GraphicsEngineENS_4RectENS_9ObjectPtrINS_18IOpenGLBaseTextureEEENS_13TexCoordXFormERKNS_5color5ColorEbRKNS_9ROPConfigESB_NS_14LayerBlendModeE@Base 4.0~bzr753
 _ZN3nux11BasePainter31PushDrawSliceScaledTextureLayerERNS_14GraphicsEngineENS_4RectENS_15UXStyleImageRefERKNS_5color5ColorEmbRKNS_9ROPConfigE@Base 4.0~bzr753
 _ZN3nux11BasePainter9PushLayerERNS_14GraphicsEngineERKNS_4RectEPNS_18AbstractPaintLayerE@Base 4.0~bzr753
 _ZN3nux11BasePainterC1EPNS_12WindowThreadE@Base 4.0~bzr753
 _ZN3nux11BasePainterC2EPNS_12WindowThreadE@Base 4.0~bzr753
 _ZN3nux11BasePainterD0Ev@Base 4.0~bzr753
 _ZN3nux11BasePainterD1Ev@Base 4.0~bzr753
 _ZN3nux11BasePainterD2Ev@Base 4.0~bzr753
 _ZN3nux11COLOR_BLACKE@Base 4.0~bzr753
 _ZN3nux11COLOR_GREENE@Base 4.0~bzr753
 _ZN3nux11COLOR_WHITEE@Base 4.0~bzr753
 _ZN3nux11ColorEditor11DrawContentERNS_14GraphicsEngineEb@Base 4.0~bzr753
 _ZN3nux11ColorEditor11RecvMouseUpEiimm@Base 4.0~bzr753
 _ZN3nux11ColorEditor13RecvMouseDownEiimm@Base 4.0~bzr753
 _ZN3nux11ColorEditor13RecvMouseDragEiiiimm@Base 4.0~bzr753
 _ZN3nux11ColorEditor13SetColorModelENS_5color5ModelENS1_7ChannelE@Base 4.0~bzr753
 _ZN3nux11ColorEditor13SetSaturationEd@Base 4.0~bzr753
 _ZN3nux11ColorEditor15SetMaximumWidthEv@Base 4.0~bzr753
 _ZN3nux11ColorEditor15SetMinimumWidthEv@Base 4.0~bzr753
 _ZN3nux11ColorEditor16SetMaximumHeightEv@Base 4.0~bzr753
 _ZN3nux11ColorEditor16SetMinimumHeightEv@Base 4.0~bzr753
 _ZN3nux11ColorEditor16picker_area_sizeE@Base 4.0~bzr753
 _ZN3nux11ColorEditor17AcceptKeyNavFocusEv@Base 4.0~bzr753
 _ZN3nux11ColorEditor17RecvPickerMouseUpEiimm@Base 4.0~bzr753
 _ZN3nux11ColorEditor18channel_area_widthE@Base 4.0~bzr753
 _ZN3nux11ColorEditor19PreLayoutManagementEv@Base 4.0~bzr753
 _ZN3nux11ColorEditor19RecvCheckColorModelEbNS_5color5ModelENS1_7ChannelE@Base 4.0~bzr753
 _ZN3nux11ColorEditor19RecvPickerMouseDownEiimm@Base 4.0~bzr753
 _ZN3nux11ColorEditor19RecvPickerMouseDragEiiiimm@Base 4.0~bzr753
 _ZN3nux11ColorEditor20RecvCheckColorModel0EPNS_14AbstractButtonENS_5color5ModelENS3_7ChannelE@Base 4.0~bzr753
 _ZN3nux11ColorEditor21DrawBaseChannelMarkerERNS_14GraphicsEngineE@Base 4.0~bzr753
 _ZN3nux11ColorEditor4DrawERNS_14GraphicsEngineEb@Base 4.0~bzr753
 _ZN3nux11ColorEditor6SetHSVEddd@Base 4.0~bzr753
 _ZN3nux11ColorEditor6SetHueEd@Base 4.0~bzr753
 _ZN3nux11ColorEditor6SetRGBERKNS_5color5ColorE@Base 4.0~bzr753
 _ZN3nux11ColorEditor6SetRGBEddd@Base 4.0~bzr753
 _ZN3nux11ColorEditor6SetRedEd@Base 4.0~bzr753
 _ZN3nux11ColorEditor7DrawHSVERNS_14GraphicsEngineEb@Base 4.0~bzr753
 _ZN3nux11ColorEditor7DrawRGBERNS_14GraphicsEngineEb@Base 4.0~bzr753
 _ZN3nux11ColorEditor7SetBlueEd@Base 4.0~bzr753
 _ZN3nux11ColorEditor8SetGreenEd@Base 4.0~bzr753
 _ZN3nux11ColorEditor8SetValueEd@Base 4.0~bzr753
 _ZN3nux11ColorEditorC1EPKci@Base 4.0~bzr753
 _ZN3nux11ColorEditorC2EPKci@Base 4.0~bzr753
 _ZN3nux11ColorEditorD0Ev@Base 4.0~bzr753
 _ZN3nux11ColorEditorD1Ev@Base 4.0~bzr753
 _ZN3nux11ColorEditorD2Ev@Base 4.0~bzr753
 _ZN3nux11EditTextBox11DrawContentERNS_14GraphicsEngineEb@Base 4.0~bzr753
 _ZN3nux11EditTextBox11RecvMouseUpEiimm@Base 4.0~bzr753
 _ZN3nux11EditTextBox12RecvKeyEventEmmmPKct@Base 4.0~bzr753
 _ZN3nux11EditTextBox12SetValidatorEPKNS_9ValidatorE@Base 4.0~bzr753
 _ZN3nux11EditTextBox13RecvMouseDownEiimm@Base 4.0~bzr753
 _ZN3nux11EditTextBox13RecvMouseDragEiiiimm@Base 4.0~bzr753
 _ZN3nux11EditTextBox14SetDoubleValueEd@Base 4.0~bzr753
 _ZN3nux11EditTextBox15InspectKeyEventEjjPKc@Base 4.0~bzr753
 _ZN3nux11EditTextBox15RecvEndKeyFocusEv@Base 4.0~bzr753
 _ZN3nux11EditTextBox15SetIntegerValueEi@Base 4.0~bzr753
 _ZN3nux11EditTextBox15StopBlinkCursorEb@Base 4.0~bzr753
 _ZN3nux11EditTextBox16StartBlinkCursorEb@Base 4.0~bzr753
 _ZN3nux11EditTextBox17RecvStartKeyFocusEv@Base 4.0~bzr753
 _ZN3nux11EditTextBox19EscapeKeyboardFocusEv@Base 4.0~bzr753
 _ZN3nux11EditTextBox20PostLayoutManagementEl@Base 4.0~bzr753
 _ZN3nux11EditTextBox20QuitingKeyboardFocusEv@Base 4.0~bzr753
 _ZN3nux11EditTextBox20RecvMouseDoubleClickEiimm@Base 4.0~bzr753
 _ZN3nux11EditTextBox20ScrollTimerInterruptEPv@Base 4.0~bzr753
 _ZN3nux11EditTextBox21EnteringKeyboardFocusEv@Base 4.0~bzr753
 _ZN3nux11EditTextBox22SetTextBackgroundColorERKNS_5color5ColorE@Base 4.0~bzr753
 _ZN3nux11EditTextBox25BlinkCursorTimerInterruptEPv@Base 4.0~bzr753
 _ZN3nux11EditTextBox4DrawERNS_14GraphicsEngineEb@Base 4.0~bzr753
 _ZN3nux11EditTextBox7IsEmptyEv@Base 4.0~bzr753
 _ZN3nux11EditTextBox7SetTextEPKc@Base 4.0~bzr753
 _ZN3nux11EditTextBox7SetTextERKSs@Base 4.0~bzr753
 _ZN3nux11EditTextBoxC1EPKcS2_i@Base 4.0~bzr753
 _ZN3nux11EditTextBoxC2EPKcS2_i@Base 4.0~bzr753
 _ZN3nux11EditTextBoxD0Ev@Base 4.0~bzr753
 _ZN3nux11EditTextBoxD1Ev@Base 4.0~bzr753
 _ZN3nux11EditTextBoxD2Ev@Base 4.0~bzr753
 _ZN3nux11GeisAdapter12FillNuxEventERNS_12GestureEventEP10_GeisEventNS_9EventTypeE@Base 4.0~bzr753
 _ZN3nux11GeisAdapter13CreateGSourceEP13_GMainContext@Base 4.0~bzr753
 _ZN3nux11GeisAdapter16ProcessNextEventEPNS_12GestureEventE@Base 4.0~bzr753
 _ZN3nux11GeisAdapter17ProcessGeisEventsEv@Base 4.0~bzr753
 _ZN3nux11GeisAdapter19FillNuxEventTouchesERNS_12GestureEventEP13_GeisTouchSet@Base 4.0~bzr753
 _ZN3nux11GeisAdapter26ProcessEventClassAvailableEP10_GeisEvent@Base 4.0~bzr753
 _ZN3nux11GeisAdapter26SplitUpdateIntoBeginAndEndERNS_12GestureEventE@Base 4.0~bzr753
 _ZN3nux11GeisAdapter27ProcessEventDeviceAvailableEP10_GeisEvent@Base 4.0~bzr753
 _ZN3nux11GeisAdapter29FillNuxEventGestureAttributesERNS_12GestureEventEP10_GeisFrame@Base 4.0~bzr753
 _ZN3nux11GeisAdapter29ProcessEventDeviceUnavailableEP10_GeisEvent@Base 4.0~bzr753
 _ZN3nux11GeisAdapterC1Ev@Base 4.0~bzr753
 _ZN3nux11GeisAdapterC2Ev@Base 4.0~bzr753
 _ZN3nux11GeisAdapterD1Ev@Base 4.0~bzr753
 _ZN3nux11GeisAdapterD2Ev@Base 4.0~bzr753
 _ZN3nux11GridHLayout11GetChildPosEPNS_4AreaE@Base 4.0~bzr753
 _ZN3nux11GridHLayout11ProcessDrawERNS_14GraphicsEngineEb@Base 4.0~bzr753
 _ZN3nux11GridHLayout15KeyNavIterationENS_15KeyNavDirectionE@Base 4.0~bzr753
 _ZN3nux11GridHLayout15SetChildrenSizeEii@Base 4.0~bzr753
 _ZN3nux11GridHLayout15SetFillingOrderENS0_12FillingOrderE@Base 4.0~bzr753
 _ZN3nux11GridHLayout16GetCompositeListEPSt4listIPNS_4AreaESaIS3_EE@Base 4.0~bzr753
 _ZN3nux11GridHLayout16MatchContentSizeEb@Base 4.0~bzr753
 _ZN3nux11GridHLayout16StaticObjectTypeE@Base 4.0~bzr753
 _ZN3nux11GridHLayout17ForceChildrenSizeEb@Base 4.0~bzr753
 _ZN3nux11GridHLayout18ComputeContentSizeEv@Base 4.0~bzr753
 _ZN3nux11GridHLayout18GetChildAtPositionEi@Base 4.0~bzr753
 _ZN3nux11GridHLayout21ComputeLayoutRowOrderEv@Base 4.0~bzr753
 _ZN3nux11GridHLayout23EnablePartialVisibilityEb@Base 4.0~bzr753
 _ZN3nux11GridHLayout23KeyNavIterationRowOrderENS_15KeyNavDirectionE@Base 4.0~bzr753
 _ZN3nux11GridHLayout23SetSpaceBetweenChildrenEii@Base 4.0~bzr753
 _ZN3nux11GridHLayout24ComputeLayoutColumnOrderEv@Base 4.0~bzr753
 _ZN3nux11GridHLayout26KeyNavIterationColumnOrderENS_15KeyNavDirectionE@Base 4.0~bzr753
 _ZN3nux11GridHLayoutC1EPKci@Base 4.0~bzr753
 _ZN3nux11GridHLayoutC2EPKci@Base 4.0~bzr753
 _ZN3nux11GridHLayoutD0Ev@Base 4.0~bzr753
 _ZN3nux11GridHLayoutD1Ev@Base 4.0~bzr753
 _ZN3nux11GridHLayoutD2Ev@Base 4.0~bzr753
 _ZN3nux11MenuBarItem16StaticObjectTypeE@Base 4.0~bzr753
 _ZN3nux11MenuBarItemC1EPKci@Base 4.0~bzr753
 _ZN3nux11MenuBarItemC2EPKci@Base 4.0~bzr753
 _ZN3nux11MenuBarItemD0Ev@Base 4.0~bzr753
 _ZN3nux11MenuBarItemD1Ev@Base 4.0~bzr753
 _ZN3nux11MenuBarItemD2Ev@Base 4.0~bzr753
 _ZN3nux11PopUpWindow4HideEv@Base 4.0~bzr753
 _ZN3nux11PopUpWindow4ShowEv@Base 4.0~bzr753
 _ZN3nux11PopUpWindowC1Ev@Base 4.0~bzr753
 _ZN3nux11PopUpWindowC2Ev@Base 4.0~bzr753
 _ZN3nux11PopUpWindowD0Ev@Base 4.0~bzr753
 _ZN3nux11PopUpWindowD1Ev@Base 4.0~bzr753
 _ZN3nux11PopUpWindowD2Ev@Base 4.0~bzr753
 _ZN3nux11RGBValuator11DrawContentERNS_14GraphicsEngineEb@Base 4.0~bzr753
 _ZN3nux11RGBValuator13DrawRedMarkerERNS_14GraphicsEngineE@Base 4.0~bzr753
 _ZN3nux11RGBValuator13SetColorModelENS_5color5ModelE@Base 4.0~bzr753
 _ZN3nux11RGBValuator14DrawBlueMarkerERNS_14GraphicsEngineE@Base 4.0~bzr753
 _ZN3nux11RGBValuator14SetColorFormatENS_5color6FormatE@Base 4.0~bzr753
 _ZN3nux11RGBValuator15DrawAlphaMarkerERNS_14GraphicsEngineE@Base 4.0~bzr753
 _ZN3nux11RGBValuator15DrawGreenMarkerERNS_14GraphicsEngineE@Base 4.0~bzr753
 _ZN3nux11RGBValuator16InitializeLayoutEv@Base 4.0~bzr753
 _ZN3nux11RGBValuator16OnComponentInputEPNS_11EditTextBoxERKSsi@Base 4.0~bzr753
 _ZN3nux11RGBValuator16SetMaximumHeightEv@Base 4.0~bzr753
 _ZN3nux11RGBValuator16SetMinimumHeightEv@Base 4.0~bzr753
 _ZN3nux11RGBValuator16StaticObjectTypeE@Base 4.0~bzr753
 _ZN3nux11RGBValuator17AcceptKeyNavFocusEv@Base 4.0~bzr753
 _ZN3nux11RGBValuator17InitializeWidgetsEv@Base 4.0~bzr753
 _ZN3nux11RGBValuator18OnChangeColorModelEPNS_14AbstractButtonE@Base 4.0~bzr753
 _ZN3nux11RGBValuator19OnChangeColorFormatEPNS_14AbstractButtonE@Base 4.0~bzr753
 _ZN3nux11RGBValuator19PreLayoutManagementEv@Base 4.0~bzr753
 _ZN3nux11RGBValuator20OnReceiveMouseUp_RedEiimm@Base 4.0~bzr753
 _ZN3nux11RGBValuator21OnReceiveMouseUp_BlueEiimm@Base 4.0~bzr753
 _ZN3nux11RGBValuator22EmitColorChangedSignalEv@Base 4.0~bzr753
 _ZN3nux11RGBValuator22OnReceiveMouseDown_RedEiimm@Base 4.0~bzr753
 _ZN3nux11RGBValuator22OnReceiveMouseDrag_RedEiiiimm@Base 4.0~bzr753
 _ZN3nux11RGBValuator22OnReceiveMouseUp_GreenEiimm@Base 4.0~bzr753
 _ZN3nux11RGBValuator23OnReceiveMouseDown_BlueEiimm@Base 4.0~bzr753
 _ZN3nux11RGBValuator23OnReceiveMouseDrag_BlueEiiiimm@Base 4.0~bzr753
 _ZN3nux11RGBValuator23RecvMouseDownColorModelEiimm@Base 4.0~bzr753
 _ZN3nux11RGBValuator24OnReceiveMouseDown_AlphaEiimm@Base 4.0~bzr753
 _ZN3nux11RGBValuator24OnReceiveMouseDown_GreenEiimm@Base 4.0~bzr753
 _ZN3nux11RGBValuator24OnReceiveMouseDrag_AlphaEiiiimm@Base 4.0~bzr753
 _ZN3nux11RGBValuator24OnReceiveMouseDrag_GreenEiiiimm@Base 4.0~bzr753
 _ZN3nux11RGBValuator4DrawERNS_14GraphicsEngineEb@Base 4.0~bzr753
 _ZN3nux11RGBValuator6SetHLSEfff@Base 4.0~bzr753
 _ZN3nux11RGBValuator6SetHSVEfff@Base 4.0~bzr753
 _ZN3nux11RGBValuator6SetRGBERKNS_5color5ColorE@Base 4.0~bzr753
 _ZN3nux11RGBValuator6SetRGBEfff@Base 4.0~bzr753
 _ZN3nux11RGBValuator7DrawHLSERNS_14GraphicsEngineE@Base 4.0~bzr753
 _ZN3nux11RGBValuator7DrawHSVERNS_14GraphicsEngineE@Base 4.0~bzr753
 _ZN3nux11RGBValuator7DrawRGBERNS_14GraphicsEngineE@Base 4.0~bzr753
 _ZN3nux11RGBValuator7SetRGBAERKNS_5color5ColorE@Base 4.0~bzr753
 _ZN3nux11RGBValuator7SetRGBAEffff@Base 4.0~bzr753
 _ZN3nux11RGBValuator8SetAlphaEf@Base 4.0~bzr753
 _ZN3nux11RGBValuatorC1ENS_5color5ModelEffffPKci@Base 4.0~bzr753
 _ZN3nux11RGBValuatorC1EPKci@Base 4.0~bzr753
 _ZN3nux11RGBValuatorC1ERKNS_5color5ColorEPKci@Base 4.0~bzr753
 _ZN3nux11RGBValuatorC2ENS_5color5ModelEffffPKci@Base 4.0~bzr753
 _ZN3nux11RGBValuatorC2EPKci@Base 4.0~bzr753
 _ZN3nux11RGBValuatorC2ERKNS_5color5ColorEPKci@Base 4.0~bzr753
 _ZN3nux11RGBValuatorD0Ev@Base 4.0~bzr753
 _ZN3nux11RGBValuatorD1Ev@Base 4.0~bzr753
 _ZN3nux11RGBValuatorD2Ev@Base 4.0~bzr753
 _ZN3nux11RadioButton10DeactivateEv@Base 4.0~bzr753
 _ZN3nux11RadioButton15SetStatePrivateEb@Base 4.0~bzr753
 _ZN3nux11RadioButton15SetStatePrivateEbb@Base 4.0~bzr753
 _ZN3nux11RadioButton16SetMaximumHeightEv@Base 4.0~bzr753
 _ZN3nux11RadioButton16SetMinimumHeightEv@Base 4.0~bzr753
 _ZN3nux11RadioButton16StaticObjectTypeE@Base 4.0~bzr753
 _ZN3nux11RadioButton19GetRadioButtonGroupEv@Base 4.0~bzr753
 _ZN3nux11RadioButton19SetRadioButtonGroupEPNS_16RadioButtonGroupE@Base 4.0~bzr753
 _ZN3nux11RadioButton4DrawERNS_14GraphicsEngineEb@Base 4.0~bzr753
 _ZN3nux11RadioButton8ActivateEv@Base 4.0~bzr753
 _ZN3nux11RadioButton9RecvClickEiimm@Base 4.0~bzr753
 _ZN3nux11RadioButtonC1ERKSsbPKci@Base 4.0~bzr753
 _ZN3nux11RadioButtonC2ERKSsbPKci@Base 4.0~bzr753
 _ZN3nux11RadioButtonD0Ev@Base 4.0~bzr753
 _ZN3nux11RadioButtonD1Ev@Base 4.0~bzr753
 _ZN3nux11RadioButtonD2Ev@Base 4.0~bzr753
 _ZN3nux11SpaceLayout16StaticObjectTypeE@Base 4.0~bzr753
 _ZN3nux11SpaceLayout18ComputeContentSizeEv@Base 4.0~bzr753
 _ZN3nux11SpaceLayout22ComputeContentPositionEff@Base 4.0~bzr753
 _ZN3nux11SpaceLayout7AddViewEPNS_4AreaEjNS_22MinorDimensionPositionENS_18MinorDimensionSizeEfNS_14LayoutPositionE@Base 4.0~bzr753
 _ZN3nux11SpaceLayout8AddSpaceEjjNS_14LayoutPositionE@Base 4.0~bzr753
 _ZN3nux11SpaceLayout8CanFocusEv@Base 4.0~bzr753
 _ZN3nux11SpaceLayout9AddLayoutEPNS_6LayoutEjNS_22MinorDimensionPositionENS_18MinorDimensionSizeEfNS_14LayoutPositionE@Base 4.0~bzr753
 _ZN3nux11SpaceLayoutD0Ev@Base 4.0~bzr753
 _ZN3nux11SpaceLayoutD1Ev@Base 4.0~bzr753
 _ZN3nux11SpaceLayoutD2Ev@Base 4.0~bzr753
 _ZN3nux11SpawnThreadERNS_7NThreadE@Base 4.0~bzr753
 _ZN3nux11TextureArea10SetTextureEPNS_11BaseTextureE@Base 4.0~bzr753
 _ZN3nux11TextureArea11DrawContentERNS_14GraphicsEngineEb@Base 4.0~bzr753
 _ZN3nux11TextureArea11RecvMouseUpEiill@Base 4.0~bzr753
 _ZN3nux11TextureArea13LoadImageFileERKSs@Base 4.0~bzr753
 _ZN3nux11TextureArea13RecvMouseDownEiill@Base 4.0~bzr753
 _ZN3nux11TextureArea13RecvMouseDragEiiiimm@Base 4.0~bzr753
 _ZN3nux11TextureArea13Set2DRotationEf@Base 4.0~bzr753
 _ZN3nux11TextureArea13SetPaintLayerEPNS_18AbstractPaintLayerE@Base 4.0~bzr753
 _ZN3nux11TextureArea14RecvMouseClickEiill@Base 4.0~bzr753
 _ZN3nux11TextureArea14RecvMouseEnterEiill@Base 4.0~bzr753
 _ZN3nux11TextureArea14RecvMouseLeaveEiill@Base 4.0~bzr753
 _ZN3nux11TextureArea16StaticObjectTypeE@Base 4.0~bzr753
 _ZN3nux11TextureArea4DrawERNS_14GraphicsEngineEb@Base 4.0~bzr753
 _ZN3nux11TextureArea8SetColorERKNS_5color5ColorE@Base 4.0~bzr753
 _ZN3nux11TextureAreaC1EPKci@Base 4.0~bzr753
 _ZN3nux11TextureAreaC2EPKci@Base 4.0~bzr753
 _ZN3nux11TextureAreaD0Ev@Base 4.0~bzr753
 _ZN3nux11TextureAreaD1Ev@Base 4.0~bzr753
 _ZN3nux11TextureAreaD2Ev@Base 4.0~bzr753
 _ZN3nux11ThreadArrayE@Base 4.0~bzr753
 _ZN3nux11TimerHandleC1EPNS_11TimerObjectE@Base 4.0~bzr753
 _ZN3nux11TimerHandleC1ERKS0_@Base 4.0~bzr753
 _ZN3nux11TimerHandleC1Ev@Base 4.0~bzr753
 _ZN3nux11TimerHandleC2EPNS_11TimerObjectE@Base 4.0~bzr753
 _ZN3nux11TimerHandleC2ERKS0_@Base 4.0~bzr753
 _ZN3nux11TimerHandleC2Ev@Base 4.0~bzr753
 _ZN3nux11TimerHandleD1Ev@Base 4.0~bzr753
 _ZN3nux11TimerHandleD2Ev@Base 4.0~bzr753
 _ZN3nux11TimerHandleaSERKS0_@Base 4.0~bzr753
 _ZN3nux11TimerObjectC1Ev@Base 4.0~bzr753
 _ZN3nux11TimerObjectC2Ev@Base 4.0~bzr753
 _ZN3nux12COLOR_DARK_0E@Base 4.0~bzr753
 _ZN3nux12CairoWrapper10DumpToFileERKSs@Base 4.0~bzr753
 _ZN3nux12CairoWrapper10InvalidateERKNS_4RectE@Base 4.0~bzr753
 _ZN3nux12CairoWrapper21SetDrawCanvasCallbackESt8functionIFvRKNS_4RectEP6_cairoEE@Base 4.0~bzr753
 _ZN3nux12CairoWrapper4Impl10DumpToFileERKSs@Base 4.0~bzr753
 _ZN3nux12CairoWrapper4Impl10InvalidateERKNS_4RectE@Base 4.0~bzr753
 _ZN3nux12CairoWrapper4Impl12CreateBitmapEv@Base 4.0~bzr753
 _ZN3nux12CairoWrapper4Impl15DeleteResourcesEv@Base 4.0~bzr753
 _ZN3nux12CairoWrapper4Impl21SetDrawCanvasCallbackESt8functionIFvRKNS_4RectEP6_cairoEE@Base 4.0~bzr753
 _ZN3nux12CairoWrapper4Impl8RecreateEv@Base 4.0~bzr753
 _ZN3nux12CairoWrapper4ImplC1EPS0_RKNS_4RectESt8functionIFvS5_P6_cairoEE@Base 4.0~bzr753
 _ZN3nux12CairoWrapper4ImplC2EPS0_RKNS_4RectESt8functionIFvS5_P6_cairoEE@Base 4.0~bzr753
 _ZN3nux12CairoWrapper4ImplD1Ev@Base 4.0~bzr753
 _ZN3nux12CairoWrapper4ImplD2Ev@Base 4.0~bzr753
 _ZN3nux12CairoWrapper8RecreateEv@Base 4.0~bzr753
 _ZN3nux12CairoWrapperC1ERKNS_4RectESt8functionIFvS3_P6_cairoEE@Base 4.0~bzr753
 _ZN3nux12CairoWrapperC2ERKNS_4RectESt8functionIFvS3_P6_cairoEE@Base 4.0~bzr753
 _ZN3nux12CairoWrapperD1Ev@Base 4.0~bzr753
 _ZN3nux12CairoWrapperD2Ev@Base 4.0~bzr753
 _ZN3nux12ColorPreview11DrawContentERNS_14GraphicsEngineEb@Base 4.0~bzr753
 _ZN3nux12ColorPreview4DrawERNS_14GraphicsEngineEb@Base 4.0~bzr753
 _ZN3nux12ColorPreview8SetColorERKNS_5color5ColorE@Base 4.0~bzr753
 _ZN3nux12ColorPreview9RecvClickEiimm@Base 4.0~bzr753
 _ZN3nux12ColorPreview9RecvTimerEPv@Base 4.0~bzr753
 _ZN3nux12ColorPreviewC1ERKNS_5color5ColorEPKci@Base 4.0~bzr753
 _ZN3nux12ColorPreviewC2ERKNS_5color5ColorEPKci@Base 4.0~bzr753
 _ZN3nux12ColorPreviewD0Ev@Base 4.0~bzr753
 _ZN3nux12ColorPreviewD1Ev@Base 4.0~bzr753
 _ZN3nux12ColorPreviewD2Ev@Base 4.0~bzr753
 _ZN3nux12FileSelector11DrawContentERNS_14GraphicsEngineEb@Base 4.0~bzr753
 _ZN3nux12FileSelector14RecvMouseEnterEiimm@Base 4.0~bzr753
 _ZN3nux12FileSelector14RecvMouseLeaveEiimm@Base 4.0~bzr753
 _ZN3nux12FileSelector19RecvOpenButtonClickEiimm@Base 4.0~bzr753
 _ZN3nux12FileSelector4DrawERNS_14GraphicsEngineEb@Base 4.0~bzr753
 _ZN3nux12FileSelectorC1EPKci@Base 4.0~bzr753
 _ZN3nux12FileSelectorC2EPKci@Base 4.0~bzr753
 _ZN3nux12FileSelectorD0Ev@Base 4.0~bzr753
 _ZN3nux12FileSelectorD1Ev@Base 4.0~bzr753
 _ZN3nux12FileSelectorD2Ev@Base 4.0~bzr753
 _ZN3nux12GestureEventD1Ev@Base 4.0~bzr753
 _ZN3nux12GestureEventD2Ev@Base 4.0~bzr753
 _ZN3nux12LinearLayout16StaticObjectTypeE@Base 4.0~bzr753
 _ZN3nux12LinearLayout23SetSpaceBetweenChildrenEi@Base 4.0~bzr753
 _ZN3nux12LinearLayout25SetVerticalInternalMarginEi@Base 4.0~bzr753
 _ZN3nux12LinearLayout27SetHorizontalInternalMarginEi@Base 4.0~bzr753
 _ZN3nux12LinearLayout7AddViewEPNS_4AreaEjNS_22MinorDimensionPositionENS_18MinorDimensionSizeEfNS_14LayoutPositionE@Base 4.0~bzr753
 _ZN3nux12LinearLayout8AddSpaceEjjNS_14LayoutPositionE@Base 4.0~bzr753
 _ZN3nux12LinearLayout9AddLayoutEPNS_6LayoutEjNS_22MinorDimensionPositionENS_18MinorDimensionSizeEfNS_14LayoutPositionE@Base 4.0~bzr753
 _ZN3nux12LinearLayoutC1EPKci@Base 4.0~bzr753
 _ZN3nux12LinearLayoutC2EPKci@Base 4.0~bzr753
 _ZN3nux12LinearLayoutD0Ev@Base 4.0~bzr753
 _ZN3nux12LinearLayoutD1Ev@Base 4.0~bzr753
 _ZN3nux12LinearLayoutD2Ev@Base 4.0~bzr753
 _ZN3nux12SystemThread10ThreadCtorEv@Base 4.0~bzr753
 _ZN3nux12SystemThread10ThreadDtorEv@Base 4.0~bzr753
 _ZN3nux12SystemThread14AddChildThreadEPNS_14AbstractThreadE@Base 4.0~bzr753
 _ZN3nux12SystemThread16ChildHasFinishedEPNS_14AbstractThreadE@Base 4.0~bzr753
 _ZN3nux12SystemThread16StartChildThreadEPNS_14AbstractThreadEb@Base 4.0~bzr753
 _ZN3nux12SystemThread16StaticObjectTypeE@Base 4.0~bzr753
 _ZN3nux12SystemThread17RemoveChildThreadEPNS_14AbstractThreadE@Base 4.0~bzr753
 _ZN3nux12SystemThread21TerminateChildThreadsEv@Base 4.0~bzr753
 _ZN3nux12SystemThread3RunEPv@Base 4.0~bzr753
 _ZN3nux12SystemThread5StartEPv@Base 4.0~bzr753
 _ZN3nux12SystemThreadC1EPNS_14AbstractThreadE@Base 4.0~bzr753
 _ZN3nux12SystemThreadC2EPNS_14AbstractThreadE@Base 4.0~bzr753
 _ZN3nux12SystemThreadD0Ev@Base 4.0~bzr753
 _ZN3nux12SystemThreadD1Ev@Base 4.0~bzr753
 _ZN3nux12SystemThreadD2Ev@Base 4.0~bzr753
 _ZN3nux12TextureLayer11RenderlayerERNS_14GraphicsEngineE@Base 4.0~bzr753
 _ZN3nux12TextureLayer16GetDeviceTextureEv@Base 4.0~bzr753
 _ZN3nux12TextureLayerC1ENS_9ObjectPtrINS_18IOpenGLBaseTextureEEENS_13TexCoordXFormERKNS_5color5ColorEbRKNS_9ROPConfigE@Base 4.0~bzr753
 _ZN3nux12TextureLayerC1ENS_9ObjectPtrINS_18IOpenGLBaseTextureEEENS_13TexCoordXFormERKNS_5color5ColorEbRKNS_9ROPConfigES8_NS_14LayerBlendModeE@Base 4.0~bzr753
 _ZN3nux12TextureLayerC2ENS_9ObjectPtrINS_18IOpenGLBaseTextureEEENS_13TexCoordXFormERKNS_5color5ColorEbRKNS_9ROPConfigE@Base 4.0~bzr753
 _ZN3nux12TextureLayerC2ENS_9ObjectPtrINS_18IOpenGLBaseTextureEEENS_13TexCoordXFormERKNS_5color5ColorEbRKNS_9ROPConfigES8_NS_14LayerBlendModeE@Base 4.0~bzr753
 _ZN3nux12TextureLayerD0Ev@Base 4.0~bzr753
 _ZN3nux12TextureLayerD1Ev@Base 4.0~bzr753
 _ZN3nux12TextureLayerD2Ev@Base 4.0~bzr753
 _ZN3nux12TimerHandler10PauseTimerERNS_11TimerHandleE@Base 4.0~bzr753
 _ZN3nux12TimerHandler11ResumeTimerERNS_11TimerHandleE@Base 4.0~bzr753
 _ZN3nux12TimerHandler15AddOneShotTimerEjPNS_13TimeOutSignalEPvPNS_12WindowThreadE@Base 4.0~bzr753
 _ZN3nux12TimerHandler15FindTimerHandleERNS_11TimerHandleE@Base 4.0~bzr753
 _ZN3nux12TimerHandler16AddDurationTimerEjiPNS_13TimeOutSignalEPv@Base 4.0~bzr753
 _ZN3nux12TimerHandler16ExecTimerHandlerEj@Base 4.0~bzr753
 _ZN3nux12TimerHandler17AddIterativeTimerEjiPNS_13TimeOutSignalEPv@Base 4.0~bzr753
 _ZN3nux12TimerHandler18RemoveTimerHandlerERNS_11TimerHandleE@Base 4.0~bzr753
 _ZN3nux12TimerHandler20GetNumPendingHandlerEv@Base 4.0~bzr753
 _ZN3nux12TimerHandler22StartEarlyTimerObjectsEv@Base 4.0~bzr753
 _ZN3nux12TimerHandler26DelayUntilNextTimerExpiresEv@Base 4.0~bzr753
 _ZN3nux12TimerHandler9AddHandleEPNS_11TimerObjectE@Base 4.0~bzr753
 _ZN3nux12TimerHandlerC1EPNS_12WindowThreadE@Base 4.0~bzr753
 _ZN3nux12TimerHandlerC2EPNS_12WindowThreadE@Base 4.0~bzr753
 _ZN3nux12TimerHandlerD1Ev@Base 4.0~bzr753
 _ZN3nux12TimerHandlerD2Ev@Base 4.0~bzr753
 _ZN3nux12ToggleButtonC1EPKci@Base 4.0~bzr753
 _ZN3nux12ToggleButtonC1EPNS_11TextureAreaEPKci@Base 4.0~bzr753
 _ZN3nux12ToggleButtonC1ESsPKci@Base 4.0~bzr753
 _ZN3nux12ToggleButtonC1ESsPNS_11TextureAreaEPKci@Base 4.0~bzr753
 _ZN3nux12ToggleButtonC2EPKci@Base 4.0~bzr753
 _ZN3nux12ToggleButtonC2EPNS_11TextureAreaEPKci@Base 4.0~bzr753
 _ZN3nux12ToggleButtonC2ESsPKci@Base 4.0~bzr753
 _ZN3nux12ToggleButtonC2ESsPNS_11TextureAreaEPKci@Base 4.0~bzr753
 _ZN3nux12ToggleButtonD0Ev@Base 4.0~bzr753
 _ZN3nux12ToggleButtonD1Ev@Base 4.0~bzr753
 _ZN3nux12ToggleButtonD2Ev@Base 4.0~bzr753
 _ZN3nux12UXStyleArrayE@Base 4.0~bzr753
 _ZN3nux12WindowThread10AddTimeoutEj@Base 4.0~bzr753
 _ZN3nux12WindowThread10ThreadCtorEP9_XDisplaymP15__GLXcontextRec@Base 4.0~bzr753
 _ZN3nux12WindowThread10ThreadCtorEv@Base 4.0~bzr753
 _ZN3nux12WindowThread10ThreadDtorEv@Base 4.0~bzr753
 _ZN3nux12WindowThread11AddTimelineEPNS_8TimelineE@Base 4.0~bzr753
 _ZN3nux12WindowThread11ProcessDrawERNS_14GraphicsEngineEb@Base 4.0~bzr753
 _ZN3nux12WindowThread11QueueLayoutEv@Base 4.0~bzr753
 _ZN3nux12WindowThread11RunGlibLoopEv@Base 4.0~bzr753
 _ZN3nux12WindowThread12ExitMainLoopEv@Base 4.0~bzr753
 _ZN3nux12WindowThread12FindDataByFdERKNS0_15_ExternalFdDataEi@Base 4.0.0
 _ZN3nux12WindowThread12InitGlibLoopEv@Base 4.0~bzr753
 _ZN3nux12WindowThread12ProcessEventERNS_5EventE@Base 4.0~bzr753
 _ZN3nux12WindowThread12StopGLibLoopEv@Base 4.0~bzr753
 _ZN3nux12WindowThread13AddToDrawListEPNS_4ViewE@Base 4.0~bzr753
 _ZN3nux12WindowThread13ClearDrawListEv@Base 4.0~bzr753
 _ZN3nux12WindowThread13RequestRedrawEv@Base 4.0~bzr753
 _ZN3nux12WindowThread13SetWindowSizeEii@Base 4.0~bzr753
 _ZN3nux12WindowThread13SetupMainLoopEv@Base 4.0.0
 _ZN3nux12WindowThread14AddChildThreadEPNS_14AbstractThreadE@Base 4.0~bzr753
 _ZN3nux12WindowThread14AddGLibTimeoutEj@Base 4.0~bzr753
 _ZN3nux12WindowThread14DoProcessEventERNS_5EventE@Base 4.0~bzr753
 _ZN3nux12WindowThread14RemoveTimelineEPNS_8TimelineE@Base 4.0~bzr753
 _ZN3nux12WindowThread15AddFdToGLibLoopEiPvPFiS1_E@Base 4.0.0
 _ZN3nux12WindowThread15CleanupGlibLoopEv@Base 4.0~bzr753
 _ZN3nux12WindowThread15ClearRedrawFlagEv@Base 4.0~bzr753
 _ZN3nux12WindowThread15StopLayoutCycleEv@Base 4.0~bzr753
 _ZN3nux12WindowThread15StopMasterClockEv@Base 4.0~bzr753
 _ZN3nux12WindowThread16ChildHasFinishedEPNS_14AbstractThreadE@Base 4.0~bzr753
 _ZN3nux12WindowThread16IsEmbeddedWindowEv@Base 4.0~bzr753
 _ZN3nux12WindowThread16ProcessTimelinesEl@Base 4.0~bzr753
 _ZN3nux12WindowThread16StartChildThreadEPNS_14AbstractThreadEb@Base 4.0~bzr753
 _ZN3nux12WindowThread16StartLayoutCycleEv@Base 4.0~bzr753
 _ZN3nux12WindowThread16StartMasterClockEv@Base 4.0~bzr753
 _ZN3nux12WindowThread16StaticObjectTypeE@Base 4.0~bzr753
 _ZN3nux12WindowThread16WatchFdForEventsEiRKSt8functionIFvvEE@Base 4.0.0
 _ZN3nux12WindowThread17QueueObjectLayoutEPNS_4AreaE@Base 4.0~bzr753
 _ZN3nux12WindowThread17ReconfigureLayoutEv@Base 4.0~bzr753
 _ZN3nux12WindowThread17RemoveChildThreadEPNS_14AbstractThreadE@Base 4.0~bzr753
 _ZN3nux12WindowThread18RemoveQueuedLayoutEv@Base 4.0~bzr753
 _ZN3nux12WindowThread19AsyncWakeUpCallbackEPv@Base 4.0~bzr753
 _ZN3nux12WindowThread19CallEventInspectorsEPNS_5EventE@Base 4.0~bzr753
 _ZN3nux12WindowThread19ComputeQueuedLayoutEv@Base 4.0~bzr753
 _ZN3nux12WindowThread19ProcessForeignEventEP7_XEventPv@Base 4.0~bzr753
 _ZN3nux12WindowThread19ProcessGestureEventERNS_12GestureEventE@Base 4.0~bzr753
 _ZN3nux12WindowThread20ComputeElementLayoutEPNS_4AreaEb@Base 4.0~bzr753
 _ZN3nux12WindowThread20MINIMUM_WINDOW_WIDTHE@Base 4.0~bzr753
 _ZN3nux12WindowThread20RemoveEventInspectorEPFiPNS_4AreaEPNS_5EventEPvE@Base 4.0~bzr753
 _ZN3nux12WindowThread20RemoveEventInspectorEi@Base 4.0~bzr753
 _ZN3nux12WindowThread20RemoveFdFromGLibLoopEPv@Base 4.0.0
 _ZN3nux12WindowThread20SuspendChildGraphicsEPS0_@Base 4.0~bzr753
 _ZN3nux12WindowThread21InstallEventInspectorEPFiPNS_4AreaEPNS_5EventEPvES5_@Base 4.0~bzr753
 _ZN3nux12WindowThread21MINIMUM_WINDOW_HEIGHTE@Base 4.0~bzr753
 _ZN3nux12WindowThread21SetAsyncTimerCallbackEiPNS_13TimeOutSignalEPv@Base 4.0~bzr753
 _ZN3nux12WindowThread21TerminateChildThreadsEv@Base 4.0~bzr753
 _ZN3nux12WindowThread22AddChildWindowGlibLoopEPS0_@Base 4.0~bzr753
 _ZN3nux12WindowThread22ExternalSourceCallbackEPv@Base 4.0.0
 _ZN3nux12WindowThread24EnableMouseKeyboardInputEv@Base 4.0~bzr753
 _ZN3nux12WindowThread25DisableMouseKeyboardInputEv@Base 4.0~bzr753
 _ZN3nux12WindowThread27RemoveObjectFromLayoutQueueEPNS_4AreaE@Base 4.0~bzr753
 _ZN3nux12WindowThread29RenderInterfaceFromForeignCmdEPNS_4RectE@Base 4.0~bzr753
 _ZN3nux12WindowThread29SetWindowBackgroundPaintLayerEPNS_18AbstractPaintLayerE@Base 4.0~bzr753
 _ZN3nux12WindowThread3RunEPv@Base 4.0~bzr753
 _ZN3nux12WindowThread5StartEPv@Base 4.0~bzr753
 _ZN3nux12WindowThread8MainLoopEv@Base 4.0~bzr753
 _ZN3nux12WindowThread9GetLayoutEv@Base 4.0~bzr753
 _ZN3nux12WindowThread9SetLayoutEPNS_6LayoutE@Base 4.0~bzr753
 _ZN3nux12WindowThread9UnwatchFdEi@Base 4.0.0
 _ZN3nux12WindowThreadC1EPKciiPNS_14AbstractThreadEb@Base 4.0~bzr753
 _ZN3nux12WindowThreadC2EPKciiPNS_14AbstractThreadEb@Base 4.0~bzr753
 _ZN3nux12WindowThreadD0Ev@Base 4.0~bzr753
 _ZN3nux12WindowThreadD1Ev@Base 4.0~bzr753
 _ZN3nux12WindowThreadD2Ev@Base 4.0~bzr753
 _ZN3nux13COLOR_LIGHT_0E@Base 4.0~bzr753
 _ZN3nux13CoverflowItem16StaticObjectTypeE@Base 4.0~bzr753
 _ZN3nux13CoverflowItem8ActivateEi@Base 4.0~bzr753
 _ZN3nux13CoverflowItemC1ERKSs@Base 4.0~bzr753
 _ZN3nux13CoverflowItemC2ERKSs@Base 4.0~bzr753
 _ZN3nux13CoverflowItemD0Ev@Base 4.0~bzr753
 _ZN3nux13CoverflowItemD1Ev@Base 4.0~bzr753
 _ZN3nux13CoverflowItemD2Ev@Base 4.0~bzr753
 _ZN3nux13GestureBroker17ProcessGestureEndERNS_12GestureEventE@Base 4.0~bzr753
 _ZN3nux13GestureBroker19ProcessGestureBeginERNS_12GestureEventE@Base 4.0~bzr753
 _ZN3nux13GestureBroker20ProcessGestureUpdateERNS_12GestureEventE@Base 4.0~bzr753
 _ZN3nux13GestureBroker22BindNewGestureToTargetERNS_12GestureEventESt10shared_ptrINS_13GestureTargetEE@Base 4.0~bzr753
 _ZN3nux13GestureBroker46ResolveBufferedGestureThatFinishedConstructionERSt10shared_ptrINS_7GestureEE@Base 4.0~bzr753
 _ZN3nux13GestureBrokerC1Ev@Base 4.0~bzr753
 _ZN3nux13GestureBrokerC2Ev@Base 4.0~bzr753
 _ZN3nux13GestureBrokerD0Ev@Base 4.0~bzr753
 _ZN3nux13GestureBrokerD1Ev@Base 4.0~bzr753
 _ZN3nux13GestureBrokerD2Ev@Base 4.0~bzr753
 _ZN3nux13InteractStateC1Ebbbb@Base 4.0~bzr753
 _ZN3nux13InteractStateC1Ev@Base 4.0~bzr753
 _ZN3nux13InteractStateC2Ebbbb@Base 4.0~bzr753
 _ZN3nux13InteractStateC2Ev@Base 4.0~bzr753
 _ZN3nux13InteractStateD1Ev@Base 4.0~bzr753
 _ZN3nux13InteractStateD2Ev@Base 4.0~bzr753
 _ZN3nux13LayeredLayout11GetPaintAllEv@Base 4.0~bzr753
 _ZN3nux13LayeredLayout11LowerBottomEPNS_4AreaE@Base 4.0~bzr753
 _ZN3nux13LayeredLayout11ProcessDrawERNS_14GraphicsEngineEb@Base 4.0~bzr753
 _ZN3nux13LayeredLayout11RemoveLayerEPNS_4AreaE@Base 4.0~bzr753
 _ZN3nux13LayeredLayout11SetPaintAllEb@Base 4.0~bzr753
 _ZN3nux13LayeredLayout11UpdateLayerEPNS_4AreaEbiiii@Base 4.0~bzr753
 _ZN3nux13LayeredLayout12GetInputModeEv@Base 4.0~bzr753
 _ZN3nux13LayeredLayout12SetInputModeENS0_9InputModeE@Base 4.0~bzr753
 _ZN3nux13LayeredLayout14ChildQueueDrawEPNS_4AreaE@Base 4.0~bzr753
 _ZN3nux13LayeredLayout14GetActiveLayerEv@Base 4.0~bzr753
 _ZN3nux13LayeredLayout14SetActiveLayerEPNS_4AreaE@Base 4.0~bzr753
 _ZN3nux13LayeredLayout15GetActiveLayerNEv@Base 4.0~bzr753
 _ZN3nux13LayeredLayout15KeyNavIterationENS_15KeyNavDirectionE@Base 4.0~bzr753
 _ZN3nux13LayeredLayout15SetActiveLayerNEi@Base 4.0~bzr753
 _ZN3nux13LayeredLayout16GetCompositeListEPSt4listIPNS_4AreaESaIS3_EE@Base 4.0~bzr753
 _ZN3nux13LayeredLayout16StaticObjectTypeE@Base 4.0~bzr753
 _ZN3nux13LayeredLayout17RemoveChildObjectEPNS_4AreaE@Base 4.0~bzr753
 _ZN3nux13LayeredLayout18ComputeContentSizeEv@Base 4.0~bzr753
 _ZN3nux13LayeredLayout18FindAreaUnderMouseERKNS_7Point2DIiEENS_9EventTypeE@Base 4.0~bzr753
 _ZN3nux13LayeredLayout22ChildVisibilityChangedEPNS_4AreaEb@Base 4.0~bzr753
 _ZN3nux13LayeredLayout22LayeredChildProperties6UpdateEbiiii@Base 4.0~bzr753
 _ZN3nux13LayeredLayout22LayeredChildPropertiesC1Ebiiii@Base 4.0~bzr753
 _ZN3nux13LayeredLayout22LayeredChildPropertiesC2Ebiiii@Base 4.0~bzr753
 _ZN3nux13LayeredLayout22LayeredChildPropertiesD1Ev@Base 4.0~bzr753
 _ZN3nux13LayeredLayout22LayeredChildPropertiesD2Ev@Base 4.0~bzr753
 _ZN3nux13LayeredLayout22OnLayerGeometryChangedEPNS_4AreaENS_4RectE@Base 4.0~bzr753
 _ZN3nux13LayeredLayout5ClearEv@Base 4.0~bzr753
 _ZN3nux13LayeredLayout5LowerEPNS_4AreaES2_@Base 4.0~bzr753
 _ZN3nux13LayeredLayout5RaiseEPNS_4AreaES2_@Base 4.0~bzr753
 _ZN3nux13LayeredLayout7AddViewEPNS_4AreaEjNS_22MinorDimensionPositionENS_18MinorDimensionSizeEf@Base 4.0~bzr753
 _ZN3nux13LayeredLayout8AddLayerEPNS_4AreaEbiiii@Base 4.0~bzr753
 _ZN3nux13LayeredLayout8PaintOneEPNS_4AreaERNS_14GraphicsEngineEb@Base 4.0~bzr753
 _ZN3nux13LayeredLayout8RaiseTopEPNS_4AreaE@Base 4.0~bzr753
 _ZN3nux13LayeredLayout9AddLayoutEPNS_6LayoutEjNS_22MinorDimensionPositionENS_18MinorDimensionSizeEf@Base 4.0~bzr753
 _ZN3nux13LayeredLayoutC1EPKci@Base 4.0~bzr753
 _ZN3nux13LayeredLayoutC2EPKci@Base 4.0~bzr753
 _ZN3nux13LayeredLayoutD0Ev@Base 4.0~bzr753
 _ZN3nux13LayeredLayoutD1Ev@Base 4.0~bzr753
 _ZN3nux13LayeredLayoutD2Ev@Base 4.0~bzr753
 _ZN3nux13MenuSeparator11DrawContentERNS_14GraphicsEngineEb@Base 4.0~bzr753
 _ZN3nux13MenuSeparator16StaticObjectTypeE@Base 4.0~bzr753
 _ZN3nux13MenuSeparator4DrawERNS_14GraphicsEngineEb@Base 4.0~bzr753
 _ZN3nux13MenuSeparatorC1EPKci@Base 4.0~bzr753
 _ZN3nux13MenuSeparatorC2EPKci@Base 4.0~bzr753
 _ZN3nux13MenuSeparatorD0Ev@Base 4.0~bzr753
 _ZN3nux13MenuSeparatorD1Ev@Base 4.0~bzr753
 _ZN3nux13MenuSeparatorD2Ev@Base 4.0~bzr753
 _ZN3nux13MouseAreaCtrl11DrawContentERNS_14GraphicsEngineEb@Base 4.0~bzr753
 _ZN3nux13MouseAreaCtrl11SetGeometryERKNS_4RectE@Base 4.0~bzr753
 _ZN3nux13MouseAreaCtrl11getAreaPosXEv@Base 4.0~bzr753
 _ZN3nux13MouseAreaCtrl11getAreaPosYEv@Base 4.0~bzr753
 _ZN3nux13MouseAreaCtrl12getAreaWidthEv@Base 4.0~bzr753
 _ZN3nux13MouseAreaCtrl13getAreaHeightEv@Base 4.0~bzr753
 _ZN3nux13MouseAreaCtrl4DrawERNS_14GraphicsEngineEb@Base 4.0~bzr753
 _ZN3nux13MouseAreaCtrl7MouseUpEiimm@Base 4.0~bzr753
 _ZN3nux13MouseAreaCtrl9MouseDownEiimm@Base 4.0~bzr753
 _ZN3nux13MouseAreaCtrl9MouseDragEiiiimm@Base 4.0~bzr753
 _ZN3nux13MouseAreaCtrlC1EPKci@Base 4.0~bzr753
 _ZN3nux13MouseAreaCtrlC2EPKci@Base 4.0~bzr753
 _ZN3nux13MouseAreaCtrlD0Ev@Base 4.0~bzr753
 _ZN3nux13MouseAreaCtrlD1Ev@Base 4.0~bzr753
 _ZN3nux13MouseAreaCtrlD2Ev@Base 4.0~bzr753
 _ZN3nux13NuxInitializeEPKc@Base 4.0~bzr753
 _ZN3nux13ObjectWeakPtrINS_10BaseWindowEE15ConnectListenerEv@Base 4.0~bzr753
 _ZN3nux13ObjectWeakPtrINS_10BaseWindowEE15TargetDestroyedEPNS_6ObjectE@Base 4.0~bzr753
 _ZN3nux13ObjectWeakPtrINS_10BaseWindowEEC1INS_6ObjectEEEPT_b@Base 4.0~bzr753
 _ZN3nux13ObjectWeakPtrINS_10BaseWindowEEC2INS_6ObjectEEEPT_b@Base 4.0~bzr753
 _ZN3nux13ObjectWeakPtrINS_10BaseWindowEED1Ev@Base 4.0~bzr753
 _ZN3nux13ObjectWeakPtrINS_10BaseWindowEED2Ev@Base 4.0~bzr753
 _ZN3nux13ObjectWeakPtrINS_10BaseWindowEEaSEPS1_@Base 4.0~bzr753
 _ZN3nux13ObjectWeakPtrINS_11RadioButtonEE15TargetDestroyedEPNS_6ObjectE@Base 4.0~bzr753
 _ZN3nux13ObjectWeakPtrINS_11RadioButtonEED1Ev@Base 4.0~bzr753
 _ZN3nux13ObjectWeakPtrINS_11RadioButtonEED2Ev@Base 4.0~bzr753
 _ZN3nux13ObjectWeakPtrINS_16RadioButtonGroupEE15TargetDestroyedEPNS_6ObjectE@Base 4.0~bzr753
 _ZN3nux13ObjectWeakPtrINS_16RadioButtonGroupEED1Ev@Base 4.0~bzr753
 _ZN3nux13ObjectWeakPtrINS_16RadioButtonGroupEED2Ev@Base 4.0~bzr753
 _ZN3nux13ObjectWeakPtrINS_9InputAreaEE15ConnectListenerEv@Base 4.0~bzr753
 _ZN3nux13ObjectWeakPtrINS_9InputAreaEE15TargetDestroyedEPNS_6ObjectE@Base 4.0~bzr753
 _ZN3nux13ObjectWeakPtrINS_9InputAreaEEC1ERKS2_@Base 4.0~bzr753
 _ZN3nux13ObjectWeakPtrINS_9InputAreaEEC2ERKS2_@Base 4.0~bzr753
 _ZN3nux13ObjectWeakPtrINS_9InputAreaEED1Ev@Base 4.0~bzr753
 _ZN3nux13ObjectWeakPtrINS_9InputAreaEED2Ev@Base 4.0~bzr753
 _ZN3nux13ObjectWeakPtrINS_9InputAreaEEaSEPS1_@Base 4.0~bzr753
 _ZN3nux13SpinBoxDouble11DrawContentERNS_14GraphicsEngineEb@Base 4.0~bzr753
 _ZN3nux13SpinBoxDouble16InitializeLayoutEv@Base 4.0~bzr753
 _ZN3nux13SpinBoxDouble17InitializeWidgetsEv@Base 4.0~bzr753
 _ZN3nux13SpinBoxDouble21ImplementDecrementBtnEv@Base 4.0~bzr753
 _ZN3nux13SpinBoxDouble21ImplementIncrementBtnEv@Base 4.0~bzr753
 _ZN3nux13SpinBoxDouble22ImplementValidateEntryEv@Base 4.0~bzr753
 _ZN3nux13SpinBoxDouble4DrawERNS_14GraphicsEngineEb@Base 4.0~bzr753
 _ZN3nux13SpinBoxDouble7SetStepEd@Base 4.0~bzr753
 _ZN3nux13SpinBoxDouble8SetRangeEdd@Base 4.0~bzr753
 _ZN3nux13SpinBoxDouble8SetValueEd@Base 4.0~bzr753
 _ZN3nux13SpinBoxDoubleC1EddddPKci@Base 4.0~bzr753
 _ZN3nux13SpinBoxDoubleC2EddddPKci@Base 4.0~bzr753
 _ZN3nux13SpinBoxDoubleD0Ev@Base 4.0~bzr753
 _ZN3nux13SpinBoxDoubleD1Ev@Base 4.0~bzr753
 _ZN3nux13SpinBoxDoubleD2Ev@Base 4.0~bzr753
 _ZN3nux13SpinBox_Logic13RecvDecrementEiimm@Base 4.0~bzr753
 _ZN3nux13SpinBox_Logic13RecvIncrementEiimm@Base 4.0~bzr753
 _ZN3nux13SpinBox_Logic13RecvMouseDragEiiiimm@Base 4.0~bzr753
 _ZN3nux13SpinBox_Logic13RecvMouseMoveEiimm@Base 4.0~bzr753
 _ZN3nux13SpinBox_Logic14RecvEditChangeEPNS_11EditTextBoxE@Base 4.0~bzr753
 _ZN3nux13SpinBox_Logic14RecvMouseEnterEiimm@Base 4.0~bzr753
 _ZN3nux13SpinBox_Logic14RecvMouseLeaveEiimm@Base 4.0~bzr753
 _ZN3nux13SpinBox_Logic14TimerSpinUpBtnEPv@Base 4.0~bzr753
 _ZN3nux13SpinBox_Logic16TimerSpinDownBtnEPv@Base 4.0~bzr753
 _ZN3nux13SpinBox_Logic17RecvValidateEntryEPNS_11EditTextBoxE@Base 4.0~bzr753
 _ZN3nux13SpinBox_Logic18RecvSpinnerMouseUpEiimm@Base 4.0~bzr753
 _ZN3nux13SpinBox_Logic20RecvEndKeyboardFocusEPNS_11EditTextBoxE@Base 4.0~bzr753
 _ZN3nux13SpinBox_Logic22RecvStartKeyboardFocusEPNS_11EditTextBoxE@Base 4.0~bzr753
 _ZN3nux13SpinBox_Logic23RecvEscapeKeyboardFocusEPNS_11EditTextBoxE@Base 4.0~bzr753
 _ZN3nux13SpinBox_LogicC1EPKci@Base 4.0~bzr753
 _ZN3nux13SpinBox_LogicC2EPKci@Base 4.0~bzr753
 _ZN3nux13SpinBox_LogicD0Ev@Base 4.0~bzr753
 _ZN3nux13SpinBox_LogicD1Ev@Base 4.0~bzr753
 _ZN3nux13SpinBox_LogicD2Ev@Base 4.0~bzr753
 _ZN3nux13StaticTextBox11DrawContentERNS_14GraphicsEngineEb@Base 4.0~bzr753
 _ZN3nux13StaticTextBox11SetGeometryERKNS_4RectE@Base 4.0~bzr753
 _ZN3nux13StaticTextBox13SetBackgroundEPNS_18AbstractPaintLayerE@Base 4.0~bzr753
 _ZN3nux13StaticTextBox16StaticObjectTypeE@Base 4.0~bzr753
 _ZN3nux13StaticTextBox17AcceptKeyNavFocusEv@Base 4.0~bzr753
 _ZN3nux13StaticTextBox20SetMinWidthMatchTextEb@Base 4.0~bzr753
 _ZN3nux13StaticTextBox25AdjustMinWidthToMatchTextEv@Base 4.0~bzr753
 _ZN3nux13StaticTextBox4DrawERNS_14GraphicsEngineEb@Base 4.0~bzr753
 _ZN3nux13StaticTextBox7SetFontENS_9ObjectPtrINS_11FontTextureEEE@Base 4.0~bzr753
 _ZN3nux13StaticTextBox7SetTextEPKc@Base 4.0~bzr753
 _ZN3nux13StaticTextBox7SetTextERKSs@Base 4.0~bzr753
 _ZN3nux13StaticTextBoxC1EPKcS2_i@Base 4.0~bzr753
 _ZN3nux13StaticTextBoxC2EPKcS2_i@Base 4.0~bzr753
 _ZN3nux13StaticTextBoxD0Ev@Base 4.0~bzr753
 _ZN3nux13StaticTextBoxD1Ev@Base 4.0~bzr753
 _ZN3nux13StaticTextBoxD2Ev@Base 4.0~bzr753
 _ZN3nux13TestTextEntry11OnMouseDownEiimm@Base 4.0~bzr753
 _ZN3nux13TestTextEntry11OnMouseDragEiiiimm@Base 4.0~bzr753
 _ZN3nux13TestTextEntry11OnMouseMoveEiiiimm@Base 4.0~bzr753
 _ZN3nux13TestTextEntry11ResetEventsEv@Base 4.0~bzr753
 _ZN3nux13TestTextEntry12OnMouseClickEiimm@Base 4.0~bzr753
 _ZN3nux13TestTextEntry12OnMouseEnterEiimm@Base 4.0~bzr753
 _ZN3nux13TestTextEntry12OnMouseLeaveEiimm@Base 4.0~bzr753
 _ZN3nux13TestTextEntry13OnEndKeyFocusEv@Base 4.0~bzr753
 _ZN3nux13TestTextEntry13OnTextChangedEPNS_9TextEntryE@Base 4.0~bzr753
 _ZN3nux13TestTextEntry15OnBeginKeyFocusEv@Base 4.0~bzr753
 _ZN3nux13TestTextEntry16StaticObjectTypeE@Base 4.0~bzr753
 _ZN3nux13TestTextEntry17OnObjectDestroyedEPNS_6ObjectE@Base 4.0~bzr753
 _ZN3nux13TestTextEntry18OnMouseDoubleClickEiimm@Base 4.0~bzr753
 _ZN3nux13TestTextEntry19OnKeyNavFocusChangeEPNS_4AreaEbNS_15KeyNavDirectionE@Base 4.0~bzr753
 _ZN3nux13TestTextEntry19ResetKeyFocusEventsEv@Base 4.0~bzr753
 _ZN3nux13TestTextEntry9OnMouseUpEiimm@Base 4.0~bzr753
 _ZN3nux13TestTextEntryC1EPKci@Base 4.0~bzr753
 _ZN3nux13TestTextEntryC2EPKci@Base 4.0~bzr753
 _ZN3nux13TestTextEntryD0Ev@Base 4.0~bzr753
 _ZN3nux13TestTextEntryD1Ev@Base 4.0~bzr753
 _ZN3nux13TestTextEntryD2Ev@Base 4.0~bzr753
 _ZN3nux13TimeOutSignalD1Ev@Base 4.0~bzr753
 _ZN3nux13TimeOutSignalD2Ev@Base 4.0~bzr753
 _ZN3nux14AREA_MAX_WIDTHE@Base 4.0~bzr753
 _ZN3nux14AREA_MIN_WIDTHE@Base 4.0~bzr753
 _ZN3nux14AbstractButton11RecvMouseUpEiimm@Base 4.0~bzr753
 _ZN3nux14AbstractButton13GetLabelColorEv@Base 4.0~bzr753
 _ZN3nux14AbstractButton13RecvMouseDownEiimm@Base 4.0~bzr753
 _ZN3nux14AbstractButton13RecvMouseMoveEiiiimm@Base 4.0~bzr753
 _ZN3nux14AbstractButton13SetLabelColorERKNS_5color5ColorE@Base 4.0~bzr753
 _ZN3nux14AbstractButton14GetVisualStateEv@Base 4.0~bzr753
 _ZN3nux14AbstractButton14RecvMouseEnterEiimm@Base 4.0~bzr753
 _ZN3nux14AbstractButton14RecvMouseLeaveEiimm@Base 4.0~bzr753
 _ZN3nux14AbstractButton16SetLabelFontSizeEi@Base 4.0~bzr753
 _ZN3nux14AbstractButton16StaticObjectTypeE@Base 4.0~bzr753
 _ZN3nux14AbstractButton9SetActiveEb@Base 4.0~bzr753
 _ZN3nux14AbstractButtonC1EPKci@Base 4.0~bzr753
 _ZN3nux14AbstractButtonC2EPKci@Base 4.0~bzr753
 _ZN3nux14AbstractButtonD0Ev@Base 4.0~bzr753
 _ZN3nux14AbstractButtonD1Ev@Base 4.0~bzr753
 _ZN3nux14AbstractButtonD2Ev@Base 4.0~bzr753
 _ZN3nux14AbstractThread16JoinChildThreadsEv@Base 4.0~bzr753
 _ZN3nux14AbstractThread16StaticObjectTypeE@Base 4.0~bzr753
 _ZN3nux14AbstractThread21TerminateChildWindowsEv@Base 4.0~bzr753
 _ZN3nux14AbstractThreadC1EPS0_@Base 4.0~bzr753
 _ZN3nux14AbstractThreadC2EPS0_@Base 4.0~bzr753
 _ZN3nux14AbstractThreadD0Ev@Base 4.0~bzr753
 _ZN3nux14AbstractThreadD1Ev@Base 4.0~bzr753
 _ZN3nux14AbstractThreadD2Ev@Base 4.0~bzr753
 _ZN3nux14CoverflowModel10InsertItemERKNS_9ObjectPtrINS_13CoverflowItemEEEm@Base 4.0~bzr753
 _ZN3nux14CoverflowModel10RemoveItemERKNS_9ObjectPtrINS_13CoverflowItemEEE@Base 4.0~bzr753
 _ZN3nux14CoverflowModel10SelectNextEv@Base 4.0~bzr753
 _ZN3nux14CoverflowModel10SelectPrevEv@Base 4.0~bzr753
 _ZN3nux14CoverflowModel12SetSelectionENS_9ObjectPtrINS_13CoverflowItemEEE@Base 4.0~bzr753
 _ZN3nux14CoverflowModel12SetSelectionEm@Base 4.0~bzr753
 _ZN3nux14CoverflowModel14SelectionIndexEv@Base 4.0~bzr753
 _ZN3nux14CoverflowModel16StaticObjectTypeE@Base 4.0~bzr753
 _ZN3nux14CoverflowModel4ImplC1EPS0_@Base 4.0~bzr753
 _ZN3nux14CoverflowModel4ImplC2EPS0_@Base 4.0~bzr753
 _ZN3nux14CoverflowModel4ImplD1Ev@Base 4.0~bzr753
 _ZN3nux14CoverflowModel4ImplD2Ev@Base 4.0~bzr753
 _ZN3nux14CoverflowModel7AddItemERKNS_9ObjectPtrINS_13CoverflowItemEEE@Base 4.0~bzr753
 _ZN3nux14CoverflowModel7IndexOfERKNS_9ObjectPtrINS_13CoverflowItemEEE@Base 4.0~bzr753
 _ZN3nux14CoverflowModel9SelectionEv@Base 4.0~bzr753
 _ZN3nux14CoverflowModelC1Ev@Base 4.0~bzr753
 _ZN3nux14CoverflowModelC2Ev@Base 4.0~bzr753
 _ZN3nux14CoverflowModelD0Ev@Base 4.0~bzr753
 _ZN3nux14CoverflowModelD1Ev@Base 4.0~bzr753
 _ZN3nux14CoverflowModelD2Ev@Base 4.0~bzr753
 _ZN3nux14FloatingWindow11DrawContentERNS_14GraphicsEngineEb@Base 4.0~bzr753
 _ZN3nux14FloatingWindow14CanBreakLayoutEv@Base 4.0~bzr753
 _ZN3nux14FloatingWindow14EnableTitleBarEb@Base 4.0~bzr753
 _ZN3nux14FloatingWindow14GetWindowTitleEv@Base 4.0~bzr753
 _ZN3nux14FloatingWindow14SetWindowTitleEPKc@Base 4.0~bzr753
 _ZN3nux14FloatingWindow16StaticObjectTypeE@Base 4.0~bzr753
 _ZN3nux14FloatingWindow18FindAreaUnderMouseERKNS_7Point2DIiEENS_9EventTypeE@Base 4.0~bzr753
 _ZN3nux14FloatingWindow19OnSizeGrigMouseDownEiimm@Base 4.0~bzr753
 _ZN3nux14FloatingWindow19OnSizeGrigMouseDragEiiiimm@Base 4.0~bzr753
 _ZN3nux14FloatingWindow19PreLayoutManagementEv@Base 4.0~bzr753
 _ZN3nux14FloatingWindow20LayoutWindowElementsEv@Base 4.0~bzr753
 _ZN3nux14FloatingWindow20PostLayoutManagementEl@Base 4.0~bzr753
 _ZN3nux14FloatingWindow20RecvCloseButtonClickEiimm@Base 4.0~bzr753
 _ZN3nux14FloatingWindow21RecvTitleBarMouseDownEiimm@Base 4.0~bzr753
 _ZN3nux14FloatingWindow21RecvTitleBarMouseDragEiiiimm@Base 4.0~bzr753
 _ZN3nux14FloatingWindow22ComputeContentPositionEff@Base 4.0~bzr753
 _ZN3nux14FloatingWindow4DrawERNS_14GraphicsEngineEb@Base 4.0~bzr753
 _ZN3nux14FloatingWindowC1EPKcS2_i@Base 4.0~bzr753
 _ZN3nux14FloatingWindowC2EPKcS2_i@Base 4.0~bzr753
 _ZN3nux14FloatingWindowD0Ev@Base 4.0~bzr753
 _ZN3nux14FloatingWindowD1Ev@Base 4.0~bzr753
 _ZN3nux14FloatingWindowD2Ev@Base 4.0~bzr753
 _ZN3nux14GetSysBoldFontEv@Base 4.0~bzr753
 _ZN3nux14IBusIMEContext10OnDestroy_EP17_IBusInputContextPv@Base 4.0~bzr753
 _ZN3nux14IBusIMEContext10OnDisable_EP17_IBusInputContextPv@Base 4.0~bzr753
 _ZN3nux14IBusIMEContext11OnConnectedEP8_IBusBus@Base 4.0~bzr753
 _ZN3nux14IBusIMEContext12OnCommitTextEP17_IBusInputContextP9_IBusText@Base 4.0~bzr753
 _ZN3nux14IBusIMEContext12OnConnected_EP8_IBusBusPv@Base 4.0~bzr753
 _ZN3nux14IBusIMEContext13CreateContextEv@Base 4.0~bzr753
 _ZN3nux14IBusIMEContext13OnCommitText_EP17_IBusInputContextP9_IBusTextPv@Base 4.0~bzr753
 _ZN3nux14IBusIMEContext13UpdateHotkeysEv@Base 4.0~bzr753
 _ZN3nux14IBusIMEContext14DestroyContextEv@Base 4.0~bzr753
 _ZN3nux14IBusIMEContext14FilterKeyEventERKNS_8KeyEventE@Base 4.0~bzr753
 _ZN3nux14IBusIMEContext14OnDisconnectedEP8_IBusBus@Base 4.0~bzr753
 _ZN3nux14IBusIMEContext14SetSurroundingERKSbIwSt11char_traitsIwESaIwEEi@Base 4.0~bzr753
 _ZN3nux14IBusIMEContext15OnConfigChangedEP11_IBusConfigPcS3_P9_GVariant@Base 4.0~bzr753
 _ZN3nux14IBusIMEContext15OnDisconnected_EP8_IBusBusPv@Base 4.0~bzr753
 _ZN3nux14IBusIMEContext16OnConfigChanged_EP11_IBusConfigPcS3_P9_GVariantPv@Base 4.0~bzr753
 _ZN3nux14IBusIMEContext16ParseIBusHotkeysEPPKc@Base 4.0~bzr753
 _ZN3nux14IBusIMEContext17OnHidePreeditTextEP17_IBusInputContext@Base 4.0~bzr753
 _ZN3nux14IBusIMEContext17OnShowPreeditTextEP17_IBusInputContext@Base 4.0~bzr753
 _ZN3nux14IBusIMEContext18OnHidePreeditText_EP17_IBusInputContextPv@Base 4.0~bzr753
 _ZN3nux14IBusIMEContext18OnShowPreeditText_EP17_IBusInputContextPv@Base 4.0~bzr753
 _ZN3nux14IBusIMEContext19OnUpdatePreeditTextEP17_IBusInputContextP9_IBusTextji@Base 4.0~bzr753
 _ZN3nux14IBusIMEContext19ProcessKeyEventDoneEP17_IBusInputContextP13_GAsyncResultPNS_19ProcessKeyEventDataE@Base 4.0~bzr753
 _ZN3nux14IBusIMEContext20OnUpdatePreeditText_EP17_IBusInputContextP9_IBusTextjiPv@Base 4.0~bzr753
 _ZN3nux14IBusIMEContext20UpdateCursorLocationEv@Base 4.0~bzr753
 _ZN3nux14IBusIMEContext4BlurEv@Base 4.0~bzr753
 _ZN3nux14IBusIMEContext4bus_E@Base 4.0~bzr753
 _ZN3nux14IBusIMEContext5FocusEv@Base 4.0~bzr753
 _ZN3nux14IBusIMEContext5ResetEv@Base 4.0~bzr753
 _ZN3nux14IBusIMEContext8OnEnableEP17_IBusInputContext@Base 4.0~bzr753
 _ZN3nux14IBusIMEContext8hotkeys_E@Base 4.0~bzr753
 _ZN3nux14IBusIMEContext9OnDestroyEP17_IBusInputContext@Base 4.0~bzr753
 _ZN3nux14IBusIMEContext9OnDisableEP17_IBusInputContext@Base 4.0~bzr753
 _ZN3nux14IBusIMEContext9OnEnable_EP17_IBusInputContextPv@Base 4.0~bzr753
 _ZN3nux14IBusIMEContextC1EPNS_9TextEntryE@Base 4.0~bzr753
 _ZN3nux14IBusIMEContextC2EPNS_9TextEntryE@Base 4.0~bzr753
 _ZN3nux14IBusIMEContextD0Ev@Base 4.0~bzr753
 _ZN3nux14IBusIMEContextD1Ev@Base 4.0~bzr753
 _ZN3nux14IBusIMEContextD2Ev@Base 4.0~bzr753
 _ZN3nux15AREA_MAX_HEIGHTE@Base 4.0~bzr753
 _ZN3nux15AREA_MIN_HEIGHTE@Base 4.0~bzr753
 _ZN3nux15CreateGUIThreadEPKciiPNS_12WindowThreadEPFvPNS_7NThreadEPvES6_@Base 4.0~bzr753
 _ZN3nux15CreateNuxWindowEPKciiNS_11WindowStyleEPNS_14AbstractThreadEbPFvPNS_7NThreadEPvES7_@Base 4.0~bzr753
 _ZN3nux15DoubleValidator10SetMaximumEd@Base 4.0~bzr753
 _ZN3nux15DoubleValidator10SetMinimumEd@Base 4.0~bzr753
 _ZN3nux15DoubleValidator11AlternativeEPKc@Base 4.0~bzr753
 _ZN3nux15DoubleValidator11SetDecimalsEi@Base 4.0~bzr753
 _ZN3nux15DoubleValidator8ToDoubleEPKc@Base 4.0~bzr753
 _ZN3nux15DoubleValidator8ToStringEd@Base 4.0~bzr753
 _ZN3nux15DoubleValidatorC1ERKS0_@Base 4.0~bzr753
 _ZN3nux15DoubleValidatorC1Edd@Base 4.0~bzr753
 _ZN3nux15DoubleValidatorC2ERKS0_@Base 4.0~bzr753
 _ZN3nux15DoubleValidatorC2Edd@Base 4.0~bzr753
 _ZN3nux15DoubleValidatorD0Ev@Base 4.0~bzr753
 _ZN3nux15DoubleValidatorD1Ev@Base 4.0~bzr753
 _ZN3nux15DoubleValidatorD2Ev@Base 4.0~bzr753
 _ZN3nux15DoubleValidatoraSERKS0_@Base 4.0~bzr753
 _ZN3nux15GetWindowThreadEv@Base 4.0~bzr753
 _ZN3nux15GpuRenderStates8SetBlendEbjj@Base 4.0~bzr753
 _ZN3nux15InputAreaTarget12GestureEventERKNS_12GestureEventE@Base 4.0~bzr753
 _ZN3nux15InputAreaTargetC1EPNS_9InputAreaE@Base 4.0~bzr753
 _ZN3nux15InputAreaTargetC2EPNS_9InputAreaE@Base 4.0~bzr753
 _ZN3nux15InputAreaTargetD1Ev@Base 4.0~bzr753
 _ZN3nux15InputAreaTargetD2Ev@Base 4.0~bzr753
 _ZN3nux15IsLegalUTF8CharEPKcm@Base 4.0~bzr753
 _ZN3nux15KineticScroller14SetContentSizeEii@Base 4.0~bzr753
 _ZN3nux15KineticScroller15ProcessFingerUpEv@Base 4.0~bzr753
 _ZN3nux15KineticScroller15SetViewportSizeEii@Base 4.0~bzr753
 _ZN3nux15KineticScroller17ProcessFingerDownEv@Base 4.0~bzr753
 _ZN3nux15KineticScroller17ProcessFingerDragEii@Base 4.0~bzr753
 _ZN3nux15KineticScroller17SetBoundsBehaviorENS_14BoundsBehaviorE@Base 4.0~bzr753
 _ZN3nux15KineticScroller18SetContentPositionEii@Base 4.0~bzr753
 _ZN3nux15KineticScroller23SetScrollableDirectionsENS_20ScrollableDirectionsE@Base 4.0~bzr753
 _ZN3nux15KineticScroller7Private14SetContentSizeEii@Base 4.0~bzr753
 _ZN3nux15KineticScroller7Private15ProcessFingerUpEv@Base 4.0~bzr753
 _ZN3nux15KineticScroller7Private15SetViewportSizeEii@Base 4.0~bzr753
 _ZN3nux15KineticScroller7Private16UpdateAnimationsEi@Base 4.0~bzr753
 _ZN3nux15KineticScroller7Private17ProcessFingerDownEv@Base 4.0~bzr753
 _ZN3nux15KineticScroller7Private17ProcessFingerDragEii@Base 4.0~bzr753
 _ZN3nux15KineticScroller7Private18SetContentPositionEii@Base 4.0~bzr753
 _ZN3nux15KineticScroller7Private29CheckChangesInContentPositionEv@Base 4.0~bzr753
 _ZN3nux15KineticScroller7Private4InitEv@Base 4.0~bzr753
 _ZN3nux15KineticScroller7PrivateC1EPNS_17kinetic_scrolling19TickSourceInterfaceE@Base 4.0~bzr753
 _ZN3nux15KineticScroller7PrivateC1Ev@Base 4.0~bzr753
 _ZN3nux15KineticScroller7PrivateC2EPNS_17kinetic_scrolling19TickSourceInterfaceE@Base 4.0~bzr753
 _ZN3nux15KineticScroller7PrivateC2Ev@Base 4.0~bzr753
 _ZN3nux15KineticScrollerC1EPNS_17kinetic_scrolling19TickSourceInterfaceE@Base 4.0~bzr753
 _ZN3nux15KineticScrollerC1Ev@Base 4.0~bzr753
 _ZN3nux15KineticScrollerC2EPNS_17kinetic_scrolling19TickSourceInterfaceE@Base 4.0~bzr753
 _ZN3nux15KineticScrollerC2Ev@Base 4.0~bzr753
 _ZN3nux15KineticScrollerD0Ev@Base 4.0~bzr753
 _ZN3nux15KineticScrollerD1Ev@Base 4.0~bzr753
 _ZN3nux15KineticScrollerD2Ev@Base 4.0~bzr753
 _ZN3nux15NumericValuator11DrawContentERNS_14GraphicsEngineEb@Base 4.0~bzr753
 _ZN3nux15NumericValuator16InitializeLayoutEv@Base 4.0~bzr753
 _ZN3nux15NumericValuator17InitializeWidgetsEv@Base 4.0~bzr753
 _ZN3nux15NumericValuator21ImplementDecrementBtnEv@Base 4.0~bzr753
 _ZN3nux15NumericValuator21ImplementIncrementBtnEv@Base 4.0~bzr753
 _ZN3nux15NumericValuator22ImplementValidateEntryEv@Base 4.0~bzr753
 _ZN3nux15NumericValuator4DrawERNS_14GraphicsEngineEb@Base 4.0~bzr753
 _ZN3nux15NumericValuator7GetStepEv@Base 4.0~bzr753
 _ZN3nux15NumericValuator7SetStepEf@Base 4.0~bzr753
 _ZN3nux15NumericValuator8SetValueEf@Base 4.0~bzr753
 _ZN3nux15NumericValuatorC1Ev@Base 4.0~bzr753
 _ZN3nux15NumericValuatorC2Ev@Base 4.0~bzr753
 _ZN3nux15NumericValuatorD0Ev@Base 4.0~bzr753
 _ZN3nux15NumericValuatorD1Ev@Base 4.0~bzr753
 _ZN3nux15NumericValuatorD2Ev@Base 4.0~bzr753
 _ZN3nux16AbstractComboBox11DrawContentERNS_14GraphicsEngineEb@Base 4.0~bzr753
 _ZN3nux16AbstractComboBox14RecvMouseEnterEiimm@Base 4.0~bzr753
 _ZN3nux16AbstractComboBox14RecvMouseLeaveEiimm@Base 4.0~bzr753
 _ZN3nux16AbstractComboBox14m_sCOMBO_COLORE@Base 4.0~bzr753
 _ZN3nux16AbstractComboBox21m_sCOMBO_BUTTON_COLORE@Base 4.0~bzr753
 _ZN3nux16AbstractComboBox24m_sCOMBO_MOUSEOVER_COLORE@Base 4.0~bzr753
 _ZN3nux16AbstractComboBox4DrawERNS_14GraphicsEngineEb@Base 4.0~bzr753
 _ZN3nux16AbstractComboBoxC1EPKci@Base 4.0~bzr753
 _ZN3nux16AbstractComboBoxC2EPKci@Base 4.0~bzr753
 _ZN3nux16AbstractComboBoxD0Ev@Base 4.0~bzr753
 _ZN3nux16AbstractComboBoxD1Ev@Base 4.0~bzr753
 _ZN3nux16AbstractComboBoxD2Ev@Base 4.0~bzr753
 _ZN3nux16ColorDialogProxy12RecvDialogOkEPNS_11ColorEditorE@Base 4.0~bzr753
 _ZN3nux16ColorDialogProxy13GetColorModelEv@Base 4.0~bzr753
 _ZN3nux16ColorDialogProxy13SetColorModelENS_5color5ModelE@Base 4.0~bzr753
 _ZN3nux16ColorDialogProxy15GetColorChannelEv@Base 4.0~bzr753
 _ZN3nux16ColorDialogProxy15SetColorChannelENS_5color7ChannelE@Base 4.0~bzr753
 _ZN3nux16ColorDialogProxy16GetPreviousColorEv@Base 4.0~bzr753
 _ZN3nux16ColorDialogProxy16RecvDialogCancelEPNS_11ColorEditorE@Base 4.0~bzr753
 _ZN3nux16ColorDialogProxy16RecvDialogChangeEPNS_11ColorEditorE@Base 4.0~bzr753
 _ZN3nux16ColorDialogProxy16SetPreviousColorENS_5color5ColorE@Base 4.0~bzr753
 _ZN3nux16ColorDialogProxy20StopThreadMonitoringEv@Base 4.0~bzr753
 _ZN3nux16ColorDialogProxy5StartEv@Base 4.0~bzr753
 _ZN3nux16ColorDialogProxy8GetColorEv@Base 4.0~bzr753
 _ZN3nux16ColorDialogProxy8IsActiveEv@Base 4.0~bzr753
 _ZN3nux16ColorDialogProxy8SetColorENS_5color5ColorE@Base 4.0~bzr753
 _ZN3nux16ColorDialogProxyC1Eb@Base 4.0~bzr753
 _ZN3nux16ColorDialogProxyC2Eb@Base 4.0~bzr753
 _ZN3nux16ColorDialogProxyD1Ev@Base 4.0~bzr753
 _ZN3nux16ColorDialogProxyD2Ev@Base 4.0~bzr753
 _ZN3nux16CompositionLayer11RenderlayerERNS_14GraphicsEngineE@Base 4.0~bzr753
 _ZN3nux16CompositionLayerC1ENS_9ObjectPtrINS_18IOpenGLBaseTextureEEENS_13TexCoordXFormERKNS_5color5ColorES3_S4_S8_NS_14LayerBlendModeEbRKNS_9ROPConfigE@Base 4.0~bzr753
 _ZN3nux16CompositionLayerC1ENS_9ObjectPtrINS_18IOpenGLBaseTextureEEENS_13TexCoordXFormERKNS_5color5ColorES8_NS_14LayerBlendModeEbRKNS_9ROPConfigE@Base 4.0~bzr753
 _ZN3nux16CompositionLayerC1ERKNS_5color5ColorENS_9ObjectPtrINS_18IOpenGLBaseTextureEEENS_13TexCoordXFormES4_NS_14LayerBlendModeEbRKNS_9ROPConfigE@Base 4.0~bzr753
 _ZN3nux16CompositionLayerC1ERKNS_5color5ColorES4_NS_14LayerBlendModeEbRKNS_9ROPConfigE@Base 4.0~bzr753
 _ZN3nux16CompositionLayerC2ENS_9ObjectPtrINS_18IOpenGLBaseTextureEEENS_13TexCoordXFormERKNS_5color5ColorES3_S4_S8_NS_14LayerBlendModeEbRKNS_9ROPConfigE@Base 4.0~bzr753
 _ZN3nux16CompositionLayerC2ENS_9ObjectPtrINS_18IOpenGLBaseTextureEEENS_13TexCoordXFormERKNS_5color5ColorES8_NS_14LayerBlendModeEbRKNS_9ROPConfigE@Base 4.0~bzr753
 _ZN3nux16CompositionLayerC2ERKNS_5color5ColorENS_9ObjectPtrINS_18IOpenGLBaseTextureEEENS_13TexCoordXFormES4_NS_14LayerBlendModeEbRKNS_9ROPConfigE@Base 4.0~bzr753
 _ZN3nux16CompositionLayerC2ERKNS_5color5ColorES4_NS_14LayerBlendModeEbRKNS_9ROPConfigE@Base 4.0~bzr753
 _ZN3nux16CompositionLayerD0Ev@Base 4.0~bzr753
 _ZN3nux16CompositionLayerD1Ev@Base 4.0~bzr753
 _ZN3nux16CompositionLayerD2Ev@Base 4.0~bzr753
 _ZN3nux16IntegerValidator10SetMaximumEi@Base 4.0~bzr753
 _ZN3nux16IntegerValidator10SetMinimumEi@Base 4.0~bzr753
 _ZN3nux16IntegerValidator11AlternativeEPKc@Base 4.0~bzr753
 _ZN3nux16IntegerValidator8ToStringEi@Base 4.0~bzr753
 _ZN3nux16IntegerValidator9ToIntegerEPKc@Base 4.0~bzr753
 _ZN3nux16IntegerValidatorC1ERKS0_@Base 4.0~bzr753
 _ZN3nux16IntegerValidatorC1Eii@Base 4.0~bzr753
 _ZN3nux16IntegerValidatorC2ERKS0_@Base 4.0~bzr753
 _ZN3nux16IntegerValidatorC2Eii@Base 4.0~bzr753
 _ZN3nux16IntegerValidatorD0Ev@Base 4.0~bzr753
 _ZN3nux16IntegerValidatorD1Ev@Base 4.0~bzr753
 _ZN3nux16IntegerValidatorD2Ev@Base 4.0~bzr753
 _ZN3nux16IntegerValidatoraSERKS0_@Base 4.0~bzr753
 _ZN3nux16NCriticalSectionD1Ev@Base 4.0~bzr753
 _ZN3nux16NCriticalSectionD2Ev@Base 4.0~bzr753
 _ZN3nux16RadioButtonGroup11NotifyClickEPNS_11RadioButtonE@Base 4.0~bzr753
 _ZN3nux16RadioButtonGroup13ConnectButtonEPNS_11RadioButtonE@Base 4.0~bzr753
 _ZN3nux16RadioButtonGroup13GetNumButtonsEv@Base 4.0~bzr753
 _ZN3nux16RadioButtonGroup15SetActiveButtonEPNS_11RadioButtonEb@Base 4.0~bzr753
 _ZN3nux16RadioButtonGroup16DisconnectButtonEPNS_11RadioButtonE@Base 4.0~bzr753
 _ZN3nux16RadioButtonGroup16StaticObjectTypeE@Base 4.0~bzr753
 _ZN3nux16RadioButtonGroupC1EPKci@Base 4.0~bzr753
 _ZN3nux16RadioButtonGroupC2EPKci@Base 4.0~bzr753
 _ZN3nux16RadioButtonGroupD0Ev@Base 4.0~bzr753
 _ZN3nux16RadioButtonGroupD1Ev@Base 4.0~bzr753
 _ZN3nux16RadioButtonGroupD2Ev@Base 4.0~bzr753
 _ZN3nux16WindowCompositor10GetDnDAreaEv@Base 4.0~bzr753
 _ZN3nux16WindowCompositor10PushHigherEPNS_10BaseWindowES2_b@Base 4.0~bzr753
 _ZN3nux16WindowCompositor10PushToBackEPNS_10BaseWindowE@Base 4.0~bzr753
 _ZN3nux16WindowCompositor10RemoveMenuEPNS_8MenuPageE@Base 4.0~bzr753
 _ZN3nux16WindowCompositor10SetDnDAreaEPNS_9InputAreaE@Base 4.0~bzr753
 _ZN3nux16WindowCompositor10SetTooltipEPNS_9InputAreaEPKcii@Base 4.0~bzr753
 _ZN3nux16WindowCompositor11DrawOverlayEb@Base 4.0~bzr753
 _ZN3nux16WindowCompositor11DrawTooltipEb@Base 4.0~bzr753
 _ZN3nux16WindowCompositor11PushToFrontEPNS_10BaseWindowE@Base 4.0~bzr753
 _ZN3nux16WindowCompositor12ProcessEventERNS_5EventE@Base 4.0~bzr753
 _ZN3nux16WindowCompositor12ResetDnDAreaEv@Base 4.0~bzr753
 _ZN3nux16WindowCompositor12SendKeyEventEPNS_9InputAreaENS_9EventTypeEjmmPKci@Base 4.0~bzr753
 _ZN3nux16WindowCompositor13CancelTooltipEv@Base 4.0~bzr753
 _ZN3nux16WindowCompositor13DndEventCycleERNS_5EventE@Base 4.0~bzr753
 _ZN3nux16WindowCompositor14GrabPointerAddEPNS_9InputAreaE@Base 4.0~bzr753
 _ZN3nux16WindowCompositor14MenuEventCycleERNS_5EventE@Base 4.0~bzr753
 _ZN3nux16WindowCompositor14RegisterWindowEPNS_10BaseWindowE@Base 4.0~bzr753
 _ZN3nux16WindowCompositor14RenderTopViewsEbRSt4listINS_13ObjectWeakPtrINS_10BaseWindowEEESaIS4_EEb@Base 4.0~bzr753
 _ZN3nux16WindowCompositor15GetKeyFocusAreaEv@Base 4.0~bzr753
 _ZN3nux16WindowCompositor15GetWindowBufferEPNS_10BaseWindowE@Base 4.0~bzr753
 _ZN3nux16WindowCompositor15GrabKeyboardAddEPNS_9InputAreaE@Base 4.0~bzr753
 _ZN3nux16WindowCompositor15IsTooltipActiveEv@Base 4.0~bzr753
 _ZN3nux16WindowCompositor15MouseEventCycleERNS_5EventE@Base 4.0~bzr753
 _ZN3nux16WindowCompositor15SetKeyFocusAreaEPNS_9InputAreaENS_15KeyNavDirectionE@Base 4.0~bzr753
 _ZN3nux16WindowCompositor15StopModalWindowENS_13ObjectWeakPtrINS_10BaseWindowEEE@Base 4.0~bzr753
 _ZN3nux16WindowCompositor16BeforeDestructorEv@Base 4.0~bzr753
 _ZN3nux16WindowCompositor16FindKeyFocusAreaENS_9EventTypeEjjRNS_13ObjectWeakPtrINS_9InputAreaEEERNS2_INS_10BaseWindowEEE@Base 4.0~bzr753
 _ZN3nux16WindowCompositor16GetMousePositionEv@Base 4.0~bzr753
 _ZN3nux16WindowCompositor16SetGestureBrokerESt10unique_ptrINS_13GestureBrokerESt14default_deleteIS2_EE@Base 4.0~bzr753
 _ZN3nux16WindowCompositor16StartModalWindowENS_13ObjectWeakPtrINS_10BaseWindowEEE@Base 4.0~bzr753
 _ZN3nux16WindowCompositor16UnRegisterWindowEPNS_6ObjectE@Base 4.0~bzr753
 _ZN3nux16WindowCompositor16UpdateMouseOwnerERKNS_5EventEb@Base 4.0~bzr753
 _ZN3nux16WindowCompositor17GetAreaUnderMouseERKNS_7Point2DIiEENS_9EventTypeERNS_13ObjectWeakPtrINS_9InputAreaEEERNS6_INS_10BaseWindowEEE@Base 4.0~bzr753
 _ZN3nux16WindowCompositor17GrabPointerRemoveEPNS_9InputAreaE@Base 4.0~bzr753
 _ZN3nux16WindowCompositor17SetMouseOwnerAreaEPNS_9InputAreaE@Base 4.0~bzr753
 _ZN3nux16WindowCompositor18CheckMouseNearAreaERKNS_5EventE@Base 4.0~bzr753
 _ZN3nux16WindowCompositor18FindAreaUnderMouseERKNS_7Point2DIiEENS_9EventTypeERNS_13ObjectWeakPtrINS_9InputAreaEEE@Base 4.0~bzr753
 _ZN3nux16WindowCompositor18GetPointerGrabAreaEv@Base 4.0~bzr753
 _ZN3nux16WindowCompositor18GrabKeyboardRemoveEPNS_9InputAreaE@Base 4.0~bzr753
 _ZN3nux16WindowCompositor18KeyboardEventCycleERNS_5EventE@Base 4.0~bzr753
 _ZN3nux16WindowCompositor18TrackMouseMovementERKNS_5EventEb@Base 4.0~bzr753
 _ZN3nux16WindowCompositor19FormatRenderTargetsEii@Base 4.0~bzr753
 _ZN3nux16WindowCompositor19GetKeyboardGrabAreaEv@Base 4.0~bzr753
 _ZN3nux16WindowCompositor19LocateGestureTargetERKNS_12GestureEventE@Base 4.0~bzr753
 _ZN3nux16WindowCompositor20FindKeyFocusAreaFromENS_9EventTypeEjjPNS_9InputAreaERNS_13ObjectWeakPtrIS2_EERNS4_INS_10BaseWindowEEE@Base 4.0~bzr753
 _ZN3nux16WindowCompositor20GetBackupTextureDataEPNS_10BaseWindowERiS3_S3_@Base 4.0~bzr753
 _ZN3nux16WindowCompositor20IsInPointerGrabStackEPNS_9InputAreaE@Base 4.0~bzr753
 _ZN3nux16WindowCompositor20RenderTargetTexturesC1ERKS1_@Base 4.0~bzr753
 _ZN3nux16WindowCompositor20RenderTargetTexturesC2ERKS1_@Base 4.0~bzr753
 _ZN3nux16WindowCompositor20RenderTargetTexturesD1Ev@Base 4.0~bzr753
 _ZN3nux16WindowCompositor20RenderTargetTexturesD2Ev@Base 4.0~bzr753
 _ZN3nux16WindowCompositor20RenderTargetTexturesaSERKS1_@Base 4.0~bzr753
 _ZN3nux16WindowCompositor20RenderTopViewContentEPNS_10BaseWindowEb@Base 4.0~bzr753
 _ZN3nux16WindowCompositor21IsInKeyboardGrabStackEPNS_9InputAreaE@Base 4.0~bzr753
 _ZN3nux16WindowCompositor21PresentBufferToScreenENS_9ObjectPtrINS_18IOpenGLBaseTextureEEEiibbfb@Base 4.0~bzr753
 _ZN3nux16WindowCompositor22AddAreaInProximityListEPNS_18InputAreaProximityE@Base 4.0~bzr753
 _ZN3nux16WindowCompositor22ProcessMouseWheelEventERNS_5EventE@Base 4.0~bzr753
 _ZN3nux16WindowCompositor22ResetMousePointerAreasEv@Base 4.0~bzr753
 _ZN3nux16WindowCompositor22RestoreMainFramebufferEv@Base 4.0~bzr753
 _ZN3nux16WindowCompositor22SetAlwaysOnFrontWindowEPNS_10BaseWindowE@Base 4.0~bzr753
 _ZN3nux16WindowCompositor23GetWidgetDrawingOverlayEv@Base 4.0~bzr753
 _ZN3nux16WindowCompositor23RestoreRenderingSurfaceEv@Base 4.0~bzr753
 _ZN3nux16WindowCompositor23SetBackgroundPaintLayerEPNS_18AbstractPaintLayerE@Base 4.0~bzr753
 _ZN3nux16WindowCompositor23SetReferenceFramebufferEjNS_4RectE@Base 4.0~bzr753
 _ZN3nux16WindowCompositor23SetWidgetDrawingOverlayEPNS_9InputAreaEPNS_10BaseWindowE@Base 4.0~bzr753
 _ZN3nux16WindowCompositor25EnsureAlwaysOnFrontWindowEv@Base 4.0~bzr753
 _ZN3nux16WindowCompositor25RemoveAreaInProximityListEPNS_18InputAreaProximityE@Base 4.0~bzr753
 _ZN3nux16WindowCompositor26UpdateWhatAreaIsUnderMouseERKNS_5EventE@Base 4.0~bzr753
 _ZN3nux16WindowCompositor27FloatingAreaConfigureNotifyEii@Base 4.0~bzr753
 _ZN3nux16WindowCompositor27RenderMainWindowCompositionEb@Base 4.0~bzr753
 _ZN3nux16WindowCompositor27RestoreReferenceFramebufferEv@Base 4.0~bzr753
 _ZN3nux16WindowCompositor28UpdateKeyNavFocusOnMouseDownEv@Base 4.0~bzr753
 _ZN3nux16WindowCompositor30ValidateMouseInsideTooltipAreaEii@Base 4.0~bzr753
 _ZN3nux16WindowCompositor39UpdateEventTrackingByMouseOwnerAncestorERKNS_5EventE@Base 4.0~bzr753
 _ZN3nux16WindowCompositor40FindAncestorInterestedInChildMouseEventsEPNS_4AreaE@Base 4.0~bzr753
 _ZN3nux16WindowCompositor4DrawEbb@Base 4.0~bzr753
 _ZN3nux16WindowCompositor7AddMenuEPNS_8MenuPageEPNS_10BaseWindowEb@Base 4.0~bzr753
 _ZN3nux16WindowCompositor8DrawMenuEb@Base 4.0~bzr753
 _ZN3nux16WindowCompositor9CleanMenuEv@Base 4.0~bzr753
 _ZN3nux16WindowCompositorC1EPNS_12WindowThreadE@Base 4.0~bzr753
 _ZN3nux16WindowCompositorC2EPNS_12WindowThreadE@Base 4.0~bzr753
 _ZN3nux16WindowCompositorD1Ev@Base 4.0~bzr753
 _ZN3nux16WindowCompositorD2Ev@Base 4.0~bzr753
 _ZN3nux17ColorPickerDialog10RecvCancelEv@Base 4.0~bzr753
 _ZN3nux17ColorPickerDialog11StartDialogERNS_5color5ColorENS1_5ModelEb@Base 4.0~bzr753
 _ZN3nux17ColorPickerDialog6RecvOkEv@Base 4.0~bzr753
 _ZN3nux17ColorPickerDialogC1Ev@Base 4.0~bzr753
 _ZN3nux17ColorPickerDialogC2Ev@Base 4.0~bzr753
 _ZN3nux17ColorPickerDialogD0Ev@Base 4.0~bzr753
 _ZN3nux17ColorPickerDialogD1Ev@Base 4.0~bzr753
 _ZN3nux17ColorPickerDialogD2Ev@Base 4.0~bzr753
 _ZN3nux17GetOffsetFromRectERKNS_4RectERKNS_7Point2DIiEE@Base 4.0~bzr753
 _ZN3nux17GetUTF8CharLengthEPKc@Base 4.0~bzr753
 _ZN3nux17KineticScrollView11DrawContentERNS_14GraphicsEngineEb@Base 4.0~bzr753
 _ZN3nux17KineticScrollView11OnMouseDownEiimm@Base 4.0~bzr753
 _ZN3nux17KineticScrollView11OnMouseDragEiiiimm@Base 4.0~bzr753
 _ZN3nux17KineticScrollView15ChildMouseEventERKNS_5EventE@Base 4.0~bzr753
 _ZN3nux17KineticScrollView16StaticObjectTypeE@Base 4.0~bzr753
 _ZN3nux17KineticScrollView17SetBoundsBehaviorENS_14BoundsBehaviorE@Base 4.0~bzr753
 _ZN3nux17KineticScrollView18PostResizeGeometryEv@Base 4.0~bzr753
 _ZN3nux17KineticScrollView20PostLayoutManagementEl@Base 4.0~bzr753
 _ZN3nux17KineticScrollView20SetLayoutTranslationEii@Base 4.0~bzr753
 _ZN3nux17KineticScrollView23SetScrollableDirectionsENS_20ScrollableDirectionsE@Base 4.0~bzr753
 _ZN3nux17KineticScrollView4DrawERNS_14GraphicsEngineEb@Base 4.0~bzr753
 _ZN3nux17KineticScrollView9OnMouseUpEiimm@Base 4.0~bzr753
 _ZN3nux17KineticScrollViewC1EPKci@Base 4.0~bzr753
 _ZN3nux17KineticScrollViewC2EPKci@Base 4.0~bzr753
 _ZN3nux17KineticScrollViewD0Ev@Base 4.0~bzr753
 _ZN3nux17KineticScrollViewD1Ev@Base 4.0~bzr753
 _ZN3nux17KineticScrollViewD2Ev@Base 4.0~bzr753
 _ZN3nux17RangeValueInteger10DrawMarkerERNS_14GraphicsEngineE@Base 4.0~bzr753
 _ZN3nux17RangeValueInteger11DrawContentERNS_14GraphicsEngineEb@Base 4.0~bzr753
 _ZN3nux17RangeValueInteger14BroadcastValueEv@Base 4.0~bzr753
 _ZN3nux17RangeValueInteger15OnKeyboardFocusEv@Base 4.0~bzr753
 _ZN3nux17RangeValueInteger16InitializeLayoutEv@Base 4.0~bzr753
 _ZN3nux17RangeValueInteger16OnReceiveMouseUpEiimm@Base 4.0~bzr753
 _ZN3nux17RangeValueInteger17InitializeWidgetsEv@Base 4.0~bzr753
 _ZN3nux17RangeValueInteger18OnReceiveMouseDownEiimm@Base 4.0~bzr753
 _ZN3nux17RangeValueInteger18OnReceiveMouseDragEiiiimm@Base 4.0~bzr753
 _ZN3nux17RangeValueInteger19OnLostKeyboardFocusEv@Base 4.0~bzr753
 _ZN3nux17RangeValueInteger23OnValidateKeyboardEntryEPNS_11EditTextBoxERKSs@Base 4.0~bzr753
 _ZN3nux17RangeValueInteger4DrawERNS_14GraphicsEngineEb@Base 4.0~bzr753
 _ZN3nux17RangeValueInteger8SetRangeEii@Base 4.0~bzr753
 _ZN3nux17RangeValueInteger8SetValueEi@Base 4.0~bzr753
 _ZN3nux17RangeValueIntegerC1EiiiPKci@Base 4.0~bzr753
 _ZN3nux17RangeValueIntegerC2EiiiPKci@Base 4.0~bzr753
 _ZN3nux17RangeValueIntegerD0Ev@Base 4.0~bzr753
 _ZN3nux17RangeValueIntegerD1Ev@Base 4.0~bzr753
 _ZN3nux17RangeValueIntegerD2Ev@Base 4.0~bzr753
 _ZN3nux17RegisterNuxThreadEPNS_7NThreadE@Base 4.0~bzr753
 _ZN3nux17kinetic_scrolling15TimerTickSource12TimerExpiredEPv@Base 4.0~bzr753
 _ZN3nux17kinetic_scrolling15TimerTickSource4StopEv@Base 4.0~bzr753
 _ZN3nux17kinetic_scrolling15TimerTickSource4TickEPv@Base 4.0~bzr753
 _ZN3nux17kinetic_scrolling15TimerTickSource5StartEv@Base 4.0~bzr753
 _ZN3nux17kinetic_scrolling15TimerTickSourceC1Ev@Base 4.0~bzr753
 _ZN3nux17kinetic_scrolling15TimerTickSourceC2Ev@Base 4.0~bzr753
 _ZN3nux17kinetic_scrolling15TimerTickSourceD0Ev@Base 4.0~bzr753
 _ZN3nux17kinetic_scrolling15TimerTickSourceD1Ev@Base 4.0~bzr753
 _ZN3nux17kinetic_scrolling15TimerTickSourceD2Ev@Base 4.0~bzr753
 _ZN3nux17kinetic_scrolling19TickSourceInterfaceD0Ev@Base 4.0~bzr753
 _ZN3nux17kinetic_scrolling19TickSourceInterfaceD1Ev@Base 4.0~bzr753
 _ZN3nux17kinetic_scrolling19TickSourceInterfaceD2Ev@Base 4.0~bzr753
 _ZN3nux18AbstractPaintLayer11SetGeometryERKNS_4RectE@Base 4.0~bzr753
 _ZN3nux18AbstractPaintLayer18GetModelViewMatrixEv@Base 4.0~bzr753
 _ZN3nux18AbstractPaintLayer18SetModelViewMatrixERKNS_9Matrix4x4IfEE@Base 4.0~bzr753
 _ZN3nux18AbstractPaintLayerC1Ev@Base 4.0~bzr753
 _ZN3nux18AbstractPaintLayerC2Ev@Base 4.0~bzr753
 _ZN3nux18AbstractPaintLayerD0Ev@Base 4.0~bzr753
 _ZN3nux18AbstractPaintLayerD1Ev@Base 4.0~bzr753
 _ZN3nux18AbstractPaintLayerD2Ev@Base 4.0~bzr753
 _ZN3nux18COLOR_PRIMARY_LEFTE@Base 4.0~bzr753
 _ZN3nux18CreateSystemThreadEPNS_14AbstractThreadEPFvPNS_7NThreadEPvES4_@Base 4.0~bzr753
 _ZN3nux18CreateWindowThreadENS_11WindowStyleEPKciiPNS_12WindowThreadEPFvPNS_7NThreadEPvES7_@Base 4.0~bzr753
 _ZN3nux18GetThreadNuxWindowEv@Base 4.0~bzr753
 _ZN3nux18HexRegExpValidator10SetMaximumEi@Base 4.0~bzr753
 _ZN3nux18HexRegExpValidator10SetMinimumEi@Base 4.0~bzr753
 _ZN3nux18HexRegExpValidator11AlternativeEPKc@Base 4.0~bzr753
 _ZN3nux18HexRegExpValidator8ToStringEi@Base 4.0~bzr753
 _ZN3nux18HexRegExpValidator9ToIntegerEPKc@Base 4.0~bzr753
 _ZN3nux18HexRegExpValidatorC1ERKS0_@Base 4.0~bzr753
 _ZN3nux18HexRegExpValidatorC1Eii@Base 4.0~bzr753
 _ZN3nux18HexRegExpValidatorC2ERKS0_@Base 4.0~bzr753
 _ZN3nux18HexRegExpValidatorC2Eii@Base 4.0~bzr753
 _ZN3nux18HexRegExpValidatorD0Ev@Base 4.0~bzr753
 _ZN3nux18HexRegExpValidatorD1Ev@Base 4.0~bzr753
 _ZN3nux18HexRegExpValidatorD2Ev@Base 4.0~bzr753
 _ZN3nux18HexRegExpValidatoraSERKS0_@Base 4.0~bzr753
 _ZN3nux18InputAreaProximity18CheckMousePositionERKNS_7Point2DIiEE@Base 4.0~bzr753
 _ZN3nux18InputAreaProximityC1EPNS_9InputAreaEj@Base 4.0~bzr753
 _ZN3nux18InputAreaProximityC2EPNS_9InputAreaEj@Base 4.0~bzr753
 _ZN3nux18InputAreaProximityD0Ev@Base 4.0~bzr753
 _ZN3nux18InputAreaProximityD1Ev@Base 4.0~bzr753
 _ZN3nux18InputAreaProximityD2Ev@Base 4.0~bzr753
 _ZN3nux18TimelineEaseInQuad9GetEasingEv@Base 4.0~bzr753
 _ZN3nux18TimelineEaseInQuadC1EjPKcS2_i@Base 4.0~bzr753
 _ZN3nux18TimelineEaseInQuadC2EjPKcS2_i@Base 4.0~bzr753
 _ZN3nux18TimelineEaseInQuadD0Ev@Base 4.0~bzr753
 _ZN3nux18TimelineEaseInQuadD1Ev@Base 4.0~bzr753
 _ZN3nux18TimelineEaseInQuadD2Ev@Base 4.0~bzr753
 _ZN3nux18VelocityCalculator15ProcessMovementEi@Base 4.0~bzr753
 _ZN3nux18VelocityCalculator5ResetEv@Base 4.0~bzr753
 _ZN3nux18VelocityCalculatorC1Ev@Base 4.0~bzr753
 _ZN3nux18VelocityCalculatorC2Ev@Base 4.0~bzr753
 _ZN3nux18nux_event_dispatchEP8_GSourcePFiPvES2_@Base 4.0~bzr753
 _ZN3nux19AnimatedTextureArea10SetTextureEPNS_21TextureFrameAnimationE@Base 4.0~bzr753
 _ZN3nux19AnimatedTextureArea11DrawContentERNS_14GraphicsEngineEb@Base 4.0~bzr753
 _ZN3nux19AnimatedTextureArea13RecvMouseDownEiill@Base 4.0~bzr753
 _ZN3nux19AnimatedTextureArea13RecvMouseDragEiiiimm@Base 4.0~bzr753
 _ZN3nux19AnimatedTextureArea13StopAnimationEv@Base 4.0~bzr753
 _ZN3nux19AnimatedTextureArea14StartAnimationEv@Base 4.0~bzr753
 _ZN3nux19AnimatedTextureArea14TimerNextFrameEPv@Base 4.0~bzr753
 _ZN3nux19AnimatedTextureArea4DrawERNS_14GraphicsEngineEb@Base 4.0~bzr753
 _ZN3nux19AnimatedTextureAreaC1EPKci@Base 4.0~bzr753
 _ZN3nux19AnimatedTextureAreaC2EPKci@Base 4.0~bzr753
 _ZN3nux19AnimatedTextureAreaD0Ev@Base 4.0~bzr753
 _ZN3nux19AnimatedTextureAreaD1Ev@Base 4.0~bzr753
 _ZN3nux19AnimatedTextureAreaD2Ev@Base 4.0~bzr753
 _ZN3nux19BaseKeyboardHandler10EnterFocusEv@Base 4.0~bzr753
 _ZN3nux19BaseKeyboardHandler10InsertCharEj@Base 4.0~bzr753
 _ZN3nux19BaseKeyboardHandler10PlaceCaretEj@Base 4.0~bzr753
 _ZN3nux19BaseKeyboardHandler10ProcessKeyEmmmcRKNS_4RectE@Base 4.0~bzr753
 _ZN3nux19BaseKeyboardHandler13SelectAllTextEv@Base 4.0~bzr753
 _ZN3nux19BaseKeyboardHandler13SetClipRegionERKNS_4RectE@Base 4.0~bzr753
 _ZN3nux19BaseKeyboardHandler14IsTextSelectedEv@Base 4.0~bzr753
 _ZN3nux19BaseKeyboardHandler14s_cursor_widthE@Base 4.0~bzr753
 _ZN3nux19BaseKeyboardHandler15CaretAutoScrollEiiNS_4RectE@Base 4.0~bzr753
 _ZN3nux19BaseKeyboardHandler15GetKeyEntryTypeEv@Base 4.0~bzr753
 _ZN3nux19BaseKeyboardHandler15MoveCursorAtEndEv@Base 4.0~bzr753
 _ZN3nux19BaseKeyboardHandler15SetKeyEntryTypeENS0_13eKeyEntryTypeE@Base 4.0~bzr753
 _ZN3nux19BaseKeyboardHandler15UnselectAllTextEv@Base 4.0~bzr753
 _ZN3nux19BaseKeyboardHandler16NextWordPositionEj@Base 4.0~bzr753
 _ZN3nux19BaseKeyboardHandler16PrevWordPositionEj@Base 4.0~bzr753
 _ZN3nux19BaseKeyboardHandler17MoveCursorAtStartEv@Base 4.0~bzr753
 _ZN3nux19BaseKeyboardHandler19DeleteSelectionTextEv@Base 4.0~bzr753
 _ZN3nux19BaseKeyboardHandler20ResolveCaretPositionEii@Base 4.0~bzr753
 _ZN3nux19BaseKeyboardHandler24s_jump_offset_at_bordersE@Base 4.0~bzr753
 _ZN3nux19BaseKeyboardHandler27AdjustCursorAndTextPositionEv@Base 4.0~bzr753
 _ZN3nux19BaseKeyboardHandler7MouseUpEii@Base 4.0~bzr753
 _ZN3nux19BaseKeyboardHandler7SetFontENS_9ObjectPtrINS_11FontTextureEEE@Base 4.0~bzr753
 _ZN3nux19BaseKeyboardHandler7SetTextEPKc@Base 4.0~bzr753
 _ZN3nux19BaseKeyboardHandler7SetTextERKSs@Base 4.0~bzr753
 _ZN3nux19BaseKeyboardHandler9ClearTextEv@Base 4.0~bzr753
 _ZN3nux19BaseKeyboardHandler9MouseDownEii@Base 4.0~bzr753
 _ZN3nux19BaseKeyboardHandler9MouseDragEii@Base 4.0~bzr753
 _ZN3nux19BaseKeyboardHandlerC1Ev@Base 4.0~bzr753
 _ZN3nux19BaseKeyboardHandlerC2Ev@Base 4.0~bzr753
 _ZN3nux19BaseKeyboardHandlerD0Ev@Base 4.0~bzr753
 _ZN3nux19BaseKeyboardHandlerD1Ev@Base 4.0~bzr753
 _ZN3nux19BaseKeyboardHandlerD2Ev@Base 4.0~bzr753
 _ZN3nux19COLOR_PRIMARY_RIGHTE@Base 4.0~bzr753
 _ZN3nux19ExternalGLibSources15AddFdToGLibLoopEiPvPFiS1_EP13_GMainContext@Base 4.0.0
 _ZN3nux19ExternalGLibSources20RemoveFdFromGLibLoopEPv@Base 4.0.0
 _ZN3nux19GeometryPositioningC1ENS_19HorizontalAlignmentENS_17VerticalAlignmentEbbii@Base 4.0~bzr753
 _ZN3nux19GeometryPositioningC1Ev@Base 4.0~bzr753
 _ZN3nux19GeometryPositioningC2ENS_19HorizontalAlignmentENS_17VerticalAlignmentEbbii@Base 4.0~bzr753
 _ZN3nux19GeometryPositioningC2Ev@Base 4.0~bzr753
 _ZN3nux19GeometryPositioningD1Ev@Base 4.0~bzr753
 _ZN3nux19GeometryPositioningD2Ev@Base 4.0~bzr753
 _ZN3nux19GetWindowCompositorEv@Base 4.0~bzr753
 _ZN3nux19KineticAxisScroller10UpdateTimeEi@Base 4.0~bzr753
 _ZN3nux19KineticAxisScroller11FLICK_BOOSTE@Base 4.0~bzr753
 _ZN3nux19KineticAxisScroller15ProcessFingerUpEv@Base 4.0~bzr753
 _ZN3nux19KineticAxisScroller16SetContentLengthEi@Base 4.0~bzr753
 _ZN3nux19KineticAxisScroller17ProcessFingerDownEv@Base 4.0~bzr753
 _ZN3nux19KineticAxisScroller17ProcessFingerDragEi@Base 4.0~bzr753
 _ZN3nux19KineticAxisScroller17SetBoundsBehaviorENS_14BoundsBehaviorE@Base 4.0~bzr753
 _ZN3nux19KineticAxisScroller17SetViewportLengthEi@Base 4.0~bzr753
 _ZN3nux19KineticAxisScroller18SetContentPositionEi@Base 4.0~bzr753
 _ZN3nux19KineticAxisScroller19MINIMUM_FLICK_SPEEDE@Base 4.0~bzr753
 _ZN3nux19KineticAxisScroller7Private15ProcessFingerUpEv@Base 4.0~bzr753
 _ZN3nux19KineticAxisScroller7Private16UpdateAnimationsEi@Base 4.0~bzr753
 _ZN3nux19KineticAxisScroller7Private17ProcessFingerDownEv@Base 4.0~bzr753
 _ZN3nux19KineticAxisScroller7Private17ProcessFingerDragEi@Base 4.0~bzr753
 _ZN3nux19KineticAxisScroller7Private25CalculateContentPosLimitsEv@Base 4.0~bzr753
 _ZN3nux19KineticAxisScroller7Private25ProcessFingerDrag_PressedEi@Base 4.0~bzr753
 _ZN3nux19KineticAxisScroller7Private33ProcessFingerDrag_FollowingFingerEi@Base 4.0~bzr753
 _ZN3nux19KineticAxisScroller7PrivateC1Ev@Base 4.0~bzr753
 _ZN3nux19KineticAxisScroller7PrivateC2Ev@Base 4.0~bzr753
 _ZN3nux19KineticAxisScrollerC1Ev@Base 4.0~bzr753
 _ZN3nux19KineticAxisScrollerC2Ev@Base 4.0~bzr753
 _ZN3nux19KineticAxisScrollerD0Ev@Base 4.0~bzr753
 _ZN3nux19KineticAxisScrollerD1Ev@Base 4.0~bzr753
 _ZN3nux19KineticAxisScrollerD2Ev@Base 4.0~bzr753
 _ZN3nux19TimelineEaseInCubic9GetEasingEv@Base 4.0~bzr753
 _ZN3nux19TimelineEaseInCubicC1EjPKcS2_i@Base 4.0~bzr753
 _ZN3nux19TimelineEaseInCubicC2EjPKcS2_i@Base 4.0~bzr753
 _ZN3nux19TimelineEaseInCubicD0Ev@Base 4.0~bzr753
 _ZN3nux19TimelineEaseInCubicD1Ev@Base 4.0~bzr753
 _ZN3nux19TimelineEaseInCubicD2Ev@Base 4.0~bzr753
 _ZN3nux19TimelineEaseOutQuad9GetEasingEv@Base 4.0~bzr753
 _ZN3nux19TimelineEaseOutQuadC1EjPKcS2_i@Base 4.0~bzr753
 _ZN3nux19TimelineEaseOutQuadC2EjPKcS2_i@Base 4.0~bzr753
 _ZN3nux19TimelineEaseOutQuadD0Ev@Base 4.0~bzr753
 _ZN3nux19TimelineEaseOutQuadD1Ev@Base 4.0~bzr753
 _ZN3nux19TimelineEaseOutQuadD2Ev@Base 4.0~bzr753
 _ZN3nux19UnregisterNuxThreadEPNS_7NThreadE@Base 4.0~bzr753
 _ZN3nux20DEFAULT_REPEAT_DELAYE@Base 4.0~bzr753
 _ZN3nux20DEFAULT_WIDGET_WIDTHE@Base 4.0~bzr753
 _ZN3nux20DefaultGestureBroker18FindGestureTargetsERKNS_12GestureEventE@Base 4.0~bzr753
 _ZN3nux20DefaultGestureBrokerC1EPNS_16WindowCompositorE@Base 4.0~bzr753
 _ZN3nux20DefaultGestureBrokerC2EPNS_16WindowCompositorE@Base 4.0~bzr753
 _ZN3nux20DefaultGestureBrokerD0Ev@Base 4.0~bzr753
 _ZN3nux20DefaultGestureBrokerD1Ev@Base 4.0~bzr753
 _ZN3nux20DefaultGestureBrokerD2Ev@Base 4.0~bzr753
 _ZN3nux20GesturesSubscription10DeactivateEv@Base 4.0~bzr753
 _ZN3nux20GesturesSubscription11SetWindowIdEi@Base 4.0~bzr753
 _ZN3nux20GesturesSubscription13SetNumTouchesEj@Base 4.0~bzr753
 _ZN3nux20GesturesSubscription17SetGestureClassesEi@Base 4.0~bzr753
 _ZN3nux20GesturesSubscription21SetRecognitionTimeoutENS_12GestureClassEi@Base 4.0~bzr753
 _ZN3nux20GesturesSubscription22CreateGeisSubscriptionEv@Base 4.0~bzr753
 _ZN3nux20GesturesSubscription22UpdateGeisSubscriptionEv@Base 4.0~bzr753
 _ZN3nux20GesturesSubscription23SetRecognitionThresholdENS_12GestureClassEf@Base 4.0~bzr753
 _ZN3nux20GesturesSubscription24CreateGeisGestureClassesEv@Base 4.0~bzr753
 _ZN3nux20GesturesSubscription25ConfigureGeisSubscriptionEv@Base 4.0~bzr753
 _ZN3nux20GesturesSubscription32AddGestureClassAndNumTouchesTermEP11_GeisFilter@Base 4.0~bzr753
 _ZN3nux20GesturesSubscription34CreateGeisSubscriptionWhenPossibleEv@Base 4.0~bzr753
 _ZN3nux20GesturesSubscription8ActivateEv@Base 4.0~bzr753
 _ZN3nux20GesturesSubscriptionC1Ev@Base 4.0~bzr753
 _ZN3nux20GesturesSubscriptionC2Ev@Base 4.0~bzr753
 _ZN3nux20GesturesSubscriptionD0Ev@Base 4.0~bzr753
 _ZN3nux20GesturesSubscriptionD1Ev@Base 4.0~bzr753
 _ZN3nux20GesturesSubscriptionD2Ev@Base 4.0~bzr753
 _ZN3nux20NuxGlobalInitializer7m_CountE@Base 4.0~bzr753
 _ZN3nux20NuxGlobalInitializerC1Ev@Base 4.0~bzr753
 _ZN3nux20NuxGlobalInitializerC2Ev@Base 4.0~bzr753
 _ZN3nux20NuxGlobalInitializerD1Ev@Base 4.0~bzr753
 _ZN3nux20NuxGlobalInitializerD2Ev@Base 4.0~bzr753
 _ZN3nux20TimelineEaseOutCubic9GetEasingEv@Base 4.0~bzr753
 _ZN3nux20TimelineEaseOutCubicC1EjPKcS2_i@Base 4.0~bzr753
 _ZN3nux20TimelineEaseOutCubicC2EjPKcS2_i@Base 4.0~bzr753
 _ZN3nux20TimelineEaseOutCubicD0Ev@Base 4.0~bzr753
 _ZN3nux20TimelineEaseOutCubicD1Ev@Base 4.0~bzr753
 _ZN3nux20TimelineEaseOutCubicD2Ev@Base 4.0~bzr753
 _ZN3nux20m_ScrollTimerFunctorE@Base 4.0~bzr753
 _ZN3nux20m_ScrollTimerHandlerE@Base 4.0~bzr753
 _ZN3nux20nux_timeout_dispatchEPv@Base 4.0~bzr753
 _ZN3nux21AbstractCheckedButton16SetLabelFontSizeEi@Base 4.0~bzr753
 _ZN3nux21AbstractCheckedButton16SetMaximumHeightEv@Base 4.0~bzr753
 _ZN3nux21AbstractCheckedButton16SetMinimumHeightEv@Base 4.0~bzr753
 _ZN3nux21AbstractCheckedButton16StaticObjectTypeE@Base 4.0~bzr753
 _ZN3nux21AbstractCheckedButton18ComputeContentSizeEv@Base 4.0~bzr753
 _ZN3nux21AbstractCheckedButton4DrawERNS_14GraphicsEngineEb@Base 4.0~bzr753
 _ZN3nux21AbstractCheckedButton8SetLabelERKSs@Base 4.0~bzr753
 _ZN3nux21AbstractCheckedButtonC1ERKSsbPKci@Base 4.0~bzr753
 _ZN3nux21AbstractCheckedButtonC2ERKSsbPKci@Base 4.0~bzr753
 _ZN3nux21AbstractCheckedButtonD0Ev@Base 4.0~bzr753
 _ZN3nux21AbstractCheckedButtonD1Ev@Base 4.0~bzr753
 _ZN3nux21AbstractCheckedButtonD2Ev@Base 4.0~bzr753
 _ZN3nux21COLOR_SCROLLBAR_TRACKE@Base 4.0~bzr753
 _ZN3nux21ConvertPointSizeToDIPEf@Base 4.0~bzr753
 _ZN3nux21DEFAULT_TEXT_X_MARGINE@Base 4.0~bzr753
 _ZN3nux21DEFAULT_TEXT_Y_MARGINE@Base 4.0~bzr753
 _ZN3nux21DEFAULT_WIDGET_HEIGHTE@Base 4.0~bzr753
 _ZN3nux21PropertyChangedSignalISsEC1Ev@Base 4.0~bzr753
 _ZN3nux21PropertyChangedSignalISsEC2Ev@Base 4.0~bzr753
 _ZN3nux21PropertyChangedSignalISsED1Ev@Base 4.0~bzr753
 _ZN3nux21PropertyChangedSignalISsED2Ev@Base 4.0~bzr753
 _ZN3nux21PropertyChangedSignalIfEC1Ev@Base 4.0.0
 _ZN3nux21PropertyChangedSignalIfEC2Ev@Base 4.0.0
 _ZN3nux21PropertyChangedSignalIfED1Ev@Base 4.0~bzr753
 _ZN3nux21PropertyChangedSignalIfED2Ev@Base 4.0~bzr753
 _ZN3nux21TimelineEaseInOutQuad9GetEasingEv@Base 4.0~bzr753
 _ZN3nux21TimelineEaseInOutQuadC1EjPKcS2_i@Base 4.0~bzr753
 _ZN3nux21TimelineEaseInOutQuadC2EjPKcS2_i@Base 4.0~bzr753
 _ZN3nux21TimelineEaseInOutQuadD0Ev@Base 4.0~bzr753
 _ZN3nux21TimelineEaseInOutQuadD1Ev@Base 4.0~bzr753
 _ZN3nux21TimelineEaseInOutQuadD2Ev@Base 4.0~bzr753
 _ZN3nux22COLOR_SCROLLBAR_SLIDERE@Base 4.0~bzr753
 _ZN3nux22COLOR_WIDGET_MOUSEOVERE@Base 4.0~bzr753
 _ZN3nux22PRACTICAL_WIDGET_WIDTHE@Base 4.0~bzr753
 _ZN3nux22TimelineEaseInOutCubic9GetEasingEv@Base 4.0~bzr753
 _ZN3nux22TimelineEaseInOutCubicC1EjPKcS2_i@Base 4.0~bzr753
 _ZN3nux22TimelineEaseInOutCubicC2EjPKcS2_i@Base 4.0~bzr753
 _ZN3nux22TimelineEaseInOutCubicD0Ev@Base 4.0~bzr753
 _ZN3nux22TimelineEaseInOutCubicD1Ev@Base 4.0~bzr753
 _ZN3nux22TimelineEaseInOutCubicD2Ev@Base 4.0~bzr753
 _ZN3nux23COLOR_WIDGET_BACKGROUNDE@Base 4.0~bzr753
 _ZN3nux23COLOR_WINDOW_BACKGROUNDE@Base 4.0~bzr753
 _ZN3nux23CreateFromForeignWindowEmP15__GLXcontextRecPFvPNS_7NThreadEPvES4_@Base 4.0~bzr753
 _ZN3nux23CreateModalWindowThreadENS_11WindowStyleEPKciiPNS_12WindowThreadEPFvPNS_7NThreadEPvES7_@Base 4.0~bzr753
 _ZN3nux23PRACTICAL_WIDGET_HEIGHTE@Base 4.0~bzr753
 _ZN3nux23SliceScaledTextureLayer11RenderlayerERNS_14GraphicsEngineE@Base 4.0~bzr753
 _ZN3nux23SliceScaledTextureLayerC1ENS_15UXStyleImageRefERKNS_5color5ColorEmbRKNS_9ROPConfigE@Base 4.0~bzr753
 _ZN3nux23SliceScaledTextureLayerC2ENS_15UXStyleImageRefERKNS_5color5ColorEmbRKNS_9ROPConfigE@Base 4.0~bzr753
 _ZN3nux23SliceScaledTextureLayerD0Ev@Base 4.0~bzr753
 _ZN3nux23SliceScaledTextureLayerD1Ev@Base 4.0~bzr753
 _ZN3nux23SliceScaledTextureLayerD2Ev@Base 4.0~bzr753
 _ZN3nux24COLOR_BACKGROUND_PRIMARYE@Base 4.0~bzr753
 _ZN3nux24COLOR_FOREGROUND_PRIMARYE@Base 4.0~bzr753
 _ZN3nux24CreateNuxWindowNewThreadEPKciiNS_11WindowStyleEPNS_14AbstractThreadEbPFvPNS_7NThreadEPvES7_@Base 4.0~bzr753
 _ZN3nux25AxisDecelerationAnimation16MINIMUM_VELOCITYE@Base 4.0~bzr753
 _ZN3nux25AxisDecelerationAnimation16SetStartPositionEf@Base 4.0~bzr753
 _ZN3nux25AxisDecelerationAnimation16SetStartVelocityEf@Base 4.0~bzr753
 _ZN3nux25AxisDecelerationAnimation18SetMaximumPositionEf@Base 4.0~bzr753
 _ZN3nux25AxisDecelerationAnimation18SetMinimumPositionEf@Base 4.0~bzr753
 _ZN3nux25AxisDecelerationAnimation22StopIfBeyondBoundariesEv@Base 4.0~bzr753
 _ZN3nux25AxisDecelerationAnimation25SetOvershootBoundsEnabledEb@Base 4.0~bzr753
 _ZN3nux25AxisDecelerationAnimation26PullBackIfBeyondBoundariesEi@Base 4.0~bzr753
 _ZN3nux25AxisDecelerationAnimation5StartEv@Base 4.0~bzr753
 _ZN3nux25AxisDecelerationAnimation6UpdateEi@Base 4.0~bzr753
 _ZN3nux25COLOR_SELECTION_SECONDARYE@Base 4.0~bzr753
 _ZN3nux25COLOR_TEXTEDIT_BACKGROUNGE@Base 4.0~bzr753
 _ZN3nux25FILESELECTOR_BUTTON_COLORE@Base 4.0~bzr753
 _ZN3nux26COLOR_BACKGROUND_SECONDARYE@Base 4.0~bzr753
 _ZN3nux26COLOR_FOREGROUND_SECONDARYE@Base 4.0~bzr753
 _ZN3nux26ComputeGeometryPositioningERKNS_4RectES2_NS_19GeometryPositioningE@Base 4.0~bzr753
 _ZN3nux27COLOR_TEXTSTATIC_BACKGROUNGE@Base 4.0~bzr753
 _ZN3nux29NuxGlobalSingletonInitializer23m_NuxGlobalObjectsReadyE@Base 4.0~bzr753
 _ZN3nux29NuxGlobalSingletonInitializer5ReadyEv@Base 4.0~bzr753
 _ZN3nux29NuxGlobalSingletonInitializerC1Ev@Base 4.0~bzr753
 _ZN3nux29NuxGlobalSingletonInitializerC2Ev@Base 4.0~bzr753
 _ZN3nux29NuxGlobalSingletonInitializerD1Ev@Base 4.0~bzr753
 _ZN3nux29NuxGlobalSingletonInitializerD2Ev@Base 4.0~bzr753
 _ZN3nux35FILESELECTOR_BUTTON_MOUSEOVER_COLORE@Base 4.0~bzr753
 _ZN3nux4Area10SetVisibleEb@Base 4.0~bzr753
 _ZN3nux4Area11GetToplevelEv@Base 4.0~bzr753
 _ZN3nux4Area11Set2DMatrixERKNS_9Matrix4x4IfEE@Base 4.0~bzr753
 _ZN3nux4Area11SetBaseSizeEii@Base 4.0~bzr753
 _ZN3nux4Area11SetGeometryERKNS_4RectE@Base 4.0~bzr753
 _ZN3nux4Area11SetGeometryEiiii@Base 4.0~bzr753
 _ZN3nux4Area12CheckMaxSizeEv@Base 4.0~bzr753
 _ZN3nux4Area12CheckMinSizeEv@Base 4.0~bzr753
 _ZN3nux4Area12IsLayoutDoneEv@Base 4.0~bzr753
 _ZN3nux4Area12SetBaseWidthEi@Base 4.0~bzr753
 _ZN3nux4Area12SetSensitiveEb@Base 4.0~bzr753
 _ZN3nux4Area13ApplyMaxWidthEv@Base 4.0~bzr753
 _ZN3nux4Area13ApplyMinWidthEv@Base 4.0~bzr753
 _ZN3nux4Area13GetPercentageEv@Base 4.0~bzr753
 _ZN3nux4Area13GetRootParentEv@Base 4.0~bzr753
 _ZN3nux4Area13QueueRelayoutEv@Base 4.0~bzr753
 _ZN3nux4Area13SetBaseHeightEi@Base 4.0~bzr753
 _ZN3nux4Area13SetBaseStringERKSs@Base 4.0~bzr753
 _ZN3nux4Area13SetLayoutDoneEb@Base 4.0~bzr753
 _ZN3nux4Area13SetMinMaxSizeEii@Base 4.0~bzr753
 _ZN3nux4Area13SetPercentageEf@Base 4.0~bzr753
 _ZN3nux4Area14ApplyMaxHeightEv@Base 4.0~bzr753
 _ZN3nux4Area14ApplyMinHeightEv@Base 4.0~bzr753
 _ZN3nux4Area14GetPositioningEv@Base 4.0~bzr753
 _ZN3nux4Area14GetScaleFactorEv@Base 4.0~bzr753
 _ZN3nux4Area14SetMaximumSizeEii@Base 4.0~bzr753
 _ZN3nux4Area14SetMinimumSizeEii@Base 4.0~bzr753
 _ZN3nux4Area14SetPositioningENS_22MinorDimensionPositionE@Base 4.0~bzr753
 _ZN3nux4Area14SetScaleFactorEj@Base 4.0~bzr753
 _ZN3nux4Area14UnParentObjectEv@Base 4.0~bzr753
 _ZN3nux4Area15GeometryChangedEbb@Base 4.0~bzr753
 _ZN3nux4Area15InspectKeyEventEjjPKc@Base 4.0~bzr753
 _ZN3nux4Area15KeyNavIterationENS_15KeyNavDirectionE@Base 4.0~bzr753
 _ZN3nux4Area15SetMaximumWidthEi@Base 4.0~bzr753
 _ZN3nux4Area15SetMinimumWidthEi@Base 4.0~bzr753
 _ZN3nux4Area15SetParentObjectEPS0_@Base 4.0~bzr753
 _ZN3nux4Area16FindKeyFocusAreaEjmm@Base 4.0~bzr753
 _ZN3nux4Area16Set2DTranslationEfff@Base 4.0~bzr753
 _ZN3nux4Area16SetMaximumHeightEi@Base 4.0~bzr753
 _ZN3nux4Area16SetMinimumHeightEi@Base 4.0~bzr753
 _ZN3nux4Area16StaticObjectTypeE@Base 4.0~bzr753
 _ZN3nux4Area17HasTopLevelParentEv@Base 4.0~bzr753
 _ZN3nux4Area18ComputeContentSizeEv@Base 4.0~bzr753
 _ZN3nux4Area18FindAreaUnderMouseERKNS_7Point2DIiEENS_9EventTypeE@Base 4.0~bzr753
 _ZN3nux4Area18RedirectedAncestorEv@Base 4.0~bzr753
 _ZN3nux4Area20InnerGetRootGeometryERNS_4RectE@Base 4.0~bzr753
 _ZN3nux4Area21GeometryChangePendingEbb@Base 4.0~bzr753
 _ZN3nux4Area21GetTopLevelViewWindowEv@Base 4.0~bzr753
 _ZN3nux4Area21SetPathToKeyFocusAreaEv@Base 4.0~bzr753
 _ZN3nux4Area22ComputeContentPositionEff@Base 4.0~bzr753
 _ZN3nux4Area22SetAcceptKeyboardEventEb@Base 4.0~bzr753
 _ZN3nux4Area23HasParentRedirectedViewEv@Base 4.0~bzr753
 _ZN3nux4Area23ReconfigureParentLayoutEPS0_@Base 4.0~bzr753
 _ZN3nux4Area24GetInputAreaHitByGestureERKNS_12GestureEventE@Base 4.0~bzr753
 _ZN3nux4Area24InnerGetAbsoluteGeometryERNS_4RectE@Base 4.0~bzr753
 _ZN3nux4Area24SetAcceptMouseWheelEventEb@Base 4.0~bzr753
 _ZN3nux4Area24SetInputEventSensitivityEb@Base 4.0~bzr753
 _ZN3nux4Area24SetPresentRedirectedViewEb@Base 4.0~bzr753
 _ZN3nux4Area25SetCopyPreviousFboTextureEb@Base 4.0~bzr753
 _ZN3nux4Area25TestMousePointerInclusionERKNS_7Point2DIiEENS_9EventTypeE@Base 4.0~bzr753
 _ZN3nux4Area27GetNextObjectToKeyFocusAreaEv@Base 4.0~bzr753
 _ZN3nux4Area27PrepareParentRedirectedViewEv@Base 4.0~bzr753
 _ZN3nux4Area27SetNextObjectToKeyFocusAreaEPS0_@Base 4.0~bzr753
 _ZN3nux4Area29ResetUpwardPathToKeyFocusAreaEv@Base 4.0~bzr753
 _ZN3nux4Area29SetRedirectRenderingToTextureEb@Base 4.0~bzr753
 _ZN3nux4Area31ResetDownwardPathToKeyFocusAreaEv@Base 4.0~bzr753
 _ZN3nux4Area32RequestBottomUpLayoutComputationEPS0_@Base 4.0~bzr753
 _ZN3nux4Area39ReconfigureParentLayoutOnGeometryChangeEv@Base 4.0~bzr753
 _ZN3nux4Area39SetUpdateBackupTextureForChildRenderingEb@Base 4.0~bzr753
 _ZN3nux4Area41TestMousePointerInclusionFilterMouseWheelERKNS_7Point2DIiEENS_9EventTypeE@Base 4.0~bzr753
 _ZN3nux4Area42SetReconfigureParentLayoutOnGeometryChangeEb@Base 4.0~bzr753
 _ZN3nux4Area4SetXEi@Base 4.0~bzr753
 _ZN3nux4Area4SetYEi@Base 4.0~bzr753
 _ZN3nux4Area5SetXYEii@Base 4.0~bzr753
 _ZN3nux4Area7SetSizeEii@Base 4.0~bzr753
 _ZN3nux4Area8SetBaseXEi@Base 4.0~bzr753
 _ZN3nux4Area8SetBaseYEi@Base 4.0~bzr753
 _ZN3nux4Area8SetWidthEi@Base 4.0~bzr753
 _ZN3nux4Area9GetExtendEv@Base 4.0~bzr753
 _ZN3nux4Area9IsChildOfEPS0_@Base 4.0~bzr753
 _ZN3nux4Area9IsVisibleEv@Base 4.0~bzr753
 _ZN3nux4Area9SetBaseXYEii@Base 4.0~bzr753
 _ZN3nux4Area9SetExtendENS_18MinorDimensionSizeE@Base 4.0~bzr753
 _ZN3nux4Area9SetHeightEi@Base 4.0~bzr753
 _ZN3nux4AreaC1EPKci@Base 4.0~bzr753
 _ZN3nux4AreaC2EPKci@Base 4.0~bzr753
 _ZN3nux4AreaD0Ev@Base 4.0~bzr753
 _ZN3nux4AreaD1Ev@Base 4.0~bzr753
 _ZN3nux4AreaD2Ev@Base 4.0~bzr753
 _ZN3nux4View10DoneRedrawEv@Base 4.0~bzr753
 _ZN3nux4View10EnableViewEv@Base 4.0~bzr753
 _ZN3nux4View11DisableViewEv@Base 4.0~bzr753
 _ZN3nux4View11DrawContentERNS_14GraphicsEngineEb@Base 4.0~bzr753
 _ZN3nux4View11ProcessDrawERNS_14GraphicsEngineEb@Base 4.0~bzr753
 _ZN3nux4View11SetGeometryERKNS_4RectE@Base 4.0~bzr753
 _ZN3nux4View12GetTextColorEv@Base 4.0~bzr753
 _ZN3nux4View12RemoveLayoutEv@Base 4.0~bzr753
 _ZN3nux4View12SetTextColorERKNS_5color5ColorE@Base 4.0~bzr753
 _ZN3nux4View13SetEnableViewEb@Base 4.0~bzr753
 _ZN3nux4View14CanBreakLayoutEv@Base 4.0~bzr753
 _ZN3nux4View14IsRedrawNeededEv@Base 4.0~bzr753
 _ZN3nux4View14NeedSoftRedrawEv@Base 4.0~bzr753
 _ZN3nux4View14OverlayDrawingERNS_14GraphicsEngineE@Base 4.0~bzr753
 _ZN3nux4View15GeometryChangedEbb@Base 4.0~bzr753
 _ZN3nux4View15KeyNavIterationENS_15KeyNavDirectionE@Base 4.0~bzr753
 _ZN3nux4View16FindKeyFocusAreaEjmm@Base 4.0~bzr753
 _ZN3nux4View16StaticObjectTypeE@Base 4.0~bzr753
 _ZN3nux4View17AcceptKeyNavFocusEv@Base 4.0~bzr753
 _ZN3nux4View17PreResizeGeometryEv@Base 4.0~bzr753
 _ZN3nux4View18ComputeContentSizeEv@Base 4.0~bzr753
 _ZN3nux4View18FindAreaUnderMouseERKNS_7Point2DIiEENS_9EventTypeE@Base 4.0~bzr753
 _ZN3nux4View18PostResizeGeometryEv@Base 4.0~bzr753
 _ZN3nux4View19ChildViewQueuedDrawEPNS_4AreaE@Base 4.0~bzr753
 _ZN3nux4View19OnChildFocusChangedEPNS_4AreaE@Base 4.0~bzr753
 _ZN3nux4View19PreLayoutManagementEv@Base 4.0~bzr753
 _ZN3nux4View19SearchInAllSubNodesEPNS_4AreaE@Base 4.0~bzr753
 _ZN3nux4View20GetCompositionLayoutEv@Base 4.0~bzr753
 _ZN3nux4View20PostLayoutManagementEl@Base 4.0~bzr753
 _ZN3nux4View20SetCompositionLayoutEPNS_6LayoutE@Base 4.0~bzr753
 _ZN3nux4View21GeometryChangePendingEbb@Base 4.0~bzr753
 _ZN3nux4View21SearchInFirstSubNodesEPNS_4AreaE@Base 4.0~bzr753
 _ZN3nux4View22ComputeContentPositionEff@Base 4.0~bzr753
 _ZN3nux4View23RemoveCompositionLayoutEv@Base 4.0~bzr753
 _ZN3nux4View24GetInputAreaHitByGestureERKNS_12GestureEventE@Base 4.0~bzr753
 _ZN3nux4View25EndBackupTextureRenderingERNS_14GraphicsEngineEb@Base 4.0~bzr753
 _ZN3nux4View27BeginBackupTextureRenderingERNS_14GraphicsEngineEb@Base 4.0~bzr753
 _ZN3nux4View4DrawERNS_14GraphicsEngineEb@Base 4.0~bzr753
 _ZN3nux4View7GetFontEv@Base 4.0~bzr753
 _ZN3nux4View7SetFontENS_9ObjectPtrINS_11FontTextureEEE@Base 4.0~bzr753
 _ZN3nux4View9GetLayoutEv@Base 4.0~bzr753
 _ZN3nux4View9QueueDrawEv@Base 4.0~bzr753
 _ZN3nux4View9SetLayoutEPNS_6LayoutE@Base 4.0~bzr753
 _ZN3nux4ViewC1EPKci@Base 4.0~bzr753
 _ZN3nux4ViewC2EPKci@Base 4.0~bzr753
 _ZN3nux4ViewD0Ev@Base 4.0~bzr753
 _ZN3nux4ViewD1Ev@Base 4.0~bzr753
 _ZN3nux4ViewD2Ev@Base 4.0~bzr753
 _ZN3nux5Panel10ScrollDownEfi@Base 4.0~bzr753
 _ZN3nux5Panel10ScrollLeftEfi@Base 4.0~bzr753
 _ZN3nux5Panel11DrawContentERNS_14GraphicsEngineEb@Base 4.0~bzr753
 _ZN3nux5Panel11ScrollRightEfi@Base 4.0~bzr753
 _ZN3nux5Panel12clearContentEv@Base 4.0~bzr753
 _ZN3nux5Panel17AcceptKeyNavFocusEv@Base 4.0~bzr753
 _ZN3nux5Panel19PreLayoutManagementEv@Base 4.0~bzr753
 _ZN3nux5Panel20PostLayoutManagementEl@Base 4.0~bzr753
 _ZN3nux5Panel22ComputeContentPositionEff@Base 4.0~bzr753
 _ZN3nux5Panel4DrawERNS_14GraphicsEngineEb@Base 4.0~bzr753
 _ZN3nux5Panel8ScrollUpEfi@Base 4.0~bzr753
 _ZN3nux5Panel9AddWidgetEPNS_4ViewEi@Base 4.0~bzr753
 _ZN3nux5Panel9AddWidgetEPSt4listIPNS_4ViewESaIS3_EE@Base 4.0~bzr753
 _ZN3nux5Panel9SetLayoutEPNS_6LayoutE@Base 4.0~bzr753
 _ZN3nux5PanelC1EPKci@Base 4.0~bzr753
 _ZN3nux5PanelC2EPKci@Base 4.0~bzr753
 _ZN3nux5PanelD0Ev@Base 4.0~bzr753
 _ZN3nux5PanelD1Ev@Base 4.0~bzr753
 _ZN3nux5PanelD2Ev@Base 4.0~bzr753
 _ZN3nux6Button10DeactivateEv@Base 4.0~bzr753
 _ZN3nux6Button10InitializeERKSsPNS_11TextureAreaE@Base 4.0~bzr753
 _ZN3nux6Button11BuildLayoutERKSsPNS_11TextureAreaE@Base 4.0~bzr753
 _ZN3nux6Button12SetItemOrderENS0_9ItemOrderE@Base 4.0~bzr753
 _ZN3nux6Button13SetLayoutTypeENS0_10LayoutTypeE@Base 4.0~bzr753
 _ZN3nux6Button15SetDistributionENS0_12DistributionE@Base 4.0~bzr753
 _ZN3nux6Button16SetLabelFontSizeEi@Base 4.0~bzr753
 _ZN3nux6Button16SetLayoutPaddingEiiii@Base 4.0~bzr753
 _ZN3nux6Button16StaticObjectTypeE@Base 4.0~bzr753
 _ZN3nux6Button18ComputeContentSizeEv@Base 4.0~bzr753
 _ZN3nux6Button19SetButtonClipRegionEiiii@Base 4.0~bzr753
 _ZN3nux6Button19SetImageMaximumSizeEii@Base 4.0~bzr753
 _ZN3nux6Button19SetImageMinimumSizeEii@Base 4.0~bzr753
 _ZN3nux6Button20SetSpaceBetweenItemsEi@Base 4.0~bzr753
 _ZN3nux6Button4DrawERNS_14GraphicsEngineEb@Base 4.0~bzr753
 _ZN3nux6Button8ActivateEv@Base 4.0~bzr753
 _ZN3nux6Button8GetImageEv@Base 4.0~bzr753
 _ZN3nux6Button8SetImageEPNS_11TextureAreaE@Base 4.0~bzr753
 _ZN3nux6Button8SetLabelERKSs@Base 4.0~bzr753
 _ZN3nux6Button9RecvClickEiimm@Base 4.0~bzr753
 _ZN3nux6ButtonC1EPKci@Base 4.0~bzr753
 _ZN3nux6ButtonC1EPNS_11TextureAreaEPKci@Base 4.0~bzr753
 _ZN3nux6ButtonC1ERKSsPKci@Base 4.0~bzr753
 _ZN3nux6ButtonC1ERKSsPNS_11TextureAreaEPKci@Base 4.0~bzr753
 _ZN3nux6ButtonC2EPKci@Base 4.0~bzr753
 _ZN3nux6ButtonC2EPNS_11TextureAreaEPKci@Base 4.0~bzr753
 _ZN3nux6ButtonC2ERKSsPKci@Base 4.0~bzr753
 _ZN3nux6ButtonC2ERKSsPNS_11TextureAreaEPKci@Base 4.0~bzr753
 _ZN3nux6ButtonD0Ev@Base 4.0~bzr753
 _ZN3nux6ButtonD1Ev@Base 4.0~bzr753
 _ZN3nux6ButtonD2Ev@Base 4.0~bzr753
 _ZN3nux6Canvas10InvalidateEv@Base 4.0~bzr753
 _ZN3nux6Canvas11DrawContentERNS_14GraphicsEngineEb@Base 4.0~bzr753
 _ZN3nux6Canvas12GetLastWidthEv@Base 4.0~bzr753
 _ZN3nux6Canvas13GetLastHeightEv@Base 4.0~bzr753
 _ZN3nux6Canvas15GetCairoContextEv@Base 4.0~bzr753
 _ZN3nux6Canvas15GetCairoSurfaceEv@Base 4.0~bzr753
 _ZN3nux6Canvas19PreLayoutManagementEv@Base 4.0~bzr753
 _ZN3nux6Canvas20PostLayoutManagementEl@Base 4.0~bzr753
 _ZN3nux6Canvas4DrawERNS_14GraphicsEngineEb@Base 4.0~bzr753
 _ZN3nux6Canvas5PaintEv@Base 4.0~bzr753
 _ZN3nux6Canvas8RecreateEv@Base 4.0~bzr753
 _ZN3nux6Canvas9GetBitmapEv@Base 4.0~bzr753
 _ZN3nux6CanvasC1EPKci@Base 4.0~bzr753
 _ZN3nux6CanvasC2EPKci@Base 4.0~bzr753
 _ZN3nux6CanvasD0Ev@Base 4.0~bzr753
 _ZN3nux6CanvasD1Ev@Base 4.0~bzr753
 _ZN3nux6CanvasD2Ev@Base 4.0~bzr753
 _ZN3nux6Dialog5StartEb@Base 4.0~bzr753
 _ZN3nux6DialogC1EPKc@Base 4.0~bzr753
 _ZN3nux6DialogC2EPKc@Base 4.0~bzr753
 _ZN3nux6DialogD0Ev@Base 4.0~bzr753
 _ZN3nux6DialogD1Ev@Base 4.0~bzr753
 _ZN3nux6DialogD2Ev@Base 4.0~bzr753
 _ZN3nux6Layout10DoneRedrawEv@Base 4.0~bzr753
 _ZN3nux6Layout10SetPaddingEi@Base 4.0~bzr753
 _ZN3nux6Layout10SetPaddingEii@Base 4.0~bzr753
 _ZN3nux6Layout10SetPaddingEiiii@Base 4.0~bzr753
 _ZN3nux6Layout11ProcessDrawERNS_14GraphicsEngineEb@Base 4.0~bzr753
 _ZN3nux6Layout14ChildQueueDrawEPNS_4AreaE@Base 4.0~bzr753
 _ZN3nux6Layout14ResetQueueDrawEv@Base 4.0~bzr753
 _ZN3nux6Layout15GeometryChangedEbb@Base 4.0~bzr753
 _ZN3nux6Layout15IsQueuedForDrawEv@Base 4.0~bzr753
 _ZN3nux6Layout16GetCompositeListEPSt4listIPNS_4AreaESaIS3_EE@Base 4.0~bzr753
 _ZN3nux6Layout16StaticObjectTypeE@Base 4.0~bzr753
 _ZN3nux6Layout17AcceptKeyNavFocusEv@Base 4.0~bzr753
 _ZN3nux6Layout17RemoveChildObjectEPNS_4AreaE@Base 4.0~bzr753
 _ZN3nux6Layout18ChildQueuedForDrawEv@Base 4.0~bzr753
 _ZN3nux6Layout18FindAreaUnderMouseERKNS_7Point2DIiEENS_9EventTypeE@Base 4.0~bzr753
 _ZN3nux6Layout19GetMaxStretchFactorEv@Base 4.0~bzr753
 _ZN3nux6Layout19GetMinStretchFactorEv@Base 4.0~bzr753
 _ZN3nux6Layout19GetNumStretchFactorEj@Base 4.0~bzr753
 _ZN3nux6Layout19SearchInAllSubNodesEPNS_4AreaE@Base 4.0~bzr753
 _ZN3nux6Layout21GeometryChangePendingEbb@Base 4.0~bzr753
 _ZN3nux6Layout21SearchInFirstSubNodesEPNS_4AreaE@Base 4.0~bzr753
 _ZN3nux6Layout22GetContentDistributionEv@Base 4.0~bzr753
 _ZN3nux6Layout22SetContentDistributionENS_25LayoutContentDistributionE@Base 4.0~bzr753
 _ZN3nux6Layout22SetLeftAndRightPaddingEi@Base 4.0~bzr753
 _ZN3nux6Layout22SetLeftAndRightPaddingEii@Base 4.0~bzr753
 _ZN3nux6Layout22SetTopAndBottomPaddingEi@Base 4.0~bzr753
 _ZN3nux6Layout22SetTopAndBottomPaddingEii@Base 4.0~bzr753
 _ZN3nux6Layout24GetInputAreaHitByGestureERKNS_12GestureEventE@Base 4.0~bzr753
 _ZN3nux6Layout25EndBackupTextureRenderingERNS_14GraphicsEngineEb@Base 4.0~bzr753
 _ZN3nux6Layout25SetVerticalExternalMarginEi@Base 4.0~bzr753
 _ZN3nux6Layout27BeginBackupTextureRenderingERNS_14GraphicsEngineEb@Base 4.0~bzr753
 _ZN3nux6Layout27SetHorizontalExternalMarginEi@Base 4.0~bzr753
 _ZN3nux6Layout32RequestBottomUpLayoutComputationEPNS_4AreaE@Base 4.0~bzr753
 _ZN3nux6Layout4DrawEv@Base 4.0~bzr753
 _ZN3nux6Layout5ClearEv@Base 4.0~bzr753
 _ZN3nux6Layout7AddViewEPNS_4AreaEjNS_22MinorDimensionPositionENS_18MinorDimensionSizeEfNS_14LayoutPositionE@Base 4.0~bzr753
 _ZN3nux6Layout8AddSpaceEjjNS_14LayoutPositionE@Base 4.0~bzr753
 _ZN3nux6Layout9AddLayoutEPS0_jNS_22MinorDimensionPositionENS_18MinorDimensionSizeEfNS_14LayoutPositionE@Base 4.0~bzr753
 _ZN3nux6Layout9QueueDrawEv@Base 4.0~bzr753
 _ZN3nux6LayoutC1EPKci@Base 4.0~bzr753
 _ZN3nux6LayoutC2EPKci@Base 4.0~bzr753
 _ZN3nux6LayoutD0Ev@Base 4.0~bzr753
 _ZN3nux6LayoutD1Ev@Base 4.0~bzr753
 _ZN3nux6LayoutD2Ev@Base 4.0~bzr753
 _ZN3nux6as_decEf@Base 4.0~bzr753
 _ZN3nux6as_hexEf@Base 4.0~bzr753
 _ZN3nux7Gesture12DeliverEventERKNS_12GestureEventE@Base 4.0~bzr753
 _ZN3nux7Gesture12RemoveTargetERKNS_13GestureTargetE@Base 4.0~bzr753
 _ZN3nux7Gesture14GetLatestEventEv@Base 4.0~bzr753
 _ZN3nux7Gesture19EnableEventDeliveryEv@Base 4.0~bzr753
 _ZN3nux7Gesture31ExecuteTargetExclusivityRequestERKNS_12GestureEventERSt14_List_iteratorISt10shared_ptrINS_13GestureTargetEEE@Base 4.0~bzr753
 _ZN3nux7Gesture6AcceptEv@Base 4.0~bzr753
 _ZN3nux7Gesture6RejectEv@Base 4.0~bzr753
 _ZN3nux7Gesture6UpdateERKNS_12GestureEventE@Base 4.0~bzr753
 _ZN3nux7Gesture9AddTargetESt10shared_ptrINS_13GestureTargetEE@Base 4.0~bzr753
 _ZN3nux7GestureC1ERKNS_12GestureEventE@Base 4.0~bzr753
 _ZN3nux7GestureC2ERKNS_12GestureEventE@Base 4.0~bzr753
 _ZN3nux7GestureD1Ev@Base 4.0~bzr753
 _ZN3nux7GestureD2Ev@Base 4.0~bzr753
 _ZN3nux7HLayout15ComputeStackingEiRiS1_@Base 4.0~bzr753
 _ZN3nux7HLayout15KeyNavIterationENS_15KeyNavDirectionE@Base 4.0~bzr753
 _ZN3nux7HLayout16GetCompositeListEPSt4listIPNS_4AreaESaIS3_EE@Base 4.0~bzr753
 _ZN3nux7HLayout16StaticObjectTypeE@Base 4.0~bzr753
 _ZN3nux7HLayout17HLayoutManagementEii@Base 4.0~bzr753
 _ZN3nux7HLayout18ComputeContentSizeEv@Base 4.0~bzr753
 _ZN3nux7HLayout19GetMaxStretchFactorEv@Base 4.0~bzr753
 _ZN3nux7HLayout22ComputeContentPositionEff@Base 4.0~bzr753
 _ZN3nux7HLayoutC1EPKci@Base 4.0~bzr753
 _ZN3nux7HLayoutC1ESsPKci@Base 4.0~bzr753
 _ZN3nux7HLayoutC2EPKci@Base 4.0~bzr753
 _ZN3nux7HLayoutC2ESsPKci@Base 4.0~bzr753
 _ZN3nux7HLayoutD0Ev@Base 4.0~bzr753
 _ZN3nux7HLayoutD1Ev@Base 4.0~bzr753
 _ZN3nux7HLayoutD2Ev@Base 4.0~bzr753
 _ZN3nux7MenuBar11DrawContentERNS_14GraphicsEngineEb@Base 4.0~bzr753
 _ZN3nux7MenuBar15EmitItemMouseUpEiimmPNS_11MenuBarItemE@Base 4.0~bzr753
 _ZN3nux7MenuBar16StaticObjectTypeE@Base 4.0~bzr753
 _ZN3nux7MenuBar17EmitItemMouseDownEiimmPNS_11MenuBarItemE@Base 4.0~bzr753
 _ZN3nux7MenuBar17RecvItemMouseDragEiiiimmPNS_11MenuBarItemE@Base 4.0~bzr753
 _ZN3nux7MenuBar18EmitItemMouseEnterEiimmPNS_11MenuBarItemE@Base 4.0~bzr753
 _ZN3nux7MenuBar18EmitItemMouseLeaveEiimmPNS_11MenuBarItemE@Base 4.0~bzr753
 _ZN3nux7MenuBar22RecvSigActionTriggeredEPNS_8MenuPageEPNS_10ActionItemE@Base 4.0~bzr753
 _ZN3nux7MenuBar27RecvSigTerminateMenuCascadeEv@Base 4.0~bzr753
 _ZN3nux7MenuBar34RecvSigMouseDownOutsideMenuCascadeEPNS_8MenuPageEii@Base 4.0~bzr753
 _ZN3nux7MenuBar4DrawERNS_14GraphicsEngineEb@Base 4.0~bzr753
 _ZN3nux7MenuBar7AddMenuEPKcPNS_8MenuPageE@Base 4.0~bzr753
 _ZN3nux7MenuBar7AddMenuEPKcPNS_8MenuPageEPNS_11BaseTextureE@Base 4.0~bzr753
 _ZN3nux7MenuBarC1EPKci@Base 4.0~bzr753
 _ZN3nux7MenuBarC2EPKci@Base 4.0~bzr753
 _ZN3nux7MenuBarD0Ev@Base 4.0~bzr753
 _ZN3nux7MenuBarD1Ev@Base 4.0~bzr753
 _ZN3nux7MenuBarD2Ev@Base 4.0~bzr753
 _ZN3nux7NThread10ThreadCtorEv@Base 4.0~bzr753
 _ZN3nux7NThread10ThreadDtorEv@Base 4.0~bzr753
 _ZN3nux7SpinBox11DrawContentERNS_14GraphicsEngineEb@Base 4.0~bzr753
 _ZN3nux7SpinBox16InitializeLayoutEv@Base 4.0~bzr753
 _ZN3nux7SpinBox17InitializeWidgetsEv@Base 4.0~bzr753
 _ZN3nux7SpinBox21ImplementDecrementBtnEv@Base 4.0~bzr753
 _ZN3nux7SpinBox21ImplementIncrementBtnEv@Base 4.0~bzr753
 _ZN3nux7SpinBox22ImplementValidateEntryEv@Base 4.0~bzr753
 _ZN3nux7SpinBox4DrawERNS_14GraphicsEngineEb@Base 4.0~bzr753
 _ZN3nux7SpinBox7SetStepEi@Base 4.0~bzr753
 _ZN3nux7SpinBox8SetRangeEii@Base 4.0~bzr753
 _ZN3nux7SpinBox8SetValueEi@Base 4.0~bzr753
 _ZN3nux7SpinBoxC1EiiiiPKci@Base 4.0~bzr753
 _ZN3nux7SpinBoxC2EiiiiPKci@Base 4.0~bzr753
 _ZN3nux7SpinBoxD0Ev@Base 4.0~bzr753
 _ZN3nux7SpinBoxD1Ev@Base 4.0~bzr753
 _ZN3nux7SpinBoxD2Ev@Base 4.0~bzr753
 _ZN3nux7TabView10TAB_HEIGHTE@Base 4.0~bzr753
 _ZN3nux7TabView10TabElement11SetGeometryERKNS_4RectE@Base 4.0~bzr753
 _ZN3nux7TabView10TabElement8SetIndexEi@Base 4.0~bzr753
 _ZN3nux7TabView10TabElementC1ESsPNS_6LayoutE@Base 4.0~bzr753
 _ZN3nux7TabView10TabElementC2ESsPNS_6LayoutE@Base 4.0~bzr753
 _ZN3nux7TabView10TabElementD1Ev@Base 4.0~bzr753
 _ZN3nux7TabView10TabElementD2Ev@Base 4.0~bzr753
 _ZN3nux7TabView11DrawContentERNS_14GraphicsEngineEb@Base 4.0~bzr753
 _ZN3nux7TabView12SetActiveTadEi@Base 4.0~bzr753
 _ZN3nux7TabView12TAB_X_BORDERE@Base 4.0~bzr753
 _ZN3nux7TabView12TAB_Y_BORDERE@Base 4.0~bzr753
 _ZN3nux7TabView13TranslateLeftEiimm@Base 4.0~bzr753
 _ZN3nux7TabView14CanBreakLayoutEv@Base 4.0~bzr753
 _ZN3nux7TabView14RecvMouseEnterEiimm@Base 4.0~bzr753
 _ZN3nux7TabView14RecvMouseLeaveEiimm@Base 4.0~bzr753
 _ZN3nux7TabView14RecvTabMouseUpEiimmPNS0_10TabElementE@Base 4.0~bzr753
 _ZN3nux7TabView14TranslateRightEiimm@Base 4.0~bzr753
 _ZN3nux7TabView16RecvTabMouseDownEiimmPNS0_10TabElementE@Base 4.0~bzr753
 _ZN3nux7TabView16TAB_BUTTON_WIDTHE@Base 4.0~bzr753
 _ZN3nux7TabView16TAB_HEADER_COLORE@Base 4.0~bzr753
 _ZN3nux7TabView17AcceptKeyNavFocusEv@Base 4.0~bzr753
 _ZN3nux7TabView17TAB_BUTTON_HEIGHTE@Base 4.0~bzr753
 _ZN3nux7TabView18FindAreaUnderMouseERKNS_7Point2DIiEENS_9EventTypeE@Base 4.0~bzr753
 _ZN3nux7TabView18TranslateTabLayoutEi@Base 4.0~bzr753
 _ZN3nux7TabView19PreLayoutManagementEv@Base 4.0~bzr753
 _ZN3nux7TabView20PostLayoutManagementEl@Base 4.0~bzr753
 _ZN3nux7TabView20RecvTabButtonMouseUpEiimm@Base 4.0~bzr753
 _ZN3nux7TabView20RecvTabLeftMouseDownEiimm@Base 4.0~bzr753
 _ZN3nux7TabView20TAB_BACKGROUND_COLORE@Base 4.0~bzr753
 _ZN3nux7TabView21RecvTabRightMouseDownEiimm@Base 4.0~bzr753
 _ZN3nux7TabView22ComputeContentPositionEff@Base 4.0~bzr753
 _ZN3nux7TabView22TAB_HEADER_FOCUS_COLORE@Base 4.0~bzr753
 _ZN3nux7TabView23RecvTabLeftTimerExpiredEPv@Base 4.0~bzr753
 _ZN3nux7TabView24RecvTabRightTimerExpiredEPv@Base 4.0~bzr753
 _ZN3nux7TabView27TAB_HEADER_BACKGROUND_COLORE@Base 4.0~bzr753
 _ZN3nux7TabView4DrawERNS_14GraphicsEngineEb@Base 4.0~bzr753
 _ZN3nux7TabView6AddTabEPKcPNS_6LayoutE@Base 4.0~bzr753
 _ZN3nux7TabViewC1EPKci@Base 4.0~bzr753
 _ZN3nux7TabViewC2EPKci@Base 4.0~bzr753
 _ZN3nux7TabViewD0Ev@Base 4.0~bzr753
 _ZN3nux7TabViewD1Ev@Base 4.0~bzr753
 _ZN3nux7TabViewD2Ev@Base 4.0~bzr753
 _ZN3nux7UXTheme13ParseEndImageEP20_GMarkupParseContextPKcPvPP7_GError@Base 4.0~bzr753
 _ZN3nux7UXTheme15ParseStartImageEP20_GMarkupParseContextPKcPS4_S5_PvPP7_GError@Base 4.0~bzr753
 _ZN3nux7UXTheme16GetImageGeometryENS_15UXStyleImageRefE@Base 4.0~bzr753
 _ZN3nux7UXTheme17Load2DTextureFileEPKc@Base 4.0~bzr753
 _ZN3nux7UXTheme17LoadPainterImagesEv@Base 4.0~bzr753
 _ZN3nux7UXTheme30Load2DTextureFileGenerateAlphaEPKciii@Base 4.0~bzr753
 _ZN3nux7UXTheme8GetImageENS_15UXStyleImageRefE@Base 4.0~bzr753
 _ZN3nux7UXThemeC1Ev@Base 4.0~bzr753
 _ZN3nux7UXThemeC2Ev@Base 4.0~bzr753
 _ZN3nux7UXThemeD1Ev@Base 4.0~bzr753
 _ZN3nux7UXThemeD2Ev@Base 4.0~bzr753
 _ZN3nux7VLayout15ComputeStackingEiRiS1_@Base 4.0~bzr753
 _ZN3nux7VLayout15KeyNavIterationENS_15KeyNavDirectionE@Base 4.0~bzr753
 _ZN3nux7VLayout16GetCompositeListEPSt4listIPNS_4AreaESaIS3_EE@Base 4.0~bzr753
 _ZN3nux7VLayout16StaticObjectTypeE@Base 4.0~bzr753
 _ZN3nux7VLayout17VLayoutManagementEii@Base 4.0~bzr753
 _ZN3nux7VLayout18ComputeContentSizeEv@Base 4.0~bzr753
 _ZN3nux7VLayout19GetMaxStretchFactorEv@Base 4.0~bzr753
 _ZN3nux7VLayout22ComputeContentPositionEff@Base 4.0~bzr753
 _ZN3nux7VLayoutC1EPKci@Base 4.0~bzr753
 _ZN3nux7VLayoutC1ESsPKci@Base 4.0~bzr753
 _ZN3nux7VLayoutC2EPKci@Base 4.0~bzr753
 _ZN3nux7VLayoutC2ESsPKci@Base 4.0~bzr753
 _ZN3nux7VLayoutD0Ev@Base 4.0~bzr753
 _ZN3nux7VLayoutD1Ev@Base 4.0~bzr753
 _ZN3nux7VLayoutD2Ev@Base 4.0~bzr753
 _ZN3nux7logging6LoggerD1Ev@Base 4.0~bzr753
 _ZN3nux7logging6LoggerD2Ev@Base 4.0~bzr753
 _ZN3nux8CheckBox10DeactivateEv@Base 4.0~bzr753
 _ZN3nux8CheckBox16SetMaximumHeightEv@Base 4.0~bzr753
 _ZN3nux8CheckBox16SetMinimumHeightEv@Base 4.0~bzr753
 _ZN3nux8CheckBox16StaticObjectTypeE@Base 4.0~bzr753
 _ZN3nux8CheckBox4DrawERNS_14GraphicsEngineEb@Base 4.0~bzr753
 _ZN3nux8CheckBox8ActivateEv@Base 4.0~bzr753
 _ZN3nux8CheckBox9RecvClickEiimm@Base 4.0~bzr753
 _ZN3nux8CheckBoxC1ERKSsbPKci@Base 4.0~bzr753
 _ZN3nux8CheckBoxC2ERKSsbPKci@Base 4.0~bzr753
 _ZN3nux8CheckBoxD0Ev@Base 4.0~bzr753
 _ZN3nux8CheckBoxD1Ev@Base 4.0~bzr753
 _ZN3nux8CheckBoxD2Ev@Base 4.0~bzr753
 _ZN3nux8GetThemeEv@Base 4.0~bzr753
 _ZN3nux8GetTimerEv@Base 4.0~bzr753
 _ZN3nux8GroupBox10SetCaptionEPKc@Base 4.0~bzr753
 _ZN3nux8GroupBox11DrawContentERNS_14GraphicsEngineEb@Base 4.0~bzr753
 _ZN3nux8GroupBox17AcceptKeyNavFocusEv@Base 4.0~bzr753
 _ZN3nux8GroupBox19PreLayoutManagementEv@Base 4.0~bzr753
 _ZN3nux8GroupBox20PostLayoutManagementEl@Base 4.0~bzr753
 _ZN3nux8GroupBox22ComputeContentPositionEff@Base 4.0~bzr753
 _ZN3nux8GroupBox4DrawERNS_14GraphicsEngineEb@Base 4.0~bzr753
 _ZN3nux8GroupBox9SetLayoutEPNS_6LayoutE@Base 4.0~bzr753
 _ZN3nux8GroupBoxC1EPKcS2_i@Base 4.0~bzr753
 _ZN3nux8GroupBoxC2EPKcS2_i@Base 4.0~bzr753
 _ZN3nux8GroupBoxD0Ev@Base 4.0~bzr753
 _ZN3nux8GroupBoxD1Ev@Base 4.0~bzr753
 _ZN3nux8GroupBoxD2Ev@Base 4.0~bzr753
 _ZN3nux8MenuItem11DrawContentERNS_14GraphicsEngineEb@Base 4.0~bzr753
 _ZN3nux8MenuItem12GetTextWidthEv@Base 4.0~bzr753
 _ZN3nux8MenuItem12SetChildMenuEPNS_8MenuPageE@Base 4.0~bzr753
 _ZN3nux8MenuItem13GetTextHeightEv@Base 4.0~bzr753
 _ZN3nux8MenuItem13SetActionItemEPNS_10ActionItemE@Base 4.0~bzr753
 _ZN3nux8MenuItem14DrawAsMenuItemERNS_14GraphicsEngineERKNS_5color5ColorEbbbb@Base 4.0~bzr753
 _ZN3nux8MenuItem16StaticObjectTypeE@Base 4.0~bzr753
 _ZN3nux8MenuItem4DrawERNS_14GraphicsEngineEb@Base 4.0~bzr753
 _ZN3nux8MenuItemC1EPKciS2_i@Base 4.0~bzr753
 _ZN3nux8MenuItemC2EPKciS2_i@Base 4.0~bzr753
 _ZN3nux8MenuItemD0Ev@Base 4.0~bzr753
 _ZN3nux8MenuItemD1Ev@Base 4.0~bzr753
 _ZN3nux8MenuItemD2Ev@Base 4.0~bzr753
 _ZN3nux8MenuPage10AddSubMenuEPKcPS0_@Base 4.0~bzr753
 _ZN3nux8MenuPage10RemoveItemEPNS_10ActionItemE@Base 4.0~bzr753
 _ZN3nux8MenuPage11DrawContentERNS_14GraphicsEngineEb@Base 4.0~bzr753
 _ZN3nux8MenuPage11EmitMouseUpEiimm@Base 4.0~bzr753
 _ZN3nux8MenuPage11SetFontNameEPc@Base 4.0~bzr753
 _ZN3nux8MenuPage11SetGeometryERKNS_4RectE@Base 4.0~bzr753
 _ZN3nux8MenuPage11TestMouseUpEiimmRb@Base 4.0~bzr753
 _ZN3nux8MenuPage12AddSeparatorEv@Base 4.0~bzr753
 _ZN3nux8MenuPage13EmitMouseDownEiimm@Base 4.0~bzr753
 _ZN3nux8MenuPage13EmitMouseDragEiiiimm@Base 4.0~bzr753
 _ZN3nux8MenuPage13EmitMouseMoveEiiiimm@Base 4.0~bzr753
 _ZN3nux8MenuPage13GetParentMenuEv@Base 4.0~bzr753
 _ZN3nux8MenuPage13RemoveAllItemEv@Base 4.0~bzr753
 _ZN3nux8MenuPage13SetParentMenuEPS0_@Base 4.0~bzr753
 _ZN3nux8MenuPage13TestMouseDownEv@Base 4.0~bzr753
 _ZN3nux8MenuPage14RecvMouseLeaveEiimm@Base 4.0~bzr753
 _ZN3nux8MenuPage16StaticObjectTypeE@Base 4.0~bzr753
 _ZN3nux8MenuPage17ExecuteActionItemEPNS_8MenuItemE@Base 4.0~bzr753
 _ZN3nux8MenuPage17StopActionSubMenuEv@Base 4.0~bzr753
 _ZN3nux8MenuPage18ComputeContentSizeEv@Base 4.0~bzr753
 _ZN3nux8MenuPage18FindAreaUnderMouseERKNS_7Point2DIiEENS_9EventTypeE@Base 4.0~bzr753
 _ZN3nux8MenuPage26NotifyTerminateMenuCascadeEv@Base 4.0~bzr753
 _ZN3nux8MenuPage29NotifyActionTriggeredToParentEPS0_PNS_8MenuItemE@Base 4.0~bzr753
 _ZN3nux8MenuPage30SetOnClosureContinueEventCycleEb@Base 4.0~bzr753
 _ZN3nux8MenuPage33NotifyMouseDownOutsideMenuCascadeEii@Base 4.0~bzr753
 _ZN3nux8MenuPage4DrawERNS_14GraphicsEngineEb@Base 4.0~bzr753
 _ZN3nux8MenuPage7AddMenuEPKc@Base 4.0~bzr753
 _ZN3nux8MenuPage8StopMenuEii@Base 4.0~bzr753
 _ZN3nux8MenuPage9AddActionEPKci@Base 4.0~bzr753
 _ZN3nux8MenuPage9StartMenuEiiiib@Base 4.0~bzr753
 _ZN3nux8MenuPage9TerminateEiimm@Base 4.0~bzr753
 _ZN3nux8MenuPageC1EPKcS2_i@Base 4.0~bzr753
 _ZN3nux8MenuPageC2EPKcS2_i@Base 4.0~bzr753
 _ZN3nux8MenuPageD0Ev@Base 4.0~bzr753
 _ZN3nux8MenuPageD1Ev@Base 4.0~bzr753
 _ZN3nux8MenuPageD2Ev@Base 4.0~bzr753
 _ZN3nux8PropertyINS_10TextLoader13TextAlignmentEE13DefaultSetterERS2_RKS2_@Base 4.0~bzr753
 _ZN3nux8PropertyINS_10TextLoader13TextAlignmentEEC1ERKS2_@Base 4.0~bzr753
 _ZN3nux8PropertyINS_10TextLoader13TextAlignmentEEC2ERKS2_@Base 4.0~bzr753
 _ZN3nux8PropertyINS_10TextLoader13TextAlignmentEED1Ev@Base 4.0~bzr753
 _ZN3nux8PropertyINS_10TextLoader13TextAlignmentEED2Ev@Base 4.0~bzr753
 _ZN3nux8PropertyINS_5color5ColorEE13DefaultSetterERS2_RKS2_@Base 4.0~bzr753
 _ZN3nux8PropertyINS_5color5ColorEEC1Ev@Base 4.0~bzr753
 _ZN3nux8PropertyINS_5color5ColorEEC2Ev@Base 4.0~bzr753
 _ZN3nux8PropertyINS_5color5ColorEED1Ev@Base 4.0~bzr753
 _ZN3nux8PropertyINS_5color5ColorEED2Ev@Base 4.0~bzr753
 _ZN3nux8PropertyINS_9ObjectPtrINS_11BaseTextureEEEE13DefaultSetterERS3_RKS3_@Base 4.0~bzr753
 _ZN3nux8PropertyINS_9ObjectPtrINS_11BaseTextureEEEE3SetERKS3_@Base 4.0~bzr753
 _ZN3nux8PropertyINS_9ObjectPtrINS_11BaseTextureEEEEC1Ev@Base 4.0~bzr753
 _ZN3nux8PropertyINS_9ObjectPtrINS_11BaseTextureEEEEC2Ev@Base 4.0~bzr753
 _ZN3nux8PropertyINS_9ObjectPtrINS_14CoverflowModelEEEE13DefaultSetterERS3_RKS3_@Base 4.0~bzr753
 _ZN3nux8PropertyINS_9ObjectPtrINS_14CoverflowModelEEEEC1ERKS3_@Base 4.0~bzr753
 _ZN3nux8PropertyINS_9ObjectPtrINS_14CoverflowModelEEEEC2ERKS3_@Base 4.0~bzr753
 _ZN3nux8PropertyINS_9ObjectPtrINS_14CoverflowModelEEEED1Ev@Base 4.0~bzr753
 _ZN3nux8PropertyINS_9ObjectPtrINS_14CoverflowModelEEEED2Ev@Base 4.0~bzr753
 _ZN3nux8PropertyISsE13DefaultSetterERSsRKSs@Base 4.0~bzr753
 _ZN3nux8PropertyISsE3SetERKSs@Base 4.0~bzr753
 _ZN3nux8PropertyISsEC1ERKSs@Base 4.0~bzr753
 _ZN3nux8PropertyISsEC2ERKSs@Base 4.0~bzr753
 _ZN3nux8PropertyISsED1Ev@Base 4.0~bzr753
 _ZN3nux8PropertyISsED2Ev@Base 4.0~bzr753
 _ZN3nux8PropertyIbE13DefaultSetterERbRKb@Base 4.0~bzr753
 _ZN3nux8PropertyIbEC1ERKb@Base 4.0~bzr753
 _ZN3nux8PropertyIbEC1Ev@Base 4.0~bzr753
 _ZN3nux8PropertyIbEC2ERKb@Base 4.0~bzr753
 _ZN3nux8PropertyIbEC2Ev@Base 4.0~bzr753
 _ZN3nux8PropertyIbED1Ev@Base 4.0~bzr753
 _ZN3nux8PropertyIbED2Ev@Base 4.0~bzr753
 _ZN3nux8PropertyIfE13DefaultSetterERfRKf@Base 4.0~bzr753
 _ZN3nux8PropertyIfEC1ERKf@Base 4.0~bzr753
 _ZN3nux8PropertyIfEC2ERKf@Base 4.0~bzr753
 _ZN3nux8PropertyIfED1Ev@Base 4.0~bzr753
 _ZN3nux8PropertyIfED2Ev@Base 4.0~bzr753
 _ZN3nux8PropertyIiE13DefaultSetterERiRKi@Base 4.0~bzr753
 _ZN3nux8PropertyIiE3SetERKi@Base 4.0~bzr753
 _ZN3nux8PropertyIiEC1ERKi@Base 4.0~bzr753
 _ZN3nux8PropertyIiEC2ERKi@Base 4.0~bzr753
 _ZN3nux8PropertyIiED1Ev@Base 4.0~bzr753
 _ZN3nux8PropertyIiED2Ev@Base 4.0~bzr753
 _ZN3nux8PropertyIjE13DefaultSetterERjRKj@Base 4.0~bzr753
 _ZN3nux8PropertyIjEC1ERKj@Base 4.0~bzr753
 _ZN3nux8PropertyIjEC2ERKj@Base 4.0~bzr753
 _ZN3nux8PropertyIjED1Ev@Base 4.0~bzr753
 _ZN3nux8PropertyIjED2Ev@Base 4.0~bzr753
 _ZN3nux8TestView11OnMouseDownEiimm@Base 4.0~bzr753
 _ZN3nux8TestView11OnMouseDragEiiiimm@Base 4.0~bzr753
 _ZN3nux8TestView11OnMouseMoveEiiiimm@Base 4.0~bzr753
 _ZN3nux8TestView11ResetEventsEv@Base 4.0~bzr753
 _ZN3nux8TestView12OnMouseClickEiimm@Base 4.0~bzr753
 _ZN3nux8TestView12OnMouseEnterEiimm@Base 4.0~bzr753
 _ZN3nux8TestView12OnMouseLeaveEiimm@Base 4.0~bzr753
 _ZN3nux8TestView13OnEndKeyFocusEv@Base 4.0~bzr753
 _ZN3nux8TestView15OnBeginKeyFocusEv@Base 4.0~bzr753
 _ZN3nux8TestView16StaticObjectTypeE@Base 4.0~bzr753
 _ZN3nux8TestView17AcceptKeyNavFocusEv@Base 4.0~bzr753
 _ZN3nux8TestView17OnObjectDestroyedEPNS_6ObjectE@Base 4.0~bzr753
 _ZN3nux8TestView18OnMouseDoubleClickEiimm@Base 4.0~bzr753
 _ZN3nux8TestView19OnKeyNavFocusChangeEPNS_4AreaEbNS_15KeyNavDirectionE@Base 4.0~bzr753
 _ZN3nux8TestView19ResetKeyFocusEventsEv@Base 4.0~bzr753
 _ZN3nux8TestView4DrawERNS_14GraphicsEngineEb@Base 4.0~bzr753
 _ZN3nux8TestView9OnMouseUpEiimm@Base 4.0~bzr753
 _ZN3nux8TestView9QueueDrawEv@Base 4.0~bzr753
 _ZN3nux8TestViewC1EPKci@Base 4.0~bzr753
 _ZN3nux8TestViewC2EPKci@Base 4.0~bzr753
 _ZN3nux8TestViewD0Ev@Base 4.0~bzr753
 _ZN3nux8TestViewD1Ev@Base 4.0~bzr753
 _ZN3nux8TestViewD2Ev@Base 4.0~bzr753
 _ZN3nux8Timeline11GetProgressEv@Base 4.0~bzr753
 _ZN3nux8Timeline4StopEv@Base 4.0~bzr753
 _ZN3nux8Timeline5PauseEv@Base 4.0~bzr753
 _ZN3nux8Timeline5StartEv@Base 4.0~bzr753
 _ZN3nux8Timeline6DoTickEm@Base 4.0~bzr753
 _ZN3nux8Timeline6RewindEv@Base 4.0~bzr753
 _ZN3nux8Timeline9GetEasingEv@Base 4.0~bzr753
 _ZN3nux8TimelineC1EjPKcS2_i@Base 4.0~bzr753
 _ZN3nux8TimelineC2EjPKcS2_i@Base 4.0~bzr753
 _ZN3nux8TimelineD0Ev@Base 4.0~bzr753
 _ZN3nux8TimelineD1Ev@Base 4.0~bzr753
 _ZN3nux8TimelineD2Ev@Base 4.0~bzr753
 _ZN3nux8as_floatEf@Base 4.0~bzr753
 _ZN3nux9BasicView16StaticObjectTypeE@Base 4.0~bzr753
 _ZN3nux9BasicView4DrawERNS_14GraphicsEngineEb@Base 4.0~bzr753
 _ZN3nux9BasicViewC1EPKci@Base 4.0~bzr753
 _ZN3nux9BasicViewC2EPKci@Base 4.0~bzr753
 _ZN3nux9BasicViewD0Ev@Base 4.0~bzr753
 _ZN3nux9BasicViewD1Ev@Base 4.0~bzr753
 _ZN3nux9BasicViewD2Ev@Base 4.0~bzr753
 _ZN3nux9COLOR_REDE@Base 4.0~bzr753
 _ZN3nux9CairoFont7DestroyEv@Base 4.0~bzr753
 _ZN3nux9CairoFontC1ERKSsdNS0_5StyleENS0_6WeightE@Base 4.0~bzr753
 _ZN3nux9CairoFontC2ERKSsdNS0_5StyleENS0_6WeightE@Base 4.0~bzr753
 _ZN3nux9CairoFontD0Ev@Base 4.0~bzr753
 _ZN3nux9CairoFontD1Ev@Base 4.0~bzr753
 _ZN3nux9CairoFontD2Ev@Base 4.0~bzr753
 _ZN3nux9Coverflow10ClientDrawERNS_14GraphicsEngineERNS_15DrawAreaContextEb@Base 4.0~bzr753
 _ZN3nux9Coverflow15InspectKeyEventEjjPKc@Base 4.0~bzr753
 _ZN3nux9Coverflow16StaticObjectTypeE@Base 4.0~bzr753
 _ZN3nux9Coverflow17AcceptKeyNavFocusEv@Base 4.0~bzr753
 _ZN3nux9Coverflow17SetCameraDistanceEf@Base 4.0~bzr753
 _ZN3nux9Coverflow20ViewportWidthAtDepthEf@Base 4.0~bzr753
 _ZN3nux9Coverflow21ViewportHeightAtDepthEf@Base 4.0~bzr753
 _ZN3nux9Coverflow4Impl11HandleKeyUpEjmm@Base 4.0~bzr753
 _ZN3nux9Coverflow4Impl11OnItemAddedEPNS_14CoverflowModelENS_9ObjectPtrINS_13CoverflowItemEEE@Base 4.0~bzr753
 _ZN3nux9Coverflow4Impl11SetPositionEfb@Base 4.0~bzr753
 _ZN3nux9Coverflow4Impl13HandleKeyDownEmmmPKct@Base 4.0~bzr753
 _ZN3nux9Coverflow4Impl13HandleMouseUpEiimm@Base 4.0~bzr753
 _ZN3nux9Coverflow4Impl13OnItemRemovedEPNS_14CoverflowModelENS_9ObjectPtrINS_13CoverflowItemEEE@Base 4.0~bzr753
 _ZN3nux9Coverflow4Impl14MaybeQueueDrawEv@Base 4.0~bzr753
 _ZN3nux9Coverflow4Impl15HandleMouseDownEiimm@Base 4.0~bzr753
 _ZN3nux9Coverflow4Impl15HandleMouseDragEiiiimm@Base 4.0~bzr753
 _ZN3nux9Coverflow4Impl15HandleMouseMoveEiiiimm@Base 4.0~bzr753
 _ZN3nux9Coverflow4Impl16Get3DBoundingBoxEfRNS_7Point2DIfEES4_@Base 4.0~bzr753
 _ZN3nux9Coverflow4Impl16HandleMouseClickEiimm@Base 4.0~bzr753
 _ZN3nux9Coverflow4Impl16HandleMouseEnterEiimm@Base 4.0~bzr753
 _ZN3nux9Coverflow4Impl16HandleMouseLeaveEiimm@Base 4.0~bzr753
 _ZN3nux9Coverflow4Impl16HandleMouseWheelEiiimm@Base 4.0~bzr753
 _ZN3nux9Coverflow4Impl16LoadVertexBufferEiiiPf@Base 4.0~bzr753
 _ZN3nux9Coverflow4Impl17OnVelocityTimeoutEPv@Base 4.0~bzr753
 _ZN3nux9Coverflow4Impl18GetCurrentVelocityEi@Base 4.0~bzr753
 _ZN3nux9Coverflow4Impl18OnAnimationTimeoutEPv@Base 4.0~bzr753
 _ZN3nux9Coverflow4Impl18OnSelectionChangedEPNS_14CoverflowModelENS_9ObjectPtrINS_13CoverflowItemEEE@Base 4.0~bzr753
 _ZN3nux9Coverflow4Impl20HandleGeometryChangeEPNS_4AreaENS_4RectE@Base 4.0~bzr753
 _ZN3nux9Coverflow4Impl20UpdateModelSelectionEv@Base 4.0~bzr753
 _ZN3nux9Coverflow4ImplC1EPS0_@Base 4.0~bzr753
 _ZN3nux9Coverflow4ImplC2EPS0_@Base 4.0~bzr753
 _ZN3nux9Coverflow4ImplD1Ev@Base 4.0~bzr753
 _ZN3nux9Coverflow4ImplD2Ev@Base 4.0~bzr753
 _ZN3nux9CoverflowC1Ev@Base 4.0~bzr753
 _ZN3nux9CoverflowC2Ev@Base 4.0~bzr753
 _ZN3nux9CoverflowD0Ev@Base 4.0~bzr753
 _ZN3nux9CoverflowD1Ev@Base 4.0~bzr753
 _ZN3nux9CoverflowD2Ev@Base 4.0~bzr753
 _ZN3nux9EMMetrics8EM2PixelEd@Base 4.0~bzr753
 _ZN3nux9EMMetrics8Pixel2EMEi@Base 4.0~bzr753
 _ZN3nux9EMMetricsC1EP9_XDisplayid@Base 4.0~bzr753
 _ZN3nux9EMMetricsC2EP9_XDisplayid@Base 4.0~bzr753
 _ZN3nux9GroupBox210SetCaptionEPKc@Base 4.0~bzr753
 _ZN3nux9GroupBox211DrawContentERNS_14GraphicsEngineEb@Base 4.0~bzr753
 _ZN3nux9GroupBox216CAPTION_X_MARGINE@Base 4.0~bzr753
 _ZN3nux9GroupBox217AcceptKeyNavFocusEv@Base 4.0~bzr753
 _ZN3nux9GroupBox217TOP_HEADER_HEIGHTE@Base 4.0~bzr753
 _ZN3nux9GroupBox219PreLayoutManagementEv@Base 4.0~bzr753
 _ZN3nux9GroupBox220PostLayoutManagementEl@Base 4.0~bzr753
 _ZN3nux9GroupBox222ComputeContentPositionEff@Base 4.0~bzr753
 _ZN3nux9GroupBox227GROUPBOX2_HEADER_BASE_COLORE@Base 4.0~bzr753
 _ZN3nux9GroupBox227GROUPBOX2_HEADER_TEXT_COLORE@Base 4.0~bzr753
 _ZN3nux9GroupBox24DrawERNS_14GraphicsEngineEb@Base 4.0~bzr753
 _ZN3nux9GroupBox28X_MARGINE@Base 4.0~bzr753
 _ZN3nux9GroupBox28Y_MARGINE@Base 4.0~bzr753
 _ZN3nux9GroupBox29SetLayoutEPNS_6LayoutE@Base 4.0~bzr753
 _ZN3nux9GroupBox2C1EPKcS2_i@Base 4.0~bzr753
 _ZN3nux9GroupBox2C2EPKcS2_i@Base 4.0~bzr753
 _ZN3nux9GroupBox2D0Ev@Base 4.0~bzr753
 _ZN3nux9GroupBox2D1Ev@Base 4.0~bzr753
 _ZN3nux9GroupBox2D2Ev@Base 4.0~bzr753
 _ZN3nux9HSplitter10DoneRedrawEv@Base 4.0~bzr753
 _ZN3nux9HSplitter11DrawContentERNS_14GraphicsEngineEb@Base 4.0~bzr753
 _ZN3nux9HSplitter12clearContentEv@Base 4.0~bzr753
 _ZN3nux9HSplitter14CanBreakLayoutEv@Base 4.0~bzr753
 _ZN3nux9HSplitter14OverlayDrawingERNS_14GraphicsEngineE@Base 4.0~bzr753
 _ZN3nux9HSplitter14ResizeSplitterEi@Base 4.0~bzr753
 _ZN3nux9HSplitter15KeyNavIterationENS_15KeyNavDirectionE@Base 4.0~bzr753
 _ZN3nux9HSplitter16ResetSplitConfigEv@Base 4.0~bzr753
 _ZN3nux9HSplitter16StaticObjectTypeE@Base 4.0~bzr753
 _ZN3nux9HSplitter17AcceptKeyNavFocusEv@Base 4.0~bzr753
 _ZN3nux9HSplitter17OnSplitterMouseUpEiimmi@Base 4.0~bzr753
 _ZN3nux9HSplitter18ComputeContentSizeEv@Base 4.0~bzr753
 _ZN3nux9HSplitter18FindAreaUnderMouseERKNS_7Point2DIiEENS_9EventTypeE@Base 4.0~bzr753
 _ZN3nux9HSplitter19OnSplitterMouseDownEiimmi@Base 4.0~bzr753
 _ZN3nux9HSplitter19OnSplitterMouseDragEiiiimmi@Base 4.0~bzr753
 _ZN3nux9HSplitter4DrawERNS_14GraphicsEngineEb@Base 4.0~bzr753
 _ZN3nux9HSplitter9AddWidgetEPNS_4AreaEf@Base 4.0~bzr753
 _ZN3nux9HSplitterC1EPKci@Base 4.0~bzr753
 _ZN3nux9HSplitterC2EPKci@Base 4.0~bzr753
 _ZN3nux9HSplitterD0Ev@Base 4.0~bzr753
 _ZN3nux9HSplitterD1Ev@Base 4.0~bzr753
 _ZN3nux9HSplitterD2Ev@Base 4.0~bzr753
 _ZN3nux9InputArea11GrabPointerEv@Base 4.0~bzr753
 _ZN3nux9InputArea12GestureEventERKNS_12GestureEventE@Base 4.0~bzr753
 _ZN3nux9InputArea12GrabKeyboardEv@Base 4.0~bzr753
 _ZN3nux9InputArea12IsMouseOwnerEv@Base 4.0~bzr753
 _ZN3nux9InputArea13HandleDndDropERNS_5EventE@Base 4.0~bzr753
 _ZN3nux9InputArea13HandleDndMoveERNS_5EventE@Base 4.0~bzr753
 _ZN3nux9InputArea13IsMouseInsideEv@Base 4.0~bzr753
 _ZN3nux9InputArea13SendDndStatusEbNS_9DndActionENS_4RectE@Base 4.0~bzr753
 _ZN3nux9InputArea13SetDndEnabledEbb@Base 4.0~bzr753
 _ZN3nux9InputArea13UnGrabPointerEv@Base 4.0~bzr753
 _ZN3nux9InputArea14OverlayDrawingERNS_14GraphicsEngineE@Base 4.0~bzr753
 _ZN3nux9InputArea14ProcessDndDropEii@Base 4.0~bzr753
 _ZN3nux9InputArea14ProcessDndMoveEiiSt4listIPcSaIS2_EE@Base 4.0~bzr753
 _ZN3nux9InputArea14UnGrabKeyboardEv@Base 4.0~bzr753
 _ZN3nux9InputArea15ChildMouseEventERKNS_5EventE@Base 4.0~bzr753
 _ZN3nux9InputArea15EmitKeyUpSignalEjmm@Base 4.0~bzr753
 _ZN3nux9InputArea15OwnsPointerGrabEv@Base 4.0~bzr753
 _ZN3nux9InputArea15ProcessDndEnterEv@Base 4.0~bzr753
 _ZN3nux9InputArea15ProcessDndLeaveEv@Base 4.0~bzr753
 _ZN3nux9InputArea15SendDndFinishedEbNS_9DndActionE@Base 4.0~bzr753
 _ZN3nux9InputArea16FindKeyFocusAreaEjmm@Base 4.0~bzr753
 _ZN3nux9InputArea16HasKeyboardFocusEv@Base 4.0~bzr753
 _ZN3nux9InputArea16OwnsKeyboardGrabEv@Base 4.0~bzr753
 _ZN3nux9InputArea16StaticObjectTypeE@Base 4.0~bzr753
 _ZN3nux9InputArea17AcceptKeyNavFocusEv@Base 4.0~bzr753
 _ZN3nux9InputArea17EmitKeyDownSignalEjmm@Base 4.0~bzr753
 _ZN3nux9InputArea17EmitMouseUpSignalEiimm@Base 4.0~bzr753
 _ZN3nux9InputArea17EnableDoubleClickEb@Base 4.0~bzr753
 _ZN3nux9InputArea17StartDragAsSourceEv@Base 4.0~bzr753
 _ZN3nux9InputArea18DndSourceDragBeginEv@Base 4.0~bzr753
 _ZN3nux9InputArea18EmitKeyEventSignalEmjmPKci@Base 4.0~bzr753
 _ZN3nux9InputArea18FindAreaUnderMouseERKNS_7Point2DIiEENS_9EventTypeE@Base 4.0~bzr753
 _ZN3nux9InputArea19EmitMouseDownSignalEiimm@Base 4.0~bzr753
 _ZN3nux9InputArea19EmitMouseDragSignalEiiiimm@Base 4.0~bzr753
 _ZN3nux9InputArea19EmitMouseMoveSignalEiiiimm@Base 4.0~bzr753
 _ZN3nux9InputArea20EmitMouseClickSignalEiimm@Base 4.0~bzr753
 _ZN3nux9InputArea20EmitMouseEnterSignalEiimm@Base 4.0~bzr753
 _ZN3nux9InputArea20EmitMouseLeaveSignalEiimm@Base 4.0~bzr753
 _ZN3nux9InputArea20EmitMouseWheelSignalEiiimm@Base 4.0~bzr753
 _ZN3nux9InputArea21DndSourceDragFinishedENS_9DndActionE@Base 4.0~bzr753
 _ZN3nux9InputArea21DndSourceGetDragImageEv@Base 4.0~bzr753
 _ZN3nux9InputArea21DndSourceGetDragTypesEv@Base 4.0~bzr753
 _ZN3nux9InputArea21EmitMouseCancelSignalEv@Base 4.0~bzr753
 _ZN3nux9InputArea21MouseFocusOnOtherAreaEv@Base 4.0~bzr753
 _ZN3nux9InputArea23AddGesturesSubscriptionERSt10shared_ptrINS_20GesturesSubscriptionEE@Base 4.0~bzr753
 _ZN3nux9InputArea23DndSourceGetDataForTypeEPKcPiS3_@Base 4.0~bzr753
 _ZN3nux9InputArea24EmitMouseDownOutsideAreaEiimm@Base 4.0~bzr753
 _ZN3nux9InputArea24GetInputAreaHitByGestureERKNS_12GestureEventE@Base 4.0~bzr753
 _ZN3nux9InputArea24SetTrackChildMouseEventsEb@Base 4.0~bzr753
 _ZN3nux9InputArea26CreateGesturesSubscriptionEij@Base 4.0~bzr753
 _ZN3nux9InputArea26EmitMouseDoubleClickSignalEiimm@Base 4.0~bzr753
 _ZN3nux9InputArea26InnerDndSourceDragFinishedENS_9DndActionEPv@Base 4.0~bzr753
 _ZN3nux9InputArea26InnerDndSourceGetDragImageEPv@Base 4.0~bzr753
 _ZN3nux9InputArea26InnerDndSourceGetDragTypesEPv@Base 4.0~bzr753
 _ZN3nux9InputArea26RemoveGesturesSubscriptionERSt10shared_ptrINS_20GesturesSubscriptionEE@Base 4.0~bzr753
 _ZN3nux9InputArea28CaptureMouseDownAnyWhereElseEb@Base 4.0~bzr753
 _ZN3nux9InputArea28InnerDndSourceGetDataForTypeEPKcPiS3_Pv@Base 4.0~bzr753
 _ZN3nux9InputArea31SetAcceptKeyNavFocusOnMouseDownEb@Base 4.0~bzr753
 _ZN3nux9InputArea32SetAcceptKeyNavFocusOnMouseEnterEb@Base 4.0~bzr753
 _ZN3nux9InputArea38KeyboardReceiverIgnoreMouseDownOutsideEv@Base 4.0~bzr753
 _ZN3nux9InputArea41SetKeyboardReceiverIgnoreMouseDownOutsideEb@Base 4.0~bzr753
 _ZN3nux9InputArea6OnDrawERNS_14GraphicsEngineEb@Base 4.0~bzr753
 _ZN3nux9InputAreaC1EPKci@Base 4.0~bzr753
 _ZN3nux9InputAreaC2EPKci@Base 4.0~bzr753
 _ZN3nux9InputAreaD0Ev@Base 4.0~bzr753
 _ZN3nux9InputAreaD1Ev@Base 4.0~bzr753
 _ZN3nux9InputAreaD2Ev@Base 4.0~bzr753
 _ZN3nux9Matrix4x4IfE8Rotate_xEf@Base 4.0~bzr753
 _ZN3nux9Matrix4x4IfE8Rotate_yEf@Base 4.0~bzr753
 _ZN3nux9Matrix4x4IfE8Rotate_zEf@Base 4.0~bzr753
 _ZN3nux9Matrix4x4IfEC1ERKS1_@Base 4.0~bzr753
 _ZN3nux9Matrix4x4IfEC2ERKS1_@Base 4.0~bzr753
 _ZN3nux9Matrix4x4IfEaSERKS1_@Base 4.0~bzr753
 _ZN3nux9ObjectPtrINS_11BaseTextureEE16ReleaseReferenceEv@Base 4.0~bzr753
 _ZN3nux9ObjectPtrINS_11FontTextureEE16ReleaseReferenceEv@Base 4.0~bzr753
 _ZN3nux9ObjectPtrINS_13CoverflowItemEE16ReleaseReferenceEv@Base 4.0~bzr753
 _ZN3nux9ObjectPtrINS_13IOpenGLShaderEE16ReleaseReferenceEv@Base 4.0~bzr753
 _ZN3nux9ObjectPtrINS_14CoverflowModelEE16ReleaseReferenceEv@Base 4.0~bzr753
 _ZN3nux9ObjectPtrINS_14CoverflowModelEEaSERKS2_@Base 4.0~bzr753
 _ZN3nux9ObjectPtrINS_18CachedResourceDataEE16ReleaseReferenceEv@Base 4.0~bzr753
 _ZN3nux9ObjectPtrINS_18IOpenGLBaseTextureEE16ReleaseReferenceEv@Base 4.0~bzr753
 _ZN3nux9ObjectPtrINS_18IOpenGLBaseTextureEEC1ERKS2_@Base 4.0~bzr753
 _ZN3nux9ObjectPtrINS_18IOpenGLBaseTextureEEC2ERKS2_@Base 4.0~bzr753
 _ZN3nux9ObjectPtrINS_18IOpenGLBaseTextureEEaSERKS2_@Base 4.0~bzr753
 _ZN3nux9ObjectPtrINS_18IOpenGLPixelShaderEE16ReleaseReferenceEv@Base 4.0~bzr753
 _ZN3nux9ObjectPtrINS_19IOpenGLVertexShaderEE16ReleaseReferenceEv@Base 4.0~bzr753
 _ZN3nux9ObjectPtrINS_20IOpenGLShaderProgramEE16ReleaseReferenceEv@Base 4.0~bzr753
 _ZN3nux9ObjectPtrINS_22IOpenGLAnimatedTextureEE16ReleaseReferenceEv@Base 4.0~bzr753
 _ZN3nux9ObjectPtrINS_24IOpenGLFrameBufferObjectEE16ReleaseReferenceEv@Base 4.0~bzr753
 _ZN3nux9ObjectPtrINS_27CachedTextureFrameAnimationEE16ReleaseReferenceEv@Base 4.0~bzr753
 _ZN3nux9ScrollBar13SetScrollUnitEi@Base 4.0~bzr753
 _ZN3nux9ScrollBar17AcceptKeyNavFocusEv@Base 4.0~bzr753
 _ZN3nux9ScrollBarC1EPKci@Base 4.0~bzr753
 _ZN3nux9ScrollBarC2EPKci@Base 4.0~bzr753
 _ZN3nux9ScrollBarD0Ev@Base 4.0~bzr753
 _ZN3nux9ScrollBarD1Ev@Base 4.0~bzr753
 _ZN3nux9ScrollBarD2Ev@Base 4.0~bzr753
 _ZN3nux9TextEntry10DeleteTextEii@Base 4.0~bzr753
 _ZN3nux9TextEntry10DrawCursorEPNS_13CairoGraphicsE@Base 4.0~bzr753
 _ZN3nux9TextEntry10HideCursorEv@Base 4.0~bzr753
 _ZN3nux9TextEntry10MoveCursorENS0_12MovementStepEib@Base 4.0~bzr753
 _ZN3nux9TextEntry10SelectLineEv@Base 4.0~bzr753
 _ZN3nux9TextEntry10SelectWordEv@Base 4.0~bzr753
 _ZN3nux9TextEntry10ShowCursorEv@Base 4.0~bzr753
 _ZN3nux9TextEntry10im_runningEv@Base 4.0~bzr753
 _ZN3nux9TextEntry11DrawContentERNS_14GraphicsEngineEb@Base 4.0~bzr753
 _ZN3nux9TextEntry11RecvMouseUpEiimm@Base 4.0~bzr753
 _ZN3nux9TextEntry11ResetLayoutEv@Base 4.0~bzr753
 _ZN3nux9TextEntry11SetFontSizeEd@Base 4.0~bzr753
 _ZN3nux9TextEntry12AdjustScrollEv@Base 4.0~bzr753
 _ZN3nux9TextEntry12CreateLayoutEv@Base 4.0~bzr753
 _ZN3nux9TextEntry12CutClipboardEv@Base 4.0~bzr753
 _ZN3nux9TextEntry12EnsureCanvasEv@Base 4.0~bzr753
 _ZN3nux9TextEntry12EnsureLayoutEv@Base 4.0~bzr753
 _ZN3nux9TextEntry12MoveLineEndsEii@Base 4.0~bzr753
 _ZN3nux9TextEntry12MoveVisuallyEii@Base 4.0~bzr753
 _ZN3nux9TextEntry12QueueRefreshEbb@Base 4.0~bzr753
 _ZN3nux9TextEntry12RecvKeyEventEmmmPKct@Base 4.0~bzr753
 _ZN3nux9TextEntry12ResetPreeditEv@Base 4.0~bzr753
 _ZN3nux9TextEntry12SetTextColorERKNS_5color5ColorE@Base 4.0~bzr753
 _ZN3nux9TextEntry13CopyClipboardEv@Base 4.0~bzr753
 _ZN3nux9TextEntry13GetCharLengthEi@Base 4.0~bzr753
 _ZN3nux9TextEntry13QueueTextDrawEv@Base 4.0~bzr753
 _ZN3nux9TextEntry13RecvMouseDownEiimm@Base 4.0~bzr753
 _ZN3nux9TextEntry13RecvMouseDragEiiiimm@Base 4.0~bzr753
 _ZN3nux9TextEntry13SetCompletionEPKc@Base 4.0~bzr753
 _ZN3nux9TextEntry13SetFontFamilyEPKc@Base 4.0~bzr753
 _ZN3nux9TextEntry13SetVisibilityEb@Base 4.0~bzr753
 _ZN3nux9TextEntry13XYToTextIndexEii@Base 4.0~bzr753
 _ZN3nux9TextEntry14GetCursorRectsEPNS_4RectES2_@Base 4.0~bzr753
 _ZN3nux9TextEntry14PasteClipboardEv@Base 4.0~bzr753
 _ZN3nux9TextEntry14RecvMouseEnterEiimm@Base 4.0~bzr753
 _ZN3nux9TextEntry14RecvMouseLeaveEiimm@Base 4.0~bzr753
 _ZN3nux9TextEntry14ResetImContextEv@Base 4.0~bzr753
 _ZN3nux9TextEntry14SetFontOptionsEPK19_cairo_font_options@Base 4.0~bzr753
 _ZN3nux9TextEntry15DeleteSelectionEv@Base 4.0~bzr753
 _ZN3nux9TextEntry15GeometryChangedEv@Base 4.0~bzr753
 _ZN3nux9TextEntry15GetPasswordCharEv@Base 4.0~bzr753
 _ZN3nux9TextEntry15InspectKeyEventERKNS_5EventE@Base 4.0~bzr753
 _ZN3nux9TextEntry15InspectKeyEventEjjPKc@Base 4.0~bzr753
 _ZN3nux9TextEntry15ProcessKeyEventEmmmPKct@Base 4.0~bzr753
 _ZN3nux9TextEntry15RecvEndKeyFocusEv@Base 4.0~bzr753
 _ZN3nux9TextEntry15SetPasswordCharEPKc@Base 4.0~bzr753
 _ZN3nux9TextEntry15SetPasswordModeEb@Base 4.0~bzr753
 _ZN3nux9TextEntry15ToggleOverwriteEv@Base 4.0~bzr753
 _ZN3nux9TextEntry16MoveDisplayLinesEii@Base 4.0~bzr753
 _ZN3nux9TextEntry16QueueCursorBlinkEv@Base 4.0~bzr753
 _ZN3nux9TextEntry16StaticObjectTypeE@Base 4.0~bzr753
 _ZN3nux9TextEntry17GetPrevCharLengthEi@Base 4.0~bzr753
 _ZN3nux9TextEntry17HandleCompositionEm@Base 4.0~bzr753
 _ZN3nux9TextEntry17ProcessMouseEventEiiiiimm@Base 4.0~bzr753
 _ZN3nux9TextEntry17RecvStartKeyFocusEv@Base 4.0~bzr753
 _ZN3nux9TextEntry18FindAreaUnderMouseERKNS_7Point2DIiEENS_9EventTypeE@Base 4.0~bzr753
 _ZN3nux9TextEntry18SetCompletionColorERKNS_5color5ColorE@Base 4.0~bzr753
 _ZN3nux9TextEntry18SetSelectionBoundsEii@Base 4.0~bzr753
 _ZN3nux9TextEntry18UpdateCursorRegionEv@Base 4.0~bzr753
 _ZN3nux9TextEntry19CursorBlinkCallbackEPS0_@Base 4.0~bzr753
 _ZN3nux9TextEntry19MoveCursorToLineEndEv@Base 4.0~bzr753
 _ZN3nux9TextEntry19PreLayoutManagementEv@Base 4.0~bzr753
 _ZN3nux9TextEntry20PostLayoutManagementEl@Base 4.0~bzr753
 _ZN3nux9TextEntry20RecvMouseDoubleClickEiimm@Base 4.0~bzr753
 _ZN3nux9TextEntry21GetCompositionForListERKSt6vectorImSaImEERSs@Base 4.0~bzr753
 _ZN3nux9TextEntry21GetSelectionTextColorEv@Base 4.0~bzr753
 _ZN3nux9TextEntry21MoveCursorToLineStartEv@Base 4.0~bzr753
 _ZN3nux9TextEntry21PastePrimaryClipboardEv@Base 4.0~bzr753
 _ZN3nux9TextEntry21UpdateSelectionRegionEv@Base 4.0~bzr753
 _ZN3nux9TextEntry22LayoutIndexToTextIndexEi@Base 4.0~bzr753
 _ZN3nux9TextEntry22TextIndexToLayoutIndexEib@Base 4.0~bzr753
 _ZN3nux9TextEntry25GetCursorLocationInLayoutEPiS1_S1_S1_S1_S1_@Base 4.0~bzr753
 _ZN3nux9TextEntry27GetSelectionBackgroundColorEv@Base 4.0~bzr753
 _ZN3nux9TextEntry34SetLoseKeyFocusOnKeyNavDirectionUpEb@Base 4.0~bzr753
 _ZN3nux9TextEntry36SetLoseKeyFocusOnKeyNavDirectionDownEb@Base 4.0~bzr753
 _ZN3nux9TextEntry4DrawERNS_14GraphicsEngineEb@Base 4.0~bzr753
 _ZN3nux9TextEntry6DeleteENS0_12MovementStepE@Base 4.0~bzr753
 _ZN3nux9TextEntry6SelectEii@Base 4.0~bzr753
 _ZN3nux9TextEntry7SetTextEPKc@Base 4.0~bzr753
 _ZN3nux9TextEntry8DrawTextEPNS_13CairoGraphicsE@Base 4.0~bzr753
 _ZN3nux9TextEntry8FocusInxEv@Base 4.0~bzr753
 _ZN3nux9TextEntry8MainDrawEv@Base 4.0~bzr753
 _ZN3nux9TextEntry8SetAlignENS_13CairoGraphics9AlignmentE@Base 4.0~bzr753
 _ZN3nux9TextEntry9BackSpaceENS0_12MovementStepE@Base 4.0~bzr753
 _ZN3nux9TextEntry9EnterTextEPKc@Base 4.0~bzr753
 _ZN3nux9TextEntry9FocusOutxEv@Base 4.0~bzr753
 _ZN3nux9TextEntry9MovePagesEii@Base 4.0~bzr753
 _ZN3nux9TextEntry9MoveWordsEii@Base 4.0~bzr753
 _ZN3nux9TextEntry9SelectAllEv@Base 4.0~bzr753
 _ZN3nux9TextEntry9SetCursorEi@Base 4.0~bzr753
 _ZN3nux9TextEntry9im_activeEv@Base 4.0~bzr753
 _ZN3nux9TextEntryC1EPKcS2_i@Base 4.0~bzr753
 _ZN3nux9TextEntryC2EPKcS2_i@Base 4.0~bzr753
 _ZN3nux9TextEntryD0Ev@Base 4.0~bzr753
 _ZN3nux9TextEntryD1Ev@Base 4.0~bzr753
 _ZN3nux9TextEntryD2Ev@Base 4.0~bzr753
 _ZN3nux9VSplitter10DoneRedrawEv@Base 4.0~bzr753
 _ZN3nux9VSplitter11DrawContentERNS_14GraphicsEngineEb@Base 4.0~bzr753
 _ZN3nux9VSplitter12clearContentEv@Base 4.0~bzr753
 _ZN3nux9VSplitter14CanBreakLayoutEv@Base 4.0~bzr753
 _ZN3nux9VSplitter14OverlayDrawingERNS_14GraphicsEngineE@Base 4.0~bzr753
 _ZN3nux9VSplitter14ResizeSplitterEi@Base 4.0~bzr753
 _ZN3nux9VSplitter15KeyNavIterationENS_15KeyNavDirectionE@Base 4.0~bzr753
 _ZN3nux9VSplitter16ResetSplitConfigEv@Base 4.0~bzr753
 _ZN3nux9VSplitter16StaticObjectTypeE@Base 4.0~bzr753
 _ZN3nux9VSplitter17AcceptKeyNavFocusEv@Base 4.0~bzr753
 _ZN3nux9VSplitter17OnSplitterMouseUpEiimmi@Base 4.0~bzr753
 _ZN3nux9VSplitter18ComputeContentSizeEv@Base 4.0~bzr753
 _ZN3nux9VSplitter18FindAreaUnderMouseERKNS_7Point2DIiEENS_9EventTypeE@Base 4.0~bzr753
 _ZN3nux9VSplitter19OnSplitterMouseDownEiimmi@Base 4.0~bzr753
 _ZN3nux9VSplitter19OnSplitterMouseDragEiiiimmi@Base 4.0~bzr753
 _ZN3nux9VSplitter4DrawERNS_14GraphicsEngineEb@Base 4.0~bzr753
 _ZN3nux9VSplitter9AddWidgetEPNS_4AreaEf@Base 4.0~bzr753
 _ZN3nux9VSplitterC1EPKci@Base 4.0~bzr753
 _ZN3nux9VSplitterC2EPKci@Base 4.0~bzr753
 _ZN3nux9VSplitterD0Ev@Base 4.0~bzr753
 _ZN3nux9VSplitterD1Ev@Base 4.0~bzr753
 _ZN3nux9VSplitterD2Ev@Base 4.0~bzr753
 _ZN3nux9Validator10InitRegExpEv@Base 4.0~bzr753
 _ZN3nux9Validator11AlternativeEPKc@Base 4.0~bzr753
 _ZN3nux9ValidatorC1Ev@Base 4.0~bzr753
 _ZN3nux9ValidatorC2Ev@Base 4.0~bzr753
 _ZN3nux9ValidatorD0Ev@Base 4.0~bzr753
 _ZN3nux9ValidatorD1Ev@Base 4.0~bzr753
 _ZN3nux9ValidatorD2Ev@Base 4.0~bzr753
 _ZN4sigc10visit_eachINS_8internal20limit_derived_targetIPNS_9trackableENS1_12slot_do_bindEEEN3nux9Coverflow4ImplELb1EEEvRKT_RKNS_15limit_referenceIT0_XT1_EEE@Base 4.0~bzr753
 _ZN4sigc15visit_each_typeIPNS_9trackableENS_8internal12slot_do_bindENS_12bind_functorILin1ENS5_ILin1ENS_18bound_mem_functor3IvN3nux11ColorEditorEPNS7_14AbstractButtonENS7_5color5ModelENSB_7ChannelEEESD_NS_3nilESF_SF_SF_SF_SF_EESC_SF_SF_SF_SF_SF_SF_EEEEvRKT0_RKT1_@Base 4.0~bzr753
 _ZN4sigc15visit_each_typeIPNS_9trackableENS_8internal12slot_do_bindENS_12bind_functorILin1ENS_18bound_mem_functor3IvN3nux11RGBValuatorEPNS7_11EditTextBoxERKSsiEEiNS_3nilESE_SE_SE_SE_SE_EEEEvRKT0_RKT1_@Base 4.0~bzr753
 _ZN4sigc15visit_each_typeIPNS_9trackableENS_8internal12slot_do_bindENS_12bind_functorILin1ENS_18bound_mem_functor5IvN3nux7MenuBarEiimmPNS7_11MenuBarItemEEESA_NS_3nilESC_SC_SC_SC_SC_EEEEvRKT0_RKT1_@Base 4.0~bzr753
 _ZN4sigc15visit_each_typeIPNS_9trackableENS_8internal12slot_do_bindENS_12bind_functorILin1ENS_18bound_mem_functor5IvN3nux9HSplitterEiimmiEEjNS_3nilESA_SA_SA_SA_SA_EEEEvRKT0_RKT1_@Base 4.0~bzr753
 _ZN4sigc15visit_each_typeIPNS_9trackableENS_8internal12slot_do_bindENS_12bind_functorILin1ENS_18bound_mem_functor5IvN3nux9VSplitterEiimmiEEjNS_3nilESA_SA_SA_SA_SA_EEEEvRKT0_RKT1_@Base 4.0~bzr753
 _ZN4sigc15visit_each_typeIPNS_9trackableENS_8internal12slot_do_bindENS_12bind_functorILin1ENS_18bound_mem_functor7IvN3nux7MenuBarEiiiimmPNS7_11MenuBarItemEEESA_NS_3nilESC_SC_SC_SC_SC_EEEEvRKT0_RKT1_@Base 4.0.0
 _ZN4sigc15visit_each_typeIPNS_9trackableENS_8internal12slot_do_bindENS_12bind_functorILin1ENS_18bound_mem_functor7IvN3nux9HSplitterEiiiimmiEEjNS_3nilESA_SA_SA_SA_SA_EEEEvRKT0_RKT1_@Base 4.0.0
 _ZN4sigc15visit_each_typeIPNS_9trackableENS_8internal12slot_do_bindENS_12bind_functorILin1ENS_18bound_mem_functor7IvN3nux9VSplitterEiiiimmiEEjNS_3nilESA_SA_SA_SA_SA_EEEEvRKT0_RKT1_@Base 4.0.0
 _ZN4sigc15visit_each_typeIPNS_9trackableENS_8internal12slot_do_bindENS_15adaptor_functorINS_18bound_mem_functor0IvN3nux11EditTextBoxEEEEEEEvRKT0_RKT1_@Base 4.0.0
 _ZN4sigc15visit_each_typeIPNS_9trackableENS_8internal12slot_do_bindENS_15adaptor_functorINS_18bound_mem_functor0IvN3nux13TestTextEntryEEEEEEEvRKT0_RKT1_@Base 4.0~bzr753
 _ZN4sigc15visit_each_typeIPNS_9trackableENS_8internal12slot_do_bindENS_15adaptor_functorINS_18bound_mem_functor0IvN3nux7MenuBarEEEEEEEvRKT0_RKT1_@Base 4.0~bzr753
 _ZN4sigc15visit_each_typeIPNS_9trackableENS_8internal12slot_do_bindENS_15adaptor_functorINS_18bound_mem_functor0IvN3nux8TestViewEEEEEEEvRKT0_RKT1_@Base 4.0~bzr753
 _ZN4sigc15visit_each_typeIPNS_9trackableENS_8internal12slot_do_bindENS_15adaptor_functorINS_18bound_mem_functor0IvN3nux9TextEntryEEEEEEEvRKT0_RKT1_@Base 4.0~bzr753
 _ZN4sigc15visit_each_typeIPNS_9trackableENS_8internal12slot_do_bindENS_15adaptor_functorINS_18bound_mem_functor1IvN3nux10HScrollBarEPvEEEEEEvRKT0_RKT1_@Base 4.0~bzr753
 _ZN4sigc15visit_each_typeIPNS_9trackableENS_8internal12slot_do_bindENS_15adaptor_functorINS_18bound_mem_functor1IvN3nux11EditTextBoxEPvEEEEEEvRKT0_RKT1_@Base 4.0.0
 _ZN4sigc15visit_each_typeIPNS_9trackableENS_8internal12slot_do_bindENS_15adaptor_functorINS_18bound_mem_functor1IvN3nux11RGBValuatorEPNS7_14AbstractButtonEEEEEEEvRKT0_RKT1_@Base 4.0~bzr753
 _ZN4sigc15visit_each_typeIPNS_9trackableENS_8internal12slot_do_bindENS_15adaptor_functorINS_18bound_mem_functor1IvN3nux12ColorPreviewEPvEEEEEEvRKT0_RKT1_@Base 4.0~bzr753
 _ZN4sigc15visit_each_typeIPNS_9trackableENS_8internal12slot_do_bindENS_15adaptor_functorINS_18bound_mem_functor1IvN3nux12LinearLayoutEPNS7_4AreaEEEEEEEvRKT0_RKT1_@Base 4.0~bzr753
 _ZN4sigc15visit_each_typeIPNS_9trackableENS_8internal12slot_do_bindENS_15adaptor_functorINS_18bound_mem_functor1IvN3nux12WindowThreadEPvEEEEEEvRKT0_RKT1_@Base 4.0~bzr753
 _ZN4sigc15visit_each_typeIPNS_9trackableENS_8internal12slot_do_bindENS_15adaptor_functorINS_18bound_mem_functor1IvN3nux12WindowThreadERNS7_12GestureEventEEEEEEEvRKT0_RKT1_@Base 4.0~bzr753
 _ZN4sigc15visit_each_typeIPNS_9trackableENS_8internal12slot_do_bindENS_15adaptor_functorINS_18bound_mem_functor1IvN3nux13LayeredLayoutEPNS7_4AreaEEEEEEEvRKT0_RKT1_@Base 4.0~bzr753
 _ZN4sigc15visit_each_typeIPNS_9trackableENS_8internal12slot_do_bindENS_15adaptor_functorINS_18bound_mem_functor1IvN3nux13TestTextEntryEPNS7_6ObjectEEEEEEEvRKT0_RKT1_@Base 4.0~bzr753
 _ZN4sigc15visit_each_typeIPNS_9trackableENS_8internal12slot_do_bindENS_15adaptor_functorINS_18bound_mem_functor1IvN3nux13TestTextEntryEPNS7_9TextEntryEEEEEEEvRKT0_RKT1_@Base 4.0~bzr753
 _ZN4sigc15visit_each_typeIPNS_9trackableENS_8internal12slot_do_bindENS_15adaptor_functorINS_18bound_mem_functor1IvN3nux15KineticScroller7PrivateEiEEEEEEvRKT0_RKT1_@Base 4.0~bzr753
 _ZN4sigc15visit_each_typeIPNS_9trackableENS_8internal12slot_do_bindENS_15adaptor_functorINS_18bound_mem_functor1IvN3nux16WindowCompositorEPNS7_6ObjectEEEEEEEvRKT0_RKT1_@Base 4.0.0
 _ZN4sigc15visit_each_typeIPNS_9trackableENS_8internal12slot_do_bindENS_15adaptor_functorINS_18bound_mem_functor1IvN3nux19AnimatedTextureAreaEPvEEEEEEvRKT0_RKT1_@Base 4.0~bzr753
 _ZN4sigc15visit_each_typeIPNS_9trackableENS_8internal12slot_do_bindENS_15adaptor_functorINS_18bound_mem_functor1IvN3nux4ViewEPNS7_4AreaEEEEEEEvRKT0_RKT1_@Base 4.0~bzr753
 _ZN4sigc15visit_each_typeIPNS_9trackableENS_8internal12slot_do_bindENS_15adaptor_functorINS_18bound_mem_functor1IvN3nux8TestViewEPNS7_6ObjectEEEEEEEvRKT0_RKT1_@Base 4.0~bzr753
 _ZN4sigc15visit_each_typeIPNS_9trackableENS_8internal12slot_do_bindENS_15adaptor_functorINS_18bound_mem_functor2IvN3nux10ScrollViewEfiEEEEEEvRKT0_RKT1_@Base 4.0~bzr753
 _ZN4sigc15visit_each_typeIPNS_9trackableENS_8internal12slot_do_bindENS_15adaptor_functorINS_18bound_mem_functor2IvN3nux13LayeredLayoutEPNS7_4AreaEbEEEEEEvRKT0_RKT1_@Base 4.0~bzr753
 _ZN4sigc15visit_each_typeIPNS_9trackableENS_8internal12slot_do_bindENS_15adaptor_functorINS_18bound_mem_functor2IvN3nux17RangeValueIntegerEPNS7_11EditTextBoxERKSsEEEEEEvRKT0_RKT1_@Base 4.0~bzr753
 _ZN4sigc15visit_each_typeIPNS_9trackableENS_8internal12slot_do_bindENS_15adaptor_functorINS_18bound_mem_functor2IvN3nux7MenuBarEPNS7_8MenuPageEPNS7_10ActionItemEEEEEEEvRKT0_RKT1_@Base 4.0~bzr753
 _ZN4sigc15visit_each_typeIPNS_9trackableENS_8internal12slot_do_bindENS_15adaptor_functorINS_18bound_mem_functor3IvN3nux13TestTextEntryEPNS7_4AreaEbNS7_15KeyNavDirectionEEEEEEEvRKT0_RKT1_@Base 4.0~bzr753
 _ZN4sigc15visit_each_typeIPNS_9trackableENS_8internal12slot_do_bindENS_15adaptor_functorINS_18bound_mem_functor3IvN3nux7MenuBarEPNS7_8MenuPageEiiEEEEEEvRKT0_RKT1_@Base 4.0~bzr753
 _ZN4sigc15visit_each_typeIPNS_9trackableENS_8internal12slot_do_bindENS_15adaptor_functorINS_18bound_mem_functor3IvN3nux8TestViewEPNS7_4AreaEbNS7_15KeyNavDirectionEEEEEEEvRKT0_RKT1_@Base 4.0~bzr753
 _ZN4sigc15visit_each_typeIPNS_9trackableENS_8internal12slot_do_bindENS_15adaptor_functorINS_18bound_mem_functor4IvN3nux10ClientAreaEiimmEEEEEEvRKT0_RKT1_@Base 4.0~bzr753
 _ZN4sigc15visit_each_typeIPNS_9trackableENS_8internal12slot_do_bindENS_15adaptor_functorINS_18bound_mem_functor4IvN3nux10HScrollBarEiimmEEEEEEvRKT0_RKT1_@Base 4.0.0
 _ZN4sigc15visit_each_typeIPNS_9trackableENS_8internal12slot_do_bindENS_15adaptor_functorINS_18bound_mem_functor4IvN3nux10ToolButtonEiimmEEEEEEvRKT0_RKT1_@Base 4.0~bzr753
 _ZN4sigc15visit_each_typeIPNS_9trackableENS_8internal12slot_do_bindENS_15adaptor_functorINS_18bound_mem_functor4IvN3nux11ColorEditorEiimmEEEEEEvRKT0_RKT1_@Base 4.0~bzr753
 _ZN4sigc15visit_each_typeIPNS_9trackableENS_8internal12slot_do_bindENS_15adaptor_functorINS_18bound_mem_functor4IvN3nux11EditTextBoxEiimmEEEEEEvRKT0_RKT1_@Base 4.0~bzr753
 _ZN4sigc15visit_each_typeIPNS_9trackableENS_8internal12slot_do_bindENS_15adaptor_functorINS_18bound_mem_functor4IvN3nux11RGBValuatorEiimmEEEEEEvRKT0_RKT1_@Base 4.0~bzr753
 _ZN4sigc15visit_each_typeIPNS_9trackableENS_8internal12slot_do_bindENS_15adaptor_functorINS_18bound_mem_functor4IvN3nux11TextureAreaEiillEEEEEEvRKT0_RKT1_@Base 4.0~bzr753
 _ZN4sigc15visit_each_typeIPNS_9trackableENS_8internal12slot_do_bindENS_15adaptor_functorINS_18bound_mem_functor4IvN3nux12FileSelectorEiimmEEEEEEvRKT0_RKT1_@Base 4.0~bzr753
 _ZN4sigc15visit_each_typeIPNS_9trackableENS_8internal12slot_do_bindENS_15adaptor_functorINS_18bound_mem_functor4IvN3nux13MouseAreaCtrlEiimmEEEEEEvRKT0_RKT1_@Base 4.0~bzr753
 _ZN4sigc15visit_each_typeIPNS_9trackableENS_8internal12slot_do_bindENS_15adaptor_functorINS_18bound_mem_functor4IvN3nux13TestTextEntryEiimmEEEEEEvRKT0_RKT1_@Base 4.0~bzr753
 _ZN4sigc15visit_each_typeIPNS_9trackableENS_8internal12slot_do_bindENS_15adaptor_functorINS_18bound_mem_functor4IvN3nux14AbstractButtonEiimmEEEEEEvRKT0_RKT1_@Base 4.0~bzr753
 _ZN4sigc15visit_each_typeIPNS_9trackableENS_8internal12slot_do_bindENS_15adaptor_functorINS_18bound_mem_functor4IvN3nux14FloatingWindowEiimmEEEEEEvRKT0_RKT1_@Base 4.0~bzr753
 _ZN4sigc15visit_each_typeIPNS_9trackableENS_8internal12slot_do_bindENS_15adaptor_functorINS_18bound_mem_functor4IvN3nux16AbstractComboBoxEiimmEEEEEEvRKT0_RKT1_@Base 4.0~bzr753
 _ZN4sigc15visit_each_typeIPNS_9trackableENS_8internal12slot_do_bindENS_15adaptor_functorINS_18bound_mem_functor4IvN3nux17RangeValueIntegerEiimmEEEEEEvRKT0_RKT1_@Base 4.0.0
 _ZN4sigc15visit_each_typeIPNS_9trackableENS_8internal12slot_do_bindENS_15adaptor_functorINS_18bound_mem_functor4IvN3nux7TabViewEiimmEEEEEEvRKT0_RKT1_@Base 4.0~bzr753
 _ZN4sigc15visit_each_typeIPNS_9trackableENS_8internal12slot_do_bindENS_15adaptor_functorINS_18bound_mem_functor4IvN3nux8MenuPageEiimmEEEEEEvRKT0_RKT1_@Base 4.0.0
 _ZN4sigc15visit_each_typeIPNS_9trackableENS_8internal12slot_do_bindENS_15adaptor_functorINS_18bound_mem_functor4IvN3nux8TestViewEiimmEEEEEEvRKT0_RKT1_@Base 4.0~bzr753
 _ZN4sigc15visit_each_typeIPNS_9trackableENS_8internal12slot_do_bindENS_15adaptor_functorINS_18bound_mem_functor4IvN3nux9TextEntryEiimmEEEEEEvRKT0_RKT1_@Base 4.0~bzr753
 _ZN4sigc15visit_each_typeIPNS_9trackableENS_8internal12slot_do_bindENS_15adaptor_functorINS_18bound_mem_functor5IvN3nux10ScrollViewEiiilmEEEEEEvRKT0_RKT1_@Base 4.0~bzr753
 _ZN4sigc15visit_each_typeIPNS_9trackableENS_8internal12slot_do_bindENS_15adaptor_functorINS_18bound_mem_functor5IvN3nux11EditTextBoxEmmmPKctEEEEEEvRKT0_RKT1_@Base 4.0~bzr753
 _ZN4sigc15visit_each_typeIPNS_9trackableENS_8internal12slot_do_bindENS_15adaptor_functorINS_18bound_mem_functor5IvN3nux9TextEntryEmmmPKctEEEEEEvRKT0_RKT1_@Base 4.0~bzr753
 _ZN4sigc15visit_each_typeIPNS_9trackableENS_8internal12slot_do_bindENS_15adaptor_functorINS_18bound_mem_functor6IvN3nux10ClientAreaEiiiimmEEEEEEvRKT0_RKT1_@Base 4.0~bzr753
 _ZN4sigc15visit_each_typeIPNS_9trackableENS_8internal12slot_do_bindENS_15adaptor_functorINS_18bound_mem_functor6IvN3nux10HScrollBarEiiiimmEEEEEEvRKT0_RKT1_@Base 4.0.0
 _ZN4sigc15visit_each_typeIPNS_9trackableENS_8internal12slot_do_bindENS_15adaptor_functorINS_18bound_mem_functor6IvN3nux11ColorEditorEiiiimmEEEEEEvRKT0_RKT1_@Base 4.0~bzr753
 _ZN4sigc15visit_each_typeIPNS_9trackableENS_8internal12slot_do_bindENS_15adaptor_functorINS_18bound_mem_functor6IvN3nux11EditTextBoxEiiiimmEEEEEEvRKT0_RKT1_@Base 4.0~bzr753
 _ZN4sigc15visit_each_typeIPNS_9trackableENS_8internal12slot_do_bindENS_15adaptor_functorINS_18bound_mem_functor6IvN3nux11RGBValuatorEiiiimmEEEEEEvRKT0_RKT1_@Base 4.0~bzr753
 _ZN4sigc15visit_each_typeIPNS_9trackableENS_8internal12slot_do_bindENS_15adaptor_functorINS_18bound_mem_functor6IvN3nux11TextureAreaEiiiimmEEEEEEvRKT0_RKT1_@Base 4.0~bzr753
 _ZN4sigc15visit_each_typeIPNS_9trackableENS_8internal12slot_do_bindENS_15adaptor_functorINS_18bound_mem_functor6IvN3nux13MouseAreaCtrlEiiiimmEEEEEEvRKT0_RKT1_@Base 4.0~bzr753
 _ZN4sigc15visit_each_typeIPNS_9trackableENS_8internal12slot_do_bindENS_15adaptor_functorINS_18bound_mem_functor6IvN3nux13TestTextEntryEiiiimmEEEEEEvRKT0_RKT1_@Base 4.0~bzr753
 _ZN4sigc15visit_each_typeIPNS_9trackableENS_8internal12slot_do_bindENS_15adaptor_functorINS_18bound_mem_functor6IvN3nux14AbstractButtonEiiiimmEEEEEEvRKT0_RKT1_@Base 4.0~bzr753
 _ZN4sigc15visit_each_typeIPNS_9trackableENS_8internal12slot_do_bindENS_15adaptor_functorINS_18bound_mem_functor6IvN3nux14FloatingWindowEiiiimmEEEEEEvRKT0_RKT1_@Base 4.0~bzr753
 _ZN4sigc15visit_each_typeIPNS_9trackableENS_8internal12slot_do_bindENS_15adaptor_functorINS_18bound_mem_functor6IvN3nux17RangeValueIntegerEiiiimmEEEEEEvRKT0_RKT1_@Base 4.0.0
 _ZN4sigc15visit_each_typeIPNS_9trackableENS_8internal12slot_do_bindENS_15adaptor_functorINS_18bound_mem_functor6IvN3nux8MenuPageEiiiimmEEEEEEvRKT0_RKT1_@Base 4.0.0
 _ZN4sigc15visit_each_typeIPNS_9trackableENS_8internal12slot_do_bindENS_15adaptor_functorINS_18bound_mem_functor6IvN3nux8TestViewEiiiimmEEEEEEvRKT0_RKT1_@Base 4.0~bzr753
 _ZN4sigc15visit_each_typeIPNS_9trackableENS_8internal12slot_do_bindENS_15adaptor_functorINS_18bound_mem_functor6IvN3nux9TextEntryEiiiimmEEEEEEvRKT0_RKT1_@Base 4.0~bzr753
 _ZN4sigc4slotIvPN3nux11EditTextBoxENS_3nilES4_S4_S4_S4_S4_ED1Ev@Base 4.0~bzr753
 _ZN4sigc4slotIvPN3nux11EditTextBoxENS_3nilES4_S4_S4_S4_S4_ED2Ev@Base 4.0~bzr753
 _ZN4sigc4slotIvPN3nux11EditTextBoxERKSsNS_3nilES6_S6_S6_S6_ED1Ev@Base 4.0~bzr753
 _ZN4sigc4slotIvPN3nux11EditTextBoxERKSsNS_3nilES6_S6_S6_S6_ED2Ev@Base 4.0~bzr753
 _ZN4sigc4slotIvPN3nux11RadioButtonENS_3nilES4_S4_S4_S4_S4_ED1Ev@Base 4.0~bzr753
 _ZN4sigc4slotIvPN3nux11RadioButtonENS_3nilES4_S4_S4_S4_S4_ED2Ev@Base 4.0~bzr753
 _ZN4sigc4slotIvPN3nux14CoverflowModelENS1_9ObjectPtrINS1_13CoverflowItemEEENS_3nilES7_S7_S7_S7_ED1Ev@Base 4.0~bzr753
 _ZN4sigc4slotIvPN3nux14CoverflowModelENS1_9ObjectPtrINS1_13CoverflowItemEEENS_3nilES7_S7_S7_S7_ED2Ev@Base 4.0~bzr753
 _ZN4sigc4slotIvPN3nux6ObjectENS_3nilES4_S4_S4_S4_S4_ED1Ev@Base 4.0~bzr753
 _ZN4sigc4slotIvPN3nux6ObjectENS_3nilES4_S4_S4_S4_S4_ED2Ev@Base 4.0~bzr753
 _ZN4sigc4slotIvPvNS_3nilES2_S2_S2_S2_S2_ED1Ev@Base 4.0~bzr753
 _ZN4sigc4slotIvPvNS_3nilES2_S2_S2_S2_S2_ED2Ev@Base 4.0~bzr753
 _ZN4sigc4slotIvfiNS_3nilES1_S1_S1_S1_ED1Ev@Base 4.0~bzr753
 _ZN4sigc4slotIvfiNS_3nilES1_S1_S1_S1_ED2Ev@Base 4.0~bzr753
 _ZN4sigc4slotIviiiimmNS_3nilEED1Ev@Base 4.0~bzr753
 _ZN4sigc4slotIviiiimmNS_3nilEED2Ev@Base 4.0~bzr753
 _ZN4sigc4slotIviiimmNS_3nilES1_ED1Ev@Base 4.0~bzr753
 _ZN4sigc4slotIviiimmNS_3nilES1_ED2Ev@Base 4.0~bzr753
 _ZN4sigc4slotIviimmNS_3nilES1_S1_ED1Ev@Base 4.0~bzr753
 _ZN4sigc4slotIviimmNS_3nilES1_S1_ED2Ev@Base 4.0~bzr753
 _ZN4sigc5slot1IvPN3nux6ObjectEEC1INS_18bound_mem_functor1IvNS1_13ObjectWeakPtrINS1_10BaseWindowEEES3_EEEERKT_@Base 4.0~bzr753
 _ZN4sigc5slot1IvPN3nux6ObjectEEC1INS_18bound_mem_functor1IvNS1_13ObjectWeakPtrINS1_9InputAreaEEES3_EEEERKT_@Base 4.0~bzr753
 _ZN4sigc5slot1IvPN3nux6ObjectEEC1INS_18bound_mem_functor1IvNS1_16WindowCompositorES3_EEEERKT_@Base 4.0~bzr753
 _ZN4sigc5slot1IvPN3nux6ObjectEEC2INS_18bound_mem_functor1IvNS1_13ObjectWeakPtrINS1_10BaseWindowEEES3_EEEERKT_@Base 4.0~bzr753
 _ZN4sigc5slot1IvPN3nux6ObjectEEC2INS_18bound_mem_functor1IvNS1_13ObjectWeakPtrINS1_9InputAreaEEES3_EEEERKT_@Base 4.0~bzr753
 _ZN4sigc5slot1IvPN3nux6ObjectEEC2INS_18bound_mem_functor1IvNS1_16WindowCompositorES3_EEEERKT_@Base 4.0~bzr753
 _ZN4sigc6signalIvNS_3nilES1_S1_S1_S1_S1_S1_ED1Ev@Base 4.0~bzr753
 _ZN4sigc6signalIvNS_3nilES1_S1_S1_S1_S1_S1_ED2Ev@Base 4.0~bzr753
 _ZN4sigc6signalIvPN3nux10BaseWindowENS_3nilES4_S4_S4_S4_S4_ED1Ev@Base 4.0~bzr753
 _ZN4sigc6signalIvPN3nux10BaseWindowENS_3nilES4_S4_S4_S4_S4_ED2Ev@Base 4.0~bzr753
 _ZN4sigc6signalIvPN3nux11EditTextBoxENS_3nilES4_S4_S4_S4_S4_ED1Ev@Base 4.0~bzr753
 _ZN4sigc6signalIvPN3nux11EditTextBoxENS_3nilES4_S4_S4_S4_S4_ED2Ev@Base 4.0~bzr753
 _ZN4sigc6signalIvPN3nux11RadioButtonENS_3nilES4_S4_S4_S4_S4_ED1Ev@Base 4.0~bzr753
 _ZN4sigc6signalIvPN3nux11RadioButtonENS_3nilES4_S4_S4_S4_S4_ED2Ev@Base 4.0~bzr753
 _ZN4sigc6signalIvPN3nux13SpinBoxDoubleENS_3nilES4_S4_S4_S4_S4_ED1Ev@Base 4.0~bzr753
 _ZN4sigc6signalIvPN3nux13SpinBoxDoubleENS_3nilES4_S4_S4_S4_S4_ED2Ev@Base 4.0~bzr753
 _ZN4sigc6signalIvPN3nux14CoverflowModelENS1_9ObjectPtrINS1_13CoverflowItemEEENS_3nilES7_S7_S7_S7_ED1Ev@Base 4.0~bzr753
 _ZN4sigc6signalIvPN3nux14CoverflowModelENS1_9ObjectPtrINS1_13CoverflowItemEEENS_3nilES7_S7_S7_S7_ED2Ev@Base 4.0~bzr753
 _ZN4sigc6signalIvPN3nux4AreaENS_3nilES4_S4_S4_S4_S4_ED1Ev@Base 4.0~bzr753
 _ZN4sigc6signalIvPN3nux4AreaENS_3nilES4_S4_S4_S4_S4_ED2Ev@Base 4.0~bzr753
 _ZN4sigc6signalIvPN3nux4AreaEbNS_3nilES4_S4_S4_S4_ED1Ev@Base 4.0~bzr753
 _ZN4sigc6signalIvPN3nux4AreaEbNS_3nilES4_S4_S4_S4_ED2Ev@Base 4.0~bzr753
 _ZN4sigc6signalIvPN3nux4AreaEiiNS_3nilES4_S4_S4_ED1Ev@Base 4.0~bzr753
 _ZN4sigc6signalIvPN3nux4AreaEiiNS_3nilES4_S4_S4_ED2Ev@Base 4.0~bzr753
 _ZN4sigc6signalIvPN3nux4ViewEPNS1_6LayoutENS_3nilES6_S6_S6_S6_ED1Ev@Base 4.0~bzr753
 _ZN4sigc6signalIvPN3nux4ViewEPNS1_6LayoutENS_3nilES6_S6_S6_S6_ED2Ev@Base 4.0~bzr753
 _ZN4sigc6signalIvPN3nux6ButtonENS_3nilES4_S4_S4_S4_S4_ED1Ev@Base 4.0~bzr753
 _ZN4sigc6signalIvPN3nux6ButtonENS_3nilES4_S4_S4_S4_S4_ED2Ev@Base 4.0~bzr753
 _ZN4sigc6signalIvPN3nux6LayoutEPNS1_4AreaENS_3nilES6_S6_S6_S6_ED1Ev@Base 4.0~bzr753
 _ZN4sigc6signalIvPN3nux6LayoutEPNS1_4AreaENS_3nilES6_S6_S6_S6_ED2Ev@Base 4.0~bzr753
 _ZN4sigc6signalIvPN3nux7SpinBoxENS_3nilES4_S4_S4_S4_S4_ED1Ev@Base 4.0~bzr753
 _ZN4sigc6signalIvPN3nux7SpinBoxENS_3nilES4_S4_S4_S4_S4_ED2Ev@Base 4.0~bzr753
 _ZN4sigc6signalIvPN3nux8MenuPageENS_3nilES4_S4_S4_S4_S4_ED1Ev@Base 4.0~bzr753
 _ZN4sigc6signalIvPN3nux8MenuPageENS_3nilES4_S4_S4_S4_S4_ED2Ev@Base 4.0~bzr753
 _ZN4sigc6signalIvPN3nux9InputAreaENS_3nilES4_S4_S4_S4_S4_ED1Ev@Base 4.0~bzr753
 _ZN4sigc6signalIvPN3nux9InputAreaENS_3nilES4_S4_S4_S4_S4_ED2Ev@Base 4.0~bzr753
 _ZN4sigc6signalIvRKN3nux7Point2DIiEENS_3nilES6_S6_S6_S6_S6_ED1Ev@Base 4.0~bzr753
 _ZN4sigc6signalIvRKN3nux7Point2DIiEENS_3nilES6_S6_S6_S6_S6_ED2Ev@Base 4.0~bzr753
 _ZN4sigc6signalIvfNS_3nilES1_S1_S1_S1_S1_ED1Ev@Base 4.0~bzr753
 _ZN4sigc6signalIvfNS_3nilES1_S1_S1_S1_S1_ED2Ev@Base 4.0~bzr753
 _ZN4sigc6signalIvffffNS_3nilES1_S1_ED1Ev@Base 4.0~bzr753
 _ZN4sigc6signalIvffffNS_3nilES1_S1_ED2Ev@Base 4.0~bzr753
 _ZN4sigc6signalIvfiNS_3nilES1_S1_S1_S1_ED1Ev@Base 4.0~bzr753
 _ZN4sigc6signalIvfiNS_3nilES1_S1_S1_S1_ED2Ev@Base 4.0~bzr753
 _ZN4sigc6signalIviNS_3nilES1_S1_S1_S1_S1_ED1Ev@Base 4.0~bzr753
 _ZN4sigc6signalIviNS_3nilES1_S1_S1_S1_S1_ED2Ev@Base 4.0~bzr753
 _ZN4sigc6signalIviiNS_3nilES1_S1_S1_S1_ED1Ev@Base 4.0~bzr753
 _ZN4sigc6signalIviiNS_3nilES1_S1_S1_S1_ED2Ev@Base 4.0~bzr753
 _ZN4sigc6signalIviiiimmNS_3nilEED1Ev@Base 4.0~bzr753
 _ZN4sigc6signalIviiiimmNS_3nilEED2Ev@Base 4.0~bzr753
 _ZN4sigc6signalIviilNS_3nilES1_S1_S1_ED1Ev@Base 4.0~bzr753
 _ZN4sigc6signalIviilNS_3nilES1_S1_S1_ED2Ev@Base 4.0~bzr753
 _ZN4sigc6signalIviimmNS_3nilES1_S1_ED1Ev@Base 4.0~bzr753
 _ZN4sigc6signalIviimmNS_3nilES1_S1_ED2Ev@Base 4.0~bzr753
 _ZN4sigc8internal10slot_call0INS_18bound_mem_functor0IvN3nux11EditTextBoxEEEvE7call_itEPNS0_8slot_repE@Base 4.0~bzr753
 _ZN4sigc8internal10slot_call0INS_18bound_mem_functor0IvN3nux13TestTextEntryEEEvE7call_itEPNS0_8slot_repE@Base 4.0~bzr753
 _ZN4sigc8internal10slot_call0INS_18bound_mem_functor0IvN3nux20GesturesSubscriptionEEEvE7call_itEPNS0_8slot_repE@Base 4.0~bzr753
 _ZN4sigc8internal10slot_call0INS_18bound_mem_functor0IvN3nux7MenuBarEEEvE7call_itEPNS0_8slot_repE@Base 4.0~bzr753
 _ZN4sigc8internal10slot_call0INS_18bound_mem_functor0IvN3nux8TestViewEEEvE7call_itEPNS0_8slot_repE@Base 4.0~bzr753
 _ZN4sigc8internal10slot_call0INS_18bound_mem_functor0IvN3nux9TextEntryEEEvE7call_itEPNS0_8slot_repE@Base 4.0~bzr753
 _ZN4sigc8internal10slot_call1INS_12bind_functorILin1ENS2_ILin1ENS_18bound_mem_functor3IvN3nux11ColorEditorEPNS4_14AbstractButtonENS4_5color5ModelENS8_7ChannelEEESA_NS_3nilESC_SC_SC_SC_SC_EES9_SC_SC_SC_SC_SC_SC_EEvPNS4_11RadioButtonEE7call_itEPNS0_8slot_repERKSG_@Base 4.0~bzr753
 _ZN4sigc8internal10slot_call1INS_18bound_mem_functor1Iv15ProgramTemplatePvEEvS4_E7call_itEPNS0_8slot_repERKS4_@Base 4.0~bzr753
 _ZN4sigc8internal10slot_call1INS_18bound_mem_functor1IvN3nux10GestureSetERKNS3_7GestureEEEvRS5_E7call_itEPNS0_8slot_repES9_@Base 4.0~bzr753
 _ZN4sigc8internal10slot_call1INS_18bound_mem_functor1IvN3nux10HScrollBarEPvEEvS5_E7call_itEPNS0_8slot_repERKS5_@Base 4.0~bzr753
 _ZN4sigc8internal10slot_call1INS_18bound_mem_functor1IvN3nux10VScrollBarEPvEEvS5_E7call_itEPNS0_8slot_repERKS5_@Base 4.0~bzr753
 _ZN4sigc8internal10slot_call1INS_18bound_mem_functor1IvN3nux11EditTextBoxEPvEEvS5_E7call_itEPNS0_8slot_repERKS5_@Base 4.0~bzr753
 _ZN4sigc8internal10slot_call1INS_18bound_mem_functor1IvN3nux11RGBValuatorEPNS3_14AbstractButtonEEEvPNS3_6ButtonEE7call_itEPNS0_8slot_repERKS9_@Base 4.0~bzr753
 _ZN4sigc8internal10slot_call1INS_18bound_mem_functor1IvN3nux12ColorPreviewEPvEEvS5_E7call_itEPNS0_8slot_repERKS5_@Base 4.0~bzr753
 _ZN4sigc8internal10slot_call1INS_18bound_mem_functor1IvN3nux12LinearLayoutEPNS3_4AreaEEEvPNS3_4ViewEE7call_itEPNS0_8slot_repERKS9_@Base 4.0~bzr753
 _ZN4sigc8internal10slot_call1INS_18bound_mem_functor1IvN3nux12LinearLayoutEPNS3_4AreaEEEvPNS3_6LayoutEE7call_itEPNS0_8slot_repERKS9_@Base 4.0~bzr753
 _ZN4sigc8internal10slot_call1INS_18bound_mem_functor1IvN3nux12LinearLayoutEPNS3_4AreaEEEvS6_E7call_itEPNS0_8slot_repERKS6_@Base 4.0~bzr753
 _ZN4sigc8internal10slot_call1INS_18bound_mem_functor1IvN3nux12WindowThreadEPvEEvS5_E7call_itEPNS0_8slot_repERKS5_@Base 4.0~bzr753
 _ZN4sigc8internal10slot_call1INS_18bound_mem_functor1IvN3nux12WindowThreadERNS3_12GestureEventEEEvS6_E7call_itEPNS0_8slot_repES6_@Base 4.0~bzr753
 _ZN4sigc8internal10slot_call1INS_18bound_mem_functor1IvN3nux13LayeredLayoutEPNS3_4AreaEEEvS6_E7call_itEPNS0_8slot_repERKS6_@Base 4.0~bzr753
 _ZN4sigc8internal10slot_call1INS_18bound_mem_functor1IvN3nux13ObjectWeakPtrINS3_10BaseWindowEEEPNS3_6ObjectEEEvS8_E7call_itEPNS0_8slot_repERKS8_@Base 4.0~bzr753
 _ZN4sigc8internal10slot_call1INS_18bound_mem_functor1IvN3nux13ObjectWeakPtrINS3_11RadioButtonEEEPNS3_6ObjectEEEvS8_E7call_itEPNS0_8slot_repERKS8_@Base 4.0~bzr753
 _ZN4sigc8internal10slot_call1INS_18bound_mem_functor1IvN3nux13ObjectWeakPtrINS3_16RadioButtonGroupEEEPNS3_6ObjectEEEvS8_E7call_itEPNS0_8slot_repERKS8_@Base 4.0~bzr753
 _ZN4sigc8internal10slot_call1INS_18bound_mem_functor1IvN3nux13ObjectWeakPtrINS3_9InputAreaEEEPNS3_6ObjectEEEvS8_E7call_itEPNS0_8slot_repERKS8_@Base 4.0~bzr753
 _ZN4sigc8internal10slot_call1INS_18bound_mem_functor1IvN3nux13SpinBox_LogicEPNS3_11EditTextBoxEEEvS6_E7call_itEPNS0_8slot_repERKS6_@Base 4.0~bzr753
 _ZN4sigc8internal10slot_call1INS_18bound_mem_functor1IvN3nux13SpinBox_LogicEPvEEvS5_E7call_itEPNS0_8slot_repERKS5_@Base 4.0~bzr753
 _ZN4sigc8internal10slot_call1INS_18bound_mem_functor1IvN3nux13TestTextEntryEPNS3_6ObjectEEEvS6_E7call_itEPNS0_8slot_repERKS6_@Base 4.0~bzr753
 _ZN4sigc8internal10slot_call1INS_18bound_mem_functor1IvN3nux13TestTextEntryEPNS3_9TextEntryEEEvS6_E7call_itEPNS0_8slot_repERKS6_@Base 4.0~bzr753
 _ZN4sigc8internal10slot_call1INS_18bound_mem_functor1IvN3nux15KineticScroller7PrivateEiEEviE7call_itEPNS0_8slot_repERKi@Base 4.0~bzr753
 _ZN4sigc8internal10slot_call1INS_18bound_mem_functor1IvN3nux16ColorDialogProxyEPNS3_11ColorEditorEEEvS6_E7call_itEPNS0_8slot_repERKS6_@Base 4.0~bzr753
 _ZN4sigc8internal10slot_call1INS_18bound_mem_functor1IvN3nux16WindowCompositorEPNS3_6ObjectEEEvS6_E7call_itEPNS0_8slot_repERKS6_@Base 4.0~bzr753
 _ZN4sigc8internal10slot_call1INS_18bound_mem_functor1IvN3nux17kinetic_scrolling15TimerTickSourceEPvEEvS6_E7call_itEPNS0_8slot_repERKS6_@Base 4.0~bzr753
 _ZN4sigc8internal10slot_call1INS_18bound_mem_functor1IvN3nux19AnimatedTextureAreaEPvEEvS5_E7call_itEPNS0_8slot_repERKS5_@Base 4.0~bzr753
 _ZN4sigc8internal10slot_call1INS_18bound_mem_functor1IvN3nux4ViewEPNS3_4AreaEEEvPNS3_6LayoutEE7call_itEPNS0_8slot_repERKS9_@Base 4.0~bzr753
 _ZN4sigc8internal10slot_call1INS_18bound_mem_functor1IvN3nux4ViewEPNS3_4AreaEEEvS6_E7call_itEPNS0_8slot_repERKS6_@Base 4.0~bzr753
 _ZN4sigc8internal10slot_call1INS_18bound_mem_functor1IvN3nux6LayoutEPNS3_4AreaEEEvPNS3_4ViewEE7call_itEPNS0_8slot_repERKS9_@Base 4.0~bzr753
 _ZN4sigc8internal10slot_call1INS_18bound_mem_functor1IvN3nux6LayoutEPNS3_4AreaEEEvPS4_E7call_itEPNS0_8slot_repERKS8_@Base 4.0~bzr753
 _ZN4sigc8internal10slot_call1INS_18bound_mem_functor1IvN3nux6LayoutEPNS3_4AreaEEEvS6_E7call_itEPNS0_8slot_repERKS6_@Base 4.0~bzr753
 _ZN4sigc8internal10slot_call1INS_18bound_mem_functor1IvN3nux7GestureERKNS3_13GestureTargetEEEvS7_E7call_itEPNS0_8slot_repES7_@Base 4.0~bzr753
 _ZN4sigc8internal10slot_call1INS_18bound_mem_functor1IvN3nux7TabViewEPvEEvS5_E7call_itEPNS0_8slot_repERKS5_@Base 4.0~bzr753
 _ZN4sigc8internal10slot_call1INS_18bound_mem_functor1IvN3nux8TestViewEPNS3_6ObjectEEEvS6_E7call_itEPNS0_8slot_repERKS6_@Base 4.0~bzr753
 _ZN4sigc8internal10slot_call2INS_12bind_functorILin1ENS_18bound_mem_functor3IvN3nux11RGBValuatorEPNS4_11EditTextBoxERKSsiEEiNS_3nilESB_SB_SB_SB_SB_EEvS7_S9_E7call_itEPNS0_8slot_repERKS7_S9_@Base 4.0~bzr753
 _ZN4sigc8internal10slot_call2INS_18bound_mem_functor2IvN3nux10RangeValueEPNS3_11EditTextBoxERKSsEEvS6_S8_E7call_itEPNS0_8slot_repERKS6_S8_@Base 4.0~bzr753
 _ZN4sigc8internal10slot_call2INS_18bound_mem_functor2IvN3nux10ScrollViewEfiEEvfiE7call_itEPNS0_8slot_repERKfRKi@Base 4.0~bzr753
 _ZN4sigc8internal10slot_call2INS_18bound_mem_functor2IvN3nux13LayeredLayoutEPNS3_4AreaEbEEvS6_bE7call_itEPNS0_8slot_repERKS6_RKb@Base 4.0~bzr753
 _ZN4sigc8internal10slot_call2INS_18bound_mem_functor2IvN3nux17KineticScrollViewEiiEEviiE7call_itEPNS0_8slot_repERKiSA_@Base 4.0~bzr753
 _ZN4sigc8internal10slot_call2INS_18bound_mem_functor2IvN3nux17RangeValueIntegerEPNS3_11EditTextBoxERKSsEEvS6_S8_E7call_itEPNS0_8slot_repERKS6_S8_@Base 4.0~bzr753
 _ZN4sigc8internal10slot_call2INS_18bound_mem_functor2IvN3nux7MenuBarEPNS3_8MenuPageEPNS3_10ActionItemEEEvS6_S8_E7call_itEPNS0_8slot_repERKS6_RKS8_@Base 4.0~bzr753
 _ZN4sigc8internal10slot_call2INS_18bound_mem_functor2IvN3nux9Coverflow4ImplEPNS3_14CoverflowModelENS3_9ObjectPtrINS3_13CoverflowItemEEEEEvS7_SA_E7call_itEPNS0_8slot_repERKS7_RKSA_@Base 4.0~bzr753
 _ZN4sigc8internal10slot_call2INS_18bound_mem_functor2IvN3nux9Coverflow4ImplEPNS3_4AreaENS3_4RectEEEvS7_RS8_E7call_itEPNS0_8slot_repERKS7_SA_@Base 4.0~bzr753
 _ZN4sigc8internal10slot_call3INS_18bound_mem_functor3IvN3nux13TestTextEntryEPNS3_4AreaEbNS3_15KeyNavDirectionEEEvS6_bS7_E7call_itEPNS0_8slot_repERKS6_RKbRKS7_@Base 4.0~bzr753
 _ZN4sigc8internal10slot_call3INS_18bound_mem_functor3IvN3nux7MenuBarEPNS3_8MenuPageEiiEEvS6_iiE7call_itEPNS0_8slot_repERKS6_RKiSE_@Base 4.0~bzr753
 _ZN4sigc8internal10slot_call3INS_18bound_mem_functor3IvN3nux8TestViewEPNS3_4AreaEbNS3_15KeyNavDirectionEEEvS6_bS7_E7call_itEPNS0_8slot_repERKS6_RKbRKS7_@Base 4.0~bzr753
 _ZN4sigc8internal10slot_call3INS_18bound_mem_functor3IvN3nux9Coverflow4ImplEjmmEEvjmmE7call_itEPNS0_8slot_repERKjRKmSD_@Base 4.0~bzr753
 _ZN4sigc8internal10slot_call4INS_12bind_functorILin1ENS_18bound_mem_functor5IvN3nux7MenuBarEiimmPNS4_11MenuBarItemEEES7_NS_3nilES9_S9_S9_S9_S9_EEviimmE7call_itEPNS0_8slot_repERKiSF_RKmSH_@Base 4.0~bzr753
 _ZN4sigc8internal10slot_call4INS_12bind_functorILin1ENS_18bound_mem_functor5IvN3nux7TabViewEiimmPNS5_10TabElementEEES7_NS_3nilES9_S9_S9_S9_S9_EEviimmE7call_itEPNS0_8slot_repERKiSF_RKmSH_@Base 4.0~bzr753
 _ZN4sigc8internal10slot_call4INS_12bind_functorILin1ENS_18bound_mem_functor5IvN3nux9HSplitterEiimmiEEjNS_3nilES7_S7_S7_S7_S7_EEviimmE7call_itEPNS0_8slot_repERKiSD_RKmSF_@Base 4.0~bzr753
 _ZN4sigc8internal10slot_call4INS_12bind_functorILin1ENS_18bound_mem_functor5IvN3nux9VSplitterEiimmiEEjNS_3nilES7_S7_S7_S7_S7_EEviimmE7call_itEPNS0_8slot_repERKiSD_RKmSF_@Base 4.0~bzr753
 _ZN4sigc8internal10slot_call4INS_18bound_mem_functor4Iv15ProgramTemplateiiiiEEviiiiE7call_itEPNS0_8slot_repERKiS9_S9_S9_@Base 4.0~bzr753
 _ZN4sigc8internal10slot_call4INS_18bound_mem_functor4IvN3nux10ClientAreaEiimmEEviimmE7call_itEPNS0_8slot_repERKiSA_RKmSC_@Base 4.0~bzr753
 _ZN4sigc8internal10slot_call4INS_18bound_mem_functor4IvN3nux10HScrollBarEiimmEEviimmE7call_itEPNS0_8slot_repERKiSA_RKmSC_@Base 4.0~bzr753
 _ZN4sigc8internal10slot_call4INS_18bound_mem_functor4IvN3nux10RangeValueEiimmEEviimmE7call_itEPNS0_8slot_repERKiSA_RKmSC_@Base 4.0~bzr753
 _ZN4sigc8internal10slot_call4INS_18bound_mem_functor4IvN3nux10ToolButtonEiimmEEviimmE7call_itEPNS0_8slot_repERKiSA_RKmSC_@Base 4.0~bzr753
 _ZN4sigc8internal10slot_call4INS_18bound_mem_functor4IvN3nux10VScrollBarEiimmEEviimmE7call_itEPNS0_8slot_repERKiSA_RKmSC_@Base 4.0~bzr753
 _ZN4sigc8internal10slot_call4INS_18bound_mem_functor4IvN3nux11ColorEditorEiimmEEviimmE7call_itEPNS0_8slot_repERKiSA_RKmSC_@Base 4.0~bzr753
 _ZN4sigc8internal10slot_call4INS_18bound_mem_functor4IvN3nux11EditTextBoxEiimmEEviimmE7call_itEPNS0_8slot_repERKiSA_RKmSC_@Base 4.0~bzr753
 _ZN4sigc8internal10slot_call4INS_18bound_mem_functor4IvN3nux11RGBValuatorEiimmEEviimmE7call_itEPNS0_8slot_repERKiSA_RKmSC_@Base 4.0~bzr753
 _ZN4sigc8internal10slot_call4INS_18bound_mem_functor4IvN3nux11TextureAreaEiillEEviimmE7call_itEPNS0_8slot_repERKiSA_RKmSC_@Base 4.0~bzr753
 _ZN4sigc8internal10slot_call4INS_18bound_mem_functor4IvN3nux12ColorPreviewEiimmEEviimmE7call_itEPNS0_8slot_repERKiSA_RKmSC_@Base 4.0~bzr753
 _ZN4sigc8internal10slot_call4INS_18bound_mem_functor4IvN3nux12FileSelectorEiimmEEviimmE7call_itEPNS0_8slot_repERKiSA_RKmSC_@Base 4.0~bzr753
 _ZN4sigc8internal10slot_call4INS_18bound_mem_functor4IvN3nux13MouseAreaCtrlEiimmEEviimmE7call_itEPNS0_8slot_repERKiSA_RKmSC_@Base 4.0~bzr753
 _ZN4sigc8internal10slot_call4INS_18bound_mem_functor4IvN3nux13SpinBox_LogicEiimmEEviimmE7call_itEPNS0_8slot_repERKiSA_RKmSC_@Base 4.0~bzr753
 _ZN4sigc8internal10slot_call4INS_18bound_mem_functor4IvN3nux13TestTextEntryEiimmEEviimmE7call_itEPNS0_8slot_repERKiSA_RKmSC_@Base 4.0~bzr753
 _ZN4sigc8internal10slot_call4INS_18bound_mem_functor4IvN3nux14AbstractButtonEiimmEEviimmE7call_itEPNS0_8slot_repERKiSA_RKmSC_@Base 4.0~bzr753
 _ZN4sigc8internal10slot_call4INS_18bound_mem_functor4IvN3nux14FloatingWindowEiimmEEviimmE7call_itEPNS0_8slot_repERKiSA_RKmSC_@Base 4.0~bzr753
 _ZN4sigc8internal10slot_call4INS_18bound_mem_functor4IvN3nux16AbstractComboBoxEiimmEEviimmE7call_itEPNS0_8slot_repERKiSA_RKmSC_@Base 4.0~bzr753
 _ZN4sigc8internal10slot_call4INS_18bound_mem_functor4IvN3nux17KineticScrollViewEiimmEEviimmE7call_itEPNS0_8slot_repERKiSA_RKmSC_@Base 4.0~bzr753
 _ZN4sigc8internal10slot_call4INS_18bound_mem_functor4IvN3nux17RangeValueIntegerEiimmEEviimmE7call_itEPNS0_8slot_repERKiSA_RKmSC_@Base 4.0~bzr753
 _ZN4sigc8internal10slot_call4INS_18bound_mem_functor4IvN3nux19AnimatedTextureAreaEiillEEviimmE7call_itEPNS0_8slot_repERKiSA_RKmSC_@Base 4.0~bzr753
 _ZN4sigc8internal10slot_call4INS_18bound_mem_functor4IvN3nux7TabViewEiimmEEviimmE7call_itEPNS0_8slot_repERKiSA_RKmSC_@Base 4.0~bzr753
 _ZN4sigc8internal10slot_call4INS_18bound_mem_functor4IvN3nux8MenuPageEiimmEEviimmE7call_itEPNS0_8slot_repERKiSA_RKmSC_@Base 4.0~bzr753
 _ZN4sigc8internal10slot_call4INS_18bound_mem_functor4IvN3nux8TestViewEiimmEEviimmE7call_itEPNS0_8slot_repERKiSA_RKmSC_@Base 4.0~bzr753
 _ZN4sigc8internal10slot_call4INS_18bound_mem_functor4IvN3nux9Coverflow4ImplEiimmEEviimmE7call_itEPNS0_8slot_repERKiSB_RKmSD_@Base 4.0~bzr753
 _ZN4sigc8internal10slot_call4INS_18bound_mem_functor4IvN3nux9TextEntryEiimmEEviimmE7call_itEPNS0_8slot_repERKiSA_RKmSC_@Base 4.0~bzr753
 _ZN4sigc8internal10slot_call5INS_18bound_mem_functor5IvN3nux10ClientAreaEmmmPKctEEvmmmS6_tE7call_itEPNS0_8slot_repERKmSC_SC_RKS6_RKt@Base 4.0~bzr753
 _ZN4sigc8internal10slot_call5INS_18bound_mem_functor5IvN3nux10ScrollViewEiiilmEEviiimmE7call_itEPNS0_8slot_repERKiSA_SA_RKmSC_@Base 4.0~bzr753
 _ZN4sigc8internal10slot_call5INS_18bound_mem_functor5IvN3nux11EditTextBoxEmmmPKctEEvmmmS6_tE7call_itEPNS0_8slot_repERKmSC_SC_RKS6_RKt@Base 4.0~bzr753
 _ZN4sigc8internal10slot_call5INS_18bound_mem_functor5IvN3nux9Coverflow4ImplEiiimmEEviiimmE7call_itEPNS0_8slot_repERKiSB_SB_RKmSD_@Base 4.0~bzr753
 _ZN4sigc8internal10slot_call5INS_18bound_mem_functor5IvN3nux9Coverflow4ImplEmmmPKctEEvmmmS7_tE7call_itEPNS0_8slot_repERKmSD_SD_RKS7_RKt@Base 4.0~bzr753
 _ZN4sigc8internal10slot_call5INS_18bound_mem_functor5IvN3nux9TextEntryEmmmPKctEEvmmmS6_tE7call_itEPNS0_8slot_repERKmSC_SC_RKS6_RKt@Base 4.0~bzr753
 _ZN4sigc8internal10slot_call6INS_12bind_functorILin1ENS_18bound_mem_functor7IvN3nux7MenuBarEiiiimmPNS4_11MenuBarItemEEES7_NS_3nilES9_S9_S9_S9_S9_EEviiiimmE7call_itEPNS0_8slot_repERKiSF_SF_SF_RKmSH_@Base 4.0~bzr753
 _ZN4sigc8internal10slot_call6INS_12bind_functorILin1ENS_18bound_mem_functor7IvN3nux9HSplitterEiiiimmiEEjNS_3nilES7_S7_S7_S7_S7_EEviiiimmE7call_itEPNS0_8slot_repERKiSD_SD_SD_RKmSF_@Base 4.0~bzr753
 _ZN4sigc8internal10slot_call6INS_12bind_functorILin1ENS_18bound_mem_functor7IvN3nux9VSplitterEiiiimmiEEjNS_3nilES7_S7_S7_S7_S7_EEviiiimmE7call_itEPNS0_8slot_repERKiSD_SD_SD_RKmSF_@Base 4.0~bzr753
 _ZN4sigc8internal10slot_call6INS_18bound_mem_functor6IvN3nux10ClientAreaEiiiimmEEviiiimmE7call_itEPNS0_8slot_repERKiSA_SA_SA_RKmSC_@Base 4.0~bzr753
 _ZN4sigc8internal10slot_call6INS_18bound_mem_functor6IvN3nux10HScrollBarEiiiimmEEviiiimmE7call_itEPNS0_8slot_repERKiSA_SA_SA_RKmSC_@Base 4.0~bzr753
 _ZN4sigc8internal10slot_call6INS_18bound_mem_functor6IvN3nux10RangeValueEiiiimmEEviiiimmE7call_itEPNS0_8slot_repERKiSA_SA_SA_RKmSC_@Base 4.0~bzr753
 _ZN4sigc8internal10slot_call6INS_18bound_mem_functor6IvN3nux10VScrollBarEiiiimmEEviiiimmE7call_itEPNS0_8slot_repERKiSA_SA_SA_RKmSC_@Base 4.0~bzr753
 _ZN4sigc8internal10slot_call6INS_18bound_mem_functor6IvN3nux11ColorEditorEiiiimmEEviiiimmE7call_itEPNS0_8slot_repERKiSA_SA_SA_RKmSC_@Base 4.0~bzr753
 _ZN4sigc8internal10slot_call6INS_18bound_mem_functor6IvN3nux11EditTextBoxEiiiimmEEviiiimmE7call_itEPNS0_8slot_repERKiSA_SA_SA_RKmSC_@Base 4.0~bzr753
 _ZN4sigc8internal10slot_call6INS_18bound_mem_functor6IvN3nux11RGBValuatorEiiiimmEEviiiimmE7call_itEPNS0_8slot_repERKiSA_SA_SA_RKmSC_@Base 4.0~bzr753
 _ZN4sigc8internal10slot_call6INS_18bound_mem_functor6IvN3nux11TextureAreaEiiiimmEEviiiimmE7call_itEPNS0_8slot_repERKiSA_SA_SA_RKmSC_@Base 4.0~bzr753
 _ZN4sigc8internal10slot_call6INS_18bound_mem_functor6IvN3nux13MouseAreaCtrlEiiiimmEEviiiimmE7call_itEPNS0_8slot_repERKiSA_SA_SA_RKmSC_@Base 4.0~bzr753
 _ZN4sigc8internal10slot_call6INS_18bound_mem_functor6IvN3nux13TestTextEntryEiiiimmEEviiiimmE7call_itEPNS0_8slot_repERKiSA_SA_SA_RKmSC_@Base 4.0~bzr753
 _ZN4sigc8internal10slot_call6INS_18bound_mem_functor6IvN3nux14AbstractButtonEiiiimmEEviiiimmE7call_itEPNS0_8slot_repERKiSA_SA_SA_RKmSC_@Base 4.0~bzr753
 _ZN4sigc8internal10slot_call6INS_18bound_mem_functor6IvN3nux14FloatingWindowEiiiimmEEviiiimmE7call_itEPNS0_8slot_repERKiSA_SA_SA_RKmSC_@Base 4.0~bzr753
 _ZN4sigc8internal10slot_call6INS_18bound_mem_functor6IvN3nux17KineticScrollViewEiiiimmEEviiiimmE7call_itEPNS0_8slot_repERKiSA_SA_SA_RKmSC_@Base 4.0~bzr753
 _ZN4sigc8internal10slot_call6INS_18bound_mem_functor6IvN3nux17RangeValueIntegerEiiiimmEEviiiimmE7call_itEPNS0_8slot_repERKiSA_SA_SA_RKmSC_@Base 4.0~bzr753
 _ZN4sigc8internal10slot_call6INS_18bound_mem_functor6IvN3nux19AnimatedTextureAreaEiiiimmEEviiiimmE7call_itEPNS0_8slot_repERKiSA_SA_SA_RKmSC_@Base 4.0~bzr753
 _ZN4sigc8internal10slot_call6INS_18bound_mem_functor6IvN3nux8MenuPageEiiiimmEEviiiimmE7call_itEPNS0_8slot_repERKiSA_SA_SA_RKmSC_@Base 4.0~bzr753
 _ZN4sigc8internal10slot_call6INS_18bound_mem_functor6IvN3nux8TestViewEiiiimmEEviiiimmE7call_itEPNS0_8slot_repERKiSA_SA_SA_RKmSC_@Base 4.0~bzr753
 _ZN4sigc8internal10slot_call6INS_18bound_mem_functor6IvN3nux9Coverflow4ImplEiiiimmEEviiiimmE7call_itEPNS0_8slot_repERKiSB_SB_SB_RKmSD_@Base 4.0~bzr753
 _ZN4sigc8internal10slot_call6INS_18bound_mem_functor6IvN3nux9TextEntryEiiiimmEEviiiimmE7call_itEPNS0_8slot_repERKiSA_SA_SA_RKmSC_@Base 4.0~bzr753
 _ZN4sigc8internal11signal_execD1Ev@Base 4.0~bzr753
 _ZN4sigc8internal11signal_execD2Ev@Base 4.0~bzr753
 _ZN4sigc8internal11signal_impl16unreference_execEv@Base 4.0~bzr753
 _ZN4sigc8internal12signal_emit0IvNS_3nilEE4emitEPNS0_11signal_implE@Base 4.0~bzr753
 _ZN4sigc8internal12signal_emit1IvPN3nux4AreaENS_3nilEE4emitEPNS0_11signal_implERKS4_@Base 4.0~bzr753
 _ZN4sigc8internal12signal_emit1IvPN3nux8MenuPageENS_3nilEE4emitEPNS0_11signal_implERKS4_@Base 4.0~bzr753
 _ZN4sigc8internal12signal_emit1IvPN3nux9InputAreaENS_3nilEE4emitEPNS0_11signal_implERKS4_@Base 4.0~bzr753
 _ZN4sigc8internal12signal_emit1IvRKN3nux9ObjectPtrINS2_11BaseTextureEEENS_3nilEE4emitEPNS0_11signal_implES7_@Base 4.0~bzr753
 _ZN4sigc8internal12signal_emit1IvRKSsNS_3nilEE4emitEPNS0_11signal_implES3_@Base 4.0~bzr753
 _ZN4sigc8internal12signal_emit1IvRKiNS_3nilEE4emitEPNS0_11signal_implES3_@Base 4.0~bzr753
 _ZN4sigc8internal12signal_emit3IvPN3nux4AreaEbNS2_15KeyNavDirectionENS_3nilEE4emitEPNS0_11signal_implERKS4_RKbRKS5_@Base 4.0~bzr753
 _ZN4sigc8internal12signal_emit4IvffffNS_3nilEE4emitEPNS0_11signal_implERKfS7_S7_S7_@Base 4.0~bzr753
 _ZN4sigc8internal14temp_slot_listC1ERSt4listINS_9slot_baseESaIS3_EE@Base 4.0~bzr753
 _ZN4sigc8internal14temp_slot_listC2ERSt4listINS_9slot_baseESaIS3_EE@Base 4.0~bzr753
 _ZN4sigc8internal14temp_slot_listD1Ev@Base 4.0~bzr753
 _ZN4sigc8internal14temp_slot_listD2Ev@Base 4.0~bzr753
 _ZN4sigc8internal14typed_slot_repINS_12bind_functorILin1ENS2_ILin1ENS_18bound_mem_functor3IvN3nux11ColorEditorEPNS4_14AbstractButtonENS4_5color5ModelENS8_7ChannelEEESA_NS_3nilESC_SC_SC_SC_SC_EES9_SC_SC_SC_SC_SC_SC_EEE3dupEPv@Base 4.0~bzr753
 _ZN4sigc8internal14typed_slot_repINS_12bind_functorILin1ENS2_ILin1ENS_18bound_mem_functor3IvN3nux11ColorEditorEPNS4_14AbstractButtonENS4_5color5ModelENS8_7ChannelEEESA_NS_3nilESC_SC_SC_SC_SC_EES9_SC_SC_SC_SC_SC_SC_EEE7destroyEPv@Base 4.0~bzr753
 _ZN4sigc8internal14typed_slot_repINS_12bind_functorILin1ENS_18bound_mem_functor3IvN3nux11RGBValuatorEPNS4_11EditTextBoxERKSsiEEiNS_3nilESB_SB_SB_SB_SB_EEE3dupEPv@Base 4.0~bzr753
 _ZN4sigc8internal14typed_slot_repINS_12bind_functorILin1ENS_18bound_mem_functor3IvN3nux11RGBValuatorEPNS4_11EditTextBoxERKSsiEEiNS_3nilESB_SB_SB_SB_SB_EEE7destroyEPv@Base 4.0~bzr753
 _ZN4sigc8internal14typed_slot_repINS_12bind_functorILin1ENS_18bound_mem_functor5IvN3nux7MenuBarEiimmPNS4_11MenuBarItemEEES7_NS_3nilES9_S9_S9_S9_S9_EEE3dupEPv@Base 4.0~bzr753
 _ZN4sigc8internal14typed_slot_repINS_12bind_functorILin1ENS_18bound_mem_functor5IvN3nux7MenuBarEiimmPNS4_11MenuBarItemEEES7_NS_3nilES9_S9_S9_S9_S9_EEE7destroyEPv@Base 4.0~bzr753
 _ZN4sigc8internal14typed_slot_repINS_12bind_functorILin1ENS_18bound_mem_functor5IvN3nux7TabViewEiimmPNS5_10TabElementEEES7_NS_3nilES9_S9_S9_S9_S9_EEE3dupEPv@Base 4.0~bzr753
 _ZN4sigc8internal14typed_slot_repINS_12bind_functorILin1ENS_18bound_mem_functor5IvN3nux7TabViewEiimmPNS5_10TabElementEEES7_NS_3nilES9_S9_S9_S9_S9_EEE7destroyEPv@Base 4.0~bzr753
 _ZN4sigc8internal14typed_slot_repINS_12bind_functorILin1ENS_18bound_mem_functor5IvN3nux9HSplitterEiimmiEEjNS_3nilES7_S7_S7_S7_S7_EEE3dupEPv@Base 4.0~bzr753
 _ZN4sigc8internal14typed_slot_repINS_12bind_functorILin1ENS_18bound_mem_functor5IvN3nux9HSplitterEiimmiEEjNS_3nilES7_S7_S7_S7_S7_EEE7destroyEPv@Base 4.0~bzr753
 _ZN4sigc8internal14typed_slot_repINS_12bind_functorILin1ENS_18bound_mem_functor5IvN3nux9VSplitterEiimmiEEjNS_3nilES7_S7_S7_S7_S7_EEE3dupEPv@Base 4.0~bzr753
 _ZN4sigc8internal14typed_slot_repINS_12bind_functorILin1ENS_18bound_mem_functor5IvN3nux9VSplitterEiimmiEEjNS_3nilES7_S7_S7_S7_S7_EEE7destroyEPv@Base 4.0~bzr753
 _ZN4sigc8internal14typed_slot_repINS_12bind_functorILin1ENS_18bound_mem_functor7IvN3nux7MenuBarEiiiimmPNS4_11MenuBarItemEEES7_NS_3nilES9_S9_S9_S9_S9_EEE3dupEPv@Base 4.0~bzr753
 _ZN4sigc8internal14typed_slot_repINS_12bind_functorILin1ENS_18bound_mem_functor7IvN3nux7MenuBarEiiiimmPNS4_11MenuBarItemEEES7_NS_3nilES9_S9_S9_S9_S9_EEE7destroyEPv@Base 4.0~bzr753
 _ZN4sigc8internal14typed_slot_repINS_12bind_functorILin1ENS_18bound_mem_functor7IvN3nux9HSplitterEiiiimmiEEjNS_3nilES7_S7_S7_S7_S7_EEE3dupEPv@Base 4.0~bzr753
 _ZN4sigc8internal14typed_slot_repINS_12bind_functorILin1ENS_18bound_mem_functor7IvN3nux9HSplitterEiiiimmiEEjNS_3nilES7_S7_S7_S7_S7_EEE7destroyEPv@Base 4.0~bzr753
 _ZN4sigc8internal14typed_slot_repINS_12bind_functorILin1ENS_18bound_mem_functor7IvN3nux9VSplitterEiiiimmiEEjNS_3nilES7_S7_S7_S7_S7_EEE3dupEPv@Base 4.0~bzr753
 _ZN4sigc8internal14typed_slot_repINS_12bind_functorILin1ENS_18bound_mem_functor7IvN3nux9VSplitterEiiiimmiEEjNS_3nilES7_S7_S7_S7_S7_EEE7destroyEPv@Base 4.0~bzr753
 _ZN4sigc8internal14typed_slot_repINS_18bound_mem_functor0IvN3nux11EditTextBoxEEEE3dupEPv@Base 4.0~bzr753
 _ZN4sigc8internal14typed_slot_repINS_18bound_mem_functor0IvN3nux11EditTextBoxEEEE7destroyEPv@Base 4.0~bzr753
 _ZN4sigc8internal14typed_slot_repINS_18bound_mem_functor0IvN3nux13TestTextEntryEEEE3dupEPv@Base 4.0~bzr753
 _ZN4sigc8internal14typed_slot_repINS_18bound_mem_functor0IvN3nux13TestTextEntryEEEE7destroyEPv@Base 4.0~bzr753
 _ZN4sigc8internal14typed_slot_repINS_18bound_mem_functor0IvN3nux20GesturesSubscriptionEEEE3dupEPv@Base 4.0~bzr753
 _ZN4sigc8internal14typed_slot_repINS_18bound_mem_functor0IvN3nux20GesturesSubscriptionEEEE7destroyEPv@Base 4.0~bzr753
 _ZN4sigc8internal14typed_slot_repINS_18bound_mem_functor0IvN3nux7MenuBarEEEE3dupEPv@Base 4.0~bzr753
 _ZN4sigc8internal14typed_slot_repINS_18bound_mem_functor0IvN3nux7MenuBarEEEE7destroyEPv@Base 4.0~bzr753
 _ZN4sigc8internal14typed_slot_repINS_18bound_mem_functor0IvN3nux8TestViewEEEE3dupEPv@Base 4.0~bzr753
 _ZN4sigc8internal14typed_slot_repINS_18bound_mem_functor0IvN3nux8TestViewEEEE7destroyEPv@Base 4.0~bzr753
 _ZN4sigc8internal14typed_slot_repINS_18bound_mem_functor0IvN3nux9TextEntryEEEE3dupEPv@Base 4.0~bzr753
 _ZN4sigc8internal14typed_slot_repINS_18bound_mem_functor0IvN3nux9TextEntryEEEE7destroyEPv@Base 4.0~bzr753
 _ZN4sigc8internal14typed_slot_repINS_18bound_mem_functor1Iv15ProgramTemplatePvEEE3dupES4_@Base 4.0~bzr753
 _ZN4sigc8internal14typed_slot_repINS_18bound_mem_functor1Iv15ProgramTemplatePvEEE7destroyES4_@Base 4.0~bzr753
 _ZN4sigc8internal14typed_slot_repINS_18bound_mem_functor1IvN3nux10GestureSetERKNS3_7GestureEEEE3dupEPv@Base 4.0~bzr753
 _ZN4sigc8internal14typed_slot_repINS_18bound_mem_functor1IvN3nux10GestureSetERKNS3_7GestureEEEE7destroyEPv@Base 4.0~bzr753
 _ZN4sigc8internal14typed_slot_repINS_18bound_mem_functor1IvN3nux10HScrollBarEPvEEE3dupES5_@Base 4.0~bzr753
 _ZN4sigc8internal14typed_slot_repINS_18bound_mem_functor1IvN3nux10HScrollBarEPvEEE7destroyES5_@Base 4.0~bzr753
 _ZN4sigc8internal14typed_slot_repINS_18bound_mem_functor1IvN3nux10VScrollBarEPvEEE3dupES5_@Base 4.0~bzr753
 _ZN4sigc8internal14typed_slot_repINS_18bound_mem_functor1IvN3nux10VScrollBarEPvEEE7destroyES5_@Base 4.0~bzr753
 _ZN4sigc8internal14typed_slot_repINS_18bound_mem_functor1IvN3nux11EditTextBoxEPvEEE3dupES5_@Base 4.0~bzr753
 _ZN4sigc8internal14typed_slot_repINS_18bound_mem_functor1IvN3nux11EditTextBoxEPvEEE7destroyES5_@Base 4.0~bzr753
 _ZN4sigc8internal14typed_slot_repINS_18bound_mem_functor1IvN3nux11RGBValuatorEPNS3_14AbstractButtonEEEE3dupEPv@Base 4.0~bzr753
 _ZN4sigc8internal14typed_slot_repINS_18bound_mem_functor1IvN3nux11RGBValuatorEPNS3_14AbstractButtonEEEE7destroyEPv@Base 4.0~bzr753
 _ZN4sigc8internal14typed_slot_repINS_18bound_mem_functor1IvN3nux12ColorPreviewEPvEEE3dupES5_@Base 4.0~bzr753
 _ZN4sigc8internal14typed_slot_repINS_18bound_mem_functor1IvN3nux12ColorPreviewEPvEEE7destroyES5_@Base 4.0~bzr753
 _ZN4sigc8internal14typed_slot_repINS_18bound_mem_functor1IvN3nux12LinearLayoutEPNS3_4AreaEEEE3dupEPv@Base 4.0~bzr753
 _ZN4sigc8internal14typed_slot_repINS_18bound_mem_functor1IvN3nux12LinearLayoutEPNS3_4AreaEEEE7destroyEPv@Base 4.0~bzr753
 _ZN4sigc8internal14typed_slot_repINS_18bound_mem_functor1IvN3nux12WindowThreadEPvEEE3dupES5_@Base 4.0~bzr753
 _ZN4sigc8internal14typed_slot_repINS_18bound_mem_functor1IvN3nux12WindowThreadEPvEEE7destroyES5_@Base 4.0~bzr753
 _ZN4sigc8internal14typed_slot_repINS_18bound_mem_functor1IvN3nux12WindowThreadERNS3_12GestureEventEEEE3dupEPv@Base 4.0~bzr753
 _ZN4sigc8internal14typed_slot_repINS_18bound_mem_functor1IvN3nux12WindowThreadERNS3_12GestureEventEEEE7destroyEPv@Base 4.0~bzr753
 _ZN4sigc8internal14typed_slot_repINS_18bound_mem_functor1IvN3nux13LayeredLayoutEPNS3_4AreaEEEE3dupEPv@Base 4.0~bzr753
 _ZN4sigc8internal14typed_slot_repINS_18bound_mem_functor1IvN3nux13LayeredLayoutEPNS3_4AreaEEEE7destroyEPv@Base 4.0~bzr753
 _ZN4sigc8internal14typed_slot_repINS_18bound_mem_functor1IvN3nux13ObjectWeakPtrINS3_10BaseWindowEEEPNS3_6ObjectEEEE3dupEPv@Base 4.0~bzr753
 _ZN4sigc8internal14typed_slot_repINS_18bound_mem_functor1IvN3nux13ObjectWeakPtrINS3_10BaseWindowEEEPNS3_6ObjectEEEE7destroyEPv@Base 4.0~bzr753
 _ZN4sigc8internal14typed_slot_repINS_18bound_mem_functor1IvN3nux13ObjectWeakPtrINS3_11RadioButtonEEEPNS3_6ObjectEEEE3dupEPv@Base 4.0~bzr753
 _ZN4sigc8internal14typed_slot_repINS_18bound_mem_functor1IvN3nux13ObjectWeakPtrINS3_11RadioButtonEEEPNS3_6ObjectEEEE7destroyEPv@Base 4.0~bzr753
 _ZN4sigc8internal14typed_slot_repINS_18bound_mem_functor1IvN3nux13ObjectWeakPtrINS3_16RadioButtonGroupEEEPNS3_6ObjectEEEE3dupEPv@Base 4.0~bzr753
 _ZN4sigc8internal14typed_slot_repINS_18bound_mem_functor1IvN3nux13ObjectWeakPtrINS3_16RadioButtonGroupEEEPNS3_6ObjectEEEE7destroyEPv@Base 4.0~bzr753
 _ZN4sigc8internal14typed_slot_repINS_18bound_mem_functor1IvN3nux13ObjectWeakPtrINS3_9InputAreaEEEPNS3_6ObjectEEEE3dupEPv@Base 4.0~bzr753
 _ZN4sigc8internal14typed_slot_repINS_18bound_mem_functor1IvN3nux13ObjectWeakPtrINS3_9InputAreaEEEPNS3_6ObjectEEEE7destroyEPv@Base 4.0~bzr753
 _ZN4sigc8internal14typed_slot_repINS_18bound_mem_functor1IvN3nux13SpinBox_LogicEPNS3_11EditTextBoxEEEE3dupEPv@Base 4.0~bzr753
 _ZN4sigc8internal14typed_slot_repINS_18bound_mem_functor1IvN3nux13SpinBox_LogicEPNS3_11EditTextBoxEEEE7destroyEPv@Base 4.0~bzr753
 _ZN4sigc8internal14typed_slot_repINS_18bound_mem_functor1IvN3nux13SpinBox_LogicEPvEEE3dupES5_@Base 4.0~bzr753
 _ZN4sigc8internal14typed_slot_repINS_18bound_mem_functor1IvN3nux13SpinBox_LogicEPvEEE7destroyES5_@Base 4.0~bzr753
 _ZN4sigc8internal14typed_slot_repINS_18bound_mem_functor1IvN3nux13TestTextEntryEPNS3_6ObjectEEEE3dupEPv@Base 4.0~bzr753
 _ZN4sigc8internal14typed_slot_repINS_18bound_mem_functor1IvN3nux13TestTextEntryEPNS3_6ObjectEEEE7destroyEPv@Base 4.0~bzr753
 _ZN4sigc8internal14typed_slot_repINS_18bound_mem_functor1IvN3nux13TestTextEntryEPNS3_9TextEntryEEEE3dupEPv@Base 4.0~bzr753
 _ZN4sigc8internal14typed_slot_repINS_18bound_mem_functor1IvN3nux13TestTextEntryEPNS3_9TextEntryEEEE7destroyEPv@Base 4.0~bzr753
 _ZN4sigc8internal14typed_slot_repINS_18bound_mem_functor1IvN3nux15KineticScroller7PrivateEiEEE3dupEPv@Base 4.0~bzr753
 _ZN4sigc8internal14typed_slot_repINS_18bound_mem_functor1IvN3nux15KineticScroller7PrivateEiEEE7destroyEPv@Base 4.0~bzr753
 _ZN4sigc8internal14typed_slot_repINS_18bound_mem_functor1IvN3nux16ColorDialogProxyEPNS3_11ColorEditorEEEE3dupEPv@Base 4.0~bzr753
 _ZN4sigc8internal14typed_slot_repINS_18bound_mem_functor1IvN3nux16ColorDialogProxyEPNS3_11ColorEditorEEEE7destroyEPv@Base 4.0~bzr753
 _ZN4sigc8internal14typed_slot_repINS_18bound_mem_functor1IvN3nux16WindowCompositorEPNS3_6ObjectEEEE3dupEPv@Base 4.0~bzr753
 _ZN4sigc8internal14typed_slot_repINS_18bound_mem_functor1IvN3nux16WindowCompositorEPNS3_6ObjectEEEE7destroyEPv@Base 4.0~bzr753
 _ZN4sigc8internal14typed_slot_repINS_18bound_mem_functor1IvN3nux17kinetic_scrolling15TimerTickSourceEPvEEE3dupES6_@Base 4.0~bzr753
 _ZN4sigc8internal14typed_slot_repINS_18bound_mem_functor1IvN3nux17kinetic_scrolling15TimerTickSourceEPvEEE7destroyES6_@Base 4.0~bzr753
 _ZN4sigc8internal14typed_slot_repINS_18bound_mem_functor1IvN3nux19AnimatedTextureAreaEPvEEE3dupES5_@Base 4.0~bzr753
 _ZN4sigc8internal14typed_slot_repINS_18bound_mem_functor1IvN3nux19AnimatedTextureAreaEPvEEE7destroyES5_@Base 4.0~bzr753
 _ZN4sigc8internal14typed_slot_repINS_18bound_mem_functor1IvN3nux4ViewEPNS3_4AreaEEEE3dupEPv@Base 4.0~bzr753
 _ZN4sigc8internal14typed_slot_repINS_18bound_mem_functor1IvN3nux4ViewEPNS3_4AreaEEEE7destroyEPv@Base 4.0~bzr753
 _ZN4sigc8internal14typed_slot_repINS_18bound_mem_functor1IvN3nux6LayoutEPNS3_4AreaEEEE3dupEPv@Base 4.0~bzr753
 _ZN4sigc8internal14typed_slot_repINS_18bound_mem_functor1IvN3nux6LayoutEPNS3_4AreaEEEE7destroyEPv@Base 4.0~bzr753
 _ZN4sigc8internal14typed_slot_repINS_18bound_mem_functor1IvN3nux7GestureERKNS3_13GestureTargetEEEE3dupEPv@Base 4.0~bzr753
 _ZN4sigc8internal14typed_slot_repINS_18bound_mem_functor1IvN3nux7GestureERKNS3_13GestureTargetEEEE7destroyEPv@Base 4.0~bzr753
 _ZN4sigc8internal14typed_slot_repINS_18bound_mem_functor1IvN3nux7TabViewEPvEEE3dupES5_@Base 4.0~bzr753
 _ZN4sigc8internal14typed_slot_repINS_18bound_mem_functor1IvN3nux7TabViewEPvEEE7destroyES5_@Base 4.0~bzr753
 _ZN4sigc8internal14typed_slot_repINS_18bound_mem_functor1IvN3nux8TestViewEPNS3_6ObjectEEEE3dupEPv@Base 4.0~bzr753
 _ZN4sigc8internal14typed_slot_repINS_18bound_mem_functor1IvN3nux8TestViewEPNS3_6ObjectEEEE7destroyEPv@Base 4.0~bzr753
 _ZN4sigc8internal14typed_slot_repINS_18bound_mem_functor2IvN3nux10RangeValueEPNS3_11EditTextBoxERKSsEEE3dupEPv@Base 4.0~bzr753
 _ZN4sigc8internal14typed_slot_repINS_18bound_mem_functor2IvN3nux10RangeValueEPNS3_11EditTextBoxERKSsEEE7destroyEPv@Base 4.0~bzr753
 _ZN4sigc8internal14typed_slot_repINS_18bound_mem_functor2IvN3nux10ScrollViewEfiEEE3dupEPv@Base 4.0~bzr753
 _ZN4sigc8internal14typed_slot_repINS_18bound_mem_functor2IvN3nux10ScrollViewEfiEEE7destroyEPv@Base 4.0~bzr753
 _ZN4sigc8internal14typed_slot_repINS_18bound_mem_functor2IvN3nux13LayeredLayoutEPNS3_4AreaEbEEE3dupEPv@Base 4.0~bzr753
 _ZN4sigc8internal14typed_slot_repINS_18bound_mem_functor2IvN3nux13LayeredLayoutEPNS3_4AreaEbEEE7destroyEPv@Base 4.0~bzr753
 _ZN4sigc8internal14typed_slot_repINS_18bound_mem_functor2IvN3nux17KineticScrollViewEiiEEE3dupEPv@Base 4.0~bzr753
 _ZN4sigc8internal14typed_slot_repINS_18bound_mem_functor2IvN3nux17KineticScrollViewEiiEEE7destroyEPv@Base 4.0~bzr753
 _ZN4sigc8internal14typed_slot_repINS_18bound_mem_functor2IvN3nux17RangeValueIntegerEPNS3_11EditTextBoxERKSsEEE3dupEPv@Base 4.0~bzr753
 _ZN4sigc8internal14typed_slot_repINS_18bound_mem_functor2IvN3nux17RangeValueIntegerEPNS3_11EditTextBoxERKSsEEE7destroyEPv@Base 4.0~bzr753
 _ZN4sigc8internal14typed_slot_repINS_18bound_mem_functor2IvN3nux7MenuBarEPNS3_8MenuPageEPNS3_10ActionItemEEEE3dupEPv@Base 4.0~bzr753
 _ZN4sigc8internal14typed_slot_repINS_18bound_mem_functor2IvN3nux7MenuBarEPNS3_8MenuPageEPNS3_10ActionItemEEEE7destroyEPv@Base 4.0~bzr753
 _ZN4sigc8internal14typed_slot_repINS_18bound_mem_functor2IvN3nux9Coverflow4ImplEPNS3_14CoverflowModelENS3_9ObjectPtrINS3_13CoverflowItemEEEEEE3dupEPv@Base 4.0~bzr753
 _ZN4sigc8internal14typed_slot_repINS_18bound_mem_functor2IvN3nux9Coverflow4ImplEPNS3_14CoverflowModelENS3_9ObjectPtrINS3_13CoverflowItemEEEEEE7destroyEPv@Base 4.0~bzr753
 _ZN4sigc8internal14typed_slot_repINS_18bound_mem_functor2IvN3nux9Coverflow4ImplEPNS3_4AreaENS3_4RectEEEE3dupEPv@Base 4.0~bzr753
 _ZN4sigc8internal14typed_slot_repINS_18bound_mem_functor2IvN3nux9Coverflow4ImplEPNS3_4AreaENS3_4RectEEEE7destroyEPv@Base 4.0~bzr753
 _ZN4sigc8internal14typed_slot_repINS_18bound_mem_functor3IvN3nux13TestTextEntryEPNS3_4AreaEbNS3_15KeyNavDirectionEEEE3dupEPv@Base 4.0~bzr753
 _ZN4sigc8internal14typed_slot_repINS_18bound_mem_functor3IvN3nux13TestTextEntryEPNS3_4AreaEbNS3_15KeyNavDirectionEEEE7destroyEPv@Base 4.0~bzr753
 _ZN4sigc8internal14typed_slot_repINS_18bound_mem_functor3IvN3nux7MenuBarEPNS3_8MenuPageEiiEEE3dupEPv@Base 4.0~bzr753
 _ZN4sigc8internal14typed_slot_repINS_18bound_mem_functor3IvN3nux7MenuBarEPNS3_8MenuPageEiiEEE7destroyEPv@Base 4.0~bzr753
 _ZN4sigc8internal14typed_slot_repINS_18bound_mem_functor3IvN3nux8TestViewEPNS3_4AreaEbNS3_15KeyNavDirectionEEEE3dupEPv@Base 4.0~bzr753
 _ZN4sigc8internal14typed_slot_repINS_18bound_mem_functor3IvN3nux8TestViewEPNS3_4AreaEbNS3_15KeyNavDirectionEEEE7destroyEPv@Base 4.0~bzr753
 _ZN4sigc8internal14typed_slot_repINS_18bound_mem_functor3IvN3nux9Coverflow4ImplEjmmEEE3dupEPv@Base 4.0~bzr753
 _ZN4sigc8internal14typed_slot_repINS_18bound_mem_functor3IvN3nux9Coverflow4ImplEjmmEEE7destroyEPv@Base 4.0~bzr753
 _ZN4sigc8internal14typed_slot_repINS_18bound_mem_functor4Iv15ProgramTemplateiiiiEEE3dupEPv@Base 4.0~bzr753
 _ZN4sigc8internal14typed_slot_repINS_18bound_mem_functor4Iv15ProgramTemplateiiiiEEE7destroyEPv@Base 4.0~bzr753
 _ZN4sigc8internal14typed_slot_repINS_18bound_mem_functor4IvN3nux10ClientAreaEiimmEEE3dupEPv@Base 4.0~bzr753
 _ZN4sigc8internal14typed_slot_repINS_18bound_mem_functor4IvN3nux10ClientAreaEiimmEEE7destroyEPv@Base 4.0~bzr753
 _ZN4sigc8internal14typed_slot_repINS_18bound_mem_functor4IvN3nux10HScrollBarEiimmEEE3dupEPv@Base 4.0~bzr753
 _ZN4sigc8internal14typed_slot_repINS_18bound_mem_functor4IvN3nux10HScrollBarEiimmEEE7destroyEPv@Base 4.0~bzr753
 _ZN4sigc8internal14typed_slot_repINS_18bound_mem_functor4IvN3nux10RangeValueEiimmEEE3dupEPv@Base 4.0~bzr753
 _ZN4sigc8internal14typed_slot_repINS_18bound_mem_functor4IvN3nux10RangeValueEiimmEEE7destroyEPv@Base 4.0~bzr753
 _ZN4sigc8internal14typed_slot_repINS_18bound_mem_functor4IvN3nux10ToolButtonEiimmEEE3dupEPv@Base 4.0~bzr753
 _ZN4sigc8internal14typed_slot_repINS_18bound_mem_functor4IvN3nux10ToolButtonEiimmEEE7destroyEPv@Base 4.0~bzr753
 _ZN4sigc8internal14typed_slot_repINS_18bound_mem_functor4IvN3nux10VScrollBarEiimmEEE3dupEPv@Base 4.0~bzr753
 _ZN4sigc8internal14typed_slot_repINS_18bound_mem_functor4IvN3nux10VScrollBarEiimmEEE7destroyEPv@Base 4.0~bzr753
 _ZN4sigc8internal14typed_slot_repINS_18bound_mem_functor4IvN3nux11ColorEditorEiimmEEE3dupEPv@Base 4.0~bzr753
 _ZN4sigc8internal14typed_slot_repINS_18bound_mem_functor4IvN3nux11ColorEditorEiimmEEE7destroyEPv@Base 4.0~bzr753
 _ZN4sigc8internal14typed_slot_repINS_18bound_mem_functor4IvN3nux11EditTextBoxEiimmEEE3dupEPv@Base 4.0~bzr753
 _ZN4sigc8internal14typed_slot_repINS_18bound_mem_functor4IvN3nux11EditTextBoxEiimmEEE7destroyEPv@Base 4.0~bzr753
 _ZN4sigc8internal14typed_slot_repINS_18bound_mem_functor4IvN3nux11RGBValuatorEiimmEEE3dupEPv@Base 4.0~bzr753
 _ZN4sigc8internal14typed_slot_repINS_18bound_mem_functor4IvN3nux11RGBValuatorEiimmEEE7destroyEPv@Base 4.0~bzr753
 _ZN4sigc8internal14typed_slot_repINS_18bound_mem_functor4IvN3nux11TextureAreaEiillEEE3dupEPv@Base 4.0~bzr753
 _ZN4sigc8internal14typed_slot_repINS_18bound_mem_functor4IvN3nux11TextureAreaEiillEEE7destroyEPv@Base 4.0~bzr753
 _ZN4sigc8internal14typed_slot_repINS_18bound_mem_functor4IvN3nux12ColorPreviewEiimmEEE3dupEPv@Base 4.0~bzr753
 _ZN4sigc8internal14typed_slot_repINS_18bound_mem_functor4IvN3nux12ColorPreviewEiimmEEE7destroyEPv@Base 4.0~bzr753
 _ZN4sigc8internal14typed_slot_repINS_18bound_mem_functor4IvN3nux12FileSelectorEiimmEEE3dupEPv@Base 4.0~bzr753
 _ZN4sigc8internal14typed_slot_repINS_18bound_mem_functor4IvN3nux12FileSelectorEiimmEEE7destroyEPv@Base 4.0~bzr753
 _ZN4sigc8internal14typed_slot_repINS_18bound_mem_functor4IvN3nux13MouseAreaCtrlEiimmEEE3dupEPv@Base 4.0~bzr753
 _ZN4sigc8internal14typed_slot_repINS_18bound_mem_functor4IvN3nux13MouseAreaCtrlEiimmEEE7destroyEPv@Base 4.0~bzr753
 _ZN4sigc8internal14typed_slot_repINS_18bound_mem_functor4IvN3nux13SpinBox_LogicEiimmEEE3dupEPv@Base 4.0~bzr753
 _ZN4sigc8internal14typed_slot_repINS_18bound_mem_functor4IvN3nux13SpinBox_LogicEiimmEEE7destroyEPv@Base 4.0~bzr753
 _ZN4sigc8internal14typed_slot_repINS_18bound_mem_functor4IvN3nux13TestTextEntryEiimmEEE3dupEPv@Base 4.0~bzr753
 _ZN4sigc8internal14typed_slot_repINS_18bound_mem_functor4IvN3nux13TestTextEntryEiimmEEE7destroyEPv@Base 4.0~bzr753
 _ZN4sigc8internal14typed_slot_repINS_18bound_mem_functor4IvN3nux14AbstractButtonEiimmEEE3dupEPv@Base 4.0~bzr753
 _ZN4sigc8internal14typed_slot_repINS_18bound_mem_functor4IvN3nux14AbstractButtonEiimmEEE7destroyEPv@Base 4.0~bzr753
 _ZN4sigc8internal14typed_slot_repINS_18bound_mem_functor4IvN3nux14FloatingWindowEiimmEEE3dupEPv@Base 4.0~bzr753
 _ZN4sigc8internal14typed_slot_repINS_18bound_mem_functor4IvN3nux14FloatingWindowEiimmEEE7destroyEPv@Base 4.0~bzr753
 _ZN4sigc8internal14typed_slot_repINS_18bound_mem_functor4IvN3nux16AbstractComboBoxEiimmEEE3dupEPv@Base 4.0~bzr753
 _ZN4sigc8internal14typed_slot_repINS_18bound_mem_functor4IvN3nux16AbstractComboBoxEiimmEEE7destroyEPv@Base 4.0~bzr753
 _ZN4sigc8internal14typed_slot_repINS_18bound_mem_functor4IvN3nux17KineticScrollViewEiimmEEE3dupEPv@Base 4.0~bzr753
 _ZN4sigc8internal14typed_slot_repINS_18bound_mem_functor4IvN3nux17KineticScrollViewEiimmEEE7destroyEPv@Base 4.0~bzr753
 _ZN4sigc8internal14typed_slot_repINS_18bound_mem_functor4IvN3nux17RangeValueIntegerEiimmEEE3dupEPv@Base 4.0~bzr753
 _ZN4sigc8internal14typed_slot_repINS_18bound_mem_functor4IvN3nux17RangeValueIntegerEiimmEEE7destroyEPv@Base 4.0~bzr753
 _ZN4sigc8internal14typed_slot_repINS_18bound_mem_functor4IvN3nux19AnimatedTextureAreaEiillEEE3dupEPv@Base 4.0~bzr753
 _ZN4sigc8internal14typed_slot_repINS_18bound_mem_functor4IvN3nux19AnimatedTextureAreaEiillEEE7destroyEPv@Base 4.0~bzr753
 _ZN4sigc8internal14typed_slot_repINS_18bound_mem_functor4IvN3nux7TabViewEiimmEEE3dupEPv@Base 4.0~bzr753
 _ZN4sigc8internal14typed_slot_repINS_18bound_mem_functor4IvN3nux7TabViewEiimmEEE7destroyEPv@Base 4.0~bzr753
 _ZN4sigc8internal14typed_slot_repINS_18bound_mem_functor4IvN3nux8MenuPageEiimmEEE3dupEPv@Base 4.0~bzr753
 _ZN4sigc8internal14typed_slot_repINS_18bound_mem_functor4IvN3nux8MenuPageEiimmEEE7destroyEPv@Base 4.0~bzr753
 _ZN4sigc8internal14typed_slot_repINS_18bound_mem_functor4IvN3nux8TestViewEiimmEEE3dupEPv@Base 4.0~bzr753
 _ZN4sigc8internal14typed_slot_repINS_18bound_mem_functor4IvN3nux8TestViewEiimmEEE7destroyEPv@Base 4.0~bzr753
 _ZN4sigc8internal14typed_slot_repINS_18bound_mem_functor4IvN3nux9Coverflow4ImplEiimmEEE3dupEPv@Base 4.0~bzr753
 _ZN4sigc8internal14typed_slot_repINS_18bound_mem_functor4IvN3nux9Coverflow4ImplEiimmEEE7destroyEPv@Base 4.0~bzr753
 _ZN4sigc8internal14typed_slot_repINS_18bound_mem_functor4IvN3nux9TextEntryEiimmEEE3dupEPv@Base 4.0~bzr753
 _ZN4sigc8internal14typed_slot_repINS_18bound_mem_functor4IvN3nux9TextEntryEiimmEEE7destroyEPv@Base 4.0~bzr753
 _ZN4sigc8internal14typed_slot_repINS_18bound_mem_functor5IvN3nux10ClientAreaEmmmPKctEEE3dupEPv@Base 4.0~bzr753
 _ZN4sigc8internal14typed_slot_repINS_18bound_mem_functor5IvN3nux10ClientAreaEmmmPKctEEE7destroyEPv@Base 4.0~bzr753
 _ZN4sigc8internal14typed_slot_repINS_18bound_mem_functor5IvN3nux10ScrollViewEiiilmEEE3dupEPv@Base 4.0~bzr753
 _ZN4sigc8internal14typed_slot_repINS_18bound_mem_functor5IvN3nux10ScrollViewEiiilmEEE7destroyEPv@Base 4.0~bzr753
 _ZN4sigc8internal14typed_slot_repINS_18bound_mem_functor5IvN3nux11EditTextBoxEmmmPKctEEE3dupEPv@Base 4.0~bzr753
 _ZN4sigc8internal14typed_slot_repINS_18bound_mem_functor5IvN3nux11EditTextBoxEmmmPKctEEE7destroyEPv@Base 4.0~bzr753
 _ZN4sigc8internal14typed_slot_repINS_18bound_mem_functor5IvN3nux9Coverflow4ImplEiiimmEEE3dupEPv@Base 4.0~bzr753
 _ZN4sigc8internal14typed_slot_repINS_18bound_mem_functor5IvN3nux9Coverflow4ImplEiiimmEEE7destroyEPv@Base 4.0~bzr753
 _ZN4sigc8internal14typed_slot_repINS_18bound_mem_functor5IvN3nux9Coverflow4ImplEmmmPKctEEE3dupEPv@Base 4.0~bzr753
 _ZN4sigc8internal14typed_slot_repINS_18bound_mem_functor5IvN3nux9Coverflow4ImplEmmmPKctEEE7destroyEPv@Base 4.0~bzr753
 _ZN4sigc8internal14typed_slot_repINS_18bound_mem_functor5IvN3nux9TextEntryEmmmPKctEEE3dupEPv@Base 4.0~bzr753
 _ZN4sigc8internal14typed_slot_repINS_18bound_mem_functor5IvN3nux9TextEntryEmmmPKctEEE7destroyEPv@Base 4.0~bzr753
 _ZN4sigc8internal14typed_slot_repINS_18bound_mem_functor6IvN3nux10ClientAreaEiiiimmEEE3dupEPv@Base 4.0~bzr753
 _ZN4sigc8internal14typed_slot_repINS_18bound_mem_functor6IvN3nux10ClientAreaEiiiimmEEE7destroyEPv@Base 4.0~bzr753
 _ZN4sigc8internal14typed_slot_repINS_18bound_mem_functor6IvN3nux10HScrollBarEiiiimmEEE3dupEPv@Base 4.0~bzr753
 _ZN4sigc8internal14typed_slot_repINS_18bound_mem_functor6IvN3nux10HScrollBarEiiiimmEEE7destroyEPv@Base 4.0~bzr753
 _ZN4sigc8internal14typed_slot_repINS_18bound_mem_functor6IvN3nux10RangeValueEiiiimmEEE3dupEPv@Base 4.0~bzr753
 _ZN4sigc8internal14typed_slot_repINS_18bound_mem_functor6IvN3nux10RangeValueEiiiimmEEE7destroyEPv@Base 4.0~bzr753
 _ZN4sigc8internal14typed_slot_repINS_18bound_mem_functor6IvN3nux10VScrollBarEiiiimmEEE3dupEPv@Base 4.0~bzr753
 _ZN4sigc8internal14typed_slot_repINS_18bound_mem_functor6IvN3nux10VScrollBarEiiiimmEEE7destroyEPv@Base 4.0~bzr753
 _ZN4sigc8internal14typed_slot_repINS_18bound_mem_functor6IvN3nux11ColorEditorEiiiimmEEE3dupEPv@Base 4.0~bzr753
 _ZN4sigc8internal14typed_slot_repINS_18bound_mem_functor6IvN3nux11ColorEditorEiiiimmEEE7destroyEPv@Base 4.0~bzr753
 _ZN4sigc8internal14typed_slot_repINS_18bound_mem_functor6IvN3nux11EditTextBoxEiiiimmEEE3dupEPv@Base 4.0~bzr753
 _ZN4sigc8internal14typed_slot_repINS_18bound_mem_functor6IvN3nux11EditTextBoxEiiiimmEEE7destroyEPv@Base 4.0~bzr753
 _ZN4sigc8internal14typed_slot_repINS_18bound_mem_functor6IvN3nux11RGBValuatorEiiiimmEEE3dupEPv@Base 4.0~bzr753
 _ZN4sigc8internal14typed_slot_repINS_18bound_mem_functor6IvN3nux11RGBValuatorEiiiimmEEE7destroyEPv@Base 4.0~bzr753
 _ZN4sigc8internal14typed_slot_repINS_18bound_mem_functor6IvN3nux11TextureAreaEiiiimmEEE3dupEPv@Base 4.0~bzr753
 _ZN4sigc8internal14typed_slot_repINS_18bound_mem_functor6IvN3nux11TextureAreaEiiiimmEEE7destroyEPv@Base 4.0~bzr753
 _ZN4sigc8internal14typed_slot_repINS_18bound_mem_functor6IvN3nux13MouseAreaCtrlEiiiimmEEE3dupEPv@Base 4.0~bzr753
 _ZN4sigc8internal14typed_slot_repINS_18bound_mem_functor6IvN3nux13MouseAreaCtrlEiiiimmEEE7destroyEPv@Base 4.0~bzr753
 _ZN4sigc8internal14typed_slot_repINS_18bound_mem_functor6IvN3nux13TestTextEntryEiiiimmEEE3dupEPv@Base 4.0~bzr753
 _ZN4sigc8internal14typed_slot_repINS_18bound_mem_functor6IvN3nux13TestTextEntryEiiiimmEEE7destroyEPv@Base 4.0~bzr753
 _ZN4sigc8internal14typed_slot_repINS_18bound_mem_functor6IvN3nux14AbstractButtonEiiiimmEEE3dupEPv@Base 4.0~bzr753
 _ZN4sigc8internal14typed_slot_repINS_18bound_mem_functor6IvN3nux14AbstractButtonEiiiimmEEE7destroyEPv@Base 4.0~bzr753
 _ZN4sigc8internal14typed_slot_repINS_18bound_mem_functor6IvN3nux14FloatingWindowEiiiimmEEE3dupEPv@Base 4.0~bzr753
 _ZN4sigc8internal14typed_slot_repINS_18bound_mem_functor6IvN3nux14FloatingWindowEiiiimmEEE7destroyEPv@Base 4.0~bzr753
 _ZN4sigc8internal14typed_slot_repINS_18bound_mem_functor6IvN3nux17KineticScrollViewEiiiimmEEE3dupEPv@Base 4.0~bzr753
 _ZN4sigc8internal14typed_slot_repINS_18bound_mem_functor6IvN3nux17KineticScrollViewEiiiimmEEE7destroyEPv@Base 4.0~bzr753
 _ZN4sigc8internal14typed_slot_repINS_18bound_mem_functor6IvN3nux17RangeValueIntegerEiiiimmEEE3dupEPv@Base 4.0~bzr753
 _ZN4sigc8internal14typed_slot_repINS_18bound_mem_functor6IvN3nux17RangeValueIntegerEiiiimmEEE7destroyEPv@Base 4.0~bzr753
 _ZN4sigc8internal14typed_slot_repINS_18bound_mem_functor6IvN3nux19AnimatedTextureAreaEiiiimmEEE3dupEPv@Base 4.0~bzr753
 _ZN4sigc8internal14typed_slot_repINS_18bound_mem_functor6IvN3nux19AnimatedTextureAreaEiiiimmEEE7destroyEPv@Base 4.0~bzr753
 _ZN4sigc8internal14typed_slot_repINS_18bound_mem_functor6IvN3nux8MenuPageEiiiimmEEE3dupEPv@Base 4.0~bzr753
 _ZN4sigc8internal14typed_slot_repINS_18bound_mem_functor6IvN3nux8MenuPageEiiiimmEEE7destroyEPv@Base 4.0~bzr753
 _ZN4sigc8internal14typed_slot_repINS_18bound_mem_functor6IvN3nux8TestViewEiiiimmEEE3dupEPv@Base 4.0~bzr753
 _ZN4sigc8internal14typed_slot_repINS_18bound_mem_functor6IvN3nux8TestViewEiiiimmEEE7destroyEPv@Base 4.0~bzr753
 _ZN4sigc8internal14typed_slot_repINS_18bound_mem_functor6IvN3nux9Coverflow4ImplEiiiimmEEE3dupEPv@Base 4.0~bzr753
 _ZN4sigc8internal14typed_slot_repINS_18bound_mem_functor6IvN3nux9Coverflow4ImplEiiiimmEEE7destroyEPv@Base 4.0~bzr753
 _ZN4sigc8internal14typed_slot_repINS_18bound_mem_functor6IvN3nux9TextEntryEiiiimmEEE3dupEPv@Base 4.0~bzr753
 _ZN4sigc8internal14typed_slot_repINS_18bound_mem_functor6IvN3nux9TextEntryEiiiimmEEE7destroyEPv@Base 4.0~bzr753
 _ZN4sigc8internal8slot_repD1Ev@Base 4.0~bzr753
 _ZN4sigc8internal8slot_repD2Ev@Base 4.0~bzr753
 _ZN9__gnu_cxx12__to_xstringISscEET_PFiPT0_mPKS2_P13__va_list_tagEmS5_z@Base 4.0~bzr753
 _ZNK3nux10ActionItem4TypeEv@Base 4.0~bzr753
 _ZNK3nux10ActionItem7TriggerEv@Base 4.0~bzr753
 _ZNK3nux10ActionItem8GetLabelEv@Base 4.0~bzr753
 _ZNK3nux10ActionItem9isEnabledEv@Base 4.0~bzr753
 _ZNK3nux10BaseWindow12GetTopBorderEv@Base 4.0~bzr753
 _ZNK3nux10BaseWindow4TypeEv@Base 4.0~bzr753
 _ZNK3nux10BaseWindow7IsModalEv@Base 4.0~bzr753
 _ZNK3nux10BaseWindow9GetBorderEv@Base 4.0~bzr753
 _ZNK3nux10BaseWindow9IsVisibleEv@Base 4.0~bzr753
 _ZNK3nux10ColorLayer5CloneEv@Base 4.0~bzr753
 _ZNK3nux10ColorLayer8GetColorEv@Base 4.0~bzr753
 _ZNK3nux10RangeValue18GetBackgroundColorEv@Base 4.0~bzr753
 _ZNK3nux10RangeValue4TypeEv@Base 4.0~bzr753
 _ZNK3nux10RangeValue8GetValueEv@Base 4.0~bzr753
 _ZNK3nux10ScrollView4TypeEv@Base 4.0~bzr753
 _ZNK3nux10ShapeLayer5CloneEv@Base 4.0~bzr753
 _ZNK3nux10StaticText11GetClippingEv@Base 4.0~bzr753
 _ZNK3nux10StaticText11GetFontNameEv@Base 4.0~bzr753
 _ZNK3nux10StaticText11GetFontSizeEv@Base 4.0~bzr753
 _ZNK3nux10StaticText12GetTextColorEv@Base 4.0~bzr753
 _ZNK3nux10StaticText16GetSizeMatchTextEv@Base 4.0~bzr753
 _ZNK3nux10StaticText16GetTextAlignmentEv@Base 4.0~bzr753
 _ZNK3nux10StaticText16GetTextPointSizeEv@Base 4.0~bzr753
 _ZNK3nux10StaticText17GetTextLayoutSizeERiS1_@Base 4.0~bzr753
 _ZNK3nux10StaticText17GetTextLayoutSizeEv@Base 4.0~bzr753
 _ZNK3nux10StaticText4TypeEv@Base 4.0~bzr753
 _ZNK3nux10StaticText7GetTextEv@Base 4.0~bzr753
 _ZNK3nux11BasePainter10Draw2DLineERNS_14GraphicsEngineEiiiiNS_5color5ColorE@Base 4.0~bzr753
 _ZNK3nux11BasePainter10Draw2DLineERNS_14GraphicsEngineEiiiiNS_5color5ColorES4_@Base 4.0~bzr753
 _ZNK3nux11BasePainter10PaintShapeERNS_14GraphicsEngineERKNS_4RectERKNS_5color5ColorENS_15UXStyleImageRefEb@Base 4.0~bzr753
 _ZNK3nux11BasePainter13Draw2DTextureERNS_14GraphicsEngineEPNS_11BaseTextureEii@Base 4.0~bzr753
 _ZNK3nux11BasePainter13PaintShapeROPERNS_14GraphicsEngineERKNS_4RectERKNS_5color5ColorENS_15UXStyleImageRefEbRKNS_9ROPConfigE@Base 4.0~bzr753
 _ZNK3nux11BasePainter16Paint2DQuadColorERNS_14GraphicsEngineERKNS_4RectERKNS_5color5ColorE@Base 4.0~bzr753
 _ZNK3nux11BasePainter16Paint2DQuadColorERNS_14GraphicsEngineERKNS_4RectERKNS_5color5ColorES9_S9_S9_@Base 4.0~bzr753
 _ZNK3nux11BasePainter16Paint2DQuadColorERNS_14GraphicsEngineEiiiiRKNS_5color5ColorE@Base 4.0~bzr753
 _ZNK3nux11BasePainter16Paint2DQuadColorERNS_14GraphicsEngineEiiiiRKNS_5color5ColorES6_S6_S6_@Base 4.0~bzr753
 _ZNK3nux11BasePainter16PaintShapeCornerERNS_14GraphicsEngineERKNS_4RectERKNS_5color5ColorENS_15UXStyleImageRefElb@Base 4.0~bzr753
 _ZNK3nux11BasePainter17PaintTextureShapeERNS_14GraphicsEngineERKNS_4RectENS_15UXStyleImageRefE@Base 4.0~bzr753
 _ZNK3nux11BasePainter17PaintTextureShapeERNS_14GraphicsEngineERKNS_4RectEPNS_11BaseTextureEiiiibb@Base 4.0~bzr753
 _ZNK3nux11BasePainter19PaintShapeCornerROPERNS_14GraphicsEngineERKNS_4RectERKNS_5color5ColorENS_15UXStyleImageRefElbRKNS_9ROPConfigE@Base 4.0~bzr753
 _ZNK3nux11BasePainter19PaintTextLineStaticERNS_14GraphicsEngineENS_9ObjectPtrINS_11FontTextureEEERKNS_4RectERKSsRKNS_5color5ColorEbNS_14_TextAlignmentE@Base 4.0~bzr753
 _ZNK3nux11BasePainter20Draw2DTextureAlignedERNS_14GraphicsEngineEPNS_11BaseTextureERKNS_4RectENS_21TextureAlignmentStyleE@Base 4.0~bzr753
 _ZNK3nux11BasePainter20Paint2DQuadHGradientERNS_14GraphicsEngineERKNS_4RectENS_5color5ColorES7_@Base 4.0~bzr753
 _ZNK3nux11BasePainter20Paint2DQuadVGradientERNS_14GraphicsEngineERKNS_4RectENS_5color5ColorES7_@Base 4.0~bzr753
 _ZNK3nux11BasePainter20Paint2DQuadWireframeERNS_14GraphicsEngineERKNS_4RectENS_5color5ColorE@Base 4.0~bzr753
 _ZNK3nux11BasePainter20Paint2DQuadWireframeERNS_14GraphicsEngineERKNS_4RectENS_5color5ColorES7_S7_S7_@Base 4.0~bzr753
 _ZNK3nux11BasePainter20Paint2DQuadWireframeERNS_14GraphicsEngineEiiiiNS_5color5ColorE@Base 4.0~bzr753
 _ZNK3nux11BasePainter20Paint2DQuadWireframeERNS_14GraphicsEngineEiiiiNS_5color5ColorES4_S4_S4_@Base 4.0~bzr753
 _ZNK3nux11BasePainter22PaintColorTextLineEditERNS_14GraphicsEngineERKNS_4RectERKSsNS_5color5ColorEbS9_S9_S9_S9_bjiii@Base 4.0~bzr753
 _ZNK3nux11ColorEditor11GetRGBColorEv@Base 4.0~bzr753
 _ZNK3nux11ColorEditor13GetColorModelEv@Base 4.0~bzr753
 _ZNK3nux11ColorEditor15GetColorChannelEv@Base 4.0~bzr753
 _ZNK3nux11EditTextBox12GetCleanTextEv@Base 4.0~bzr753
 _ZNK3nux11EditTextBox21ValidateKeyboardEntryEPKc@Base 4.0~bzr753
 _ZNK3nux11EditTextBox22GetTextBackgroundColorEv@Base 4.0~bzr753
 _ZNK3nux11EditTextBox7GetTextEv@Base 4.0~bzr753
 _ZNK3nux11GridHLayout12GetNumColumnEv@Base 4.0~bzr753
 _ZNK3nux11GridHLayout15GetChildrenSizeEv@Base 4.0~bzr753
 _ZNK3nux11GridHLayout15GetFillingOrderEv@Base 4.0~bzr753
 _ZNK3nux11GridHLayout21IsMatchingContentSizeEv@Base 4.0~bzr753
 _ZNK3nux11GridHLayout4TypeEv@Base 4.0~bzr753
 _ZNK3nux11GridHLayout9GetNumRowEv@Base 4.0~bzr753
 _ZNK3nux11MenuBarItem4TypeEv@Base 4.0~bzr753
 _ZNK3nux11RGBValuator4TypeEv@Base 4.0~bzr753
 _ZNK3nux11RGBValuator8GetColorEv@Base 4.0~bzr753
 _ZNK3nux11RadioButton4TypeEv@Base 4.0~bzr753
 _ZNK3nux11SpaceLayout10FindWidgetEPNS_4AreaE@Base 4.0~bzr753
 _ZNK3nux11SpaceLayout4TypeEv@Base 4.0~bzr753
 _ZNK3nux11SpaceLayout7IsEmptyEv@Base 4.0~bzr753
 _ZNK3nux11TextureArea13Get2DRotationEv@Base 4.0~bzr753
 _ZNK3nux11TextureArea13GetPaintLayerEv@Base 4.0~bzr753
 _ZNK3nux11TextureArea4TypeEv@Base 4.0~bzr753
 _ZNK3nux11TimerHandle11GetProgressEv@Base 4.0~bzr753
 _ZNK3nux11TimerHandle15GetElapsedTimedEv@Base 4.0~bzr753
 _ZNK3nux11TimerHandle16GetProgressDeltaEv@Base 4.0~bzr753
 _ZNK3nux11TimerHandle25GetProgressIterationCountEv@Base 4.0~bzr753
 _ZNK3nux11TimerHandle26GetScheduledIterationCountEv@Base 4.0~bzr753
 _ZNK3nux11TimerHandle7IsValidEv@Base 4.0~bzr753
 _ZNK3nux11TimerHandle9ActivatedEv@Base 4.0~bzr753
 _ZNK3nux12CairoWrapper10GetTextureEv@Base 4.0~bzr753
 _ZNK3nux12CairoWrapper15GetCairoContextEv@Base 4.0~bzr753
 _ZNK3nux12CairoWrapper15GetCairoSurfaceEv@Base 4.0~bzr753
 _ZNK3nux12CairoWrapper9GetBitmapEv@Base 4.0~bzr753
 _ZNK3nux12ColorPreview11GetRGBColorEv@Base 4.0~bzr753
 _ZNK3nux12LinearLayout4TypeEv@Base 4.0~bzr753
 _ZNK3nux12SystemThread4TypeEv@Base 4.0~bzr753
 _ZNK3nux12TextureLayer5CloneEv@Base 4.0~bzr753
 _ZNK3nux12WindowThread10GetPainterEv@Base 4.0~bzr753
 _ZNK3nux12WindowThread11GetDrawListEv@Base 4.0.0
 _ZNK3nux12WindowThread13IsModalWindowEv@Base 4.0~bzr753
 _ZNK3nux12WindowThread14GetWindowTitleEv@Base 4.0~bzr753
 _ZNK3nux12WindowThread14IsRedrawNeededEv@Base 4.0~bzr753
 _ZNK3nux12WindowThread15GetTimerHandlerEv@Base 4.0~bzr753
 _ZNK3nux12WindowThread17GetGraphicsEngineEv@Base 4.0~bzr753
 _ZNK3nux12WindowThread18GetGraphicsDisplayEv@Base 4.0~bzr753
 _ZNK3nux12WindowThread19GetWindowCompositorEv@Base 4.0~bzr753
 _ZNK3nux12WindowThread19IsInsideLayoutCycleEv@Base 4.0~bzr753
 _ZNK3nux12WindowThread23IsWaitingforModalWindowEv@Base 4.0~bzr753
 _ZNK3nux12WindowThread4TypeEv@Base 4.0~bzr753
 _ZNK3nux12WindowThread8GetThemeEv@Base 4.0~bzr753
 _ZNK3nux13CoverflowItem4TypeEv@Base 4.0~bzr753
 _ZNK3nux13GestureTarget6EqualsERKS0_@Base 4.0~bzr753
 _ZNK3nux13LayeredLayout4TypeEv@Base 4.0~bzr753
 _ZNK3nux13MenuSeparator4TypeEv@Base 4.0~bzr753
 _ZNK3nux13SpinBoxDouble11GetMaxValueEv@Base 4.0~bzr753
 _ZNK3nux13SpinBoxDouble11GetMinValueEv@Base 4.0~bzr753
 _ZNK3nux13SpinBoxDouble7GetStepEv@Base 4.0~bzr753
 _ZNK3nux13SpinBoxDouble8GetValueEv@Base 4.0~bzr753
 _ZNK3nux13StaticTextBox20GetMinWidthMatchTextEv@Base 4.0~bzr753
 _ZNK3nux13StaticTextBox4TypeEv@Base 4.0~bzr753
 _ZNK3nux13TestTextEntry4TypeEv@Base 4.0~bzr753
 _ZNK3nux14AbstractButton14GetVisualStateEv@Base 4.0~bzr753
 _ZNK3nux14AbstractButton16GetLabelFontSizeEv@Base 4.0~bzr753
 _ZNK3nux14AbstractButton4TypeEv@Base 4.0~bzr753
 _ZNK3nux14AbstractButton6ActiveEv@Base 4.0~bzr753
 _ZNK3nux14AbstractThread4TypeEv@Base 4.0~bzr753
 _ZNK3nux14CoverflowModel4TypeEv@Base 4.0~bzr753
 _ZNK3nux14CoverflowModel5ItemsEv@Base 4.0~bzr753
 _ZNK3nux14FloatingWindow11HasTitleBarEv@Base 4.0~bzr753
 _ZNK3nux14FloatingWindow4TypeEv@Base 4.0~bzr753
 _ZNK3nux14IBusIMEContext11IsConnectedEv@Base 4.0~bzr753
 _ZNK3nux14IBusIMEContext13IsHotkeyEventENS_9EventTypeEmm@Base 4.0~bzr753
 _ZNK3nux15DoubleValidator10GetMaximumEv@Base 4.0~bzr753
 _ZNK3nux15DoubleValidator10GetMinimumEv@Base 4.0~bzr753
 _ZNK3nux15DoubleValidator15GetClampedValueEd@Base 4.0~bzr753
 _ZNK3nux15DoubleValidator5CloneEv@Base 4.0~bzr753
 _ZNK3nux15InputAreaTarget6EqualsERKNS_13GestureTargetE@Base 4.0~bzr753
 _ZNK3nux15KineticScroller20GetVerticalAxisStateEv@Base 4.0~bzr753
 _ZNK3nux15KineticScroller22GetHorizontalAxisStateEv@Base 4.0~bzr753
 _ZNK3nux15KineticScroller7Private19CanScrollVerticallyEv@Base 4.0~bzr753
 _ZNK3nux15KineticScroller7Private21CanScrollHorizontallyEv@Base 4.0~bzr753
 _ZNK3nux15NumericValuator8GetValueEv@Base 4.0~bzr753
 _ZNK3nux16CompositionLayer5CloneEv@Base 4.0~bzr753
 _ZNK3nux16IntegerValidator10GetMaximumEv@Base 4.0~bzr753
 _ZNK3nux16IntegerValidator10GetMinimumEv@Base 4.0~bzr753
 _ZNK3nux16IntegerValidator15GetClampedValueEi@Base 4.0~bzr753
 _ZNK3nux16IntegerValidator5CloneEv@Base 4.0~bzr753
 _ZNK3nux16RadioButtonGroup4TypeEv@Base 4.0~bzr753
 _ZNK3nux16WindowCompositor17GetMouseOwnerAreaEv@Base 4.0~bzr753
 _ZNK3nux16WindowCompositor18GetTooltipGeometryEv@Base 4.0~bzr753
 _ZNK3nux16WindowCompositor20GetProximityListSizeEv@Base 4.0~bzr753
 _ZNK3nux16WindowCompositor28GetTooltipMainWindowGeometryEv@Base 4.0~bzr753
 _ZNK3nux17KineticScrollView4TypeEv@Base 4.0~bzr753
 _ZNK3nux17RangeValueInteger8GetValueEv@Base 4.0~bzr753
 _ZNK3nux18AbstractPaintLayer11GetGeometryEv@Base 4.0~bzr753
 _ZNK3nux18HexRegExpValidator10GetMaximumEv@Base 4.0~bzr753
 _ZNK3nux18HexRegExpValidator10GetMinimumEv@Base 4.0~bzr753
 _ZNK3nux18HexRegExpValidator15GetClampedValueEi@Base 4.0~bzr753
 _ZNK3nux18HexRegExpValidator5CloneEv@Base 4.0~bzr753
 _ZNK3nux18VelocityCalculator10NumSamplesEv@Base 4.0~bzr753
 _ZNK3nux18VelocityCalculator17CalculateVelocityEv@Base 4.0~bzr753
 _ZNK3nux19BaseKeyboardHandler15GetSelectedTextEv@Base 4.0~bzr753
 _ZNK3nux19BaseKeyboardHandler16GetTextSelectionEPiS1_@Base 4.0~bzr753
 _ZNK3nux19BaseKeyboardHandler19GetTextSelectionEndEv@Base 4.0~bzr753
 _ZNK3nux19BaseKeyboardHandler21GetTextSelectionStartEv@Base 4.0~bzr753
 _ZNK3nux19BaseKeyboardHandler7GetFontEv@Base 4.0~bzr753
 _ZNK3nux19KineticAxisScroller15NeedTimeUpdatesEv@Base 4.0~bzr753
 _ZNK3nux19KineticAxisScroller16GetContentLengthEv@Base 4.0~bzr753
 _ZNK3nux19KineticAxisScroller17GetViewportLengthEv@Base 4.0~bzr753
 _ZNK3nux19KineticAxisScroller18GetContentPositionEv@Base 4.0~bzr753
 _ZNK3nux19KineticAxisScroller7Private24LimitOutOfBoundsMovementEiii@Base 4.0~bzr753
 _ZNK3nux19KineticAxisScroller8GetStateEv@Base 4.0~bzr753
 _ZNK3nux20GesturesSubscription14MatchesGestureERKNS_12GestureEventE@Base 4.0~bzr753
 _ZNK3nux21AbstractCheckedButton4TypeEv@Base 4.0~bzr753
 _ZNK3nux21AbstractCheckedButton8GetLabelEv@Base 4.0~bzr753
 _ZNK3nux23SliceScaledTextureLayer5CloneEv@Base 4.0~bzr753
 _ZNK3nux25AxisDecelerationAnimation11GetPositionEv@Base 4.0~bzr753
 _ZNK3nux25AxisDecelerationAnimation8IsActiveEv@Base 4.0~bzr753
 _ZNK3nux4Area11Get2DMatrixEv@Base 4.0~bzr753
 _ZNK3nux4Area11Get3DMatrixEv@Base 4.0~bzr753
 _ZNK3nux4Area11GetGeometryEv@Base 4.0~bzr753
 _ZNK3nux4Area11HasKeyFocusEv@Base 4.0~bzr753
 _ZNK3nux4Area11IsInputAreaEv@Base 4.0~bzr753
 _ZNK3nux4Area11IsSensitiveEv@Base 4.0~bzr753
 _ZNK3nux4Area12GetAbsoluteXEv@Base 4.0~bzr753
 _ZNK3nux4Area12GetAbsoluteYEv@Base 4.0~bzr753
 _ZNK3nux4Area12GetBaseWidthEv@Base 4.0~bzr753
 _ZNK3nux4Area12GetRootWidthEv@Base 4.0~bzr753
 _ZNK3nux4Area12IsViewWindowEv@Base 4.0~bzr753
 _ZNK3nux4Area13BackupTextureEv@Base 4.0~bzr753
 _ZNK3nux4Area13GetBaseHeightEv@Base 4.0~bzr753
 _ZNK3nux4Area13GetBaseStringEv@Base 4.0~bzr753
 _ZNK3nux4Area13GetRootHeightEv@Base 4.0~bzr753
 _ZNK3nux4Area13IsSpaceLayoutEv@Base 4.0~bzr753
 _ZNK3nux4Area14GetMaximumSizeEv@Base 4.0~bzr753
 _ZNK3nux4Area14GetMinimumSizeEv@Base 4.0~bzr753
 _ZNK3nux4Area15GetMaximumWidthEv@Base 4.0~bzr753
 _ZNK3nux4Area15GetMinimumWidthEv@Base 4.0~bzr753
 _ZNK3nux4Area15GetParentObjectEv@Base 4.0~bzr753
 _ZNK3nux4Area15GetRootGeometryEv@Base 4.0~bzr753
 _ZNK3nux4Area16GetAbsoluteWidthEv@Base 4.0~bzr753
 _ZNK3nux4Area16GetMaximumHeightEv@Base 4.0~bzr753
 _ZNK3nux4Area16GetMinimumHeightEv@Base 4.0~bzr753
 _ZNK3nux4Area17GetAbsoluteHeightEv@Base 4.0~bzr753
 _ZNK3nux4Area19AcceptKeyboardEventEv@Base 4.0~bzr753
 _ZNK3nux4Area19GetAbsoluteGeometryEv@Base 4.0~bzr753
 _ZNK3nux4Area19IsGestureInsideAreaERKNS_12GestureEventE@Base 4.0~bzr753
 _ZNK3nux4Area20IsMousePointerInsideEv@Base 4.0~bzr753
 _ZNK3nux4Area21AcceptMouseWheelEventEv@Base 4.0~bzr753
 _ZNK3nux4Area21PresentRedirectedViewEv@Base 4.0~bzr753
 _ZNK3nux4Area24GetInputEventSensitivityEv@Base 4.0~bzr753
 _ZNK3nux4Area26RedirectRenderingToTextureEv@Base 4.0~bzr753
 _ZNK3nux4Area36UpdateBackupTextureForChildRenderingEv@Base 4.0~bzr753
 _ZNK3nux4Area4GetXEv@Base 4.0~bzr753
 _ZNK3nux4Area4GetYEv@Base 4.0~bzr753
 _ZNK3nux4Area4TypeEv@Base 4.0~bzr753
 _ZNK3nux4Area6IsAreaEv@Base 4.0~bzr753
 _ZNK3nux4Area6IsViewEv@Base 4.0~bzr753
 _ZNK3nux4Area8GetBaseXEv@Base 4.0~bzr753
 _ZNK3nux4Area8GetBaseYEv@Base 4.0~bzr753
 _ZNK3nux4Area8GetRootXEv@Base 4.0~bzr753
 _ZNK3nux4Area8GetRootYEv@Base 4.0~bzr753
 _ZNK3nux4Area8GetWidthEv@Base 4.0~bzr753
 _ZNK3nux4Area8Is3DAreaEv@Base 4.0~bzr753
 _ZNK3nux4Area8IsLayoutEv@Base 4.0~bzr753
 _ZNK3nux4Area9GetHeightEv@Base 4.0~bzr753
 _ZNK3nux4View12IsFullRedrawEv@Base 4.0~bzr753
 _ZNK3nux4View13IsViewEnabledEv@Base 4.0~bzr753
 _ZNK3nux4View4TypeEv@Base 4.0~bzr753
 _ZNK3nux6Button4TypeEv@Base 4.0~bzr753
 _ZNK3nux6Button8GetLabelEv@Base 4.0~bzr753
 _ZNK3nux6Layout10FindWidgetEPNS_4AreaE@Base 4.0~bzr753
 _ZNK3nux6Layout13GetTopPaddingEv@Base 4.0~bzr753
 _ZNK3nux6Layout14GetLeftPaddingEv@Base 4.0~bzr753
 _ZNK3nux6Layout15GetRightPaddingEv@Base 4.0~bzr753
 _ZNK3nux6Layout16GetBottomPaddingEv@Base 4.0~bzr753
 _ZNK3nux6Layout4TypeEv@Base 4.0~bzr753
 _ZNK3nux6Layout7IsEmptyEv@Base 4.0~bzr753
 _ZNK3nux6Object4TypeEv@Base 4.0~bzr753
 _ZNK3nux7Gesture10GetTouchesEv@Base 4.0~bzr753
 _ZNK3nux7Gesture14GetLatestEventEv@Base 4.0~bzr753
 _ZNK3nux7Gesture18HasTouchesInCommonERKSt10shared_ptrIS0_E@Base 4.0~bzr753
 _ZNK3nux7Gesture22IsConstructionFinishedEv@Base 4.0~bzr753
 _ZNK3nux7Gesture5GetIdEv@Base 4.0~bzr753
 _ZNK3nux7HLayout4TypeEv@Base 4.0~bzr753
 _ZNK3nux7MenuBar4TypeEv@Base 4.0~bzr753
 _ZNK3nux7SpinBox11GetMaxValueEv@Base 4.0~bzr753
 _ZNK3nux7SpinBox11GetMinValueEv@Base 4.0~bzr753
 _ZNK3nux7SpinBox7GetStepEv@Base 4.0~bzr753
 _ZNK3nux7SpinBox8GetValueEv@Base 4.0~bzr753
 _ZNK3nux7TabView10TabElement11GetGeometryEv@Base 4.0~bzr753
 _ZNK3nux7TabView10TabElement7GetNameEv@Base 4.0~bzr753
 _ZNK3nux7TabView10TabElement8GetIndexEv@Base 4.0~bzr753
 _ZNK3nux7VLayout4TypeEv@Base 4.0~bzr753
 _ZNK3nux8CheckBox4TypeEv@Base 4.0~bzr753
 _ZNK3nux8MenuItem12GetChildMenuEv@Base 4.0~bzr753
 _ZNK3nux8MenuItem13GetActionItemEv@Base 4.0~bzr753
 _ZNK3nux8MenuItem4TypeEv@Base 4.0~bzr753
 _ZNK3nux8MenuPage13GetActionItemEi@Base 4.0~bzr753
 _ZNK3nux8MenuPage15GetRootGeometryEv@Base 4.0~bzr753
 _ZNK3nux8MenuPage18GetActionItemIndexEPNS_10ActionItemE@Base 4.0~bzr753
 _ZNK3nux8MenuPage19GetAbsoluteGeometryEv@Base 4.0~bzr753
 _ZNK3nux8MenuPage27OnClosureContinueEventCycleEv@Base 4.0~bzr753
 _ZNK3nux8MenuPage4TypeEv@Base 4.0~bzr753
 _ZNK3nux8MenuPage7GetNameEv@Base 4.0~bzr753
 _ZNK3nux8MenuPage8CanCloseEv@Base 4.0~bzr753
 _ZNK3nux8PropertyINS_9ObjectPtrINS_14CoverflowModelEEEEclEv@Base 4.0~bzr753
 _ZNK3nux8TestView4TypeEv@Base 4.0~bzr753
 _ZNK3nux8TestView8GetColorEv@Base 4.0~bzr753
 _ZNK3nux9BasicView4TypeEv@Base 4.0~bzr753
 _ZNK3nux9CairoFont12GetPointSizeEv@Base 4.0~bzr753
 _ZNK3nux9CairoFont8GetStyleEv@Base 4.0~bzr753
 _ZNK3nux9CairoFont9GetWeightEv@Base 4.0~bzr753
 _ZNK3nux9Coverflow4TypeEv@Base 4.0~bzr753
 _ZNK3nux9HSplitter4TypeEv@Base 4.0~bzr753
 _ZNK3nux9InputArea17AcceptKeyNavFocusEv@Base 4.0~bzr753
 _ZNK3nux9InputArea18DoubleClickEnabledEv@Base 4.0~bzr753
 _ZNK3nux9InputArea24GetGesturesSubscriptionsEv@Base 4.0~bzr753
 _ZNK3nux9InputArea25HasSubscriptionForGestureERKNS_12GestureEventE@Base 4.0~bzr753
 _ZNK3nux9InputArea26IsTrackingChildMouseEventsEv@Base 4.0~bzr753
 _ZNK3nux9InputArea28AcceptKeyNavFocusOnMouseDownEv@Base 4.0~bzr753
 _ZNK3nux9InputArea29AcceptKeyNavFocusOnMouseEnterEv@Base 4.0~bzr753
 _ZNK3nux9InputArea30IsCaptureMouseDownAnyWhereElseEv@Base 4.0~bzr753
 _ZNK3nux9InputArea4TypeEv@Base 4.0~bzr753
 _ZNK3nux9InputArea6IsAreaEv@Base 4.0~bzr753
 _ZNK3nux9Matrix4x4IfEmlERKNS_4Vec4IfEE@Base 4.0~bzr753
 _ZNK3nux9Matrix4x4IfEmlERKS1_@Base 4.0~bzr753
 _ZNK3nux9ObjectPtrINS_18IOpenGLBaseTextureEEeqIS1_EEbRKNS0_IT_EE@Base 4.0~bzr753
 _ZNK3nux9ScrollBar13GetScrollUnitEv@Base 4.0~bzr753
 _ZNK3nux9TextEntry12GetTextColorEv@Base 4.0~bzr753
 _ZNK3nux9TextEntry12PasswordModeEv@Base 4.0~bzr753
 _ZNK3nux9TextEntry13GetCompletionEv@Base 4.0~bzr753
 _ZNK3nux9TextEntry16GetTextSelectionEv@Base 4.0~bzr753
 _ZNK3nux9TextEntry17IsInTextInputModeEv@Base 4.0~bzr753
 _ZNK3nux9TextEntry18GetCompletionColorEv@Base 4.0~bzr753
 _ZNK3nux9TextEntry18GetSelectionBoundsEPiS1_@Base 4.0~bzr753
 _ZNK3nux9TextEntry19IsInCompositionModeEv@Base 4.0~bzr753
 _ZNK3nux9TextEntry26IsInitialCompositionKeySymEm@Base 4.0~bzr753
 _ZNK3nux9TextEntry34GetLoseKeyFocusOnKeyNavDirectionUpEv@Base 4.0~bzr753
 _ZNK3nux9TextEntry36GetLoseKeyFocusOnKeyNavDirectionDownEv@Base 4.0~bzr753
 _ZNK3nux9TextEntry4TypeEv@Base 4.0~bzr753
 _ZNK3nux9TextEntry7GetTextEv@Base 4.0~bzr753
 _ZNK3nux9TextEntry8GetAlignEv@Base 4.0~bzr753
 _ZNK3nux9VSplitter4TypeEv@Base 4.0~bzr753
 _ZNK3nux9Validator8ValidateEPKc@Base 4.0~bzr753
 _ZNK4sigc18bound_mem_functor2IvN3nux9Coverflow4ImplEPNS1_14CoverflowModelENS1_9ObjectPtrINS1_13CoverflowItemEEEEclERKS5_RKS8_@Base 4.0~bzr753
 _ZNSs12_S_constructIPcEES0_T_S1_RKSaIcESt20forward_iterator_tag@Base 4.0~bzr753
 _ZNSt10_List_baseIN3nux12WindowThread15_ExternalFdDataESaIS2_EE8_M_clearEv@Base 4.0.0
 _ZNSt10_List_baseIN3nux13ObjectWeakPtrINS0_10BaseWindowEEESaIS3_EE8_M_clearEv@Base 4.0~bzr753
 _ZNSt10_List_baseIN3nux4RectESaIS1_EE8_M_clearEv@Base 4.0~bzr753
 _ZNSt10_List_baseIN4sigc9slot_baseESaIS1_EE8_M_clearEv@Base 4.0~bzr753
 _ZNSt10_List_baseIP8_GSourceSaIS1_EE8_M_clearEv@Base 4.0~bzr753
 _ZNSt10_List_baseIPKcSaIS1_EE8_M_clearEv@Base 4.0~bzr753
 _ZNSt10_List_baseIPN3nux11MenuBarItemESaIS2_EE8_M_clearEv@Base 4.0~bzr753
 _ZNSt10_List_baseIPN3nux11TimerObjectESaIS2_EE8_M_clearEv@Base 4.0~bzr753
 _ZNSt10_List_baseIPN3nux12PainterImageESaIS2_EE8_M_clearEv@Base 4.0~bzr753
 _ZNSt10_List_baseIPN3nux14AbstractThreadESaIS2_EE8_M_clearEv@Base 4.0~bzr753
 _ZNSt10_List_baseIPN3nux18AbstractPaintLayerESaIS2_EE8_M_clearEv@Base 4.0~bzr753
 _ZNSt10_List_baseIPN3nux18InputAreaProximityESaIS2_EE8_M_clearEv@Base 4.0~bzr753
 _ZNSt10_List_baseIPN3nux4AreaESaIS2_EE8_M_clearEv@Base 4.0~bzr753
 _ZNSt10_List_baseIPN3nux4ViewESaIS2_EE8_M_clearEv@Base 4.0~bzr753
 _ZNSt10_List_baseIPN3nux7NThreadESaIS2_EE8_M_clearEv@Base 4.0~bzr753
 _ZNSt10_List_baseIPN3nux8MenuPageESaIS2_EE8_M_clearEv@Base 4.0~bzr753
 _ZNSt10_List_baseIPN3nux8TimelineESaIS2_EE8_M_clearEv@Base 4.0~bzr753
 _ZNSt10_List_baseIPN3nux9InputAreaESaIS2_EE8_M_clearEv@Base 4.0~bzr753
 _ZNSt10_List_baseIPcSaIS0_EE8_M_clearEv@Base 4.0~bzr753
 _ZNSt10_List_baseISt10shared_ptrIN3nux13GestureTargetEESaIS3_EE8_M_clearEv@Base 4.0~bzr753
 _ZNSt10_List_baseISt10shared_ptrIN3nux20GesturesSubscriptionEESaIS3_EE8_M_clearEv@Base 4.0~bzr753
 _ZNSt10_List_baseISt4listIPN3nux18AbstractPaintLayerESaIS3_EESaIS5_EE8_M_clearEv@Base 4.0~bzr753
 _ZNSt10shared_ptrIN3nux13GestureTargetEED1Ev@Base 4.0~bzr753
 _ZNSt10shared_ptrIN3nux13GestureTargetEED2Ev@Base 4.0~bzr753
 _ZNSt10shared_ptrIN3nux13LayeredLayout22LayeredChildPropertiesEED1Ev@Base 4.0~bzr753
 _ZNSt10shared_ptrIN3nux13LayeredLayout22LayeredChildPropertiesEED2Ev@Base 4.0~bzr753
 _ZNSt10shared_ptrIN3nux20GesturesSubscriptionEED1Ev@Base 4.0~bzr753
 _ZNSt10shared_ptrIN3nux20GesturesSubscriptionEED2Ev@Base 4.0~bzr753
 _ZNSt10shared_ptrIN3nux7GestureEED1Ev@Base 4.0~bzr753
 _ZNSt10shared_ptrIN3nux7GestureEED2Ev@Base 4.0~bzr753
 _ZNSt10unique_ptrIN3nux11GeisAdapterESt14default_deleteIS1_EED1Ev@Base 4.0~bzr753
 _ZNSt10unique_ptrIN3nux11GeisAdapterESt14default_deleteIS1_EED2Ev@Base 4.0~bzr753
 _ZNSt10unique_ptrIN3nux12GestureEventESt14default_deleteIS1_EED1Ev@Base 4.0~bzr753
 _ZNSt10unique_ptrIN3nux12GestureEventESt14default_deleteIS1_EED2Ev@Base 4.0~bzr753
 _ZNSt12_Destroy_auxILb0EE9__destroyIPN3nux13ObjectWeakPtrINS2_11RadioButtonEEEEEvT_S7_@Base 4.0~bzr753
 _ZNSt12_Destroy_auxILb0EE9__destroyIPN3nux9ObjectPtrINS2_13CoverflowItemEEEEEvT_S7_@Base 4.0~bzr753
 _ZNSt14_Function_base13_Base_managerIN4sigc18bound_mem_functor2IbN3nux8PropertyINS3_10TextLoader13TextAlignmentEEERS6_RKS6_EEE10_M_managerERSt9_Any_dataRKSD_St18_Manager_operation@Base 4.0~bzr753
 _ZNSt14_Function_base13_Base_managerIN4sigc18bound_mem_functor2IbN3nux8PropertyINS3_5color5ColorEEERS6_RKS6_EEE10_M_managerERSt9_Any_dataRKSD_St18_Manager_operation@Base 4.0~bzr753
 _ZNSt14_Function_base13_Base_managerIN4sigc18bound_mem_functor2IbN3nux8PropertyINS3_9ObjectPtrINS3_11BaseTextureEEEEERS7_RKS7_EEE10_M_managerERSt9_Any_dataRKSE_St18_Manager_operation@Base 4.0~bzr753
 _ZNSt14_Function_base13_Base_managerIN4sigc18bound_mem_functor2IbN3nux8PropertyINS3_9ObjectPtrINS3_14CoverflowModelEEEEERS7_RKS7_EEE10_M_managerERSt9_Any_dataRKSE_St18_Manager_operation@Base 4.0~bzr753
 _ZNSt14_Function_base13_Base_managerIN4sigc18bound_mem_functor2IbN3nux8PropertyISsEERSsRKSsEEE10_M_managerERSt9_Any_dataRKSB_St18_Manager_operation@Base 4.0~bzr753
 _ZNSt14_Function_base13_Base_managerIN4sigc18bound_mem_functor2IbN3nux8PropertyIbEERbRKbEEE10_M_managerERSt9_Any_dataRKSB_St18_Manager_operation@Base 4.0~bzr753
 _ZNSt14_Function_base13_Base_managerIN4sigc18bound_mem_functor2IbN3nux8PropertyIfEERfRKfEEE10_M_managerERSt9_Any_dataRKSB_St18_Manager_operation@Base 4.0~bzr753
 _ZNSt14_Function_base13_Base_managerIN4sigc18bound_mem_functor2IbN3nux8PropertyIiEERiRKiEEE10_M_managerERSt9_Any_dataRKSB_St18_Manager_operation@Base 4.0~bzr753
 _ZNSt14_Function_base13_Base_managerIN4sigc18bound_mem_functor2IbN3nux8PropertyIjEERjRKjEEE10_M_managerERSt9_Any_dataRKSB_St18_Manager_operation@Base 4.0~bzr753
 _ZNSt14_Function_base13_Base_managerISt5_BindIFSt7_Mem_fnIM15ProgramTemplateFvvEEPS3_EEE10_M_managerERSt9_Any_dataRKSB_St18_Manager_operation@Base 4.0.0
 _ZNSt15_Sp_counted_ptrIPN3nux13LayeredLayout22LayeredChildPropertiesELN9__gnu_cxx12_Lock_policyE2EE10_M_destroyEv@Base 4.0~bzr753
 _ZNSt15_Sp_counted_ptrIPN3nux13LayeredLayout22LayeredChildPropertiesELN9__gnu_cxx12_Lock_policyE2EE10_M_disposeEv@Base 4.0~bzr753
 _ZNSt15_Sp_counted_ptrIPN3nux13LayeredLayout22LayeredChildPropertiesELN9__gnu_cxx12_Lock_policyE2EE14_M_get_deleterERKSt9type_info@Base 4.0~bzr753
 _ZNSt15_Sp_counted_ptrIPN3nux13LayeredLayout22LayeredChildPropertiesELN9__gnu_cxx12_Lock_policyE2EED0Ev@Base 4.0~bzr753
 _ZNSt15_Sp_counted_ptrIPN3nux13LayeredLayout22LayeredChildPropertiesELN9__gnu_cxx12_Lock_policyE2EED1Ev@Base 4.0~bzr753
 _ZNSt15_Sp_counted_ptrIPN3nux13LayeredLayout22LayeredChildPropertiesELN9__gnu_cxx12_Lock_policyE2EED2Ev@Base 4.0~bzr753
 _ZNSt15_Sp_counted_ptrIPN3nux15InputAreaTargetELN9__gnu_cxx12_Lock_policyE2EE10_M_destroyEv@Base 4.0~bzr753
 _ZNSt15_Sp_counted_ptrIPN3nux15InputAreaTargetELN9__gnu_cxx12_Lock_policyE2EE10_M_disposeEv@Base 4.0~bzr753
 _ZNSt15_Sp_counted_ptrIPN3nux15InputAreaTargetELN9__gnu_cxx12_Lock_policyE2EE14_M_get_deleterERKSt9type_info@Base 4.0~bzr753
 _ZNSt15_Sp_counted_ptrIPN3nux15InputAreaTargetELN9__gnu_cxx12_Lock_policyE2EED0Ev@Base 4.0~bzr753
 _ZNSt15_Sp_counted_ptrIPN3nux15InputAreaTargetELN9__gnu_cxx12_Lock_policyE2EED1Ev@Base 4.0~bzr753
 _ZNSt15_Sp_counted_ptrIPN3nux15InputAreaTargetELN9__gnu_cxx12_Lock_policyE2EED2Ev@Base 4.0~bzr753
 _ZNSt15_Sp_counted_ptrIPN3nux20GesturesSubscriptionELN9__gnu_cxx12_Lock_policyE2EE10_M_destroyEv@Base 4.0~bzr753
 _ZNSt15_Sp_counted_ptrIPN3nux20GesturesSubscriptionELN9__gnu_cxx12_Lock_policyE2EE10_M_disposeEv@Base 4.0~bzr753
 _ZNSt15_Sp_counted_ptrIPN3nux20GesturesSubscriptionELN9__gnu_cxx12_Lock_policyE2EE14_M_get_deleterERKSt9type_info@Base 4.0~bzr753
 _ZNSt15_Sp_counted_ptrIPN3nux20GesturesSubscriptionELN9__gnu_cxx12_Lock_policyE2EED0Ev@Base 4.0~bzr753
 _ZNSt15_Sp_counted_ptrIPN3nux20GesturesSubscriptionELN9__gnu_cxx12_Lock_policyE2EED1Ev@Base 4.0~bzr753
 _ZNSt15_Sp_counted_ptrIPN3nux20GesturesSubscriptionELN9__gnu_cxx12_Lock_policyE2EED2Ev@Base 4.0~bzr753
 _ZNSt15_Sp_counted_ptrIPN3nux7GestureELN9__gnu_cxx12_Lock_policyE2EE10_M_destroyEv@Base 4.0~bzr753
 _ZNSt15_Sp_counted_ptrIPN3nux7GestureELN9__gnu_cxx12_Lock_policyE2EE10_M_disposeEv@Base 4.0~bzr753
 _ZNSt15_Sp_counted_ptrIPN3nux7GestureELN9__gnu_cxx12_Lock_policyE2EE14_M_get_deleterERKSt9type_info@Base 4.0~bzr753
 _ZNSt15_Sp_counted_ptrIPN3nux7GestureELN9__gnu_cxx12_Lock_policyE2EED0Ev@Base 4.0~bzr753
 _ZNSt15_Sp_counted_ptrIPN3nux7GestureELN9__gnu_cxx12_Lock_policyE2EED1Ev@Base 4.0~bzr753
 _ZNSt15_Sp_counted_ptrIPN3nux7GestureELN9__gnu_cxx12_Lock_policyE2EED2Ev@Base 4.0~bzr753
 _ZNSt15basic_stringbufIcSt11char_traitsIcESaIcEED0Ev@Base 4.0~bzr753
 _ZNSt15basic_stringbufIcSt11char_traitsIcESaIcEED1Ev@Base 4.0~bzr753
 _ZNSt15basic_stringbufIcSt11char_traitsIcESaIcEED2Ev@Base 4.0~bzr753
 _ZNSt16_Sp_counted_baseILN9__gnu_cxx12_Lock_policyE2EE10_M_destroyEv@Base 4.0~bzr753
 _ZNSt16_Sp_counted_baseILN9__gnu_cxx12_Lock_policyE2EE10_M_releaseEv@Base 4.0~bzr753
 _ZNSt16_Sp_counted_baseILN9__gnu_cxx12_Lock_policyE2EED0Ev@Base 4.0~bzr753
 _ZNSt16_Sp_counted_baseILN9__gnu_cxx12_Lock_policyE2EED1Ev@Base 4.0~bzr753
 _ZNSt16_Sp_counted_baseILN9__gnu_cxx12_Lock_policyE2EED2Ev@Base 4.0~bzr753
 _ZNSt17_Function_handlerIFbRN3nux10TextLoader13TextAlignmentERKS2_EN4sigc18bound_mem_functor2IbNS0_8PropertyIS2_EES3_S5_EEE9_M_invokeERKSt9_Any_dataS3_S5_@Base 4.0~bzr753
 _ZNSt17_Function_handlerIFbRN3nux5color5ColorERKS2_EN4sigc18bound_mem_functor2IbNS0_8PropertyIS2_EES3_S5_EEE9_M_invokeERKSt9_Any_dataS3_S5_@Base 4.0~bzr753
 _ZNSt17_Function_handlerIFbRN3nux9ObjectPtrINS0_11BaseTextureEEERKS3_EN4sigc18bound_mem_functor2IbNS0_8PropertyIS3_EES4_S6_EEE9_M_invokeERKSt9_Any_dataS4_S6_@Base 4.0~bzr753
 _ZNSt17_Function_handlerIFbRN3nux9ObjectPtrINS0_14CoverflowModelEEERKS3_EN4sigc18bound_mem_functor2IbNS0_8PropertyIS3_EES4_S6_EEE9_M_invokeERKSt9_Any_dataS4_S6_@Base 4.0~bzr753
 _ZNSt17_Function_handlerIFbRSsRKSsEN4sigc18bound_mem_functor2IbN3nux8PropertyISsEES0_S2_EEE9_M_invokeERKSt9_Any_dataS0_S2_@Base 4.0~bzr753
 _ZNSt17_Function_handlerIFbRbRKbEN4sigc18bound_mem_functor2IbN3nux8PropertyIbEES0_S2_EEE9_M_invokeERKSt9_Any_dataS0_S2_@Base 4.0~bzr753
 _ZNSt17_Function_handlerIFbRfRKfEN4sigc18bound_mem_functor2IbN3nux8PropertyIfEES0_S2_EEE9_M_invokeERKSt9_Any_dataS0_S2_@Base 4.0~bzr753
 _ZNSt17_Function_handlerIFbRiRKiEN4sigc18bound_mem_functor2IbN3nux8PropertyIiEES0_S2_EEE9_M_invokeERKSt9_Any_dataS0_S2_@Base 4.0~bzr753
 _ZNSt17_Function_handlerIFbRjRKjEN4sigc18bound_mem_functor2IbN3nux8PropertyIjEES0_S2_EEE9_M_invokeERKSt9_Any_dataS0_S2_@Base 4.0~bzr753
 _ZNSt17_Function_handlerIFvvESt5_BindIFSt7_Mem_fnIM15ProgramTemplateFvvEEPS3_EEE9_M_invokeERKSt9_Any_data@Base 4.0.0
 _ZNSt3mapIPN3nux10BaseWindowENS0_16WindowCompositor20RenderTargetTexturesESt4lessIS2_ESaISt4pairIKS2_S4_EEEixERS8_@Base 4.0~bzr753
 _ZNSt4listIN3nux13ObjectWeakPtrINS0_10BaseWindowEEESaIS3_EE10push_frontEOS3_@Base 4.0~bzr753
 _ZNSt4listIN3nux13ObjectWeakPtrINS0_10BaseWindowEEESaIS3_EE10push_frontERKS3_@Base 4.0~bzr753
 _ZNSt4listIN3nux13ObjectWeakPtrINS0_10BaseWindowEEESaIS3_EE14_M_create_nodeIIRKS3_EEEPSt10_List_nodeIS3_EDpOT_@Base 4.0~bzr753
 _ZNSt4listIN3nux13ObjectWeakPtrINS0_10BaseWindowEEESaIS3_EE14_M_create_nodeIIS3_EEEPSt10_List_nodeIS3_EDpOT_@Base 4.0~bzr753
 _ZNSt4listIN3nux13ObjectWeakPtrINS0_10BaseWindowEEESaIS3_EE14_M_create_nodeIJRKS3_EEEPSt10_List_nodeIS3_EDpOT_@Base 4.0~bzr753
 _ZNSt4listIN3nux13ObjectWeakPtrINS0_10BaseWindowEEESaIS3_EE14_M_create_nodeIJS3_EEEPSt10_List_nodeIS3_EDpOT_@Base 4.0~bzr753
 _ZNSt4listIN3nux4RectESaIS1_EED1Ev@Base 4.0~bzr753
 _ZNSt4listIN3nux4RectESaIS1_EED2Ev@Base 4.0~bzr753
 _ZNSt4listIN3nux4RectESaIS1_EEaSERKS3_@Base 4.0~bzr753
 _ZNSt4listIPN3nux18InputAreaProximityESaIS2_EE6removeERKS2_@Base 4.0~bzr753
 _ZNSt4listIPN3nux4AreaESaIS2_EE6insertESt14_List_iteratorIS2_ERKS2_@Base 4.0~bzr753
 _ZNSt4listIPN3nux8MenuPageESaIS2_EE10push_frontERKS2_@Base 4.0~bzr753
 _ZNSt4listIPN3nux9InputAreaESaIS2_EE10push_frontERKS2_@Base 4.0~bzr753
 _ZNSt4pairIKPN3nux4AreaESt10shared_ptrINS0_13LayeredLayout22LayeredChildPropertiesEEED1Ev@Base 4.0~bzr753
 _ZNSt4pairIKPN3nux4AreaESt10shared_ptrINS0_13LayeredLayout22LayeredChildPropertiesEEED2Ev@Base 4.0~bzr753
 _ZNSt4pairIKSt10shared_ptrIN3nux13GestureTargetEEN4sigc10connectionEED1Ev@Base 4.0~bzr753
 _ZNSt4pairIKSt10shared_ptrIN3nux13GestureTargetEEN4sigc10connectionEED2Ev@Base 4.0~bzr753
 _ZNSt4pairIKSt10shared_ptrIN3nux7GestureEEN4sigc10connectionEED1Ev@Base 4.0~bzr753
 _ZNSt4pairIKSt10shared_ptrIN3nux7GestureEEN4sigc10connectionEED2Ev@Base 4.0~bzr753
 _ZNSt4pairIKiSt10shared_ptrIN3nux7GestureEEED1Ev@Base 4.0~bzr753
 _ZNSt4pairIKiSt10shared_ptrIN3nux7GestureEEED2Ev@Base 4.0~bzr753
 _ZNSt4pairIiSt10shared_ptrIN3nux7GestureEEED1Ev@Base 4.0~bzr753
 _ZNSt4pairIiSt10shared_ptrIN3nux7GestureEEED2Ev@Base 4.0~bzr753
 _ZNSt6vectorIN3nux10TouchPointESaIS1_EE19_M_emplace_back_auxIIRKS1_EEEvDpOT_@Base 4.0~bzr753
 _ZNSt6vectorIN3nux10TouchPointESaIS1_EE19_M_emplace_back_auxIJRKS1_EEEvDpOT_@Base 4.0~bzr753
 _ZNSt6vectorIN3nux10TouchPointESaIS1_EEaSERKS3_@Base 4.0~bzr753
 _ZNSt6vectorIN3nux12GestureEventESaIS1_EE19_M_emplace_back_auxIIRKS1_EEEvDpOT_@Base 4.0~bzr753
 _ZNSt6vectorIN3nux12GestureEventESaIS1_EE19_M_emplace_back_auxIJRKS1_EEEvDpOT_@Base 4.0~bzr753
 _ZNSt6vectorIN3nux13ObjectWeakPtrINS0_11RadioButtonEEESaIS3_EE12emplace_backIIS3_EEEvDpOT_@Base 4.0~bzr753
 _ZNSt6vectorIN3nux13ObjectWeakPtrINS0_11RadioButtonEEESaIS3_EE12emplace_backIJS3_EEEvDpOT_@Base 4.0~bzr753
 _ZNSt6vectorIN3nux13ObjectWeakPtrINS0_11RadioButtonEEESaIS3_EE19_M_emplace_back_auxIIS3_EEEvDpOT_@Base 4.0~bzr753
 _ZNSt6vectorIN3nux13ObjectWeakPtrINS0_11RadioButtonEEESaIS3_EE19_M_emplace_back_auxIJS3_EEEvDpOT_@Base 4.0~bzr753
 _ZNSt6vectorIN3nux13ObjectWeakPtrINS0_11RadioButtonEEESaIS3_EE5eraseEN9__gnu_cxx17__normal_iteratorIPS3_S5_EE@Base 4.0~bzr753
 _ZNSt6vectorIN3nux4RectESaIS1_EE19_M_emplace_back_auxIIRKS1_EEEvDpOT_@Base 4.0~bzr753
 _ZNSt6vectorIN3nux4RectESaIS1_EE19_M_emplace_back_auxIJRKS1_EEEvDpOT_@Base 4.0~bzr753
 _ZNSt6vectorIN3nux4RectESaIS1_EED1Ev@Base 4.0~bzr753
 _ZNSt6vectorIN3nux4RectESaIS1_EED2Ev@Base 4.0~bzr753
 _ZNSt6vectorIN3nux5EventESaIS1_EE19_M_emplace_back_auxIIRKS1_EEEvDpOT_@Base 4.0~bzr753
 _ZNSt6vectorIN3nux5EventESaIS1_EE19_M_emplace_back_auxIJRKS1_EEEvDpOT_@Base 4.0~bzr753
 _ZNSt6vectorIN3nux5EventESaIS1_EED1Ev@Base 4.0~bzr753
 _ZNSt6vectorIN3nux5EventESaIS1_EED2Ev@Base 4.0~bzr753
 _ZNSt6vectorIN3nux9ObjectPtrINS0_13CoverflowItemEEESaIS3_EE13_M_insert_auxIIRKS3_EEEvN9__gnu_cxx17__normal_iteratorIPS3_S5_EEDpOT_@Base 4.0~bzr753
 _ZNSt6vectorIN3nux9ObjectPtrINS0_13CoverflowItemEEESaIS3_EE13_M_insert_auxIIS3_EEEvN9__gnu_cxx17__normal_iteratorIPS3_S5_EEDpOT_@Base 4.0~bzr753
 _ZNSt6vectorIN3nux9ObjectPtrINS0_13CoverflowItemEEESaIS3_EE13_M_insert_auxIJRKS3_EEEvN9__gnu_cxx17__normal_iteratorIPS3_S5_EEDpOT_@Base 4.0~bzr753
 _ZNSt6vectorIN3nux9ObjectPtrINS0_13CoverflowItemEEESaIS3_EE13_M_insert_auxIJS3_EEEvN9__gnu_cxx17__normal_iteratorIPS3_S5_EEDpOT_@Base 4.0~bzr753
 _ZNSt6vectorIN3nux9ObjectPtrINS0_13CoverflowItemEEESaIS3_EE19_M_emplace_back_auxIIRKS3_EEEvDpOT_@Base 4.0~bzr753
 _ZNSt6vectorIN3nux9ObjectPtrINS0_13CoverflowItemEEESaIS3_EE19_M_emplace_back_auxIJRKS3_EEEvDpOT_@Base 4.0~bzr753
 _ZNSt6vectorIN3nux9ObjectPtrINS0_13CoverflowItemEEESaIS3_EE6insertEN9__gnu_cxx17__normal_iteratorIPS3_S5_EERKS3_@Base 4.0~bzr753
 _ZNSt6vectorIPKcSaIS1_EE12emplace_backIIS1_EEEvDpOT_@Base 4.0~bzr753
 _ZNSt6vectorIPKcSaIS1_EE12emplace_backIJS1_EEEvDpOT_@Base 4.0~bzr753
 _ZNSt6vectorIPKcSaIS1_EE19_M_emplace_back_auxIIS1_EEEvDpOT_@Base 4.0~bzr753
 _ZNSt6vectorIPKcSaIS1_EE19_M_emplace_back_auxIJS1_EEEvDpOT_@Base 4.0~bzr753
 _ZNSt6vectorIPKcSaIS1_EED1Ev@Base 4.0~bzr753
 _ZNSt6vectorIPKcSaIS1_EED2Ev@Base 4.0~bzr753
 _ZNSt6vectorIPN3nux13MenuSeparatorESaIS2_EE19_M_emplace_back_auxIIRKS2_EEEvDpOT_@Base 4.0~bzr753
 _ZNSt6vectorIPN3nux13MenuSeparatorESaIS2_EE19_M_emplace_back_auxIJRKS2_EEEvDpOT_@Base 4.0~bzr753
 _ZNSt6vectorIPN3nux13MenuSeparatorESaIS2_EED1Ev@Base 4.0~bzr753
 _ZNSt6vectorIPN3nux13MenuSeparatorESaIS2_EED2Ev@Base 4.0~bzr753
 _ZNSt6vectorIPN3nux4AreaESaIS2_EE19_M_emplace_back_auxIIRKS2_EEEvDpOT_@Base 4.0~bzr753
 _ZNSt6vectorIPN3nux4AreaESaIS2_EE19_M_emplace_back_auxIJRKS2_EEEvDpOT_@Base 4.0~bzr753
 _ZNSt6vectorIPN3nux4AreaESaIS2_EED1Ev@Base 4.0~bzr753
 _ZNSt6vectorIPN3nux4AreaESaIS2_EED2Ev@Base 4.0~bzr753
 _ZNSt6vectorIPN3nux7NThreadESaIS2_EE19_M_emplace_back_auxIIRKS2_EEEvDpOT_@Base 4.0~bzr753
 _ZNSt6vectorIPN3nux7NThreadESaIS2_EE19_M_emplace_back_auxIJRKS2_EEEvDpOT_@Base 4.0~bzr753
 _ZNSt6vectorIPN3nux7NThreadESaIS2_EED1Ev@Base 4.0~bzr753
 _ZNSt6vectorIPN3nux7NThreadESaIS2_EED2Ev@Base 4.0~bzr753
 _ZNSt6vectorIPN3nux7TabView10TabElementESaIS3_EE19_M_emplace_back_auxIIRKS3_EEEvDpOT_@Base 4.0~bzr753
 _ZNSt6vectorIPN3nux7TabView10TabElementESaIS3_EE19_M_emplace_back_auxIJRKS3_EEEvDpOT_@Base 4.0~bzr753
 _ZNSt6vectorIPN3nux7TabView10TabElementESaIS3_EED1Ev@Base 4.0~bzr753
 _ZNSt6vectorIPN3nux7TabView10TabElementESaIS3_EED2Ev@Base 4.0~bzr753
 _ZNSt6vectorIPN3nux8MenuItemESaIS2_EE19_M_emplace_back_auxIIRKS2_EEEvDpOT_@Base 4.0~bzr753
 _ZNSt6vectorIPN3nux8MenuItemESaIS2_EE19_M_emplace_back_auxIJRKS2_EEEvDpOT_@Base 4.0~bzr753
 _ZNSt6vectorIPN3nux8MenuItemESaIS2_EED1Ev@Base 4.0~bzr753
 _ZNSt6vectorIPN3nux8MenuItemESaIS2_EED2Ev@Base 4.0~bzr753
 _ZNSt6vectorIPN3nux9BasicViewESaIS2_EE19_M_emplace_back_auxIIRKS2_EEEvDpOT_@Base 4.0~bzr753
 _ZNSt6vectorIPN3nux9BasicViewESaIS2_EE19_M_emplace_back_auxIJRKS2_EEEvDpOT_@Base 4.0~bzr753
 _ZNSt6vectorIPN3nux9BasicViewESaIS2_EED1Ev@Base 4.0~bzr753
 _ZNSt6vectorIPN3nux9BasicViewESaIS2_EED2Ev@Base 4.0~bzr753
 _ZNSt6vectorISt10shared_ptrIN3nux13GestureTargetEESaIS3_EE19_M_emplace_back_auxIIS3_EEEvDpOT_@Base 4.0~bzr753
 _ZNSt6vectorISt10shared_ptrIN3nux13GestureTargetEESaIS3_EE19_M_emplace_back_auxIJS3_EEEvDpOT_@Base 4.0~bzr753
 _ZNSt6vectorISt10shared_ptrIN3nux13GestureTargetEESaIS3_EED1Ev@Base 4.0~bzr753
 _ZNSt6vectorISt10shared_ptrIN3nux13GestureTargetEESaIS3_EED2Ev@Base 4.0~bzr753
 _ZNSt6vectorISt10shared_ptrIN3nux7GestureEESaIS3_EE19_M_emplace_back_auxIIRKS3_EEEvDpOT_@Base 4.0~bzr753
 _ZNSt6vectorISt10shared_ptrIN3nux7GestureEESaIS3_EE19_M_emplace_back_auxIJRKS3_EEEvDpOT_@Base 4.0~bzr753
 _ZNSt6vectorISt10shared_ptrIN3nux7GestureEESaIS3_EED1Ev@Base 4.0~bzr753
 _ZNSt6vectorISt10shared_ptrIN3nux7GestureEESaIS3_EED2Ev@Base 4.0~bzr753
 _ZNSt6vectorIfSaIfEE19_M_emplace_back_auxIIRKfEEEvDpOT_@Base 4.0~bzr753
 _ZNSt6vectorIfSaIfEE19_M_emplace_back_auxIJRKfEEEvDpOT_@Base 4.0~bzr753
 _ZNSt6vectorIfSaIfEED1Ev@Base 4.0~bzr753
 _ZNSt6vectorIfSaIfEED2Ev@Base 4.0~bzr753
 _ZNSt6vectorIiSaIiEE19_M_emplace_back_auxIIiEEEvDpOT_@Base 4.0~bzr753
 _ZNSt6vectorIiSaIiEE19_M_emplace_back_auxIJiEEEvDpOT_@Base 4.0~bzr753
 _ZNSt6vectorImSaImEE19_M_emplace_back_auxIIRKmEEEvDpOT_@Base 4.0~bzr753
 _ZNSt6vectorImSaImEE19_M_emplace_back_auxIJRKmEEEvDpOT_@Base 4.0~bzr753
 _ZNSt6vectorImSaImEED1Ev@Base 4.0~bzr753
 _ZNSt6vectorImSaImEED2Ev@Base 4.0~bzr753
 _ZNSt8_Rb_treeIPN3nux10BaseWindowESt4pairIKS2_NS0_16WindowCompositor20RenderTargetTexturesEESt10_Select1stIS7_ESt4lessIS2_ESaIS7_EE10_M_insert_IS7_EESt17_Rb_tree_iteratorIS7_EPKSt18_Rb_tree_node_baseSJ_OT_@Base 4.0~bzr753
 _ZNSt8_Rb_treeIPN3nux10BaseWindowESt4pairIKS2_NS0_16WindowCompositor20RenderTargetTexturesEESt10_Select1stIS7_ESt4lessIS2_ESaIS7_EE12_M_erase_auxESt23_Rb_tree_const_iteratorIS7_ESF_@Base 4.0~bzr753
 _ZNSt8_Rb_treeIPN3nux10BaseWindowESt4pairIKS2_NS0_16WindowCompositor20RenderTargetTexturesEESt10_Select1stIS7_ESt4lessIS2_ESaIS7_EE16_M_insert_uniqueIS7_EES3_ISt17_Rb_tree_iteratorIS7_EbEOT_@Base 4.0~bzr753
 _ZNSt8_Rb_treeIPN3nux10BaseWindowESt4pairIKS2_NS0_16WindowCompositor20RenderTargetTexturesEESt10_Select1stIS7_ESt4lessIS2_ESaIS7_EE17_M_insert_unique_IS7_EESt17_Rb_tree_iteratorIS7_ESt23_Rb_tree_const_iteratorIS7_EOT_@Base 4.0~bzr753
 _ZNSt8_Rb_treeIPN3nux10BaseWindowESt4pairIKS2_NS0_16WindowCompositor20RenderTargetTexturesEESt10_Select1stIS7_ESt4lessIS2_ESaIS7_EE4findERS4_@Base 4.0~bzr753
 _ZNSt8_Rb_treeIPN3nux10BaseWindowESt4pairIKS2_NS0_16WindowCompositor20RenderTargetTexturesEESt10_Select1stIS7_ESt4lessIS2_ESaIS7_EE5eraseERS4_@Base 4.0~bzr753
 _ZNSt8_Rb_treeIPN3nux10BaseWindowESt4pairIKS2_NS0_16WindowCompositor20RenderTargetTexturesEESt10_Select1stIS7_ESt4lessIS2_ESaIS7_EE8_M_eraseEPSt13_Rb_tree_nodeIS7_E@Base 4.0~bzr753
 _ZNSt8_Rb_treeIPN3nux4AreaESt4pairIKS2_St10shared_ptrINS0_13LayeredLayout22LayeredChildPropertiesEEESt10_Select1stIS9_ESt4lessIS2_ESaIS9_EE10_M_insert_IS9_EESt17_Rb_tree_iteratorIS9_EPKSt18_Rb_tree_node_baseSL_OT_@Base 4.0~bzr753
 _ZNSt8_Rb_treeIPN3nux4AreaESt4pairIKS2_St10shared_ptrINS0_13LayeredLayout22LayeredChildPropertiesEEESt10_Select1stIS9_ESt4lessIS2_ESaIS9_EE12_M_erase_auxESt23_Rb_tree_const_iteratorIS9_E@Base 4.0.0
 _ZNSt8_Rb_treeIPN3nux4AreaESt4pairIKS2_St10shared_ptrINS0_13LayeredLayout22LayeredChildPropertiesEEESt10_Select1stIS9_ESt4lessIS2_ESaIS9_EE16_M_insert_uniqueIS9_EES3_ISt17_Rb_tree_iteratorIS9_EbEOT_@Base 4.0~bzr753
 _ZNSt8_Rb_treeIPN3nux4AreaESt4pairIKS2_St10shared_ptrINS0_13LayeredLayout22LayeredChildPropertiesEEESt10_Select1stIS9_ESt4lessIS2_ESaIS9_EE17_M_insert_unique_IS9_EESt17_Rb_tree_iteratorIS9_ESt23_Rb_tree_const_iteratorIS9_EOT_@Base 4.0~bzr753
 _ZNSt8_Rb_treeIPN3nux4AreaESt4pairIKS2_St10shared_ptrINS0_13LayeredLayout22LayeredChildPropertiesEEESt10_Select1stIS9_ESt4lessIS2_ESaIS9_EE4findERS4_@Base 4.0~bzr753
 _ZNSt8_Rb_treeIPN3nux4AreaESt4pairIKS2_St10shared_ptrINS0_13LayeredLayout22LayeredChildPropertiesEEESt10_Select1stIS9_ESt4lessIS2_ESaIS9_EE8_M_eraseEPSt13_Rb_tree_nodeIS9_E@Base 4.0~bzr753
 _ZNSt8_Rb_treeISt10shared_ptrIN3nux13GestureTargetEESt4pairIKS3_N4sigc10connectionEESt10_Select1stIS8_ESt4lessIS3_ESaIS8_EE10_M_insert_IS8_EESt17_Rb_tree_iteratorIS8_EPKSt18_Rb_tree_node_baseSK_OT_@Base 4.0~bzr753
 _ZNSt8_Rb_treeISt10shared_ptrIN3nux13GestureTargetEESt4pairIKS3_N4sigc10connectionEESt10_Select1stIS8_ESt4lessIS3_ESaIS8_EE16_M_insert_uniqueIS8_EES4_ISt17_Rb_tree_iteratorIS8_EbEOT_@Base 4.0~bzr753
 _ZNSt8_Rb_treeISt10shared_ptrIN3nux13GestureTargetEESt4pairIKS3_N4sigc10connectionEESt10_Select1stIS8_ESt4lessIS3_ESaIS8_EE17_M_insert_unique_IS8_EESt17_Rb_tree_iteratorIS8_ESt23_Rb_tree_const_iteratorIS8_EOT_@Base 4.0~bzr753
 _ZNSt8_Rb_treeISt10shared_ptrIN3nux13GestureTargetEESt4pairIKS3_N4sigc10connectionEESt10_Select1stIS8_ESt4lessIS3_ESaIS8_EE8_M_eraseEPSt13_Rb_tree_nodeIS8_E@Base 4.0~bzr753
 _ZNSt8_Rb_treeISt10shared_ptrIN3nux7GestureEESt4pairIKS3_N4sigc10connectionEESt10_Select1stIS8_ESt4lessIS3_ESaIS8_EE10_M_insert_IS8_EESt17_Rb_tree_iteratorIS8_EPKSt18_Rb_tree_node_baseSK_OT_@Base 4.0~bzr753
 _ZNSt8_Rb_treeISt10shared_ptrIN3nux7GestureEESt4pairIKS3_N4sigc10connectionEESt10_Select1stIS8_ESt4lessIS3_ESaIS8_EE16_M_insert_uniqueIS8_EES4_ISt17_Rb_tree_iteratorIS8_EbEOT_@Base 4.0~bzr753
 _ZNSt8_Rb_treeISt10shared_ptrIN3nux7GestureEESt4pairIKS3_N4sigc10connectionEESt10_Select1stIS8_ESt4lessIS3_ESaIS8_EE17_M_insert_unique_IS8_EESt17_Rb_tree_iteratorIS8_ESt23_Rb_tree_const_iteratorIS8_EOT_@Base 4.0~bzr753
 _ZNSt8_Rb_treeISt10shared_ptrIN3nux7GestureEESt4pairIKS3_N4sigc10connectionEESt10_Select1stIS8_ESt4lessIS3_ESaIS8_EE8_M_eraseEPSt13_Rb_tree_nodeIS8_E@Base 4.0~bzr753
 _ZNSt8_Rb_treeIiSt4pairIKiN3nux11GeisAdapter6DeviceEESt10_Select1stIS5_ESt4lessIiESaIS5_EE10_M_insert_IS5_EESt17_Rb_tree_iteratorIS5_EPKSt18_Rb_tree_node_baseSH_OT_@Base 4.0~bzr753
 _ZNSt8_Rb_treeIiSt4pairIKiN3nux11GeisAdapter6DeviceEESt10_Select1stIS5_ESt4lessIiESaIS5_EE16_M_insert_uniqueIS5_EES0_ISt17_Rb_tree_iteratorIS5_EbEOT_@Base 4.0~bzr753
 _ZNSt8_Rb_treeIiSt4pairIKiN3nux11GeisAdapter6DeviceEESt10_Select1stIS5_ESt4lessIiESaIS5_EE17_M_insert_unique_IS5_EESt17_Rb_tree_iteratorIS5_ESt23_Rb_tree_const_iteratorIS5_EOT_@Base 4.0~bzr753
 _ZNSt8_Rb_treeIiSt4pairIKiN3nux11GeisAdapter6DeviceEESt10_Select1stIS5_ESt4lessIiESaIS5_EE5eraseERS1_@Base 4.0~bzr753
 _ZNSt8_Rb_treeIiSt4pairIKiN3nux11GeisAdapter6DeviceEESt10_Select1stIS5_ESt4lessIiESaIS5_EE8_M_eraseEPSt13_Rb_tree_nodeIS5_E@Base 4.0~bzr753
 _ZNSt8_Rb_treeIiSt4pairIKiN3nux12WindowThread22_EventInspectorStorageEESt10_Select1stIS5_ESt4lessIiESaIS5_EE10_M_insert_IS5_EESt17_Rb_tree_iteratorIS5_EPKSt18_Rb_tree_node_baseSH_OT_@Base 4.0~bzr753
 _ZNSt8_Rb_treeIiSt4pairIKiN3nux12WindowThread22_EventInspectorStorageEESt10_Select1stIS5_ESt4lessIiESaIS5_EE16_M_insert_uniqueIS5_EES0_ISt17_Rb_tree_iteratorIS5_EbEOT_@Base 4.0~bzr753
 _ZNSt8_Rb_treeIiSt4pairIKiN3nux12WindowThread22_EventInspectorStorageEESt10_Select1stIS5_ESt4lessIiESaIS5_EE17_M_insert_unique_IS5_EESt17_Rb_tree_iteratorIS5_ESt23_Rb_tree_const_iteratorIS5_EOT_@Base 4.0~bzr753
 _ZNSt8_Rb_treeIiSt4pairIKiN3nux12WindowThread22_EventInspectorStorageEESt10_Select1stIS5_ESt4lessIiESaIS5_EE8_M_eraseEPSt13_Rb_tree_nodeIS5_E@Base 4.0~bzr753
 _ZNSt8_Rb_treeIiSt4pairIKiSt10shared_ptrIN3nux7GestureEEESt10_Select1stIS6_ESt4lessIiESaIS6_EE10_M_insert_IS0_IiS5_EEESt17_Rb_tree_iteratorIS6_EPKSt18_Rb_tree_node_baseSJ_OT_@Base 4.0~bzr753
 _ZNSt8_Rb_treeIiSt4pairIKiSt10shared_ptrIN3nux7GestureEEESt10_Select1stIS6_ESt4lessIiESaIS6_EE12_M_erase_auxESt23_Rb_tree_const_iteratorIS6_ESE_@Base 4.0~bzr753
 _ZNSt8_Rb_treeIiSt4pairIKiSt10shared_ptrIN3nux7GestureEEESt10_Select1stIS6_ESt4lessIiESaIS6_EE16_M_insert_uniqueIS0_IiS5_EEES0_ISt17_Rb_tree_iteratorIS6_EbEOT_@Base 4.0~bzr753
 _ZNSt8_Rb_treeIiSt4pairIKiSt10shared_ptrIN3nux7GestureEEESt10_Select1stIS6_ESt4lessIiESaIS6_EE17_M_insert_unique_IS0_IiS5_EEESt17_Rb_tree_iteratorIS6_ESt23_Rb_tree_const_iteratorIS6_EOT_@Base 4.0~bzr753
 _ZNSt8_Rb_treeIiSt4pairIKiSt10shared_ptrIN3nux7GestureEEESt10_Select1stIS6_ESt4lessIiESaIS6_EE5eraseERS1_@Base 4.0~bzr753
 _ZNSt8_Rb_treeIiSt4pairIKiSt10shared_ptrIN3nux7GestureEEESt10_Select1stIS6_ESt4lessIiESaIS6_EE8_M_eraseEPSt13_Rb_tree_nodeIS6_E@Base 4.0~bzr753
 _ZNSt8functionIFbRSsRKSsEEC1IN4sigc18bound_mem_functor2IbN3nux8PropertyISsEES0_S2_EEEET_NSt9enable_ifIXntsrSt11is_integralISC_E5valueENS4_8_UselessEE4typeE@Base 4.0~bzr753
 _ZNSt8functionIFbRSsRKSsEEC2IN4sigc18bound_mem_functor2IbN3nux8PropertyISsEES0_S2_EEEET_NSt9enable_ifIXntsrSt11is_integralISC_E5valueENS4_8_UselessEE4typeE@Base 4.0~bzr753
 _ZNSt8functionIFbRfRKfEEC1IN4sigc18bound_mem_functor2IbN3nux8PropertyIfEES0_S2_EEEET_NSt9enable_ifIXntsrSt11is_integralISC_E5valueENS4_8_UselessEE4typeE@Base 4.0~bzr753
 _ZNSt8functionIFbRfRKfEEC2IN4sigc18bound_mem_functor2IbN3nux8PropertyIfEES0_S2_EEEET_NSt9enable_ifIXntsrSt11is_integralISC_E5valueENS4_8_UselessEE4typeE@Base 4.0~bzr753
 _ZNSt8functionIFvRKN3nux4RectEP6_cairoEEC1ERKS7_@Base 4.0~bzr753
 _ZNSt8functionIFvRKN3nux4RectEP6_cairoEEC2ERKS7_@Base 4.0~bzr753
 _ZNSt8functionIFvvEEC1ERKS1_@Base 4.0.0
 _ZNSt8functionIFvvEEC2ERKS1_@Base 4.0.0
 _ZSt6__findIN9__gnu_cxx17__normal_iteratorIPN3nux9ObjectPtrINS2_13CoverflowItemEEESt6vectorIS5_SaIS5_EEEES5_ET_SB_SB_RKT0_St26random_access_iterator_tag@Base 4.0~bzr753
 _ZSt6__findIN9__gnu_cxx17__normal_iteratorIPPN3nux7NThreadESt6vectorIS4_SaIS4_EEEES4_ET_SA_SA_RKT0_St26random_access_iterator_tag@Base 4.0~bzr753
 _ZSt6removeIN9__gnu_cxx17__normal_iteratorIPN3nux9ObjectPtrINS2_13CoverflowItemEEESt6vectorIS5_SaIS5_EEEES5_ET_SB_SB_RKT0_@Base 4.0~bzr753
 _ZStplIcSt11char_traitsIcESaIcEESbIT_T0_T1_EOS6_PKS3_@Base 4.0.0
 _ZStplIcSt11char_traitsIcESaIcEESbIT_T0_T1_ERKS6_S8_@Base 4.0~bzr753
 _ZTI15ProgramTemplate@Base 4.0~bzr753
 _ZTIN3nux10ActionItemE@Base 4.0~bzr753
 _ZTIN3nux10BaseWindowE@Base 4.0~bzr753
 _ZTIN3nux10ClientAreaE@Base 4.0~bzr753
 _ZTIN3nux10ColorLayerE@Base 4.0~bzr753
 _ZTIN3nux10HScrollBarE@Base 4.0~bzr753
 _ZTIN3nux10RangeValueE@Base 4.0~bzr753
 _ZTIN3nux10ScrollViewE@Base 4.0~bzr753
 _ZTIN3nux10ShapeLayerE@Base 4.0~bzr753
 _ZTIN3nux10StaticTextE@Base 4.0~bzr753
 _ZTIN3nux10ToolButtonE@Base 4.0~bzr753
 _ZTIN3nux10VScrollBarE@Base 4.0~bzr753
 _ZTIN3nux11BasePainterE@Base 4.0~bzr753
 _ZTIN3nux11ColorEditorE@Base 4.0~bzr753
 _ZTIN3nux11EditTextBoxE@Base 4.0~bzr753
 _ZTIN3nux11GridHLayoutE@Base 4.0~bzr753
 _ZTIN3nux11MenuBarItemE@Base 4.0~bzr753
 _ZTIN3nux11PopUpWindowE@Base 4.0~bzr753
 _ZTIN3nux11RGBValuatorE@Base 4.0~bzr753
 _ZTIN3nux11RadioButtonE@Base 4.0~bzr753
 _ZTIN3nux11SpaceLayoutE@Base 4.0~bzr753
 _ZTIN3nux11TextureAreaE@Base 4.0~bzr753
 _ZTIN3nux12ColorPreviewE@Base 4.0~bzr753
 _ZTIN3nux12FileSelectorE@Base 4.0~bzr753
 _ZTIN3nux12LinearLayoutE@Base 4.0~bzr753
 _ZTIN3nux12SystemThreadE@Base 4.0~bzr753
 _ZTIN3nux12TextureLayerE@Base 4.0~bzr753
 _ZTIN3nux12ToggleButtonE@Base 4.0~bzr753
 _ZTIN3nux12WindowThreadE@Base 4.0~bzr753
 _ZTIN3nux13CoverflowItemE@Base 4.0~bzr753
 _ZTIN3nux13GestureBrokerE@Base 4.0~bzr753
 _ZTIN3nux13GestureTargetE@Base 4.0~bzr753
 _ZTIN3nux13LayeredLayoutE@Base 4.0~bzr753
 _ZTIN3nux13MenuSeparatorE@Base 4.0~bzr753
 _ZTIN3nux13MouseAreaCtrlE@Base 4.0~bzr753
 _ZTIN3nux13SpinBoxDoubleE@Base 4.0~bzr753
 _ZTIN3nux13SpinBox_LogicE@Base 4.0~bzr753
 _ZTIN3nux13StaticTextBoxE@Base 4.0~bzr753
 _ZTIN3nux13TestTextEntryE@Base 4.0~bzr753
 _ZTIN3nux14AbstractButtonE@Base 4.0~bzr753
 _ZTIN3nux14AbstractThreadE@Base 4.0~bzr753
 _ZTIN3nux14CoverflowModelE@Base 4.0~bzr753
 _ZTIN3nux14FloatingWindowE@Base 4.0~bzr753
 _ZTIN3nux14IBusIMEContextE@Base 4.0~bzr753
 _ZTIN3nux15DoubleValidatorE@Base 4.0~bzr753
 _ZTIN3nux15InputAreaTargetE@Base 4.0~bzr753
 _ZTIN3nux15KineticScrollerE@Base 4.0~bzr753
 _ZTIN3nux15NumericValuatorE@Base 4.0~bzr753
 _ZTIN3nux16AbstractComboBoxE@Base 4.0~bzr753
 _ZTIN3nux16CompositionLayerE@Base 4.0~bzr753
 _ZTIN3nux16IntegerValidatorE@Base 4.0~bzr753
 _ZTIN3nux16RadioButtonGroupE@Base 4.0~bzr753
 _ZTIN3nux17ColorPickerDialogE@Base 4.0~bzr753
 _ZTIN3nux17KineticScrollViewE@Base 4.0~bzr753
 _ZTIN3nux17RangeValueIntegerE@Base 4.0~bzr753
 _ZTIN3nux17kinetic_scrolling15TimerTickSourceE@Base 4.0~bzr753
 _ZTIN3nux17kinetic_scrolling19TickSourceInterfaceE@Base 4.0~bzr753
 _ZTIN3nux18AbstractPaintLayerE@Base 4.0~bzr753
 _ZTIN3nux18HexRegExpValidatorE@Base 4.0~bzr753
 _ZTIN3nux18InputAreaProximityE@Base 4.0~bzr753
 _ZTIN3nux18TimelineEaseInQuadE@Base 4.0~bzr753
 _ZTIN3nux19AnimatedTextureAreaE@Base 4.0~bzr753
 _ZTIN3nux19BaseKeyboardHandlerE@Base 4.0~bzr753
 _ZTIN3nux19KineticAxisScrollerE@Base 4.0~bzr753
 _ZTIN3nux19TimelineEaseInCubicE@Base 4.0~bzr753
 _ZTIN3nux19TimelineEaseOutQuadE@Base 4.0~bzr753
 _ZTIN3nux20DefaultGestureBrokerE@Base 4.0~bzr753
 _ZTIN3nux20GesturesSubscriptionE@Base 4.0~bzr753
 _ZTIN3nux20TimelineEaseOutCubicE@Base 4.0~bzr753
 _ZTIN3nux21AbstractCheckedButtonE@Base 4.0~bzr753
 _ZTIN3nux21TimelineEaseInOutQuadE@Base 4.0~bzr753
 _ZTIN3nux22TimelineEaseInOutCubicE@Base 4.0~bzr753
 _ZTIN3nux23SliceScaledTextureLayerE@Base 4.0~bzr753
 _ZTIN3nux4AreaE@Base 4.0~bzr753
 _ZTIN3nux4ViewE@Base 4.0~bzr753
 _ZTIN3nux5PanelE@Base 4.0~bzr753
 _ZTIN3nux6ButtonE@Base 4.0~bzr753
 _ZTIN3nux6CanvasE@Base 4.0~bzr753
 _ZTIN3nux6DialogE@Base 4.0~bzr753
 _ZTIN3nux6LayoutE@Base 4.0~bzr753
 _ZTIN3nux7HLayoutE@Base 4.0~bzr753
 _ZTIN3nux7MenuBarE@Base 4.0~bzr753
 _ZTIN3nux7SpinBoxE@Base 4.0~bzr753
 _ZTIN3nux7TabViewE@Base 4.0~bzr753
 _ZTIN3nux7VLayoutE@Base 4.0~bzr753
 _ZTIN3nux8CheckBoxE@Base 4.0~bzr753
 _ZTIN3nux8GroupBoxE@Base 4.0~bzr753
 _ZTIN3nux8MenuItemE@Base 4.0~bzr753
 _ZTIN3nux8MenuPageE@Base 4.0~bzr753
 _ZTIN3nux8TestViewE@Base 4.0~bzr753
 _ZTIN3nux8TimelineE@Base 4.0~bzr753
 _ZTIN3nux9BasicViewE@Base 4.0~bzr753
 _ZTIN3nux9CairoFontE@Base 4.0~bzr753
 _ZTIN3nux9CoverflowE@Base 4.0~bzr753
 _ZTIN3nux9GroupBox2E@Base 4.0~bzr753
 _ZTIN3nux9HSplitterE@Base 4.0~bzr753
 _ZTIN3nux9InputAreaE@Base 4.0~bzr753
 _ZTIN3nux9ScrollBarE@Base 4.0~bzr753
 _ZTIN3nux9TextEntryE@Base 4.0~bzr753
 _ZTIN3nux9VSplitterE@Base 4.0~bzr753
 _ZTIN3nux9ValidatorE@Base 4.0~bzr753
 _ZTIN4sigc12functor_baseE@Base 4.0~bzr753
 _ZTIN4sigc12mem_functor2IbN3nux8PropertyINS1_10TextLoader13TextAlignmentEEERS4_RKS4_EE@Base 4.0~bzr753
 _ZTIN4sigc12mem_functor2IbN3nux8PropertyINS1_5color5ColorEEERS4_RKS4_EE@Base 4.0~bzr753
 _ZTIN4sigc12mem_functor2IbN3nux8PropertyINS1_9ObjectPtrINS1_11BaseTextureEEEEERS5_RKS5_EE@Base 4.0~bzr753
 _ZTIN4sigc12mem_functor2IbN3nux8PropertyINS1_9ObjectPtrINS1_14CoverflowModelEEEEERS5_RKS5_EE@Base 4.0~bzr753
 _ZTIN4sigc12mem_functor2IbN3nux8PropertyISsEERSsRKSsEE@Base 4.0~bzr753
 _ZTIN4sigc12mem_functor2IbN3nux8PropertyIbEERbRKbEE@Base 4.0~bzr753
 _ZTIN4sigc12mem_functor2IbN3nux8PropertyIfEERfRKfEE@Base 4.0~bzr753
 _ZTIN4sigc12mem_functor2IbN3nux8PropertyIiEERiRKiEE@Base 4.0~bzr753
 _ZTIN4sigc12mem_functor2IbN3nux8PropertyIjEERjRKjEE@Base 4.0~bzr753
 _ZTIN4sigc18bound_mem_functor2IbN3nux8PropertyINS1_10TextLoader13TextAlignmentEEERS4_RKS4_EE@Base 4.0~bzr753
 _ZTIN4sigc18bound_mem_functor2IbN3nux8PropertyINS1_5color5ColorEEERS4_RKS4_EE@Base 4.0~bzr753
 _ZTIN4sigc18bound_mem_functor2IbN3nux8PropertyINS1_9ObjectPtrINS1_11BaseTextureEEEEERS5_RKS5_EE@Base 4.0~bzr753
 _ZTIN4sigc18bound_mem_functor2IbN3nux8PropertyINS1_9ObjectPtrINS1_14CoverflowModelEEEEERS5_RKS5_EE@Base 4.0~bzr753
 _ZTIN4sigc18bound_mem_functor2IbN3nux8PropertyISsEERSsRKSsEE@Base 4.0~bzr753
 _ZTIN4sigc18bound_mem_functor2IbN3nux8PropertyIbEERbRKbEE@Base 4.0~bzr753
 _ZTIN4sigc18bound_mem_functor2IbN3nux8PropertyIfEERfRKfEE@Base 4.0~bzr753
 _ZTIN4sigc18bound_mem_functor2IbN3nux8PropertyIiEERiRKiEE@Base 4.0~bzr753
 _ZTIN4sigc18bound_mem_functor2IbN3nux8PropertyIjEERjRKjEE@Base 4.0~bzr753
 _ZTIN4sigc9trackableE@Base 4.0~bzr753
 _ZTISt11_Mutex_baseILN9__gnu_cxx12_Lock_policyE2EE@Base 4.0~bzr753
 _ZTISt15_Sp_counted_ptrIPN3nux13LayeredLayout22LayeredChildPropertiesELN9__gnu_cxx12_Lock_policyE2EE@Base 4.0~bzr753
 _ZTISt15_Sp_counted_ptrIPN3nux15InputAreaTargetELN9__gnu_cxx12_Lock_policyE2EE@Base 4.0~bzr753
 _ZTISt15_Sp_counted_ptrIPN3nux20GesturesSubscriptionELN9__gnu_cxx12_Lock_policyE2EE@Base 4.0~bzr753
 _ZTISt15_Sp_counted_ptrIPN3nux7GestureELN9__gnu_cxx12_Lock_policyE2EE@Base 4.0~bzr753
 _ZTISt16_Sp_counted_baseILN9__gnu_cxx12_Lock_policyE2EE@Base 4.0~bzr753
 _ZTISt17_Weak_result_typeISt7_Mem_fnIM15ProgramTemplateFvvEEE@Base 4.0.0
 _ZTISt22_Maybe_get_result_typeILb1ESt7_Mem_fnIM15ProgramTemplateFvvEEE@Base 4.0.0
 _ZTISt22_Weak_result_type_implISt7_Mem_fnIM15ProgramTemplateFvvEEE@Base 4.0.0
 _ZTISt5_BindIFSt7_Mem_fnIM15ProgramTemplateFvvEEPS1_EE@Base 4.0.0
 _ZTS15ProgramTemplate@Base 4.0~bzr753
 _ZTSN3nux10ActionItemE@Base 4.0~bzr753
 _ZTSN3nux10BaseWindowE@Base 4.0~bzr753
 _ZTSN3nux10ClientAreaE@Base 4.0~bzr753
 _ZTSN3nux10ColorLayerE@Base 4.0~bzr753
 _ZTSN3nux10HScrollBarE@Base 4.0~bzr753
 _ZTSN3nux10RangeValueE@Base 4.0~bzr753
 _ZTSN3nux10ScrollViewE@Base 4.0~bzr753
 _ZTSN3nux10ShapeLayerE@Base 4.0~bzr753
 _ZTSN3nux10StaticTextE@Base 4.0~bzr753
 _ZTSN3nux10ToolButtonE@Base 4.0~bzr753
 _ZTSN3nux10VScrollBarE@Base 4.0~bzr753
 _ZTSN3nux11BasePainterE@Base 4.0~bzr753
 _ZTSN3nux11ColorEditorE@Base 4.0~bzr753
 _ZTSN3nux11EditTextBoxE@Base 4.0~bzr753
 _ZTSN3nux11GridHLayoutE@Base 4.0~bzr753
 _ZTSN3nux11MenuBarItemE@Base 4.0~bzr753
 _ZTSN3nux11PopUpWindowE@Base 4.0~bzr753
 _ZTSN3nux11RGBValuatorE@Base 4.0~bzr753
 _ZTSN3nux11RadioButtonE@Base 4.0~bzr753
 _ZTSN3nux11SpaceLayoutE@Base 4.0~bzr753
 _ZTSN3nux11TextureAreaE@Base 4.0~bzr753
 _ZTSN3nux12ColorPreviewE@Base 4.0~bzr753
 _ZTSN3nux12FileSelectorE@Base 4.0~bzr753
 _ZTSN3nux12LinearLayoutE@Base 4.0~bzr753
 _ZTSN3nux12SystemThreadE@Base 4.0~bzr753
 _ZTSN3nux12TextureLayerE@Base 4.0~bzr753
 _ZTSN3nux12ToggleButtonE@Base 4.0~bzr753
 _ZTSN3nux12WindowThreadE@Base 4.0~bzr753
 _ZTSN3nux13CoverflowItemE@Base 4.0~bzr753
 _ZTSN3nux13GestureBrokerE@Base 4.0~bzr753
 _ZTSN3nux13GestureTargetE@Base 4.0~bzr753
 _ZTSN3nux13LayeredLayoutE@Base 4.0~bzr753
 _ZTSN3nux13MenuSeparatorE@Base 4.0~bzr753
 _ZTSN3nux13MouseAreaCtrlE@Base 4.0~bzr753
 _ZTSN3nux13SpinBoxDoubleE@Base 4.0~bzr753
 _ZTSN3nux13SpinBox_LogicE@Base 4.0~bzr753
 _ZTSN3nux13StaticTextBoxE@Base 4.0~bzr753
 _ZTSN3nux13TestTextEntryE@Base 4.0~bzr753
 _ZTSN3nux14AbstractButtonE@Base 4.0~bzr753
 _ZTSN3nux14AbstractThreadE@Base 4.0~bzr753
 _ZTSN3nux14CoverflowModelE@Base 4.0~bzr753
 _ZTSN3nux14FloatingWindowE@Base 4.0~bzr753
 _ZTSN3nux14IBusIMEContextE@Base 4.0~bzr753
 _ZTSN3nux15DoubleValidatorE@Base 4.0~bzr753
 _ZTSN3nux15InputAreaTargetE@Base 4.0~bzr753
 _ZTSN3nux15KineticScrollerE@Base 4.0~bzr753
 _ZTSN3nux15NumericValuatorE@Base 4.0~bzr753
 _ZTSN3nux16AbstractComboBoxE@Base 4.0~bzr753
 _ZTSN3nux16CompositionLayerE@Base 4.0~bzr753
 _ZTSN3nux16IntegerValidatorE@Base 4.0~bzr753
 _ZTSN3nux16RadioButtonGroupE@Base 4.0~bzr753
 _ZTSN3nux17ColorPickerDialogE@Base 4.0~bzr753
 _ZTSN3nux17KineticScrollViewE@Base 4.0~bzr753
 _ZTSN3nux17RangeValueIntegerE@Base 4.0~bzr753
 _ZTSN3nux17kinetic_scrolling15TimerTickSourceE@Base 4.0~bzr753
 _ZTSN3nux17kinetic_scrolling19TickSourceInterfaceE@Base 4.0~bzr753
 _ZTSN3nux18AbstractPaintLayerE@Base 4.0~bzr753
 _ZTSN3nux18HexRegExpValidatorE@Base 4.0~bzr753
 _ZTSN3nux18InputAreaProximityE@Base 4.0~bzr753
 _ZTSN3nux18TimelineEaseInQuadE@Base 4.0~bzr753
 _ZTSN3nux19AnimatedTextureAreaE@Base 4.0~bzr753
 _ZTSN3nux19BaseKeyboardHandlerE@Base 4.0~bzr753
 _ZTSN3nux19KineticAxisScrollerE@Base 4.0~bzr753
 _ZTSN3nux19TimelineEaseInCubicE@Base 4.0~bzr753
 _ZTSN3nux19TimelineEaseOutQuadE@Base 4.0~bzr753
 _ZTSN3nux20DefaultGestureBrokerE@Base 4.0~bzr753
 _ZTSN3nux20GesturesSubscriptionE@Base 4.0~bzr753
 _ZTSN3nux20TimelineEaseOutCubicE@Base 4.0~bzr753
 _ZTSN3nux21AbstractCheckedButtonE@Base 4.0~bzr753
 _ZTSN3nux21TimelineEaseInOutQuadE@Base 4.0~bzr753
 _ZTSN3nux22TimelineEaseInOutCubicE@Base 4.0~bzr753
 _ZTSN3nux23SliceScaledTextureLayerE@Base 4.0~bzr753
 _ZTSN3nux4AreaE@Base 4.0~bzr753
 _ZTSN3nux4ViewE@Base 4.0~bzr753
 _ZTSN3nux5PanelE@Base 4.0~bzr753
 _ZTSN3nux6ButtonE@Base 4.0~bzr753
 _ZTSN3nux6CanvasE@Base 4.0~bzr753
 _ZTSN3nux6DialogE@Base 4.0~bzr753
 _ZTSN3nux6LayoutE@Base 4.0~bzr753
 _ZTSN3nux7HLayoutE@Base 4.0~bzr753
 _ZTSN3nux7MenuBarE@Base 4.0~bzr753
 _ZTSN3nux7SpinBoxE@Base 4.0~bzr753
 _ZTSN3nux7TabViewE@Base 4.0~bzr753
 _ZTSN3nux7VLayoutE@Base 4.0~bzr753
 _ZTSN3nux8CheckBoxE@Base 4.0~bzr753
 _ZTSN3nux8GroupBoxE@Base 4.0~bzr753
 _ZTSN3nux8MenuItemE@Base 4.0~bzr753
 _ZTSN3nux8MenuPageE@Base 4.0~bzr753
 _ZTSN3nux8TestViewE@Base 4.0~bzr753
 _ZTSN3nux8TimelineE@Base 4.0~bzr753
 _ZTSN3nux9BasicViewE@Base 4.0~bzr753
 _ZTSN3nux9CairoFontE@Base 4.0~bzr753
 _ZTSN3nux9CoverflowE@Base 4.0~bzr753
 _ZTSN3nux9GroupBox2E@Base 4.0~bzr753
 _ZTSN3nux9HSplitterE@Base 4.0~bzr753
 _ZTSN3nux9InputAreaE@Base 4.0~bzr753
 _ZTSN3nux9ScrollBarE@Base 4.0~bzr753
 _ZTSN3nux9TextEntryE@Base 4.0~bzr753
 _ZTSN3nux9VSplitterE@Base 4.0~bzr753
 _ZTSN3nux9ValidatorE@Base 4.0~bzr753
 _ZTSN4sigc12functor_baseE@Base 4.0~bzr753
 _ZTSN4sigc12mem_functor2IbN3nux8PropertyINS1_10TextLoader13TextAlignmentEEERS4_RKS4_EE@Base 4.0~bzr753
 _ZTSN4sigc12mem_functor2IbN3nux8PropertyINS1_5color5ColorEEERS4_RKS4_EE@Base 4.0~bzr753
 _ZTSN4sigc12mem_functor2IbN3nux8PropertyINS1_9ObjectPtrINS1_11BaseTextureEEEEERS5_RKS5_EE@Base 4.0~bzr753
 _ZTSN4sigc12mem_functor2IbN3nux8PropertyINS1_9ObjectPtrINS1_14CoverflowModelEEEEERS5_RKS5_EE@Base 4.0~bzr753
 _ZTSN4sigc12mem_functor2IbN3nux8PropertyISsEERSsRKSsEE@Base 4.0~bzr753
 _ZTSN4sigc12mem_functor2IbN3nux8PropertyIbEERbRKbEE@Base 4.0~bzr753
 _ZTSN4sigc12mem_functor2IbN3nux8PropertyIfEERfRKfEE@Base 4.0~bzr753
 _ZTSN4sigc12mem_functor2IbN3nux8PropertyIiEERiRKiEE@Base 4.0~bzr753
 _ZTSN4sigc12mem_functor2IbN3nux8PropertyIjEERjRKjEE@Base 4.0~bzr753
 _ZTSN4sigc18bound_mem_functor2IbN3nux8PropertyINS1_10TextLoader13TextAlignmentEEERS4_RKS4_EE@Base 4.0~bzr753
 _ZTSN4sigc18bound_mem_functor2IbN3nux8PropertyINS1_5color5ColorEEERS4_RKS4_EE@Base 4.0~bzr753
 _ZTSN4sigc18bound_mem_functor2IbN3nux8PropertyINS1_9ObjectPtrINS1_11BaseTextureEEEEERS5_RKS5_EE@Base 4.0~bzr753
 _ZTSN4sigc18bound_mem_functor2IbN3nux8PropertyINS1_9ObjectPtrINS1_14CoverflowModelEEEEERS5_RKS5_EE@Base 4.0~bzr753
 _ZTSN4sigc18bound_mem_functor2IbN3nux8PropertyISsEERSsRKSsEE@Base 4.0~bzr753
 _ZTSN4sigc18bound_mem_functor2IbN3nux8PropertyIbEERbRKbEE@Base 4.0~bzr753
 _ZTSN4sigc18bound_mem_functor2IbN3nux8PropertyIfEERfRKfEE@Base 4.0~bzr753
 _ZTSN4sigc18bound_mem_functor2IbN3nux8PropertyIiEERiRKiEE@Base 4.0~bzr753
 _ZTSN4sigc18bound_mem_functor2IbN3nux8PropertyIjEERjRKjEE@Base 4.0~bzr753
 _ZTSN4sigc9trackableE@Base 4.0~bzr753
 _ZTSSt11_Mutex_baseILN9__gnu_cxx12_Lock_policyE2EE@Base 4.0~bzr753
 _ZTSSt15_Sp_counted_ptrIPN3nux13LayeredLayout22LayeredChildPropertiesELN9__gnu_cxx12_Lock_policyE2EE@Base 4.0~bzr753
 _ZTSSt15_Sp_counted_ptrIPN3nux15InputAreaTargetELN9__gnu_cxx12_Lock_policyE2EE@Base 4.0~bzr753
 _ZTSSt15_Sp_counted_ptrIPN3nux20GesturesSubscriptionELN9__gnu_cxx12_Lock_policyE2EE@Base 4.0~bzr753
 _ZTSSt15_Sp_counted_ptrIPN3nux7GestureELN9__gnu_cxx12_Lock_policyE2EE@Base 4.0~bzr753
 _ZTSSt16_Sp_counted_baseILN9__gnu_cxx12_Lock_policyE2EE@Base 4.0~bzr753
 _ZTSSt17_Weak_result_typeISt7_Mem_fnIM15ProgramTemplateFvvEEE@Base 4.0.0
 _ZTSSt22_Maybe_get_result_typeILb1ESt7_Mem_fnIM15ProgramTemplateFvvEEE@Base 4.0.0
 _ZTSSt22_Weak_result_type_implISt7_Mem_fnIM15ProgramTemplateFvvEEE@Base 4.0.0
 _ZTSSt5_BindIFSt7_Mem_fnIM15ProgramTemplateFvvEEPS1_EE@Base 4.0.0
 _ZTV15ProgramTemplate@Base 4.0~bzr753
 _ZTVN3nux10ActionItemE@Base 4.0~bzr753
 _ZTVN3nux10BaseWindowE@Base 4.0~bzr753
 _ZTVN3nux10ClientAreaE@Base 4.0~bzr753
 _ZTVN3nux10ColorLayerE@Base 4.0~bzr753
 _ZTVN3nux10HScrollBarE@Base 4.0~bzr753
 _ZTVN3nux10RangeValueE@Base 4.0~bzr753
 _ZTVN3nux10ScrollViewE@Base 4.0~bzr753
 _ZTVN3nux10ShapeLayerE@Base 4.0~bzr753
 _ZTVN3nux10StaticTextE@Base 4.0~bzr753
 _ZTVN3nux10ToolButtonE@Base 4.0~bzr753
 _ZTVN3nux10VScrollBarE@Base 4.0~bzr753
 _ZTVN3nux11BasePainterE@Base 4.0~bzr753
 _ZTVN3nux11ColorEditorE@Base 4.0~bzr753
 _ZTVN3nux11EditTextBoxE@Base 4.0~bzr753
 _ZTVN3nux11GridHLayoutE@Base 4.0~bzr753
 _ZTVN3nux11MenuBarItemE@Base 4.0~bzr753
 _ZTVN3nux11PopUpWindowE@Base 4.0~bzr753
 _ZTVN3nux11RGBValuatorE@Base 4.0~bzr753
 _ZTVN3nux11RadioButtonE@Base 4.0~bzr753
 _ZTVN3nux11SpaceLayoutE@Base 4.0~bzr753
 _ZTVN3nux11TextureAreaE@Base 4.0~bzr753
 _ZTVN3nux12ColorPreviewE@Base 4.0~bzr753
 _ZTVN3nux12FileSelectorE@Base 4.0~bzr753
 _ZTVN3nux12LinearLayoutE@Base 4.0~bzr753
 _ZTVN3nux12SystemThreadE@Base 4.0~bzr753
 _ZTVN3nux12TextureLayerE@Base 4.0~bzr753
 _ZTVN3nux12ToggleButtonE@Base 4.0~bzr753
 _ZTVN3nux12WindowThreadE@Base 4.0~bzr753
 _ZTVN3nux13CoverflowItemE@Base 4.0~bzr753
 _ZTVN3nux13GestureBrokerE@Base 4.0~bzr753
 _ZTVN3nux13GestureTargetE@Base 4.0~bzr753
 _ZTVN3nux13LayeredLayoutE@Base 4.0~bzr753
 _ZTVN3nux13MenuSeparatorE@Base 4.0~bzr753
 _ZTVN3nux13MouseAreaCtrlE@Base 4.0~bzr753
 _ZTVN3nux13SpinBoxDoubleE@Base 4.0~bzr753
 _ZTVN3nux13SpinBox_LogicE@Base 4.0~bzr753
 _ZTVN3nux13StaticTextBoxE@Base 4.0~bzr753
 _ZTVN3nux13TestTextEntryE@Base 4.0~bzr753
 _ZTVN3nux14AbstractButtonE@Base 4.0~bzr753
 _ZTVN3nux14AbstractThreadE@Base 4.0~bzr753
 _ZTVN3nux14CoverflowModelE@Base 4.0~bzr753
 _ZTVN3nux14FloatingWindowE@Base 4.0~bzr753
 _ZTVN3nux14IBusIMEContextE@Base 4.0~bzr753
 _ZTVN3nux15DoubleValidatorE@Base 4.0~bzr753
 _ZTVN3nux15InputAreaTargetE@Base 4.0~bzr753
 _ZTVN3nux15KineticScrollerE@Base 4.0~bzr753
 _ZTVN3nux15NumericValuatorE@Base 4.0~bzr753
 _ZTVN3nux16AbstractComboBoxE@Base 4.0~bzr753
 _ZTVN3nux16CompositionLayerE@Base 4.0~bzr753
 _ZTVN3nux16IntegerValidatorE@Base 4.0~bzr753
 _ZTVN3nux16RadioButtonGroupE@Base 4.0~bzr753
 _ZTVN3nux17ColorPickerDialogE@Base 4.0~bzr753
 _ZTVN3nux17KineticScrollViewE@Base 4.0~bzr753
 _ZTVN3nux17RangeValueIntegerE@Base 4.0~bzr753
 _ZTVN3nux17kinetic_scrolling15TimerTickSourceE@Base 4.0~bzr753
 _ZTVN3nux17kinetic_scrolling19TickSourceInterfaceE@Base 4.0~bzr753
 _ZTVN3nux18AbstractPaintLayerE@Base 4.0~bzr753
 _ZTVN3nux18HexRegExpValidatorE@Base 4.0~bzr753
 _ZTVN3nux18InputAreaProximityE@Base 4.0~bzr753
 _ZTVN3nux18TimelineEaseInQuadE@Base 4.0~bzr753
 _ZTVN3nux19AnimatedTextureAreaE@Base 4.0~bzr753
 _ZTVN3nux19BaseKeyboardHandlerE@Base 4.0~bzr753
 _ZTVN3nux19KineticAxisScrollerE@Base 4.0~bzr753
 _ZTVN3nux19TimelineEaseInCubicE@Base 4.0~bzr753
 _ZTVN3nux19TimelineEaseOutQuadE@Base 4.0~bzr753
 _ZTVN3nux20DefaultGestureBrokerE@Base 4.0~bzr753
 _ZTVN3nux20GesturesSubscriptionE@Base 4.0~bzr753
 _ZTVN3nux20TimelineEaseOutCubicE@Base 4.0~bzr753
 _ZTVN3nux21AbstractCheckedButtonE@Base 4.0~bzr753
 _ZTVN3nux21TimelineEaseInOutQuadE@Base 4.0~bzr753
 _ZTVN3nux22TimelineEaseInOutCubicE@Base 4.0~bzr753
 _ZTVN3nux23SliceScaledTextureLayerE@Base 4.0~bzr753
 _ZTVN3nux4AreaE@Base 4.0~bzr753
 _ZTVN3nux4ViewE@Base 4.0~bzr753
 _ZTVN3nux5PanelE@Base 4.0~bzr753
 _ZTVN3nux6ButtonE@Base 4.0~bzr753
 _ZTVN3nux6CanvasE@Base 4.0~bzr753
 _ZTVN3nux6DialogE@Base 4.0~bzr753
 _ZTVN3nux6LayoutE@Base 4.0~bzr753
 _ZTVN3nux7HLayoutE@Base 4.0~bzr753
 _ZTVN3nux7MenuBarE@Base 4.0~bzr753
 _ZTVN3nux7SpinBoxE@Base 4.0~bzr753
 _ZTVN3nux7TabViewE@Base 4.0~bzr753
 _ZTVN3nux7VLayoutE@Base 4.0~bzr753
 _ZTVN3nux8CheckBoxE@Base 4.0~bzr753
 _ZTVN3nux8GroupBoxE@Base 4.0~bzr753
 _ZTVN3nux8MenuItemE@Base 4.0~bzr753
 _ZTVN3nux8MenuPageE@Base 4.0~bzr753
 _ZTVN3nux8TestViewE@Base 4.0~bzr753
 _ZTVN3nux8TimelineE@Base 4.0~bzr753
 _ZTVN3nux9BasicViewE@Base 4.0~bzr753
 _ZTVN3nux9CairoFontE@Base 4.0~bzr753
 _ZTVN3nux9CoverflowE@Base 4.0~bzr753
 _ZTVN3nux9GroupBox2E@Base 4.0~bzr753
 _ZTVN3nux9HSplitterE@Base 4.0~bzr753
 _ZTVN3nux9InputAreaE@Base 4.0~bzr753
 _ZTVN3nux9ScrollBarE@Base 4.0~bzr753
 _ZTVN3nux9TextEntryE@Base 4.0~bzr753
 _ZTVN3nux9VSplitterE@Base 4.0~bzr753
 _ZTVN3nux9ValidatorE@Base 4.0~bzr753
 _ZTVSt15_Sp_counted_ptrIPN3nux13LayeredLayout22LayeredChildPropertiesELN9__gnu_cxx12_Lock_policyE2EE@Base 4.0~bzr753
 _ZTVSt15_Sp_counted_ptrIPN3nux15InputAreaTargetELN9__gnu_cxx12_Lock_policyE2EE@Base 4.0~bzr753
 _ZTVSt15_Sp_counted_ptrIPN3nux20GesturesSubscriptionELN9__gnu_cxx12_Lock_policyE2EE@Base 4.0~bzr753
 _ZTVSt15_Sp_counted_ptrIPN3nux7GestureELN9__gnu_cxx12_Lock_policyE2EE@Base 4.0~bzr753
 _ZTVSt16_Sp_counted_baseILN9__gnu_cxx12_Lock_policyE2EE@Base 4.0~bzr753
 _ZZN3nux15GpuRenderStates21SetPremultipliedBlendENS_18PorterDuffOperatorEE6factor@Base 4.0~bzr753
libnux-core-4.0.so.0 libnux0 #MINVER#
 _ZN3nux10BackEaseInEddddd@Base 4.0~bzr753
 _ZN3nux10Bezier_XYZEidPdS0_S0_S0_S0_S0_@Base 4.0~bzr753
 _ZN3nux10CircEaseInEdddd@Base 4.0~bzr753
 _ZN3nux10ExitSystemEv@Base 4.0~bzr753
 _ZN3nux10ExpoEaseInEdddd@Base 4.0~bzr753
 _ZN3nux10GetCmdLineEv@Base 4.0~bzr753
 _ZN3nux10GetUTCTimeERjS0_S0_S0_S0_S0_S0_@Base 4.0~bzr753
 _ZN3nux10NullOutput10DestructorEv@Base 4.0~bzr753
 _ZN3nux10NullOutput11ConstructorEv@Base 4.0~bzr753
 _ZN3nux10NullOutput9SerializeEPKcS2_i@Base 4.0~bzr753
 _ZN3nux10NullOutput9pInstanceE@Base 4.0~bzr753
 _ZN3nux10NullOutputD0Ev@Base 4.0~bzr753
 _ZN3nux10NullOutputD1Ev@Base 4.0~bzr753
 _ZN3nux10NullOutputD2Ev@Base 4.0~bzr753
 _ZN3nux10ParseParamEPKcS1_@Base 4.0~bzr753
 _ZN3nux10ParseTokenEPKcPci@Base 4.0~bzr753
 _ZN3nux10ParseTokenEPKcRSs@Base 4.0~bzr753
 _ZN3nux10ParseTokenEPKcb@Base 4.0~bzr753
 _ZN3nux10Parse_boolEPKcS1_Rb@Base 4.0~bzr753
 _ZN3nux10QuadEaseInEdddd@Base 4.0~bzr753
 _ZN3nux10Quaternion12FromEulerZXYEfff@Base 4.0~bzr753
 _ZN3nux10Quaternion13FromAngleAxisEffff@Base 4.0~bzr753
 _ZN3nux10Quaternion7InverseEv@Base 4.0~bzr753
 _ZN3nux10Quaternion9ConjugateEv@Base 4.0~bzr753
 _ZN3nux10Quaternion9NormalizeEv@Base 4.0~bzr753
 _ZN3nux10QuaternionC1ERKNS_4Vec3IfEEf@Base 4.0~bzr753
 _ZN3nux10QuaternionC1ERKNS_4Vec4IfEE@Base 4.0~bzr753
 _ZN3nux10QuaternionC1ERKS0_@Base 4.0~bzr753
 _ZN3nux10QuaternionC1Efff@Base 4.0~bzr753
 _ZN3nux10QuaternionC1Effff@Base 4.0~bzr753
 _ZN3nux10QuaternionC1Ev@Base 4.0~bzr753
 _ZN3nux10QuaternionC2ERKNS_4Vec3IfEEf@Base 4.0~bzr753
 _ZN3nux10QuaternionC2ERKNS_4Vec4IfEE@Base 4.0~bzr753
 _ZN3nux10QuaternionC2ERKS0_@Base 4.0~bzr753
 _ZN3nux10QuaternionC2Efff@Base 4.0~bzr753
 _ZN3nux10QuaternionC2Effff@Base 4.0~bzr753
 _ZN3nux10QuaternionC2Ev@Base 4.0~bzr753
 _ZN3nux10QuaternionD1Ev@Base 4.0~bzr753
 _ZN3nux10QuaternionD2Ev@Base 4.0~bzr753
 _ZN3nux10QuaternionaSERKS0_@Base 4.0~bzr753
 _ZN3nux10QuaterniondVERKf@Base 4.0~bzr753
 _ZN3nux10QuaternionmIERKS0_@Base 4.0~bzr753
 _ZN3nux10QuaternionmLERKS0_@Base 4.0~bzr753
 _ZN3nux10QuaternionmLERKf@Base 4.0~bzr753
 _ZN3nux10QuaternionpLERKS0_@Base 4.0~bzr753
 _ZN3nux10SineEaseInEdddd@Base 4.0~bzr753
 _ZN3nux11BackEaseOutEddddd@Base 4.0~bzr753
 _ZN3nux11CircEaseOutEdddd@Base 4.0~bzr753
 _ZN3nux11CubicEaseInEdddd@Base 4.0~bzr753
 _ZN3nux11CubicSpline12SolveTridiagEiPdS1_@Base 4.0~bzr753
 _ZN3nux11CubicSpline3SetEiSt6vectorIdSaIdEES3_idid@Base 4.0~bzr753
 _ZN3nux11CubicSpline4EvalEd@Base 4.0~bzr753
 _ZN3nux11CubicSpline7ComputeEidid@Base 4.0~bzr753
 _ZN3nux11CubicSplineC1ERKS0_@Base 4.0~bzr753
 _ZN3nux11CubicSplineC1EiSt6vectorIdSaIdEES3_idid@Base 4.0~bzr753
 _ZN3nux11CubicSplineC1Ev@Base 4.0~bzr753
 _ZN3nux11CubicSplineC2ERKS0_@Base 4.0~bzr753
 _ZN3nux11CubicSplineC2EiSt6vectorIdSaIdEES3_idid@Base 4.0~bzr753
 _ZN3nux11CubicSplineC2Ev@Base 4.0~bzr753
 _ZN3nux11CubicSplineD1Ev@Base 4.0~bzr753
 _ZN3nux11CubicSplineD2Ev@Base 4.0~bzr753
 _ZN3nux11CubicSplineaSERKS0_@Base 4.0~bzr753
 _ZN3nux11ExpoEaseOutEdddd@Base 4.0~bzr753
 _ZN3nux11GetTimeZoneEv@Base 4.0~bzr753
 _ZN3nux11GetUserNameEv@Base 4.0~bzr753
 _ZN3nux11NGlobalData10DestructorEv@Base 4.0~bzr753
 _ZN3nux11NGlobalData10InitializeEPKc@Base 4.0~bzr753
 _ZN3nux11NGlobalData11ConstructorEv@Base 4.0~bzr753
 _ZN3nux11NGlobalData9pInstanceE@Base 4.0~bzr753
 _ZN3nux11NGlobalDataD0Ev@Base 4.0~bzr753
 _ZN3nux11NGlobalDataD1Ev@Base 4.0~bzr753
 _ZN3nux11NGlobalDataD2Ev@Base 4.0~bzr753
 _ZN3nux11NObjectType9Null_TypeE@Base 4.0~bzr753
 _ZN3nux11NSerializer11GetFileSizeEv@Base 4.0~bzr753
 _ZN3nux11NSerializer3EndEv@Base 4.0~bzr753
 _ZN3nux11NSerializer5BeginEv@Base 4.0~bzr753
 _ZN3nux11NSerializer5FlushEv@Base 4.0~bzr753
 _ZN3nux11NSerializer8GetErrorEv@Base 4.0~bzr753
 _ZN3nux11NSerializer8IdentifyEPKc@Base 4.0~bzr753
 _ZN3nux11NSerializer8PrecacheEii@Base 4.0~bzr753
 _ZN3nux11NSerializer9SerializeEPbjj@Base 4.0~bzr753
 _ZN3nux11NSerializer9SerializeEPcjj@Base 4.0~bzr753
 _ZN3nux11NSerializer9SerializeEPdjj@Base 4.0~bzr753
 _ZN3nux11NSerializer9SerializeEPfjj@Base 4.0~bzr753
 _ZN3nux11NSerializer9SerializeEPhjj@Base 4.0~bzr753
 _ZN3nux11NSerializer9SerializeEPijj@Base 4.0~bzr753
 _ZN3nux11NSerializer9SerializeEPjjj@Base 4.0~bzr753
 _ZN3nux11NSerializer9SerializeEPljj@Base 4.0~bzr753
 _ZN3nux11NSerializer9SerializeEPmjj@Base 4.0~bzr753
 _ZN3nux11NSerializer9SerializeEPsjj@Base 4.0~bzr753
 _ZN3nux11NSerializer9SerializeEPtjj@Base 4.0~bzr753
 _ZN3nux11NSerializer9SerializeEPwjj@Base 4.0~bzr753
 _ZN3nux11NSerializer9SerializeEPxjj@Base 4.0~bzr753
 _ZN3nux11NSerializer9SerializeEPyjj@Base 4.0~bzr753
 _ZN3nux11NSerializer9SerializeERb@Base 4.0~bzr753
 _ZN3nux11NSerializer9SerializeERc@Base 4.0~bzr753
 _ZN3nux11NSerializer9SerializeERd@Base 4.0~bzr753
 _ZN3nux11NSerializer9SerializeERf@Base 4.0~bzr753
 _ZN3nux11NSerializer9SerializeERh@Base 4.0~bzr753
 _ZN3nux11NSerializer9SerializeERi@Base 4.0~bzr753
 _ZN3nux11NSerializer9SerializeERj@Base 4.0~bzr753
 _ZN3nux11NSerializer9SerializeERl@Base 4.0~bzr753
 _ZN3nux11NSerializer9SerializeERm@Base 4.0~bzr753
 _ZN3nux11NSerializer9SerializeERs@Base 4.0~bzr753
 _ZN3nux11NSerializer9SerializeERt@Base 4.0~bzr753
 _ZN3nux11NSerializer9SerializeERw@Base 4.0~bzr753
 _ZN3nux11NSerializer9SerializeERx@Base 4.0~bzr753
 _ZN3nux11NSerializer9SerializeERy@Base 4.0~bzr753
 _ZN3nux11NSerializerD0Ev@Base 4.0~bzr753
 _ZN3nux11NSerializerD1Ev@Base 4.0~bzr753
 _ZN3nux11NSerializerD2Ev@Base 4.0~bzr753
 _ZN3nux11ObjectStats10DestructorEv@Base 4.0~bzr753
 _ZN3nux11ObjectStats11ConstructorEv@Base 4.0~bzr753
 _ZN3nux11ObjectStats9pInstanceE@Base 4.0~bzr753
 _ZN3nux11ObjectStatsD0Ev@Base 4.0~bzr753
 _ZN3nux11ObjectStatsD1Ev@Base 4.0~bzr753
 _ZN3nux11ObjectStatsD2Ev@Base 4.0~bzr753
 _ZN3nux11Parse_floatEPKcS1_Rf@Base 4.0~bzr753
 _ZN3nux11Parse_tcharEPKcS1_Pcii@Base 4.0~bzr753
 _ZN3nux11QuadEaseOutEdddd@Base 4.0~bzr753
 _ZN3nux11QuartEaseInEdddd@Base 4.0~bzr753
 _ZN3nux11QuintEaseInEdddd@Base 4.0~bzr753
 _ZN3nux11SineEaseOutEdddd@Base 4.0~bzr753
 _ZN3nux11UniqueIndex10DestructorEv@Base 4.0~bzr753
 _ZN3nux11UniqueIndex11ConstructorEv@Base 4.0~bzr753
 _ZN3nux11UniqueIndex14GetUniqueIndexEv@Base 4.0~bzr753
 _ZN3nux11UniqueIndex17m_CriticalSectionE@Base 4.0~bzr753
 _ZN3nux11UniqueIndex9pInstanceE@Base 4.0~bzr753
 _ZN3nux11UniqueIndexD0Ev@Base 4.0~bzr753
 _ZN3nux11UniqueIndexD1Ev@Base 4.0~bzr753
 _ZN3nux11UniqueIndexD2Ev@Base 4.0~bzr753
 _ZN3nux12BounceEaseInEdddd@Base 4.0~bzr753
 _ZN3nux12CharToDoubleEPKc@Base 4.0~bzr753
 _ZN3nux12CubicEaseOutEdddd@Base 4.0~bzr753
 _ZN3nux12DoubleToCharEd@Base 4.0~bzr753
 _ZN3nux12GetLocalTimeERjS0_S0_S0_S0_S0_S0_@Base 4.0~bzr753
 _ZN3nux12LinearEaseInEdddd@Base 4.0~bzr753
 _ZN3nux12NFileManager4InitEb@Base 4.0~bzr753
 _ZN3nux12NFileManagerD0Ev@Base 4.0~bzr753
 _ZN3nux12NFileManagerD1Ev@Base 4.0~bzr753
 _ZN3nux12NFileManagerD2Ev@Base 4.0~bzr753
 _ZN3nux12ParseCommandEPPKcS1_@Base 4.0~bzr753
 _ZN3nux12Parse_stringEPKcS1_RSs@Base 4.0~bzr753
 _ZN3nux12QuartEaseOutEdddd@Base 4.0~bzr753
 _ZN3nux12QuintEaseOutEdddd@Base 4.0~bzr753
 _ZN3nux13BackEaseInOutEddddd@Base 4.0~bzr753
 _ZN3nux13BounceEaseOutEdddd@Base 4.0~bzr753
 _ZN3nux13CharToIntegerEPKc@Base 4.0~bzr753
 _ZN3nux13CircEaseInOutEdddd@Base 4.0~bzr753
 _ZN3nux13ComplexNumber4realEf@Base 4.0~bzr753
 _ZN3nux13ComplexNumber6IsNullEv@Base 4.0~bzr753
 _ZN3nux13ComplexNumber8absoluteEv@Base 4.0~bzr753
 _ZN3nux13ComplexNumber8conjugueEv@Base 4.0~bzr753
 _ZN3nux13ComplexNumber9imaginaryEf@Base 4.0~bzr753
 _ZN3nux13ComplexNumberC1ERKS0_@Base 4.0~bzr753
 _ZN3nux13ComplexNumberC1Eff@Base 4.0~bzr753
 _ZN3nux13ComplexNumberC2ERKS0_@Base 4.0~bzr753
 _ZN3nux13ComplexNumberC2Eff@Base 4.0~bzr753
 _ZN3nux13ComplexNumberD1Ev@Base 4.0~bzr753
 _ZN3nux13ComplexNumberD2Ev@Base 4.0~bzr753
 _ZN3nux13ComplexNumberaSERKS0_@Base 4.0~bzr753
 _ZN3nux13ComplexNumberdVERKS0_@Base 4.0~bzr753
 _ZN3nux13ComplexNumbermIERKS0_@Base 4.0~bzr753
 _ZN3nux13ComplexNumbermLERKS0_@Base 4.0~bzr753
 _ZN3nux13ComplexNumberpLERKS0_@Base 4.0~bzr753
 _ZN3nux13ElasticEaseInEdddddd@Base 4.0~bzr753
 _ZN3nux13ExpoEaseInOutEdddd@Base 4.0~bzr753
 _ZN3nux13IntegerToCharEii@Base 4.0~bzr753
 _ZN3nux13LinearEaseOutEdddd@Base 4.0~bzr753
 _ZN3nux13LogFileOutput10DestructorEv@Base 4.0~bzr753
 _ZN3nux13LogFileOutput11ConstructorEv@Base 4.0~bzr753
 _ZN3nux13LogFileOutput12SerializeRawEPKc@Base 4.0~bzr753
 _ZN3nux13LogFileOutput5FlushEv@Base 4.0~bzr753
 _ZN3nux13LogFileOutput8ShutdownEv@Base 4.0~bzr753
 _ZN3nux13LogFileOutput9SerializeEPKcS2_i@Base 4.0~bzr753
 _ZN3nux13LogFileOutput9pInstanceE@Base 4.0~bzr753
 _ZN3nux13LogFileOutputD0Ev@Base 4.0~bzr753
 _ZN3nux13LogFileOutputD1Ev@Base 4.0~bzr753
 _ZN3nux13LogFileOutputD2Ev@Base 4.0~bzr753
 _ZN3nux13QuadEaseInOutEdddd@Base 4.0~bzr753
 _ZN3nux13SineEaseInOutEdddd@Base 4.0~bzr753
 _ZN3nux14CubicEaseInOutEdddd@Base 4.0~bzr753
 _ZN3nux14ElasticEaseOutEdddddd@Base 4.0~bzr753
 _ZN3nux14IntrospectableD1Ev@Base 4.0~bzr753
 _ZN3nux14IntrospectableD2Ev@Base 4.0~bzr753
 _ZN3nux14LinearEaseNoneEdddd@Base 4.0~bzr753
 _ZN3nux14QuartEaseInOutEdddd@Base 4.0~bzr753
 _ZN3nux14QuintEaseInOutEdddd@Base 4.0~bzr753
 _ZN3nux15AsyncFileWriter4Impl12ProcessAsyncEv@Base 4.0~bzr753
 _ZN3nux15AsyncFileWriter4Impl18CloseAsyncCallbackEP14_GOutputStreamP13_GAsyncResultPS1_@Base 4.0~bzr753
 _ZN3nux15AsyncFileWriter4Impl18WriteAsyncCallbackEP14_GOutputStreamP13_GAsyncResultPS1_@Base 4.0~bzr753
 _ZN3nux15AsyncFileWriter4Impl19AppendAsyncCallbackEP6_GFileP13_GAsyncResultPS1_@Base 4.0~bzr753
 _ZN3nux15AsyncFileWriter4Impl5CloseEv@Base 4.0~bzr753
 _ZN3nux15AsyncFileWriter4Impl5WriteERKSs@Base 4.0~bzr753
 _ZN3nux15AsyncFileWriter4ImplC1EPS0_RKSs@Base 4.0~bzr753
 _ZN3nux15AsyncFileWriter4ImplC2EPS0_RKSs@Base 4.0~bzr753
 _ZN3nux15AsyncFileWriter4ImplD1Ev@Base 4.0~bzr753
 _ZN3nux15AsyncFileWriter4ImplD2Ev@Base 4.0~bzr753
 _ZN3nux15AsyncFileWriter5CloseEv@Base 4.0~bzr753
 _ZN3nux15AsyncFileWriter5WriteERKSs@Base 4.0~bzr753
 _ZN3nux15AsyncFileWriterC1ERKSs@Base 4.0~bzr753
 _ZN3nux15AsyncFileWriterC2ERKSs@Base 4.0~bzr753
 _ZN3nux15AsyncFileWriterD1Ev@Base 4.0~bzr753
 _ZN3nux15AsyncFileWriterD2Ev@Base 4.0~bzr753
 _ZN3nux15BounceEaseInOutEdddd@Base 4.0~bzr753
 _ZN3nux15GetComputerNameEv@Base 4.0~bzr753
 _ZN3nux15GetLogDirectoryEv@Base 4.0~bzr753
 _ZN3nux15GetVariableArgsEPcjjRPKcP13__va_list_tag@Base 4.0~bzr753
 _ZN3nux15IsMemoryAlignedEPvj@Base 4.0~bzr753
 _ZN3nux15LinearEaseInOutEdddd@Base 4.0~bzr753
 _ZN3nux15LoadFileToArrayERSt6vectorIhSaIhEEPKcRNS_12NFileManagerE@Base 4.0~bzr753
 _ZN3nux15LogOutputDevice11LogFunctionEiPKcz@Base 4.0~bzr753
 _ZN3nux15LogOutputDevice5FlushEv@Base 4.0~bzr753
 _ZN3nux15LogOutputDevice6EnableEv@Base 4.0~bzr753
 _ZN3nux15LogOutputDevice7DisableEv@Base 4.0~bzr753
 _ZN3nux15LogOutputDevice8ShutdownEv@Base 4.0~bzr753
 _ZN3nux15LogOutputDeviceC1Ev@Base 4.0~bzr753
 _ZN3nux15LogOutputDeviceC2Ev@Base 4.0~bzr753
 _ZN3nux15LogOutputDeviceD0Ev@Base 4.0~bzr753
 _ZN3nux15LogOutputDeviceD1Ev@Base 4.0~bzr753
 _ZN3nux15LogOutputDeviceD2Ev@Base 4.0~bzr753
 _ZN3nux15NFileManagerGNU10DestructorEv@Base 4.0~bzr753
 _ZN3nux15NFileManagerGNU10IsReadOnlyEPKc@Base 4.0~bzr753
 _ZN3nux15NFileManagerGNU11ConstructorEv@Base 4.0~bzr753
 _ZN3nux15NFileManagerGNU11IsDirectoryEPKc@Base 4.0~bzr753
 _ZN3nux15NFileManagerGNU12GetTimeStampEPKcRNS_12NFileManager13FileTimeStampE@Base 4.0~bzr753
 _ZN3nux15NFileManagerGNU13MakeDirectoryEPKcb@Base 4.0~bzr753
 _ZN3nux15NFileManagerGNU15DeleteDirectoryEPKcb@Base 4.0~bzr753
 _ZN3nux15NFileManagerGNU16CreateFileReaderEPKcmRNS_15LogOutputDeviceE@Base 4.0~bzr753
 _ZN3nux15NFileManagerGNU16CreateFileWriterEPKcmRNS_15LogOutputDeviceE@Base 4.0~bzr753
 _ZN3nux15NFileManagerGNU16GetFileAttributeEPKcRbS3_S3_Rx@Base 4.0~bzr753
 _ZN3nux15NFileManagerGNU17GetFileAgeSecondsEPKc@Base 4.0~bzr753
 _ZN3nux15NFileManagerGNU19GetCurrentDirectoryEv@Base 4.0~bzr753
 _ZN3nux15NFileManagerGNU19GetFileLastModifiedEPKc@Base 4.0~bzr753
 _ZN3nux15NFileManagerGNU19SetDefaultDirectoryEv@Base 4.0~bzr753
 _ZN3nux15NFileManagerGNU20ListFilesInDirectoryERSt6vectorISsSaISsEEPKc@Base 4.0~bzr753
 _ZN3nux15NFileManagerGNU4CopyEPKcS2_bbPNS_20NFileTransferMonitorE@Base 4.0~bzr753
 _ZN3nux15NFileManagerGNU4MoveEPKcS2_bbPNS_20NFileTransferMonitorE@Base 4.0~bzr753
 _ZN3nux15NFileManagerGNU6DeleteEPKcb@Base 4.0~bzr753
 _ZN3nux15NFileManagerGNU8FileSizeEPKc@Base 4.0~bzr753
 _ZN3nux15NFileManagerGNU8IsHiddenEPKc@Base 4.0~bzr753
 _ZN3nux15NFileManagerGNU9FileExistEPKc@Base 4.0~bzr753
 _ZN3nux15NFileManagerGNU9FindFilesERSt6vectorISsSaISsEEPKcbb@Base 4.0~bzr753
 _ZN3nux15NFileManagerGNU9pInstanceE@Base 4.0~bzr753
 _ZN3nux15NFileManagerGNUD0Ev@Base 4.0~bzr753
 _ZN3nux15NFileManagerGNUD1Ev@Base 4.0~bzr753
 _ZN3nux15NFileManagerGNUD2Ev@Base 4.0~bzr753
 _ZN3nux15ParseToNextLineEPPKcc@Base 4.0~bzr753
 _ZN3nux15SaveArrayToFileERKSt6vectorIhSaIhEEPKcRNS_12NFileManagerE@Base 4.0~bzr753
 _ZN3nux16ElasticEaseInOutEdddddd@Base 4.0~bzr753
 _ZN3nux16HexCharToIntegerEPKc@Base 4.0~bzr753
 _ZN3nux16LoadFileToStringERSsPKcRNS_12NFileManagerE@Base 4.0~bzr753
 _ZN3nux16NCriticalSectionD1Ev@Base 4.0~bzr753
 _ZN3nux16NCriticalSectionD2Ev@Base 4.0~bzr753
 _ZN3nux16SaveStringToFileERKSsPKcRNS_12NFileManagerE@Base 4.0~bzr753
 _ZN3nux16tr_utf8_validateEPKciPS1_@Base 4.0~bzr753
 _ZN3nux17GlobalInitializer13ForceShutdownEv@Base 4.0~bzr753
 _ZN3nux17GlobalInitializer7m_CountE@Base 4.0~bzr753
 _ZN3nux17GlobalInitializerC1Ev@Base 4.0~bzr753
 _ZN3nux17GlobalInitializerC2Ev@Base 4.0~bzr753
 _ZN3nux17GlobalInitializerD1Ev@Base 4.0~bzr753
 _ZN3nux17GlobalInitializerD2Ev@Base 4.0~bzr753
 _ZN3nux17NuxCoreInitializeEPKc@Base 4.0~bzr753
 _ZN3nux18ConvertUTF16toUTF8EPPKwS1_PPhS3_NS_15ConversionFlagsE@Base 4.0~bzr753
 _ZN3nux18ConvertUTF32toUTF8EPPKjS1_PPhS3_NS_15ConversionFlagsE@Base 4.0~bzr753
 _ZN3nux18ConvertUTF8toUTF16EPPKhS1_PPwS3_NS_15ConversionFlagsE@Base 4.0~bzr753
 _ZN3nux18ConvertUTF8toUTF32EPPKhS1_PPjS3_NS_15ConversionFlagsE@Base 4.0~bzr753
 _ZN3nux18NThreadSafeCounter3SetEi@Base 4.0~bzr753
 _ZN3nux18NThreadSafeCounter9DecrementEv@Base 4.0~bzr753
 _ZN3nux18NThreadSafeCounter9IncrementEv@Base 4.0~bzr753
 _ZN3nux18NThreadSafeCountereqEi@Base 4.0~bzr753
 _ZN3nux18NThreadSafeCountermmEv@Base 4.0~bzr753
 _ZN3nux18NThreadSafeCounterppEv@Base 4.0~bzr753
 _ZN3nux19BinomialCoefficientEii@Base 4.0~bzr753
 _ZN3nux19ConvertUTF16toUTF32EPPKwS1_PPjS3_NS_15ConversionFlagsE@Base 4.0~bzr753
 _ZN3nux19ConvertUTF32toUTF16EPPKjS1_PPwS3_NS_15ConversionFlagsE@Base 4.0~bzr753
 _ZN3nux19GetProgramDirectoryEv@Base 4.0~bzr753
 _ZN3nux19GetVariableArgsAnsiEPcjjRPKcP13__va_list_tag@Base 4.0~bzr753
 _ZN3nux19LogOutputRedirector10DestructorEv@Base 4.0~bzr753
 _ZN3nux19LogOutputRedirector11ConstructorEv@Base 4.0~bzr753
 _ZN3nux19LogOutputRedirector15AddOutputDeviceEPNS_15LogOutputDeviceE@Base 4.0~bzr753
 _ZN3nux19LogOutputRedirector15IsRedirectingToEPNS_15LogOutputDeviceE@Base 4.0~bzr753
 _ZN3nux19LogOutputRedirector18RemoveOutputDeviceEPNS_15LogOutputDeviceE@Base 4.0~bzr753
 _ZN3nux19LogOutputRedirector5FlushEv@Base 4.0~bzr753
 _ZN3nux19LogOutputRedirector8ShutdownEv@Base 4.0~bzr753
 _ZN3nux19LogOutputRedirector9SerializeEPKcS2_i@Base 4.0~bzr753
 _ZN3nux19LogOutputRedirector9pInstanceE@Base 4.0~bzr753
 _ZN3nux19LogOutputRedirectorD0Ev@Base 4.0~bzr753
 _ZN3nux19LogOutputRedirectorD1Ev@Base 4.0~bzr753
 _ZN3nux19LogOutputRedirectorD2Ev@Base 4.0~bzr753
 _ZN3nux19NFileManagerGeneric13MakeDirectoryEPKcb@Base 4.0~bzr753
 _ZN3nux19NFileManagerGeneric15DeleteDirectoryEPKcb@Base 4.0~bzr753
 _ZN3nux19NFileManagerGeneric20CreateUniqueFileNameEPKcS2_RSsj@Base 4.0~bzr753
 _ZN3nux19NFileManagerGeneric4CopyEPKcS2_bbPNS_20NFileTransferMonitorE@Base 4.0~bzr753
 _ZN3nux19NFileManagerGeneric4MoveEPKcS2_bbPNS_20NFileTransferMonitorE@Base 4.0~bzr753
 _ZN3nux19NFileManagerGeneric7IsDriveEPKc@Base 4.0~bzr753
 _ZN3nux19NFileManagerGenericD0Ev@Base 4.0~bzr753
 _ZN3nux19NFileManagerGenericD1Ev@Base 4.0~bzr753
 _ZN3nux19NFileManagerGenericD2Ev@Base 4.0~bzr753
 _ZN3nux19NThreadLocalStorage10InitializeEv@Base 4.0~bzr753
 _ZN3nux19NThreadLocalStorage10ThreadInitEv@Base 4.0~bzr753
 _ZN3nux19NThreadLocalStorage10m_TLSIndexE@Base 4.0~bzr753
 _ZN3nux19NThreadLocalStorage11RegisterTLSEjPFvvE@Base 4.0~bzr753
 _ZN3nux19NThreadLocalStorage13UnRegisterTLSEj@Base 4.0~bzr753
 _ZN3nux19NThreadLocalStorage14ThreadShutdownEv@Base 4.0~bzr753
 _ZN3nux19NThreadLocalStorage14m_TLSCallbacksE@Base 4.0~bzr753
 _ZN3nux19NThreadLocalStorage8ShutdownEv@Base 4.0~bzr753
 _ZN3nux19NThreadLocalStorage9m_TLSUsedE@Base 4.0~bzr753
 _ZN3nux19PrintfOutputConsole10DestructorEv@Base 4.0~bzr753
 _ZN3nux19PrintfOutputConsole11ConstructorEv@Base 4.0~bzr753
 _ZN3nux19PrintfOutputConsole9SerializeEPKcS2_i@Base 4.0~bzr753
 _ZN3nux19PrintfOutputConsole9pInstanceE@Base 4.0~bzr753
 _ZN3nux19PrintfOutputConsoleD0Ev@Base 4.0~bzr753
 _ZN3nux19PrintfOutputConsoleD1Ev@Base 4.0~bzr753
 _ZN3nux19PrintfOutputConsoleD2Ev@Base 4.0~bzr753
 _ZN3nux19VisualOutputConsole10DestructorEv@Base 4.0~bzr753
 _ZN3nux19VisualOutputConsole11ConstructorEv@Base 4.0~bzr753
 _ZN3nux19VisualOutputConsole9SerializeEPKcS2_i@Base 4.0~bzr753
 _ZN3nux19VisualOutputConsole9pInstanceE@Base 4.0~bzr753
 _ZN3nux19VisualOutputConsoleD0Ev@Base 4.0~bzr753
 _ZN3nux19VisualOutputConsoleD1Ev@Base 4.0~bzr753
 _ZN3nux19VisualOutputConsoleD2Ev@Base 4.0~bzr753
 _ZN3nux19isLegalUTF8SequenceEPKhS1_@Base 4.0~bzr753
 _ZN3nux20NCharacterConversionIccNS_21TCharToAnsiConvertionELm128EED1Ev@Base 4.0~bzr753
 _ZN3nux20NCharacterConversionIccNS_21TCharToAnsiConvertionELm128EED2Ev@Base 4.0~bzr753
 _ZN3nux20NGNUSerialFileReader11GetFileSizeEv@Base 4.0~bzr753
 _ZN3nux20NGNUSerialFileReader11sBufferSizeE@Base 4.0~bzr753
 _ZN3nux20NGNUSerialFileReader14SerializeFinalEPvx@Base 4.0~bzr753
 _ZN3nux20NGNUSerialFileReader4SeekExNS_11NSerializer7SeekPosE@Base 4.0~bzr753
 _ZN3nux20NGNUSerialFileReader4TellEv@Base 4.0~bzr753
 _ZN3nux20NGNUSerialFileReader5CloseEv@Base 4.0~bzr753
 _ZN3nux20NGNUSerialFileReader8PrecacheEii@Base 4.0~bzr753
 _ZN3nux20NGNUSerialFileReader8isReaderEv@Base 4.0~bzr753
 _ZN3nux20NGNUSerialFileReader8isWriterEv@Base 4.0~bzr753
 _ZN3nux20NGNUSerialFileReaderC1EiRNS_15LogOutputDeviceEi@Base 4.0~bzr753
 _ZN3nux20NGNUSerialFileReaderC2EiRNS_15LogOutputDeviceEi@Base 4.0~bzr753
 _ZN3nux20NGNUSerialFileReaderD0Ev@Base 4.0~bzr753
 _ZN3nux20NGNUSerialFileReaderD1Ev@Base 4.0~bzr753
 _ZN3nux20NGNUSerialFileReaderD2Ev@Base 4.0~bzr753
 _ZN3nux20NGNUSerialFileWriter11GetFileSizeEv@Base 4.0~bzr753
 _ZN3nux20NGNUSerialFileWriter11sBufferSizeE@Base 4.0~bzr753
 _ZN3nux20NGNUSerialFileWriter14SerializeFinalEPvx@Base 4.0~bzr753
 _ZN3nux20NGNUSerialFileWriter4SeekExNS_11NSerializer7SeekPosE@Base 4.0~bzr753
 _ZN3nux20NGNUSerialFileWriter4TellEv@Base 4.0~bzr753
 _ZN3nux20NGNUSerialFileWriter5CloseEv@Base 4.0~bzr753
 _ZN3nux20NGNUSerialFileWriter5FlushEv@Base 4.0~bzr753
 _ZN3nux20NGNUSerialFileWriter6_FlushEv@Base 4.0~bzr753
 _ZN3nux20NGNUSerialFileWriter8isReaderEv@Base 4.0~bzr753
 _ZN3nux20NGNUSerialFileWriter8isWriterEv@Base 4.0~bzr753
 _ZN3nux20NGNUSerialFileWriterC1EiRNS_15LogOutputDeviceEi@Base 4.0~bzr753
 _ZN3nux20NGNUSerialFileWriterC2EiRNS_15LogOutputDeviceEi@Base 4.0~bzr753
 _ZN3nux20NGNUSerialFileWriterD0Ev@Base 4.0~bzr753
 _ZN3nux20NGNUSerialFileWriterD1Ev@Base 4.0~bzr753
 _ZN3nux20NGNUSerialFileWriterD2Ev@Base 4.0~bzr753
 _ZN3nux20PointInside2DPolygonEPNS_7Point2DIfEEiS1_i@Base 4.0~bzr753
 _ZN3nux20SleepForMillisecondsEj@Base 4.0~bzr753
 _ZN3nux21GetFormattedLocalTimeEv@Base 4.0~bzr753
 _ZN3nux21LogOutputDebugMessageEPKcz@Base 4.0~bzr753
 _ZN3nux21LogOutputErrorMessageEPKciS1_z@Base 4.0~bzr753
 _ZN3nux21OutputRedirectorReadyEv@Base 4.0~bzr753
 _ZN3nux22InitiallyUnownedObject16StaticObjectTypeE@Base 4.0~bzr753
 _ZN3nux22InitiallyUnownedObjectC1EPKci@Base 4.0~bzr753
 _ZN3nux22InitiallyUnownedObjectC2EPKci@Base 4.0~bzr753
 _ZN3nux22InitiallyUnownedObjectD0Ev@Base 4.0~bzr753
 _ZN3nux22InitiallyUnownedObjectD1Ev@Base 4.0~bzr753
 _ZN3nux22InitiallyUnownedObjectD2Ev@Base 4.0~bzr753
 _ZN3nux22LogOutputAssertMessageEPKciS1_z@Base 4.0~bzr753
 _ZN3nux22PrintOutputDebugStringEPKcz@Base 4.0~bzr753
 _ZN3nux22inlInitRandomGeneratorEv@Base 4.0~bzr753
 _ZN3nux23LoadTextFileToAnsiArrayERSt6vectorIcSaIcEEPKcRNS_12NFileManagerE@Base 4.0~bzr753
 _ZN3nux24LogOutputSeverityMessageEiPKcz@Base 4.0~bzr753
 _ZN3nux26GlobalSingletonInitializer21m_bGlobalObjectsReadyE@Base 4.0~bzr753
 _ZN3nux26GlobalSingletonInitializer5ReadyEv@Base 4.0~bzr753
 _ZN3nux26GlobalSingletonInitializerC1Ev@Base 4.0~bzr753
 _ZN3nux26GlobalSingletonInitializerC2Ev@Base 4.0~bzr753
 _ZN3nux26GlobalSingletonInitializerD1Ev@Base 4.0~bzr753
 _ZN3nux26GlobalSingletonInitializerD2Ev@Base 4.0~bzr753
 _ZN3nux26LoadTextFileToUnicodeArrayERSt6vectorIwSaIwEEPKcRNS_12NFileManagerE@Base 4.0~bzr753
 _ZN3nux27AnsicharToUnicharConvertion7ConvertEPKc@Base 4.0~bzr753
 _ZN3nux27UnicharToAnsicharConvertion7ConvertEPKw@Base 4.0~bzr753
 _ZN3nux28CartesianToSphericalXBaseRadEfff@Base 4.0~bzr753
 _ZN3nux28CartesianToSphericalZBaseDegEfff@Base 4.0~bzr753
 _ZN3nux28SphericalToCartesianXBaseDegEfff@Base 4.0~bzr753
 _ZN3nux28SphericalToCartesianXBaseRadEfff@Base 4.0~bzr753
 _ZN3nux28SphericalToCartesianZBaseDegEfff@Base 4.0~bzr753
 _ZN3nux28SphericalToCartesianZBaseRadEfff@Base 4.0~bzr753
 _ZN3nux4Log2Ed@Base 4.0~bzr753
 _ZN3nux4Rect11SetPositionEii@Base 4.0~bzr753
 _ZN3nux4Rect3SetEiiii@Base 4.0~bzr753
 _ZN3nux4Rect6ExpandEii@Base 4.0~bzr753
 _ZN3nux4Rect7SetSizeEii@Base 4.0~bzr753
 _ZN3nux4RectC1EOS0_@Base 4.0.0
 _ZN3nux4RectC1ERKS0_@Base 4.0~bzr753
 _ZN3nux4RectC1Eiiii@Base 4.0~bzr753
 _ZN3nux4RectC1Ev@Base 4.0~bzr753
 _ZN3nux4RectC2EOS0_@Base 4.0.0
 _ZN3nux4RectC2ERKS0_@Base 4.0~bzr753
 _ZN3nux4RectC2Eiiii@Base 4.0~bzr753
 _ZN3nux4RectC2Ev@Base 4.0~bzr753
 _ZN3nux4RectaSES0_@Base 4.0.0
 _ZN3nux5FloorEd@Base 4.0~bzr753
 _ZN3nux5NUTF87ConvertEPKw@Base 4.0~bzr753
 _ZN3nux5NUTF8C1EPKw@Base 4.0~bzr753
 _ZN3nux5NUTF8C1ERKSbIwSt11char_traitsIwESaIwEE@Base 4.0~bzr753
 _ZN3nux5NUTF8C2EPKw@Base 4.0~bzr753
 _ZN3nux5NUTF8C2ERKSbIwSt11char_traitsIwESaIwEE@Base 4.0~bzr753
 _ZN3nux5NUTF8D1Ev@Base 4.0~bzr753
 _ZN3nux5NUTF8D2Ev@Base 4.0~bzr753
 _ZN3nux5NUTF8cvPKcEv@Base 4.0~bzr753
 _ZN3nux5PowerEdd@Base 4.0~bzr753
 _ZN3nux5SlerpEfRKNS_10QuaternionES2_@Base 4.0~bzr753
 _ZN3nux5color10AquamarineE@Base 4.0~bzr753
 _ZN3nux5color10BlueVioletE@Base 4.0~bzr753
 _ZN3nux5color10ChartreuseE@Base 4.0~bzr753
 _ZN3nux5color10DarkOrangeE@Base 4.0~bzr753
 _ZN3nux5color10DarkOrchidE@Base 4.0~bzr753
 _ZN3nux5color10DarkSalmonE@Base 4.0~bzr753
 _ZN3nux5color10DarkVioletE@Base 4.0~bzr753
 _ZN3nux5color10DodgerBlueE@Base 4.0~bzr753
 _ZN3nux5color10GhostWhiteE@Base 4.0~bzr753
 _ZN3nux5color10IsValidHexESs@Base 4.0~bzr753
 _ZN3nux5color10LightCoralE@Base 4.0~bzr753
 _ZN3nux5color10LightGreenE@Base 4.0~bzr753
 _ZN3nux5color10MediumBlueE@Base 4.0~bzr753
 _ZN3nux5color10PapayaWhipE@Base 4.0~bzr753
 _ZN3nux5color10PowderBlueE@Base 4.0~bzr753
 _ZN3nux5color10SandyBrownE@Base 4.0~bzr753
 _ZN3nux5color10WhiteSmokeE@Base 4.0~bzr753
 _ZN3nux5color11DarkMagentaE@Base 4.0~bzr753
 _ZN3nux5color11DeepSkyBlueE@Base 4.0~bzr753
 _ZN3nux5color11FloralWhiteE@Base 4.0~bzr753
 _ZN3nux5color11ForestGreenE@Base 4.0~bzr753
 _ZN3nux5color11GreenYellowE@Base 4.0~bzr753
 _ZN3nux5color11LightSalmonE@Base 4.0~bzr753
 _ZN3nux5color11LightYellowE@Base 4.0~bzr753
 _ZN3nux5color11NavajoWhiteE@Base 4.0~bzr753
 _ZN3nux5color11RandomColorEv@Base 4.0~bzr753
 _ZN3nux5color11SaddleBrownE@Base 4.0~bzr753
 _ZN3nux5color11SpringGreenE@Base 4.0~bzr753
 _ZN3nux5color11TransparentE@Base 4.0~bzr753
 _ZN3nux5color11YellowGreenE@Base 4.0~bzr753
 _ZN3nux5color12AntiqueWhiteE@Base 4.0~bzr753
 _ZN3nux5color12DarkSeaGreenE@Base 4.0~bzr753
 _ZN3nux5color12LemonChiffonE@Base 4.0~bzr753
 _ZN3nux5color12LightSkyBlueE@Base 4.0~bzr753
 _ZN3nux5color12MediumOrchidE@Base 4.0~bzr753
 _ZN3nux5color12MediumPurpleE@Base 4.0~bzr753
 _ZN3nux5color12MidnightBlueE@Base 4.0~bzr753
 _ZN3nux5color12RedGreenBlueC1ERKNS0_18HueSaturationValueE@Base 4.0~bzr753
 _ZN3nux5color12RedGreenBlueC1ERKNS0_22HueLightnessSaturationE@Base 4.0~bzr753
 _ZN3nux5color12RedGreenBlueC1ERKNS0_5ColorE@Base 4.0~bzr753
 _ZN3nux5color12RedGreenBlueC1Efff@Base 4.0~bzr753
 _ZN3nux5color12RedGreenBlueC2ERKNS0_18HueSaturationValueE@Base 4.0~bzr753
 _ZN3nux5color12RedGreenBlueC2ERKNS0_22HueLightnessSaturationE@Base 4.0~bzr753
 _ZN3nux5color12RedGreenBlueC2ERKNS0_5ColorE@Base 4.0~bzr753
 _ZN3nux5color12RedGreenBlueC2Efff@Base 4.0~bzr753
 _ZN3nux5color13DarkGoldenrodE@Base 4.0~bzr753
 _ZN3nux5color13DarkSlateBlueE@Base 4.0~bzr753
 _ZN3nux5color13DarkSlateGrayE@Base 4.0~bzr753
 _ZN3nux5color13DarkTurquoiseE@Base 4.0~bzr753
 _ZN3nux5color13LavenderBlushE@Base 4.0~bzr753
 _ZN3nux5color13LightSeaGreenE@Base 4.0~bzr753
 _ZN3nux5color13PaleGoldenrodE@Base 4.0~bzr753
 _ZN3nux5color13PaleTurquoiseE@Base 4.0~bzr753
 _ZN3nux5color13PaleVioletRedE@Base 4.0~bzr753
 _ZN3nux5color14BlanchedAlmondE@Base 4.0~bzr753
 _ZN3nux5color14CornflowerBlueE@Base 4.0~bzr753
 _ZN3nux5color14DarkOliveGreenE@Base 4.0~bzr753
 _ZN3nux5color14LightSlateGrayE@Base 4.0~bzr753
 _ZN3nux5color14LightSteelBlueE@Base 4.0~bzr753
 _ZN3nux5color14MediumSeaGreenE@Base 4.0~bzr753
 _ZN3nux5color14RandomColorINTEv@Base 4.0~bzr753
 _ZN3nux5color15MediumSlateBlueE@Base 4.0~bzr753
 _ZN3nux5color15MediumTurquoiseE@Base 4.0~bzr753
 _ZN3nux5color15MediumVioletRedE@Base 4.0~bzr753
 _ZN3nux5color16MediumAquamarineE@Base 4.0~bzr753
 _ZN3nux5color17MediumSpringGreenE@Base 4.0~bzr753
 _ZN3nux5color18HueSaturationValueC1ERKNS0_12RedGreenBlueE@Base 4.0~bzr753
 _ZN3nux5color18HueSaturationValueC1ERKNS0_5ColorE@Base 4.0~bzr753
 _ZN3nux5color18HueSaturationValueC1Efff@Base 4.0~bzr753
 _ZN3nux5color18HueSaturationValueC2ERKNS0_12RedGreenBlueE@Base 4.0~bzr753
 _ZN3nux5color18HueSaturationValueC2ERKNS0_5ColorE@Base 4.0~bzr753
 _ZN3nux5color18HueSaturationValueC2Efff@Base 4.0~bzr753
 _ZN3nux5color20LightGoldenrodYellowE@Base 4.0~bzr753
 _ZN3nux5color22HueLightnessSaturationC1ERKNS0_12RedGreenBlueE@Base 4.0~bzr753
 _ZN3nux5color22HueLightnessSaturationC1ERKNS0_5ColorE@Base 4.0~bzr753
 _ZN3nux5color22HueLightnessSaturationC1Efff@Base 4.0~bzr753
 _ZN3nux5color22HueLightnessSaturationC2ERKNS0_12RedGreenBlueE@Base 4.0~bzr753
 _ZN3nux5color22HueLightnessSaturationC2ERKNS0_5ColorE@Base 4.0~bzr753
 _ZN3nux5color22HueLightnessSaturationC2Efff@Base 4.0~bzr753
 _ZN3nux5color3RedE@Base 4.0~bzr753
 _ZN3nux5color3TanE@Base 4.0~bzr753
 _ZN3nux5color4AquaE@Base 4.0~bzr753
 _ZN3nux5color4BlueE@Base 4.0~bzr753
 _ZN3nux5color4CyanE@Base 4.0~bzr753
 _ZN3nux5color4GoldE@Base 4.0~bzr753
 _ZN3nux5color4GrayE@Base 4.0~bzr753
 _ZN3nux5color4LimeE@Base 4.0~bzr753
 _ZN3nux5color4NavyE@Base 4.0~bzr753
 _ZN3nux5color4PeruE@Base 4.0~bzr753
 _ZN3nux5color4PinkE@Base 4.0~bzr753
 _ZN3nux5color4PlumE@Base 4.0~bzr753
 _ZN3nux5color4SnowE@Base 4.0~bzr753
 _ZN3nux5color4TealE@Base 4.0~bzr753
 _ZN3nux5color5AzureE@Base 4.0~bzr753
 _ZN3nux5color5BeigeE@Base 4.0~bzr753
 _ZN3nux5color5BlackE@Base 4.0~bzr753
 _ZN3nux5color5BrownE@Base 4.0~bzr753
 _ZN3nux5color5Color15IsPremultipliedEv@Base 4.0~bzr753
 _ZN3nux5color5Color16GetPremultipliedEv@Base 4.0~bzr753
 _ZN3nux5color5Color16SetPremultipliedEffff@Base 4.0~bzr753
 _ZN3nux5color5ColorC1ERKNS0_12RedGreenBlueEf@Base 4.0~bzr753
 _ZN3nux5color5ColorC1ERKSs@Base 4.0~bzr753
 _ZN3nux5color5ColorC1Effff@Base 4.0~bzr753
 _ZN3nux5color5ColorC1Eiii@Base 4.0~bzr753
 _ZN3nux5color5ColorC1Ej@Base 4.0~bzr753
 _ZN3nux5color5ColorC1Ev@Base 4.0~bzr753
 _ZN3nux5color5ColorC2ERKNS0_12RedGreenBlueEf@Base 4.0~bzr753
 _ZN3nux5color5ColorC2ERKSs@Base 4.0~bzr753
 _ZN3nux5color5ColorC2Effff@Base 4.0~bzr753
 _ZN3nux5color5ColorC2Eiii@Base 4.0~bzr753
 _ZN3nux5color5ColorC2Ej@Base 4.0~bzr753
 _ZN3nux5color5ColorC2Ev@Base 4.0~bzr753
 _ZN3nux5color5CoralE@Base 4.0~bzr753
 _ZN3nux5color5GreenE@Base 4.0~bzr753
 _ZN3nux5color5IvoryE@Base 4.0~bzr753
 _ZN3nux5color5KhakiE@Base 4.0~bzr753
 _ZN3nux5color5LinenE@Base 4.0~bzr753
 _ZN3nux5color5OliveE@Base 4.0~bzr753
 _ZN3nux5color5WheatE@Base 4.0~bzr753
 _ZN3nux5color5WhiteE@Base 4.0~bzr753
 _ZN3nux5color6BisqueE@Base 4.0~bzr753
 _ZN3nux5color6IndigoE@Base 4.0~bzr753
 _ZN3nux5color6MaroonE@Base 4.0~bzr753
 _ZN3nux5color6OrangeE@Base 4.0~bzr753
 _ZN3nux5color6OrchidE@Base 4.0~bzr753
 _ZN3nux5color6PurpleE@Base 4.0~bzr753
 _ZN3nux5color6SalmonE@Base 4.0~bzr753
 _ZN3nux5color6SiennaE@Base 4.0~bzr753
 _ZN3nux5color6SilverE@Base 4.0~bzr753
 _ZN3nux5color6TomatoE@Base 4.0~bzr753
 _ZN3nux5color6VioletE@Base 4.0~bzr753
 _ZN3nux5color6YellowE@Base 4.0~bzr753
 _ZN3nux5color7CrimsonE@Base 4.0~bzr753
 _ZN3nux5color7DarkRedE@Base 4.0~bzr753
 _ZN3nux5color7DimGrayE@Base 4.0~bzr753
 _ZN3nux5color7FuchsiaE@Base 4.0~bzr753
 _ZN3nux5color7HotPinkE@Base 4.0~bzr753
 _ZN3nux5color7LumaRedE@Base 4.0~bzr753
 _ZN3nux5color7MagentaE@Base 4.0~bzr753
 _ZN3nux5color7OldLaceE@Base 4.0~bzr753
 _ZN3nux5color7SkyBlueE@Base 4.0~bzr753
 _ZN3nux5color7ThistleE@Base 4.0~bzr753
 _ZN3nux5color8CornsilkE@Base 4.0~bzr753
 _ZN3nux5color8DarkBlueE@Base 4.0~bzr753
 _ZN3nux5color8DarkCyanE@Base 4.0~bzr753
 _ZN3nux5color8DarkGrayE@Base 4.0~bzr753
 _ZN3nux5color8DeepPinkE@Base 4.0~bzr753
 _ZN3nux5color8HLStoRGBERfS1_S1_fff@Base 4.0~bzr753
 _ZN3nux5color8HSVtoRGBERfS1_S1_fff@Base 4.0~bzr753
 _ZN3nux5color8HexToIntERKSs@Base 4.0~bzr753
 _ZN3nux5color8HoneydewE@Base 4.0~bzr753
 _ZN3nux5color8LavenderE@Base 4.0~bzr753
 _ZN3nux5color8LumaBlueE@Base 4.0~bzr753
 _ZN3nux5color8MoccasinE@Base 4.0~bzr753
 _ZN3nux5color8RGBtoHLSEfffRfS1_S1_@Base 4.0~bzr753
 _ZN3nux5color8RGBtoHSVEfffRfS1_S1_@Base 4.0~bzr753
 _ZN3nux5color8SeaGreenE@Base 4.0~bzr753
 _ZN3nux5color8SeashellE@Base 4.0~bzr753
 _ZN3nux5color9AliceBlueE@Base 4.0~bzr753
 _ZN3nux5color9AubergineE@Base 4.0~bzr753
 _ZN3nux5color9BurlyWoodE@Base 4.0~bzr753
 _ZN3nux5color9CadetBlueE@Base 4.0~bzr753
 _ZN3nux5color9ChocolateE@Base 4.0~bzr753
 _ZN3nux5color9DarkGreenE@Base 4.0~bzr753
 _ZN3nux5color9DarkKhakiE@Base 4.0~bzr753
 _ZN3nux5color9FireBrickE@Base 4.0~bzr753
 _ZN3nux5color9GainsboroE@Base 4.0~bzr753
 _ZN3nux5color9GoldenrodE@Base 4.0~bzr753
 _ZN3nux5color9HexToRGBAESsRfS1_S1_S1_@Base 4.0~bzr753
 _ZN3nux5color9IndianRedE@Base 4.0~bzr753
 _ZN3nux5color9LawnGreenE@Base 4.0~bzr753
 _ZN3nux5color9LightBlueE@Base 4.0~bzr753
 _ZN3nux5color9LightCyanE@Base 4.0~bzr753
 _ZN3nux5color9LightGreyE@Base 4.0~bzr753
 _ZN3nux5color9LightPinkE@Base 4.0~bzr753
 _ZN3nux5color9LimeGreenE@Base 4.0~bzr753
 _ZN3nux5color9LumaGreenE@Base 4.0~bzr753
 _ZN3nux5color9MintCreamE@Base 4.0~bzr753
 _ZN3nux5color9MistyRoseE@Base 4.0~bzr753
 _ZN3nux5color9OliveDrabE@Base 4.0~bzr753
 _ZN3nux5color9OrangeRedE@Base 4.0~bzr753
 _ZN3nux5color9PaleGreenE@Base 4.0~bzr753
 _ZN3nux5color9PeachPuffE@Base 4.0~bzr753
 _ZN3nux5color9RosyBrownE@Base 4.0~bzr753
 _ZN3nux5color9RoyalBlueE@Base 4.0~bzr753
 _ZN3nux5color9SlateBlueE@Base 4.0~bzr753
 _ZN3nux5color9SlateGrayE@Base 4.0~bzr753
 _ZN3nux5color9SteelBlueE@Base 4.0~bzr753
 _ZN3nux5color9TurquoiseE@Base 4.0~bzr753
 _ZN3nux5coloreqERKNS0_5ColorES3_@Base 4.0~bzr753
 _ZN3nux5colormiERKNS0_5ColorES3_@Base 4.0~bzr753
 _ZN3nux5colormiERKNS0_5ColorEf@Base 4.0~bzr753
 _ZN3nux5colormiEfRKNS0_5ColorE@Base 4.0~bzr753
 _ZN3nux5colormlERKNS0_5ColorEf@Base 4.0~bzr753
 _ZN3nux5colormlEfRKNS0_5ColorE@Base 4.0~bzr753
 _ZN3nux5colorneERKNS0_5ColorES3_@Base 4.0~bzr753
 _ZN3nux5colorplERKNS0_5ColorES3_@Base 4.0~bzr753
 _ZN3nux5colorplERKNS0_5ColorEf@Base 4.0~bzr753
 _ZN3nux5colorplEfRKNS0_5ColorE@Base 4.0~bzr753
 _ZN3nux6MallocEmj@Base 4.0~bzr753
 _ZN3nux6MemcmpEPKvS1_j@Base 4.0~bzr753
 _ZN3nux6MemcpyEPvPKvm@Base 4.0~bzr753
 _ZN3nux6MemsetEPvim@Base 4.0~bzr753
 _ZN3nux6NUTF167ConvertEPKc@Base 4.0~bzr753
 _ZN3nux6NUTF16C1EPKc@Base 4.0~bzr753
 _ZN3nux6NUTF16C1ERKSs@Base 4.0~bzr753
 _ZN3nux6NUTF16C2EPKc@Base 4.0~bzr753
 _ZN3nux6NUTF16C2ERKSs@Base 4.0~bzr753
 _ZN3nux6NUTF16D1Ev@Base 4.0~bzr753
 _ZN3nux6NUTF16D2Ev@Base 4.0~bzr753
 _ZN3nux6NUTF16cvPKwEv@Base 4.0~bzr753
 _ZN3nux6Object11UnReferenceEv@Base 4.0~bzr753
 _ZN3nux6Object13SinkReferenceEv@Base 4.0~bzr753
 _ZN3nux6Object16StaticObjectTypeE@Base 4.0~bzr753
 _ZN3nux6Object7DestroyEv@Base 4.0~bzr753
 _ZN3nux6Object7DisposeEv@Base 4.0~bzr753
 _ZN3nux6Object9ReferenceEv@Base 4.0~bzr753
 _ZN3nux6ObjectC1EbPKci@Base 4.0~bzr753
 _ZN3nux6ObjectC2EbPKci@Base 4.0~bzr753
 _ZN3nux6ObjectD0Ev@Base 4.0~bzr753
 _ZN3nux6ObjectD1Ev@Base 4.0~bzr753
 _ZN3nux6ObjectD2Ev@Base 4.0~bzr753
 _ZN3nux7MemmoveEPvPKvm@Base 4.0~bzr753
 _ZN3nux7MemswapEPvS0_m@Base 4.0~bzr753
 _ZN3nux7MemzeroEPvm@Base 4.0~bzr753
 _ZN3nux7NThread10EntryPointEPv@Base 4.0~bzr753
 _ZN3nux7NThread10GetPThreadEv@Base 4.0~bzr753
 _ZN3nux7NThread10JoinThreadEPS0_j@Base 4.0~bzr753
 _ZN3nux7NThread10ResumeExitEv@Base 4.0~bzr753
 _ZN3nux7NThread10ThreadCtorEv@Base 4.0~bzr753
 _ZN3nux7NThread10ThreadDtorEv@Base 4.0~bzr753
 _ZN3nux7NThread11ResumeStartEv@Base 4.0~bzr753
 _ZN3nux7NThread14SetThreadStateENS_11ThreadStateE@Base 4.0~bzr753
 _ZN3nux7NThread16StaticObjectTypeE@Base 4.0~bzr753
 _ZN3nux7NThread3RunEPv@Base 4.0~bzr753
 _ZN3nux7NThread4StopEb@Base 4.0~bzr753
 _ZN3nux7NThread5StartEPv@Base 4.0~bzr753
 _ZN3nux7NThread6ResumeEv@Base 4.0~bzr753
 _ZN3nux7NThread7SuspendEv@Base 4.0~bzr753
 _ZN3nux7NThreadC1EPFPvS1_E@Base 4.0~bzr753
 _ZN3nux7NThreadC1Ev@Base 4.0~bzr753
 _ZN3nux7NThreadC2EPFPvS1_E@Base 4.0~bzr753
 _ZN3nux7NThreadC2Ev@Base 4.0~bzr753
 _ZN3nux7NThreadD0Ev@Base 4.0~bzr753
 _ZN3nux7NThreadD1Ev@Base 4.0~bzr753
 _ZN3nux7NThreadD2Ev@Base 4.0~bzr753
 _ZN3nux7ReallocEPvmj@Base 4.0~bzr753
 _ZN3nux7StrfindEPKcS1_@Base 4.0~bzr753
 _ZN3nux7StrncpyEPcmPKcm@Base 4.0~bzr753
 _ZN3nux7logging11BlockTracerC1ERKNS0_6LoggerENS0_5LevelERKSsS7_i@Base 4.0~bzr753
 _ZN3nux7logging11BlockTracerC2ERKNS0_6LoggerENS0_5LevelERKSsS7_i@Base 4.0~bzr753
 _ZN3nux7logging11BlockTracerD1Ev@Base 4.0~bzr753
 _ZN3nux7logging11BlockTracerD2Ev@Base 4.0~bzr753
 _ZN3nux7logging12LoggerModuleC1ERKSsRKN5boost10shared_ptrIS1_EE@Base 4.0~bzr753
 _ZN3nux7logging12LoggerModuleC2ERKSsRKN5boost10shared_ptrIS1_EE@Base 4.0~bzr753
 _ZN3nux7logging13LoggerModules5ResetEv@Base 4.0~bzr753
 _ZN3nux7logging13LoggerModules8InstanceEv@Base 4.0~bzr753
 _ZN3nux7logging13LoggerModules9GetModuleERKSs@Base 4.0~bzr753
 _ZN3nux7logging13LoggerModulesC1Ev@Base 4.0~bzr753
 _ZN3nux7logging13LoggerModulesC2Ev@Base 4.0~bzr753
 _ZN3nux7logging13LoggerModulesD1Ev@Base 4.0~bzr753
 _ZN3nux7logging13LoggerModulesD2Ev@Base 4.0~bzr753
 _ZN3nux7logging13reset_loggingEv@Base 4.0~bzr753
 _ZN3nux7logging15LogStreamBuffer4syncEv@Base 4.0~bzr753
 _ZN3nux7logging15LogStreamBufferC1ENS0_5LevelERKSsS4_i@Base 4.0~bzr753
 _ZN3nux7logging15LogStreamBufferC2ENS0_5LevelERKSsS4_i@Base 4.0~bzr753
 _ZN3nux7logging15LogStreamBufferD0Ev@Base 4.0~bzr753
 _ZN3nux7logging15LogStreamBufferD1Ev@Base 4.0~bzr753
 _ZN3nux7logging15LogStreamBufferD2Ev@Base 4.0~bzr753
 _ZN3nux7logging17configure_loggingEPKc@Base 4.0~bzr753
 _ZN3nux7logging17get_logging_levelESs@Base 4.0~bzr753
 _ZN3nux7logging19RollingFileAppenderC1ERKSs@Base 4.0~bzr753
 _ZN3nux7logging19RollingFileAppenderC1ERKSsjy@Base 4.0~bzr753
 _ZN3nux7logging19RollingFileAppenderC2ERKSs@Base 4.0~bzr753
 _ZN3nux7logging19RollingFileAppenderC2ERKSsjy@Base 4.0~bzr753
 _ZN3nux7logging19RollingFileAppenderD0Ev@Base 4.0~bzr753
 _ZN3nux7logging19RollingFileAppenderD1Ev@Base 4.0~bzr753
 _ZN3nux7logging19RollingFileAppenderD2Ev@Base 4.0~bzr753
 _ZN3nux7logging19dump_logging_levelsERKSs@Base 4.0~bzr753
 _ZN3nux7logging6Logger11SetLogLevelENS0_5LevelE@Base 4.0~bzr753
 _ZN3nux7logging6LoggerC1ERKSs@Base 4.0~bzr753
 _ZN3nux7logging6LoggerC2ERKSs@Base 4.0~bzr753
 _ZN3nux7logging6LoggerD1Ev@Base 4.0~bzr753
 _ZN3nux7logging6LoggerD2Ev@Base 4.0~bzr753
 _ZN3nux7logging6Writer12WriteMessageENS0_5LevelERKSsS4_ilS4_@Base 4.0~bzr753
 _ZN3nux7logging6Writer15SetOutputStreamERSo@Base 4.0~bzr753
 _ZN3nux7logging6Writer4Impl12WriteMessageENS0_5LevelERKSsS5_ilS5_@Base 4.0~bzr753
 _ZN3nux7logging6Writer4Impl15SetOutputStreamERSo@Base 4.0~bzr753
 _ZN3nux7logging6Writer4ImplC1Ev@Base 4.0~bzr753
 _ZN3nux7logging6Writer4ImplC2Ev@Base 4.0~bzr753
 _ZN3nux7logging6Writer8InstanceEv@Base 4.0~bzr753
 _ZN3nux7logging6WriterC1Ev@Base 4.0~bzr753
 _ZN3nux7logging6WriterC2Ev@Base 4.0~bzr753
 _ZN3nux7logging6WriterD1Ev@Base 4.0~bzr753
 _ZN3nux7logging6WriterD2Ev@Base 4.0~bzr753
 _ZN3nux7logging9BacktraceEi@Base 4.0~bzr753
 _ZN3nux7logging9LogStreamC1ENS0_5LevelERKSsS4_i@Base 4.0~bzr753
 _ZN3nux7logging9LogStreamC2ENS0_5LevelERKSsS4_i@Base 4.0~bzr753
 _ZN3nux7logging9LogStreamD0Ev@Base 4.0~bzr753
 _ZN3nux7logging9LogStreamD1Ev@Base 4.0~bzr753
 _ZN3nux7logging9LogStreamD2Ev@Base 4.0~bzr753
 _ZN3nux8FilePath13AddSearchPathERKSs@Base 4.0~bzr753
 _ZN3nux8FilePath13AddSearchPathERKSt6vectorISsSaISsEE@Base 4.0~bzr753
 _ZN3nux8FilePathC1Ev@Base 4.0~bzr753
 _ZN3nux8FilePathC2Ev@Base 4.0~bzr753
 _ZN3nux8FilePathD1Ev@Base 4.0~bzr753
 _ZN3nux8FilePathD2Ev@Base 4.0~bzr753
 _ZN3nux8Parse_s8EPKcS1_Ra@Base 4.0~bzr753
 _ZN3nux8Parse_u8EPKcS1_Rh@Base 4.0~bzr753
 _ZN3nux8SnprintfEPciiPKcz@Base 4.0~bzr753
 _ZN3nux9BernsteinEid@Base 4.0~bzr753
 _ZN3nux9Bezier_XYEidPdS0_S0_S0_@Base 4.0~bzr753
 _ZN3nux9FactorialEi@Base 4.0~bzr753
 _ZN3nux9GNoDialogE@Base 4.0~bzr753
 _ZN3nux9MemIsZeroEPKvm@Base 4.0~bzr753
 _ZN3nux9NFileName13AddSlashAtEndEv@Base 4.0~bzr753
 _ZN3nux9NFileName15AddSlashAtStartEv@Base 4.0~bzr753
 _ZN3nux9NFileName16RemoveSlashAtEndEv@Base 4.0~bzr753
 _ZN3nux9NFileName17AddBackSlashAtEndEv@Base 4.0~bzr753
 _ZN3nux9NFileName18RemoveSlashAtStartEv@Base 4.0~bzr753
 _ZN3nux9NFileName19AddBackSlashAtStartEv@Base 4.0~bzr753
 _ZN3nux9NFileName19ChangeFileExtensionEPKc@Base 4.0~bzr753
 _ZN3nux9NFileName19ConvertToCleanSlashEv@Base 4.0~bzr753
 _ZN3nux9NFileName20RemoveBackSlashAtEndEv@Base 4.0~bzr753
 _ZN3nux9NFileName22RemoveBackSlashAtStartEv@Base 4.0~bzr753
 _ZN3nux9NFileName23ConvertBackslashToSlashEv@Base 4.0~bzr753
 _ZN3nux9NFileName23ConvertSlashToBackslashEv@Base 4.0~bzr753
 _ZN3nux9NFileName23ConvertToCleanBackslashEv@Base 4.0~bzr753
 _ZN3nux9ParseLineEPPKcPci@Base 4.0~bzr753
 _ZN3nux9ParseLineEPPKcRSs@Base 4.0~bzr753
 _ZN3nux9Parse_intEPKcS1_Ri@Base 4.0~bzr753
 _ZN3nux9Parse_s16EPKcS1_Rs@Base 4.0~bzr753
 _ZN3nux9Parse_s64EPKcS1_Rl@Base 4.0~bzr753
 _ZN3nux9Parse_u16EPKcS1_Rt@Base 4.0~bzr753
 _ZN3nux9Parse_u32EPKcS1_Rm@Base 4.0~bzr753
 _ZN3nux9Parse_u64EPKcS1_Rm@Base 4.0~bzr753
 _ZN3nux9TimeStamp7GetTimeEv@Base 4.0~bzr753
 _ZN3nux9TimeStampC1Ev@Base 4.0~bzr753
 _ZN3nux9TimeStampC2Ev@Base 4.0~bzr753
 _ZN3nux9TimeStampD1Ev@Base 4.0~bzr753
 _ZN3nux9TimeStampD2Ev@Base 4.0~bzr753
 _ZN3nux9Trackable11UnReferenceEv@Base 4.0~bzr753
 _ZN3nux9Trackable13GetObjectSizeEv@Base 4.0~bzr753
 _ZN3nux9Trackable13SinkReferenceEv@Base 4.0~bzr753
 _ZN3nux9Trackable15IsHeapAllocatedEv@Base 4.0~bzr753
 _ZN3nux9Trackable15set_new_handlerEPFvvE@Base 4.0~bzr753
 _ZN3nux9Trackable16OwnsTheReferenceEv@Base 4.0~bzr753
 _ZN3nux9Trackable16StaticObjectTypeE@Base 4.0~bzr753
 _ZN3nux9Trackable17SetOwnedReferenceEb@Base 4.0~bzr753
 _ZN3nux9Trackable20_new_current_handlerE@Base 4.0~bzr753
 _ZN3nux9Trackable7DisposeEv@Base 4.0~bzr753
 _ZN3nux9Trackable9ReferenceEv@Base 4.0~bzr753
 _ZN3nux9TrackableC1Ev@Base 4.0~bzr753
 _ZN3nux9TrackableC2Ev@Base 4.0~bzr753
 _ZN3nux9TrackableD0Ev@Base 4.0~bzr753
 _ZN3nux9TrackableD1Ev@Base 4.0~bzr753
 _ZN3nux9TrackableD2Ev@Base 4.0~bzr753
 _ZN3nux9TrackabledlEPv@Base 4.0~bzr753
 _ZN3nux9TrackablenwEm@Base 4.0~bzr753
 _ZN3nux9animation10Controller8InstanceEv@Base 4.0~bzr753
 _ZN3nux9animation10ControllerC1Ev@Base 4.0~bzr753
 _ZN3nux9animation10ControllerC2Ev@Base 4.0~bzr753
 _ZN3nux9animation10ControllerD1Ev@Base 4.0~bzr753
 _ZN3nux9animation10ControllerD2Ev@Base 4.0~bzr753
 _ZN3nux9animation10TickSourceD0Ev@Base 4.0~bzr753
 _ZN3nux9animation10TickSourceD1Ev@Base 4.0~bzr753
 _ZN3nux9animation10TickSourceD2Ev@Base 4.0~bzr753
 _ZN3nux9animation11EasingCurve16ValueForProgressEd@Base 4.0~bzr753
 _ZN3nux9animation11EasingCurveC1ENS1_4TypeE@Base 4.0~bzr753
 _ZN3nux9animation11EasingCurveC2ENS1_4TypeE@Base 4.0~bzr753
 _ZN3nux9animation19AnimationController12AddAnimationEPNS0_9AnimationE@Base 4.0~bzr753
 _ZN3nux9animation19AnimationController15RemoveAnimationEPNS0_9AnimationE@Base 4.0~bzr753
 _ZN3nux9animation19AnimationController6OnTickEx@Base 4.0~bzr753
 _ZN3nux9animation19AnimationControllerC1ERNS0_10TickSourceE@Base 4.0~bzr753
 _ZN3nux9animation19AnimationControllerC2ERNS0_10TickSourceE@Base 4.0~bzr753
 _ZN3nux9animation19AnimationControllerD1Ev@Base 4.0~bzr753
 _ZN3nux9animation19AnimationControllerD2Ev@Base 4.0~bzr753
 _ZN3nux9animation9Animation4StopEv@Base 4.0~bzr753
 _ZN3nux9animation9Animation5PauseEv@Base 4.0~bzr753
 _ZN3nux9animation9Animation5StartEv@Base 4.0~bzr753
 _ZN3nux9animation9Animation6ResumeEv@Base 4.0~bzr753
 _ZN3nux9animation9AnimationC1Ev@Base 4.0~bzr753
 _ZN3nux9animation9AnimationC2Ev@Base 4.0~bzr753
 _ZN3nux9animation9AnimationD0Ev@Base 4.0~bzr753
 _ZN3nux9animation9AnimationD1Ev@Base 4.0~bzr753
 _ZN3nux9animation9AnimationD2Ev@Base 4.0~bzr753
 _ZN3nux9constants11dbl_epsilonE@Base 4.0~bzr753
 _ZN3nux9constants11flt_epsilonE@Base 4.0~bzr753
 _ZN3nux9constants12epsilon_nanoE@Base 4.0~bzr753
 _ZN3nux9constants12epsilon_picoE@Base 4.0~bzr753
 _ZN3nux9constants13epsilon_femtoE@Base 4.0~bzr753
 _ZN3nux9constants13epsilon_microE@Base 4.0~bzr753
 _ZN3nux9constants13epsilon_milliE@Base 4.0~bzr753
 _ZN3nux9constants1eE@Base 4.0~bzr753
 _ZN3nux9constants2piE@Base 4.0~bzr753
 _ZN3nux9constants5sqrt2E@Base 4.0~bzr753
 _ZN3nux9constants5sqrt3E@Base 4.0~bzr753
 _ZN3nux9constants6goldenE@Base 4.0~bzr753
 _ZN3nuxdvERKNS_13ComplexNumberES2_@Base 4.0~bzr753
 _ZN3nuxmiERKNS_13ComplexNumberES2_@Base 4.0~bzr753
 _ZN3nuxmiERKNS_4RectES2_@Base 4.0~bzr753
 _ZN3nuxmlERKNS_13ComplexNumberES2_@Base 4.0~bzr753
 _ZN3nuxmlERKNS_4RectEf@Base 4.0~bzr753
 _ZN3nuxmlEfRKNS_10QuaternionE@Base 4.0~bzr753
 _ZN3nuxplERKNS_13ComplexNumberES2_@Base 4.0~bzr753
 _ZN3nuxplERKNS_4RectES2_@Base 4.0~bzr753
 _ZN4sigc15visit_each_typeIPNS_9trackableENS_8internal12slot_do_bindENS_15adaptor_functorINS_18bound_mem_functor1IvN3nux9animation19AnimationControllerExEEEEEEvRKT0_RKT1_@Base 4.0~bzr753
 _ZN4sigc6signalIvNS_3nilES1_S1_S1_S1_S1_S1_ED1Ev@Base 4.0~bzr753
 _ZN4sigc6signalIvNS_3nilES1_S1_S1_S1_S1_S1_ED2Ev@Base 4.0~bzr753
 _ZN4sigc8internal10slot_call1INS_18bound_mem_functor1IvN3nux9animation19AnimationControllerExEEvxE7call_itEPNS0_8slot_repERKx@Base 4.0~bzr753
 _ZN4sigc8internal14typed_slot_repINS_18bound_mem_functor1IvN3nux9animation19AnimationControllerExEEE3dupEPv@Base 4.0~bzr753
 _ZN4sigc8internal14typed_slot_repINS_18bound_mem_functor1IvN3nux9animation19AnimationControllerExEEE7destroyEPv@Base 4.0~bzr753
 _ZN4sigc8internal8slot_repD1Ev@Base 4.0~bzr753
 _ZN4sigc8internal8slot_repD2Ev@Base 4.0~bzr753
 _ZN5boost10shared_ptrIN3nux7logging12LoggerModuleEED1Ev@Base 4.0~bzr753
 _ZN5boost10shared_ptrIN3nux7logging12LoggerModuleEED2Ev@Base 4.0~bzr753
 _ZN5boost14checked_deleteIN3nux7logging12LoggerModuleEEEvPT_@Base 4.0~bzr753
 _ZN5boost15throw_exceptionINS_17bad_function_callEEEvRKT_@Base 4.0~bzr753
 _ZN5boost16exception_detail10clone_baseD0Ev@Base 4.0~bzr753
 _ZN5boost16exception_detail10clone_baseD1Ev@Base 4.0~bzr753
 _ZN5boost16exception_detail10clone_baseD2Ev@Base 4.0~bzr753
 _ZN5boost16exception_detail10clone_implINS0_19error_info_injectorINS_17bad_function_callEEEED0Ev@Base 4.0~bzr753
 _ZN5boost16exception_detail10clone_implINS0_19error_info_injectorINS_17bad_function_callEEEED1Ev@Base 4.0~bzr753
 _ZN5boost16exception_detail12refcount_ptrINS0_20error_info_containerEE7releaseEv@Base 4.0~bzr753
 _ZN5boost16exception_detail19error_info_injectorINS_17bad_function_callEED0Ev@Base 4.0~bzr753
 _ZN5boost16exception_detail19error_info_injectorINS_17bad_function_callEED1Ev@Base 4.0~bzr753
 _ZN5boost16exception_detail19error_info_injectorINS_17bad_function_callEED2Ev@Base 4.0~bzr753
 _ZN5boost17bad_function_callC1Ev@Base 4.0~bzr753
 _ZN5boost17bad_function_callC2Ev@Base 4.0~bzr753
 _ZN5boost17bad_function_callD0Ev@Base 4.0~bzr753
 _ZN5boost17bad_function_callD1Ev@Base 4.0~bzr753
 _ZN5boost17bad_function_callD2Ev@Base 4.0~bzr753
 _ZN5boost18transform_iteratorINS_9algorithm6detail20copy_iterator_rangeFISsPKcEENS1_14split_iteratorIS5_EENS_11use_defaultES9_ED1Ev@Base 4.0~bzr753
 _ZN5boost18transform_iteratorINS_9algorithm6detail20copy_iterator_rangeFISsPKcEENS1_14split_iteratorIS5_EENS_11use_defaultES9_ED2Ev@Base 4.0~bzr753
 _ZN5boost6detail12shared_countD1Ev@Base 4.0~bzr753
 _ZN5boost6detail12shared_countD2Ev@Base 4.0~bzr753
 _ZN5boost6detail15sp_counted_base7destroyEv@Base 4.0~bzr753
 _ZN5boost6detail15sp_counted_baseD0Ev@Base 4.0~bzr753
 _ZN5boost6detail15sp_counted_baseD1Ev@Base 4.0~bzr753
 _ZN5boost6detail15sp_counted_baseD2Ev@Base 4.0~bzr753
 _ZN5boost6detail17sp_counted_impl_pIN3nux7logging12LoggerModuleEE11get_deleterERKSt9type_info@Base 4.0~bzr753
 _ZN5boost6detail17sp_counted_impl_pIN3nux7logging12LoggerModuleEE19get_untyped_deleterEv@Base 4.0.0
 _ZN5boost6detail17sp_counted_impl_pIN3nux7logging12LoggerModuleEE7disposeEv@Base 4.0~bzr753
 _ZN5boost6detail17sp_counted_impl_pIN3nux7logging12LoggerModuleEED0Ev@Base 4.0~bzr753
 _ZN5boost6detail17sp_counted_impl_pIN3nux7logging12LoggerModuleEED1Ev@Base 4.0~bzr753
 _ZN5boost6detail17sp_counted_impl_pIN3nux7logging12LoggerModuleEED2Ev@Base 4.0~bzr753
 _ZN5boost6detail8function15functor_managerINS_9algorithm6detail13token_finderFINS4_10is_any_ofFIcEEEEE6manageERKNS1_15function_bufferERSA_NS1_30functor_manager_operation_typeE@Base 4.0~bzr753
 _ZN5boost6detail8function16has_empty_targetEz@Base 4.0~bzr753
 _ZN5boost6detail8function21function_obj_invoker2INS_9algorithm6detail13token_finderFINS4_10is_any_ofFIcEEEENS_14iterator_rangeIPKcEESB_SB_E6invokeERNS1_15function_bufferESB_SB_@Base 4.0~bzr753
 _ZN5boost9algorithm10iter_splitISt6vectorISsSaISsEEPKcNS0_6detail13token_finderFINS7_10is_any_ofFIcEEEEEERT_SD_RT0_T1_@Base 4.0~bzr753
 _ZN5boost9algorithm14split_iteratorIPKcED1Ev@Base 4.0~bzr753
 _ZN5boost9algorithm14split_iteratorIPKcED2Ev@Base 4.0~bzr753
 _ZN5boost9algorithm6detail10is_any_ofFIcED1Ev@Base 4.0~bzr753
 _ZN5boost9algorithm6detail10is_any_ofFIcED2Ev@Base 4.0~bzr753
 _ZN5boost9algorithm6detail13token_finderFINS1_10is_any_ofFIcEEED1Ev@Base 4.0~bzr753
 _ZN5boost9algorithm6detail13token_finderFINS1_10is_any_ofFIcEEED2Ev@Base 4.0~bzr753
 _ZNK3nux10Quaternion10DotProductERKS0_@Base 4.0~bzr753
 _ZNK3nux10Quaternion12GetAngleAxisERNS_4Vec3IfEERf@Base 4.0~bzr753
 _ZNK3nux10Quaternion6LengthEv@Base 4.0~bzr753
 _ZNK3nux10Quaternion9GetMatrixEv@Base 4.0~bzr753
 _ZNK3nux10QuaterniondvERKf@Base 4.0~bzr753
 _ZNK3nux10QuaternioneqERKS0_@Base 4.0~bzr753
 _ZNK3nux10QuaternionmiERKS0_@Base 4.0~bzr753
 _ZNK3nux10QuaternionmlERKS0_@Base 4.0~bzr753
 _ZNK3nux10QuaternionmlERKf@Base 4.0~bzr753
 _ZNK3nux10QuaternionneERKS0_@Base 4.0~bzr753
 _ZNK3nux10QuaternionngEv@Base 4.0~bzr753
 _ZNK3nux10QuaternionplERKS0_@Base 4.0~bzr753
 _ZNK3nux10QuaternionpsEv@Base 4.0~bzr753
 _ZNK3nux13ComplexNumber4realEv@Base 4.0~bzr753
 _ZNK3nux13ComplexNumber9imaginaryEv@Base 4.0~bzr753
 _ZNK3nux15AsyncFileWriter9IsClosingEv@Base 4.0~bzr753
 _ZNK3nux18NThreadSafeCounter8GetValueEv@Base 4.0~bzr753
 _ZNK3nux22InitiallyUnownedObject4TypeEv@Base 4.0~bzr753
 _ZNK3nux4Rect13IsPointInsideEii@Base 4.0~bzr753
 _ZNK3nux4Rect6IsNullEv@Base 4.0~bzr753
 _ZNK3nux4Rect8IsInsideERKNS_7Point2DIfEE@Base 4.0~bzr753
 _ZNK3nux4Rect8IsInsideERKNS_7Point2DIiEE@Base 4.0~bzr753
 _ZNK3nux4Rect9GetExpandEii@Base 4.0~bzr753
 _ZNK3nux4Rect9IntersectERKS0_@Base 4.0~bzr753
 _ZNK3nux4RecteqERKS0_@Base 4.0~bzr753
 _ZNK3nux4RectneERKS0_@Base 4.0~bzr753
 _ZNK3nux6Object11GetTypeNameEv@Base 4.0~bzr753
 _ZNK3nux6Object14ObjectPtrCountEv@Base 4.0~bzr753
 _ZNK3nux6Object17GetReferenceCountEv@Base 4.0~bzr753
 _ZNK3nux6Object21GetAllocationLocationEv@Base 4.0~bzr753
 _ZNK3nux6Object4TypeEv@Base 4.0~bzr753
 _ZNK3nux7NThread11GetExitCodeEv@Base 4.0~bzr753
 _ZNK3nux7NThread14GetThreadStateEv@Base 4.0~bzr753
 _ZNK3nux7NThread4TypeEv@Base 4.0~bzr753
 _ZNK3nux7logging13LoggerModules17DumpLoggingLevelsERKSs@Base 4.0~bzr753
 _ZNK3nux7logging13LoggerModules9HasModuleERKSs@Base 4.0~bzr753
 _ZNK3nux7logging6Logger11GetLogLevelEv@Base 4.0~bzr753
 _ZNK3nux7logging6Logger13IsInfoEnabledEv@Base 4.0~bzr753
 _ZNK3nux7logging6Logger14IsDebugEnabledEv@Base 4.0~bzr753
 _ZNK3nux7logging6Logger14IsErrorEnabledEv@Base 4.0~bzr753
 _ZNK3nux7logging6Logger14IsTraceEnabledEv@Base 4.0~bzr753
 _ZNK3nux7logging6Logger16IsWarningEnabledEv@Base 4.0~bzr753
 _ZNK3nux7logging6Logger20GetEffectiveLogLevelEv@Base 4.0~bzr753
 _ZNK3nux7logging6Logger6moduleEv@Base 4.0~bzr753
 _ZNK3nux8FilePath13GetPathToFileEPKc@Base 4.0~bzr753
 _ZNK3nux8FilePath7GetFileEPKc@Base 4.0~bzr753
 _ZNK3nux9NFileName12GetExtensionEv@Base 4.0~bzr753
 _ZNK3nux9NFileName15GetBaseFilenameEv@Base 4.0~bzr753
 _ZNK3nux9NFileName16GetCleanFilenameEv@Base 4.0~bzr753
 _ZNK3nux9NFileName16GetDirectoryPathEv@Base 4.0~bzr753
 _ZNK3nux9NFileName22GetFilenameNoExtensionEv@Base 4.0~bzr753
 _ZNK3nux9NFileName8GetDriveEv@Base 4.0~bzr753
 _ZNK3nux9TimeStamp13GetJulianDateEv@Base 4.0~bzr753
 _ZNK3nux9TimeStamp14GetSecondOfDayEv@Base 4.0~bzr753
 _ZNK3nux9TimeStamp18GetJulianDayNumberEv@Base 4.0~bzr753
 _ZNK3nux9TimeStampeqERS0_@Base 4.0~bzr753
 _ZNK3nux9TimeStampgeERS0_@Base 4.0~bzr753
 _ZNK3nux9TimeStampgtERS0_@Base 4.0~bzr753
 _ZNK3nux9TimeStampleERS0_@Base 4.0~bzr753
 _ZNK3nux9TimeStampltERS0_@Base 4.0~bzr753
 _ZNK3nux9TimeStampneERS0_@Base 4.0~bzr753
 _ZNK3nux9Trackable4TypeEv@Base 4.0~bzr753
 _ZNK3nux9Trackable9IsDynamicEv@Base 4.0~bzr753
 _ZNK3nux9animation19AnimationController20HasRunningAnimationsEv@Base 4.0~bzr753
 _ZNK3nux9animation9Animation12CurrentStateEv@Base 4.0~bzr753
 _ZNK5boost16exception_detail10clone_implINS0_19error_info_injectorINS_17bad_function_callEEEE5cloneEv@Base 4.0~bzr753
 _ZNK5boost16exception_detail10clone_implINS0_19error_info_injectorINS_17bad_function_callEEEE7rethrowEv@Base 4.0~bzr753
 _ZNKSt8_Rb_treeISsSt4pairIKSsN5boost10shared_ptrIN3nux7logging12LoggerModuleEEEESt10_Select1stIS8_ESt4lessISsESaIS8_EE4findERS1_@Base 4.0~bzr753
 _ZNSs12_S_constructIN5boost18transform_iteratorINS0_9algorithm6detail9to_lowerFIcEEN9__gnu_cxx17__normal_iteratorIPKcSsEENS0_11use_defaultESB_EEEEPcT_SE_RKSaIcESt18input_iterator_tag@Base 4.0~bzr753
 _ZNSs12_S_constructIPcEES0_T_S1_RKSaIcESt20forward_iterator_tag@Base 4.0~bzr753
 _ZNSt10_List_baseIN4sigc9slot_baseESaIS1_EE8_M_clearEv@Base 4.0~bzr753
 _ZNSt10_List_baseIPvSaIS0_EE8_M_clearEv@Base 4.0~bzr753
 _ZNSt10shared_ptrIN3nux15AsyncFileWriterEED1Ev@Base 4.0~bzr753
 _ZNSt10shared_ptrIN3nux15AsyncFileWriterEED2Ev@Base 4.0~bzr753
 _ZNSt15_Sp_counted_ptrIPN3nux15AsyncFileWriterELN9__gnu_cxx12_Lock_policyE2EE10_M_destroyEv@Base 4.0~bzr753
 _ZNSt15_Sp_counted_ptrIPN3nux15AsyncFileWriterELN9__gnu_cxx12_Lock_policyE2EE10_M_disposeEv@Base 4.0~bzr753
 _ZNSt15_Sp_counted_ptrIPN3nux15AsyncFileWriterELN9__gnu_cxx12_Lock_policyE2EE14_M_get_deleterERKSt9type_info@Base 4.0~bzr753
 _ZNSt15_Sp_counted_ptrIPN3nux15AsyncFileWriterELN9__gnu_cxx12_Lock_policyE2EED0Ev@Base 4.0~bzr753
 _ZNSt15_Sp_counted_ptrIPN3nux15AsyncFileWriterELN9__gnu_cxx12_Lock_policyE2EED1Ev@Base 4.0~bzr753
 _ZNSt15_Sp_counted_ptrIPN3nux15AsyncFileWriterELN9__gnu_cxx12_Lock_policyE2EED2Ev@Base 4.0~bzr753
 _ZNSt15basic_stringbufIcSt11char_traitsIcESaIcEED0Ev@Base 4.0~bzr753
 _ZNSt15basic_stringbufIcSt11char_traitsIcESaIcEED1Ev@Base 4.0~bzr753
 _ZNSt15basic_stringbufIcSt11char_traitsIcESaIcEED2Ev@Base 4.0~bzr753
 _ZNSt16_Sp_counted_baseILN9__gnu_cxx12_Lock_policyE2EE10_M_destroyEv@Base 4.0~bzr753
 _ZNSt16_Sp_counted_baseILN9__gnu_cxx12_Lock_policyE2EED0Ev@Base 4.0~bzr753
 _ZNSt16_Sp_counted_baseILN9__gnu_cxx12_Lock_policyE2EED1Ev@Base 4.0~bzr753
 _ZNSt16_Sp_counted_baseILN9__gnu_cxx12_Lock_policyE2EED2Ev@Base 4.0~bzr753
 _ZNSt4pairIKSsN5boost10shared_ptrIN3nux7logging12LoggerModuleEEEED1Ev@Base 4.0~bzr753
 _ZNSt4pairIKSsN5boost10shared_ptrIN3nux7logging12LoggerModuleEEEED2Ev@Base 4.0~bzr753
 _ZNSt6vectorIPN3nux15LogOutputDeviceESaIS2_EE19_M_emplace_back_auxIIRKS2_EEEvDpOT_@Base 4.0~bzr753
 _ZNSt6vectorIPN3nux15LogOutputDeviceESaIS2_EE19_M_emplace_back_auxIJRKS2_EEEvDpOT_@Base 4.0~bzr753
 _ZNSt6vectorIPN3nux15LogOutputDeviceESaIS2_EED1Ev@Base 4.0~bzr753
 _ZNSt6vectorIPN3nux15LogOutputDeviceESaIS2_EED2Ev@Base 4.0~bzr753
 _ZNSt6vectorIPN3nux9animation9AnimationESaIS3_EE19_M_emplace_back_auxIIRKS3_EEEvDpOT_@Base 4.0~bzr753
 _ZNSt6vectorIPN3nux9animation9AnimationESaIS3_EE19_M_emplace_back_auxIJRKS3_EEEvDpOT_@Base 4.0~bzr753
 _ZNSt6vectorIPN3nux9animation9AnimationESaIS3_EE5eraseEN9__gnu_cxx17__normal_iteratorIPS3_S5_EE@Base 4.0~bzr753
 _ZNSt6vectorISsSaISsEE19_M_emplace_back_auxIIRKSsEEEvDpOT_@Base 4.0~bzr753
 _ZNSt6vectorISsSaISsEE19_M_emplace_back_auxIISsEEEvDpOT_@Base 4.0~bzr753
 _ZNSt6vectorISsSaISsEE19_M_emplace_back_auxIJRKSsEEEvDpOT_@Base 4.0~bzr753
 _ZNSt6vectorISsSaISsEE19_M_emplace_back_auxIJSsEEEvDpOT_@Base 4.0~bzr753
 _ZNSt6vectorISsSaISsEED1Ev@Base 4.0~bzr753
 _ZNSt6vectorISsSaISsEED2Ev@Base 4.0~bzr753
 _ZNSt6vectorISt4pairIPN3nux9animation9AnimationEbESaIS5_EE12emplace_backIIS5_EEEvDpOT_@Base 4.0~bzr753
 _ZNSt6vectorISt4pairIPN3nux9animation9AnimationEbESaIS5_EE12emplace_backIJS5_EEEvDpOT_@Base 4.0~bzr753
 _ZNSt6vectorISt4pairIPN3nux9animation9AnimationEbESaIS5_EE19_M_emplace_back_auxIIS5_EEEvDpOT_@Base 4.0~bzr753
 _ZNSt6vectorISt4pairIPN3nux9animation9AnimationEbESaIS5_EE19_M_emplace_back_auxIJS5_EEEvDpOT_@Base 4.0~bzr753
 _ZNSt6vectorIcSaIcEE17_M_default_appendEm@Base 4.0~bzr753
 _ZNSt6vectorIcSaIcEED1Ev@Base 4.0~bzr753
 _ZNSt6vectorIcSaIcEED2Ev@Base 4.0~bzr753
 _ZNSt6vectorIhSaIhEE17_M_default_appendEm@Base 4.0~bzr753
 _ZNSt6vectorIhSaIhEED1Ev@Base 4.0~bzr753
 _ZNSt6vectorIhSaIhEED2Ev@Base 4.0~bzr753
 _ZNSt6vectorIwSaIwEE17_M_default_appendEm@Base 4.0~bzr753
 _ZNSt8_Rb_treeIPN3nux9animation9AnimationES3_St9_IdentityIS3_ESt4lessIS3_ESaIS3_EE10_M_insert_IRKS3_EESt17_Rb_tree_iteratorIS3_EPKSt18_Rb_tree_node_baseSH_OT_@Base 4.0~bzr753
 _ZNSt8_Rb_treeIPN3nux9animation9AnimationES3_St9_IdentityIS3_ESt4lessIS3_ESaIS3_EE8_M_eraseEPSt13_Rb_tree_nodeIS3_E@Base 4.0~bzr753
 _ZNSt8_Rb_treeISsSt4pairIKSsN5boost10shared_ptrIN3nux7logging12LoggerModuleEEEESt10_Select1stIS8_ESt4lessISsESaIS8_EE10_M_insert_IS8_EESt17_Rb_tree_iteratorIS8_EPKSt18_Rb_tree_node_baseSK_OT_@Base 4.0~bzr753
 _ZNSt8_Rb_treeISsSt4pairIKSsN5boost10shared_ptrIN3nux7logging12LoggerModuleEEEESt10_Select1stIS8_ESt4lessISsESaIS8_EE16_M_insert_uniqueIS8_EES0_ISt17_Rb_tree_iteratorIS8_EbEOT_@Base 4.0~bzr753
 _ZNSt8_Rb_treeISsSt4pairIKSsN5boost10shared_ptrIN3nux7logging12LoggerModuleEEEESt10_Select1stIS8_ESt4lessISsESaIS8_EE8_M_eraseEPSt13_Rb_tree_nodeIS8_E@Base 4.0~bzr753
 _ZNSt8_Rb_treeISsSt4pairIKSsPN3nux12PropertyBaseEESt10_Select1stIS5_ESt4lessISsESaIS5_EE8_M_eraseEPSt13_Rb_tree_nodeIS5_E@Base 4.0~bzr753
 _ZSt13__adjust_heapIPclcEvT_T0_S2_T1_@Base 4.0~bzr753
 _ZSt13binary_searchIPKccEbT_S2_RKT0_@Base 4.0~bzr753
 _ZSt16__insertion_sortIPcEvT_S1_@Base 4.0~bzr753
 _ZSt16__introsort_loopIPclEvT_S1_T0_@Base 4.0~bzr753
 _ZSt6__findIN9__gnu_cxx17__normal_iteratorIPPN3nux15LogOutputDeviceESt6vectorIS4_SaIS4_EEEES4_ET_SA_SA_RKT0_St26random_access_iterator_tag@Base 4.0~bzr753
 _ZSt6__findIN9__gnu_cxx17__normal_iteratorIPPN3nux9animation9AnimationESt6vectorIS5_SaIS5_EEEES5_ET_SB_SB_RKT0_St26random_access_iterator_tag@Base 4.0~bzr753
 _ZSt6__findIN9__gnu_cxx17__normal_iteratorIPSsSt6vectorISsSaISsEEEEA1_cET_S8_S8_RKT0_St26random_access_iterator_tag@Base 4.0~bzr753
 _ZSt6__findIN9__gnu_cxx17__normal_iteratorIPSsSt6vectorISsSaISsEEEESsET_S7_S7_RKT0_St26random_access_iterator_tag@Base 4.0~bzr753
 _ZSt9__find_ifIN9__gnu_cxx17__normal_iteratorIPKPN3nux9animation9AnimationESt6vectorIS5_SaIS5_EEEEZNKS3_19AnimationController4Impl20HasRunningAnimationsEvEUlS5_E_ET_SF_SF_T0_St26random_access_iterator_tag@Base 4.0~bzr753
 _ZSt9__find_ifIPKcN5boost9algorithm6detail10is_any_ofFIcEEET_S7_S7_T0_St26random_access_iterator_tag@Base 4.0~bzr753
 _ZStplIcSt11char_traitsIcESaIcEESbIT_T0_T1_EPKS3_RKS6_@Base 4.0~bzr753
 _ZTCN3nux7logging19RollingFileAppenderE0_So@Base 4.0~bzr753
 _ZTCN3nux7logging9LogStreamE0_So@Base 4.0~bzr753
 _ZTIN3nux10NullOutputE@Base 4.0~bzr753
 _ZTIN3nux11NGlobalDataE@Base 4.0~bzr753
 _ZTIN3nux11NSerializerE@Base 4.0~bzr753
 _ZTIN3nux11ObjectStatsE@Base 4.0~bzr753
 _ZTIN3nux11UniqueIndexE@Base 4.0~bzr753
 _ZTIN3nux12NFileManagerE@Base 4.0~bzr753
 _ZTIN3nux13LogFileOutputE@Base 4.0~bzr753
 _ZTIN3nux14IntrospectableE@Base 4.0~bzr753
 _ZTIN3nux15LogOutputDeviceE@Base 4.0~bzr753
 _ZTIN3nux15NFileManagerGNUE@Base 4.0~bzr753
 _ZTIN3nux19LogOutputRedirectorE@Base 4.0~bzr753
 _ZTIN3nux19NFileManagerGenericE@Base 4.0~bzr753
 _ZTIN3nux19PrintfOutputConsoleE@Base 4.0~bzr753
 _ZTIN3nux19VisualOutputConsoleE@Base 4.0~bzr753
 _ZTIN3nux20NGNUSerialFileReaderE@Base 4.0~bzr753
 _ZTIN3nux20NGNUSerialFileWriterE@Base 4.0~bzr753
 _ZTIN3nux22InitiallyUnownedObjectE@Base 4.0~bzr753
 _ZTIN3nux6ObjectE@Base 4.0~bzr753
 _ZTIN3nux7NThreadE@Base 4.0~bzr753
 _ZTIN3nux7logging15LogStreamBufferE@Base 4.0~bzr753
 _ZTIN3nux7logging19RollingFileAppenderE@Base 4.0~bzr753
 _ZTIN3nux7logging9LogStreamE@Base 4.0~bzr753
 _ZTIN3nux9TrackableE@Base 4.0~bzr753
 _ZTIN3nux9animation10ControllerE@Base 4.0~bzr753
 _ZTIN3nux9animation10TickSourceE@Base 4.0~bzr753
 _ZTIN3nux9animation19AnimationControllerE@Base 4.0~bzr753
 _ZTIN3nux9animation9AnimationE@Base 4.0~bzr753
 _ZTIN4sigc9trackableE@Base 4.0~bzr753
 _ZTIN5boost12noncopyable_11noncopyableE@Base 4.0~bzr753
 _ZTIN5boost16exception_detail10clone_baseE@Base 4.0~bzr753
 _ZTIN5boost16exception_detail10clone_implINS0_19error_info_injectorINS_17bad_function_callEEEEE@Base 4.0~bzr753
 _ZTIN5boost16exception_detail19error_info_injectorINS_17bad_function_callEEE@Base 4.0~bzr753
 _ZTIN5boost17bad_function_callE@Base 4.0~bzr753
 _ZTIN5boost6detail15sp_counted_baseE@Base 4.0~bzr753
 _ZTIN5boost6detail17sp_counted_impl_pIN3nux7logging12LoggerModuleEEE@Base 4.0~bzr753
 _ZTIN5boost9algorithm6detail13token_finderFINS1_10is_any_ofFIcEEEE@Base 4.0~bzr753
 _ZTIN5boost9exceptionE@Base 4.0~bzr753
 _ZTISt11_Mutex_baseILN9__gnu_cxx12_Lock_policyE2EE@Base 4.0~bzr753
 _ZTISt15_Sp_counted_ptrIPN3nux15AsyncFileWriterELN9__gnu_cxx12_Lock_policyE2EE@Base 4.0~bzr753
 _ZTISt16_Sp_counted_baseILN9__gnu_cxx12_Lock_policyE2EE@Base 4.0~bzr753
 _ZTSN3nux10NullOutputE@Base 4.0~bzr753
 _ZTSN3nux11NGlobalDataE@Base 4.0~bzr753
 _ZTSN3nux11NSerializerE@Base 4.0~bzr753
 _ZTSN3nux11ObjectStatsE@Base 4.0~bzr753
 _ZTSN3nux11UniqueIndexE@Base 4.0~bzr753
 _ZTSN3nux12NFileManagerE@Base 4.0~bzr753
 _ZTSN3nux13LogFileOutputE@Base 4.0~bzr753
 _ZTSN3nux14IntrospectableE@Base 4.0~bzr753
 _ZTSN3nux15LogOutputDeviceE@Base 4.0~bzr753
 _ZTSN3nux15NFileManagerGNUE@Base 4.0~bzr753
 _ZTSN3nux19LogOutputRedirectorE@Base 4.0~bzr753
 _ZTSN3nux19NFileManagerGenericE@Base 4.0~bzr753
 _ZTSN3nux19PrintfOutputConsoleE@Base 4.0~bzr753
 _ZTSN3nux19VisualOutputConsoleE@Base 4.0~bzr753
 _ZTSN3nux20NGNUSerialFileReaderE@Base 4.0~bzr753
 _ZTSN3nux20NGNUSerialFileWriterE@Base 4.0~bzr753
 _ZTSN3nux22InitiallyUnownedObjectE@Base 4.0~bzr753
 _ZTSN3nux6ObjectE@Base 4.0~bzr753
 _ZTSN3nux7NThreadE@Base 4.0~bzr753
 _ZTSN3nux7logging15LogStreamBufferE@Base 4.0~bzr753
 _ZTSN3nux7logging19RollingFileAppenderE@Base 4.0~bzr753
 _ZTSN3nux7logging9LogStreamE@Base 4.0~bzr753
 _ZTSN3nux9TrackableE@Base 4.0~bzr753
 _ZTSN3nux9animation10ControllerE@Base 4.0~bzr753
 _ZTSN3nux9animation10TickSourceE@Base 4.0~bzr753
 _ZTSN3nux9animation19AnimationControllerE@Base 4.0~bzr753
 _ZTSN3nux9animation9AnimationE@Base 4.0~bzr753
 _ZTSN4sigc9trackableE@Base 4.0~bzr753
 _ZTSN5boost12noncopyable_11noncopyableE@Base 4.0~bzr753
 _ZTSN5boost16exception_detail10clone_baseE@Base 4.0~bzr753
 _ZTSN5boost16exception_detail10clone_implINS0_19error_info_injectorINS_17bad_function_callEEEEE@Base 4.0~bzr753
 _ZTSN5boost16exception_detail19error_info_injectorINS_17bad_function_callEEE@Base 4.0~bzr753
 _ZTSN5boost17bad_function_callE@Base 4.0~bzr753
 _ZTSN5boost6detail15sp_counted_baseE@Base 4.0~bzr753
 _ZTSN5boost6detail17sp_counted_impl_pIN3nux7logging12LoggerModuleEEE@Base 4.0~bzr753
 _ZTSN5boost9algorithm6detail13token_finderFINS1_10is_any_ofFIcEEEE@Base 4.0~bzr753
 _ZTSN5boost9exceptionE@Base 4.0~bzr753
 _ZTSSt11_Mutex_baseILN9__gnu_cxx12_Lock_policyE2EE@Base 4.0~bzr753
 _ZTSSt15_Sp_counted_ptrIPN3nux15AsyncFileWriterELN9__gnu_cxx12_Lock_policyE2EE@Base 4.0~bzr753
 _ZTSSt16_Sp_counted_baseILN9__gnu_cxx12_Lock_policyE2EE@Base 4.0~bzr753
 _ZTTN3nux7logging19RollingFileAppenderE@Base 4.0~bzr753
 _ZTTN3nux7logging9LogStreamE@Base 4.0~bzr753
 _ZTTN5boost16exception_detail10clone_implINS0_19error_info_injectorINS_17bad_function_callEEEEE@Base 4.0~bzr753
 _ZTVN3nux10NullOutputE@Base 4.0~bzr753
 _ZTVN3nux11NGlobalDataE@Base 4.0~bzr753
 _ZTVN3nux11NSerializerE@Base 4.0~bzr753
 _ZTVN3nux11ObjectStatsE@Base 4.0~bzr753
 _ZTVN3nux11UniqueIndexE@Base 4.0~bzr753
 _ZTVN3nux12NFileManagerE@Base 4.0~bzr753
 _ZTVN3nux13LogFileOutputE@Base 4.0~bzr753
 _ZTVN3nux15LogOutputDeviceE@Base 4.0~bzr753
 _ZTVN3nux15NFileManagerGNUE@Base 4.0~bzr753
 _ZTVN3nux19LogOutputRedirectorE@Base 4.0~bzr753
 _ZTVN3nux19NFileManagerGenericE@Base 4.0~bzr753
 _ZTVN3nux19PrintfOutputConsoleE@Base 4.0~bzr753
 _ZTVN3nux19VisualOutputConsoleE@Base 4.0~bzr753
 _ZTVN3nux20NGNUSerialFileReaderE@Base 4.0~bzr753
 _ZTVN3nux20NGNUSerialFileWriterE@Base 4.0~bzr753
 _ZTVN3nux22InitiallyUnownedObjectE@Base 4.0~bzr753
 _ZTVN3nux6ObjectE@Base 4.0~bzr753
 _ZTVN3nux7NThreadE@Base 4.0~bzr753
 _ZTVN3nux7logging15LogStreamBufferE@Base 4.0~bzr753
 _ZTVN3nux7logging19RollingFileAppenderE@Base 4.0~bzr753
 _ZTVN3nux7logging9LogStreamE@Base 4.0~bzr753
 _ZTVN3nux9TrackableE@Base 4.0~bzr753
 _ZTVN3nux9animation10ControllerE@Base 4.0~bzr753
 _ZTVN3nux9animation10TickSourceE@Base 4.0~bzr753
 _ZTVN3nux9animation19AnimationControllerE@Base 4.0~bzr753
 _ZTVN3nux9animation9AnimationE@Base 4.0~bzr753
 _ZTVN5boost16exception_detail10clone_baseE@Base 4.0~bzr753
 _ZTVN5boost16exception_detail10clone_implINS0_19error_info_injectorINS_17bad_function_callEEEEE@Base 4.0~bzr753
 _ZTVN5boost16exception_detail19error_info_injectorINS_17bad_function_callEEE@Base 4.0~bzr753
 _ZTVN5boost17bad_function_callE@Base 4.0~bzr753
 _ZTVN5boost6detail15sp_counted_baseE@Base 4.0~bzr753
 _ZTVN5boost6detail17sp_counted_impl_pIN3nux7logging12LoggerModuleEEE@Base 4.0~bzr753
 _ZTVN5boost9exceptionE@Base 4.0~bzr753
 _ZTVSt15_Sp_counted_ptrIPN3nux15AsyncFileWriterELN9__gnu_cxx12_Lock_policyE2EE@Base 4.0~bzr753
 _ZTVSt16_Sp_counted_baseILN9__gnu_cxx12_Lock_policyE2EE@Base 4.0~bzr753
 _ZThn16_N5boost16exception_detail10clone_implINS0_19error_info_injectorINS_17bad_function_callEEEED0Ev@Base 4.0~bzr753
 _ZThn16_N5boost16exception_detail10clone_implINS0_19error_info_injectorINS_17bad_function_callEEEED1Ev@Base 4.0~bzr753
 _ZThn16_N5boost16exception_detail19error_info_injectorINS_17bad_function_callEED0Ev@Base 4.0~bzr753
 _ZThn16_N5boost16exception_detail19error_info_injectorINS_17bad_function_callEED1Ev@Base 4.0~bzr753
 _ZTv0_n24_N3nux7logging19RollingFileAppenderD0Ev@Base 4.0~bzr753
 _ZTv0_n24_N3nux7logging19RollingFileAppenderD1Ev@Base 4.0~bzr753
 _ZTv0_n24_N3nux7logging9LogStreamD0Ev@Base 4.0~bzr753
 _ZTv0_n24_N3nux7logging9LogStreamD1Ev@Base 4.0~bzr753
 _ZTv0_n24_NK5boost16exception_detail10clone_implINS0_19error_info_injectorINS_17bad_function_callEEEE5cloneEv@Base 4.0~bzr753
 _ZTv0_n32_NK5boost16exception_detail10clone_implINS0_19error_info_injectorINS_17bad_function_callEEEE7rethrowEv@Base 4.0~bzr753
 _ZTv0_n40_N5boost16exception_detail10clone_implINS0_19error_info_injectorINS_17bad_function_callEEEED0Ev@Base 4.0~bzr753
 _ZTv0_n40_N5boost16exception_detail10clone_implINS0_19error_info_injectorINS_17bad_function_callEEEED1Ev@Base 4.0~bzr753
 _ZZN5boost9function2INS_14iterator_rangeIPKcEES3_S3_E9assign_toINS_9algorithm6detail13token_finderFINS8_10is_any_ofFIcEEEEEEvT_E13stored_vtable@Base 4.0~bzr753
libnux-graphics-4.0.so.0 libnux0 #MINVER#
 _Z14glewGetContextv@Base 4.0~bzr753
 _Z15glxewGetContextv@Base 4.0~bzr753
 _ZN3nux10MeshBuffer16StaticObjectTypeE@Base 4.0~bzr753
 _ZN3nux10MeshBuffer19GetCachedMeshBufferEv@Base 4.0~bzr753
 _ZN3nux10MeshBuffer6UpdateEPKNS_8MeshDataE@Base 4.0~bzr753
 _ZN3nux10MeshBufferC1EPKci@Base 4.0~bzr753
 _ZN3nux10MeshBufferC2EPKci@Base 4.0~bzr753
 _ZN3nux10MeshBufferD0Ev@Base 4.0~bzr753
 _ZN3nux10MeshBufferD1Ev@Base 4.0~bzr753
 _ZN3nux10MeshBufferD2Ev@Base 4.0~bzr753
 _ZN3nux11BaseTexture16GetCachedTextureEv@Base 4.0~bzr753
 _ZN3nux11BaseTexture16GetDeviceTextureEv@Base 4.0~bzr753
 _ZN3nux11BaseTexture16StaticObjectTypeE@Base 4.0~bzr753
 _ZN3nux11BaseTextureC1EPKci@Base 4.0~bzr753
 _ZN3nux11BaseTextureC2EPKci@Base 4.0~bzr753
 _ZN3nux11BaseTextureD0Ev@Base 4.0~bzr753
 _ZN3nux11BaseTextureD1Ev@Base 4.0~bzr753
 _ZN3nux11BaseTextureD2Ev@Base 4.0~bzr753
 _ZN3nux11FontTexture12CursorPosToXERKSsibPi@Base 4.0~bzr753
 _ZN3nux11FontTexture13GetFontHeightEv@Base 4.0~bzr753
 _ZN3nux11FontTexture14BMFontParseFNTERSi@Base 4.0~bzr753
 _ZN3nux11FontTexture16StaticObjectTypeE@Base 4.0~bzr753
 _ZN3nux11FontTexture17XToCursorPositionERKSsijPiS3_@Base 4.0~bzr753
 _ZN3nux11FontTextureC1EPKcS2_i@Base 4.0~bzr753
 _ZN3nux11FontTextureC1EiiPh@Base 4.0~bzr753
 _ZN3nux11FontTextureC2EPKcS2_i@Base 4.0~bzr753
 _ZN3nux11FontTextureC2EiiPh@Base 4.0~bzr753
 _ZN3nux11FontTextureD0Ev@Base 4.0~bzr753
 _ZN3nux11FontTextureD1Ev@Base 4.0~bzr753
 _ZN3nux11FontTextureD2Ev@Base 4.0~bzr753
 _ZN3nux11FxStructureC1Ev@Base 4.0~bzr753
 _ZN3nux11FxStructureC2Ev@Base 4.0~bzr753
 _ZN3nux11FxStructureD1Ev@Base 4.0~bzr753
 _ZN3nux11FxStructureD2Ev@Base 4.0~bzr753
 _ZN3nux11GdkGraphics9LoadImageEPKc@Base 4.0~bzr753
 _ZN3nux11GdkGraphicsC1EP10_GdkPixbuf@Base 4.0~bzr753
 _ZN3nux11GdkGraphicsC1EPKc@Base 4.0~bzr753
 _ZN3nux11GdkGraphicsC1Ev@Base 4.0~bzr753
 _ZN3nux11GdkGraphicsC2EP10_GdkPixbuf@Base 4.0~bzr753
 _ZN3nux11GdkGraphicsC2EPKc@Base 4.0~bzr753
 _ZN3nux11GdkGraphicsC2Ev@Base 4.0~bzr753
 _ZN3nux11GdkGraphicsD1Ev@Base 4.0~bzr753
 _ZN3nux11GdkGraphicsD2Ev@Base 4.0~bzr753
 _ZN3nux11IndexBuffer13GetPtrRawDataEv@Base 4.0~bzr753
 _ZN3nux11IndexBuffer16StaticObjectTypeE@Base 4.0~bzr753
 _ZN3nux11IndexBuffer8AllocateEii@Base 4.0~bzr753
 _ZN3nux11IndexBufferC1Eii@Base 4.0~bzr753
 _ZN3nux11IndexBufferC1Ev@Base 4.0~bzr753
 _ZN3nux11IndexBufferC2Eii@Base 4.0~bzr753
 _ZN3nux11IndexBufferC2Ev@Base 4.0~bzr753
 _ZN3nux11IndexBufferD0Ev@Base 4.0~bzr753
 _ZN3nux11IndexBufferD1Ev@Base 4.0~bzr753
 _ZN3nux11IndexBufferD2Ev@Base 4.0~bzr753
 _ZN3nux11NBitmapDataC1Ev@Base 4.0~bzr753
 _ZN3nux11NBitmapDataC2Ev@Base 4.0~bzr753
 _ZN3nux11NBitmapDataD0Ev@Base 4.0~bzr753
 _ZN3nux11NBitmapDataD1Ev@Base 4.0~bzr753
 _ZN3nux11NBitmapDataD2Ev@Base 4.0~bzr753
 _ZN3nux11NVolumeData10GetSurfaceEi@Base 4.0~bzr753
 _ZN3nux11NVolumeData10GetSurfaceEii@Base 4.0~bzr753
 _ZN3nux11NVolumeData10SetSurfaceEiiRKNS_12ImageSurfaceE@Base 4.0~bzr753
 _ZN3nux11NVolumeData20AllocateColorTextureEiiiiNS_5color5ColorE@Base 4.0~bzr753
 _ZN3nux11NVolumeData25AllocateCheckBoardTextureEiiiiNS_5color5ColorES2_ii@Base 4.0~bzr753
 _ZN3nux11NVolumeData8AllocateENS_12BitmapFormatEiiii@Base 4.0~bzr753
 _ZN3nux11NVolumeData9ClearDataEv@Base 4.0~bzr753
 _ZN3nux11NVolumeDataC1ENS_12BitmapFormatEiiii@Base 4.0~bzr753
 _ZN3nux11NVolumeDataC1ERKS0_@Base 4.0~bzr753
 _ZN3nux11NVolumeDataC2ENS_12BitmapFormatEiiii@Base 4.0~bzr753
 _ZN3nux11NVolumeDataC2ERKS0_@Base 4.0~bzr753
 _ZN3nux11NVolumeDataD0Ev@Base 4.0~bzr753
 _ZN3nux11NVolumeDataD1Ev@Base 4.0~bzr753
 _ZN3nux11NVolumeDataD2Ev@Base 4.0~bzr753
 _ZN3nux11NVolumeDataaSERKS0_@Base 4.0~bzr753
 _ZN3nux11TextureCube16StaticObjectTypeE@Base 4.0~bzr753
 _ZN3nux11TextureCube6UpdateEPKNS_11NBitmapDataEb@Base 4.0~bzr753
 _ZN3nux11TextureCube6UpdateEPKcb@Base 4.0~bzr753
 _ZN3nux11TextureCube7GetDataEPviii@Base 4.0~bzr753
 _ZN3nux11TextureCubeC1EPKci@Base 4.0~bzr753
 _ZN3nux11TextureCubeC1ERKNS_12NCubemapDataE@Base 4.0~bzr753
 _ZN3nux11TextureCubeC2EPKci@Base 4.0~bzr753
 _ZN3nux11TextureCubeC2ERKNS_12NCubemapDataE@Base 4.0~bzr753
 _ZN3nux11TextureCubeD0Ev@Base 4.0~bzr753
 _ZN3nux11TextureCubeD1Ev@Base 4.0~bzr753
 _ZN3nux11TextureCubeD2Ev@Base 4.0~bzr753
 _ZN3nux12AsmFrgShaderE@Base 4.0~bzr753
 _ZN3nux12AsmVtxShaderE@Base 4.0~bzr753
 _ZN3nux12CheckGLErrorEPKcS1_i@Base 4.0~bzr753
 _ZN3nux12FontRenderer10RenderTextERKNS_9ObjectPtrINS_11FontTextureEEEiiRKSsRKNS_5color5ColorEbii@Base 4.0~bzr753
 _ZN3nux12FontRenderer14PositionStringERKNS_9ObjectPtrINS_11FontTextureEEERKSsRKNS_8PageBBoxERNS_10StringBBoxENS_14_TextAlignmentEi@Base 4.0~bzr753
 _ZN3nux12FontRenderer15RenderColorTextERKNS_9ObjectPtrINS_11FontTextureEEEiiRKSsRKNS_5color5ColorEbi@Base 4.0~bzr753
 _ZN3nux12FontRenderer18RenderTextToBufferEPfiRKNS_9ObjectPtrINS_11FontTextureEEERKNS_4RectERKSsRKNS_5color5ColorENS_14_TextAlignmentEi@Base 4.0~bzr753
 _ZN3nux12FontRenderer23RenderColorTextLineEditERKNS_9ObjectPtrINS_11FontTextureEEERKNS_8PageBBoxERKSsRKNS_5color5ColorEbSE_SE_SE_SE_bjiii@Base 4.0~bzr753
 _ZN3nux12FontRenderer25RenderColorTextLineStaticERKNS_9ObjectPtrINS_11FontTextureEEERKNS_8PageBBoxERKSsRKNS_5color5ColorEbNS_14_TextAlignmentE@Base 4.0~bzr753
 _ZN3nux12FontRendererC1ERNS_14GraphicsEngineE@Base 4.0~bzr753
 _ZN3nux12FontRendererC2ERNS_14GraphicsEngineE@Base 4.0~bzr753
 _ZN3nux12FontRendererD1Ev@Base 4.0~bzr753
 _ZN3nux12FontRendererD2Ev@Base 4.0~bzr753
 _ZN3nux12GestureEvent5ResetEv@Base 4.0~bzr753
 _ZN3nux12GestureEvent6AcceptEv@Base 4.0~bzr753
 _ZN3nux12GestureEvent6RejectEv@Base 4.0~bzr753
 _ZN3nux12GestureEventC1Ev@Base 4.0~bzr753
 _ZN3nux12GestureEventC2Ev@Base 4.0~bzr753
 _ZN3nux12HueFrgShaderE@Base 4.0~bzr753
 _ZN3nux12IOpenGLQuery11GetDataSizeEv@Base 4.0~bzr753
 _ZN3nux12IOpenGLQuery16StaticObjectTypeE@Base 4.0~bzr753
 _ZN3nux12IOpenGLQuery17IsResultAvailableEv@Base 4.0~bzr753
 _ZN3nux12IOpenGLQuery21_CurrentlyActiveQueryE@Base 4.0~bzr753
 _ZN3nux12IOpenGLQuery5IssueEj@Base 4.0~bzr753
 _ZN3nux12IOpenGLQuery7GetDataEPijj@Base 4.0~bzr753
 _ZN3nux12IOpenGLQuery7GetTypeEv@Base 4.0~bzr753
 _ZN3nux12IOpenGLQuery9GetDeviceEPPNS_9GpuDeviceE@Base 4.0~bzr753
 _ZN3nux12IOpenGLQuery9GetResultEv@Base 4.0~bzr753
 _ZN3nux12IOpenGLQueryC1ENS_10QUERY_TYPEE@Base 4.0~bzr753
 _ZN3nux12IOpenGLQueryC2ENS_10QUERY_TYPEE@Base 4.0~bzr753
 _ZN3nux12IOpenGLQueryD0Ev@Base 4.0~bzr753
 _ZN3nux12IOpenGLQueryD1Ev@Base 4.0~bzr753
 _ZN3nux12IOpenGLQueryD2Ev@Base 4.0~bzr753
 _ZN3nux12ImageSurface10SwapBlocksEPvS1_i@Base 4.0~bzr753
 _ZN3nux12ImageSurface11GetLevelDimENS_12BitmapFormatEii@Base 4.0~bzr753
 _ZN3nux12ImageSurface12AverageColorEv@Base 4.0~bzr753
 _ZN3nux12ImageSurface12FlipVerticalEv@Base 4.0~bzr753
 _ZN3nux12ImageSurface12GetLevelSizeENS_12BitmapFormatEiii@Base 4.0~bzr753
 _ZN3nux12ImageSurface12GetLevelSizeENS_12BitmapFormatEiiii@Base 4.0~bzr753
 _ZN3nux12ImageSurface13FlipDXT5AlphaEPNS_14DXT5AlphaBlockE@Base 4.0~bzr753
 _ZN3nux12ImageSurface13GetLevelPitchENS_12BitmapFormatEiii@Base 4.0~bzr753
 _ZN3nux12ImageSurface13GetLevelWidthENS_12BitmapFormatEii@Base 4.0~bzr753
 _ZN3nux12ImageSurface13GetPtrRawDataEv@Base 4.0~bzr753
 _ZN3nux12ImageSurface14FlipBlocksDXT1EPNS_11DXTColBlockEi@Base 4.0~bzr753
 _ZN3nux12ImageSurface14FlipBlocksDXT3EPNS_11DXTColBlockEi@Base 4.0~bzr753
 _ZN3nux12ImageSurface14FlipBlocksDXT5EPNS_11DXTColBlockEi@Base 4.0~bzr753
 _ZN3nux12ImageSurface14FlipHorizontalEv@Base 4.0~bzr753
 _ZN3nux12ImageSurface14GetLevelHeightENS_12BitmapFormatEii@Base 4.0~bzr753
 _ZN3nux12ImageSurface14GetNumMipLevelENS_12BitmapFormatEii@Base 4.0~bzr753
 _ZN3nux12ImageSurface15FlipDXTVerticalEv@Base 4.0~bzr753
 _ZN3nux12ImageSurface15GetMemAlignmentENS_12BitmapFormatE@Base 4.0~bzr753
 _ZN3nux12ImageSurface18GetLevelBlockWidthENS_12BitmapFormatEii@Base 4.0~bzr753
 _ZN3nux12ImageSurface19GetLevelBlockHeightENS_12BitmapFormatEii@Base 4.0~bzr753
 _ZN3nux12ImageSurface27GetLevelPitchNoMemAlignmentENS_12BitmapFormatEiii@Base 4.0~bzr753
 _ZN3nux12ImageSurface4ReadEii@Base 4.0~bzr753
 _ZN3nux12ImageSurface5ClearEv@Base 4.0~bzr753
 _ZN3nux12ImageSurface5WriteEiihhhh@Base 4.0~bzr753
 _ZN3nux12ImageSurface7Write8bEiih@Base 4.0~bzr753
 _ZN3nux12ImageSurface8AllocateENS_12BitmapFormatEii@Base 4.0~bzr753
 _ZN3nux12ImageSurface8Write16bEiit@Base 4.0~bzr753
 _ZN3nux12ImageSurface8Write24bEiij@Base 4.0~bzr753
 _ZN3nux12ImageSurface8Write32bEiij@Base 4.0~bzr753
 _ZN3nux12ImageSurfaceC1ENS_12BitmapFormatEjj@Base 4.0~bzr753
 _ZN3nux12ImageSurfaceC1EOS0_@Base 4.0.0
 _ZN3nux12ImageSurfaceC1ERKS0_@Base 4.0~bzr753
 _ZN3nux12ImageSurfaceC1Ev@Base 4.0~bzr753
 _ZN3nux12ImageSurfaceC2ENS_12BitmapFormatEjj@Base 4.0~bzr753
 _ZN3nux12ImageSurfaceC2EOS0_@Base 4.0.0
 _ZN3nux12ImageSurfaceC2ERKS0_@Base 4.0~bzr753
 _ZN3nux12ImageSurfaceC2Ev@Base 4.0~bzr753
 _ZN3nux12ImageSurfaceD1Ev@Base 4.0~bzr753
 _ZN3nux12ImageSurfaceD2Ev@Base 4.0~bzr753
 _ZN3nux12ImageSurfaceaSES0_@Base 4.0.0
 _ZN3nux12NCubemapData10GetSurfaceEi@Base 4.0~bzr753
 _ZN3nux12NCubemapData10GetSurfaceEii@Base 4.0~bzr753
 _ZN3nux12NCubemapData10SetSurfaceEiiRKNS_12ImageSurfaceE@Base 4.0~bzr753
 _ZN3nux12NCubemapData20AllocateColorTextureEiiiNS_5color5ColorE@Base 4.0~bzr753
 _ZN3nux12NCubemapData25AllocateCheckBoardTextureEiiiNS_5color5ColorES2_ii@Base 4.0~bzr753
 _ZN3nux12NCubemapData8AllocateENS_12BitmapFormatEiii@Base 4.0~bzr753
 _ZN3nux12NCubemapData9ClearDataEv@Base 4.0~bzr753
 _ZN3nux12NCubemapDataC1ENS_12BitmapFormatEiii@Base 4.0~bzr753
 _ZN3nux12NCubemapDataC1ERKS0_@Base 4.0~bzr753
 _ZN3nux12NCubemapDataC2ENS_12BitmapFormatEiii@Base 4.0~bzr753
 _ZN3nux12NCubemapDataC2ERKS0_@Base 4.0~bzr753
 _ZN3nux12NCubemapDataD0Ev@Base 4.0~bzr753
 _ZN3nux12NCubemapDataD1Ev@Base 4.0~bzr753
 _ZN3nux12NCubemapDataD2Ev@Base 4.0~bzr753
 _ZN3nux12NCubemapDataaSERKS0_@Base 4.0~bzr753
 _ZN3nux12NResourceSet12FreeResourceEPNS_12ResourceDataE@Base 4.0~bzr753
 _ZN3nux12NResourceSet13FlushResourceEPNS_18CachedResourceDataE@Base 4.0~bzr753
 _ZN3nux12NResourceSet5FlushEv@Base 4.0~bzr753
 _ZN3nux12NResourceSetC1Ev@Base 4.0~bzr753
 _ZN3nux12NResourceSetC2Ev@Base 4.0~bzr753
 _ZN3nux12NResourceSetD0Ev@Base 4.0~bzr753
 _ZN3nux12NResourceSetD1Ev@Base 4.0~bzr753
 _ZN3nux12NResourceSetD2Ev@Base 4.0~bzr753
 _ZN3nux12NTextureData10GetSurfaceEi@Base 4.0~bzr753
 _ZN3nux12NTextureData10GetSurfaceEii@Base 4.0~bzr753
 _ZN3nux12NTextureData10SetSurfaceEiRKNS_12ImageSurfaceE@Base 4.0~bzr753
 _ZN3nux12NTextureData20AllocateColorTextureEiiiNS_5color5ColorE@Base 4.0~bzr753
 _ZN3nux12NTextureData25AllocateCheckBoardTextureEiiiNS_5color5ColorES2_ii@Base 4.0~bzr753
 _ZN3nux12NTextureData4swapERS0_@Base 4.0.0
 _ZN3nux12NTextureData8AllocateENS_12BitmapFormatEiii@Base 4.0~bzr753
 _ZN3nux12NTextureDataC1ENS_12BitmapFormatEiii@Base 4.0~bzr753
 _ZN3nux12NTextureDataC1EOS0_@Base 4.0.0
 _ZN3nux12NTextureDataC1ERKS0_@Base 4.0~bzr753
 _ZN3nux12NTextureDataC2ENS_12BitmapFormatEiii@Base 4.0~bzr753
 _ZN3nux12NTextureDataC2EOS0_@Base 4.0.0
 _ZN3nux12NTextureDataC2ERKS0_@Base 4.0~bzr753
 _ZN3nux12NTextureDataD0Ev@Base 4.0~bzr753
 _ZN3nux12NTextureDataD1Ev@Base 4.0~bzr753
 _ZN3nux12NTextureDataD2Ev@Base 4.0~bzr753
 _ZN3nux12NTextureDataaSES0_@Base 4.0.0
 _ZN3nux12RedFrgShaderE@Base 4.0~bzr753
 _ZN3nux12ResourceData16StaticObjectTypeE@Base 4.0~bzr753
 _ZN3nux12ResourceDataC1EPKci@Base 4.0~bzr753
 _ZN3nux12ResourceDataC2EPKci@Base 4.0~bzr753
 _ZN3nux12ResourceDataD0Ev@Base 4.0~bzr753
 _ZN3nux12ResourceDataD1Ev@Base 4.0~bzr753
 _ZN3nux12ResourceDataD2Ev@Base 4.0~bzr753
 _ZN3nux12VertexBuffer13GetPtrRawDataEv@Base 4.0~bzr753
 _ZN3nux12VertexBuffer16StaticObjectTypeE@Base 4.0~bzr753
 _ZN3nux12VertexBuffer8AllocateEii@Base 4.0~bzr753
 _ZN3nux12VertexBufferC1Eii@Base 4.0~bzr753
 _ZN3nux12VertexBufferC1Ev@Base 4.0~bzr753
 _ZN3nux12VertexBufferC2Eii@Base 4.0~bzr753
 _ZN3nux12VertexBufferC2Ev@Base 4.0~bzr753
 _ZN3nux12VertexBufferD0Ev@Base 4.0~bzr753
 _ZN3nux12VertexBufferD1Ev@Base 4.0~bzr753
 _ZN3nux12VertexBufferD2Ev@Base 4.0~bzr753
 _ZN3nux12XInputWindow10DisableDndEv@Base 4.0~bzr753
 _ZN3nux12XInputWindow11SetGeometryERKNS_4RectE@Base 4.0~bzr753
 _ZN3nux12XInputWindow11SetGeometryEiiii@Base 4.0~bzr753
 _ZN3nux12XInputWindow11UnsetStrutsEv@Base 4.0~bzr753
 _ZN3nux12XInputWindow12EnableStrutsEb@Base 4.0~bzr753
 _ZN3nux12XInputWindow12EnsureInputsEv@Base 4.0~bzr753
 _ZN3nux12XInputWindow13GetStrutsDataEv@Base 4.0~bzr753
 _ZN3nux12XInputWindow13SetInputFocusEv@Base 4.0~bzr753
 _ZN3nux12XInputWindow13StrutsEnabledEv@Base 4.0~bzr753
 _ZN3nux12XInputWindow15EnableTakeFocusEv@Base 4.0~bzr753
 _ZN3nux12XInputWindow15native_windows_E@Base 4.0~bzr753
 _ZN3nux12XInputWindow16NativeHandleListEv@Base 4.0~bzr753
 _ZN3nux12XInputWindow16SetOverlayStrutsEv@Base 4.0~bzr753
 _ZN3nux12XInputWindow18UnsetOverlayStrutsEv@Base 4.0~bzr753
 _ZN3nux12XInputWindow19EnableOverlayStrutsEb@Base 4.0~bzr753
 _ZN3nux12XInputWindow20OverlayStrutsEnabledEv@Base 4.0~bzr753
 _ZN3nux12XInputWindow4HideEv@Base 4.0~bzr753
 _ZN3nux12XInputWindow4ShowEv@Base 4.0~bzr753
 _ZN3nux12XInputWindow9EnableDndEv@Base 4.0~bzr753
 _ZN3nux12XInputWindow9GetWindowEv@Base 4.0~bzr753
 _ZN3nux12XInputWindow9SetStrutsEv@Base 4.0~bzr753
 _ZN3nux12XInputWindowC1EPKcbi@Base 4.0~bzr753
 _ZN3nux12XInputWindowC2EPKcbi@Base 4.0~bzr753
 _ZN3nux12XInputWindowD1Ev@Base 4.0~bzr753
 _ZN3nux12XInputWindowD2Ev@Base 4.0~bzr753
 _ZN3nux13BlendOperator14EnableBlendingEb@Base 4.0~bzr753
 _ZN3nux13BlendOperator21SetPorterDuffOperatorENS_18PorterDuffOperatorE@Base 4.0~bzr753
 _ZN3nux13BlendOperator22SetCustomBlendOperatorEjj@Base 4.0~bzr753
 _ZN3nux13BlendOperatorC1Ev@Base 4.0~bzr753
 _ZN3nux13BlendOperatorC2Ev@Base 4.0~bzr753
 _ZN3nux13BlendOperatorD1Ev@Base 4.0~bzr753
 _ZN3nux13BlendOperatorD2Ev@Base 4.0~bzr753
 _ZN3nux13BlueFrgShaderE@Base 4.0~bzr753
 _ZN3nux13CairoGraphics10DrawCanvasEddPS0_@Base 4.0~bzr753
 _ZN3nux13CairoGraphics10GetContextEv@Base 4.0~bzr753
 _ZN3nux13CairoGraphics10GetSurfaceEv@Base 4.0~bzr753
 _ZN3nux13CairoGraphics11BlurSurfaceEjP14_cairo_surface@Base 4.0~bzr753
 _ZN3nux13CairoGraphics11ClearCanvasEv@Base 4.0~bzr753
 _ZN3nux13CairoGraphics14DrawFilledRectEddddRKNS_5color5ColorE@Base 4.0~bzr753
 _ZN3nux13CairoGraphics18GetInternalContextEv@Base 4.0~bzr753
 _ZN3nux13CairoGraphics20DrawRoundedRectangleEP6_cairoddddddb@Base 4.0~bzr753
 _ZN3nux13CairoGraphics20TranslateCoordinatesEdd@Base 4.0~bzr753
 _ZN3nux13CairoGraphics23IntersectRectClipRegionEdddd@Base 4.0~bzr753
 _ZN3nux13CairoGraphics26IntersectGeneralClipRegionERSt4listINS_4RectESaIS2_EE@Base 4.0~bzr753
 _ZN3nux13CairoGraphics8DrawLineEdddddRKNS_5color5ColorE@Base 4.0~bzr753
 _ZN3nux13CairoGraphics8PopStateEv@Base 4.0~bzr753
 _ZN3nux13CairoGraphics9ClearRectEdddd@Base 4.0~bzr753
 _ZN3nux13CairoGraphics9GetBitmapEv@Base 4.0~bzr753
 _ZN3nux13CairoGraphics9PushStateEv@Base 4.0~bzr753
 _ZN3nux13CairoGraphicsC1E13_cairo_formatii@Base 4.0~bzr753
 _ZN3nux13CairoGraphicsC2E13_cairo_formatii@Base 4.0~bzr753
 _ZN3nux13CairoGraphicsD1Ev@Base 4.0~bzr753
 _ZN3nux13CairoGraphicsD2Ev@Base 4.0~bzr753
 _ZN3nux13GPixelFormatsE@Base 4.0~bzr753
 _ZN3nux13GraphicSystemD1Ev@Base 4.0~bzr753
 _ZN3nux13GraphicSystemD2Ev@Base 4.0~bzr753
 _ZN3nux13IOpenGLShader16StaticObjectTypeE@Base 4.0~bzr753
 _ZN3nux13IOpenGLShaderC1ESsNS_18OpenGLResourceTypeE@Base 4.0~bzr753
 _ZN3nux13IOpenGLShaderC2ESsNS_18OpenGLResourceTypeE@Base 4.0~bzr753
 _ZN3nux13IOpenGLShaderD0Ev@Base 4.0~bzr753
 _ZN3nux13IOpenGLShaderD1Ev@Base 4.0~bzr753
 _ZN3nux13IOpenGLShaderD2Ev@Base 4.0~bzr753
 _ZN3nux13IOpenGLVolume15InitializeLevelEv@Base 4.0~bzr753
 _ZN3nux13IOpenGLVolume16StaticObjectTypeE@Base 4.0~bzr753
 _ZN3nux13IOpenGLVolume7LockBoxEPNS_18_VOLUME_LOCKED_BOXEPKNS_11_VOLUME_BOXE@Base 4.0~bzr753
 _ZN3nux13IOpenGLVolume9UnlockBoxEv@Base 4.0~bzr753
 _ZN3nux13IOpenGLVolumeD0Ev@Base 4.0~bzr753
 _ZN3nux13IOpenGLVolumeD1Ev@Base 4.0~bzr753
 _ZN3nux13IOpenGLVolumeD2Ev@Base 4.0~bzr753
 _ZN3nux13LoadGdkPixbufEP10_GdkPixbuf@Base 4.0~bzr753
 _ZN3nux13LoadImageFileEPKc@Base 4.0~bzr753
 _ZN3nux13TexCoordXForm10FlipUCoordEb@Base 4.0~bzr753
 _ZN3nux13TexCoordXForm10FlipVCoordEb@Base 4.0~bzr753
 _ZN3nux13TexCoordXForm11FlipUVCoordEbb@Base 4.0~bzr753
 _ZN3nux13TexCoordXForm15SetTexCoordTypeENS0_12TexCoordTypeE@Base 4.0~bzr753
 _ZN3nux13TexCoordXForm7SetWrapENS_7TexWrapES1_@Base 4.0~bzr753
 _ZN3nux13TexCoordXForm9SetFilterENS_9TexFilterES1_@Base 4.0~bzr753
 _ZN3nux13TexCoordXFormC1Ev@Base 4.0~bzr753
 _ZN3nux13TexCoordXFormC2Ev@Base 4.0~bzr753
 _ZN3nux13TextureVolume16StaticObjectTypeE@Base 4.0~bzr753
 _ZN3nux13TextureVolume6UpdateEPKNS_11NBitmapDataEb@Base 4.0~bzr753
 _ZN3nux13TextureVolume6UpdateEPKcb@Base 4.0~bzr753
 _ZN3nux13TextureVolume7GetDataEPviii@Base 4.0~bzr753
 _ZN3nux13TextureVolumeC1EPKci@Base 4.0~bzr753
 _ZN3nux13TextureVolumeC1ERKNS_11NVolumeDataE@Base 4.0~bzr753
 _ZN3nux13TextureVolumeC2EPKci@Base 4.0~bzr753
 _ZN3nux13TextureVolumeC2ERKNS_11NVolumeDataE@Base 4.0~bzr753
 _ZN3nux13TextureVolumeD0Ev@Base 4.0~bzr753
 _ZN3nux13TextureVolumeD1Ev@Base 4.0~bzr753
 _ZN3nux13TextureVolumeD2Ev@Base 4.0~bzr753
 _ZN3nux13XIMController10FocusInXICEv@Base 4.0~bzr753
 _ZN3nux13XIMController11FocusOutXICEv@Base 4.0~bzr753
 _ZN3nux13XIMController15InitXIMCallbackEv@Base 4.0~bzr753
 _ZN3nux13XIMController16SetFocusedWindowEm@Base 4.0~bzr753
 _ZN3nux13XIMController19RemoveFocusedWindowEv@Base 4.0~bzr753
 _ZN3nux13XIMController20EndXIMClientCallbackEP9_XDisplayPcS3_@Base 4.0~bzr753
 _ZN3nux13XIMController22SetupXIMClientCallbackEP9_XDisplayPcS3_@Base 4.0~bzr753
 _ZN3nux13XIMController25SetupXIMDestroyedCallbackEv@Base 4.0~bzr753
 _ZN3nux13XIMController8SetupXIMEv@Base 4.0~bzr753
 _ZN3nux13XIMControllerC1EP9_XDisplay@Base 4.0~bzr753
 _ZN3nux13XIMControllerC2EP9_XDisplay@Base 4.0~bzr753
 _ZN3nux13XIMControllerD1Ev@Base 4.0~bzr753
 _ZN3nux13XIMControllerD2Ev@Base 4.0~bzr753
 _ZN3nux14GLRenderbuffer10GetMaxSizeEv@Base 4.0~bzr753
 _ZN3nux14GLRenderbuffer15_CreateBufferIdEv@Base 4.0~bzr753
 _ZN3nux14GLRenderbuffer3SetEjii@Base 4.0~bzr753
 _ZN3nux14GLRenderbuffer4BindEv@Base 4.0~bzr753
 _ZN3nux14GLRenderbuffer6UnbindEv@Base 4.0~bzr753
 _ZN3nux14GLRenderbufferC1Ejii@Base 4.0~bzr753
 _ZN3nux14GLRenderbufferC1Ev@Base 4.0~bzr753
 _ZN3nux14GLRenderbufferC2Ejii@Base 4.0~bzr753
 _ZN3nux14GLRenderbufferC2Ev@Base 4.0~bzr753
 _ZN3nux14GLRenderbufferD1Ev@Base 4.0~bzr753
 _ZN3nux14GLRenderbufferD2Ev@Base 4.0~bzr753
 _ZN3nux14GetButtonStateEmNS_11MouseButtonE@Base 4.0~bzr753
 _ZN3nux14GetEventButtonEm@Base 4.0~bzr753
 _ZN3nux14GetTextureDescEPNS_18IOpenGLBaseTextureEjPNS_12TEXTURE_DESCE@Base 4.0~bzr753
 _ZN3nux14GetTextureSizeEPNS_18IOpenGLBaseTextureE@Base 4.0~bzr753
 _ZN3nux14GraphicsEngine10ResetStatsEv@Base 4.0~bzr753
 _ZN3nux14GraphicsEngine10SetContextEiiii@Base 4.0~bzr753
 _ZN3nux14GraphicsEngine10SetScissorEiiii@Base 4.0~bzr753
 _ZN3nux14GraphicsEngine10SetTextureEiNS_9ObjectPtrINS_18IOpenGLBaseTextureEEE@Base 4.0~bzr753
 _ZN3nux14GraphicsEngine10SetTextureEiPNS_11BaseTextureE@Base 4.0~bzr753
 _ZN3nux14GraphicsEngine11GetBoldFontEv@Base 4.0~bzr753
 _ZN3nux14GraphicsEngine11InitSLPowerEv@Base 4.0~bzr753
 _ZN3nux14GraphicsEngine11Pop2DWindowEv@Base 4.0~bzr753
 _ZN3nux14GraphicsEngine11QRP_2TexModEiiiiNS_9ObjectPtrINS_18IOpenGLBaseTextureEEERNS_13TexCoordXFormERKNS_5color5ColorES3_S5_S9_@Base 4.0~bzr753
 _ZN3nux14GraphicsEngine11SetViewportEiiii@Base 4.0~bzr753
 _ZN3nux14GraphicsEngine12InitAsmPowerEv@Base 4.0~bzr753
 _ZN3nux14GraphicsEngine12Push2DWindowEii@Base 4.0~bzr753
 _ZN3nux14GraphicsEngine12QRP_ASM_1TexEiiiiNS_9ObjectPtrINS_18IOpenGLBaseTextureEEERNS_13TexCoordXFormERKNS_5color5ColorE@Base 4.0~bzr753
 _ZN3nux14GraphicsEngine12QRP_ASM_2TexEiiiiNS_9ObjectPtrINS_18IOpenGLBaseTextureEEERNS_13TexCoordXFormERKNS_5color5ColorES3_S5_S9_@Base 4.0~bzr753
 _ZN3nux14GraphicsEngine12QRP_ASM_4TexEiiiiNS_9ObjectPtrINS_18IOpenGLBaseTextureEEERNS_13TexCoordXFormERKNS_5color5ColorES3_S5_S9_S3_S5_S9_S3_S5_S9_@Base 4.0~bzr753
 _ZN3nux14GraphicsEngine12QRP_ASM_LineEiiiiNS_5color5ColorE@Base 4.0~bzr753
 _ZN3nux14GraphicsEngine12QRP_ASM_LineEiiiiNS_5color5ColorES2_@Base 4.0~bzr753
 _ZN3nux14GraphicsEngine12QRP_GetPowerENS_9ObjectPtrINS_18IOpenGLBaseTextureEEERNS_13TexCoordXFormERKNS_5color5ColorERKNS_4Vec4IfEE@Base 4.0~bzr753
 _ZN3nux14GraphicsEngine12QRP_PixelateEiiiiNS_9ObjectPtrINS_18IOpenGLBaseTextureEEERNS_13TexCoordXFormERKNS_5color5ColorEi@Base 4.0~bzr753
 _ZN3nux14GraphicsEngine12QRP_TriangleEiiiiiiNS_5color5ColorE@Base 4.0~bzr753
 _ZN3nux14GraphicsEngine12QRP_TriangleEiiiiiiNS_5color5ColorES2_S2_@Base 4.0~bzr753
 _ZN3nux14GraphicsEngine13AddClipOffsetEii@Base 4.0~bzr753
 _ZN3nux14GraphicsEngine13CacheResourceEPNS_12ResourceDataE@Base 4.0~bzr753
 _ZN3nux14GraphicsEngine13PopClipOffsetEv@Base 4.0~bzr753
 _ZN3nux14GraphicsEngine13QRP_ASM_ColorEiiiiRKNS_5color5ColorE@Base 4.0~bzr753
 _ZN3nux14GraphicsEngine13QRP_ASM_ColorEiiiiRKNS_5color5ColorES4_S4_S4_@Base 4.0~bzr753
 _ZN3nux14GraphicsEngine13QRP_ASM_PowerEiiiiNS_9ObjectPtrINS_18IOpenGLBaseTextureEEERNS_13TexCoordXFormERKNS_5color5ColorENS_4Vec4IfEE@Base 4.0~bzr753
 _ZN3nux14GraphicsEngine13QRP_GLSL_1TexEiiiiNS_9ObjectPtrINS_18IOpenGLBaseTextureEEERNS_13TexCoordXFormERKNS_5color5ColorE@Base 4.0~bzr753
 _ZN3nux14GraphicsEngine13QRP_GLSL_2TexEiiiiNS_9ObjectPtrINS_18IOpenGLBaseTextureEEERNS_13TexCoordXFormERKNS_5color5ColorES3_S5_S9_@Base 4.0~bzr753
 _ZN3nux14GraphicsEngine13QRP_GLSL_4TexEiiiiNS_9ObjectPtrINS_18IOpenGLBaseTextureEEERNS_13TexCoordXFormERKNS_5color5ColorES3_S5_S9_S3_S5_S9_S3_S5_S9_@Base 4.0~bzr753
 _ZN3nux14GraphicsEngine13QRP_GLSL_LineEiiiiNS_5color5ColorE@Base 4.0~bzr753
 _ZN3nux14GraphicsEngine13QRP_GLSL_LineEiiiiNS_5color5ColorES2_@Base 4.0~bzr753
 _ZN3nux14GraphicsEngine13QRP_GetHQBlurEiiiiNS_9ObjectPtrINS_18IOpenGLBaseTextureEEERNS_13TexCoordXFormERKNS_5color5ColorEfi@Base 4.0~bzr753
 _ZN3nux14GraphicsEngine13QRP_GetLQBlurEiiiiNS_9ObjectPtrINS_18IOpenGLBaseTextureEEERNS_13TexCoordXFormERKNS_5color5ColorE@Base 4.0~bzr753
 _ZN3nux14GraphicsEngine14ClearAreaColorEiiiiNS_5color5ColorE@Base 4.0~bzr753
 _ZN3nux14GraphicsEngine14GetScissorRectEv@Base 4.0~bzr753
 _ZN3nux14GraphicsEngine14PushClipOffsetEii@Base 4.0~bzr753
 _ZN3nux14GraphicsEngine14QRP_GLSL_ColorEiiiiRKNS_5color5ColorE@Base 4.0~bzr753
 _ZN3nux14GraphicsEngine14QRP_GLSL_ColorEiiiiRKNS_5color5ColorES4_S4_S4_@Base 4.0~bzr753
 _ZN3nux14GraphicsEngine14QRP_GLSL_PowerEiiiiNS_9ObjectPtrINS_18IOpenGLBaseTextureEEERNS_13TexCoordXFormERKNS_5color5ColorENS_4Vec4IfEE@Base 4.0~bzr753
 _ZN3nux14GraphicsEngine14UpdateResourceEPNS_12ResourceDataE@Base 4.0~bzr753
 _ZN3nux14GraphicsEngine15BlendStackDepthEv@Base 4.0~bzr753
 _ZN3nux14GraphicsEngine15EvaluateGpuCapsEv@Base 4.0~bzr753
 _ZN3nux14GraphicsEngine15GaussianWeightsEPPffj@Base 4.0~bzr753
 _ZN3nux14GraphicsEngine15QRP_ASM_2TexModEiiiiNS_9ObjectPtrINS_18IOpenGLBaseTextureEEERNS_13TexCoordXFormERKNS_5color5ColorES3_S5_S9_@Base 4.0~bzr753
 _ZN3nux14GraphicsEngine15RenderColorTextENS_9ObjectPtrINS_11FontTextureEEEiiRKSsRKNS_5color5ColorEbi@Base 4.0~bzr753
 _ZN3nux14GraphicsEngine16EnableScissoringEb@Base 4.0~bzr753
 _ZN3nux14GraphicsEngine16IsResourceCachedEPNS_12ResourceDataE@Base 4.0~bzr753
 _ZN3nux14GraphicsEngine16PushDisableBlendEv@Base 4.0~bzr753
 _ZN3nux14GraphicsEngine16QRP_ASM_GetPowerENS_9ObjectPtrINS_18IOpenGLBaseTextureEEERNS_13TexCoordXFormERKNS_5color5ColorERKNS_4Vec4IfEE@Base 4.0~bzr753
 _ZN3nux14GraphicsEngine16QRP_ASM_PixelateEiiiiNS_9ObjectPtrINS_18IOpenGLBaseTextureEEERNS_13TexCoordXFormERKNS_5color5ColorEi@Base 4.0~bzr753
 _ZN3nux14GraphicsEngine16QRP_ASM_TriangleEiiiiiiNS_5color5ColorE@Base 4.0~bzr753
 _ZN3nux14GraphicsEngine16QRP_ASM_TriangleEiiiiiiNS_5color5ColorES2_S2_@Base 4.0~bzr753
 _ZN3nux14GraphicsEngine16QRP_GLSL_2TexModEiiiiNS_9ObjectPtrINS_18IOpenGLBaseTextureEEERNS_13TexCoordXFormERKNS_5color5ColorES3_S5_S9_@Base 4.0~bzr753
 _ZN3nux14GraphicsEngine16SetScissorOffsetEii@Base 4.0~bzr753
 _ZN3nux14GraphicsEngine17EnableTextureModeEii@Base 4.0~bzr753
 _ZN3nux14GraphicsEngine17InitAsmBlendModesEv@Base 4.0~bzr753
 _ZN3nux14GraphicsEngine17InitSl2TextureAddEv@Base 4.0~bzr753
 _ZN3nux14GraphicsEngine17InitSl2TextureModEv@Base 4.0~bzr753
 _ZN3nux14GraphicsEngine17InitSl4TextureAddEv@Base 4.0~bzr753
 _ZN3nux14GraphicsEngine17InitSlColorShaderEv@Base 4.0~bzr753
 _ZN3nux14GraphicsEngine17QRP_ASM_GetLQBlurEiiiiNS_9ObjectPtrINS_18IOpenGLBaseTextureEEERNS_13TexCoordXFormERKNS_5color5ColorE@Base 4.0~bzr753
 _ZN3nux14GraphicsEngine17QRP_GLSL_GetPowerENS_9ObjectPtrINS_18IOpenGLBaseTextureEEERNS_13TexCoordXFormERKNS_5color5ColorERKNS_4Vec4IfEE@Base 4.0~bzr753
 _ZN3nux14GraphicsEngine17QRP_GLSL_PixelateEiiiiNS_9ObjectPtrINS_18IOpenGLBaseTextureEEERNS_13TexCoordXFormERKNS_5color5ColorEi@Base 4.0~bzr753
 _ZN3nux14GraphicsEngine17QRP_GLSL_TriangleEiiiiiiNS_5color5ColorE@Base 4.0~bzr753
 _ZN3nux14GraphicsEngine17QRP_GLSL_TriangleEiiiiiiNS_5color5ColorES2_S2_@Base 4.0~bzr753
 _ZN3nux14GraphicsEngine17QRP_QuadWireframeEiiiiNS_5color5ColorES2_S2_S2_@Base 4.0~bzr753
 _ZN3nux14GraphicsEngine17QRP_TexDesaturateEiiiiNS_9ObjectPtrINS_18IOpenGLBaseTextureEEERNS_13TexCoordXFormERKNS_5color5ColorEf@Base 4.0~bzr753
 _ZN3nux14GraphicsEngine17UsingGLSLCodePathEv@Base 4.0~bzr753
 _ZN3nux14GraphicsEngine18DisableTextureModeEii@Base 4.0~bzr753
 _ZN3nux14GraphicsEngine18GetBlendModeStringENS_14LayerBlendModeE@Base 4.0~bzr753
 _ZN3nux14GraphicsEngine18GetModelViewMatrixEv@Base 4.0~bzr753
 _ZN3nux14GraphicsEngine18InitAsm2TextureAddEv@Base 4.0~bzr753
 _ZN3nux14GraphicsEngine18InitAsm2TextureModEv@Base 4.0~bzr753
 _ZN3nux14GraphicsEngine18InitAsm4TextureAddEv@Base 4.0~bzr753
 _ZN3nux14GraphicsEngine18InitAsmColorShaderEv@Base 4.0~bzr753
 _ZN3nux14GraphicsEngine18InitSLDesaturationEv@Base 4.0~bzr753
 _ZN3nux14GraphicsEngine18ModelViewXFormRectERKNS_4RectE@Base 4.0~bzr753
 _ZN3nux14GraphicsEngine18PopModelViewMatrixEv@Base 4.0~bzr753
 _ZN3nux14GraphicsEngine18QRP_GLSL_GetHQBlurEiiiiNS_9ObjectPtrINS_18IOpenGLBaseTextureEEERNS_13TexCoordXFormERKNS_5color5ColorEfi@Base 4.0~bzr753
 _ZN3nux14GraphicsEngine18QRP_GLSL_GetLQBlurEiiiiNS_9ObjectPtrINS_18IOpenGLBaseTextureEEERNS_13TexCoordXFormERKNS_5color5ColorE@Base 4.0~bzr753
 _ZN3nux14GraphicsEngine18QRP_GetBlurTextureEiiiiNS_9ObjectPtrINS_18IOpenGLBaseTextureEEERNS_13TexCoordXFormERKNS_5color5ColorEfi@Base 4.0~bzr753
 _ZN3nux14GraphicsEngine18QRP_GetCopyTextureEiiRNS_9ObjectPtrINS_18IOpenGLBaseTextureEEES4_RNS_13TexCoordXFormERKNS_5color5ColorE@Base 4.0~bzr753
 _ZN3nux14GraphicsEngine18QRP_GetPixelBlocksENS_9ObjectPtrINS_18IOpenGLBaseTextureEEERNS_13TexCoordXFormERKNS_5color5ColorEi@Base 4.0~bzr753
 _ZN3nux14GraphicsEngine18SetModelViewMatrixERKNS_9Matrix4x4IfEE@Base 4.0~bzr753
 _ZN3nux14GraphicsEngine19EmptyClippingRegionEv@Base 4.0~bzr753
 _ZN3nux14GraphicsEngine19GetProjectionMatrixEv@Base 4.0~bzr753
 _ZN3nux14GraphicsEngine19InitSlTextureShaderEv@Base 4.0~bzr753
 _ZN3nux14GraphicsEngine19ModelViewStackDepthEv@Base 4.0~bzr753
 _ZN3nux14GraphicsEngine19PushModelViewMatrixERKNS_9Matrix4x4IfEE@Base 4.0~bzr753
 _ZN3nux14GraphicsEngine19PushPorterDuffBlendERKNS_18PorterDuffOperatorE@Base 4.0~bzr753
 _ZN3nux14GraphicsEngine19QRP_1TexPremultiplyEiiiiNS_9ObjectPtrINS_18IOpenGLBaseTextureEEERNS_13TexCoordXFormERKNS_5color5ColorE@Base 4.0~bzr753
 _ZN3nux14GraphicsEngine19QRP_ASM_ColorMatrixEiiiiNS_9ObjectPtrINS_18IOpenGLBaseTextureEEERNS_13TexCoordXFormERKNS_5color5ColorENS_9Matrix4x4IfEENS_4Vec4IfEE@Base 4.0~bzr753
 _ZN3nux14GraphicsEngine19QRP_GetAlphaTextureENS_9ObjectPtrINS_18IOpenGLBaseTextureEEERNS_13TexCoordXFormERKNS_5color5ColorE@Base 4.0~bzr753
 _ZN3nux14GraphicsEngine19SetProjectionMatrixERKNS_9Matrix4x4IfEE@Base 4.0~bzr753
 _ZN3nux14GraphicsEngine20ApplyModelViewMatrixEv@Base 4.0~bzr753
 _ZN3nux14GraphicsEngine20InitAsmTextureShaderEv@Base 4.0~bzr753
 _ZN3nux14GraphicsEngine20InitSLAlphaReplicateEv@Base 4.0~bzr753
 _ZN3nux14GraphicsEngine20InitSlPixelateShaderEv@Base 4.0~bzr753
 _ZN3nux14GraphicsEngine20Pop2DModelViewMatrixEv@Base 4.0~bzr753
 _ZN3nux14GraphicsEngine20PopClippingRectangleEv@Base 4.0~bzr753
 _ZN3nux14GraphicsEngine20QRP_ColorModTexAlphaEiiiiNS_9ObjectPtrINS_18IOpenGLBaseTextureEEERNS_13TexCoordXFormERKNS_5color5ColorE@Base 4.0~bzr753
 _ZN3nux14GraphicsEngine20QRP_DisturbedTextureEiiiiNS_9ObjectPtrINS_18IOpenGLBaseTextureEEERNS_13TexCoordXFormERKNS_5color5ColorES3_S5_S9_@Base 4.0~bzr753
 _ZN3nux14GraphicsEngine20QRP_GLSL_ColorMatrixEiiiiNS_9ObjectPtrINS_18IOpenGLBaseTextureEEERNS_13TexCoordXFormERKNS_5color5ColorENS_9Matrix4x4IfEENS_4Vec4IfEE@Base 4.0~bzr753
 _ZN3nux14GraphicsEngine20QRP_GLSL_GetHQBlurFxEiiiiPNS_11FxStructureERNS_13TexCoordXFormERKNS_5color5ColorEfi@Base 4.0~bzr753
 _ZN3nux14GraphicsEngine20QRP_GLSL_GetLSBlurFxEiiiiPNS_11FxStructureERNS_13TexCoordXFormERKNS_5color5ColorEfi@Base 4.0~bzr753
 _ZN3nux14GraphicsEngine20SetClippingRectangleERKNS_4RectE@Base 4.0~bzr753
 _ZN3nux14GraphicsEngine20SetFrameBufferHelperERNS_9ObjectPtrINS_24IOpenGLFrameBufferObjectEEERNS1_INS_18IOpenGLBaseTextureEEES7_ii@Base 4.0~bzr753
 _ZN3nux14GraphicsEngine21ClearAreaDepthStencilEiiiifi@Base 4.0~bzr753
 _ZN3nux14GraphicsEngine21DisableAllTextureModeEi@Base 4.0~bzr753
 _ZN3nux14GraphicsEngine21GetBlendModeBlendFuncENS_14LayerBlendModeE@Base 4.0~bzr753
 _ZN3nux14GraphicsEngine21InitAsmAlphaReplicateEv@Base 4.0~bzr753
 _ZN3nux14GraphicsEngine21InitAsmPixelateShaderEv@Base 4.0~bzr753
 _ZN3nux14GraphicsEngine21InitSl2TextureDepReadEv@Base 4.0~bzr753
 _ZN3nux14GraphicsEngine21Push2DModelViewMatrixENS_9Matrix4x4IfEE@Base 4.0~bzr753
 _ZN3nux14GraphicsEngine21PushClippingRectangleENS_4RectE@Base 4.0~bzr753
 _ZN3nux14GraphicsEngine21QRP_ASM_QuadWireframeEiiiiNS_5color5ColorES2_S2_S2_@Base 4.0~bzr753
 _ZN3nux14GraphicsEngine21QRP_ASM_VerticalGaussEiiiiNS_9ObjectPtrINS_18IOpenGLBaseTextureEEERNS_13TexCoordXFormERKNS_5color5ColorEf@Base 4.0~bzr753
 _ZN3nux14GraphicsEngine21ResetProjectionMatrixEv@Base 4.0~bzr753
 _ZN3nux14GraphicsEngine22ApplyClippingRectangleEv@Base 4.0~bzr753
 _ZN3nux14GraphicsEngine22Clear2DModelViewMatrixEv@Base 4.0~bzr753
 _ZN3nux14GraphicsEngine22InitAsm2TextureDepReadEv@Base 4.0~bzr753
 _ZN3nux14GraphicsEngine22QRP_ASM_AlphaReplicateEiiiiNS_9ObjectPtrINS_18IOpenGLBaseTextureEEERNS_13TexCoordXFormERKNS_5color5ColorE@Base 4.0~bzr753
 _ZN3nux14GraphicsEngine22QRP_ASM_GetBlurTextureEiiiiNS_9ObjectPtrINS_18IOpenGLBaseTextureEEERNS_13TexCoordXFormERKNS_5color5ColorEfi@Base 4.0~bzr753
 _ZN3nux14GraphicsEngine22QRP_ASM_GetCopyTextureEiiRNS_9ObjectPtrINS_18IOpenGLBaseTextureEEES4_RNS_13TexCoordXFormERKNS_5color5ColorE@Base 4.0~bzr753
 _ZN3nux14GraphicsEngine22QRP_ASM_GetPixelBlocksENS_9ObjectPtrINS_18IOpenGLBaseTextureEEERNS_13TexCoordXFormERKNS_5color5ColorEi@Base 4.0~bzr753
 _ZN3nux14GraphicsEngine22QRP_GLSL_QuadWireframeEiiiiNS_5color5ColorES2_S2_S2_@Base 4.0~bzr753
 _ZN3nux14GraphicsEngine22QRP_GLSL_TexDesaturateEiiiiNS_9ObjectPtrINS_18IOpenGLBaseTextureEEERNS_13TexCoordXFormERKNS_5color5ColorEf@Base 4.0~bzr753
 _ZN3nux14GraphicsEngine22QRP_GLSL_VerticalGaussEiiiiNS_9ObjectPtrINS_18IOpenGLBaseTextureEEERNS_13TexCoordXFormERKNS_5color5ColorEf@Base 4.0~bzr753
 _ZN3nux14GraphicsEngine23FlushCachedResourceDataEPNS_12ResourceDataE@Base 4.0~bzr753
 _ZN3nux14GraphicsEngine23InitSLColorMatrixFilterEv@Base 4.0~bzr753
 _ZN3nux14GraphicsEngine23QRP_ASM_1TexPremultiplyEiiiiNS_9ObjectPtrINS_18IOpenGLBaseTextureEEERNS_13TexCoordXFormERKNS_5color5ColorE@Base 4.0~bzr753
 _ZN3nux14GraphicsEngine23QRP_ASM_GetAlphaTextureENS_9ObjectPtrINS_18IOpenGLBaseTextureEEERNS_13TexCoordXFormERKNS_5color5ColorE@Base 4.0~bzr753
 _ZN3nux14GraphicsEngine23QRP_ASM_HorizontalGaussEiiiiNS_9ObjectPtrINS_18IOpenGLBaseTextureEEERNS_13TexCoordXFormERKNS_5color5ColorEf@Base 4.0~bzr753
 _ZN3nux14GraphicsEngine23QRP_GLSL_AlphaReplicateEiiiiNS_9ObjectPtrINS_18IOpenGLBaseTextureEEERNS_13TexCoordXFormERKNS_5color5ColorE@Base 4.0~bzr753
 _ZN3nux14GraphicsEngine23QRP_GLSL_GetBlurTextureEiiiiNS_9ObjectPtrINS_18IOpenGLBaseTextureEEERNS_13TexCoordXFormERKNS_5color5ColorEfi@Base 4.0~bzr753
 _ZN3nux14GraphicsEngine23QRP_GLSL_GetCopyTextureEiiRNS_9ObjectPtrINS_18IOpenGLBaseTextureEEES4_RNS_13TexCoordXFormERKNS_5color5ColorE@Base 4.0~bzr753
 _ZN3nux14GraphicsEngine23QRP_GLSL_GetPixelBlocksENS_9ObjectPtrINS_18IOpenGLBaseTextureEEERNS_13TexCoordXFormERKNS_5color5ColorEi@Base 4.0~bzr753
 _ZN3nux14GraphicsEngine23RenderColorTextLineEditENS_9ObjectPtrINS_11FontTextureEEERKNS_8PageBBoxERKSsRKNS_5color5ColorEbSC_SC_SC_SC_bjiii@Base 4.0~bzr753
 _ZN3nux14GraphicsEngine23UsingARBProgramCodePathEv@Base 4.0~bzr753
 _ZN3nux14GraphicsEngine24GetOpenGLModelViewMatrixEv@Base 4.0~bzr753
 _ZN3nux14GraphicsEngine24InitAsmColorMatrixFilterEv@Base 4.0~bzr753
 _ZN3nux14GraphicsEngine24QRP_ASM_ColorModTexAlphaEiiiiNS_9ObjectPtrINS_18IOpenGLBaseTextureEEERNS_13TexCoordXFormERKNS_5color5ColorE@Base 4.0~bzr753
 _ZN3nux14GraphicsEngine24QRP_ASM_DisturbedTextureEiiiiNS_9ObjectPtrINS_18IOpenGLBaseTextureEEERNS_13TexCoordXFormERKNS_5color5ColorES3_S5_S9_@Base 4.0~bzr753
 _ZN3nux14GraphicsEngine24QRP_ASM_GetBlurTextureFxEiiiiPNS_11FxStructureERNS_13TexCoordXFormERKNS_5color5ColorEfi@Base 4.0~bzr753
 _ZN3nux14GraphicsEngine24QRP_GLSL_1TexPremultiplyEiiiiNS_9ObjectPtrINS_18IOpenGLBaseTextureEEERNS_13TexCoordXFormERKNS_5color5ColorE@Base 4.0~bzr753
 _ZN3nux14GraphicsEngine24QRP_GLSL_GetAlphaTextureENS_9ObjectPtrINS_18IOpenGLBaseTextureEEERNS_13TexCoordXFormERKNS_5color5ColorE@Base 4.0~bzr753
 _ZN3nux14GraphicsEngine24QRP_GLSL_HorizontalGaussEiiiiNS_9ObjectPtrINS_18IOpenGLBaseTextureEEERNS_13TexCoordXFormERKNS_5color5ColorEf@Base 4.0~bzr753
 _ZN3nux14GraphicsEngine24QRP_GLSL_VerticalHQGaussEiiiiNS_9ObjectPtrINS_18IOpenGLBaseTextureEEERNS_13TexCoordXFormERKNS_5color5ColorEf@Base 4.0~bzr753
 _ZN3nux14GraphicsEngine24QRP_GLSL_VerticalLSGaussEiiiiNS_9ObjectPtrINS_18IOpenGLBaseTextureEEERNS_13TexCoordXFormERKNS_5color5ColorEf@Base 4.0~bzr753
 _ZN3nux14GraphicsEngine25GetOpenGLProjectionMatrixEv@Base 4.0~bzr753
 _ZN3nux14GraphicsEngine25InitSLVerticalGaussFilterEv@Base 4.0~bzr753
 _ZN3nux14GraphicsEngine25QRP_GLSL_ColorModTexAlphaEiiiiNS_9ObjectPtrINS_18IOpenGLBaseTextureEEERNS_13TexCoordXFormERKNS_5color5ColorE@Base 4.0~bzr753
 _ZN3nux14GraphicsEngine25QRP_GLSL_DisturbedTextureEiiiiNS_9ObjectPtrINS_18IOpenGLBaseTextureEEERNS_13TexCoordXFormERKNS_5color5ColorES3_S5_S9_@Base 4.0~bzr753
 _ZN3nux14GraphicsEngine25QRP_GLSL_GetLSBlurTextureEiiiiNS_9ObjectPtrINS_18IOpenGLBaseTextureEEERNS_13TexCoordXFormERKNS_5color5ColorEfi@Base 4.0~bzr753
 _ZN3nux14GraphicsEngine25QRP_GetColorMatrixTextureENS_9ObjectPtrINS_18IOpenGLBaseTextureEEERNS_13TexCoordXFormERKNS_5color5ColorENS_9Matrix4x4IfEENS_4Vec4IfEE@Base 4.0~bzr753
 _ZN3nux14GraphicsEngine25RenderColorTextLineStaticENS_9ObjectPtrINS_11FontTextureEEERKNS_8PageBBoxERKSsRKNS_5color5ColorEbNS_14_TextAlignmentE@Base 4.0~bzr753
 _ZN3nux14GraphicsEngine25ResetModelViewMatrixStackEv@Base 4.0~bzr753
 _ZN3nux14GraphicsEngine26ClearAreaColorDepthStencilEiiiiNS_5color5ColorEfi@Base 4.0~bzr753
 _ZN3nux14GraphicsEngine26InitSlColorModTexMaskAlphaEv@Base 4.0~bzr753
 _ZN3nux14GraphicsEngine26QRP_GLSL_HorizontalHQGaussEiiiiNS_9ObjectPtrINS_18IOpenGLBaseTextureEEERNS_13TexCoordXFormERKNS_5color5ColorEf@Base 4.0~bzr753
 _ZN3nux14GraphicsEngine26QRP_GLSL_HorizontalLSGaussEiiiiNS_9ObjectPtrINS_18IOpenGLBaseTextureEEERNS_13TexCoordXFormERKNS_5color5ColorEf@Base 4.0~bzr753
 _ZN3nux14GraphicsEngine26SetGlobalClippingRectangleENS_4RectE@Base 4.0~bzr753
 _ZN3nux14GraphicsEngine26SetOpenGLClippingRectangleEiijj@Base 4.0~bzr753
 _ZN3nux14GraphicsEngine27CreateTextureFromBackBufferEiiii@Base 4.0~bzr753
 _ZN3nux14GraphicsEngine27GetColorBlendOverTexProgramENS_14LayerBlendModeE@Base 4.0~bzr753
 _ZN3nux14GraphicsEngine27InitAsmColorModTexMaskAlphaEv@Base 4.0~bzr753
 _ZN3nux14GraphicsEngine27InitAsmSeparableGaussFilterEv@Base 4.0~bzr753
 _ZN3nux14GraphicsEngine27InitSLHorizontalGaussFilterEv@Base 4.0~bzr753
 _ZN3nux14GraphicsEngine27InitSLVerticalHQGaussFilterEi@Base 4.0~bzr753
 _ZN3nux14GraphicsEngine27InitSLVerticalLSGaussFilterEi@Base 4.0~bzr753
 _ZN3nux14GraphicsEngine27LinearSampleGaussianWeightsERSt6vectorIfSaIfEES4_f@Base 4.0~bzr753
 _ZN3nux14GraphicsEngine27PushIdentityModelViewMatrixEv@Base 4.0~bzr753
 _ZN3nux14GraphicsEngine28GetModelViewProjectionMatrixEv@Base 4.0~bzr753
 _ZN3nux14GraphicsEngine28QRP_GLSL_ColorLayerOverColorEiiiiRKNS_5color5ColorES4_NS_14LayerBlendModeE@Base 4.0~bzr753
 _ZN3nux14GraphicsEngine28QRP_GLSL_GetDisturbedTextureEiiiiNS_9ObjectPtrINS_18IOpenGLBaseTextureEEERNS_13TexCoordXFormERKNS_5color5ColorES3_S5_S9_@Base 4.0~bzr753
 _ZN3nux14GraphicsEngine29GetColorLayerOverColorProgramENS_14LayerBlendModeE@Base 4.0~bzr753
 _ZN3nux14GraphicsEngine29InitSLHorizontalHQGaussFilterEi@Base 4.0~bzr753
 _ZN3nux14GraphicsEngine29InitSLHorizontalLSGaussFilterEi@Base 4.0~bzr753
 _ZN3nux14GraphicsEngine29QRP_ASM_GetColorMatrixTextureENS_9ObjectPtrINS_18IOpenGLBaseTextureEEERNS_13TexCoordXFormERKNS_5color5ColorENS_9Matrix4x4IfEENS_4Vec4IfEE@Base 4.0~bzr753
 _ZN3nux14GraphicsEngine30DisableGlobalClippingRectangleEv@Base 4.0~bzr753
 _ZN3nux14GraphicsEngine30InitSlTexturePremultiplyShaderEv@Base 4.0~bzr753
 _ZN3nux14GraphicsEngine30QRP_GLSL_ColorLayerOverTextureEiiiiNS_9ObjectPtrINS_18IOpenGLBaseTextureEEERNS_13TexCoordXFormERKNS_5color5ColorES9_NS_14LayerBlendModeE@Base 4.0~bzr753
 _ZN3nux14GraphicsEngine30QRP_GLSL_GetColorMatrixTextureENS_9ObjectPtrINS_18IOpenGLBaseTextureEEERNS_13TexCoordXFormERKNS_5color5ColorENS_9Matrix4x4IfEENS_4Vec4IfEE@Base 4.0~bzr753
 _ZN3nux14GraphicsEngine30QRP_GLSL_GetDisturbedTextureFxEiiiiNS_9ObjectPtrINS_18IOpenGLBaseTextureEEERNS_13TexCoordXFormERKNS_5color5ColorEPNS_11FxStructureES5_S9_@Base 4.0~bzr753
 _ZN3nux14GraphicsEngine30QRP_GLSL_TextureLayerOverColorEiiiiRKNS_5color5ColorENS_9ObjectPtrINS_18IOpenGLBaseTextureEEERNS_13TexCoordXFormES4_NS_14LayerBlendModeE@Base 4.0~bzr753
 _ZN3nux14GraphicsEngine31GetTextureLayerOverColorProgramENS_14LayerBlendModeE@Base 4.0~bzr753
 _ZN3nux14GraphicsEngine31InitAsmTexturePremultiplyShaderEv@Base 4.0~bzr753
 _ZN3nux14GraphicsEngine31SetOrthographicProjectionMatrixEii@Base 4.0~bzr753
 _ZN3nux14GraphicsEngine31SetOrthographicProjectionMatrixEiiii@Base 4.0~bzr753
 _ZN3nux14GraphicsEngine32Push2DTranslationModelViewMatrixEfff@Base 4.0~bzr753
 _ZN3nux14GraphicsEngine32QRP_GLSL_TextureLayerOverTextureEiiiiNS_9ObjectPtrINS_18IOpenGLBaseTextureEEERNS_13TexCoordXFormERKNS_5color5ColorES3_S5_S9_NS_14LayerBlendModeE@Base 4.0~bzr753
 _ZN3nux14GraphicsEngine33GetTextureLayerOverTextureProgramENS_14LayerBlendModeE@Base 4.0~bzr753
 _ZN3nux14GraphicsEngine34GetOpenGLModelViewProjectionMatrixEv@Base 4.0~bzr753
 _ZN3nux14GraphicsEngine7GetFontEv@Base 4.0~bzr753
 _ZN3nux14GraphicsEngine8PopBlendEv@Base 4.0~bzr753
 _ZN3nux14GraphicsEngine8QRP_1TexEiiiiNS_9ObjectPtrINS_18IOpenGLBaseTextureEEERNS_13TexCoordXFormERKNS_5color5ColorE@Base 4.0~bzr753
 _ZN3nux14GraphicsEngine8QRP_2TexEiiiiNS_9ObjectPtrINS_18IOpenGLBaseTextureEEERNS_13TexCoordXFormERKNS_5color5ColorES3_S5_S9_@Base 4.0~bzr753
 _ZN3nux14GraphicsEngine8QRP_4TexEiiiiNS_9ObjectPtrINS_18IOpenGLBaseTextureEEERNS_13TexCoordXFormERKNS_5color5ColorES3_S5_S9_S3_S5_S9_S3_S5_S9_@Base 4.0~bzr753
 _ZN3nux14GraphicsEngine8QRP_LineEiiiiNS_5color5ColorE@Base 4.0~bzr753
 _ZN3nux14GraphicsEngine8QRP_LineEiiiiNS_5color5ColorES2_@Base 4.0~bzr753
 _ZN3nux14GraphicsEngine9QRP_ColorEiiiiRKNS_5color5ColorE@Base 4.0~bzr753
 _ZN3nux14GraphicsEngine9QRP_ColorEiiiiRKNS_5color5ColorES4_S4_S4_@Base 4.0~bzr753
 _ZN3nux14GraphicsEngineC1ERNS_15GraphicsDisplayEb@Base 4.0~bzr753
 _ZN3nux14GraphicsEngineC2ERNS_15GraphicsDisplayEb@Base 4.0~bzr753
 _ZN3nux14GraphicsEngineD1Ev@Base 4.0~bzr753
 _ZN3nux14GraphicsEngineD2Ev@Base 4.0~bzr753
 _ZN3nux14GreenFrgShaderE@Base 4.0~bzr753
 _ZN3nux14IOpenGLSurface10UnlockRectEv@Base 4.0~bzr753
 _ZN3nux14IOpenGLSurface14GetSurfaceDataERiS1_S1_@Base 4.0~bzr753
 _ZN3nux14IOpenGLSurface15InitializeLevelEv@Base 4.0~bzr753
 _ZN3nux14IOpenGLSurface16CopyRenderTargetEiiii@Base 4.0~bzr753
 _ZN3nux14IOpenGLSurface16StaticObjectTypeE@Base 4.0~bzr753
 _ZN3nux14IOpenGLSurface7GetDescEPNS_13_SURFACE_DESCE@Base 4.0~bzr753
 _ZN3nux14IOpenGLSurface8LockRectEPNS_12_LOCKED_RECTEPKNS_13_SURFACE_RECTE@Base 4.0~bzr753
 _ZN3nux14IOpenGLSurfaceC1EPNS_18IOpenGLBaseTextureEjjjiiPKci@Base 4.0~bzr753
 _ZN3nux14IOpenGLSurfaceC2EPNS_18IOpenGLBaseTextureEjjjiiPKci@Base 4.0~bzr753
 _ZN3nux14IOpenGLSurfaceD0Ev@Base 4.0~bzr753
 _ZN3nux14IOpenGLSurfaceD1Ev@Base 4.0~bzr753
 _ZN3nux14IOpenGLSurfaceD2Ev@Base 4.0~bzr753
 _ZN3nux14NResourceCache16IsCachedResourceEPNS_12ResourceDataE@Base 4.0~bzr753
 _ZN3nux14NResourceCache17GetCachedResourceEPNS_12ResourceDataE@Base 4.0~bzr753
 _ZN3nux14NResourceCache27InitializeResourceFactoriesEv@Base 4.0~bzr753
 _ZN3nux14NResourceCacheD0Ev@Base 4.0~bzr753
 _ZN3nux14NResourceCacheD1Ev@Base 4.0~bzr753
 _ZN3nux14NResourceCacheD2Ev@Base 4.0~bzr753
 _ZN3nux14RenderingStats10DestructorEv@Base 4.0~bzr753
 _ZN3nux14RenderingStats10UnRegisterEPNS_15IOpenGLResourceE@Base 4.0~bzr753
 _ZN3nux14RenderingStats10m_NumTex2DE@Base 4.0~bzr753
 _ZN3nux14RenderingStats11ConstructorEv@Base 4.0~bzr753
 _ZN3nux14RenderingStats12m_GPUSizePBOE@Base 4.0~bzr753
 _ZN3nux14RenderingStats12m_NumTexCubeE@Base 4.0~bzr753
 _ZN3nux14RenderingStats14m_GPUSizeTex2DE@Base 4.0~bzr753
 _ZN3nux14RenderingStats14m_NumTexVolumeE@Base 4.0~bzr753
 _ZN3nux14RenderingStats14m_TotalGPUSizeE@Base 4.0~bzr753
 _ZN3nux14RenderingStats16m_GPUSizeTexCubeE@Base 4.0~bzr753
 _ZN3nux14RenderingStats16m_NumIndexBufferE@Base 4.0~bzr753
 _ZN3nux14RenderingStats16m_NumPixelShaderE@Base 4.0~bzr753
 _ZN3nux14RenderingStats16m_NumQueryObjectE@Base 4.0~bzr753
 _ZN3nux14RenderingStats16m_NumTexAnimatedE@Base 4.0~bzr753
 _ZN3nux14RenderingStats17m_NumTexRectangleE@Base 4.0~bzr753
 _ZN3nux14RenderingStats17m_NumVertexBufferE@Base 4.0~bzr753
 _ZN3nux14RenderingStats17m_NumVertexShaderE@Base 4.0~bzr753
 _ZN3nux14RenderingStats18m_GPUSizeTexVolumeE@Base 4.0~bzr753
 _ZN3nux14RenderingStats18m_NumShaderProgramE@Base 4.0~bzr753
 _ZN3nux14RenderingStats20m_GPUSizeIndexBufferE@Base 4.0~bzr753
 _ZN3nux14RenderingStats20m_GPUSizeTexAnimatedE@Base 4.0~bzr753
 _ZN3nux14RenderingStats21m_GPUSizeTexRectangleE@Base 4.0~bzr753
 _ZN3nux14RenderingStats21m_GPUSizeVertexBufferE@Base 4.0~bzr753
 _ZN3nux14RenderingStats22m_NumFrameBufferObjectE@Base 4.0~bzr753
 _ZN3nux14RenderingStats8RegisterEPNS_15IOpenGLResourceE@Base 4.0~bzr753
 _ZN3nux14RenderingStats8m_NumPBOE@Base 4.0~bzr753
 _ZN3nux14RenderingStats9pInstanceE@Base 4.0~bzr753
 _ZN3nux14RenderingStatsD0Ev@Base 4.0~bzr753
 _ZN3nux14RenderingStatsD1Ev@Base 4.0~bzr753
 _ZN3nux14RenderingStatsD2Ev@Base 4.0~bzr753
 _ZN3nux14TResourceCacheIiNS_18CachedResourceDataEE13FlushResourceEPS1_@Base 4.0~bzr753
 _ZN3nux14TResourceCacheIiNS_18CachedResourceDataEE5FlushEv@Base 4.0~bzr753
 _ZN3nux14TResourceCacheIiNS_18CachedResourceDataEED0Ev@Base 4.0~bzr753
 _ZN3nux14TResourceCacheIiNS_18CachedResourceDataEED1Ev@Base 4.0~bzr753
 _ZN3nux14TResourceCacheIiNS_18CachedResourceDataEED2Ev@Base 4.0~bzr753
 _ZN3nux14ValueFrgShaderE@Base 4.0~bzr753
 _ZN3nux15AsmHueFrgShaderE@Base 4.0~bzr753
 _ZN3nux15AsmRedFrgShaderE@Base 4.0~bzr753
 _ZN3nux15CachedTexture2D12LoadMipLevelEPNS_11BaseTextureEi@Base 4.0~bzr753
 _ZN3nux15CachedTexture2D13UpdateTextureEPNS_11BaseTextureE@Base 4.0~bzr753
 _ZN3nux15CachedTexture2D16StaticObjectTypeE@Base 4.0~bzr753
 _ZN3nux15CachedTexture2DC1EPNS_12NResourceSetEPNS_9Texture2DE@Base 4.0~bzr753
 _ZN3nux15CachedTexture2DC2EPNS_12NResourceSetEPNS_9Texture2DE@Base 4.0~bzr753
 _ZN3nux15CachedTexture2DD0Ev@Base 4.0~bzr753
 _ZN3nux15CachedTexture2DD1Ev@Base 4.0~bzr753
 _ZN3nux15CachedTexture2DD2Ev@Base 4.0~bzr753
 _ZN3nux15GLTextureStates10HW_SetWrapEv@Base 4.0~bzr753
 _ZN3nux15GLTextureStates11SetMipLevelEjj@Base 4.0~bzr753
 _ZN3nux15GLTextureStates12ResetDefaultEv@Base 4.0~bzr753
 _ZN3nux15GLTextureStates12SetFilteringEjj@Base 4.0~bzr753
 _ZN3nux15GLTextureStates14HW_SetMipLevelEv@Base 4.0~bzr753
 _ZN3nux15GLTextureStates14SetBorderColorEffff@Base 4.0~bzr753
 _ZN3nux15GLTextureStates15HW_SetFilteringEv@Base 4.0~bzr753
 _ZN3nux15GLTextureStates15SetRenderStatesEv@Base 4.0~bzr753
 _ZN3nux15GLTextureStates17HW_SetBorderColorEv@Base 4.0~bzr753
 _ZN3nux15GLTextureStates25ResetStateChangeToDefaultEv@Base 4.0~bzr753
 _ZN3nux15GLTextureStates6SetLODEff@Base 4.0~bzr753
 _ZN3nux15GLTextureStates7SetTypeEj@Base 4.0~bzr753
 _ZN3nux15GLTextureStates7SetWrapEjjj@Base 4.0~bzr753
 _ZN3nux15GLTextureStates9HW_SetLODEv@Base 4.0~bzr753
 _ZN3nux15GLTextureStatesC1Ej@Base 4.0~bzr753
 _ZN3nux15GLTextureStatesC2Ej@Base 4.0~bzr753
 _ZN3nux15GLTextureStatesD1Ev@Base 4.0~bzr753
 _ZN3nux15GLTextureStatesD2Ev@Base 4.0~bzr753
 _ZN3nux15GpuRenderStates12ResetDefaultEv@Base 4.0~bzr753
 _ZN3nux15GpuRenderStates16CheckStateChangeEv@Base 4.0~bzr753
 _ZN3nux15GpuRenderStates18SubmitChangeStatesEv@Base 4.0~bzr753
 _ZN3nux15GpuRenderStates25ResetStateChangeToDefaultEv@Base 4.0~bzr753
 _ZN3nux15GpuRenderStatesC1ENS_8GpuBrandEPNS_7GpuInfoE@Base 4.0~bzr753
 _ZN3nux15GpuRenderStatesC2ENS_8GpuBrandEPNS_7GpuInfoE@Base 4.0~bzr753
 _ZN3nux15GpuRenderStatesD1Ev@Base 4.0~bzr753
 _ZN3nux15GpuRenderStatesD2Ev@Base 4.0~bzr753
 _ZN3nux15GraphicsDisplay10EndDndDragENS_9DndActionE@Base 4.0~bzr753
 _ZN3nux15GraphicsDisplay10GetDndDataEPc@Base 4.0~bzr753
 _ZN3nux15GraphicsDisplay10HideWindowEv@Base 4.0~bzr753
 _ZN3nux15GraphicsDisplay10MousePressE7_XEventPNS_5EventE@Base 4.0~bzr753
 _ZN3nux15GraphicsDisplay10ShowWindowEv@Base 4.0~bzr753
 _ZN3nux15GraphicsDisplay10SwapBufferEb@Base 4.0~bzr753
 _ZN3nux15GraphicsDisplay10XICUnFocusEv@Base 4.0~bzr753
 _ZN3nux15GraphicsDisplay11GetXDndDataEP9_XDisplaymml@Base 4.0~bzr753
 _ZN3nux15GraphicsDisplay11GrabPointerEPFvbPvES1_b@Base 4.0~bzr753
 _ZN3nux15GraphicsDisplay11SetViewPortEiiii@Base 4.0~bzr753
 _ZN3nux15GraphicsDisplay12GrabKeyboardEPFvbPvES1_b@Base 4.0~bzr753
 _ZN3nux15GraphicsDisplay12InjectXEventEPNS_5EventE7_XEvent@Base 4.0~bzr753
 _ZN3nux15GraphicsDisplay12MouseReleaseE7_XEventPNS_5EventE@Base 4.0~bzr753
 _ZN3nux15GraphicsDisplay12StartDndDragERKNS0_15_DndSourceFuncsEPv@Base 4.0~bzr753
 _ZN3nux15GraphicsDisplay13GetWindowSizeERiS1_@Base 4.0~bzr753
 _ZN3nux15GraphicsDisplay13ProcessXEventE7_XEventb@Base 4.0~bzr753
 _ZN3nux15GraphicsDisplay13SendDndStatusEbNS_9DndActionENS_4RectE@Base 4.0~bzr753
 _ZN3nux15GraphicsDisplay13SetWindowSizeEii@Base 4.0~bzr753
 _ZN3nux15GraphicsDisplay13UngrabPointerEPv@Base 4.0~bzr753
 _ZN3nux15GraphicsDisplay14AddEventFilterENS0_15_EventFilterArgE@Base 4.0~bzr753
 _ZN3nux15GraphicsDisplay14GetDesktopSizeERiS1_@Base 4.0~bzr753
 _ZN3nux15GraphicsDisplay14GetSystemEventEPNS_5EventE@Base 4.0~bzr753
 _ZN3nux15GraphicsDisplay14GetWindowCoordEv@Base 4.0~bzr753
 _ZN3nux15GraphicsDisplay14GetWindowWidthEv@Base 4.0~bzr753
 _ZN3nux15GraphicsDisplay14HandleXDndDropE7_XEventPNS_5EventE@Base 4.0~bzr753
 _ZN3nux15GraphicsDisplay14ResetFrameTimeEv@Base 4.0~bzr753
 _ZN3nux15GraphicsDisplay14SendXDndStatusEP9_XDisplaymmbmNS_4RectE@Base 4.0~bzr753
 _ZN3nux15GraphicsDisplay14SetWindowTitleEPKc@Base 4.0~bzr753
 _ZN3nux15GraphicsDisplay14UngrabKeyboardEPv@Base 4.0~bzr753
 _ZN3nux15GraphicsDisplay15GetCurrentEventEv@Base 4.0~bzr753
 _ZN3nux15GraphicsDisplay15GetDndMimeTypesEv@Base 4.0~bzr753
 _ZN3nux15GraphicsDisplay15GetWindowHeightEv@Base 4.0~bzr753
 _ZN3nux15GraphicsDisplay15HandleXDndEnterE7_XEvent@Base 4.0~bzr753
 _ZN3nux15GraphicsDisplay15HandleXDndLeaveE7_XEvent@Base 4.0~bzr753
 _ZN3nux15GraphicsDisplay15IsWindowVisibleEv@Base 4.0~bzr753
 _ZN3nux15GraphicsDisplay15ResetWindowSizeEv@Base 4.0~bzr753
 _ZN3nux15GraphicsDisplay15SendDndFinishedEbNS_9DndActionE@Base 4.0~bzr753
 _ZN3nux15GraphicsDisplay16FindFontLocationEPKcb@Base 4.0~bzr753
 _ZN3nux15GraphicsDisplay16GrabDndSelectionEP9_XDisplaymm@Base 4.0~bzr753
 _ZN3nux15GraphicsDisplay16HandleXDndStatusE7_XEvent@Base 4.0~bzr753
 _ZN3nux15GraphicsDisplay16OnDragEndTimeoutEPv@Base 4.0~bzr753
 _ZN3nux15GraphicsDisplay16PointerIsGrabbedEv@Base 4.0~bzr753
 _ZN3nux15GraphicsDisplay16RecalcXYPositionEiiRiS1_@Base 4.0~bzr753
 _ZN3nux15GraphicsDisplay16RecalcXYPositionEm7_XEventRiS2_@Base 4.0~bzr753
 _ZN3nux15GraphicsDisplay16SendXDndFinishedEP9_XDisplaymmbm@Base 4.0~bzr753
 _ZN3nux15GraphicsDisplay17GetWindowGeometryEv@Base 4.0~bzr753
 _ZN3nux15GraphicsDisplay17KeyboardIsGrabbedEv@Base 4.0~bzr753
 _ZN3nux15GraphicsDisplay17RemoveEventFilterEPv@Base 4.0~bzr753
 _ZN3nux15GraphicsDisplay17SendDndSourceDropEmm@Base 4.0~bzr753
 _ZN3nux15GraphicsDisplay17SetWindowPositionEii@Base 4.0~bzr753
 _ZN3nux15GraphicsDisplay18CreateOpenGLWindowEPKcjjNS_11WindowStyleEPKS0_bb@Base 4.0~bzr753
 _ZN3nux15GraphicsDisplay18ExitMaximizeWindowEv@Base 4.0~bzr753
 _ZN3nux15GraphicsDisplay18FindShaderLocationEPKcb@Base 4.0~bzr753
 _ZN3nux15GraphicsDisplay18HandleXDndFinishedE7_XEvent@Base 4.0~bzr753
 _ZN3nux15GraphicsDisplay18HandleXDndPositionE7_XEventPNS_5EventE@Base 4.0~bzr753
 _ZN3nux15GraphicsDisplay18SendDndSourceEnterEm@Base 4.0~bzr753
 _ZN3nux15GraphicsDisplay18SendDndSourceLeaveEm@Base 4.0~bzr753
 _ZN3nux15GraphicsDisplay19DestroyOpenGLWindowEv@Base 4.0~bzr753
 _ZN3nux15GraphicsDisplay19DrawDndSourceWindowEv@Base 4.0~bzr753
 _ZN3nux15GraphicsDisplay19EnterMaximizeWindowEv@Base 4.0~bzr753
 _ZN3nux15GraphicsDisplay19GetMouseScreenCoordEv@Base 4.0~bzr753
 _ZN3nux15GraphicsDisplay19GetMouseWindowCoordEv@Base 4.0~bzr753
 _ZN3nux15GraphicsDisplay19GetNCWindowGeometryEv@Base 4.0~bzr753
 _ZN3nux15GraphicsDisplay20FindResourceLocationEPKcb@Base 4.0~bzr753
 _ZN3nux15GraphicsDisplay20InitGlobalGrabWindowEv@Base 4.0~bzr753
 _ZN3nux15GraphicsDisplay20MakeGLContextCurrentEv@Base 4.0~bzr753
 _ZN3nux15GraphicsDisplay21FindUITextureLocationEPKcb@Base 4.0~bzr753
 _ZN3nux15GraphicsDisplay21GetXDndSelectionEventEP9_XDisplaymmlP7_XEventi@Base 4.0~bzr753
 _ZN3nux15GraphicsDisplay21HasFrameBufferSupportEv@Base 4.0~bzr753
 _ZN3nux15GraphicsDisplay21IsGfxInterfaceCreatedEv@Base 4.0~bzr753
 _ZN3nux15GraphicsDisplay21SendDndSourcePositionEmiim@Base 4.0~bzr753
 _ZN3nux15GraphicsDisplay22CreateFromOpenGLWindowEP9_XDisplaymP15__GLXcontextRec@Base 4.0~bzr753
 _ZN3nux15GraphicsDisplay22EnableVSyncSwapControlEv@Base 4.0~bzr753
 _ZN3nux15GraphicsDisplay22ProcessForeignX11EventEP7_XEventPNS_5EventE@Base 4.0~bzr753
 _ZN3nux15GraphicsDisplay23DisableVSyncSwapControlEv@Base 4.0~bzr753
 _ZN3nux15GraphicsDisplay23double_click_time_delayE@Base 4.0~bzr753
 _ZN3nux15GraphicsDisplay24GetDndTargetWindowForPosEii@Base 4.0~bzr753
 _ZN3nux15GraphicsDisplay24HandleDndDragSourceEventE7_XEvent@Base 4.0~bzr753
 _ZN3nux15GraphicsDisplay24SetDndSourceTargetWindowEm@Base 4.0~bzr753
 _ZN3nux15GraphicsDisplay25HandleDndSelectionRequestE7_XEvent@Base 4.0~bzr753
 _ZN3nux15GraphicsDisplay28PauseThreadGraphicsRenderingEv@Base 4.0~bzr753
 _ZN3nux15GraphicsDisplay32SetFocusedWindowForXIMControllerEm@Base 4.0~bzr753
 _ZN3nux15GraphicsDisplay35RemoveFocusedWindowForXIMControllerEv@Base 4.0~bzr753
 _ZN3nux15GraphicsDisplay8XICFocusEv@Base 4.0~bzr753
 _ZN3nux15GraphicsDisplay9MouseMoveE7_XEventPNS_5EventE@Base 4.0~bzr753
 _ZN3nux15GraphicsDisplayC1Ev@Base 4.0~bzr753
 _ZN3nux15GraphicsDisplayC2Ev@Base 4.0~bzr753
 _ZN3nux15GraphicsDisplayD1Ev@Base 4.0~bzr753
 _ZN3nux15GraphicsDisplayD2Ev@Base 4.0~bzr753
 _ZN3nux15IOpenGLResource16StaticObjectTypeE@Base 4.0~bzr753
 _ZN3nux15IOpenGLResourceD0Ev@Base 4.0~bzr753
 _ZN3nux15IOpenGLResourceD1Ev@Base 4.0~bzr753
 _ZN3nux15IOpenGLResourceD2Ev@Base 4.0~bzr753
 _ZN3nux16AddVertexElementERSt6vectorINS_13VERTEXELEMENTESaIS1_EEttNS_17_ATTRIB_DECL_TYPEENS_17ATTRIB_USAGE_DECLEh@Base 4.0~bzr753
 _ZN3nux16AsmBlueFrgShaderE@Base 4.0~bzr753
 _ZN3nux16AttachmentBufferE@Base 4.0~bzr753
 _ZN3nux16CachedMeshBuffer14UpdateResourceEPNS_12ResourceDataE@Base 4.0~bzr753
 _ZN3nux16CachedMeshBuffer16StaticObjectTypeE@Base 4.0~bzr753
 _ZN3nux16CachedMeshBufferC1EPNS_12NResourceSetEPNS_10MeshBufferE@Base 4.0~bzr753
 _ZN3nux16CachedMeshBufferC2EPNS_12NResourceSetEPNS_10MeshBufferE@Base 4.0~bzr753
 _ZN3nux16CachedMeshBufferD0Ev@Base 4.0~bzr753
 _ZN3nux16CachedMeshBufferD1Ev@Base 4.0~bzr753
 _ZN3nux16CachedMeshBufferD2Ev@Base 4.0~bzr753
 _ZN3nux16GLSh_ColorPicker23SetScreenPositionOffsetEff@Base 4.0~bzr753
 _ZN3nux16GLSh_ColorPicker6RenderEiiiiiii@Base 4.0~bzr753
 _ZN3nux16GLSh_ColorPicker8SetColorEffff@Base 4.0~bzr753
 _ZN3nux16GLSh_ColorPickerC1ENS_5color7ChannelE@Base 4.0~bzr753
 _ZN3nux16GLSh_ColorPickerC2ENS_5color7ChannelE@Base 4.0~bzr753
 _ZN3nux16GLSh_ColorPickerD1Ev@Base 4.0~bzr753
 _ZN3nux16GLSh_ColorPickerD2Ev@Base 4.0~bzr753
 _ZN3nux16IOpenGLAsmShader13SetShaderCodeERKSs@Base 4.0~bzr753
 _ZN3nux16IOpenGLAsmShader16StaticObjectTypeE@Base 4.0~bzr753
 _ZN3nux16IOpenGLAsmShader7CompileEv@Base 4.0~bzr753
 _ZN3nux16IOpenGLAsmShader7IsValidEv@Base 4.0~bzr753
 _ZN3nux16IOpenGLAsmShaderC1ERKSsiNS_18OpenGLResourceTypeE@Base 4.0~bzr753
 _ZN3nux16IOpenGLAsmShaderC2ERKSsiNS_18OpenGLResourceTypeE@Base 4.0~bzr753
 _ZN3nux16IOpenGLAsmShaderD0Ev@Base 4.0~bzr753
 _ZN3nux16IOpenGLAsmShaderD1Ev@Base 4.0~bzr753
 _ZN3nux16IOpenGLAsmShaderD2Ev@Base 4.0~bzr753
 _ZN3nux16IOpenGLTexture2D10UnlockRectEi@Base 4.0~bzr753
 _ZN3nux16IOpenGLTexture2D14GetSurfaceDataEiRiS1_S1_@Base 4.0~bzr753
 _ZN3nux16IOpenGLTexture2D15GetSurfaceLevelEi@Base 4.0~bzr753
 _ZN3nux16IOpenGLTexture2D15GetSurfaceLevelEiRNS_9ObjectPtrINS_14IOpenGLSurfaceEEE@Base 4.0~bzr753
 _ZN3nux16IOpenGLTexture2D16StaticObjectTypeE@Base 4.0~bzr753
 _ZN3nux16IOpenGLTexture2D21EnableGammaCorrectionEb@Base 4.0~bzr753
 _ZN3nux16IOpenGLTexture2D8LockRectEiPNS_12_LOCKED_RECTEPKNS_13_SURFACE_RECTE@Base 4.0~bzr753
 _ZN3nux16IOpenGLTexture2DC1EjjjNS_12BitmapFormatEbPKci@Base 4.0~bzr753
 _ZN3nux16IOpenGLTexture2DC2EjjjNS_12BitmapFormatEbPKci@Base 4.0~bzr753
 _ZN3nux16IOpenGLTexture2DD0Ev@Base 4.0~bzr753
 _ZN3nux16IOpenGLTexture2DD1Ev@Base 4.0~bzr753
 _ZN3nux16IOpenGLTexture2DD2Ev@Base 4.0~bzr753
 _ZN3nux16LoadMeshFile_OBJEPKc@Base 4.0~bzr753
 _ZN3nux16NCriticalSectionD1Ev@Base 4.0~bzr753
 _ZN3nux16NCriticalSectionD2Ev@Base 4.0~bzr753
 _ZN3nux16NResourceFactory13BuildResourceEPNS_12NResourceSetEPNS_12ResourceDataE@Base 4.0~bzr753
 _ZN3nux16TexWrapGLMappingENS_7TexWrapE@Base 4.0~bzr753
 _ZN3nux16TextureRectangle16StaticObjectTypeE@Base 4.0~bzr753
 _ZN3nux16TextureRectangle6UpdateEPKNS_11NBitmapDataEb@Base 4.0~bzr753
 _ZN3nux16TextureRectangle6UpdateEPKcb@Base 4.0~bzr753
 _ZN3nux16TextureRectangle7GetDataEPviii@Base 4.0~bzr753
 _ZN3nux16TextureRectangleC1EPKci@Base 4.0~bzr753
 _ZN3nux16TextureRectangleC1ERKNS_12NTextureDataEPKci@Base 4.0~bzr753
 _ZN3nux16TextureRectangleC2EPKci@Base 4.0~bzr753
 _ZN3nux16TextureRectangleC2ERKNS_12NTextureDataEPKci@Base 4.0~bzr753
 _ZN3nux16TextureRectangleD0Ev@Base 4.0~bzr753
 _ZN3nux16TextureRectangleD1Ev@Base 4.0~bzr753
 _ZN3nux16TextureRectangleD2Ev@Base 4.0~bzr753
 _ZN3nux17AsmGreenFrgShaderE@Base 4.0~bzr753
 _ZN3nux17AsmValueFrgShaderE@Base 4.0~bzr753
 _ZN3nux17CachedBaseTexture14UpdateResourceEPNS_12ResourceDataE@Base 4.0~bzr753
 _ZN3nux17CachedBaseTexture15RecreateTextureEPNS_11BaseTextureE@Base 4.0~bzr753
 _ZN3nux17CachedBaseTexture16StaticObjectTypeE@Base 4.0~bzr753
 _ZN3nux17CachedBaseTextureC1EPNS_12NResourceSetE@Base 4.0~bzr753
 _ZN3nux17CachedBaseTextureC2EPNS_12NResourceSetE@Base 4.0~bzr753
 _ZN3nux17CachedBaseTextureD0Ev@Base 4.0~bzr753
 _ZN3nux17CachedBaseTextureD1Ev@Base 4.0~bzr753
 _ZN3nux17CachedBaseTextureD2Ev@Base 4.0~bzr753
 _ZN3nux17CachedIndexBuffer13LoadIndexDataEPNS_11IndexBufferE@Base 4.0~bzr753
 _ZN3nux17CachedIndexBuffer14UpdateResourceEPNS_12ResourceDataE@Base 4.0~bzr753
 _ZN3nux17CachedIndexBuffer16StaticObjectTypeE@Base 4.0~bzr753
 _ZN3nux17CachedIndexBufferC1EPNS_12NResourceSetEPNS_11IndexBufferE@Base 4.0~bzr753
 _ZN3nux17CachedIndexBufferC2EPNS_12NResourceSetEPNS_11IndexBufferE@Base 4.0~bzr753
 _ZN3nux17CachedIndexBufferD0Ev@Base 4.0~bzr753
 _ZN3nux17CachedIndexBufferD1Ev@Base 4.0~bzr753
 _ZN3nux17CachedIndexBufferD2Ev@Base 4.0~bzr753
 _ZN3nux17CachedTextureCube12LoadMipLevelEPNS_11BaseTextureEi@Base 4.0~bzr753
 _ZN3nux17CachedTextureCube13UpdateTextureEPNS_11BaseTextureE@Base 4.0~bzr753
 _ZN3nux17CachedTextureCube16StaticObjectTypeE@Base 4.0~bzr753
 _ZN3nux17CachedTextureCubeC1EPNS_12NResourceSetEPNS_11TextureCubeE@Base 4.0~bzr753
 _ZN3nux17CachedTextureCubeC2EPNS_12NResourceSetEPNS_11TextureCubeE@Base 4.0~bzr753
 _ZN3nux17CachedTextureCubeD0Ev@Base 4.0~bzr753
 _ZN3nux17CachedTextureCubeD1Ev@Base 4.0~bzr753
 _ZN3nux17CachedTextureCubeD2Ev@Base 4.0~bzr753
 _ZN3nux17GLSh_DrawFunction18SetBackgroundColorERKNS_5color5ColorE@Base 4.0~bzr753
 _ZN3nux17GLSh_DrawFunction18SetTextureFunctionENS_9ObjectPtrINS_18IOpenGLBaseTextureEEE@Base 4.0~bzr753
 _ZN3nux17GLSh_DrawFunction23SetScreenPositionOffsetEff@Base 4.0~bzr753
 _ZN3nux17GLSh_DrawFunction6RenderEiiiiiii@Base 4.0~bzr753
 _ZN3nux17GLSh_DrawFunctionC1Ev@Base 4.0~bzr753
 _ZN3nux17GLSh_DrawFunctionC2Ev@Base 4.0~bzr753
 _ZN3nux17GLSh_DrawFunctionD1Ev@Base 4.0~bzr753
 _ZN3nux17GLSh_DrawFunctionD2Ev@Base 4.0~bzr753
 _ZN3nux17GLShaderParameterC1EPNS_15GLProgramObjectEPKcNS_20eShaderParameterTypeEbb@Base 4.0~bzr753
 _ZN3nux17GLShaderParameterC2EPNS_15GLProgramObjectEPKcNS_20eShaderParameterTypeEbb@Base 4.0~bzr753
 _ZN3nux17GetGLElementCountENS_14PRIMITIVE_TYPEEj@Base 4.0~bzr753
 _ZN3nux17HasOpenEXRSupportEv@Base 4.0~bzr753
 _ZN3nux17RopBlendGLMappingENS_8RopBlendE@Base 4.0~bzr753
 _ZN3nux17VertexDeclaration16StaticObjectTypeE@Base 4.0~bzr753
 _ZN3nux17VertexDeclaration18AddVertexComponentENS_13VERTEXELEMENTE@Base 4.0~bzr753
 _ZN3nux17VertexDeclarationC1Ev@Base 4.0~bzr753
 _ZN3nux17VertexDeclarationC2Ev@Base 4.0~bzr753
 _ZN3nux17VertexDeclarationD0Ev@Base 4.0~bzr753
 _ZN3nux17VertexDeclarationD1Ev@Base 4.0~bzr753
 _ZN3nux17VertexDeclarationD2Ev@Base 4.0~bzr753
 _ZN3nux18CachedResourceData16StaticObjectTypeE@Base 4.0~bzr753
 _ZN3nux18CachedResourceDataC1EPNS_12NResourceSetE@Base 4.0~bzr753
 _ZN3nux18CachedResourceDataC2EPNS_12NResourceSetE@Base 4.0~bzr753
 _ZN3nux18CachedResourceDataD0Ev@Base 4.0~bzr753
 _ZN3nux18CachedResourceDataD1Ev@Base 4.0~bzr753
 _ZN3nux18CachedResourceDataD2Ev@Base 4.0~bzr753
 _ZN3nux18CachedVertexBuffer14LoadVertexDataEPNS_12VertexBufferE@Base 4.0~bzr753
 _ZN3nux18CachedVertexBuffer14UpdateResourceEPNS_12ResourceDataE@Base 4.0~bzr753
 _ZN3nux18CachedVertexBuffer16StaticObjectTypeE@Base 4.0~bzr753
 _ZN3nux18CachedVertexBufferC1EPNS_12NResourceSetEPNS_12VertexBufferE@Base 4.0~bzr753
 _ZN3nux18CachedVertexBufferC2EPNS_12NResourceSetEPNS_12VertexBufferE@Base 4.0~bzr753
 _ZN3nux18CachedVertexBufferD0Ev@Base 4.0~bzr753
 _ZN3nux18CachedVertexBufferD1Ev@Base 4.0~bzr753
 _ZN3nux18CachedVertexBufferD2Ev@Base 4.0~bzr753
 _ZN3nux18GetGraphicsDisplayEv@Base 4.0~bzr753
 _ZN3nux18IOpenGLBaseTexture10UnlockRectEi@Base 4.0~bzr753
 _ZN3nux18IOpenGLBaseTexture11BindTextureEv@Base 4.0~bzr753
 _ZN3nux18IOpenGLBaseTexture11SetMipLevelEjj@Base 4.0~bzr753
 _ZN3nux18IOpenGLBaseTexture12SetFilteringEjj@Base 4.0~bzr753
 _ZN3nux18IOpenGLBaseTexture14GetSurfaceDataEiRiS1_S1_@Base 4.0~bzr753
 _ZN3nux18IOpenGLBaseTexture14SetBorderColorEffff@Base 4.0~bzr753
 _ZN3nux18IOpenGLBaseTexture15GetSurfaceLevelEi@Base 4.0~bzr753
 _ZN3nux18IOpenGLBaseTexture15GetSurfaceLevelEiRNS_9ObjectPtrINS_14IOpenGLSurfaceEEE@Base 4.0~bzr753
 _ZN3nux18IOpenGLBaseTexture15SetRenderStatesEv@Base 4.0~bzr753
 _ZN3nux18IOpenGLBaseTexture16StaticObjectTypeE@Base 4.0~bzr753
 _ZN3nux18IOpenGLBaseTexture17BindTextureToUnitEi@Base 4.0~bzr753
 _ZN3nux18IOpenGLBaseTexture4SaveEPKc@Base 4.0.0
 _ZN3nux18IOpenGLBaseTexture6SetLODEff@Base 4.0~bzr753
 _ZN3nux18IOpenGLBaseTexture7SetWrapEjjj@Base 4.0~bzr753
 _ZN3nux18IOpenGLBaseTexture8LockRectEiPNS_12_LOCKED_RECTEPKNS_13_SURFACE_RECTE@Base 4.0~bzr753
 _ZN3nux18IOpenGLBaseTextureC1ENS_18OpenGLResourceTypeEjjjjNS_12BitmapFormatEPKci@Base 4.0~bzr753
 _ZN3nux18IOpenGLBaseTextureC2ENS_18OpenGLResourceTypeEjjjjNS_12BitmapFormatEPKci@Base 4.0~bzr753
 _ZN3nux18IOpenGLBaseTextureD0Ev@Base 4.0~bzr753
 _ZN3nux18IOpenGLBaseTextureD1Ev@Base 4.0~bzr753
 _ZN3nux18IOpenGLBaseTextureD2Ev@Base 4.0~bzr753
 _ZN3nux18IOpenGLCubeTexture10UnlockRectENS_14eCUBEMAP_FACESEi@Base 4.0~bzr753
 _ZN3nux18IOpenGLCubeTexture16StaticObjectTypeE@Base 4.0~bzr753
 _ZN3nux18IOpenGLCubeTexture17GetCubeMapSurfaceENS_14eCUBEMAP_FACESEiPPNS_14IOpenGLSurfaceE@Base 4.0~bzr753
 _ZN3nux18IOpenGLCubeTexture21EnableGammaCorrectionEb@Base 4.0~bzr753
 _ZN3nux18IOpenGLCubeTexture8LockRectENS_14eCUBEMAP_FACESEiPNS_12_LOCKED_RECTEPKNS_13_SURFACE_RECTE@Base 4.0~bzr753
 _ZN3nux18IOpenGLCubeTextureC1EjiNS_12BitmapFormatE@Base 4.0~bzr753
 _ZN3nux18IOpenGLCubeTextureC2EjiNS_12BitmapFormatE@Base 4.0~bzr753
 _ZN3nux18IOpenGLCubeTextureD0Ev@Base 4.0~bzr753
 _ZN3nux18IOpenGLCubeTextureD1Ev@Base 4.0~bzr753
 _ZN3nux18IOpenGLCubeTextureD2Ev@Base 4.0~bzr753
 _ZN3nux18IOpenGLIndexBuffer15BindIndexBufferEv@Base 4.0~bzr753
 _ZN3nux18IOpenGLIndexBuffer16StaticObjectTypeE@Base 4.0~bzr753
 _ZN3nux18IOpenGLIndexBuffer4LockEjjPPv@Base 4.0~bzr753
 _ZN3nux18IOpenGLIndexBuffer6UnlockEv@Base 4.0~bzr753
 _ZN3nux18IOpenGLIndexBuffer7GetSizeEv@Base 4.0~bzr753
 _ZN3nux18IOpenGLIndexBuffer9GetStrideEv@Base 4.0~bzr753
 _ZN3nux18IOpenGLIndexBufferC1EjNS_9VBO_USAGEENS_12INDEX_FORMATEPKci@Base 4.0~bzr753
 _ZN3nux18IOpenGLIndexBufferC2EjNS_9VBO_USAGEENS_12INDEX_FORMATEPKci@Base 4.0~bzr753
 _ZN3nux18IOpenGLIndexBufferD0Ev@Base 4.0~bzr753
 _ZN3nux18IOpenGLIndexBufferD1Ev@Base 4.0~bzr753
 _ZN3nux18IOpenGLIndexBufferD2Ev@Base 4.0~bzr753
 _ZN3nux18IOpenGLPixelShader13SetShaderCodeEPKcS2_@Base 4.0~bzr753
 _ZN3nux18IOpenGLPixelShader16StaticObjectTypeE@Base 4.0~bzr753
 _ZN3nux18IOpenGLPixelShader7CompileEv@Base 4.0~bzr753
 _ZN3nux18IOpenGLPixelShader7IsValidEv@Base 4.0~bzr753
 _ZN3nux18IOpenGLPixelShaderC1ESs@Base 4.0~bzr753
 _ZN3nux18IOpenGLPixelShaderC2ESs@Base 4.0~bzr753
 _ZN3nux18IOpenGLPixelShaderD0Ev@Base 4.0~bzr753
 _ZN3nux18IOpenGLPixelShaderD1Ev@Base 4.0~bzr753
 _ZN3nux18IOpenGLPixelShaderD2Ev@Base 4.0~bzr753
 _ZN3nux18TGLResourceFactoryINS_10MeshBufferENS_16CachedMeshBufferEE13BuildResourceEPNS_12NResourceSetEPNS_12ResourceDataE@Base 4.0~bzr753
 _ZN3nux18TGLResourceFactoryINS_10MeshBufferENS_16CachedMeshBufferEED0Ev@Base 4.0~bzr753
 _ZN3nux18TGLResourceFactoryINS_10MeshBufferENS_16CachedMeshBufferEED1Ev@Base 4.0~bzr753
 _ZN3nux18TGLResourceFactoryINS_10MeshBufferENS_16CachedMeshBufferEED2Ev@Base 4.0~bzr753
 _ZN3nux18TGLResourceFactoryINS_11IndexBufferENS_17CachedIndexBufferEE13BuildResourceEPNS_12NResourceSetEPNS_12ResourceDataE@Base 4.0~bzr753
 _ZN3nux18TGLResourceFactoryINS_11IndexBufferENS_17CachedIndexBufferEED0Ev@Base 4.0~bzr753
 _ZN3nux18TGLResourceFactoryINS_11IndexBufferENS_17CachedIndexBufferEED1Ev@Base 4.0~bzr753
 _ZN3nux18TGLResourceFactoryINS_11IndexBufferENS_17CachedIndexBufferEED2Ev@Base 4.0~bzr753
 _ZN3nux18TGLResourceFactoryINS_11TextureCubeENS_17CachedTextureCubeEE13BuildResourceEPNS_12NResourceSetEPNS_12ResourceDataE@Base 4.0~bzr753
 _ZN3nux18TGLResourceFactoryINS_11TextureCubeENS_17CachedTextureCubeEED0Ev@Base 4.0~bzr753
 _ZN3nux18TGLResourceFactoryINS_11TextureCubeENS_17CachedTextureCubeEED1Ev@Base 4.0~bzr753
 _ZN3nux18TGLResourceFactoryINS_11TextureCubeENS_17CachedTextureCubeEED2Ev@Base 4.0~bzr753
 _ZN3nux18TGLResourceFactoryINS_12VertexBufferENS_18CachedVertexBufferEE13BuildResourceEPNS_12NResourceSetEPNS_12ResourceDataE@Base 4.0~bzr753
 _ZN3nux18TGLResourceFactoryINS_12VertexBufferENS_18CachedVertexBufferEED0Ev@Base 4.0~bzr753
 _ZN3nux18TGLResourceFactoryINS_12VertexBufferENS_18CachedVertexBufferEED1Ev@Base 4.0~bzr753
 _ZN3nux18TGLResourceFactoryINS_12VertexBufferENS_18CachedVertexBufferEED2Ev@Base 4.0~bzr753
 _ZN3nux18TGLResourceFactoryINS_13TextureVolumeENS_19CachedTextureVolumeEE13BuildResourceEPNS_12NResourceSetEPNS_12ResourceDataE@Base 4.0~bzr753
 _ZN3nux18TGLResourceFactoryINS_13TextureVolumeENS_19CachedTextureVolumeEED0Ev@Base 4.0~bzr753
 _ZN3nux18TGLResourceFactoryINS_13TextureVolumeENS_19CachedTextureVolumeEED1Ev@Base 4.0~bzr753
 _ZN3nux18TGLResourceFactoryINS_13TextureVolumeENS_19CachedTextureVolumeEED2Ev@Base 4.0~bzr753
 _ZN3nux18TGLResourceFactoryINS_16TextureRectangleENS_22CachedTextureRectangleEE13BuildResourceEPNS_12NResourceSetEPNS_12ResourceDataE@Base 4.0~bzr753
 _ZN3nux18TGLResourceFactoryINS_16TextureRectangleENS_22CachedTextureRectangleEED0Ev@Base 4.0~bzr753
 _ZN3nux18TGLResourceFactoryINS_16TextureRectangleENS_22CachedTextureRectangleEED1Ev@Base 4.0~bzr753
 _ZN3nux18TGLResourceFactoryINS_16TextureRectangleENS_22CachedTextureRectangleEED2Ev@Base 4.0~bzr753
 _ZN3nux18TGLResourceFactoryINS_17VertexDeclarationENS_23CachedVertexDeclarationEE13BuildResourceEPNS_12NResourceSetEPNS_12ResourceDataE@Base 4.0~bzr753
 _ZN3nux18TGLResourceFactoryINS_17VertexDeclarationENS_23CachedVertexDeclarationEED0Ev@Base 4.0~bzr753
 _ZN3nux18TGLResourceFactoryINS_17VertexDeclarationENS_23CachedVertexDeclarationEED1Ev@Base 4.0~bzr753
 _ZN3nux18TGLResourceFactoryINS_17VertexDeclarationENS_23CachedVertexDeclarationEED2Ev@Base 4.0~bzr753
 _ZN3nux18TGLResourceFactoryINS_21TextureFrameAnimationENS_27CachedTextureFrameAnimationEE13BuildResourceEPNS_12NResourceSetEPNS_12ResourceDataE@Base 4.0~bzr753
 _ZN3nux18TGLResourceFactoryINS_21TextureFrameAnimationENS_27CachedTextureFrameAnimationEED0Ev@Base 4.0~bzr753
 _ZN3nux18TGLResourceFactoryINS_21TextureFrameAnimationENS_27CachedTextureFrameAnimationEED1Ev@Base 4.0~bzr753
 _ZN3nux18TGLResourceFactoryINS_21TextureFrameAnimationENS_27CachedTextureFrameAnimationEED2Ev@Base 4.0~bzr753
 _ZN3nux18TGLResourceFactoryINS_9Texture2DENS_15CachedTexture2DEE13BuildResourceEPNS_12NResourceSetEPNS_12ResourceDataE@Base 4.0~bzr753
 _ZN3nux18TGLResourceFactoryINS_9Texture2DENS_15CachedTexture2DEED0Ev@Base 4.0~bzr753
 _ZN3nux18TGLResourceFactoryINS_9Texture2DENS_15CachedTexture2DEED1Ev@Base 4.0~bzr753
 _ZN3nux18TGLResourceFactoryINS_9Texture2DENS_15CachedTexture2DEED2Ev@Base 4.0~bzr753
 _ZN3nux18TemplateQuadBuffer11FormatQuadsEv@Base 4.0~bzr753
 _ZN3nux18TemplateQuadBuffer11SetNumQuadsEi@Base 4.0~bzr753
 _ZN3nux18TemplateQuadBuffer13BindAttributeEij@Base 4.0~bzr753
 _ZN3nux18TemplateQuadBuffer15UnBindAttributeEi@Base 4.0~bzr753
 _ZN3nux18TemplateQuadBuffer18UnSetQuadAttributeEj@Base 4.0~bzr753
 _ZN3nux18TemplateQuadBuffer19SetPerQuadAttributeEjiPNS_4Vec4IfEE@Base 4.0~bzr753
 _ZN3nux18TemplateQuadBuffer21SetPerVertexAttributeEjiPNS_4Vec4IfEE@Base 4.0~bzr753
 _ZN3nux18TemplateQuadBuffer6RenderEi@Base 4.0~bzr753
 _ZN3nux18TemplateQuadBuffer6UnBindEv@Base 4.0~bzr753
 _ZN3nux18TemplateQuadBufferC1EPNS_9GpuDeviceENS_10ShaderTypeEi@Base 4.0~bzr753
 _ZN3nux18TemplateQuadBufferC2EPNS_9GpuDeviceENS_10ShaderTypeEi@Base 4.0~bzr753
 _ZN3nux18TemplateQuadBufferD1Ev@Base 4.0~bzr753
 _ZN3nux18TemplateQuadBufferD2Ev@Base 4.0~bzr753
 _ZN3nux18TexFilterGLMappingENS_9TexFilterE@Base 4.0~bzr753
 _ZN3nux19CachedTextureVolume12LoadMipLevelEPNS_11BaseTextureEi@Base 4.0~bzr753
 _ZN3nux19CachedTextureVolume13UpdateTextureEPNS_11BaseTextureE@Base 4.0~bzr753
 _ZN3nux19CachedTextureVolume16StaticObjectTypeE@Base 4.0~bzr753
 _ZN3nux19CachedTextureVolumeC1EPNS_12NResourceSetEPNS_13TextureVolumeE@Base 4.0~bzr753
 _ZN3nux19CachedTextureVolumeC2EPNS_12NResourceSetEPNS_13TextureVolumeE@Base 4.0~bzr753
 _ZN3nux19CachedTextureVolumeD0Ev@Base 4.0~bzr753
 _ZN3nux19CachedTextureVolumeD1Ev@Base 4.0~bzr753
 _ZN3nux19CachedTextureVolumeD2Ev@Base 4.0~bzr753
 _ZN3nux19GLFramebufferObject12_GuardedBindEv@Base 4.0~bzr753
 _ZN3nux19GLFramebufferObject13AttachTextureEjjjii@Base 4.0~bzr753
 _ZN3nux19GLFramebufferObject13GetAttachedIdEj@Base 4.0~bzr753
 _ZN3nux19GLFramebufferObject14AttachTexturesEiPjS1_S1_PiS2_@Base 4.0~bzr753
 _ZN3nux19GLFramebufferObject14_GenerateFboIdEv@Base 4.0~bzr753
 _ZN3nux19GLFramebufferObject14_GuardedUnbindEv@Base 4.0~bzr753
 _ZN3nux19GLFramebufferObject15GetAttachedTypeEj@Base 4.0~bzr753
 _ZN3nux19GLFramebufferObject17GetAttachedZSliceEj@Base 4.0~bzr753
 _ZN3nux19GLFramebufferObject18AttachRenderBufferEjj@Base 4.0~bzr753
 _ZN3nux19GLFramebufferObject19GetAttachedCubeFaceEj@Base 4.0~bzr753
 _ZN3nux19GLFramebufferObject19GetAttachedMipLevelEj@Base 4.0~bzr753
 _ZN3nux19GLFramebufferObject21_FramebufferTextureNDEjjjii@Base 4.0~bzr753
 _ZN3nux19GLFramebufferObject22GetMaxColorAttachmentsEv@Base 4.0~bzr753
 _ZN3nux19GLFramebufferObject4BindEv@Base 4.0~bzr753
 _ZN3nux19GLFramebufferObject7DisableEv@Base 4.0~bzr753
 _ZN3nux19GLFramebufferObject7IsValidEv@Base 4.0~bzr753
 _ZN3nux19GLFramebufferObject8UnattachEj@Base 4.0~bzr753
 _ZN3nux19GLFramebufferObjectC1Ev@Base 4.0~bzr753
 _ZN3nux19GLFramebufferObjectC2Ev@Base 4.0~bzr753
 _ZN3nux19GLFramebufferObjectD0Ev@Base 4.0~bzr753
 _ZN3nux19GLFramebufferObjectD1Ev@Base 4.0~bzr753
 _ZN3nux19GLFramebufferObjectD2Ev@Base 4.0~bzr753
 _ZN3nux19GetKeyModifierStateEmNS_11KeyModifierE@Base 4.0~bzr753
 _ZN3nux19GetModifierKeyStateEj@Base 4.0~bzr753
 _ZN3nux19HSV_To_RGBFrgShaderE@Base 4.0~bzr753
 _ZN3nux19IOpenGLVertexBuffer16BindVertexBufferEv@Base 4.0~bzr753
 _ZN3nux19IOpenGLVertexBuffer16StaticObjectTypeE@Base 4.0~bzr753
 _ZN3nux19IOpenGLVertexBuffer4LockEjjPPv@Base 4.0~bzr753
 _ZN3nux19IOpenGLVertexBuffer6UnlockEv@Base 4.0~bzr753
 _ZN3nux19IOpenGLVertexBuffer7GetSizeEv@Base 4.0~bzr753
 _ZN3nux19IOpenGLVertexBufferC1EjNS_9VBO_USAGEEPKci@Base 4.0~bzr753
 _ZN3nux19IOpenGLVertexBufferC2EjNS_9VBO_USAGEEPKci@Base 4.0~bzr753
 _ZN3nux19IOpenGLVertexBufferD0Ev@Base 4.0~bzr753
 _ZN3nux19IOpenGLVertexBufferD1Ev@Base 4.0~bzr753
 _ZN3nux19IOpenGLVertexBufferD2Ev@Base 4.0~bzr753
 _ZN3nux19IOpenGLVertexShader13SetShaderCodeEPKcS2_@Base 4.0~bzr753
 _ZN3nux19IOpenGLVertexShader16StaticObjectTypeE@Base 4.0~bzr753
 _ZN3nux19IOpenGLVertexShader7CompileEv@Base 4.0~bzr753
 _ZN3nux19IOpenGLVertexShader7IsValidEv@Base 4.0~bzr753
 _ZN3nux19IOpenGLVertexShaderC1ESs@Base 4.0~bzr753
 _ZN3nux19IOpenGLVertexShaderC2ESs@Base 4.0~bzr753
 _ZN3nux19IOpenGLVertexShaderD0Ev@Base 4.0~bzr753
 _ZN3nux19IOpenGLVertexShaderD1Ev@Base 4.0~bzr753
 _ZN3nux19IOpenGLVertexShaderD2Ev@Base 4.0~bzr753
 _ZN3nux19LoadTextureFromFileERKSs@Base 4.0~bzr753
 _ZN3nux19MakeCheckBoardImageERNS_12ImageSurfaceEiiRKNS_5color5ColorES5_ii@Base 4.0~bzr753
 _ZN3nux19SaturationFrgShaderE@Base 4.0~bzr753
 _ZN3nux19TexWrapMappingArrayE@Base 4.0~bzr753
 _ZN3nux20ExtractShaderString3ERKSsS1_RSsSs@Base 4.0~bzr753
 _ZN3nux20GetVertexElementSizeENS_13VERTEXELEMENTE@Base 4.0~bzr753
 _ZN3nux20IOpenGLShaderProgram10SetSamplerEPci@Base 4.0~bzr753
 _ZN3nux20IOpenGLShaderProgram11LoadIShaderEPKcS2_S2_@Base 4.0~bzr753
 _ZN3nux20IOpenGLShaderProgram12GetUniformfvEPcPf@Base 4.0~bzr753
 _ZN3nux20IOpenGLShaderProgram12GetUniformivEPcPi@Base 4.0~bzr753
 _ZN3nux20IOpenGLShaderProgram12SetUniform1fEPcf@Base 4.0~bzr753
 _ZN3nux20IOpenGLShaderProgram12SetUniform1fEif@Base 4.0~bzr753
 _ZN3nux20IOpenGLShaderProgram12SetUniform1iEPci@Base 4.0~bzr753
 _ZN3nux20IOpenGLShaderProgram12SetUniform1iEii@Base 4.0~bzr753
 _ZN3nux20IOpenGLShaderProgram12SetUniform2fEPcff@Base 4.0~bzr753
 _ZN3nux20IOpenGLShaderProgram12SetUniform2fEiff@Base 4.0~bzr753
 _ZN3nux20IOpenGLShaderProgram12SetUniform2iEPcii@Base 4.0~bzr753
 _ZN3nux20IOpenGLShaderProgram12SetUniform2iEiii@Base 4.0~bzr753
 _ZN3nux20IOpenGLShaderProgram12SetUniform3fEPcfff@Base 4.0~bzr753
 _ZN3nux20IOpenGLShaderProgram12SetUniform3fEifff@Base 4.0~bzr753
 _ZN3nux20IOpenGLShaderProgram12SetUniform3iEPciii@Base 4.0~bzr753
 _ZN3nux20IOpenGLShaderProgram12SetUniform3iEiiii@Base 4.0~bzr753
 _ZN3nux20IOpenGLShaderProgram12SetUniform4fEPcffff@Base 4.0~bzr753
 _ZN3nux20IOpenGLShaderProgram12SetUniform4fEiffff@Base 4.0~bzr753
 _ZN3nux20IOpenGLShaderProgram12SetUniform4iEPciiii@Base 4.0~bzr753
 _ZN3nux20IOpenGLShaderProgram12SetUniform4iEiiiii@Base 4.0~bzr753
 _ZN3nux20IOpenGLShaderProgram13SetUniform1fvEPciPf@Base 4.0~bzr753
 _ZN3nux20IOpenGLShaderProgram13SetUniform1fvEiiPf@Base 4.0~bzr753
 _ZN3nux20IOpenGLShaderProgram13SetUniform1ivEPciPi@Base 4.0~bzr753
 _ZN3nux20IOpenGLShaderProgram13SetUniform1ivEiiPi@Base 4.0~bzr753
 _ZN3nux20IOpenGLShaderProgram13SetUniform2fvEPciPf@Base 4.0~bzr753
 _ZN3nux20IOpenGLShaderProgram13SetUniform2fvEiiPf@Base 4.0~bzr753
 _ZN3nux20IOpenGLShaderProgram13SetUniform2ivEPciPi@Base 4.0~bzr753
 _ZN3nux20IOpenGLShaderProgram13SetUniform2ivEiiPi@Base 4.0~bzr753
 _ZN3nux20IOpenGLShaderProgram13SetUniform3fvEPciPf@Base 4.0~bzr753
 _ZN3nux20IOpenGLShaderProgram13SetUniform3fvEiiPf@Base 4.0~bzr753
 _ZN3nux20IOpenGLShaderProgram13SetUniform3ivEPciPi@Base 4.0~bzr753
 _ZN3nux20IOpenGLShaderProgram13SetUniform3ivEiiPi@Base 4.0~bzr753
 _ZN3nux20IOpenGLShaderProgram13SetUniform4fvEPciPf@Base 4.0~bzr753
 _ZN3nux20IOpenGLShaderProgram13SetUniform4fvEiiPf@Base 4.0~bzr753
 _ZN3nux20IOpenGLShaderProgram13SetUniform4ivEPciPi@Base 4.0~bzr753
 _ZN3nux20IOpenGLShaderProgram13SetUniform4ivEiiPi@Base 4.0~bzr753
 _ZN3nux20IOpenGLShaderProgram15AddShaderObjectENS_9ObjectPtrINS_13IOpenGLShaderEEE@Base 4.0~bzr753
 _ZN3nux20IOpenGLShaderProgram15LoadIShaderFileEPKcS2_S2_@Base 4.0~bzr753
 _ZN3nux20IOpenGLShaderProgram15LoadPixelShaderEPKcS2_@Base 4.0~bzr753
 _ZN3nux20IOpenGLShaderProgram16LoadVertexShaderEPKcS2_@Base 4.0~bzr753
 _ZN3nux20IOpenGLShaderProgram16StaticObjectTypeE@Base 4.0~bzr753
 _ZN3nux20IOpenGLShaderProgram17SetShaderTrackingEb@Base 4.0~bzr753
 _ZN3nux20IOpenGLShaderProgram18AddShaderParameterEPNS_17GLShaderParameterE@Base 4.0~bzr753
 _ZN3nux20IOpenGLShaderProgram18ClearShaderObjectsEv@Base 4.0~bzr753
 _ZN3nux20IOpenGLShaderProgram18RemoveShaderObjectENS_9ObjectPtrINS_13IOpenGLShaderEEE@Base 4.0~bzr753
 _ZN3nux20IOpenGLShaderProgram19GetActiveUniformARBEjiPiS1_PjPc@Base 4.0~bzr753
 _ZN3nux20IOpenGLShaderProgram19SetUniformMatrix2fvEPcihPf@Base 4.0~bzr753
 _ZN3nux20IOpenGLShaderProgram19SetUniformMatrix3fvEPcihPf@Base 4.0~bzr753
 _ZN3nux20IOpenGLShaderProgram19SetUniformMatrix4fvEPcihPf@Base 4.0~bzr753
 _ZN3nux20IOpenGLShaderProgram20CheckUniformLocationEv@Base 4.0~bzr753
 _ZN3nux20IOpenGLShaderProgram20GetAttributeLocationEPKc@Base 4.0~bzr753
 _ZN3nux20IOpenGLShaderProgram21GetUniformLocationARBEPKc@Base 4.0~bzr753
 _ZN3nux20IOpenGLShaderProgram22CheckAttributeLocationEv@Base 4.0~bzr753
 _ZN3nux20IOpenGLShaderProgram22SetUniformLocMatrix2fvEiihPf@Base 4.0~bzr753
 _ZN3nux20IOpenGLShaderProgram22SetUniformLocMatrix3fvEiihPf@Base 4.0~bzr753
 _ZN3nux20IOpenGLShaderProgram22SetUniformLocMatrix4fvEiihPf@Base 4.0~bzr753
 _ZN3nux20IOpenGLShaderProgram23GetObjectParameterfvARBEjPf@Base 4.0~bzr753
 _ZN3nux20IOpenGLShaderProgram3EndEv@Base 4.0~bzr753
 _ZN3nux20IOpenGLShaderProgram4LinkEv@Base 4.0~bzr753
 _ZN3nux20IOpenGLShaderProgram5BeginEv@Base 4.0~bzr753
 _ZN3nux20IOpenGLShaderProgramC1ESs@Base 4.0~bzr753
 _ZN3nux20IOpenGLShaderProgramC2ESs@Base 4.0~bzr753
 _ZN3nux20IOpenGLShaderProgramD0Ev@Base 4.0~bzr753
 _ZN3nux20IOpenGLShaderProgramD1Ev@Base 4.0~bzr753
 _ZN3nux20IOpenGLShaderProgramD2Ev@Base 4.0~bzr753
 _ZN3nux20IOpenGLVolumeTexture10UnlockRectEii@Base 4.0~bzr753
 _ZN3nux20IOpenGLVolumeTexture16StaticObjectTypeE@Base 4.0~bzr753
 _ZN3nux20IOpenGLVolumeTexture7LockBoxEiPNS_18_VOLUME_LOCKED_BOXEPKNS_11_VOLUME_BOXE@Base 4.0~bzr753
 _ZN3nux20IOpenGLVolumeTexture8LockRectEiiPNS_12_LOCKED_RECTEPKNS_13_SURFACE_RECTE@Base 4.0~bzr753
 _ZN3nux20IOpenGLVolumeTexture9UnlockBoxEi@Base 4.0~bzr753
 _ZN3nux20IOpenGLVolumeTextureC1EiiiiNS_12BitmapFormatE@Base 4.0~bzr753
 _ZN3nux20IOpenGLVolumeTextureC2EiiiiNS_12BitmapFormatE@Base 4.0~bzr753
 _ZN3nux20IOpenGLVolumeTextureD0Ev@Base 4.0~bzr753
 _ZN3nux20IOpenGLVolumeTextureD1Ev@Base 4.0~bzr753
 _ZN3nux20IOpenGLVolumeTextureD2Ev@Base 4.0~bzr753
 _ZN3nux20NAnimatedTextureData10GetSurfaceEi@Base 4.0~bzr753
 _ZN3nux20NAnimatedTextureData10GetSurfaceEii@Base 4.0~bzr753
 _ZN3nux20NAnimatedTextureData10SetSurfaceEiiRKNS_12ImageSurfaceE@Base 4.0~bzr753
 _ZN3nux20NAnimatedTextureData20AllocateColorTextureEiiiiNS_5color5ColorE@Base 4.0~bzr753
 _ZN3nux20NAnimatedTextureData25AllocateCheckBoardTextureEiiiiNS_5color5ColorES2_ii@Base 4.0~bzr753
 _ZN3nux20NAnimatedTextureData8AllocateENS_12BitmapFormatEiiii@Base 4.0~bzr753
 _ZN3nux20NAnimatedTextureData9ClearDataEv@Base 4.0~bzr753
 _ZN3nux20NAnimatedTextureDataC1ENS_12BitmapFormatEiii@Base 4.0~bzr753
 _ZN3nux20NAnimatedTextureDataC1ERKS0_@Base 4.0~bzr753
 _ZN3nux20NAnimatedTextureDataC2ENS_12BitmapFormatEiii@Base 4.0~bzr753
 _ZN3nux20NAnimatedTextureDataC2ERKS0_@Base 4.0~bzr753
 _ZN3nux20NAnimatedTextureDataD0Ev@Base 4.0~bzr753
 _ZN3nux20NAnimatedTextureDataD1Ev@Base 4.0~bzr753
 _ZN3nux20NAnimatedTextureDataD2Ev@Base 4.0~bzr753
 _ZN3nux20NAnimatedTextureDataaSERKS0_@Base 4.0~bzr753
 _ZN3nux20NuxGraphicsResources10DestructorEv@Base 4.0~bzr753
 _ZN3nux20NuxGraphicsResources11ConstructorEv@Base 4.0~bzr753
 _ZN3nux20NuxGraphicsResources16FindFontLocationEPKcb@Base 4.0~bzr753
 _ZN3nux20NuxGraphicsResources18FindShaderLocationEPKcb@Base 4.0~bzr753
 _ZN3nux20NuxGraphicsResources19InitializeResourcesEv@Base 4.0~bzr753
 _ZN3nux20NuxGraphicsResources20FindResourceLocationEPKcb@Base 4.0~bzr753
 _ZN3nux20NuxGraphicsResources21FindUITextureLocationEPKcb@Base 4.0~bzr753
 _ZN3nux20NuxGraphicsResources9pInstanceE@Base 4.0~bzr753
 _ZN3nux20NuxGraphicsResourcesD0Ev@Base 4.0~bzr753
 _ZN3nux20NuxGraphicsResourcesD1Ev@Base 4.0~bzr753
 _ZN3nux20NuxGraphicsResourcesD2Ev@Base 4.0~bzr753
 _ZN3nux20RopBlendMappingArrayE@Base 4.0~bzr753
 _ZN3nux21CreateTextureFromFileEPKc@Base 4.0~bzr753
 _ZN3nux21GReadBackPixelFormatsE@Base 4.0~bzr753
 _ZN3nux21IOpenGLAsmPixelShader16StaticObjectTypeE@Base 4.0~bzr753
 _ZN3nux21IOpenGLAsmPixelShaderC1Ev@Base 4.0~bzr753
 _ZN3nux21IOpenGLAsmPixelShaderC2Ev@Base 4.0~bzr753
 _ZN3nux21IOpenGLAsmPixelShaderD0Ev@Base 4.0~bzr753
 _ZN3nux21IOpenGLAsmPixelShaderD1Ev@Base 4.0~bzr753
 _ZN3nux21IOpenGLAsmPixelShaderD2Ev@Base 4.0~bzr753
 _ZN3nux21NuxGraphicsInitializeEv@Base 4.0~bzr753
 _ZN3nux21TexFilterMappingArrayE@Base 4.0~bzr753
 _ZN3nux21TextureFrameAnimation12GetFrameTimeEi@Base 4.0~bzr753
 _ZN3nux21TextureFrameAnimation16StaticObjectTypeE@Base 4.0~bzr753
 _ZN3nux21TextureFrameAnimation6UpdateEPKNS_11NBitmapDataEb@Base 4.0~bzr753
 _ZN3nux21TextureFrameAnimation6UpdateEPKcb@Base 4.0~bzr753
 _ZN3nux21TextureFrameAnimation7GetDataEPviii@Base 4.0~bzr753
 _ZN3nux21TextureFrameAnimationC1EPKci@Base 4.0~bzr753
 _ZN3nux21TextureFrameAnimationC1ERKNS_20NAnimatedTextureDataE@Base 4.0~bzr753
 _ZN3nux21TextureFrameAnimationC2EPKci@Base 4.0~bzr753
 _ZN3nux21TextureFrameAnimationC2ERKNS_20NAnimatedTextureDataE@Base 4.0~bzr753
 _ZN3nux21TextureFrameAnimationD0Ev@Base 4.0~bzr753
 _ZN3nux21TextureFrameAnimationD1Ev@Base 4.0~bzr753
 _ZN3nux21TextureFrameAnimationD2Ev@Base 4.0~bzr753
 _ZN3nux22AsmSaturationFrgShaderE@Base 4.0~bzr753
 _ZN3nux22CachedTextureRectangle12LoadMipLevelEPNS_11BaseTextureEi@Base 4.0~bzr753
 _ZN3nux22CachedTextureRectangle13UpdateTextureEPNS_11BaseTextureE@Base 4.0~bzr753
 _ZN3nux22CachedTextureRectangle16StaticObjectTypeE@Base 4.0~bzr753
 _ZN3nux22CachedTextureRectangleC1EPNS_12NResourceSetEPNS_16TextureRectangleE@Base 4.0~bzr753
 _ZN3nux22CachedTextureRectangleC2EPNS_12NResourceSetEPNS_16TextureRectangleE@Base 4.0~bzr753
 _ZN3nux22CachedTextureRectangleD0Ev@Base 4.0~bzr753
 _ZN3nux22CachedTextureRectangleD1Ev@Base 4.0~bzr753
 _ZN3nux22CachedTextureRectangleD2Ev@Base 4.0~bzr753
 _ZN3nux22IOpenGLAnimatedTexture10UnlockRectEi@Base 4.0~bzr753
 _ZN3nux22IOpenGLAnimatedTexture11GetNumFrameEv@Base 4.0~bzr753
 _ZN3nux22IOpenGLAnimatedTexture12GetFrameTimeEv@Base 4.0~bzr753
 _ZN3nux22IOpenGLAnimatedTexture12SetFrameTimeEii@Base 4.0~bzr753
 _ZN3nux22IOpenGLAnimatedTexture15GetSurfaceFrameEi@Base 4.0~bzr753
 _ZN3nux22IOpenGLAnimatedTexture15GetSurfaceFrameEiRNS_9ObjectPtrINS_14IOpenGLSurfaceEEE@Base 4.0~bzr753
 _ZN3nux22IOpenGLAnimatedTexture16PresentLastFrameEv@Base 4.0~bzr753
 _ZN3nux22IOpenGLAnimatedTexture16PresentNextFrameEv@Base 4.0~bzr753
 _ZN3nux22IOpenGLAnimatedTexture16StaticObjectTypeE@Base 4.0~bzr753
 _ZN3nux22IOpenGLAnimatedTexture17PresentFirstFrameEv@Base 4.0~bzr753
 _ZN3nux22IOpenGLAnimatedTexture8LockRectEiPNS_12_LOCKED_RECTEPKNS_13_SURFACE_RECTE@Base 4.0~bzr753
 _ZN3nux22IOpenGLAnimatedTextureC1EiiiNS_12BitmapFormatE@Base 4.0~bzr753
 _ZN3nux22IOpenGLAnimatedTextureC2EiiiNS_12BitmapFormatE@Base 4.0~bzr753
 _ZN3nux22IOpenGLAnimatedTextureD0Ev@Base 4.0~bzr753
 _ZN3nux22IOpenGLAnimatedTextureD1Ev@Base 4.0~bzr753
 _ZN3nux22IOpenGLAnimatedTextureD2Ev@Base 4.0~bzr753
 _ZN3nux22IOpenGLAsmVertexShader16StaticObjectTypeE@Base 4.0~bzr753
 _ZN3nux22IOpenGLAsmVertexShaderC1Ev@Base 4.0~bzr753
 _ZN3nux22IOpenGLAsmVertexShaderC2Ev@Base 4.0~bzr753
 _ZN3nux22IOpenGLAsmVertexShaderD0Ev@Base 4.0~bzr753
 _ZN3nux22IOpenGLAsmVertexShaderD1Ev@Base 4.0~bzr753
 _ZN3nux22IOpenGLAsmVertexShaderD2Ev@Base 4.0~bzr753
 _ZN3nux22OGLDeviceErrorMessagesE@Base 4.0~bzr753
 _ZN3nux23CachedVertexDeclaration14UpdateResourceEPNS_12ResourceDataE@Base 4.0~bzr753
 _ZN3nux23CachedVertexDeclaration16StaticObjectTypeE@Base 4.0~bzr753
 _ZN3nux23CachedVertexDeclarationC1EPNS_12NResourceSetEPNS_17VertexDeclarationE@Base 4.0~bzr753
 _ZN3nux23CachedVertexDeclarationC2EPNS_12NResourceSetEPNS_17VertexDeclarationE@Base 4.0~bzr753
 _ZN3nux23CachedVertexDeclarationD0Ev@Base 4.0~bzr753
 _ZN3nux23CachedVertexDeclarationD1Ev@Base 4.0~bzr753
 _ZN3nux23CachedVertexDeclarationD2Ev@Base 4.0~bzr753
 _ZN3nux23CreateTexture2DFromFileEPKcib@Base 4.0~bzr753
 _ZN3nux23CreateTextureFromPixbufEP10_GdkPixbuf@Base 4.0~bzr753
 _ZN3nux23DisplayAccessController11m_pInstanceE@Base 4.0~bzr753
 _ZN3nux23DisplayAccessController14CreateGLWindowEPKcjjNS_11WindowStyleEPNS_15GraphicsDisplayEbb@Base 4.0~bzr753
 _ZN3nux23DisplayAccessController23CreateFromForeignWindowEP9_XDisplaymP15__GLXcontextRec@Base 4.0~bzr753
 _ZN3nux23DisplayAccessController8InstanceEv@Base 4.0~bzr753
 _ZN3nux23DisplayAccessControllerC1Ev@Base 4.0~bzr753
 _ZN3nux23DisplayAccessControllerC2Ev@Base 4.0~bzr753
 _ZN3nux23DisplayAccessControllerD1Ev@Base 4.0~bzr753
 _ZN3nux23DisplayAccessControllerD2Ev@Base 4.0~bzr753
 _ZN3nux23IOpenGLAsmShaderProgram11LoadIShaderEPKc@Base 4.0~bzr753
 _ZN3nux23IOpenGLAsmShaderProgram15LoadIShaderFileEPKc@Base 4.0~bzr753
 _ZN3nux23IOpenGLAsmShaderProgram15LoadPixelShaderEPKc@Base 4.0~bzr753
 _ZN3nux23IOpenGLAsmShaderProgram16LoadVertexShaderEPKc@Base 4.0~bzr753
 _ZN3nux23IOpenGLAsmShaderProgram16StaticObjectTypeE@Base 4.0~bzr753
 _ZN3nux23IOpenGLAsmShaderProgram26SetVertexEnvParameter4dARBEjdddd@Base 4.0~bzr753
 _ZN3nux23IOpenGLAsmShaderProgram26SetVertexEnvParameter4fARBEjffff@Base 4.0~bzr753
 _ZN3nux23IOpenGLAsmShaderProgram27SetVertexEnvParameter4dvARBEjPKd@Base 4.0~bzr753
 _ZN3nux23IOpenGLAsmShaderProgram27SetVertexEnvParameter4fvARBEjPKf@Base 4.0~bzr753
 _ZN3nux23IOpenGLAsmShaderProgram28SetFragmentEnvParameter4dARBEjdddd@Base 4.0~bzr753
 _ZN3nux23IOpenGLAsmShaderProgram28SetFragmentEnvParameter4fARBEjffff@Base 4.0~bzr753
 _ZN3nux23IOpenGLAsmShaderProgram28SetVertexLocalParameter4dARBEjdddd@Base 4.0~bzr753
 _ZN3nux23IOpenGLAsmShaderProgram28SetVertexLocalParameter4fARBEjffff@Base 4.0~bzr753
 _ZN3nux23IOpenGLAsmShaderProgram29SetFragmentEnvParameter4dvARBEjPKd@Base 4.0~bzr753
 _ZN3nux23IOpenGLAsmShaderProgram29SetFragmentEnvParameter4fvARBEjPKf@Base 4.0~bzr753
 _ZN3nux23IOpenGLAsmShaderProgram29SetVertexLocalParameter4dvARBEjPKd@Base 4.0~bzr753
 _ZN3nux23IOpenGLAsmShaderProgram29SetVertexLocalParameter4fvARBEjPKf@Base 4.0~bzr753
 _ZN3nux23IOpenGLAsmShaderProgram30SetFragmentLocalParameter4dARBEjdddd@Base 4.0~bzr753
 _ZN3nux23IOpenGLAsmShaderProgram30SetFragmentLocalParameter4fARBEjffff@Base 4.0~bzr753
 _ZN3nux23IOpenGLAsmShaderProgram31SetFragmentLocalParameter4dvARBEjPKd@Base 4.0~bzr753
 _ZN3nux23IOpenGLAsmShaderProgram31SetFragmentLocalParameter4fvARBEjPKf@Base 4.0~bzr753
 _ZN3nux23IOpenGLAsmShaderProgram3EndEv@Base 4.0~bzr753
 _ZN3nux23IOpenGLAsmShaderProgram4LinkEv@Base 4.0~bzr753
 _ZN3nux23IOpenGLAsmShaderProgram5BeginEv@Base 4.0~bzr753
 _ZN3nux23IOpenGLAsmShaderProgram7IsValidEv@Base 4.0~bzr753
 _ZN3nux23IOpenGLAsmShaderProgramC1ESs@Base 4.0~bzr753
 _ZN3nux23IOpenGLAsmShaderProgramC2ESs@Base 4.0~bzr753
 _ZN3nux23IOpenGLAsmShaderProgramD0Ev@Base 4.0~bzr753
 _ZN3nux23IOpenGLAsmShaderProgramD1Ev@Base 4.0~bzr753
 _ZN3nux23IOpenGLAsmShaderProgramD2Ev@Base 4.0~bzr753
 _ZN3nux23IOpenGLRectangleTexture10UnlockRectEi@Base 4.0~bzr753
 _ZN3nux23IOpenGLRectangleTexture14GetSurfaceDataEiRiS1_S1_@Base 4.0~bzr753
 _ZN3nux23IOpenGLRectangleTexture15GetSurfaceLevelEi@Base 4.0~bzr753
 _ZN3nux23IOpenGLRectangleTexture15GetSurfaceLevelEiRNS_9ObjectPtrINS_14IOpenGLSurfaceEEE@Base 4.0~bzr753
 _ZN3nux23IOpenGLRectangleTexture16StaticObjectTypeE@Base 4.0~bzr753
 _ZN3nux23IOpenGLRectangleTexture21EnableGammaCorrectionEb@Base 4.0~bzr753
 _ZN3nux23IOpenGLRectangleTexture8LockRectEiPNS_12_LOCKED_RECTEPKNS_13_SURFACE_RECTE@Base 4.0~bzr753
 _ZN3nux23IOpenGLRectangleTextureC1EjjjNS_12BitmapFormatEbPKci@Base 4.0~bzr753
 _ZN3nux23IOpenGLRectangleTextureC2EjjjNS_12BitmapFormatEbPKci@Base 4.0~bzr753
 _ZN3nux23IOpenGLRectangleTextureD0Ev@Base 4.0~bzr753
 _ZN3nux23IOpenGLRectangleTextureD1Ev@Base 4.0~bzr753
 _ZN3nux23IOpenGLRectangleTextureD2Ev@Base 4.0~bzr753
 _ZN3nux24IOpenGLFrameBufferObject10DeactivateEv@Base 4.0~bzr753
 _ZN3nux24IOpenGLFrameBufferObject15GetRenderTargetEi@Base 4.0~bzr753
 _ZN3nux24IOpenGLFrameBufferObject15SetDepthSurfaceENS_9ObjectPtrINS_14IOpenGLSurfaceEEE@Base 4.0~bzr753
 _ZN3nux24IOpenGLFrameBufferObject15SetRenderTargetEiNS_9ObjectPtrINS_14IOpenGLSurfaceEEE@Base 4.0~bzr753
 _ZN3nux24IOpenGLFrameBufferObject16StaticObjectTypeE@Base 4.0~bzr753
 _ZN3nux24IOpenGLFrameBufferObject17GetClippingRegionEv@Base 4.0~bzr753
 _ZN3nux24IOpenGLFrameBufferObject17PopClippingRegionEv@Base 4.0~bzr753
 _ZN3nux24IOpenGLFrameBufferObject17TextureAttachmentEi@Base 4.0~bzr753
 _ZN3nux24IOpenGLFrameBufferObject18PushClippingRegionENS_4RectE@Base 4.0~bzr753
 _ZN3nux24IOpenGLFrameBufferObject19ApplyClippingRegionEv@Base 4.0~bzr753
 _ZN3nux24IOpenGLFrameBufferObject19EmptyClippingRegionEv@Base 4.0~bzr753
 _ZN3nux24IOpenGLFrameBufferObject20GetDepthRenderTargetEv@Base 4.0~bzr753
 _ZN3nux24IOpenGLFrameBufferObject20SetClippingRectangleERKNS_4RectE@Base 4.0~bzr753
 _ZN3nux24IOpenGLFrameBufferObject20SetTextureAttachmentEiNS_9ObjectPtrINS_18IOpenGLBaseTextureEEEi@Base 4.0~bzr753
 _ZN3nux24IOpenGLFrameBufferObject22DepthTextureAttachmentEv@Base 4.0~bzr753
 _ZN3nux24IOpenGLFrameBufferObject22SetupFrameBufferObjectEv@Base 4.0.0
 _ZN3nux24IOpenGLFrameBufferObject23FormatFrameBufferObjectEiiNS_12BitmapFormatE@Base 4.0~bzr753
 _ZN3nux24IOpenGLFrameBufferObject25SetDepthTextureAttachmentENS_9ObjectPtrINS_18IOpenGLBaseTextureEEEi@Base 4.0~bzr753
 _ZN3nux24IOpenGLFrameBufferObject26SetOpenGLClippingRectangleEiiii@Base 4.0~bzr753
 _ZN3nux24IOpenGLFrameBufferObject8ActivateEb@Base 4.0~bzr753
 _ZN3nux24IOpenGLFrameBufferObjectC1EPKci@Base 4.0~bzr753
 _ZN3nux24IOpenGLFrameBufferObjectC2EPKci@Base 4.0~bzr753
 _ZN3nux24IOpenGLFrameBufferObjectD0Ev@Base 4.0~bzr753
 _ZN3nux24IOpenGLFrameBufferObjectD1Ev@Base 4.0~bzr753
 _ZN3nux24IOpenGLFrameBufferObjectD2Ev@Base 4.0~bzr753
 _ZN3nux24IOpenGLPixelBufferObject16StaticObjectTypeE@Base 4.0~bzr753
 _ZN3nux24IOpenGLPixelBufferObject25BindPackPixelBufferObjectEv@Base 4.0~bzr753
 _ZN3nux24IOpenGLPixelBufferObject27BindUnpackPixelBufferObjectEv@Base 4.0~bzr753
 _ZN3nux24IOpenGLPixelBufferObject4LockEjjPPv@Base 4.0~bzr753
 _ZN3nux24IOpenGLPixelBufferObject6UnlockEv@Base 4.0~bzr753
 _ZN3nux24IOpenGLPixelBufferObject7GetSizeEv@Base 4.0~bzr753
 _ZN3nux24IOpenGLPixelBufferObjectC1EjNS_9VBO_USAGEEPKci@Base 4.0~bzr753
 _ZN3nux24IOpenGLPixelBufferObjectC2EjNS_9VBO_USAGEEPKci@Base 4.0~bzr753
 _ZN3nux24IOpenGLPixelBufferObjectD0Ev@Base 4.0~bzr753
 _ZN3nux24IOpenGLPixelBufferObjectD1Ev@Base 4.0~bzr753
 _ZN3nux24IOpenGLPixelBufferObjectD2Ev@Base 4.0~bzr753
 _ZN3nux24IOpenGLVertexDeclaration15GetVertexBufferEi@Base 4.0~bzr753
 _ZN3nux24IOpenGLVertexDeclaration15SetVertexBufferEiNS_9ObjectPtrINS_19IOpenGLVertexBufferEEE@Base 4.0~bzr753
 _ZN3nux24IOpenGLVertexDeclaration16StaticObjectTypeE@Base 4.0~bzr753
 _ZN3nux24IOpenGLVertexDeclaration25IsUsingMoreThanStreamZeroEv@Base 4.0~bzr753
 _ZN3nux24IOpenGLVertexDeclaration32GetVertexShaderAttributeLocationEi@Base 4.0~bzr753
 _ZN3nux24IOpenGLVertexDeclaration32SetVertexShaderAttributeLocationEii@Base 4.0~bzr753
 _ZN3nux24IOpenGLVertexDeclaration8GetUsageENS_17ATTRIB_USAGE_DECLE@Base 4.0~bzr753
 _ZN3nux24IOpenGLVertexDeclaration9GetStrideEi@Base 4.0~bzr753
 _ZN3nux24IOpenGLVertexDeclarationC1EPKNS_13VERTEXELEMENTE@Base 4.0~bzr753
 _ZN3nux24IOpenGLVertexDeclarationC2EPKNS_13VERTEXELEMENTE@Base 4.0~bzr753
 _ZN3nux24IOpenGLVertexDeclarationD0Ev@Base 4.0~bzr753
 _ZN3nux24IOpenGLVertexDeclarationD1Ev@Base 4.0~bzr753
 _ZN3nux24IOpenGLVertexDeclarationD2Ev@Base 4.0~bzr753
 _ZN3nux25CreateTexture2DFromPixbufEP10_GdkPixbufb@Base 4.0~bzr753
 _ZN3nux25DecomposeTypeDeclaractionENS_17_ATTRIB_DECL_TYPEERiRNS_22_ATTRIB_COMPONENT_TYPEE@Base 4.0~bzr753
 _ZN3nux25QRP_Compute_Texture_CoordEiiNS_9ObjectPtrINS_18IOpenGLBaseTextureEEERNS_13TexCoordXFormE@Base 4.0~bzr753
 _ZN3nux25ShaderAttributeDefinitionD1Ev@Base 4.0~bzr753
 _ZN3nux25ShaderAttributeDefinitionD2Ev@Base 4.0~bzr753
 _ZN3nux27CachedTextureFrameAnimation12LoadMipLevelEPNS_11BaseTextureEi@Base 4.0~bzr753
 _ZN3nux27CachedTextureFrameAnimation13UpdateTextureEPNS_11BaseTextureE@Base 4.0~bzr753
 _ZN3nux27CachedTextureFrameAnimation16StaticObjectTypeE@Base 4.0~bzr753
 _ZN3nux27CachedTextureFrameAnimationC1EPNS_12NResourceSetEPNS_21TextureFrameAnimationE@Base 4.0~bzr753
 _ZN3nux27CachedTextureFrameAnimationC2EPNS_12NResourceSetEPNS_21TextureFrameAnimationE@Base 4.0~bzr753
 _ZN3nux27CachedTextureFrameAnimationD0Ev@Base 4.0~bzr753
 _ZN3nux27CachedTextureFrameAnimationD1Ev@Base 4.0~bzr753
 _ZN3nux27CachedTextureFrameAnimationD2Ev@Base 4.0~bzr753
 _ZN3nux27CreateTextureFromBitmapDataEPKNS_11NBitmapDataE@Base 4.0~bzr753
 _ZN3nux28NuxGraphicsGlobalInitializer7m_CountE@Base 4.0~bzr753
 _ZN3nux28NuxGraphicsGlobalInitializerC1Ev@Base 4.0~bzr753
 _ZN3nux28NuxGraphicsGlobalInitializerC2Ev@Base 4.0~bzr753
 _ZN3nux28NuxGraphicsGlobalInitializerD1Ev@Base 4.0~bzr753
 _ZN3nux28NuxGraphicsGlobalInitializerD2Ev@Base 4.0~bzr753
 _ZN3nux37NuxGraphicsGlobalSingletonInitializer31m_NuxGraphicsGlobalObjectsReadyE@Base 4.0~bzr753
 _ZN3nux37NuxGraphicsGlobalSingletonInitializer5ReadyEv@Base 4.0~bzr753
 _ZN3nux37NuxGraphicsGlobalSingletonInitializerC1Ev@Base 4.0~bzr753
 _ZN3nux37NuxGraphicsGlobalSingletonInitializerC2Ev@Base 4.0~bzr753
 _ZN3nux37NuxGraphicsGlobalSingletonInitializerD1Ev@Base 4.0~bzr753
 _ZN3nux37NuxGraphicsGlobalSingletonInitializerD2Ev@Base 4.0~bzr753
 _ZN3nux4swapERNS_12ImageSurfaceES1_@Base 4.0.0
 _ZN3nux5Event5ResetEv@Base 4.0~bzr753
 _ZN3nux5EventC1Ev@Base 4.0~bzr753
 _ZN3nux5EventC2Ev@Base 4.0~bzr753
 _ZN3nux7GLTimer18PassedMillisecondsEv@Base 4.0~bzr753
 _ZN3nux7GLTimer5ResetEv@Base 4.0~bzr753
 _ZN3nux7GLTimerC1Ev@Base 4.0~bzr753
 _ZN3nux7GLTimerC2Ev@Base 4.0~bzr753
 _ZN3nux7GLTimerD1Ev@Base 4.0~bzr753
 _ZN3nux7GLTimerD2Ev@Base 4.0~bzr753
 _ZN3nux7GpuInfo5SetupEv@Base 4.0~bzr753
 _ZN3nux7GpuInfoC1Ev@Base 4.0~bzr753
 _ZN3nux7GpuInfoC2Ev@Base 4.0~bzr753
 _ZN3nux7PBuffer10DeactivateEv@Base 4.0~bzr753
 _ZN3nux7PBuffer10InitializeEiibb@Base 4.0~bzr753
 _ZN3nux7PBuffer12CopyToBufferEPvii@Base 4.0~bzr753
 _ZN3nux7PBuffer14GetSizeInBytesEv@Base 4.0~bzr753
 _ZN3nux7PBuffer14getStringValueESs@Base 4.0~bzr753
 _ZN3nux7PBuffer15getIntegerValueESs@Base 4.0~bzr753
 _ZN3nux7PBuffer15parseModeStringEPKcPSt6vectorIiSaIiEES6_@Base 4.0~bzr753
 _ZN3nux7PBuffer7DestroyEv@Base 4.0~bzr753
 _ZN3nux7PBuffer8ActivateEPS0_@Base 4.0~bzr753
 _ZN3nux7PBufferC1EPKcb@Base 4.0~bzr753
 _ZN3nux7PBufferC2EPKcb@Base 4.0~bzr753
 _ZN3nux7PBufferD1Ev@Base 4.0~bzr753
 _ZN3nux7PBufferD2Ev@Base 4.0~bzr753
 _ZN3nux7logging6LoggerD1Ev@Base 4.0~bzr753
 _ZN3nux7logging6LoggerD2Ev@Base 4.0~bzr753
 _ZN3nux8MeshData8AllocateEiNS_20NuxMeshPrimitiveTypeEii@Base 4.0~bzr753
 _ZN3nux8MeshDataC1Ev@Base 4.0~bzr753
 _ZN3nux8MeshDataC2Ev@Base 4.0~bzr753
 _ZN3nux8MeshDataD1Ev@Base 4.0~bzr753
 _ZN3nux8MeshDataD2Ev@Base 4.0~bzr753
 _ZN3nux8_expblurEPhiiiiii@Base 4.0~bzr753
 _ZN3nux9GLSh_Fill11CacheShaderEv@Base 4.0~bzr753
 _ZN3nux9GLSh_Fill18SetTransformMatrixERKNS_9Matrix4x4IfEE@Base 4.0~bzr753
 _ZN3nux9GLSh_Fill6RenderEiiiii@Base 4.0~bzr753
 _ZN3nux9GLSh_Fill8SetColorEffff@Base 4.0~bzr753
 _ZN3nux9GLSh_FillC1Ev@Base 4.0~bzr753
 _ZN3nux9GLSh_FillC2Ev@Base 4.0~bzr753
 _ZN3nux9GLSh_FillD1Ev@Base 4.0~bzr753
 _ZN3nux9GLSh_FillD2Ev@Base 4.0~bzr753
 _ZN3nux9GpuDevice11CreateQueryENS_10QUERY_TYPEE@Base 4.0~bzr753
 _ZN3nux9GpuDevice13CreateTextureEiiiNS_12BitmapFormatEPKci@Base 4.0~bzr753
 _ZN3nux9GpuDevice13DrawPrimitiveENS_9ObjectPtrINS_24IOpenGLVertexDeclarationEEENS_14PRIMITIVE_TYPEEjj@Base 4.0~bzr753
 _ZN3nux9GpuDevice13_StreamSourceE@Base 4.0~bzr753
 _ZN3nux9GpuDevice15DrawPrimitiveUPENS_9ObjectPtrINS_24IOpenGLVertexDeclarationEEENS_14PRIMITIVE_TYPEEjPKvj@Base 4.0~bzr753
 _ZN3nux9GpuDevice15GetRenderStatesEv@Base 4.0~bzr753
 _ZN3nux9GpuDevice15SetStreamSourceEjNS_9ObjectPtrINS_19IOpenGLVertexBufferEEEjj@Base 4.0~bzr753
 _ZN3nux9GpuDevice17CreateCubeTextureEiiNS_12BitmapFormatEPKci@Base 4.0~bzr753
 _ZN3nux9GpuDevice17CreateIndexBufferEiNS_9VBO_USAGEENS_12INDEX_FORMATE@Base 4.0~bzr753
 _ZN3nux9GpuDevice17CreatePixelShaderEv@Base 4.0~bzr753
 _ZN3nux9GpuDevice17ResetRenderStatesEv@Base 4.0~bzr753
 _ZN3nux9GpuDevice18CreateVertexBufferEiNS_9VBO_USAGEE@Base 4.0~bzr753
 _ZN3nux9GpuDevice18CreateVertexShaderEv@Base 4.0~bzr753
 _ZN3nux9GpuDevice18VerifyRenderStatesEv@Base 4.0~bzr753
 _ZN3nux9GpuDevice19ActivateFrameBufferEv@Base 4.0~bzr753
 _ZN3nux9GpuDevice19CreateShaderProgramEv@Base 4.0~bzr753
 _ZN3nux9GpuDevice19CreateVolumeTextureEiiiiNS_12BitmapFormatEPKci@Base 4.0~bzr753
 _ZN3nux9GpuDevice20CreateAsmPixelShaderEv@Base 4.0~bzr753
 _ZN3nux9GpuDevice20DrawIndexedPrimitiveENS_9ObjectPtrINS_18IOpenGLIndexBufferEEENS1_INS_24IOpenGLVertexDeclarationEEENS_14PRIMITIVE_TYPEEi@Base 4.0~bzr753
 _ZN3nux9GpuDevice21CreateAnimatedTextureEiiiNS_12BitmapFormatE@Base 4.0~bzr753
 _ZN3nux9GpuDevice21CreateAsmVertexShaderEv@Base 4.0~bzr753
 _ZN3nux9GpuDevice21CreateTexture2DFromIDEiiiiNS_12BitmapFormatEPKci@Base 4.0~bzr753
 _ZN3nux9GpuDevice21DeactivateFrameBufferEv@Base 4.0~bzr753
 _ZN3nux9GpuDevice21InvalidateIndexBufferEv@Base 4.0~bzr753
 _ZN3nux9GpuDevice21InvalidateTextureUnitEi@Base 4.0~bzr753
 _ZN3nux9GpuDevice22CreateAsmShaderProgramEv@Base 4.0~bzr753
 _ZN3nux9GpuDevice22CreateRectangleTextureEiiiNS_12BitmapFormatEPKci@Base 4.0~bzr753
 _ZN3nux9GpuDevice22InvalidateVertexBufferEv@Base 4.0~bzr753
 _ZN3nux9GpuDevice23CreateFrameBufferObjectEv@Base 4.0~bzr753
 _ZN3nux9GpuDevice23CreatePixelBufferObjectEiNS_9VBO_USAGEE@Base 4.0~bzr753
 _ZN3nux9GpuDevice23CreateVertexDeclarationEPKNS_13VERTEXELEMENTE@Base 4.0~bzr753
 _ZN3nux9GpuDevice23FormatFrameBufferObjectEjjNS_12BitmapFormatE@Base 4.0~bzr753
 _ZN3nux9GpuDevice24BindPackPixelBufferIndexEi@Base 4.0~bzr753
 _ZN3nux9GpuDevice24LockPackPixelBufferIndexEii@Base 4.0~bzr753
 _ZN3nux9GpuDevice26ActiveFboTextureAttachmentEi@Base 4.0~bzr753
 _ZN3nux9GpuDevice26BindUnpackPixelBufferIndexEi@Base 4.0~bzr753
 _ZN3nux9GpuDevice26CreateSystemCapableTextureEPKci@Base 4.0~bzr753
 _ZN3nux9GpuDevice26FreeUnpackPixelBufferIndexEi@Base 4.0~bzr753
 _ZN3nux9GpuDevice26LockUnpackPixelBufferIndexEii@Base 4.0~bzr753
 _ZN3nux9GpuDevice26UnlockPackPixelBufferIndexEi@Base 4.0~bzr753
 _ZN3nux9GpuDevice27GetColorRenderTargetSurfaceEj@Base 4.0~bzr753
 _ZN3nux9GpuDevice27GetCurrentFrameBufferObjectEv@Base 4.0~bzr753
 _ZN3nux9GpuDevice27GetDepthRenderTargetSurfaceEv@Base 4.0~bzr753
 _ZN3nux9GpuDevice27SetColorRenderTargetSurfaceEjNS_9ObjectPtrINS_14IOpenGLSurfaceEEE@Base 4.0~bzr753
 _ZN3nux9GpuDevice27SetCurrentFrameBufferObjectENS_9ObjectPtrINS_24IOpenGLFrameBufferObjectEEE@Base 4.0~bzr753
 _ZN3nux9GpuDevice27SetDepthRenderTargetSurfaceENS_9ObjectPtrINS_14IOpenGLSurfaceEEE@Base 4.0~bzr753
 _ZN3nux9GpuDevice28UnlockUnpackPixelBufferIndexEi@Base 4.0~bzr753
 _ZN3nux9GpuDevice30AllocateUnpackPixelBufferIndexEPi@Base 4.0~bzr753
 _ZN3nux9GpuDevice31ActiveFboDepthTextureAttachmentEv@Base 4.0~bzr753
 _ZN3nux9GpuDevice32CreateSystemCapableDeviceTextureEiiiNS_12BitmapFormatEPKci@Base 4.0~bzr753
 _ZN3nux9GpuDeviceC1EjjNS_12BitmapFormatEP9_XDisplaymbP16__GLXFBConfigRecRP15__GLXcontextReciib@Base 4.0~bzr753
 _ZN3nux9GpuDeviceC2EjjNS_12BitmapFormatEP9_XDisplaymbP16__GLXFBConfigRecRP15__GLXcontextReciib@Base 4.0~bzr753
 _ZN3nux9GpuDeviceD1Ev@Base 4.0~bzr753
 _ZN3nux9GpuDeviceD2Ev@Base 4.0~bzr753
 _ZN3nux9Matrix4x4IfE12OrthographicEffffff@Base 4.0~bzr753
 _ZN3nux9Matrix4x4IfEC1ERKS1_@Base 4.0~bzr753
 _ZN3nux9Matrix4x4IfEC2ERKS1_@Base 4.0~bzr753
 _ZN3nux9Matrix4x4IfEaSERKS1_@Base 4.0~bzr753
 _ZN3nux9ObjectPtrINS_11FontTextureEE16ReleaseReferenceEv@Base 4.0~bzr753
 _ZN3nux9ObjectPtrINS_12IOpenGLQueryEE16ReleaseReferenceEv@Base 4.0~bzr753
 _ZN3nux9ObjectPtrINS_13IOpenGLShaderEE16ReleaseReferenceEv@Base 4.0~bzr753
 _ZN3nux9ObjectPtrINS_13IOpenGLShaderEEC1INS_18IOpenGLPixelShaderEEERKNS0_IT_EE@Base 4.0~bzr753
 _ZN3nux9ObjectPtrINS_13IOpenGLShaderEEC1INS_19IOpenGLVertexShaderEEERKNS0_IT_EE@Base 4.0~bzr753
 _ZN3nux9ObjectPtrINS_13IOpenGLShaderEEC2INS_18IOpenGLPixelShaderEEERKNS0_IT_EE@Base 4.0~bzr753
 _ZN3nux9ObjectPtrINS_13IOpenGLShaderEEC2INS_19IOpenGLVertexShaderEEERKNS0_IT_EE@Base 4.0~bzr753
 _ZN3nux9ObjectPtrINS_13IOpenGLVolumeEE16ReleaseReferenceEv@Base 4.0~bzr753
 _ZN3nux9ObjectPtrINS_14IOpenGLSurfaceEE16ReleaseReferenceEv@Base 4.0~bzr753
 _ZN3nux9ObjectPtrINS_16IOpenGLTexture2DEE16ReleaseReferenceEv@Base 4.0~bzr753
 _ZN3nux9ObjectPtrINS_17CachedBaseTextureEE16ReleaseReferenceEv@Base 4.0~bzr753
 _ZN3nux9ObjectPtrINS_18CachedResourceDataEE16ReleaseReferenceEv@Base 4.0~bzr753
 _ZN3nux9ObjectPtrINS_18CachedVertexBufferEE16ReleaseReferenceEv@Base 4.0~bzr753
 _ZN3nux9ObjectPtrINS_18IOpenGLBaseTextureEE16ReleaseReferenceEv@Base 4.0~bzr753
 _ZN3nux9ObjectPtrINS_18IOpenGLBaseTextureEEC1ERKS2_@Base 4.0~bzr753
 _ZN3nux9ObjectPtrINS_18IOpenGLBaseTextureEEC1INS_16IOpenGLTexture2DEEERKNS0_IT_EE@Base 4.0~bzr753
 _ZN3nux9ObjectPtrINS_18IOpenGLBaseTextureEEC2ERKS2_@Base 4.0~bzr753
 _ZN3nux9ObjectPtrINS_18IOpenGLBaseTextureEEC2INS_16IOpenGLTexture2DEEERKNS0_IT_EE@Base 4.0~bzr753
 _ZN3nux9ObjectPtrINS_18IOpenGLBaseTextureEEaSINS_16IOpenGLTexture2DEEERS2_RKNS0_IT_EE@Base 4.0~bzr753
 _ZN3nux9ObjectPtrINS_18IOpenGLCubeTextureEE16ReleaseReferenceEv@Base 4.0~bzr753
 _ZN3nux9ObjectPtrINS_18IOpenGLIndexBufferEE16ReleaseReferenceEv@Base 4.0~bzr753
 _ZN3nux9ObjectPtrINS_18IOpenGLPixelShaderEE16ReleaseReferenceEv@Base 4.0~bzr753
 _ZN3nux9ObjectPtrINS_19IOpenGLVertexBufferEE16ReleaseReferenceEv@Base 4.0~bzr753
 _ZN3nux9ObjectPtrINS_19IOpenGLVertexShaderEE16ReleaseReferenceEv@Base 4.0~bzr753
 _ZN3nux9ObjectPtrINS_20IOpenGLShaderProgramEE16ReleaseReferenceEv@Base 4.0~bzr753
 _ZN3nux9ObjectPtrINS_20IOpenGLShaderProgramEEC1ERKS2_@Base 4.0~bzr753
 _ZN3nux9ObjectPtrINS_20IOpenGLShaderProgramEEC2ERKS2_@Base 4.0~bzr753
 _ZN3nux9ObjectPtrINS_20IOpenGLShaderProgramEEaSERKS2_@Base 4.0~bzr753
 _ZN3nux9ObjectPtrINS_20IOpenGLVolumeTextureEE16ReleaseReferenceEv@Base 4.0~bzr753
 _ZN3nux9ObjectPtrINS_21IOpenGLAsmPixelShaderEE16ReleaseReferenceEv@Base 4.0~bzr753
 _ZN3nux9ObjectPtrINS_22IOpenGLAnimatedTextureEE16ReleaseReferenceEv@Base 4.0~bzr753
 _ZN3nux9ObjectPtrINS_22IOpenGLAsmVertexShaderEE16ReleaseReferenceEv@Base 4.0~bzr753
 _ZN3nux9ObjectPtrINS_23CachedVertexDeclarationEE16ReleaseReferenceEv@Base 4.0~bzr753
 _ZN3nux9ObjectPtrINS_23IOpenGLAsmShaderProgramEE16ReleaseReferenceEv@Base 4.0~bzr753
 _ZN3nux9ObjectPtrINS_23IOpenGLAsmShaderProgramEEaSERKS2_@Base 4.0~bzr753
 _ZN3nux9ObjectPtrINS_23IOpenGLRectangleTextureEE16ReleaseReferenceEv@Base 4.0~bzr753
 _ZN3nux9ObjectPtrINS_24IOpenGLFrameBufferObjectEE16ReleaseReferenceEv@Base 4.0~bzr753
 _ZN3nux9ObjectPtrINS_24IOpenGLPixelBufferObjectEE16ReleaseReferenceEv@Base 4.0~bzr753
 _ZN3nux9ObjectPtrINS_24IOpenGLVertexDeclarationEE16ReleaseReferenceEv@Base 4.0~bzr753
 _ZN3nux9ROPConfig7DefaultE@Base 4.0~bzr753
 _ZN3nux9ROPConfigC1Ev@Base 4.0~bzr753
 _ZN3nux9ROPConfigC2Ev@Base 4.0~bzr753
 _ZN3nux9ROPConfigD1Ev@Base 4.0~bzr753
 _ZN3nux9ROPConfigD2Ev@Base 4.0~bzr753
 _ZN3nux9Texture2D16StaticObjectTypeE@Base 4.0~bzr753
 _ZN3nux9Texture2D6UpdateEPKNS_11NBitmapDataEb@Base 4.0~bzr753
 _ZN3nux9Texture2D6UpdateEPKcb@Base 4.0~bzr753
 _ZN3nux9Texture2D7GetDataEPviii@Base 4.0~bzr753
 _ZN3nux9Texture2DC1EPKci@Base 4.0~bzr753
 _ZN3nux9Texture2DC1ERKNS_12NTextureDataEPKci@Base 4.0~bzr753
 _ZN3nux9Texture2DC2EPKci@Base 4.0~bzr753
 _ZN3nux9Texture2DC2ERKNS_12NTextureDataEPKci@Base 4.0~bzr753
 _ZN3nux9Texture2DD0Ev@Base 4.0~bzr753
 _ZN3nux9Texture2DD1Ev@Base 4.0~bzr753
 _ZN3nux9Texture2DD2Ev@Base 4.0~bzr753
 _ZN3nux9VtxShaderE@Base 4.0~bzr753
 _ZN3nux9XICClient10DestroyXICEv@Base 4.0~bzr753
 _ZN3nux9XICClient10FocusInXICEv@Base 4.0~bzr753
 _ZN3nux9XICClient11FocusOutXICEv@Base 4.0~bzr753
 _ZN3nux9XICClient12ReinitializeEv@Base 4.0~bzr753
 _ZN3nux9XICClient13SetupXIMStyleEP4_XIM@Base 4.0~bzr753
 _ZN3nux9XICClient8ResetXICEP4_XIMm@Base 4.0~bzr753
 _ZN3nux9XICClient8SetupXICEP4_XIMm@Base 4.0~bzr753
 _ZN3nux9XICClientC1Ev@Base 4.0~bzr753
 _ZN3nux9XICClientC2Ev@Base 4.0~bzr753
 _ZN5boost15throw_exceptionINS_17bad_function_callEEEvRKT_@Base 4.0~bzr753
 _ZN5boost16exception_detail10clone_baseD0Ev@Base 4.0~bzr753
 _ZN5boost16exception_detail10clone_baseD1Ev@Base 4.0~bzr753
 _ZN5boost16exception_detail10clone_baseD2Ev@Base 4.0~bzr753
 _ZN5boost16exception_detail10clone_implINS0_19error_info_injectorINS_17bad_function_callEEEED0Ev@Base 4.0~bzr753
 _ZN5boost16exception_detail10clone_implINS0_19error_info_injectorINS_17bad_function_callEEEED1Ev@Base 4.0~bzr753
 _ZN5boost16exception_detail12refcount_ptrINS0_20error_info_containerEE7releaseEv@Base 4.0~bzr753
 _ZN5boost16exception_detail19error_info_injectorINS_17bad_function_callEED0Ev@Base 4.0~bzr753
 _ZN5boost16exception_detail19error_info_injectorINS_17bad_function_callEED1Ev@Base 4.0~bzr753
 _ZN5boost16exception_detail19error_info_injectorINS_17bad_function_callEED2Ev@Base 4.0~bzr753
 _ZN5boost17bad_function_callC1Ev@Base 4.0~bzr753
 _ZN5boost17bad_function_callC2Ev@Base 4.0~bzr753
 _ZN5boost17bad_function_callD0Ev@Base 4.0~bzr753
 _ZN5boost17bad_function_callD1Ev@Base 4.0~bzr753
 _ZN5boost17bad_function_callD2Ev@Base 4.0~bzr753
 _ZN5boost18transform_iteratorINS_9algorithm6detail20copy_iterator_rangeFISsN9__gnu_cxx17__normal_iteratorIPcSsEEEENS1_14split_iteratorIS7_EENS_11use_defaultESB_ED1Ev@Base 4.0~bzr753
 _ZN5boost18transform_iteratorINS_9algorithm6detail20copy_iterator_rangeFISsN9__gnu_cxx17__normal_iteratorIPcSsEEEENS1_14split_iteratorIS7_EENS_11use_defaultESB_ED2Ev@Base 4.0~bzr753
 _ZN5boost6detail8function15functor_managerINS_9algorithm6detail13token_finderFINS4_10is_any_ofFIcEEEEE6manageERKNS1_15function_bufferERSA_NS1_30functor_manager_operation_typeE@Base 4.0~bzr753
 _ZN5boost6detail8function16has_empty_targetEz@Base 4.0~bzr753
 _ZN5boost6detail8function21function_obj_invoker2INS_9algorithm6detail13token_finderFINS4_10is_any_ofFIcEEEENS_14iterator_rangeIN9__gnu_cxx17__normal_iteratorIPcSsEEEESD_SD_E6invokeERNS1_15function_bufferESD_SD_@Base 4.0~bzr753
 _ZN5boost9algorithm10iter_splitISt6vectorISsSaISsEESsNS0_6detail13token_finderFINS5_10is_any_ofFIcEEEEEERT_SB_RT0_T1_@Base 4.0~bzr753
 _ZN5boost9algorithm14split_iteratorIN9__gnu_cxx17__normal_iteratorIPcSsEEED1Ev@Base 4.0~bzr753
 _ZN5boost9algorithm14split_iteratorIN9__gnu_cxx17__normal_iteratorIPcSsEEED2Ev@Base 4.0~bzr753
 _ZN5boost9algorithm6detail10is_any_ofFIcED1Ev@Base 4.0~bzr753
 _ZN5boost9algorithm6detail10is_any_ofFIcED2Ev@Base 4.0~bzr753
 _ZN5boost9algorithm6detail13token_finderFINS1_10is_any_ofFIcEEED1Ev@Base 4.0~bzr753
 _ZN5boost9algorithm6detail13token_finderFINS1_10is_any_ofFIcEEED2Ev@Base 4.0~bzr753
 _ZN9__gnu_cxx12__to_xstringISscEET_PFiPT0_mPKS2_P13__va_list_tagEmS5_z@Base 4.0~bzr753
 _ZN9__gnu_cxx6__stoaIlicIiEEET0_PFT_PKT1_PPS3_DpT2_EPKcS5_PmS9_@Base 4.0~bzr753
 _ZN9__gnu_cxx6__stoaIlicJiEEET0_PFT_PKT1_PPS3_DpT2_EPKcS5_PmS9_@Base 4.0~bzr753
 _ZNK3nux10MeshBuffer4TypeEv@Base 4.0~bzr753
 _ZNK3nux11BaseTexture4TypeEv@Base 4.0~bzr753
 _ZNK3nux11BaseTexture8GetDepthEv@Base 4.0~bzr753
 _ZNK3nux11FontTexture11GetFontInfoEv@Base 4.0~bzr753
 _ZNK3nux11FontTexture12GetCharWidthERKc@Base 4.0~bzr753
 _ZNK3nux11FontTexture14GetStringWidthERKSs@Base 4.0~bzr753
 _ZNK3nux11FontTexture14GetStringWidthERKSsi@Base 4.0~bzr753
 _ZNK3nux11FontTexture18GetCharStringWidthEPKc@Base 4.0~bzr753
 _ZNK3nux11FontTexture18GetCharStringWidthEPKci@Base 4.0~bzr753
 _ZNK3nux11FontTexture4TypeEv@Base 4.0~bzr753
 _ZNK3nux11GdkGraphics9GetBitmapEv@Base 4.0~bzr753
 _ZNK3nux11IndexBuffer11GetNumIndexEv@Base 4.0~bzr753
 _ZNK3nux11IndexBuffer13GetPtrRawDataEv@Base 4.0~bzr753
 _ZNK3nux11IndexBuffer4TypeEv@Base 4.0~bzr753
 _ZNK3nux11IndexBuffer7GetSizeEv@Base 4.0~bzr753
 _ZNK3nux11IndexBuffer9GetStrideEv@Base 4.0~bzr753
 _ZNK3nux11NBitmapData13GetMemorySizeEv@Base 4.0~bzr753
 _ZNK3nux11NBitmapData13IsTextureDataEv@Base 4.0~bzr753
 _ZNK3nux11NBitmapData19IsVolumeTextureDataEv@Base 4.0~bzr753
 _ZNK3nux11NBitmapData20IsCubemapTextureDataEv@Base 4.0~bzr753
 _ZNK3nux11NBitmapData21IsAnimatedTextureDataEv@Base 4.0~bzr753
 _ZNK3nux11NBitmapData8GetDepthEv@Base 4.0~bzr753
 _ZNK3nux11NVolumeData10GetSurfaceEi@Base 4.0~bzr753
 _ZNK3nux11NVolumeData10GetSurfaceEii@Base 4.0~bzr753
 _ZNK3nux11NVolumeData12GetNumMipmapEv@Base 4.0~bzr753
 _ZNK3nux11NVolumeData19IsVolumeTextureDataEv@Base 4.0~bzr753
 _ZNK3nux11NVolumeData6IsNullEv@Base 4.0~bzr753
 _ZNK3nux11NVolumeData8GetDepthEv@Base 4.0~bzr753
 _ZNK3nux11NVolumeData8GetWidthEv@Base 4.0~bzr753
 _ZNK3nux11NVolumeData9GetFormatEv@Base 4.0~bzr753
 _ZNK3nux11NVolumeData9GetHeightEv@Base 4.0~bzr753
 _ZNK3nux11TextureCube12IsPowerOfTwoEv@Base 4.0~bzr753
 _ZNK3nux11TextureCube14GetNumMipLevelEv@Base 4.0~bzr753
 _ZNK3nux11TextureCube4TypeEv@Base 4.0~bzr753
 _ZNK3nux11TextureCube5CloneEv@Base 4.0~bzr753
 _ZNK3nux11TextureCube6IsNullEv@Base 4.0~bzr753
 _ZNK3nux11TextureCube8GetWidthEv@Base 4.0~bzr753
 _ZNK3nux11TextureCube9GetFormatEv@Base 4.0~bzr753
 _ZNK3nux11TextureCube9GetHeightEv@Base 4.0~bzr753
 _ZNK3nux12IOpenGLQuery4TypeEv@Base 4.0~bzr753
 _ZNK3nux12ImageSurface12GetAlignmentEv@Base 4.0~bzr753
 _ZNK3nux12ImageSurface13GetPtrRawDataEv@Base 4.0~bzr753
 _ZNK3nux12ImageSurface14GetBlockHeightEv@Base 4.0~bzr753
 _ZNK3nux12ImageSurface6IsNullEv@Base 4.0~bzr753
 _ZNK3nux12ImageSurface7GetSizeEv@Base 4.0~bzr753
 _ZNK3nux12ImageSurface8GetPitchEv@Base 4.0~bzr753
 _ZNK3nux12ImageSurface9GetFormatEv@Base 4.0~bzr753
 _ZNK3nux12NCubemapData10GetSurfaceEi@Base 4.0~bzr753
 _ZNK3nux12NCubemapData10GetSurfaceEii@Base 4.0~bzr753
 _ZNK3nux12NCubemapData12GetNumMipmapEv@Base 4.0~bzr753
 _ZNK3nux12NCubemapData20IsCubemapTextureDataEv@Base 4.0~bzr753
 _ZNK3nux12NCubemapData6IsNullEv@Base 4.0~bzr753
 _ZNK3nux12NCubemapData8GetWidthEv@Base 4.0~bzr753
 _ZNK3nux12NCubemapData9GetFormatEv@Base 4.0~bzr753
 _ZNK3nux12NCubemapData9GetHeightEv@Base 4.0~bzr753
 _ZNK3nux12NTextureData10GetSurfaceEi@Base 4.0~bzr753
 _ZNK3nux12NTextureData10GetSurfaceEii@Base 4.0~bzr753
 _ZNK3nux12NTextureData12GetNumMipmapEv@Base 4.0~bzr753
 _ZNK3nux12NTextureData13IsTextureDataEv@Base 4.0~bzr753
 _ZNK3nux12NTextureData6IsNullEv@Base 4.0~bzr753
 _ZNK3nux12NTextureData8GetWidthEv@Base 4.0~bzr753
 _ZNK3nux12NTextureData9GetFormatEv@Base 4.0~bzr753
 _ZNK3nux12NTextureData9GetHeightEv@Base 4.0~bzr753
 _ZNK3nux12ResourceData16GetResourceIndexEv@Base 4.0~bzr753
 _ZNK3nux12ResourceData4TypeEv@Base 4.0~bzr753
 _ZNK3nux12VertexBuffer13GetNumElementEv@Base 4.0~bzr753
 _ZNK3nux12VertexBuffer13GetPtrRawDataEv@Base 4.0~bzr753
 _ZNK3nux12VertexBuffer4TypeEv@Base 4.0~bzr753
 _ZNK3nux12VertexBuffer7GetSizeEv@Base 4.0~bzr753
 _ZNK3nux12VertexBuffer9GetStrideEv@Base 4.0~bzr753
 _ZNK3nux12XInputWindow11GetGeometryEv@Base 4.0~bzr753
 _ZNK3nux13CairoGraphics8GetWidthEv@Base 4.0~bzr753
 _ZNK3nux13CairoGraphics9GetHeightEv@Base 4.0~bzr753
 _ZNK3nux13IOpenGLShader4TypeEv@Base 4.0~bzr753
 _ZNK3nux13IOpenGLVolume14GetPixelFormatEv@Base 4.0~bzr753
 _ZNK3nux13IOpenGLVolume4TypeEv@Base 4.0~bzr753
 _ZNK3nux13IOpenGLVolume8GetDepthEv@Base 4.0~bzr753
 _ZNK3nux13IOpenGLVolume8GetWidthEv@Base 4.0~bzr753
 _ZNK3nux13IOpenGLVolume8RefCountEv@Base 4.0~bzr753
 _ZNK3nux13IOpenGLVolume9GetHeightEv@Base 4.0~bzr753
 _ZNK3nux13TextureVolume12IsPowerOfTwoEv@Base 4.0~bzr753
 _ZNK3nux13TextureVolume14GetNumMipLevelEv@Base 4.0~bzr753
 _ZNK3nux13TextureVolume4TypeEv@Base 4.0~bzr753
 _ZNK3nux13TextureVolume5CloneEv@Base 4.0~bzr753
 _ZNK3nux13TextureVolume6IsNullEv@Base 4.0~bzr753
 _ZNK3nux13TextureVolume8GetDepthEv@Base 4.0~bzr753
 _ZNK3nux13TextureVolume8GetWidthEv@Base 4.0~bzr753
 _ZNK3nux13TextureVolume9GetFormatEv@Base 4.0~bzr753
 _ZNK3nux13TextureVolume9GetHeightEv@Base 4.0~bzr753
 _ZNK3nux13XIMController10IsXICValidEv@Base 4.0~bzr753
 _ZNK3nux13XIMController6GetXICEv@Base 4.0~bzr753
 _ZNK3nux14GLRenderbuffer5GetIdEv@Base 4.0~bzr753
 _ZNK3nux14GraphicsEngine11GetContextXEv@Base 4.0~bzr753
 _ZNK3nux14GraphicsEngine11GetContextYEv@Base 4.0~bzr753
 _ZNK3nux14GraphicsEngine12GetViewportXEv@Base 4.0~bzr753
 _ZNK3nux14GraphicsEngine12GetViewportYEv@Base 4.0~bzr753
 _ZNK3nux14GraphicsEngine13GetWindowSizeERiS1_@Base 4.0~bzr753
 _ZNK3nux14GraphicsEngine14GetContextSizeERiS1_@Base 4.0~bzr753
 _ZNK3nux14GraphicsEngine14GetWindowWidthEv@Base 4.0~bzr753
 _ZNK3nux14GraphicsEngine15GetContextWidthEv@Base 4.0~bzr753
 _ZNK3nux14GraphicsEngine15GetViewportRectEv@Base 4.0~bzr753
 _ZNK3nux14GraphicsEngine15GetViewportSizeERiS1_@Base 4.0~bzr753
 _ZNK3nux14GraphicsEngine15GetWindowHeightEv@Base 4.0~bzr753
 _ZNK3nux14GraphicsEngine16GetContextHeightEv@Base 4.0~bzr753
 _ZNK3nux14GraphicsEngine16GetViewportWidthEv@Base 4.0~bzr753
 _ZNK3nux14GraphicsEngine17GetClippingRegionEv@Base 4.0~bzr753
 _ZNK3nux14GraphicsEngine17GetViewportHeightEv@Base 4.0~bzr753
 _ZNK3nux14GraphicsEngine26GetNumberOfClippingRegionsEv@Base 4.0~bzr753
 _ZNK3nux14IOpenGLSurface11GetMipLevelEv@Base 4.0~bzr753
 _ZNK3nux14IOpenGLSurface14GetPixelFormatEv@Base 4.0~bzr753
 _ZNK3nux14IOpenGLSurface16GetSurfaceTargetEv@Base 4.0~bzr753
 _ZNK3nux14IOpenGLSurface4TypeEv@Base 4.0~bzr753
 _ZNK3nux14IOpenGLSurface8GetWidthEv@Base 4.0~bzr753
 _ZNK3nux14IOpenGLSurface8RefCountEv@Base 4.0~bzr753
 _ZNK3nux14IOpenGLSurface9GetHeightEv@Base 4.0~bzr753
 _ZNK3nux15CachedTexture2D4TypeEv@Base 4.0~bzr753
 _ZNK3nux15GraphicsDisplay11GetGlXMajorEv@Base 4.0~bzr753
 _ZNK3nux15GraphicsDisplay11GetGlXMinorEv@Base 4.0~bzr753
 _ZNK3nux15GraphicsDisplay12GetFrameTimeEv@Base 4.0~bzr753
 _ZNK3nux15GraphicsDisplay12GetGpuDeviceEv@Base 4.0~bzr753
 _ZNK3nux15GraphicsDisplay16HasXPendingEventEv@Base 4.0~bzr753
 _ZNK3nux15GraphicsDisplay17GetGraphicsEngineEv@Base 4.0~bzr753
 _ZNK3nux15GraphicsDisplay19HasVSyncSwapControlEv@Base 4.0~bzr753
 _ZNK3nux15GraphicsDisplay30IsPauseThreadGraphicsRenderingEv@Base 4.0~bzr753
 _ZNK3nux15IOpenGLResource4TypeEv@Base 4.0~bzr753
 _ZNK3nux15IOpenGLResource8RefCountEv@Base 4.0~bzr753
 _ZNK3nux16CachedMeshBuffer4TypeEv@Base 4.0~bzr753
 _ZNK3nux16IOpenGLAsmShader4TypeEv@Base 4.0~bzr753
 _ZNK3nux16IOpenGLTexture2D4TypeEv@Base 4.0~bzr753
 _ZNK3nux16NResourceUpdater14UpdateResourceENS_9ObjectPtrINS_18CachedResourceDataEEEPNS_12ResourceDataE@Base 4.0~bzr753
 _ZNK3nux16TextureRectangle12IsPowerOfTwoEv@Base 4.0~bzr753
 _ZNK3nux16TextureRectangle14GetNumMipLevelEv@Base 4.0~bzr753
 _ZNK3nux16TextureRectangle4TypeEv@Base 4.0~bzr753
 _ZNK3nux16TextureRectangle5CloneEv@Base 4.0~bzr753
 _ZNK3nux16TextureRectangle6IsNullEv@Base 4.0~bzr753
 _ZNK3nux16TextureRectangle8GetWidthEv@Base 4.0~bzr753
 _ZNK3nux16TextureRectangle9GetFormatEv@Base 4.0~bzr753
 _ZNK3nux16TextureRectangle9GetHeightEv@Base 4.0~bzr753
 _ZNK3nux17CachedBaseTexture4TypeEv@Base 4.0~bzr753
 _ZNK3nux17CachedIndexBuffer11GetNumIndexEv@Base 4.0~bzr753
 _ZNK3nux17CachedIndexBuffer14GetElementSizeEv@Base 4.0~bzr753
 _ZNK3nux17CachedIndexBuffer15GetBufferStrideEv@Base 4.0~bzr753
 _ZNK3nux17CachedIndexBuffer4TypeEv@Base 4.0~bzr753
 _ZNK3nux17CachedTextureCube4TypeEv@Base 4.0~bzr753
 _ZNK3nux17VertexDeclaration4TypeEv@Base 4.0~bzr753
 _ZNK3nux18CachedResourceData13GetMaxLodSizeEv@Base 4.0~bzr753
 _ZNK3nux18CachedResourceData4TypeEv@Base 4.0~bzr753
 _ZNK3nux18CachedResourceData7GetSizeEv@Base 4.0~bzr753
 _ZNK3nux18CachedVertexBuffer14GetElementSizeEv@Base 4.0~bzr753
 _ZNK3nux18CachedVertexBuffer15GetBufferStrideEv@Base 4.0~bzr753
 _ZNK3nux18CachedVertexBuffer4TypeEv@Base 4.0~bzr753
 _ZNK3nux18IOpenGLBaseTexture4TypeEv@Base 4.0~bzr753
 _ZNK3nux18IOpenGLCubeTexture4TypeEv@Base 4.0~bzr753
 _ZNK3nux18IOpenGLIndexBuffer4TypeEv@Base 4.0~bzr753
 _ZNK3nux18IOpenGLPixelShader4TypeEv@Base 4.0~bzr753
 _ZNK3nux18TemplateQuadBuffer11GetNumQuadsEv@Base 4.0~bzr753
 _ZNK3nux19CachedTextureVolume4TypeEv@Base 4.0~bzr753
 _ZNK3nux19IOpenGLVertexBuffer4TypeEv@Base 4.0~bzr753
 _ZNK3nux19IOpenGLVertexShader4TypeEv@Base 4.0~bzr753
 _ZNK3nux20IOpenGLShaderProgram4TypeEv@Base 4.0~bzr753
 _ZNK3nux20IOpenGLVolumeTexture4TypeEv@Base 4.0~bzr753
 _ZNK3nux20NAnimatedTextureData10GetSurfaceEi@Base 4.0~bzr753
 _ZNK3nux20NAnimatedTextureData10GetSurfaceEii@Base 4.0~bzr753
 _ZNK3nux20NAnimatedTextureData12GetNumMipmapEv@Base 4.0~bzr753
 _ZNK3nux20NAnimatedTextureData21IsAnimatedTextureDataEv@Base 4.0~bzr753
 _ZNK3nux20NAnimatedTextureData6IsNullEv@Base 4.0~bzr753
 _ZNK3nux20NAnimatedTextureData8GetDepthEv@Base 4.0~bzr753
 _ZNK3nux20NAnimatedTextureData8GetWidthEv@Base 4.0~bzr753
 _ZNK3nux20NAnimatedTextureData9GetFormatEv@Base 4.0~bzr753
 _ZNK3nux20NAnimatedTextureData9GetHeightEv@Base 4.0~bzr753
 _ZNK3nux21IOpenGLAsmPixelShader4TypeEv@Base 4.0~bzr753
 _ZNK3nux21TextureFrameAnimation12IsPowerOfTwoEv@Base 4.0~bzr753
 _ZNK3nux21TextureFrameAnimation14GetNumMipLevelEv@Base 4.0~bzr753
 _ZNK3nux21TextureFrameAnimation4TypeEv@Base 4.0~bzr753
 _ZNK3nux21TextureFrameAnimation5CloneEv@Base 4.0~bzr753
 _ZNK3nux21TextureFrameAnimation6IsNullEv@Base 4.0~bzr753
 _ZNK3nux21TextureFrameAnimation8GetDepthEv@Base 4.0~bzr753
 _ZNK3nux21TextureFrameAnimation8GetWidthEv@Base 4.0~bzr753
 _ZNK3nux21TextureFrameAnimation9GetFormatEv@Base 4.0~bzr753
 _ZNK3nux21TextureFrameAnimation9GetHeightEv@Base 4.0~bzr753
 _ZNK3nux22CachedTextureRectangle4TypeEv@Base 4.0~bzr753
 _ZNK3nux22IOpenGLAnimatedTexture4TypeEv@Base 4.0~bzr753
 _ZNK3nux22IOpenGLAsmVertexShader4TypeEv@Base 4.0~bzr753
 _ZNK3nux23CachedVertexDeclaration4TypeEv@Base 4.0~bzr753
 _ZNK3nux23IOpenGLAsmShaderProgram4TypeEv@Base 4.0~bzr753
 _ZNK3nux23IOpenGLRectangleTexture4TypeEv@Base 4.0~bzr753
 _ZNK3nux24IOpenGLFrameBufferObject26GetNumberOfClippingRegionsEv@Base 4.0~bzr753
 _ZNK3nux24IOpenGLFrameBufferObject4TypeEv@Base 4.0~bzr753
 _ZNK3nux24IOpenGLPixelBufferObject4TypeEv@Base 4.0~bzr753
 _ZNK3nux24IOpenGLVertexDeclaration4TypeEv@Base 4.0~bzr753
 _ZNK3nux27CachedTextureFrameAnimation4TypeEv@Base 4.0~bzr753
 _ZNK3nux5Event11GetKeyStateEv@Base 4.0~bzr753
 _ZNK3nux5Event11IsShiftDownEv@Base 4.0~bzr753
 _ZNK3nux5Event13GetMouseStateEv@Base 4.0~bzr753
 _ZNK3nux5Event13IsControlDownEv@Base 4.0~bzr753
 _ZNK3nux5Event13IsNumLockDownEv@Base 4.0~bzr753
 _ZNK3nux5Event14GetButtonStateENS_11MouseButtonE@Base 4.0~bzr753
 _ZNK3nux5Event14GetEventButtonEv@Base 4.0~bzr753
 _ZNK3nux5Event14IsCapsLockDownEv@Base 4.0~bzr753
 _ZNK3nux5Event14IsSuperKeyDownEv@Base 4.0~bzr753
 _ZNK3nux5Event16IsScrollLockDownEv@Base 4.0~bzr753
 _ZNK3nux5Event17GetKeyRepeatCountEv@Base 4.0~bzr753
 _ZNK3nux5Event18GetVirtualKeyStateEm@Base 4.0~bzr753
 _ZNK3nux5Event19GetKeyModifierStateENS_11KeyModifierE@Base 4.0~bzr753
 _ZNK3nux5Event4GetXEv@Base 4.0~bzr753
 _ZNK3nux5Event4GetYEv@Base 4.0~bzr753
 _ZNK3nux5Event7GetTextEv@Base 4.0~bzr753
 _ZNK3nux5Event8GetRootXEv@Base 4.0~bzr753
 _ZNK3nux5Event8GetRootYEv@Base 4.0~bzr753
 _ZNK3nux5Event9GetDeltaXEv@Base 4.0~bzr753
 _ZNK3nux5Event9GetDeltaYEv@Base 4.0~bzr753
 _ZNK3nux5Event9GetKeySymEv@Base 4.0~bzr753
 _ZNK3nux5Event9IsAltDownEv@Base 4.0~bzr753
 _ZNK3nux9GpuDevice10GetGpuInfoEv@Base 4.0~bzr753
 _ZNK3nux9GpuDevice11GetGPUBrandEv@Base 4.0~bzr753
 _ZNK3nux9GpuDevice20GetFrameBufferObjectEv@Base 4.0.0
 _ZNK3nux9GpuDevice21GetOpenGLMajorVersionEv@Base 4.0~bzr753
 _ZNK3nux9GpuDevice21GetOpenGLMinorVersionEv@Base 4.0~bzr753
 _ZNK3nux9GpuDevice21UsePixelBufferObjectsEv@Base 4.0~bzr753
 _ZNK3nux9GpuDevice22GetPixelStoreAlignmentEv@Base 4.0~bzr753
 _ZNK3nux9Matrix4x4IfEmlERKS1_@Base 4.0~bzr753
 _ZNK3nux9Texture2D12IsPowerOfTwoEv@Base 4.0~bzr753
 _ZNK3nux9Texture2D14GetNumMipLevelEv@Base 4.0~bzr753
 _ZNK3nux9Texture2D4TypeEv@Base 4.0~bzr753
 _ZNK3nux9Texture2D5CloneEv@Base 4.0~bzr753
 _ZNK3nux9Texture2D6IsNullEv@Base 4.0~bzr753
 _ZNK3nux9Texture2D8GetWidthEv@Base 4.0~bzr753
 _ZNK3nux9Texture2D9GetFormatEv@Base 4.0~bzr753
 _ZNK3nux9Texture2D9GetHeightEv@Base 4.0~bzr753
 _ZNK3nux9XICClient6GetXICEv@Base 4.0~bzr753
 _ZNK3nux9XICClient6HasXICEv@Base 4.0~bzr753
 _ZNK3nux9XICClient9IsFocusedEv@Base 4.0~bzr753
 _ZNK5boost16exception_detail10clone_implINS0_19error_info_injectorINS_17bad_function_callEEEE5cloneEv@Base 4.0~bzr753
 _ZNK5boost16exception_detail10clone_implINS0_19error_info_injectorINS_17bad_function_callEEEE7rethrowEv@Base 4.0~bzr753
 _ZNSs12_S_constructIN9__gnu_cxx17__normal_iteratorIPcSsEEEES2_T_S4_RKSaIcESt20forward_iterator_tag@Base 4.0~bzr753
 _ZNSs12_S_constructIPcEES0_T_S1_RKSaIcESt20forward_iterator_tag@Base 4.0~bzr753
 _ZNSt10_List_baseIN3nux13BlendOperatorESaIS1_EE8_M_clearEv@Base 4.0~bzr753
 _ZNSt10_List_baseIN3nux15GraphicsDisplay15_EventFilterArgESaIS2_EE8_M_clearEv@Base 4.0~bzr753
 _ZNSt10_List_baseIN3nux7Point2DIiEESaIS2_EE8_M_clearEv@Base 4.0~bzr753
 _ZNSt10_List_baseIN3nux9Matrix4x4IfEESaIS2_EE8_M_clearEv@Base 4.0~bzr753
 _ZNSt10_List_baseIPKcSaIS1_EE8_M_clearEv@Base 4.0~bzr753
 _ZNSt10_List_baseIPcSaIS0_EE8_M_clearEv@Base 4.0~bzr753
 _ZNSt10shared_ptrIN3nux13XIMControllerEED1Ev@Base 4.0~bzr753
 _ZNSt10shared_ptrIN3nux13XIMControllerEED2Ev@Base 4.0~bzr753
 _ZNSt11_Deque_baseIfSaIfEE17_M_initialize_mapEm@Base 4.0~bzr753
 _ZNSt11_Deque_baseIfSaIfEED1Ev@Base 4.0~bzr753
 _ZNSt11_Deque_baseIfSaIfEED2Ev@Base 4.0~bzr753
 _ZNSt12_Destroy_auxILb0EE9__destroyIPN3nux12ImageSurfaceEEEvT_S5_@Base 4.0.0
 _ZNSt12_Destroy_auxILb0EE9__destroyIPN3nux9GpuDevice17PixelBufferObjectEEEvT_S6_@Base 4.0~bzr753
 _ZNSt12_Destroy_auxILb0EE9__destroyIPN3nux9ObjectPtrINS2_13IOpenGLShaderEEEEEvT_S7_@Base 4.0~bzr753
 _ZNSt12_Destroy_auxILb0EE9__destroyIPN3nux9ObjectPtrINS2_13IOpenGLVolumeEEEEEvT_S7_@Base 4.0~bzr753
 _ZNSt12_Destroy_auxILb0EE9__destroyIPN3nux9ObjectPtrINS2_14IOpenGLSurfaceEEEEEvT_S7_@Base 4.0~bzr753
 _ZNSt12_Destroy_auxILb0EE9__destroyIPN3nux9ObjectPtrINS2_18IOpenGLBaseTextureEEEEEvT_S7_@Base 4.0~bzr753
 _ZNSt12_Destroy_auxILb0EE9__destroyIPN3nux9ObjectPtrINS2_19IOpenGLVertexBufferEEEEEvT_S7_@Base 4.0~bzr753
 _ZNSt12_Vector_baseIN3nux12ImageSurfaceESaIS1_EED1Ev@Base 4.0.0
 _ZNSt12_Vector_baseIN3nux12ImageSurfaceESaIS1_EED2Ev@Base 4.0.0
 _ZNSt16_Sp_counted_baseILN9__gnu_cxx12_Lock_policyE2EE10_M_destroyEv@Base 4.0~bzr753
 _ZNSt16_Sp_counted_baseILN9__gnu_cxx12_Lock_policyE2EED0Ev@Base 4.0~bzr753
 _ZNSt16_Sp_counted_baseILN9__gnu_cxx12_Lock_policyE2EED1Ev@Base 4.0~bzr753
 _ZNSt16_Sp_counted_baseILN9__gnu_cxx12_Lock_policyE2EED2Ev@Base 4.0~bzr753
 _ZNSt23_Sp_counted_ptr_inplaceIN3nux13XIMControllerESaIS1_ELN9__gnu_cxx12_Lock_policyE2EE10_M_destroyEv@Base 4.0~bzr753
 _ZNSt23_Sp_counted_ptr_inplaceIN3nux13XIMControllerESaIS1_ELN9__gnu_cxx12_Lock_policyE2EE10_M_disposeEv@Base 4.0~bzr753
 _ZNSt23_Sp_counted_ptr_inplaceIN3nux13XIMControllerESaIS1_ELN9__gnu_cxx12_Lock_policyE2EE14_M_get_deleterERKSt9type_info@Base 4.0~bzr753
 _ZNSt23_Sp_counted_ptr_inplaceIN3nux13XIMControllerESaIS1_ELN9__gnu_cxx12_Lock_policyE2EED0Ev@Base 4.0~bzr753
 _ZNSt23_Sp_counted_ptr_inplaceIN3nux13XIMControllerESaIS1_ELN9__gnu_cxx12_Lock_policyE2EED1Ev@Base 4.0~bzr753
 _ZNSt23_Sp_counted_ptr_inplaceIN3nux13XIMControllerESaIS1_ELN9__gnu_cxx12_Lock_policyE2EED2Ev@Base 4.0~bzr753
 _ZNSt5dequeIfSaIfEE17_M_reallocate_mapEmb@Base 4.0~bzr753
 _ZNSt6vectorIN3nux12ImageSurfaceESaIS1_EE17_M_default_appendEm@Base 4.0.0
 _ZNSt6vectorIN3nux12ImageSurfaceESaIS1_EED1Ev@Base 4.0.0
 _ZNSt6vectorIN3nux12ImageSurfaceESaIS1_EED2Ev@Base 4.0.0
 _ZNSt6vectorIN3nux12ImageSurfaceESaIS1_EEaSERKS3_@Base 4.0.0
 _ZNSt6vectorIN3nux13VERTEXELEMENTESaIS1_EE19_M_emplace_back_auxIIRKS1_EEEvDpOT_@Base 4.0~bzr753
 _ZNSt6vectorIN3nux13VERTEXELEMENTESaIS1_EE19_M_emplace_back_auxIIS1_EEEvDpOT_@Base 4.0~bzr753
 _ZNSt6vectorIN3nux13VERTEXELEMENTESaIS1_EE19_M_emplace_back_auxIJRKS1_EEEvDpOT_@Base 4.0~bzr753
 _ZNSt6vectorIN3nux13VERTEXELEMENTESaIS1_EE19_M_emplace_back_auxIJS1_EEEvDpOT_@Base 4.0~bzr753
 _ZNSt6vectorIN3nux17_ObjMeshFaceIndexESaIS1_EE19_M_emplace_back_auxIIRKS1_EEEvDpOT_@Base 4.0~bzr753
 _ZNSt6vectorIN3nux17_ObjMeshFaceIndexESaIS1_EE19_M_emplace_back_auxIJRKS1_EEEvDpOT_@Base 4.0~bzr753
 _ZNSt6vectorIN3nux4RectESaIS1_EE19_M_emplace_back_auxIIRKS1_EEEvDpOT_@Base 4.0~bzr753
 _ZNSt6vectorIN3nux4RectESaIS1_EE19_M_emplace_back_auxIIS1_EEEvDpOT_@Base 4.0~bzr753
 _ZNSt6vectorIN3nux4RectESaIS1_EE19_M_emplace_back_auxIJRKS1_EEEvDpOT_@Base 4.0~bzr753
 _ZNSt6vectorIN3nux4RectESaIS1_EE19_M_emplace_back_auxIJS1_EEEvDpOT_@Base 4.0~bzr753
 _ZNSt6vectorIN3nux4RectESaIS1_EED1Ev@Base 4.0~bzr753
 _ZNSt6vectorIN3nux4RectESaIS1_EED2Ev@Base 4.0~bzr753
 _ZNSt6vectorIN3nux4Vec2IfEESaIS2_EE19_M_emplace_back_auxIIRKS2_EEEvDpOT_@Base 4.0~bzr753
 _ZNSt6vectorIN3nux4Vec2IfEESaIS2_EE19_M_emplace_back_auxIJRKS2_EEEvDpOT_@Base 4.0~bzr753
 _ZNSt6vectorIN3nux4Vec3IfEESaIS2_EE19_M_emplace_back_auxIIRKS2_EEEvDpOT_@Base 4.0~bzr753
 _ZNSt6vectorIN3nux4Vec3IfEESaIS2_EE19_M_emplace_back_auxIJRKS2_EEEvDpOT_@Base 4.0~bzr753
 _ZNSt6vectorIN3nux4Vec4IfEESaIS2_EE19_M_emplace_back_auxIIRKS2_EEEvDpOT_@Base 4.0~bzr753
 _ZNSt6vectorIN3nux4Vec4IfEESaIS2_EE19_M_emplace_back_auxIJRKS2_EEEvDpOT_@Base 4.0~bzr753
 _ZNSt6vectorIN3nux9GpuDevice17PixelBufferObjectESaIS2_EE19_M_emplace_back_auxIIRKS2_EEEvDpOT_@Base 4.0~bzr753
 _ZNSt6vectorIN3nux9GpuDevice17PixelBufferObjectESaIS2_EE19_M_emplace_back_auxIJRKS2_EEEvDpOT_@Base 4.0~bzr753
 _ZNSt6vectorIN3nux9GpuDevice17PixelBufferObjectESaIS2_EED1Ev@Base 4.0~bzr753
 _ZNSt6vectorIN3nux9GpuDevice17PixelBufferObjectESaIS2_EED2Ev@Base 4.0~bzr753
 _ZNSt6vectorIN3nux9ObjectPtrINS0_13IOpenGLShaderEEESaIS3_EE19_M_emplace_back_auxIIRKS3_EEEvDpOT_@Base 4.0~bzr753
 _ZNSt6vectorIN3nux9ObjectPtrINS0_13IOpenGLShaderEEESaIS3_EE19_M_emplace_back_auxIJRKS3_EEEvDpOT_@Base 4.0~bzr753
 _ZNSt6vectorIN3nux9ObjectPtrINS0_13IOpenGLShaderEEESaIS3_EED1Ev@Base 4.0~bzr753
 _ZNSt6vectorIN3nux9ObjectPtrINS0_13IOpenGLShaderEEESaIS3_EED2Ev@Base 4.0~bzr753
 _ZNSt6vectorIN3nux9ObjectPtrINS0_13IOpenGLVolumeEEESaIS3_EE19_M_emplace_back_auxIIS3_EEEvDpOT_@Base 4.0~bzr753
 _ZNSt6vectorIN3nux9ObjectPtrINS0_13IOpenGLVolumeEEESaIS3_EE19_M_emplace_back_auxIJS3_EEEvDpOT_@Base 4.0~bzr753
 _ZNSt6vectorIN3nux9ObjectPtrINS0_13IOpenGLVolumeEEESaIS3_EED1Ev@Base 4.0~bzr753
 _ZNSt6vectorIN3nux9ObjectPtrINS0_13IOpenGLVolumeEEESaIS3_EED2Ev@Base 4.0~bzr753
 _ZNSt6vectorIN3nux9ObjectPtrINS0_14IOpenGLSurfaceEEESaIS3_EE17_M_default_appendEm@Base 4.0.0
 _ZNSt6vectorIN3nux9ObjectPtrINS0_14IOpenGLSurfaceEEESaIS3_EE19_M_emplace_back_auxIIS3_EEEvDpOT_@Base 4.0~bzr753
 _ZNSt6vectorIN3nux9ObjectPtrINS0_14IOpenGLSurfaceEEESaIS3_EE19_M_emplace_back_auxIJS3_EEEvDpOT_@Base 4.0~bzr753
 _ZNSt6vectorIN3nux9ObjectPtrINS0_14IOpenGLSurfaceEEESaIS3_EED1Ev@Base 4.0~bzr753
 _ZNSt6vectorIN3nux9ObjectPtrINS0_14IOpenGLSurfaceEEESaIS3_EED2Ev@Base 4.0~bzr753
 _ZNSt6vectorIN3nux9ObjectPtrINS0_16IOpenGLAsmShaderEEESaIS3_EED1Ev@Base 4.0~bzr753
 _ZNSt6vectorIN3nux9ObjectPtrINS0_16IOpenGLAsmShaderEEESaIS3_EED2Ev@Base 4.0~bzr753
 _ZNSt6vectorIN3nux9ObjectPtrINS0_18IOpenGLBaseTextureEEESaIS3_EE17_M_default_appendEm@Base 4.0.0
 _ZNSt6vectorIN3nux9ObjectPtrINS0_18IOpenGLBaseTextureEEESaIS3_EE19_M_emplace_back_auxIIRKS3_EEEvDpOT_@Base 4.0~bzr753
 _ZNSt6vectorIN3nux9ObjectPtrINS0_18IOpenGLBaseTextureEEESaIS3_EE19_M_emplace_back_auxIJRKS3_EEEvDpOT_@Base 4.0~bzr753
 _ZNSt6vectorIN3nux9ObjectPtrINS0_18IOpenGLBaseTextureEEESaIS3_EED1Ev@Base 4.0~bzr753
 _ZNSt6vectorIN3nux9ObjectPtrINS0_18IOpenGLBaseTextureEEESaIS3_EED2Ev@Base 4.0~bzr753
 _ZNSt6vectorIN3nux9ObjectPtrINS0_19IOpenGLVertexBufferEEESaIS3_EE19_M_emplace_back_auxIIS3_EEEvDpOT_@Base 4.0~bzr753
 _ZNSt6vectorIN3nux9ObjectPtrINS0_19IOpenGLVertexBufferEEESaIS3_EE19_M_emplace_back_auxIJS3_EEEvDpOT_@Base 4.0~bzr753
 _ZNSt6vectorIPN3nux11BaseTextureESaIS2_EE19_M_emplace_back_auxIIS2_EEEvDpOT_@Base 4.0~bzr753
 _ZNSt6vectorIPN3nux11BaseTextureESaIS2_EE19_M_emplace_back_auxIJS2_EEEvDpOT_@Base 4.0~bzr753
 _ZNSt6vectorIPN3nux11BaseTextureESaIS2_EED1Ev@Base 4.0~bzr753
 _ZNSt6vectorIPN3nux11BaseTextureESaIS2_EED2Ev@Base 4.0~bzr753
 _ZNSt6vectorIPN3nux12ImageSurfaceESaIS2_EE12emplace_backIIS2_EEEvDpOT_@Base 4.0~bzr753
 _ZNSt6vectorIPN3nux12ImageSurfaceESaIS2_EE12emplace_backIJS2_EEEvDpOT_@Base 4.0~bzr753
 _ZNSt6vectorIPN3nux12ImageSurfaceESaIS2_EE19_M_emplace_back_auxIIS2_EEEvDpOT_@Base 4.0~bzr753
 _ZNSt6vectorIPN3nux12ImageSurfaceESaIS2_EE19_M_emplace_back_auxIJS2_EEEvDpOT_@Base 4.0~bzr753
 _ZNSt6vectorIPN3nux12ImageSurfaceESaIS2_EED1Ev@Base 4.0~bzr753
 _ZNSt6vectorIPN3nux12ImageSurfaceESaIS2_EED2Ev@Base 4.0~bzr753
 _ZNSt6vectorIPN3nux14IOpenGLSurfaceESaIS2_EE19_M_emplace_back_auxIIRKS2_EEEvDpOT_@Base 4.0~bzr753
 _ZNSt6vectorIPN3nux14IOpenGLSurfaceESaIS2_EE19_M_emplace_back_auxIJRKS2_EEEvDpOT_@Base 4.0~bzr753
 _ZNSt6vectorIPN3nux16NResourceFactoryESaIS2_EE12emplace_backIIS2_EEEvDpOT_@Base 4.0~bzr753
 _ZNSt6vectorIPN3nux16NResourceFactoryESaIS2_EE12emplace_backIJS2_EEEvDpOT_@Base 4.0~bzr753
 _ZNSt6vectorIPN3nux16NResourceFactoryESaIS2_EE19_M_emplace_back_auxIIS2_EEEvDpOT_@Base 4.0~bzr753
 _ZNSt6vectorIPN3nux16NResourceFactoryESaIS2_EE19_M_emplace_back_auxIJS2_EEEvDpOT_@Base 4.0~bzr753
 _ZNSt6vectorIPN3nux16NResourceUpdaterESaIS2_EE12emplace_backIIS2_EEEvDpOT_@Base 4.0~bzr753
 _ZNSt6vectorIPN3nux16NResourceUpdaterESaIS2_EE12emplace_backIJS2_EEEvDpOT_@Base 4.0~bzr753
 _ZNSt6vectorIPN3nux16NResourceUpdaterESaIS2_EE19_M_emplace_back_auxIIS2_EEEvDpOT_@Base 4.0~bzr753
 _ZNSt6vectorIPN3nux16NResourceUpdaterESaIS2_EE19_M_emplace_back_auxIJS2_EEEvDpOT_@Base 4.0~bzr753
 _ZNSt6vectorISsSaISsEE19_M_emplace_back_auxIISsEEEvDpOT_@Base 4.0~bzr753
 _ZNSt6vectorISsSaISsEE19_M_emplace_back_auxIJSsEEEvDpOT_@Base 4.0~bzr753
 _ZNSt6vectorISsSaISsEED1Ev@Base 4.0~bzr753
 _ZNSt6vectorISsSaISsEED2Ev@Base 4.0~bzr753
 _ZNSt6vectorIfSaIfEE12emplace_backIIfEEEvDpOT_@Base 4.0~bzr753
 _ZNSt6vectorIfSaIfEE12emplace_backIJfEEEvDpOT_@Base 4.0~bzr753
 _ZNSt6vectorIfSaIfEE19_M_emplace_back_auxIIfEEEvDpOT_@Base 4.0~bzr753
 _ZNSt6vectorIfSaIfEE19_M_emplace_back_auxIJfEEEvDpOT_@Base 4.0~bzr753
 _ZNSt6vectorIfSaIfEED1Ev@Base 4.0~bzr753
 _ZNSt6vectorIfSaIfEED2Ev@Base 4.0~bzr753
 _ZNSt6vectorIhSaIhEE16_M_shrink_to_fitEv@Base 4.0.0
 _ZNSt6vectorIhSaIhEE17_M_default_appendEm@Base 4.0~bzr753
 _ZNSt6vectorIhSaIhEED1Ev@Base 4.0.0
 _ZNSt6vectorIhSaIhEED2Ev@Base 4.0.0
 _ZNSt6vectorIhSaIhEEaSERKS1_@Base 4.0.0
 _ZNSt6vectorIiSaIiEE12emplace_backIIiEEEvDpOT_@Base 4.0~bzr753
 _ZNSt6vectorIiSaIiEE12emplace_backIJiEEEvDpOT_@Base 4.0~bzr753
 _ZNSt6vectorIiSaIiEE17_M_default_appendEm@Base 4.0~bzr753
 _ZNSt6vectorIiSaIiEE19_M_emplace_back_auxIIRKiEEEvDpOT_@Base 4.0~bzr753
 _ZNSt6vectorIiSaIiEE19_M_emplace_back_auxIIiEEEvDpOT_@Base 4.0~bzr753
 _ZNSt6vectorIiSaIiEE19_M_emplace_back_auxIJRKiEEEvDpOT_@Base 4.0~bzr753
 _ZNSt6vectorIiSaIiEE19_M_emplace_back_auxIJiEEEvDpOT_@Base 4.0~bzr753
 _ZNSt6vectorIiSaIiEE5eraseEN9__gnu_cxx17__normal_iteratorIPiS1_EES5_@Base 4.0~bzr753
 _ZNSt6vectorIiSaIiEED1Ev@Base 4.0~bzr753
 _ZNSt6vectorIiSaIiEED2Ev@Base 4.0~bzr753
 _ZNSt6vectorIjSaIjEE12emplace_backIIjEEEvDpOT_@Base 4.0~bzr753
 _ZNSt6vectorIjSaIjEE12emplace_backIJjEEEvDpOT_@Base 4.0~bzr753
 _ZNSt6vectorIjSaIjEE19_M_emplace_back_auxIIjEEEvDpOT_@Base 4.0~bzr753
 _ZNSt6vectorIjSaIjEE19_M_emplace_back_auxIJjEEEvDpOT_@Base 4.0~bzr753
 _ZNSt6vectorIjSaIjEED1Ev@Base 4.0~bzr753
 _ZNSt6vectorIjSaIjEED2Ev@Base 4.0~bzr753
 _ZNSt6vectorIlSaIlEED1Ev@Base 4.0~bzr753
 _ZNSt6vectorIlSaIlEED2Ev@Base 4.0~bzr753
 _ZNSt6vectorImSaImEE19_M_emplace_back_auxIIRKmEEEvDpOT_@Base 4.0~bzr753
 _ZNSt6vectorImSaImEE19_M_emplace_back_auxIJRKmEEEvDpOT_@Base 4.0~bzr753
 _ZNSt6vectorImSaImEED1Ev@Base 4.0~bzr753
 _ZNSt6vectorImSaImEED2Ev@Base 4.0~bzr753
 _ZNSt8_Rb_treeIN3nux14eCUBEMAP_FACESESt4pairIKS1_PSt6vectorIPNS0_14IOpenGLSurfaceESaIS6_EEESt10_Select1stISA_ESt4lessIS1_ESaISA_EE10_M_insert_IS2_IS1_S9_EEESt17_Rb_tree_iteratorISA_EPKSt18_Rb_tree_node_baseSN_OT_@Base 4.0~bzr753
 _ZNSt8_Rb_treeIN3nux14eCUBEMAP_FACESESt4pairIKS1_PSt6vectorIPNS0_14IOpenGLSurfaceESaIS6_EEESt10_Select1stISA_ESt4lessIS1_ESaISA_EE16_M_insert_uniqueIS2_IS1_S9_EEES2_ISt17_Rb_tree_iteratorISA_EbEOT_@Base 4.0~bzr753
 _ZNSt8_Rb_treeIN3nux14eCUBEMAP_FACESESt4pairIKS1_PSt6vectorIPNS0_14IOpenGLSurfaceESaIS6_EEESt10_Select1stISA_ESt4lessIS1_ESaISA_EE17_M_insert_unique_IS2_IS1_S9_EEESt17_Rb_tree_iteratorISA_ESt23_Rb_tree_const_iteratorISA_EOT_@Base 4.0~bzr753
 _ZNSt8_Rb_treeIN3nux14eCUBEMAP_FACESESt4pairIKS1_PSt6vectorIPNS0_14IOpenGLSurfaceESaIS6_EEESt10_Select1stISA_ESt4lessIS1_ESaISA_EE4findERS3_@Base 4.0~bzr753
 _ZNSt8_Rb_treeIN3nux14eCUBEMAP_FACESESt4pairIKS1_PSt6vectorIPNS0_14IOpenGLSurfaceESaIS6_EEESt10_Select1stISA_ESt4lessIS1_ESaISA_EE8_M_eraseEPSt13_Rb_tree_nodeISA_E@Base 4.0~bzr753
 _ZNSt8_Rb_treeIiSt4pairIKiN3nux9ObjectPtrINS2_18CachedResourceDataEEEESt10_Select1stIS6_ESt4lessIiESaIS6_EE10_M_insert_IS6_EESt17_Rb_tree_iteratorIS6_EPKSt18_Rb_tree_node_baseSI_OT_@Base 4.0~bzr753
 _ZNSt8_Rb_treeIiSt4pairIKiN3nux9ObjectPtrINS2_18CachedResourceDataEEEESt10_Select1stIS6_ESt4lessIiESaIS6_EE12_M_erase_auxESt23_Rb_tree_const_iteratorIS6_E@Base 4.0~bzr753
 _ZNSt8_Rb_treeIiSt4pairIKiN3nux9ObjectPtrINS2_18CachedResourceDataEEEESt10_Select1stIS6_ESt4lessIiESaIS6_EE4findERS1_@Base 4.0~bzr753
 _ZNSt8_Rb_treeIiSt4pairIKiN3nux9ObjectPtrINS2_18CachedResourceDataEEEESt10_Select1stIS6_ESt4lessIiESaIS6_EE8_M_eraseEPSt13_Rb_tree_nodeIS6_E@Base 4.0~bzr753
 _ZSt13__adjust_heapIPclcEvT_T0_S2_T1_@Base 4.0~bzr753
 _ZSt13binary_searchIPKccEbT_S2_RKT0_@Base 4.0~bzr753
 _ZSt16__insertion_sortIPcEvT_S1_@Base 4.0~bzr753
 _ZSt16__introsort_loopIPclEvT_S1_T0_@Base 4.0~bzr753
 _ZSt6__findIN9__gnu_cxx17__normal_iteratorIPN3nux9ObjectPtrINS2_13IOpenGLShaderEEESt6vectorIS5_SaIS5_EEEES5_ET_SB_SB_RKT0_St26random_access_iterator_tag@Base 4.0~bzr753
 _ZSt6removeIN9__gnu_cxx17__normal_iteratorIPiSt6vectorIiSaIiEEEEiET_S7_S7_RKT0_@Base 4.0~bzr753
 _ZSt9__find_ifIN9__gnu_cxx17__normal_iteratorIPcSsEEN5boost9algorithm6detail10is_any_ofFIcEEET_S9_S9_T0_St26random_access_iterator_tag@Base 4.0~bzr753
 _ZStplIcSt11char_traitsIcESaIcEESbIT_T0_T1_EOS6_PKS3_@Base 4.0~bzr753
 _ZStplIcSt11char_traitsIcESaIcEESbIT_T0_T1_ERKS6_S8_@Base 4.0~bzr753
 _ZTIN3nux10MeshBufferE@Base 4.0~bzr753
 _ZTIN3nux11BaseTextureE@Base 4.0~bzr753
 _ZTIN3nux11FontTextureE@Base 4.0~bzr753
 _ZTIN3nux11IndexBufferE@Base 4.0~bzr753
 _ZTIN3nux11NBitmapDataE@Base 4.0~bzr753
 _ZTIN3nux11NVolumeDataE@Base 4.0~bzr753
 _ZTIN3nux11TextureCubeE@Base 4.0~bzr753
 _ZTIN3nux12GestureEventE@Base 4.0~bzr753
 _ZTIN3nux12IOpenGLQueryE@Base 4.0~bzr753
 _ZTIN3nux12NCubemapDataE@Base 4.0~bzr753
 _ZTIN3nux12NResourceSetE@Base 4.0~bzr753
 _ZTIN3nux12NTextureDataE@Base 4.0~bzr753
 _ZTIN3nux12ResourceDataE@Base 4.0~bzr753
 _ZTIN3nux12VertexBufferE@Base 4.0~bzr753
 _ZTIN3nux13IOpenGLShaderE@Base 4.0~bzr753
 _ZTIN3nux13IOpenGLVolumeE@Base 4.0~bzr753
 _ZTIN3nux13TextureVolumeE@Base 4.0~bzr753
 _ZTIN3nux14IOpenGLSurfaceE@Base 4.0~bzr753
 _ZTIN3nux14NResourceCacheE@Base 4.0~bzr753
 _ZTIN3nux14RenderingStatsE@Base 4.0~bzr753
 _ZTIN3nux14TResourceCacheIiNS_18CachedResourceDataEEE@Base 4.0~bzr753
 _ZTIN3nux15CachedTexture2DE@Base 4.0~bzr753
 _ZTIN3nux15IOpenGLResourceE@Base 4.0~bzr753
 _ZTIN3nux16CachedMeshBufferE@Base 4.0~bzr753
 _ZTIN3nux16IOpenGLAsmShaderE@Base 4.0~bzr753
 _ZTIN3nux16IOpenGLTexture2DE@Base 4.0~bzr753
 _ZTIN3nux16NResourceFactoryE@Base 4.0~bzr753
 _ZTIN3nux16NResourceUpdaterE@Base 4.0~bzr753
 _ZTIN3nux16TextureRectangleE@Base 4.0~bzr753
 _ZTIN3nux17CachedBaseTextureE@Base 4.0~bzr753
 _ZTIN3nux17CachedIndexBufferE@Base 4.0~bzr753
 _ZTIN3nux17CachedTextureCubeE@Base 4.0~bzr753
 _ZTIN3nux17VertexDeclarationE@Base 4.0~bzr753
 _ZTIN3nux18CachedResourceDataE@Base 4.0~bzr753
 _ZTIN3nux18CachedVertexBufferE@Base 4.0~bzr753
 _ZTIN3nux18IOpenGLBaseTextureE@Base 4.0~bzr753
 _ZTIN3nux18IOpenGLCubeTextureE@Base 4.0~bzr753
 _ZTIN3nux18IOpenGLIndexBufferE@Base 4.0~bzr753
 _ZTIN3nux18IOpenGLPixelShaderE@Base 4.0~bzr753
 _ZTIN3nux18TGLResourceFactoryINS_10MeshBufferENS_16CachedMeshBufferEEE@Base 4.0~bzr753
 _ZTIN3nux18TGLResourceFactoryINS_11IndexBufferENS_17CachedIndexBufferEEE@Base 4.0~bzr753
 _ZTIN3nux18TGLResourceFactoryINS_11TextureCubeENS_17CachedTextureCubeEEE@Base 4.0~bzr753
 _ZTIN3nux18TGLResourceFactoryINS_12VertexBufferENS_18CachedVertexBufferEEE@Base 4.0~bzr753
 _ZTIN3nux18TGLResourceFactoryINS_13TextureVolumeENS_19CachedTextureVolumeEEE@Base 4.0~bzr753
 _ZTIN3nux18TGLResourceFactoryINS_16TextureRectangleENS_22CachedTextureRectangleEEE@Base 4.0~bzr753
 _ZTIN3nux18TGLResourceFactoryINS_17VertexDeclarationENS_23CachedVertexDeclarationEEE@Base 4.0~bzr753
 _ZTIN3nux18TGLResourceFactoryINS_21TextureFrameAnimationENS_27CachedTextureFrameAnimationEEE@Base 4.0~bzr753
 _ZTIN3nux18TGLResourceFactoryINS_9Texture2DENS_15CachedTexture2DEEE@Base 4.0~bzr753
 _ZTIN3nux19CachedTextureVolumeE@Base 4.0~bzr753
 _ZTIN3nux19GLFramebufferObjectE@Base 4.0~bzr753
 _ZTIN3nux19IOpenGLVertexBufferE@Base 4.0~bzr753
 _ZTIN3nux19IOpenGLVertexShaderE@Base 4.0~bzr753
 _ZTIN3nux20IOpenGLShaderProgramE@Base 4.0~bzr753
 _ZTIN3nux20IOpenGLVolumeTextureE@Base 4.0~bzr753
 _ZTIN3nux20NAnimatedTextureDataE@Base 4.0~bzr753
 _ZTIN3nux20NuxGraphicsResourcesE@Base 4.0~bzr753
 _ZTIN3nux21IOpenGLAsmPixelShaderE@Base 4.0~bzr753
 _ZTIN3nux21TextureFrameAnimationE@Base 4.0~bzr753
 _ZTIN3nux22CachedTextureRectangleE@Base 4.0~bzr753
 _ZTIN3nux22IOpenGLAnimatedTextureE@Base 4.0~bzr753
 _ZTIN3nux22IOpenGLAsmVertexShaderE@Base 4.0~bzr753
 _ZTIN3nux23CachedVertexDeclarationE@Base 4.0~bzr753
 _ZTIN3nux23IOpenGLAsmShaderProgramE@Base 4.0~bzr753
 _ZTIN3nux23IOpenGLRectangleTextureE@Base 4.0~bzr753
 _ZTIN3nux24IOpenGLFrameBufferObjectE@Base 4.0~bzr753
 _ZTIN3nux24IOpenGLPixelBufferObjectE@Base 4.0~bzr753
 _ZTIN3nux24IOpenGLVertexDeclarationE@Base 4.0~bzr753
 _ZTIN3nux27CachedTextureFrameAnimationE@Base 4.0~bzr753
 _ZTIN3nux5EventE@Base 4.0~bzr753
 _ZTIN3nux9Texture2DE@Base 4.0~bzr753
 _ZTIN5boost16exception_detail10clone_baseE@Base 4.0~bzr753
 _ZTIN5boost16exception_detail10clone_implINS0_19error_info_injectorINS_17bad_function_callEEEEE@Base 4.0~bzr753
 _ZTIN5boost16exception_detail19error_info_injectorINS_17bad_function_callEEE@Base 4.0~bzr753
 _ZTIN5boost17bad_function_callE@Base 4.0~bzr753
 _ZTIN5boost9algorithm6detail13token_finderFINS1_10is_any_ofFIcEEEE@Base 4.0~bzr753
 _ZTIN5boost9exceptionE@Base 4.0~bzr753
 _ZTISt11_Mutex_baseILN9__gnu_cxx12_Lock_policyE2EE@Base 4.0~bzr753
 _ZTISt16_Sp_counted_baseILN9__gnu_cxx12_Lock_policyE2EE@Base 4.0~bzr753
 _ZTISt19_Sp_make_shared_tag@Base 4.0~bzr753
 _ZTISt23_Sp_counted_ptr_inplaceIN3nux13XIMControllerESaIS1_ELN9__gnu_cxx12_Lock_policyE2EE@Base 4.0~bzr753
 _ZTSN3nux10MeshBufferE@Base 4.0~bzr753
 _ZTSN3nux11BaseTextureE@Base 4.0~bzr753
 _ZTSN3nux11FontTextureE@Base 4.0~bzr753
 _ZTSN3nux11IndexBufferE@Base 4.0~bzr753
 _ZTSN3nux11NBitmapDataE@Base 4.0~bzr753
 _ZTSN3nux11NVolumeDataE@Base 4.0~bzr753
 _ZTSN3nux11TextureCubeE@Base 4.0~bzr753
 _ZTSN3nux12GestureEventE@Base 4.0~bzr753
 _ZTSN3nux12IOpenGLQueryE@Base 4.0~bzr753
 _ZTSN3nux12NCubemapDataE@Base 4.0~bzr753
 _ZTSN3nux12NResourceSetE@Base 4.0~bzr753
 _ZTSN3nux12NTextureDataE@Base 4.0~bzr753
 _ZTSN3nux12ResourceDataE@Base 4.0~bzr753
 _ZTSN3nux12VertexBufferE@Base 4.0~bzr753
 _ZTSN3nux13IOpenGLShaderE@Base 4.0~bzr753
 _ZTSN3nux13IOpenGLVolumeE@Base 4.0~bzr753
 _ZTSN3nux13TextureVolumeE@Base 4.0~bzr753
 _ZTSN3nux14IOpenGLSurfaceE@Base 4.0~bzr753
 _ZTSN3nux14NResourceCacheE@Base 4.0~bzr753
 _ZTSN3nux14RenderingStatsE@Base 4.0~bzr753
 _ZTSN3nux14TResourceCacheIiNS_18CachedResourceDataEEE@Base 4.0~bzr753
 _ZTSN3nux15CachedTexture2DE@Base 4.0~bzr753
 _ZTSN3nux15IOpenGLResourceE@Base 4.0~bzr753
 _ZTSN3nux16CachedMeshBufferE@Base 4.0~bzr753
 _ZTSN3nux16IOpenGLAsmShaderE@Base 4.0~bzr753
 _ZTSN3nux16IOpenGLTexture2DE@Base 4.0~bzr753
 _ZTSN3nux16NResourceFactoryE@Base 4.0~bzr753
 _ZTSN3nux16NResourceUpdaterE@Base 4.0~bzr753
 _ZTSN3nux16TextureRectangleE@Base 4.0~bzr753
 _ZTSN3nux17CachedBaseTextureE@Base 4.0~bzr753
 _ZTSN3nux17CachedIndexBufferE@Base 4.0~bzr753
 _ZTSN3nux17CachedTextureCubeE@Base 4.0~bzr753
 _ZTSN3nux17VertexDeclarationE@Base 4.0~bzr753
 _ZTSN3nux18CachedResourceDataE@Base 4.0~bzr753
 _ZTSN3nux18CachedVertexBufferE@Base 4.0~bzr753
 _ZTSN3nux18IOpenGLBaseTextureE@Base 4.0~bzr753
 _ZTSN3nux18IOpenGLCubeTextureE@Base 4.0~bzr753
 _ZTSN3nux18IOpenGLIndexBufferE@Base 4.0~bzr753
 _ZTSN3nux18IOpenGLPixelShaderE@Base 4.0~bzr753
 _ZTSN3nux18TGLResourceFactoryINS_10MeshBufferENS_16CachedMeshBufferEEE@Base 4.0~bzr753
 _ZTSN3nux18TGLResourceFactoryINS_11IndexBufferENS_17CachedIndexBufferEEE@Base 4.0~bzr753
 _ZTSN3nux18TGLResourceFactoryINS_11TextureCubeENS_17CachedTextureCubeEEE@Base 4.0~bzr753
 _ZTSN3nux18TGLResourceFactoryINS_12VertexBufferENS_18CachedVertexBufferEEE@Base 4.0~bzr753
 _ZTSN3nux18TGLResourceFactoryINS_13TextureVolumeENS_19CachedTextureVolumeEEE@Base 4.0~bzr753
 _ZTSN3nux18TGLResourceFactoryINS_16TextureRectangleENS_22CachedTextureRectangleEEE@Base 4.0~bzr753
 _ZTSN3nux18TGLResourceFactoryINS_17VertexDeclarationENS_23CachedVertexDeclarationEEE@Base 4.0~bzr753
 _ZTSN3nux18TGLResourceFactoryINS_21TextureFrameAnimationENS_27CachedTextureFrameAnimationEEE@Base 4.0~bzr753
 _ZTSN3nux18TGLResourceFactoryINS_9Texture2DENS_15CachedTexture2DEEE@Base 4.0~bzr753
 _ZTSN3nux19CachedTextureVolumeE@Base 4.0~bzr753
 _ZTSN3nux19GLFramebufferObjectE@Base 4.0~bzr753
 _ZTSN3nux19IOpenGLVertexBufferE@Base 4.0~bzr753
 _ZTSN3nux19IOpenGLVertexShaderE@Base 4.0~bzr753
 _ZTSN3nux20IOpenGLShaderProgramE@Base 4.0~bzr753
 _ZTSN3nux20IOpenGLVolumeTextureE@Base 4.0~bzr753
 _ZTSN3nux20NAnimatedTextureDataE@Base 4.0~bzr753
 _ZTSN3nux20NuxGraphicsResourcesE@Base 4.0~bzr753
 _ZTSN3nux21IOpenGLAsmPixelShaderE@Base 4.0~bzr753
 _ZTSN3nux21TextureFrameAnimationE@Base 4.0~bzr753
 _ZTSN3nux22CachedTextureRectangleE@Base 4.0~bzr753
 _ZTSN3nux22IOpenGLAnimatedTextureE@Base 4.0~bzr753
 _ZTSN3nux22IOpenGLAsmVertexShaderE@Base 4.0~bzr753
 _ZTSN3nux23CachedVertexDeclarationE@Base 4.0~bzr753
 _ZTSN3nux23IOpenGLAsmShaderProgramE@Base 4.0~bzr753
 _ZTSN3nux23IOpenGLRectangleTextureE@Base 4.0~bzr753
 _ZTSN3nux24IOpenGLFrameBufferObjectE@Base 4.0~bzr753
 _ZTSN3nux24IOpenGLPixelBufferObjectE@Base 4.0~bzr753
 _ZTSN3nux24IOpenGLVertexDeclarationE@Base 4.0~bzr753
 _ZTSN3nux27CachedTextureFrameAnimationE@Base 4.0~bzr753
 _ZTSN3nux5EventE@Base 4.0~bzr753
 _ZTSN3nux9Texture2DE@Base 4.0~bzr753
 _ZTSN5boost16exception_detail10clone_baseE@Base 4.0~bzr753
 _ZTSN5boost16exception_detail10clone_implINS0_19error_info_injectorINS_17bad_function_callEEEEE@Base 4.0~bzr753
 _ZTSN5boost16exception_detail19error_info_injectorINS_17bad_function_callEEE@Base 4.0~bzr753
 _ZTSN5boost17bad_function_callE@Base 4.0~bzr753
 _ZTSN5boost9algorithm6detail13token_finderFINS1_10is_any_ofFIcEEEE@Base 4.0~bzr753
 _ZTSN5boost9exceptionE@Base 4.0~bzr753
 _ZTSSt11_Mutex_baseILN9__gnu_cxx12_Lock_policyE2EE@Base 4.0~bzr753
 _ZTSSt16_Sp_counted_baseILN9__gnu_cxx12_Lock_policyE2EE@Base 4.0~bzr753
 _ZTSSt19_Sp_make_shared_tag@Base 4.0~bzr753
 _ZTSSt23_Sp_counted_ptr_inplaceIN3nux13XIMControllerESaIS1_ELN9__gnu_cxx12_Lock_policyE2EE@Base 4.0~bzr753
 _ZTTN5boost16exception_detail10clone_implINS0_19error_info_injectorINS_17bad_function_callEEEEE@Base 4.0~bzr753
 _ZTVN3nux10MeshBufferE@Base 4.0~bzr753
 _ZTVN3nux11BaseTextureE@Base 4.0~bzr753
 _ZTVN3nux11FontTextureE@Base 4.0~bzr753
 _ZTVN3nux11IndexBufferE@Base 4.0~bzr753
 _ZTVN3nux11NBitmapDataE@Base 4.0~bzr753
 _ZTVN3nux11NVolumeDataE@Base 4.0~bzr753
 _ZTVN3nux11TextureCubeE@Base 4.0~bzr753
 _ZTVN3nux12GestureEventE@Base 4.0~bzr753
 _ZTVN3nux12IOpenGLQueryE@Base 4.0~bzr753
 _ZTVN3nux12NCubemapDataE@Base 4.0~bzr753
 _ZTVN3nux12NResourceSetE@Base 4.0~bzr753
 _ZTVN3nux12NTextureDataE@Base 4.0~bzr753
 _ZTVN3nux12ResourceDataE@Base 4.0~bzr753
 _ZTVN3nux12VertexBufferE@Base 4.0~bzr753
 _ZTVN3nux13IOpenGLShaderE@Base 4.0~bzr753
 _ZTVN3nux13IOpenGLVolumeE@Base 4.0~bzr753
 _ZTVN3nux13TextureVolumeE@Base 4.0~bzr753
 _ZTVN3nux14IOpenGLSurfaceE@Base 4.0~bzr753
 _ZTVN3nux14NResourceCacheE@Base 4.0~bzr753
 _ZTVN3nux14RenderingStatsE@Base 4.0~bzr753
 _ZTVN3nux14TResourceCacheIiNS_18CachedResourceDataEEE@Base 4.0~bzr753
 _ZTVN3nux15CachedTexture2DE@Base 4.0~bzr753
 _ZTVN3nux15IOpenGLResourceE@Base 4.0~bzr753
 _ZTVN3nux16CachedMeshBufferE@Base 4.0~bzr753
 _ZTVN3nux16IOpenGLAsmShaderE@Base 4.0~bzr753
 _ZTVN3nux16IOpenGLTexture2DE@Base 4.0~bzr753
 _ZTVN3nux16NResourceFactoryE@Base 4.0~bzr753
 _ZTVN3nux16NResourceUpdaterE@Base 4.0~bzr753
 _ZTVN3nux16TextureRectangleE@Base 4.0~bzr753
 _ZTVN3nux17CachedBaseTextureE@Base 4.0~bzr753
 _ZTVN3nux17CachedIndexBufferE@Base 4.0~bzr753
 _ZTVN3nux17CachedTextureCubeE@Base 4.0~bzr753
 _ZTVN3nux17VertexDeclarationE@Base 4.0~bzr753
 _ZTVN3nux18CachedResourceDataE@Base 4.0~bzr753
 _ZTVN3nux18CachedVertexBufferE@Base 4.0~bzr753
 _ZTVN3nux18IOpenGLBaseTextureE@Base 4.0~bzr753
 _ZTVN3nux18IOpenGLCubeTextureE@Base 4.0~bzr753
 _ZTVN3nux18IOpenGLIndexBufferE@Base 4.0~bzr753
 _ZTVN3nux18IOpenGLPixelShaderE@Base 4.0~bzr753
 _ZTVN3nux18TGLResourceFactoryINS_10MeshBufferENS_16CachedMeshBufferEEE@Base 4.0~bzr753
 _ZTVN3nux18TGLResourceFactoryINS_11IndexBufferENS_17CachedIndexBufferEEE@Base 4.0~bzr753
 _ZTVN3nux18TGLResourceFactoryINS_11TextureCubeENS_17CachedTextureCubeEEE@Base 4.0~bzr753
 _ZTVN3nux18TGLResourceFactoryINS_12VertexBufferENS_18CachedVertexBufferEEE@Base 4.0~bzr753
 _ZTVN3nux18TGLResourceFactoryINS_13TextureVolumeENS_19CachedTextureVolumeEEE@Base 4.0~bzr753
 _ZTVN3nux18TGLResourceFactoryINS_16TextureRectangleENS_22CachedTextureRectangleEEE@Base 4.0~bzr753
 _ZTVN3nux18TGLResourceFactoryINS_17VertexDeclarationENS_23CachedVertexDeclarationEEE@Base 4.0~bzr753
 _ZTVN3nux18TGLResourceFactoryINS_21TextureFrameAnimationENS_27CachedTextureFrameAnimationEEE@Base 4.0~bzr753
 _ZTVN3nux18TGLResourceFactoryINS_9Texture2DENS_15CachedTexture2DEEE@Base 4.0~bzr753
 _ZTVN3nux19CachedTextureVolumeE@Base 4.0~bzr753
 _ZTVN3nux19GLFramebufferObjectE@Base 4.0~bzr753
 _ZTVN3nux19IOpenGLVertexBufferE@Base 4.0~bzr753
 _ZTVN3nux19IOpenGLVertexShaderE@Base 4.0~bzr753
 _ZTVN3nux20IOpenGLShaderProgramE@Base 4.0~bzr753
 _ZTVN3nux20IOpenGLVolumeTextureE@Base 4.0~bzr753
 _ZTVN3nux20NAnimatedTextureDataE@Base 4.0~bzr753
 _ZTVN3nux20NuxGraphicsResourcesE@Base 4.0~bzr753
 _ZTVN3nux21IOpenGLAsmPixelShaderE@Base 4.0~bzr753
 _ZTVN3nux21TextureFrameAnimationE@Base 4.0~bzr753
 _ZTVN3nux22CachedTextureRectangleE@Base 4.0~bzr753
 _ZTVN3nux22IOpenGLAnimatedTextureE@Base 4.0~bzr753
 _ZTVN3nux22IOpenGLAsmVertexShaderE@Base 4.0~bzr753
 _ZTVN3nux23CachedVertexDeclarationE@Base 4.0~bzr753
 _ZTVN3nux23IOpenGLAsmShaderProgramE@Base 4.0~bzr753
 _ZTVN3nux23IOpenGLRectangleTextureE@Base 4.0~bzr753
 _ZTVN3nux24IOpenGLFrameBufferObjectE@Base 4.0~bzr753
 _ZTVN3nux24IOpenGLPixelBufferObjectE@Base 4.0~bzr753
 _ZTVN3nux24IOpenGLVertexDeclarationE@Base 4.0~bzr753
 _ZTVN3nux27CachedTextureFrameAnimationE@Base 4.0~bzr753
 _ZTVN3nux9Texture2DE@Base 4.0~bzr753
 _ZTVN5boost16exception_detail10clone_baseE@Base 4.0~bzr753
 _ZTVN5boost16exception_detail10clone_implINS0_19error_info_injectorINS_17bad_function_callEEEEE@Base 4.0~bzr753
 _ZTVN5boost16exception_detail19error_info_injectorINS_17bad_function_callEEE@Base 4.0~bzr753
 _ZTVN5boost17bad_function_callE@Base 4.0~bzr753
 _ZTVN5boost9exceptionE@Base 4.0~bzr753
 _ZTVSt16_Sp_counted_baseILN9__gnu_cxx12_Lock_policyE2EE@Base 4.0~bzr753
 _ZTVSt23_Sp_counted_ptr_inplaceIN3nux13XIMControllerESaIS1_ELN9__gnu_cxx12_Lock_policyE2EE@Base 4.0~bzr753
 _ZThn16_N5boost16exception_detail10clone_implINS0_19error_info_injectorINS_17bad_function_callEEEED0Ev@Base 4.0~bzr753
 _ZThn16_N5boost16exception_detail10clone_implINS0_19error_info_injectorINS_17bad_function_callEEEED1Ev@Base 4.0~bzr753
 _ZThn16_N5boost16exception_detail19error_info_injectorINS_17bad_function_callEED0Ev@Base 4.0~bzr753
 _ZThn16_N5boost16exception_detail19error_info_injectorINS_17bad_function_callEED1Ev@Base 4.0~bzr753
 _ZTv0_n24_NK5boost16exception_detail10clone_implINS0_19error_info_injectorINS_17bad_function_callEEEE5cloneEv@Base 4.0~bzr753
 _ZTv0_n32_NK5boost16exception_detail10clone_implINS0_19error_info_injectorINS_17bad_function_callEEEE7rethrowEv@Base 4.0~bzr753
 _ZTv0_n40_N5boost16exception_detail10clone_implINS0_19error_info_injectorINS_17bad_function_callEEEED0Ev@Base 4.0~bzr753
 _ZTv0_n40_N5boost16exception_detail10clone_implINS0_19error_info_injectorINS_17bad_function_callEEEED1Ev@Base 4.0~bzr753
 _ZZN5boost9function2INS_14iterator_rangeIN9__gnu_cxx17__normal_iteratorIPcSsEEEES5_S5_E9assign_toINS_9algorithm6detail13token_finderFINSA_10is_any_ofFIcEEEEEEvT_E13stored_vtable@Base 4.0~bzr753
