# SymbolsHelper-Confirmed: 4:4.10.2 amd64
libkdcraw.so.22 libkdcraw22 #MINVER#
 .gomp_critical_user_dataupdate@Base 4:4.10.2
 _ZN11KDcrawIface11RClickLabel11leftClickedEv@Base 4:4.7.1
 _ZN11KDcrawIface11RClickLabel11qt_metacallEN11QMetaObject4CallEiPPv@Base 4:4.7.1
 _ZN11KDcrawIface11RClickLabel11qt_metacastEPKc@Base 4:4.7.1
 _ZN11KDcrawIface11RClickLabel13keyPressEventEP9QKeyEvent@Base 4:4.7.1
 _ZN11KDcrawIface11RClickLabel15mousePressEventEP11QMouseEvent@Base 4:4.7.1
 _ZN11KDcrawIface11RClickLabel16staticMetaObjectE@Base 4:4.7.1
 _ZN11KDcrawIface11RClickLabel17mouseReleaseEventEP11QMouseEvent@Base 4:4.7.1
 _ZN11KDcrawIface11RClickLabel9activatedEv@Base 4:4.7.1
 _ZN11KDcrawIface11RClickLabelC1EP7QWidget@Base 4:4.7.1
 _ZN11KDcrawIface11RClickLabelC1ERK7QStringP7QWidget@Base 4:4.7.1
 _ZN11KDcrawIface11RClickLabelC2EP7QWidget@Base 4:4.7.1
 _ZN11KDcrawIface11RClickLabelC2ERK7QStringP7QWidget@Base 4:4.7.1
 _ZN11KDcrawIface11RClickLabelD0Ev@Base 4:4.8.4
 _ZN11KDcrawIface11RClickLabelD1Ev@Base 4:4.8.4
 _ZN11KDcrawIface11RClickLabelD2Ev@Base 4:4.8.4
 _ZN11KDcrawIface12RExpanderBox10addStretchEv@Base 4:4.7.1
 _ZN11KDcrawIface12RExpanderBox10insertItemEiP7QWidgetRK7QPixmapRK7QStringS8_b@Base 4:4.7.1
 _ZN11KDcrawIface12RExpanderBox10insertItemEiP7QWidgetRK7QStringS5_b@Base 4:4.7.1
 _ZN11KDcrawIface12RExpanderBox10removeItemEi@Base 4:4.7.1
 _ZN11KDcrawIface12RExpanderBox10setCheckedEib@Base 4:4.7.1
 _ZN11KDcrawIface12RExpanderBox11qt_metacallEN11QMetaObject4CallEiPPv@Base 4:4.7.1
 _ZN11KDcrawIface12RExpanderBox11qt_metacastEPKc@Base 4:4.7.1
 _ZN11KDcrawIface12RExpanderBox11setItemIconEiRK7QPixmap@Base 4:4.7.1
 _ZN11KDcrawIface12RExpanderBox11setItemTextEiRK7QString@Base 4:4.7.1
 _ZN11KDcrawIface12RExpanderBox12readSettingsER12KConfigGroup@Base 4:4.7.1
 _ZN11KDcrawIface12RExpanderBox13insertStretchEi@Base 4:4.7.1
 _ZN11KDcrawIface12RExpanderBox13writeSettingsER12KConfigGroup@Base 4:4.7.1
 _ZN11KDcrawIface12RExpanderBox14setItemEnabledEib@Base 4:4.7.1
 _ZN11KDcrawIface12RExpanderBox14setItemToolTipEiRK7QString@Base 4:4.7.1
 _ZN11KDcrawIface12RExpanderBox15setItemExpandedEib@Base 4:4.7.1
 _ZN11KDcrawIface12RExpanderBox15slotItemToggledEb@Base 4:4.7.1
 _ZN11KDcrawIface12RExpanderBox16slotItemExpandedEb@Base 4:4.7.1
 _ZN11KDcrawIface12RExpanderBox16staticMetaObjectE@Base 4:4.7.1
 _ZN11KDcrawIface12RExpanderBox17signalItemToggledEib@Base 4:4.7.1
 _ZN11KDcrawIface12RExpanderBox18setCheckBoxVisibleEib@Base 4:4.7.1
 _ZN11KDcrawIface12RExpanderBox18signalItemExpandedEib@Base 4:4.7.1
 _ZN11KDcrawIface12RExpanderBox7addItemEP7QWidgetRK7QPixmapRK7QStringS8_b@Base 4:4.7.1
 _ZN11KDcrawIface12RExpanderBox7addItemEP7QWidgetRK7QStringS5_b@Base 4:4.7.1
 _ZN11KDcrawIface12RExpanderBoxC1EP7QWidget@Base 4:4.7.1
 _ZN11KDcrawIface12RExpanderBoxC2EP7QWidget@Base 4:4.7.1
 _ZN11KDcrawIface12RExpanderBoxD0Ev@Base 4:4.7.1
 _ZN11KDcrawIface12RExpanderBoxD1Ev@Base 4:4.7.1
 _ZN11KDcrawIface12RExpanderBoxD2Ev@Base 4:4.7.1
 _ZN11KDcrawIface12RIntNumInput11qt_metacallEN11QMetaObject4CallEiPPv@Base 4:4.7.1
 _ZN11KDcrawIface12RIntNumInput11qt_metacastEPKc@Base 4:4.7.1
 _ZN11KDcrawIface12RIntNumInput12valueChangedEi@Base 4:4.7.1
 _ZN11KDcrawIface12RIntNumInput15setDefaultValueEi@Base 4:4.7.1
 _ZN11KDcrawIface12RIntNumInput16setSliderEnabledEb@Base 4:4.7.1
 _ZN11KDcrawIface12RIntNumInput16slotValueChangedEi@Base 4:4.7.1
 _ZN11KDcrawIface12RIntNumInput16staticMetaObjectE@Base 4:4.7.1
 _ZN11KDcrawIface12RIntNumInput5resetEv@Base 4:4.7.1
 _ZN11KDcrawIface12RIntNumInput8setRangeEiii@Base 4:4.7.1
 _ZN11KDcrawIface12RIntNumInput8setValueEi@Base 4:4.7.1
 _ZN11KDcrawIface12RIntNumInput9slotResetEv@Base 4:4.7.1
 _ZN11KDcrawIface12RIntNumInputC1EP7QWidget@Base 4:4.7.1
 _ZN11KDcrawIface12RIntNumInputC2EP7QWidget@Base 4:4.7.1
 _ZN11KDcrawIface12RIntNumInputD0Ev@Base 4:4.7.1
 _ZN11KDcrawIface12RIntNumInputD1Ev@Base 4:4.7.1
 _ZN11KDcrawIface12RIntNumInputD2Ev@Base 4:4.7.1
 _ZN11KDcrawIface14RLabelExpander10setCheckedEb@Base 4:4.7.1
 _ZN11KDcrawIface14RLabelExpander11eventFilterEP7QObjectP6QEvent@Base 4:4.7.1
 _ZN11KDcrawIface14RLabelExpander11qt_metacallEN11QMetaObject4CallEiPPv@Base 4:4.7.1
 _ZN11KDcrawIface14RLabelExpander11qt_metacastEPKc@Base 4:4.7.1
 _ZN11KDcrawIface14RLabelExpander11setExpandedEb@Base 4:4.7.1
 _ZN11KDcrawIface14RLabelExpander13signalToggledEb@Base 4:4.7.1
 _ZN11KDcrawIface14RLabelExpander14setLineVisibleEb@Base 4:4.7.1
 _ZN11KDcrawIface14RLabelExpander14signalExpandedEb@Base 4:4.7.1
 _ZN11KDcrawIface14RLabelExpander16staticMetaObjectE@Base 4:4.7.1
 _ZN11KDcrawIface14RLabelExpander18setCheckBoxVisibleEb@Base 4:4.7.1
 _ZN11KDcrawIface14RLabelExpander18setExpandByDefaultEb@Base 4:4.7.1
 _ZN11KDcrawIface14RLabelExpander19slotToggleContainerEv@Base 4:4.7.1
 _ZN11KDcrawIface14RLabelExpander7setIconERK7QPixmap@Base 4:4.7.1
 _ZN11KDcrawIface14RLabelExpander7setTextERK7QString@Base 4:4.7.1
 _ZN11KDcrawIface14RLabelExpander9setWidgetEP7QWidget@Base 4:4.7.1
 _ZN11KDcrawIface14RLabelExpanderC1EP7QWidget@Base 4:4.7.1
 _ZN11KDcrawIface14RLabelExpanderC2EP7QWidget@Base 4:4.7.1
 _ZN11KDcrawIface14RLabelExpanderD0Ev@Base 4:4.7.1
 _ZN11KDcrawIface14RLabelExpanderD1Ev@Base 4:4.7.1
 _ZN11KDcrawIface14RLabelExpanderD2Ev@Base 4:4.7.1
 _ZN11KDcrawIface15RDoubleNumInput11qt_metacallEN11QMetaObject4CallEiPPv@Base 4:4.7.1
 _ZN11KDcrawIface15RDoubleNumInput11qt_metacastEPKc@Base 4:4.7.1
 _ZN11KDcrawIface15RDoubleNumInput11setDecimalsEi@Base 4:4.7.1
 _ZN11KDcrawIface15RDoubleNumInput12valueChangedEd@Base 4:4.7.1
 _ZN11KDcrawIface15RDoubleNumInput15setDefaultValueEd@Base 4:4.7.1
 _ZN11KDcrawIface15RDoubleNumInput16slotValueChangedEd@Base 4:4.7.1
 _ZN11KDcrawIface15RDoubleNumInput16staticMetaObjectE@Base 4:4.7.1
 _ZN11KDcrawIface15RDoubleNumInput5resetEv@Base 4:4.7.1
 _ZN11KDcrawIface15RDoubleNumInput8setRangeEdddb@Base 4:4.7.1
 _ZN11KDcrawIface15RDoubleNumInput8setValueEd@Base 4:4.7.1
 _ZN11KDcrawIface15RDoubleNumInput9slotResetEv@Base 4:4.7.1
 _ZN11KDcrawIface15RDoubleNumInputC1EP7QWidget@Base 4:4.7.1
 _ZN11KDcrawIface15RDoubleNumInputC2EP7QWidget@Base 4:4.7.1
 _ZN11KDcrawIface15RDoubleNumInputD0Ev@Base 4:4.7.1
 _ZN11KDcrawIface15RDoubleNumInputD1Ev@Base 4:4.7.1
 _ZN11KDcrawIface15RDoubleNumInputD2Ev@Base 4:4.7.1
 _ZN11KDcrawIface16RArrowClickLabel10paintEventEP11QPaintEvent@Base 4:4.7.1
 _ZN11KDcrawIface16RArrowClickLabel11leftClickedEv@Base 4:4.7.1
 _ZN11KDcrawIface16RArrowClickLabel11qt_metacallEN11QMetaObject4CallEiPPv@Base 4:4.7.1
 _ZN11KDcrawIface16RArrowClickLabel11qt_metacastEPKc@Base 4:4.7.1
 _ZN11KDcrawIface16RArrowClickLabel12setArrowTypeEN2Qt9ArrowTypeE@Base 4:4.7.1
 _ZN11KDcrawIface16RArrowClickLabel15mousePressEventEP11QMouseEvent@Base 4:4.7.1
 _ZN11KDcrawIface16RArrowClickLabel16staticMetaObjectE@Base 4:4.7.1
 _ZN11KDcrawIface16RArrowClickLabel17mouseReleaseEventEP11QMouseEvent@Base 4:4.7.1
 _ZN11KDcrawIface16RArrowClickLabelC1EP7QWidget@Base 4:4.7.1
 _ZN11KDcrawIface16RArrowClickLabelC2EP7QWidget@Base 4:4.7.1
 _ZN11KDcrawIface16RArrowClickLabelD0Ev@Base 4:4.8.4
 _ZN11KDcrawIface16RArrowClickLabelD1Ev@Base 4:4.8.4
 _ZN11KDcrawIface16RArrowClickLabelD2Ev@Base 4:4.8.4
 _ZN11KDcrawIface16SqueezedComboBox10setCurrentERK7QString@Base 4:4.7.1
 _ZN11KDcrawIface16SqueezedComboBox11qt_metacallEN11QMetaObject4CallEiPPv@Base 4:4.7.1
 _ZN11KDcrawIface16SqueezedComboBox11qt_metacastEPKc@Base 4:4.7.1
 _ZN11KDcrawIface16SqueezedComboBox11resizeEventEP12QResizeEvent@Base 4:4.7.1
 _ZN11KDcrawIface16SqueezedComboBox11slotTimeOutEv@Base 4:4.7.1
 _ZN11KDcrawIface16SqueezedComboBox15addSqueezedItemERK7QStringRK8QVariant@Base 4:4.7.1
 _ZN11KDcrawIface16SqueezedComboBox16staticMetaObjectE@Base 4:4.7.1
 _ZN11KDcrawIface16SqueezedComboBox17slotUpdateToolTipEi@Base 4:4.7.1
 _ZN11KDcrawIface16SqueezedComboBox18insertSqueezedItemERK7QStringiRK8QVariant@Base 4:4.7.1
 _ZN11KDcrawIface16SqueezedComboBox18insertSqueezedListERK11QStringListi@Base 4:4.7.1
 _ZN11KDcrawIface16SqueezedComboBoxC1EP7QWidgetPKc@Base 4:4.7.1
 _ZN11KDcrawIface16SqueezedComboBoxC2EP7QWidgetPKc@Base 4:4.7.1
 _ZN11KDcrawIface16SqueezedComboBoxD0Ev@Base 4:4.7.1
 _ZN11KDcrawIface16SqueezedComboBoxD1Ev@Base 4:4.7.1
 _ZN11KDcrawIface16SqueezedComboBoxD2Ev@Base 4:4.7.1
 _ZN11KDcrawIface17RActionThreadBase11qt_metacallEN11QMetaObject4CallEiPPv@Base 4:4.10.2
 _ZN11KDcrawIface17RActionThreadBase11qt_metacastEPKc@Base 4:4.10.2
 _ZN11KDcrawIface17RActionThreadBase12slotFinishedEv@Base 4:4.10.2
 _ZN11KDcrawIface17RActionThreadBase16staticMetaObjectE@Base 4:4.10.2
 _ZN11KDcrawIface17RActionThreadBase25setMaximumNumberOfThreadsEi@Base 4:4.10.2
 _ZN11KDcrawIface17RActionThreadBase3runEv@Base 4:4.10.2
 _ZN11KDcrawIface17RActionThreadBase6cancelEv@Base 4:4.10.2
 _ZN11KDcrawIface17RActionThreadBase6finishEv@Base 4:4.10.2
 _ZN11KDcrawIface17RActionThreadBase9appendJobEPN12ThreadWeaver13JobCollectionE@Base 4:4.10.2
 _ZN11KDcrawIface17RActionThreadBaseC1EP7QObject@Base 4:4.10.2
 _ZN11KDcrawIface17RActionThreadBaseC2EP7QObject@Base 4:4.10.2
 _ZN11KDcrawIface17RActionThreadBaseD0Ev@Base 4:4.10.2
 _ZN11KDcrawIface17RActionThreadBaseD1Ev@Base 4:4.10.2
 _ZN11KDcrawIface17RActionThreadBaseD2Ev@Base 4:4.10.2
 _ZN11KDcrawIface18DcrawInfoContainer7isEmptyEv@Base 4:4.7.1
 _ZN11KDcrawIface18DcrawInfoContainerC1Ev@Base 4:4.7.1
 _ZN11KDcrawIface18DcrawInfoContainerC2Ev@Base 4:4.7.1
 _ZN11KDcrawIface18DcrawInfoContainerD0Ev@Base 4:4.7.1
 _ZN11KDcrawIface18DcrawInfoContainerD1Ev@Base 4:4.7.1
 _ZN11KDcrawIface18DcrawInfoContainerD2Ev@Base 4:4.7.1
 _ZN11KDcrawIface19DcrawSettingsWidget11qt_metacallEN11QMetaObject4CallEiPPv@Base 4:4.7.1
 _ZN11KDcrawIface19DcrawSettingsWidget11qt_metacastEPKc@Base 4:4.7.1
 _ZN11KDcrawIface19DcrawSettingsWidget11setSettingsERKNS_19RawDecodingSettingsE@Base 4:4.7.1
 _ZN11KDcrawIface19DcrawSettingsWidget12readSettingsER12KConfigGroup@Base 4:4.7.1
 _ZN11KDcrawIface19DcrawSettingsWidget13writeSettingsER12KConfigGroup@Base 4:4.7.1
 _ZN11KDcrawIface19DcrawSettingsWidget14resetToDefaultEv@Base 4:4.7.1
 _ZN11KDcrawIface19DcrawSettingsWidget15processDcrawUrlERK7QString@Base 4:4.7.1
 _ZN11KDcrawIface19DcrawSettingsWidget16staticMetaObjectE@Base 4:4.7.1
 _ZN11KDcrawIface19DcrawSettingsWidget17slotAutoCAToggledEb@Base 4:4.7.1
 _ZN11KDcrawIface19DcrawSettingsWidget18updateMinimumWidthEv@Base 4:4.7.1
 _ZN11KDcrawIface19DcrawSettingsWidget21signalSettingsChangedEv@Base 4:4.7.1
 _ZN11KDcrawIface19DcrawSettingsWidget21slotRAWQualityChangedEi@Base 4:4.7.1
 _ZN11KDcrawIface19DcrawSettingsWidget23slotCACorrectionToggledEb@Base 4:4.7.1
 _ZN11KDcrawIface19DcrawSettingsWidget23slotWhiteBalanceToggledEi@Base 4:4.7.1
 _ZN11KDcrawIface19DcrawSettingsWidget24slotUnclipColorActivatedEi@Base 4:4.7.1
 _ZN11KDcrawIface19DcrawSettingsWidget25slotNoiseReductionChangedEi@Base 4:4.7.1
 _ZN11KDcrawIface19DcrawSettingsWidget26slotInputColorSpaceChangedEi@Base 4:4.7.1
 _ZN11KDcrawIface19DcrawSettingsWidget27slotOutputColorSpaceChangedEi@Base 4:4.7.1
 _ZN11KDcrawIface19DcrawSettingsWidget27slotsixteenBitsImageToggledEb@Base 4:4.7.1
 _ZN11KDcrawIface19DcrawSettingsWidget28setEnabledBrightnessSettingsEb@Base 4:4.7.1
 _ZN11KDcrawIface19DcrawSettingsWidget29signalSixteenBitsImageToggledEb@Base 4:4.7.1
 _ZN11KDcrawIface19DcrawSettingsWidget29slotExposureCorrectionToggledEb@Base 4:4.7.1
 _ZN11KDcrawIface19DcrawSettingsWidget5setupEi@Base 4:4.7.1
 _ZN11KDcrawIface19DcrawSettingsWidgetC1EP7QWidgeti@Base 4:4.7.1
 _ZN11KDcrawIface19DcrawSettingsWidgetC2EP7QWidgeti@Base 4:4.7.1
 _ZN11KDcrawIface19DcrawSettingsWidgetD0Ev@Base 4:4.7.1
 _ZN11KDcrawIface19DcrawSettingsWidgetD1Ev@Base 4:4.7.1
 _ZN11KDcrawIface19DcrawSettingsWidgetD2Ev@Base 4:4.7.1
 _ZN11KDcrawIface19RSqueezedClickLabel11leftClickedEv@Base 4:4.7.1
 _ZN11KDcrawIface19RSqueezedClickLabel11qt_metacallEN11QMetaObject4CallEiPPv@Base 4:4.7.1
 _ZN11KDcrawIface19RSqueezedClickLabel11qt_metacastEPKc@Base 4:4.7.1
 _ZN11KDcrawIface19RSqueezedClickLabel13keyPressEventEP9QKeyEvent@Base 4:4.7.1
 _ZN11KDcrawIface19RSqueezedClickLabel15mousePressEventEP11QMouseEvent@Base 4:4.7.1
 _ZN11KDcrawIface19RSqueezedClickLabel16staticMetaObjectE@Base 4:4.7.1
 _ZN11KDcrawIface19RSqueezedClickLabel17mouseReleaseEventEP11QMouseEvent@Base 4:4.7.1
 _ZN11KDcrawIface19RSqueezedClickLabel9activatedEv@Base 4:4.7.1
 _ZN11KDcrawIface19RSqueezedClickLabelC1EP7QWidget@Base 4:4.7.1
 _ZN11KDcrawIface19RSqueezedClickLabelC1ERK7QStringP7QWidget@Base 4:4.7.1
 _ZN11KDcrawIface19RSqueezedClickLabelC2EP7QWidget@Base 4:4.7.1
 _ZN11KDcrawIface19RSqueezedClickLabelC2ERK7QStringP7QWidget@Base 4:4.7.1
 _ZN11KDcrawIface19RSqueezedClickLabelD0Ev@Base 4:4.8.4
 _ZN11KDcrawIface19RSqueezedClickLabelD1Ev@Base 4:4.8.4
 _ZN11KDcrawIface19RSqueezedClickLabelD2Ev@Base 4:4.8.4
 _ZN11KDcrawIface19RawDecodingSettings12readSettingsER12KConfigGroup@Base 4:4.7.1
 _ZN11KDcrawIface19RawDecodingSettings13writeSettingsER12KConfigGroup@Base 4:4.7.1
 _ZN11KDcrawIface19RawDecodingSettings19optimizeTimeLoadingEv@Base 4:4.7.1
 _ZN11KDcrawIface19RawDecodingSettingsC1Ev@Base 4:4.7.1
 _ZN11KDcrawIface19RawDecodingSettingsC2Ev@Base 4:4.7.1
 _ZN11KDcrawIface19RawDecodingSettingsD0Ev@Base 4:4.7.1
 _ZN11KDcrawIface19RawDecodingSettingsD1Ev@Base 4:4.7.1
 _ZN11KDcrawIface19RawDecodingSettingsD2Ev@Base 4:4.7.1
 _ZN11KDcrawIface19RawDecodingSettingsaSERKS0_@Base 4:4.7.1
 _ZN11KDcrawIface21RExpanderBoxExclusive11qt_metacallEN11QMetaObject4CallEiPPv@Base 4:4.7.1
 _ZN11KDcrawIface21RExpanderBoxExclusive11qt_metacastEPKc@Base 4:4.7.1
 _ZN11KDcrawIface21RExpanderBoxExclusive12setIsToolBoxEb@Base 4:4.7.1
 _ZN11KDcrawIface21RExpanderBoxExclusive16slotItemExpandedEb@Base 4:4.7.1
 _ZN11KDcrawIface21RExpanderBoxExclusive16staticMetaObjectE@Base 4:4.7.1
 _ZN11KDcrawIface21RExpanderBoxExclusiveC1EP7QWidget@Base 4:4.7.1
 _ZN11KDcrawIface21RExpanderBoxExclusiveC2EP7QWidget@Base 4:4.7.1
 _ZN11KDcrawIface21RExpanderBoxExclusiveD0Ev@Base 4:4.7.1
 _ZN11KDcrawIface21RExpanderBoxExclusiveD1Ev@Base 4:4.7.1
 _ZN11KDcrawIface21RExpanderBoxExclusiveD2Ev@Base 4:4.7.1
 _ZN11KDcrawIface6KDcraw11qt_metacallEN11QMetaObject4CallEiPPv@Base 4:4.7.1
 _ZN11KDcrawIface6KDcraw11qt_metacastEPKc@Base 4:4.7.1
 _ZN11KDcrawIface6KDcraw12rawFilesListEv@Base 4:4.7.1
 _ZN11KDcrawIface6KDcraw13librawUseGompEv@Base 4:4.7.1
 _ZN11KDcrawIface6KDcraw13librawVersionEv@Base 4:4.7.1
 _ZN11KDcrawIface6KDcraw13loadFullImageER6QImageRK7QStringRKNS_19RawDecodingSettingsE@Base 4:4.10.2
 _ZN11KDcrawIface6KDcraw14decodeRAWImageERK7QStringRKNS_19RawDecodingSettingsER10QByteArrayRiS9_S9_@Base 4:4.7.1
 _ZN11KDcrawIface6KDcraw14extractRAWDataERK7QStringR10QByteArrayRNS_18DcrawInfoContainerEj@Base 4:4.10.2
 _ZN11KDcrawIface6KDcraw14loadRawPreviewER6QImageRK7QString@Base 4:4.10.2
 _ZN11KDcrawIface6KDcraw15loadHalfPreviewER6QImageRK7QString@Base 4:4.7.1
 _ZN11KDcrawIface6KDcraw15rawFileIdentifyERNS_18DcrawInfoContainerERK7QString@Base 4:4.7.1
 _ZN11KDcrawIface6KDcraw15rawFilesVersionEv@Base 4:4.7.1
 _ZN11KDcrawIface6KDcraw15supportedCameraEv@Base 4:4.7.1
 _ZN11KDcrawIface6KDcraw16staticMetaObjectE@Base 4:4.7.1
 _ZN11KDcrawIface6KDcraw17librawUseRawSpeedEv@Base 4:4.10.2
 _ZN11KDcrawIface6KDcraw18decodeHalfRAWImageERK7QStringRKNS_19RawDecodingSettingsER10QByteArrayRiS9_S9_@Base 4:4.7.1
 _ZN11KDcrawIface6KDcraw19loadEmbeddedPreviewER10QByteArrayRK7QString@Base 4:4.7.1
 _ZN11KDcrawIface6KDcraw19loadEmbeddedPreviewER6QImageRK7QString@Base 4:4.7.1
 _ZN11KDcrawIface6KDcraw22setWaitingDataProgressEd@Base 4:4.7.1
 _ZN11KDcrawIface6KDcraw24checkToCancelWaitingDataEv@Base 4:4.7.1
 _ZN11KDcrawIface6KDcraw6cancelEv@Base 4:4.7.1
 _ZN11KDcrawIface6KDcraw7Private11setProgressEd@Base 4:4.10.2
 _ZN11KDcrawIface6KDcraw7Private14loadFromLibrawERK7QStringR10QByteArrayRiS7_S7_@Base 4:4.10.2
 _ZN11KDcrawIface6KDcraw7Private15createPPMHeaderER10QByteArrayP24libraw_processed_image_t@Base 4:4.10.2
 _ZN11KDcrawIface6KDcraw7Private16progressCallbackE15LibRaw_progressii@Base 4:4.10.2
 _ZN11KDcrawIface6KDcraw7Private17fillIndentifyInfoEP6LibRawRNS_18DcrawInfoContainerE@Base 4:4.10.2
 _ZN11KDcrawIface6KDcraw7PrivateC1EPS0_@Base 4:4.10.2
 _ZN11KDcrawIface6KDcraw7PrivateC2EPS0_@Base 4:4.10.2
 _ZN11KDcrawIface6KDcraw7PrivateD1Ev@Base 4:4.10.2
 _ZN11KDcrawIface6KDcraw7PrivateD2Ev@Base 4:4.10.2
 _ZN11KDcrawIface6KDcraw7versionEv@Base 4:4.7.1
 _ZN11KDcrawIface6KDcraw8rawFilesEv@Base 4:4.7.1
 _ZN11KDcrawIface6KDcrawC1Ev@Base 4:4.7.1
 _ZN11KDcrawIface6KDcrawC2Ev@Base 4:4.7.1
 _ZN11KDcrawIface6KDcrawD0Ev@Base 4:4.7.1
 _ZN11KDcrawIface6KDcrawD1Ev@Base 4:4.7.1
 _ZN11KDcrawIface6KDcrawD2Ev@Base 4:4.7.1
 _ZN11KDcrawIface9RComboBox10insertItemEiRK7QString@Base 4:4.7.1
 _ZN11KDcrawIface9RComboBox11qt_metacallEN11QMetaObject4CallEiPPv@Base 4:4.7.1
 _ZN11KDcrawIface9RComboBox11qt_metacastEPKc@Base 4:4.7.1
 _ZN11KDcrawIface9RComboBox15setCurrentIndexEi@Base 4:4.7.1
 _ZN11KDcrawIface9RComboBox15setDefaultIndexEi@Base 4:4.7.1
 _ZN11KDcrawIface9RComboBox16staticMetaObjectE@Base 4:4.7.1
 _ZN11KDcrawIface9RComboBox17slotItemActivatedEi@Base 4:4.7.1
 _ZN11KDcrawIface9RComboBox19currentIndexChangedEi@Base 4:4.7.1
 _ZN11KDcrawIface9RComboBox23slotCurrentIndexChangedEi@Base 4:4.7.1
 _ZN11KDcrawIface9RComboBox5resetEv@Base 4:4.7.1
 _ZN11KDcrawIface9RComboBox7addItemERK7QStringi@Base 4:4.7.1
 _ZN11KDcrawIface9RComboBox9activatedEi@Base 4:4.7.1
 _ZN11KDcrawIface9RComboBox9slotResetEv@Base 4:4.7.1
 _ZN11KDcrawIface9RComboBoxC1EP7QWidget@Base 4:4.7.1
 _ZN11KDcrawIface9RComboBoxC2EP7QWidget@Base 4:4.7.1
 _ZN11KDcrawIface9RComboBoxD0Ev@Base 4:4.7.1
 _ZN11KDcrawIface9RComboBoxD1Ev@Base 4:4.7.1
 _ZN11KDcrawIface9RComboBoxD2Ev@Base 4:4.7.1
 _ZN11KDcrawIfacelsE6QDebugRKNS_18DcrawInfoContainerE@Base 4:4.7.1
 _ZN11KDcrawIfacelsE6QDebugRKNS_19RawDecodingSettingsE@Base 4:4.7.1
 _ZNK11KDcrawIface11RClickLabel10metaObjectEv@Base 4:4.7.1
 _ZNK11KDcrawIface12RExpanderBox10metaObjectEv@Base 4:4.7.1
 _ZNK11KDcrawIface12RExpanderBox11itemToolTipEi@Base 4:4.7.1
 _ZNK11KDcrawIface12RExpanderBox13isItemEnabledEi@Base 4:4.7.1
 _ZNK11KDcrawIface12RExpanderBox14isItemExpandedEi@Base 4:4.7.1
 _ZNK11KDcrawIface12RExpanderBox17checkBoxIsVisibleEi@Base 4:4.7.1
 _ZNK11KDcrawIface12RExpanderBox5countEv@Base 4:4.7.1
 _ZNK11KDcrawIface12RExpanderBox6widgetEi@Base 4:4.7.1
 _ZNK11KDcrawIface12RExpanderBox7indexOfEPNS_14RLabelExpanderE@Base 4:4.7.1
 _ZNK11KDcrawIface12RExpanderBox8itemIconEi@Base 4:4.7.1
 _ZNK11KDcrawIface12RExpanderBox8itemTextEi@Base 4:4.7.1
 _ZNK11KDcrawIface12RExpanderBox9isCheckedEi@Base 4:4.7.1
 _ZNK11KDcrawIface12RIntNumInput10metaObjectEv@Base 4:4.7.1
 _ZNK11KDcrawIface12RIntNumInput12defaultValueEv@Base 4:4.10.2
 _ZNK11KDcrawIface12RIntNumInput5inputEv@Base 4:4.7.1
 _ZNK11KDcrawIface12RIntNumInput5valueEv@Base 4:4.10.2
 _ZNK11KDcrawIface14RLabelExpander10isExpandedEv@Base 4:4.7.1
 _ZNK11KDcrawIface14RLabelExpander10metaObjectEv@Base 4:4.7.1
 _ZNK11KDcrawIface14RLabelExpander13lineIsVisibleEv@Base 4:4.7.1
 _ZNK11KDcrawIface14RLabelExpander17checkBoxIsVisibleEv@Base 4:4.7.1
 _ZNK11KDcrawIface14RLabelExpander17isExpandByDefaultEv@Base 4:4.7.1
 _ZNK11KDcrawIface14RLabelExpander4iconEv@Base 4:4.7.1
 _ZNK11KDcrawIface14RLabelExpander4textEv@Base 4:4.7.1
 _ZNK11KDcrawIface14RLabelExpander6widgetEv@Base 4:4.7.1
 _ZNK11KDcrawIface14RLabelExpander9isCheckedEv@Base 4:4.7.1
 _ZNK11KDcrawIface15RDoubleNumInput10metaObjectEv@Base 4:4.7.1
 _ZNK11KDcrawIface15RDoubleNumInput12defaultValueEv@Base 4:4.10.2
 _ZNK11KDcrawIface15RDoubleNumInput5inputEv@Base 4:4.7.1
 _ZNK11KDcrawIface15RDoubleNumInput5valueEv@Base 4:4.10.2
 _ZNK11KDcrawIface16RArrowClickLabel10metaObjectEv@Base 4:4.7.1
 _ZNK11KDcrawIface16RArrowClickLabel8sizeHintEv@Base 4:4.7.1
 _ZNK11KDcrawIface16RArrowClickLabel9arrowTypeEv@Base 4:4.7.1
 _ZNK11KDcrawIface16SqueezedComboBox10metaObjectEv@Base 4:4.7.1
 _ZNK11KDcrawIface16SqueezedComboBox11squeezeTextERK7QString@Base 4:4.10.2
 _ZNK11KDcrawIface16SqueezedComboBox15itemHighlightedEv@Base 4:4.10.2
 _ZNK11KDcrawIface16SqueezedComboBox4itemEi@Base 4:4.10.2
 _ZNK11KDcrawIface16SqueezedComboBox8containsERK7QString@Base 4:4.7.1
 _ZNK11KDcrawIface16SqueezedComboBox8sizeHintEv@Base 4:4.7.1
 _ZNK11KDcrawIface17RActionThreadBase10metaObjectEv@Base 4:4.10.2
 _ZNK11KDcrawIface17RActionThreadBase7isEmptyEv@Base 4:4.10.2
 _ZNK11KDcrawIface19DcrawSettingsWidget10metaObjectEv@Base 4:4.7.1
 _ZNK11KDcrawIface19DcrawSettingsWidget19inputProfileUrlEditEv@Base 4:4.7.1
 _ZNK11KDcrawIface19DcrawSettingsWidget20outputProfileUrlEditEv@Base 4:4.7.1
 _ZNK11KDcrawIface19DcrawSettingsWidget27brightnessSettingsIsEnabledEv@Base 4:4.10.2
 _ZNK11KDcrawIface19DcrawSettingsWidget8settingsEv@Base 4:4.7.1
 _ZNK11KDcrawIface19RSqueezedClickLabel10metaObjectEv@Base 4:4.7.1
 _ZNK11KDcrawIface19RawDecodingSettingseqERKS0_@Base 4:4.7.1
 _ZNK11KDcrawIface21RExpanderBoxExclusive10metaObjectEv@Base 4:4.7.1
 _ZNK11KDcrawIface21RExpanderBoxExclusive9isToolBoxEv@Base 4:4.7.1
 _ZNK11KDcrawIface6KDcraw10metaObjectEv@Base 4:4.7.1
 _ZNK11KDcrawIface6KDcraw7Private13progressValueEv@Base 4:4.10.2
 _ZNK11KDcrawIface9RComboBox10metaObjectEv@Base 4:4.7.1
 _ZNK11KDcrawIface9RComboBox12currentIndexEv@Base 4:4.10.2
 _ZNK11KDcrawIface9RComboBox12defaultIndexEv@Base 4:4.10.2
 _ZNK11KDcrawIface9RComboBox5comboEv@Base 4:4.7.1
 _ZTI17LibRaw_exceptions@Base 4:4.7.1
 _ZTIN11KDcrawIface11RClickLabelE@Base 4:4.7.1
 _ZTIN11KDcrawIface12RExpanderBoxE@Base 4:4.7.1
 _ZTIN11KDcrawIface12RIntNumInputE@Base 4:4.7.1
 _ZTIN11KDcrawIface14RLabelExpanderE@Base 4:4.7.1
 _ZTIN11KDcrawIface15RDoubleNumInputE@Base 4:4.7.1
 _ZTIN11KDcrawIface16RArrowClickLabelE@Base 4:4.7.1
 _ZTIN11KDcrawIface16SqueezedComboBoxE@Base 4:4.7.1
 _ZTIN11KDcrawIface17RActionThreadBaseE@Base 4:4.10.2
 _ZTIN11KDcrawIface18DcrawInfoContainerE@Base 4:4.7.1
 _ZTIN11KDcrawIface19DcrawSettingsWidgetE@Base 4:4.7.1
 _ZTIN11KDcrawIface19RSqueezedClickLabelE@Base 4:4.7.1
 _ZTIN11KDcrawIface19RawDecodingSettingsE@Base 4:4.7.1
 _ZTIN11KDcrawIface21RExpanderBoxExclusiveE@Base 4:4.7.1
 _ZTIN11KDcrawIface6KDcrawE@Base 4:4.7.1
 _ZTIN11KDcrawIface9RComboBoxE@Base 4:4.7.1
 _ZTS17LibRaw_exceptions@Base 4:4.7.1
 _ZTSN11KDcrawIface11RClickLabelE@Base 4:4.7.1
 _ZTSN11KDcrawIface12RExpanderBoxE@Base 4:4.7.1
 _ZTSN11KDcrawIface12RIntNumInputE@Base 4:4.7.1
 _ZTSN11KDcrawIface14RLabelExpanderE@Base 4:4.7.1
 _ZTSN11KDcrawIface15RDoubleNumInputE@Base 4:4.7.1
 _ZTSN11KDcrawIface16RArrowClickLabelE@Base 4:4.7.1
 _ZTSN11KDcrawIface16SqueezedComboBoxE@Base 4:4.7.1
 _ZTSN11KDcrawIface17RActionThreadBaseE@Base 4:4.10.2
 _ZTSN11KDcrawIface18DcrawInfoContainerE@Base 4:4.7.1
 _ZTSN11KDcrawIface19DcrawSettingsWidgetE@Base 4:4.7.1
 _ZTSN11KDcrawIface19RSqueezedClickLabelE@Base 4:4.7.1
 _ZTSN11KDcrawIface19RawDecodingSettingsE@Base 4:4.7.1
 _ZTSN11KDcrawIface21RExpanderBoxExclusiveE@Base 4:4.7.1
 _ZTSN11KDcrawIface6KDcrawE@Base 4:4.7.1
 _ZTSN11KDcrawIface9RComboBoxE@Base 4:4.7.1
 _ZTVN11KDcrawIface11RClickLabelE@Base 4:4.7.1
 _ZTVN11KDcrawIface12RExpanderBoxE@Base 4:4.7.1
 _ZTVN11KDcrawIface12RIntNumInputE@Base 4:4.7.1
 _ZTVN11KDcrawIface14RLabelExpanderE@Base 4:4.7.1
 _ZTVN11KDcrawIface15RDoubleNumInputE@Base 4:4.7.1
 _ZTVN11KDcrawIface16RArrowClickLabelE@Base 4:4.7.1
 _ZTVN11KDcrawIface16SqueezedComboBoxE@Base 4:4.7.1
 _ZTVN11KDcrawIface17RActionThreadBaseE@Base 4:4.10.2
 _ZTVN11KDcrawIface18DcrawInfoContainerE@Base 4:4.7.1
 _ZTVN11KDcrawIface19DcrawSettingsWidgetE@Base 4:4.7.1
 _ZTVN11KDcrawIface19RSqueezedClickLabelE@Base 4:4.7.1
 _ZTVN11KDcrawIface19RawDecodingSettingsE@Base 4:4.7.1
 _ZTVN11KDcrawIface21RExpanderBoxExclusiveE@Base 4:4.7.1
 _ZTVN11KDcrawIface6KDcrawE@Base 4:4.7.1
 _ZTVN11KDcrawIface9RComboBoxE@Base 4:4.7.1
 (c++)"non-virtual thunk to KDcrawIface::DcrawSettingsWidget::~DcrawSettingsWidget()@Base" 4:4.7.1
 (c++)"non-virtual thunk to KDcrawIface::RArrowClickLabel::~RArrowClickLabel()@Base" 4:4.8.4
 (c++)"non-virtual thunk to KDcrawIface::RClickLabel::~RClickLabel()@Base" 4:4.8.4
 (c++)"non-virtual thunk to KDcrawIface::RComboBox::~RComboBox()@Base" 4:4.7.1
 (c++)"non-virtual thunk to KDcrawIface::RDoubleNumInput::~RDoubleNumInput()@Base" 4:4.7.1
 (c++)"non-virtual thunk to KDcrawIface::RExpanderBox::~RExpanderBox()@Base" 4:4.7.1
 (c++)"non-virtual thunk to KDcrawIface::RExpanderBoxExclusive::~RExpanderBoxExclusive()@Base" 4:4.7.1
 (c++)"non-virtual thunk to KDcrawIface::RIntNumInput::~RIntNumInput()@Base" 4:4.7.1
 (c++)"non-virtual thunk to KDcrawIface::RLabelExpander::~RLabelExpander()@Base" 4:4.7.1
 (c++)"non-virtual thunk to KDcrawIface::RSqueezedClickLabel::~RSqueezedClickLabel()@Base" 4:4.8.4
 (c++)"non-virtual thunk to KDcrawIface::SqueezedComboBox::~SqueezedComboBox()@Base" 4:4.7.1
