# SymbolsHelper-Confirmed: 4:4.6.0really4.5.0 amd64
libphononexperimental.so.4 libphononexperimental4 #MINVER#, phononexperimental-abi-1
 _ZN6Phonon10PacketPoolC1ERKS0_@Base 4:4.6.0really4.4.4
 _ZN6Phonon10PacketPoolC1Eii@Base 4:4.6.0really4.4.4
 _ZN6Phonon10PacketPoolC2ERKS0_@Base 4:4.6.0really4.4.4
 _ZN6Phonon10PacketPoolC2Eii@Base 4:4.6.0really4.4.4
 _ZN6Phonon10PacketPoolD1Ev@Base 4:4.6.0really4.4.4
 _ZN6Phonon10PacketPoolD2Ev@Base 4:4.6.0really4.4.4
 _ZN6Phonon10PacketPoolaSERKS0_@Base 4:4.6.0really4.4.4
 _ZN6Phonon12Experimental11MediaSourceC1ERK5QListINS_11MediaSourceEE@Base 4:4.6.0really4.4.4
 _ZN6Phonon12Experimental11MediaSourceC1ERKNS_17ObjectDescriptionILNS_21ObjectDescriptionTypeE65536EEE@Base 4:4.6.0really4.4.4
 _ZN6Phonon12Experimental11MediaSourceC1ERKS1_@Base 4:4.6.0really4.4.4
 _ZN6Phonon12Experimental11MediaSourceC2ERK5QListINS_11MediaSourceEE@Base 4:4.6.0really4.4.4
 _ZN6Phonon12Experimental11MediaSourceC2ERKNS_17ObjectDescriptionILNS_21ObjectDescriptionTypeE65536EEE@Base 4:4.6.0really4.4.4
 _ZN6Phonon12Experimental11MediaSourceC2ERKS1_@Base 4:4.6.0really4.4.4
 _ZN6Phonon12Experimental11MediaSourceaSERKS1_@Base 4:4.6.0really4.4.4
 _ZN6Phonon12Experimental13Visualization11qt_metacallEN11QMetaObject4CallEiPPv@Base 4:4.6.0really4.4.4
 _ZN6Phonon12Experimental13Visualization11qt_metacastEPKc@Base 4:4.6.0really4.4.4
 _ZN6Phonon12Experimental13Visualization16setVisualizationERKNS_17ObjectDescriptionILNS_21ObjectDescriptionTypeE4294967294EEE@Base 4:4.6.0really4.4.4
 _ZN6Phonon12Experimental13Visualization16staticMetaObjectE@Base 4:4.6.0really4.4.4
 _ZN6Phonon12Experimental13VisualizationC1EP7QObject@Base 4:4.6.0really4.4.4
 _ZN6Phonon12Experimental13VisualizationC2EP7QObject@Base 4:4.6.0really4.4.4
 _ZN6Phonon12Experimental13VisualizationD0Ev@Base 4:4.6.0really4.4.4
 _ZN6Phonon12Experimental13VisualizationD1Ev@Base 4:4.6.0really4.4.4
 _ZN6Phonon12Experimental13VisualizationD2Ev@Base 4:4.6.0really4.4.4
 _ZN6Phonon12Experimental15AudioDataOutput10endOfMediaEi@Base 4:4.6.0really4.4.4
 _ZN6Phonon12Experimental15AudioDataOutput11qt_metacallEN11QMetaObject4CallEiPPv@Base 4:4.6.0really4.4.4
 _ZN6Phonon12Experimental15AudioDataOutput11qt_metacastEPKc@Base 4:4.6.0really4.4.4
 _ZN6Phonon12Experimental15AudioDataOutput11setDataSizeEi@Base 4:4.6.0really4.4.4
 _ZN6Phonon12Experimental15AudioDataOutput16staticMetaObjectE@Base 4:4.6.0really4.4.4
 _ZN6Phonon12Experimental15AudioDataOutput9dataReadyERK4QMapINS1_7ChannelE7QVectorIfEE@Base 4:4.6.0really4.4.4
 _ZN6Phonon12Experimental15AudioDataOutput9dataReadyERK4QMapINS1_7ChannelE7QVectorIsEE@Base 4:4.6.0really4.4.4
 _ZN6Phonon12Experimental15AudioDataOutput9setFormatENS1_6FormatE@Base 4:4.6.0really4.4.4
 _ZN6Phonon12Experimental15AudioDataOutputC1EP7QObject@Base 4:4.6.0really4.4.4
 _ZN6Phonon12Experimental15AudioDataOutputC2EP7QObject@Base 4:4.6.0really4.4.4
 _ZN6Phonon12Experimental15AudioDataOutputD0Ev@Base 4:4.6.0really4.5.0
 _ZN6Phonon12Experimental15AudioDataOutputD1Ev@Base 4:4.6.0really4.5.0
 _ZN6Phonon12Experimental15AudioDataOutputD2Ev@Base 4:4.6.0really4.5.0
 _ZN6Phonon12Experimental15VideoDataOutput10endOfMediaEv@Base 4:4.6.0really4.4.4
 _ZN6Phonon12Experimental15VideoDataOutput10setRunningEb@Base 4:4.6.0really4.4.4
 _ZN6Phonon12Experimental15VideoDataOutput11qt_metacallEN11QMetaObject4CallEiPPv@Base 4:4.6.0really4.4.4
 _ZN6Phonon12Experimental15VideoDataOutput11qt_metacastEPKc@Base 4:4.6.0really4.4.4
 _ZN6Phonon12Experimental15VideoDataOutput12displayFrameExx@Base 4:4.6.0really4.4.4
 _ZN6Phonon12Experimental15VideoDataOutput12frameForTimeEx@Base 4:4.6.0really4.4.4
 _ZN6Phonon12Experimental15VideoDataOutput16staticMetaObjectE@Base 4:4.6.0really4.4.4
 _ZN6Phonon12Experimental15VideoDataOutput4stopEv@Base 4:4.6.0really4.4.4
 _ZN6Phonon12Experimental15VideoDataOutput5startEv@Base 4:4.6.0really4.4.4
 _ZN6Phonon12Experimental15VideoDataOutputC1EP7QObject@Base 4:4.6.0really4.4.4
 _ZN6Phonon12Experimental15VideoDataOutputC2EP7QObject@Base 4:4.6.0really4.4.4
 _ZN6Phonon12Experimental15VideoDataOutputD0Ev@Base 4:4.6.0really4.5.0
 _ZN6Phonon12Experimental15VideoDataOutputD1Ev@Base 4:4.6.0really4.5.0
 _ZN6Phonon12Experimental15VideoDataOutputD2Ev@Base 4:4.6.0really4.5.0
 _ZN6Phonon12Experimental16VideoDataOutput210endOfMediaEv@Base 4:4.6.0really4.4.4
 _ZN6Phonon12Experimental16VideoDataOutput210frameReadyERKNS0_11VideoFrame2E@Base 4:4.6.0really4.4.4
 _ZN6Phonon12Experimental16VideoDataOutput211qt_metacallEN11QMetaObject4CallEiPPv@Base 4:4.6.0really4.4.4
 _ZN6Phonon12Experimental16VideoDataOutput211qt_metacastEPKc@Base 4:4.6.0really4.4.4
 _ZN6Phonon12Experimental16VideoDataOutput216endOfMediaSignalEv@Base 4:4.6.0really4.4.4
 _ZN6Phonon12Experimental16VideoDataOutput216frameReadySignalERKNS0_11VideoFrame2E@Base 4:4.6.0really4.4.4
 _ZN6Phonon12Experimental16VideoDataOutput216staticMetaObjectE@Base 4:4.6.0really4.4.4
 _ZN6Phonon12Experimental16VideoDataOutput2C1EP7QObject@Base 4:4.6.0really4.4.4
 _ZN6Phonon12Experimental16VideoDataOutput2C2EP7QObject@Base 4:4.6.0really4.4.4
 _ZN6Phonon12Experimental16VideoDataOutput2D0Ev@Base 4:4.6.0really4.5.0
 _ZN6Phonon12Experimental16VideoDataOutput2D1Ev@Base 4:4.6.0really4.5.0
 _ZN6Phonon12Experimental16VideoDataOutput2D2Ev@Base 4:4.6.0really4.5.0
 _ZN6Phonon12Experimental19BackendCapabilities28availableVideoCaptureDevicesEv@Base 4:4.6.0really4.4.4
 _ZN6Phonon12Experimental23AbstractAudioDataOutput10setRunningEb@Base 4:4.6.0really4.4.4
 _ZN6Phonon12Experimental23AbstractAudioDataOutput17setAllowedFormatsERK4QSetINS0_11AudioFormatEE@Base 4:4.6.0really4.4.4
 _ZN6Phonon12Experimental23AbstractAudioDataOutput4stopEv@Base 4:4.6.0really4.4.4
 _ZN6Phonon12Experimental23AbstractAudioDataOutput5startEv@Base 4:4.6.0really4.4.4
 _ZN6Phonon12Experimental23AbstractAudioDataOutputC1Ev@Base 4:4.6.0really4.4.4
 _ZN6Phonon12Experimental23AbstractAudioDataOutputC2Ev@Base 4:4.6.0really4.4.4
 _ZN6Phonon12Experimental23AbstractAudioDataOutputD0Ev@Base 4:4.6.0really4.4.4
 _ZN6Phonon12Experimental23AbstractAudioDataOutputD1Ev@Base 4:4.6.0really4.4.4
 _ZN6Phonon12Experimental23AbstractAudioDataOutputD2Ev@Base 4:4.6.0really4.4.4
 _ZN6Phonon12Experimental23AbstractVideoDataOutput10setRunningEb@Base 4:4.6.0really4.4.4
 _ZN6Phonon12Experimental23AbstractVideoDataOutput17setAllowedFormatsERK4QSetINS0_11VideoFrame26FormatEE@Base 4:4.6.0really4.4.4
 _ZN6Phonon12Experimental23AbstractVideoDataOutput4stopEv@Base 4:4.6.0really4.4.4
 _ZN6Phonon12Experimental23AbstractVideoDataOutput5startEv@Base 4:4.6.0really4.4.4
 _ZN6Phonon12Experimental23AbstractVideoDataOutputC1ERNS0_30AbstractVideoDataOutputPrivateE@Base 4:4.6.0really4.4.4
 _ZN6Phonon12Experimental23AbstractVideoDataOutputC1Ev@Base 4:4.6.0really4.4.4
 _ZN6Phonon12Experimental23AbstractVideoDataOutputC2ERNS0_30AbstractVideoDataOutputPrivateE@Base 4:4.6.0really4.4.4
 _ZN6Phonon12Experimental23AbstractVideoDataOutputC2Ev@Base 4:4.6.0really4.4.4
 _ZN6Phonon12Experimental23AbstractVideoDataOutputD0Ev@Base 4:4.6.0really4.4.4
 _ZN6Phonon12Experimental23AbstractVideoDataOutputD1Ev@Base 4:4.6.0really4.4.4
 _ZN6Phonon12Experimental23AbstractVideoDataOutputD2Ev@Base 4:4.6.0really4.4.4
 _ZN6Phonon12Experimental7Factory19createVisualizationEP7QObject@Base 4:4.6.0really4.4.4
 _ZN6Phonon12Experimental7Factory21createAudioDataOutputEP7QObject@Base 4:4.6.0really4.4.4
 _ZN6Phonon12Experimental7Factory6senderEv@Base 4:4.6.0really4.4.4
 _ZN6Phonon12Experimental9AvCapture11qt_metacallEN11QMetaObject4CallEiPPv@Base 4:4.6.0really4.4.4
 _ZN6Phonon12Experimental9AvCapture11qt_metacastEPKc@Base 4:4.6.0really4.4.4
 _ZN6Phonon12Experimental9AvCapture12stateChangedENS_5StateES2_@Base 4:4.6.0really4.5.0
 _ZN6Phonon12Experimental9AvCapture16staticMetaObjectE@Base 4:4.6.0really4.4.4
 _ZN6Phonon12Experimental9AvCapture17setCaptureDevicesENS_15CaptureCategoryE@Base 4:4.6.0really4.5.0
 _ZN6Phonon12Experimental9AvCapture21setAudioCaptureDeviceENS_15CaptureCategoryE@Base 4:4.6.0really4.5.0
 _ZN6Phonon12Experimental9AvCapture21setAudioCaptureDeviceENS_8CategoryE@Base 4:4.6.0really4.4.4
 _ZN6Phonon12Experimental9AvCapture21setAudioCaptureDeviceERKNS_17ObjectDescriptionILNS_21ObjectDescriptionTypeE4EEE@Base 4:4.6.0really4.4.4
 _ZN6Phonon12Experimental9AvCapture21setVideoCaptureDeviceENS_15CaptureCategoryE@Base 4:4.6.0really4.5.0
 _ZN6Phonon12Experimental9AvCapture21setVideoCaptureDeviceENS_8CategoryE@Base 4:4.6.0really4.4.4
 _ZN6Phonon12Experimental9AvCapture21setVideoCaptureDeviceERKNS_17ObjectDescriptionILNS_21ObjectDescriptionTypeE5EEE@Base 4:4.6.0really4.4.4
 _ZN6Phonon12Experimental9AvCapture21setVideoCaptureDeviceERKNS_17ObjectDescriptionILNS_21ObjectDescriptionTypeE65536EEE@Base 4:4.6.0really4.4.4
 _ZN6Phonon12Experimental9AvCapture4stopEv@Base 4:4.6.0really4.4.4
 _ZN6Phonon12Experimental9AvCapture5pauseEv@Base 4:4.6.0really4.5.0
 _ZN6Phonon12Experimental9AvCapture5startEv@Base 4:4.6.0really4.4.4
 _ZN6Phonon12Experimental9AvCaptureC1ENS_15CaptureCategoryEP7QObject@Base 4:4.6.0really4.5.0
 _ZN6Phonon12Experimental9AvCaptureC1EP7QObject@Base 4:4.6.0really4.4.4
 _ZN6Phonon12Experimental9AvCaptureC2ENS_15CaptureCategoryEP7QObject@Base 4:4.6.0really4.5.0
 _ZN6Phonon12Experimental9AvCaptureC2EP7QObject@Base 4:4.6.0really4.4.4
 _ZN6Phonon12Experimental9AvCaptureD0Ev@Base 4:4.6.0really4.5.0
 _ZN6Phonon12Experimental9AvCaptureD1Ev@Base 4:4.6.0really4.5.0
 _ZN6Phonon12Experimental9AvCaptureD2Ev@Base 4:4.6.0really4.5.0
 _ZN6Phonon6Packet4dataEv@Base 4:4.6.0really4.4.4
 _ZN6Phonon6Packet7setSizeEi@Base 4:4.6.0really4.4.4
 _ZN6Phonon6PacketC1ERKS0_@Base 4:4.6.0really4.4.4
 _ZN6Phonon6PacketC1ERNS_10PacketPoolE@Base 4:4.6.0really4.4.4
 _ZN6Phonon6PacketC1ERNS_13PacketPrivateE@Base 4:4.6.0really4.4.4
 _ZN6Phonon6PacketC1Ev@Base 4:4.6.0really4.4.4
 _ZN6Phonon6PacketC2ERKS0_@Base 4:4.6.0really4.4.4
 _ZN6Phonon6PacketC2ERNS_10PacketPoolE@Base 4:4.6.0really4.4.4
 _ZN6Phonon6PacketC2ERNS_13PacketPrivateE@Base 4:4.6.0really4.4.4
 _ZN6Phonon6PacketC2Ev@Base 4:4.6.0really4.4.4
 _ZN6Phonon6PacketD1Ev@Base 4:4.6.0really4.4.4
 _ZN6Phonon6PacketD2Ev@Base 4:4.6.0really4.4.4
 _ZN6Phonon6PacketaSERKS0_@Base 4:4.6.0really4.4.4
 _ZNK6Phonon10PacketPool10packetSizeEv@Base 4:4.6.0really4.4.4
 _ZNK6Phonon10PacketPool13unusedPacketsEv@Base 4:4.6.0really4.4.4
 _ZNK6Phonon10PacketPool8poolSizeEv@Base 4:4.6.0really4.4.4
 _ZNK6Phonon12Experimental11MediaSource10substreamsEv@Base 4:4.6.0really4.4.4
 _ZNK6Phonon12Experimental11MediaSource18videoCaptureDeviceEv@Base 4:4.6.0really4.4.4
 _ZNK6Phonon12Experimental11MediaSourceeqERKS1_@Base 4:4.6.0really4.4.4
 _ZNK6Phonon12Experimental12GlobalConfig21videoCaptureDeviceForENS_15CaptureCategoryEi@Base 4:4.6.0really4.5.0
 _ZNK6Phonon12Experimental12GlobalConfig21videoCaptureDeviceForENS_8CategoryEi@Base 4:4.6.0really4.4.4
 _ZNK6Phonon12Experimental12GlobalConfig25videoCaptureDeviceListForENS_15CaptureCategoryEi@Base 4:4.6.0really4.5.0
 _ZNK6Phonon12Experimental12GlobalConfig25videoCaptureDeviceListForENS_8CategoryEi@Base 4:4.6.0really4.4.4
 _ZNK6Phonon12Experimental13Visualization10metaObjectEv@Base 4:4.6.0really4.4.4
 _ZNK6Phonon12Experimental13Visualization13visualizationEv@Base 4:4.6.0really4.4.4
 _ZNK6Phonon12Experimental15AudioDataOutput10metaObjectEv@Base 4:4.6.0really4.4.4
 _ZNK6Phonon12Experimental15AudioDataOutput10sampleRateEv@Base 4:4.6.0really4.4.4
 _ZNK6Phonon12Experimental15AudioDataOutput6formatEv@Base 4:4.6.0really4.4.4
 _ZNK6Phonon12Experimental15AudioDataOutput8dataSizeEv@Base 4:4.6.0really4.4.4
 _ZNK6Phonon12Experimental15VideoDataOutput10metaObjectEv@Base 4:4.6.0really4.4.4
 _ZNK6Phonon12Experimental15VideoDataOutput7latencyEv@Base 4:4.6.0really4.4.4
 _ZNK6Phonon12Experimental15VideoDataOutput9isRunningEv@Base 4:4.6.0really4.4.4
 _ZNK6Phonon12Experimental16VideoDataOutput210metaObjectEv@Base 4:4.6.0really4.4.4
 _ZNK6Phonon12Experimental23AbstractAudioDataOutput14allowedFormatsEv@Base 4:4.6.0really4.4.4
 _ZNK6Phonon12Experimental23AbstractAudioDataOutput9isRunningEv@Base 4:4.6.0really4.4.4
 _ZNK6Phonon12Experimental23AbstractVideoDataOutput14allowedFormatsEv@Base 4:4.6.0really4.4.4
 _ZNK6Phonon12Experimental23AbstractVideoDataOutput9isRunningEv@Base 4:4.6.0really4.4.4
 _ZNK6Phonon12Experimental9AvCapture10metaObjectEv@Base 4:4.6.0really4.4.4
 _ZNK6Phonon12Experimental9AvCapture18audioCaptureDeviceEv@Base 4:4.6.0really4.4.4
 _ZNK6Phonon12Experimental9AvCapture18videoCaptureDeviceEv@Base 4:4.6.0really4.4.4
 _ZNK6Phonon12Experimental9AvCapture5stateEv@Base 4:4.6.0really4.5.0
 _ZNK6Phonon6Packet4dataEv@Base 4:4.6.0really4.4.4
 _ZNK6Phonon6Packet4sizeEv@Base 4:4.6.0really4.4.4
 _ZNK6Phonon6Packet6isNullEv@Base 4:4.6.0really4.4.4
 _ZNK6Phonon6Packet8capacityEv@Base 4:4.6.0really4.4.4
 _ZNK6Phonon6PacketeqERKS0_@Base 4:4.6.0really4.4.4
 _ZNK6Phonon6PacketneERKS0_@Base 4:4.6.0really4.4.4
 _ZTIN6Phonon12Experimental13VisualizationE@Base 4:4.6.0really4.4.4
 _ZTIN6Phonon12Experimental15AudioDataOutputE@Base 4:4.6.0really4.4.4
 _ZTIN6Phonon12Experimental15VideoDataOutputE@Base 4:4.6.0really4.4.4
 _ZTIN6Phonon12Experimental16VideoDataOutput2E@Base 4:4.6.0really4.4.4
 _ZTIN6Phonon12Experimental23AbstractAudioDataOutputE@Base 4:4.6.0really4.4.4
 _ZTIN6Phonon12Experimental23AbstractVideoDataOutputE@Base 4:4.6.0really4.4.4
 _ZTIN6Phonon12Experimental9AvCaptureE@Base 4:4.6.0really4.4.4
 _ZTSN6Phonon12Experimental13VisualizationE@Base 4:4.6.0really4.4.4
 _ZTSN6Phonon12Experimental15AudioDataOutputE@Base 4:4.6.0really4.4.4
 _ZTSN6Phonon12Experimental15VideoDataOutputE@Base 4:4.6.0really4.4.4
 _ZTSN6Phonon12Experimental16VideoDataOutput2E@Base 4:4.6.0really4.4.4
 _ZTSN6Phonon12Experimental23AbstractAudioDataOutputE@Base 4:4.6.0really4.4.4
 _ZTSN6Phonon12Experimental23AbstractVideoDataOutputE@Base 4:4.6.0really4.4.4
 _ZTSN6Phonon12Experimental9AvCaptureE@Base 4:4.6.0really4.4.4
 _ZTVN6Phonon12Experimental13VisualizationE@Base 4:4.6.0really4.4.4
 _ZTVN6Phonon12Experimental15AudioDataOutputE@Base 4:4.6.0really4.4.4
 _ZTVN6Phonon12Experimental15VideoDataOutputE@Base 4:4.6.0really4.4.4
 _ZTVN6Phonon12Experimental16VideoDataOutput2E@Base 4:4.6.0really4.4.4
 _ZTVN6Phonon12Experimental23AbstractAudioDataOutputE@Base 4:4.6.0really4.4.4
 _ZTVN6Phonon12Experimental23AbstractVideoDataOutputE@Base 4:4.6.0really4.4.4
 _ZTVN6Phonon12Experimental9AvCaptureE@Base 4:4.6.0really4.4.4
 (c++)"non-virtual thunk to Phonon::Experimental::AudioDataOutput::~AudioDataOutput()@Base" 4:4.6.0really4.5.0
 (c++)"non-virtual thunk to Phonon::Experimental::AvCapture::~AvCapture()@Base" 4:4.6.0really4.5.0
 (c++)"non-virtual thunk to Phonon::Experimental::VideoDataOutput2::endOfMedia()@Base" 4:4.6.0really4.4.4
 (c++)"non-virtual thunk to Phonon::Experimental::VideoDataOutput2::frameReady(Phonon::Experimental::VideoFrame2 const&)@Base" 4:4.6.0really4.4.4
 (c++)"non-virtual thunk to Phonon::Experimental::VideoDataOutput2::~VideoDataOutput2()@Base" 4:4.6.0really4.5.0
 (c++)"non-virtual thunk to Phonon::Experimental::VideoDataOutput::~VideoDataOutput()@Base" 4:4.6.0really4.5.0
 (c++)"non-virtual thunk to Phonon::Experimental::Visualization::~Visualization()@Base" 4:4.6.0really4.4.4
