libOpenImageIO.so.1.0 libopenimageio1.0 #MINVER#
 _Z3Hexc@Base 1.0.4+dfsg0
 _ZGVN5boost16exception_detail37exception_ptr_static_exception_objectINS0_10bad_alloc_EE1eE@Base 1.0.4+dfsg0
 _ZGVN5boost16exception_detail37exception_ptr_static_exception_objectINS0_14bad_exception_EE1eE@Base 1.0.4+dfsg0
 _ZGVN5boost4asio6detail10call_stackINS1_14strand_service11strand_implEhE4top_E@Base 1.0.4+dfsg0
 _ZGVN5boost4asio6detail10call_stackINS1_15task_io_serviceENS3_11thread_infoEE4top_E@Base 1.0.4+dfsg0
 _ZGVN5boost4asio6detail12service_baseINS0_21stream_socket_serviceINS0_2ip3tcpEEEE2idE@Base 1.0.4+dfsg0
 _ZGVN5boost4asio6detail12service_baseINS0_23socket_acceptor_serviceINS0_2ip3tcpEEEE2idE@Base 1.0.4+dfsg0
 _ZGVN5boost4asio6detail12service_baseINS0_2ip16resolver_serviceINS3_3tcpEEEE2idE@Base 1.0.4+dfsg0
 _ZGVN5boost4asio6detail12service_baseINS1_14select_reactorEE2idE@Base 1.0.4+dfsg0
 _ZGVN5boost4asio6detail12service_baseINS1_14strand_serviceEE2idE@Base 1.0.4+dfsg0
 _ZGVN5boost4asio6detail12service_baseINS1_15task_io_serviceEE2idE@Base 1.0.4+dfsg0
 _ZGVN8PtexDictIP10PtexReaderE8iterator11_defaultValE@Base 1.0.4+dfsg0
 _ZGVZN5boost16exception_detail27get_static_exception_objectINS0_10bad_alloc_EEENS_13exception_ptrEvE2ep@Base 1.0.4+dfsg0
 _ZGVZN5boost16exception_detail27get_static_exception_objectINS0_14bad_exception_EEENS_13exception_ptrEvE2ep@Base 1.0.4+dfsg0
 _ZGVZN5boost4asio5error17get_misc_categoryEvE8instance@Base 1.0.4+dfsg0
 _ZGVZN5boost4asio5error18get_netdb_categoryEvE8instance@Base 1.0.4+dfsg0
 _ZGVZN5boost4asio5error21get_addrinfo_categoryEvE8instance@Base 1.0.4+dfsg0
 _ZGVZNK11PtexHashMapIN10PtexReader12ReductionKeyEPNS0_8FaceDataENS1_6HasherEE8iteratorptEvE1v@Base 1.0.4+dfsg0
 _ZN10PtexFilter9getFilterEP11PtexTextureRKNS_7OptionsE@Base 1.0.4+dfsg0
 _ZN10PtexFilterD0Ev@Base 1.0.4+dfsg0
 _ZN10PtexFilterD1Ev@Base 1.0.4+dfsg0
 _ZN10PtexFilterD2Ev@Base 1.0.4+dfsg0
 _ZN10PtexReader10PackedFace10isConstantEv@Base 1.0.4+dfsg0
 _ZN10PtexReader10PackedFace6reduceERPNS_8FaceDataEPS_N4Ptex3ResEPFvPKviiiPviNS5_8DataTypeEiE@Base 1.0.4+dfsg0
 _ZN10PtexReader10PackedFace7getDataEv@Base 1.0.4+dfsg0
 _ZN10PtexReader10PackedFace7getTileEi@Base 1.0.4+dfsg0
 _ZN10PtexReader10PackedFace7isTiledEv@Base 1.0.4+dfsg0
 _ZN10PtexReader10PackedFace7tileResEv@Base 1.0.4+dfsg0
 _ZN10PtexReader10PackedFace8getPixelEiiPv@Base 1.0.4+dfsg0
 _ZN10PtexReader10PackedFaceD0Ev@Base 1.0.4+dfsg0
 _ZN10PtexReader10PackedFaceD1Ev@Base 1.0.4+dfsg0
 _ZN10PtexReader10PackedFaceD2Ev@Base 1.0.4+dfsg0
 _ZN10PtexReader10blendFacesERPNS_8FaceDataEiN4Ptex3ResEb@Base 1.0.4+dfsg0
 _ZN10PtexReader10hasMipMapsEv@Base 1.0.4+dfsg0
 _ZN10PtexReader11getFaceInfoEi@Base 1.0.4+dfsg0
 _ZN10PtexReader11getMetaDataEv@Base 1.0.4+dfsg0
 _ZN10PtexReader11numChannelsEv@Base 1.0.4+dfsg0
 _ZN10PtexReader11uBorderModeEv@Base 1.0.4+dfsg0
 _ZN10PtexReader11vBorderModeEv@Base 1.0.4+dfsg0
 _ZN10PtexReader12ConstDataPtr10isConstantEv@Base 1.0.4+dfsg0
 _ZN10PtexReader12ConstDataPtr3resEv@Base 1.0.4+dfsg0
 _ZN10PtexReader12ConstDataPtr7getDataEv@Base 1.0.4+dfsg0
 _ZN10PtexReader12ConstDataPtr7getTileEi@Base 1.0.4+dfsg0
 _ZN10PtexReader12ConstDataPtr7isTiledEv@Base 1.0.4+dfsg0
 _ZN10PtexReader12ConstDataPtr7releaseEv@Base 1.0.4+dfsg0
 _ZN10PtexReader12ConstDataPtr7tileResEv@Base 1.0.4+dfsg0
 _ZN10PtexReader12ConstDataPtr8getPixelEiiPv@Base 1.0.4+dfsg0
 _ZN10PtexReader12ConstDataPtrD0Ev@Base 1.0.4+dfsg0
 _ZN10PtexReader12ConstDataPtrD1Ev@Base 1.0.4+dfsg0
 _ZN10PtexReader12ConstDataPtrD2Ev@Base 1.0.4+dfsg0
 _ZN10PtexReader12ConstantFace10isConstantEv@Base 1.0.4+dfsg0
 _ZN10PtexReader12ConstantFace6reduceERPNS_8FaceDataEPS_N4Ptex3ResEPFvPKviiiPviNS5_8DataTypeEiE@Base 1.0.4+dfsg0
 _ZN10PtexReader12ConstantFace8getPixelEiiPv@Base 1.0.4+dfsg0
 _ZN10PtexReader12ConstantFaceD0Ev@Base 1.0.4+dfsg0
 _ZN10PtexReader12ConstantFaceD1Ev@Base 1.0.4+dfsg0
 _ZN10PtexReader12ConstantFaceD2Ev@Base 1.0.4+dfsg0
 _ZN10PtexReader12alphaChannelEv@Base 1.0.4+dfsg0
 _ZN10PtexReader12readEditDataEv@Base 1.0.4+dfsg0
 _ZN10PtexReader12readFaceDataExN6PtexIO14FaceDataHeaderEN4Ptex3ResEiRPNS_8FaceDataE@Base 1.0.4+dfsg0
 _ZN10PtexReader12readFaceInfoEv@Base 1.0.4+dfsg0
 _ZN10PtexReader12readMetaDataEv@Base 1.0.4+dfsg0
 _ZN10PtexReader12readZipBlockEPvii@Base 1.0.4+dfsg0
 _ZN10PtexReader13TiledFaceBase10isConstantEv@Base 1.0.4+dfsg0
 _ZN10PtexReader13TiledFaceBase6reduceERPNS_8FaceDataEPS_N4Ptex3ResEPFvPKviiiPviNS5_8DataTypeEiE@Base 1.0.4+dfsg0
 _ZN10PtexReader13TiledFaceBase7getDataEv@Base 1.0.4+dfsg0
 _ZN10PtexReader13TiledFaceBase7isTiledEv@Base 1.0.4+dfsg0
 _ZN10PtexReader13TiledFaceBase7releaseEv@Base 1.0.4+dfsg0
 _ZN10PtexReader13TiledFaceBase7tileResEv@Base 1.0.4+dfsg0
 _ZN10PtexReader13TiledFaceBase8getPixelEiiPv@Base 1.0.4+dfsg0
 _ZN10PtexReader13TiledFaceBaseD0Ev@Base 1.0.4+dfsg0
 _ZN10PtexReader13TiledFaceBaseD1Ev@Base 1.0.4+dfsg0
 _ZN10PtexReader13TiledFaceBaseD2Ev@Base 1.0.4+dfsg0
 _ZN10PtexReader13readConstDataEv@Base 1.0.4+dfsg0
 _ZN10PtexReader13readLevelInfoEv@Base 1.0.4+dfsg0
 _ZN10PtexReader16TiledReducedFace7getTileEi@Base 1.0.4+dfsg0
 _ZN10PtexReader16TiledReducedFaceD0Ev@Base 1.0.4+dfsg0
 _ZN10PtexReader16TiledReducedFaceD1Ev@Base 1.0.4+dfsg0
 _ZN10PtexReader16TiledReducedFaceD2Ev@Base 1.0.4+dfsg0
 _ZN10PtexReader16readEditFaceDataEv@Base 1.0.4+dfsg0
 _ZN10PtexReader16readEditMetaDataEv@Base 1.0.4+dfsg0
 _ZN10PtexReader17readMetaDataBlockEPNS_8MetaDataExii@Base 1.0.4+dfsg0
 _ZN10PtexReader24readLargeMetaDataHeadersEPNS_8MetaDataExii@Base 1.0.4+dfsg0
 _ZN10PtexReader4openEPKcRSs@Base 1.0.4+dfsg0
 _ZN10PtexReader4pathEv@Base 1.0.4+dfsg0
 _ZN10PtexReader5LevelD0Ev@Base 1.0.4+dfsg0
 _ZN10PtexReader5LevelD1Ev@Base 1.0.4+dfsg0
 _ZN10PtexReader5LevelD2Ev@Base 1.0.4+dfsg0
 _ZN10PtexReader7getDataEi@Base 1.0.4+dfsg0
 _ZN10PtexReader7getDataEiN4Ptex3ResE@Base 1.0.4+dfsg0
 _ZN10PtexReader7getDataEiPvi@Base 1.0.4+dfsg0
 _ZN10PtexReader7getDataEiPviN4Ptex3ResE@Base 1.0.4+dfsg0
 _ZN10PtexReader7releaseEv@Base 1.0.4+dfsg0
 _ZN10PtexReader8FaceData3resEv@Base 1.0.4+dfsg0
 _ZN10PtexReader8FaceData7releaseEv@Base 1.0.4+dfsg0
 _ZN10PtexReader8FaceDataD0Ev@Base 1.0.4+dfsg0
 _ZN10PtexReader8FaceDataD1Ev@Base 1.0.4+dfsg0
 _ZN10PtexReader8FaceDataD2Ev@Base 1.0.4+dfsg0
 _ZN10PtexReader8MetaData13LargeMetaDataD0Ev@Base 1.0.4+dfsg0
 _ZN10PtexReader8MetaData13LargeMetaDataD1Ev@Base 1.0.4+dfsg0
 _ZN10PtexReader8MetaData13LargeMetaDataD2Ev@Base 1.0.4+dfsg0
 _ZN10PtexReader8MetaData6getKeyEiRPKcRN4Ptex12MetaDataTypeE@Base 1.0.4+dfsg0
 _ZN10PtexReader8MetaData7numKeysEv@Base 1.0.4+dfsg0
 _ZN10PtexReader8MetaData7releaseEv@Base 1.0.4+dfsg0
 _ZN10PtexReader8MetaData8getEntryEPKc@Base 1.0.4+dfsg0
 _ZN10PtexReader8MetaData8getValueEPKcRPKaRi@Base 1.0.4+dfsg0
 _ZN10PtexReader8MetaData8getValueEPKcRPKdRi@Base 1.0.4+dfsg0
 _ZN10PtexReader8MetaData8getValueEPKcRPKfRi@Base 1.0.4+dfsg0
 _ZN10PtexReader8MetaData8getValueEPKcRPKiRi@Base 1.0.4+dfsg0
 _ZN10PtexReader8MetaData8getValueEPKcRPKsRi@Base 1.0.4+dfsg0
 _ZN10PtexReader8MetaData8getValueEPKcRS2_@Base 1.0.4+dfsg0
 _ZN10PtexReader8MetaDataD0Ev@Base 1.0.4+dfsg0
 _ZN10PtexReader8MetaDataD1Ev@Base 1.0.4+dfsg0
 _ZN10PtexReader8MetaDataD2Ev@Base 1.0.4+dfsg0
 _ZN10PtexReader8dataTypeEv@Base 1.0.4+dfsg0
 _ZN10PtexReader8getPixelEiiiPfii@Base 1.0.4+dfsg0
 _ZN10PtexReader8getPixelEiiiPfiiN4Ptex3ResE@Base 1.0.4+dfsg0
 _ZN10PtexReader8hasEditsEv@Base 1.0.4+dfsg0
 _ZN10PtexReader8meshTypeEv@Base 1.0.4+dfsg0
 _ZN10PtexReader8numFacesEv@Base 1.0.4+dfsg0
 _ZN10PtexReader8readFaceEiPNS_5LevelEi@Base 1.0.4+dfsg0
 _ZN10PtexReader9TiledFace7getTileEi@Base 1.0.4+dfsg0
 _ZN10PtexReader9TiledFace8readTileEiRPNS_8FaceDataE@Base 1.0.4+dfsg0
 _ZN10PtexReader9TiledFaceD0Ev@Base 1.0.4+dfsg0
 _ZN10PtexReader9TiledFaceD1Ev@Base 1.0.4+dfsg0
 _ZN10PtexReader9TiledFaceD2Ev@Base 1.0.4+dfsg0
 _ZN10PtexReader9readBlockEPvib@Base 1.0.4+dfsg0
 _ZN10PtexReader9readLevelEiRPNS_5LevelE@Base 1.0.4+dfsg0
 _ZN10PtexReaderC1EPPvP13PtexCacheImplbP16PtexInputHandler@Base 1.0.4+dfsg0
 _ZN10PtexReaderC2EPPvP13PtexCacheImplbP16PtexInputHandler@Base 1.0.4+dfsg0
 _ZN10PtexReaderD0Ev@Base 1.0.4+dfsg0
 _ZN10PtexReaderD1Ev@Base 1.0.4+dfsg0
 _ZN10PtexReaderD2Ev@Base 1.0.4+dfsg0
 _ZN10PtexWriter10applyEditsEPKcRSs@Base 1.0.4+dfsg0
 _ZN10PtexWriter4editEPKcbN4Ptex8MeshTypeENS2_8DataTypeEiiiRSsb@Base 1.0.4+dfsg0
 _ZN10PtexWriter4openEPKcN4Ptex8MeshTypeENS2_8DataTypeEiiiRSsb@Base 1.0.4+dfsg0
 _ZN10PtexWriterD0Ev@Base 1.0.4+dfsg0
 _ZN10PtexWriterD1Ev@Base 1.0.4+dfsg0
 _ZN10PtexWriterD2Ev@Base 1.0.4+dfsg0
 _ZN11OpenImageIO4v1_010Filesystem10is_regularERKSs@Base 1.0.4+dfsg0
 _ZN11OpenImageIO4v1_010Filesystem12is_directoryERKSs@Base 1.0.4+dfsg0
 _ZN11OpenImageIO4v1_010Filesystem14file_extensionERKSs@Base 1.0.4+dfsg0
 _ZN11OpenImageIO4v1_010Filesystem15searchpath_findERKSsRKSt6vectorISsSaISsEEb@Base 1.0.4+dfsg0
 _ZN11OpenImageIO4v1_010Filesystem16path_is_absoluteERKSsb@Base 1.0.4+dfsg0
 _ZN11OpenImageIO4v1_010Filesystem16searchpath_splitERKSsRSt6vectorISsSaISsEEb@Base 1.0.4+dfsg0
 _ZN11OpenImageIO4v1_010Filesystem17replace_extensionERKSsS3_@Base 1.0.4+dfsg0
 _ZN11OpenImageIO4v1_010Filesystem6existsERKSs@Base 1.0.4+dfsg0
 _ZN11OpenImageIO4v1_010Filesystem8filenameERKSs@Base 1.0.4+dfsg0
 _ZN11OpenImageIO4v1_010Filesystem9extensionERKSs@Base 1.0.4+dfsg0
 _ZN11OpenImageIO4v1_010FitsOutput14write_scanlineEiiNS0_8TypeDescEPKvi@Base 1.0.4+dfsg0
 _ZN11OpenImageIO4v1_010FitsOutput18create_fits_headerEv@Base 1.0.4+dfsg0
 _ZN11OpenImageIO4v1_010FitsOutput19create_basic_headerERSs@Base 1.0.4+dfsg0
 _ZN11OpenImageIO4v1_010FitsOutput4openERKSsRKNS0_9ImageSpecENS0_11ImageOutput8OpenModeE@Base 1.0.4+dfsg0
 _ZN11OpenImageIO4v1_010FitsOutput5closeEv@Base 1.0.4+dfsg0
 _ZN11OpenImageIO4v1_010FitsOutputD0Ev@Base 1.0.4+dfsg0
 _ZN11OpenImageIO4v1_010FitsOutputD1Ev@Base 1.0.4+dfsg0
 _ZN11OpenImageIO4v1_010FitsOutputD2Ev@Base 1.0.4+dfsg0
 _ZN11OpenImageIO4v1_010ImageCache6createEb@Base 1.0.4+dfsg0
 _ZN11OpenImageIO4v1_010ImageCache7destroyEPS1_@Base 1.0.4+dfsg0
 _ZN11OpenImageIO4v1_010ImageCacheD0Ev@Base 1.0.4+dfsg0
 _ZN11OpenImageIO4v1_010ImageCacheD1Ev@Base 1.0.4+dfsg0
 _ZN11OpenImageIO4v1_010ImageCacheD2Ev@Base 1.0.4+dfsg0
 _ZN11OpenImageIO4v1_010ImageInput10read_imageENS0_8TypeDescEPviiiPFbS3_fES3_@Base 1.0.4+dfsg0
 _ZN11OpenImageIO4v1_010ImageInput10read_tilesEiiiiiiNS0_8TypeDescEPviii@Base 1.0.4+dfsg0
 _ZN11OpenImageIO4v1_010ImageInput10read_tilesEiiiiiiiiNS0_8TypeDescEPviii@Base 1.0.4+dfsg0
 _ZN11OpenImageIO4v1_010ImageInput13read_scanlineEiiNS0_8TypeDescEPvi@Base 1.0.4+dfsg0
 _ZN11OpenImageIO4v1_010ImageInput13seek_subimageEiiRNS0_9ImageSpecE@Base 1.0.4+dfsg0
 _ZN11OpenImageIO4v1_010ImageInput13send_to_inputEPKcz@Base 1.0.4+dfsg0
 _ZN11OpenImageIO4v1_010ImageInput14read_scanlinesEiiiNS0_8TypeDescEPvii@Base 1.0.4+dfsg0
 _ZN11OpenImageIO4v1_010ImageInput14read_scanlinesEiiiiiNS0_8TypeDescEPvii@Base 1.0.4+dfsg0
 _ZN11OpenImageIO4v1_010ImageInput14send_to_clientEPKcz@Base 1.0.4+dfsg0
 _ZN11OpenImageIO4v1_010ImageInput16read_native_tileEiiiPv@Base 1.0.4+dfsg0
 _ZN11OpenImageIO4v1_010ImageInput17read_native_tilesEiiiiiiPv@Base 1.0.4+dfsg0
 _ZN11OpenImageIO4v1_010ImageInput17read_native_tilesEiiiiiiiiPv@Base 1.0.4+dfsg0
 _ZN11OpenImageIO4v1_010ImageInput21read_native_scanlinesEiiiPv@Base 1.0.4+dfsg0
 _ZN11OpenImageIO4v1_010ImageInput21read_native_scanlinesEiiiiiPv@Base 1.0.4+dfsg0
 _ZN11OpenImageIO4v1_010ImageInput4openERKSsRNS0_9ImageSpecERKS4_@Base 1.0.4+dfsg0
 _ZN11OpenImageIO4v1_010ImageInput5errorEPKcz@Base 1.0.4+dfsg0
 _ZN11OpenImageIO4v1_010ImageInput6createERKSsS3_@Base 1.0.4+dfsg0
 _ZN11OpenImageIO4v1_010ImageInput9read_tileEiiiNS0_8TypeDescEPviii@Base 1.0.4+dfsg0
 _ZN11OpenImageIO4v1_010ImageInputD0Ev@Base 1.0.4+dfsg0
 _ZN11OpenImageIO4v1_010ImageInputD1Ev@Base 1.0.4+dfsg0
 _ZN11OpenImageIO4v1_010ImageInputD2Ev@Base 1.0.4+dfsg0
 _ZN11OpenImageIO4v1_010ParamValue11clear_valueEv@Base 1.0.4+dfsg0
 _ZN11OpenImageIO4v1_010ParamValue12init_noclearENS0_7ustringENS0_8TypeDescEiPKvb@Base 1.0.4+dfsg0
 _ZN11OpenImageIO4v1_010PtexOutput14write_scanlineEiiNS0_8TypeDescEPKvi@Base 1.0.4+dfsg0
 _ZN11OpenImageIO4v1_010PtexOutput4openERKSsRKNS0_9ImageSpecENS0_11ImageOutput8OpenModeE@Base 1.0.4+dfsg0
 _ZN11OpenImageIO4v1_010PtexOutput5closeEv@Base 1.0.4+dfsg0
 _ZN11OpenImageIO4v1_010PtexOutputC1Ev@Base 1.0.4+dfsg0
 _ZN11OpenImageIO4v1_010PtexOutputC2Ev@Base 1.0.4+dfsg0
 _ZN11OpenImageIO4v1_010PtexOutputD0Ev@Base 1.0.4+dfsg0
 _ZN11OpenImageIO4v1_010PtexOutputD1Ev@Base 1.0.4+dfsg0
 _ZN11OpenImageIO4v1_010PtexOutputD2Ev@Base 1.0.4+dfsg0
 _ZN11OpenImageIO4v1_010TIFFOutput10write_tileEiiiNS0_8TypeDescEPKviii@Base 1.0.4+dfsg0
 _ZN11OpenImageIO4v1_010TIFFOutput13put_parameterERKSsNS0_8TypeDescEPKv@Base 1.0.4+dfsg0
 _ZN11OpenImageIO4v1_010TIFFOutput14write_scanlineEiiNS0_8TypeDescEPKvi@Base 1.0.4+dfsg0
 _ZN11OpenImageIO4v1_010TIFFOutput18contig_to_separateEiPKhPh@Base 1.0.4+dfsg0
 _ZN11OpenImageIO4v1_010TIFFOutput4openERKSsRKNS0_9ImageSpecENS0_11ImageOutput8OpenModeE@Base 1.0.4+dfsg0
 _ZN11OpenImageIO4v1_010TIFFOutput5closeEv@Base 1.0.4+dfsg0
 _ZN11OpenImageIO4v1_010TIFFOutputC1Ev@Base 1.0.4+dfsg0
 _ZN11OpenImageIO4v1_010TIFFOutputC2Ev@Base 1.0.4+dfsg0
 _ZN11OpenImageIO4v1_010TIFFOutputD0Ev@Base 1.0.4+dfsg0
 _ZN11OpenImageIO4v1_010TIFFOutputD1Ev@Base 1.0.4+dfsg0
 _ZN11OpenImageIO4v1_010TIFFOutputD2Ev@Base 1.0.4+dfsg0
 _ZN11OpenImageIO4v1_010TextureOpt15decode_wrapmodeENS0_7ustringE@Base 1.0.4+dfsg0
 _ZN11OpenImageIO4v1_010TextureOpt15decode_wrapmodeEPKc@Base 1.0.4+dfsg0
 _ZN11OpenImageIO4v1_010TextureOpt15parse_wrapmodesEPKcRNS1_4WrapES5_@Base 1.0.4+dfsg0
 _ZN11OpenImageIO4v1_010TextureOptC1ERKNS0_14TextureOptionsEi@Base 1.0.4+dfsg0
 _ZN11OpenImageIO4v1_010TextureOptC2ERKNS0_14TextureOptionsEi@Base 1.0.4+dfsg0
 _ZN11OpenImageIO4v1_010ZfileInput20read_native_scanlineEiiPv@Base 1.0.4+dfsg0
 _ZN11OpenImageIO4v1_010ZfileInput4openERKSsRNS0_9ImageSpecE@Base 1.0.4+dfsg0
 _ZN11OpenImageIO4v1_010ZfileInput5closeEv@Base 1.0.4+dfsg0
 _ZN11OpenImageIO4v1_010ZfileInputD0Ev@Base 1.0.4+dfsg0
 _ZN11OpenImageIO4v1_010ZfileInputD1Ev@Base 1.0.4+dfsg0
 _ZN11OpenImageIO4v1_010ZfileInputD2Ev@Base 1.0.4+dfsg0
 _ZN11OpenImageIO4v1_010bilerp_madIffEEvPKT_S4_S4_S4_T0_S5_S5_iPS2_@Base 1.0.4+dfsg0
 _ZN11OpenImageIO4v1_010copy_imageEiiiiPKviiiiPviii@Base 1.0.4+dfsg0
 _ZN11OpenImageIO4v1_010decode_xmpERKSsRNS0_9ImageSpecE@Base 1.0.4+dfsg0
 _ZN11OpenImageIO4v1_010encode_xmpERKNS0_9ImageSpecEb@Base 1.0.4+dfsg0
 _ZN11OpenImageIO4v1_010socket_pvt12socket_writeERN5boost4asio19basic_stream_socketINS3_2ip3tcpENS3_21stream_socket_serviceIS6_EEEERNS0_8TypeDescEPKvi@Base 1.0.4+dfsg0
 _ZN11OpenImageIO4v1_010spin_mutex10lock_guardD1Ev@Base 1.0.4+dfsg0
 _ZN11OpenImageIO4v1_010spin_mutex10lock_guardD2Ev@Base 1.0.4+dfsg0
 _ZN11OpenImageIO4v1_010spin_mutex4lockEv@Base 1.0.4+dfsg0
 _ZN11OpenImageIO4v1_010spin_mutexC1Ev@Base 1.0.4+dfsg0
 _ZN11OpenImageIO4v1_010spin_mutexC2Ev@Base 1.0.4+dfsg0
 _ZN11OpenImageIO4v1_010spin_mutexD1Ev@Base 1.0.4+dfsg0
 _ZN11OpenImageIO4v1_010spin_mutexD2Ev@Base 1.0.4+dfsg0
 _ZN11OpenImageIO4v1_011CineonInput20read_native_scanlineEiiPv@Base 1.0.4+dfsg0
 _ZN11OpenImageIO4v1_011CineonInput21get_descriptor_stringEN6cineon10DescriptorE@Base 1.0.4+dfsg0
 _ZN11OpenImageIO4v1_011CineonInput4openERKSsRNS0_9ImageSpecE@Base 1.0.4+dfsg0
 _ZN11OpenImageIO4v1_011CineonInput5closeEv@Base 1.0.4+dfsg0
 _ZN11OpenImageIO4v1_011CineonInputD0Ev@Base 1.0.4+dfsg0
 _ZN11OpenImageIO4v1_011CineonInputD1Ev@Base 1.0.4+dfsg0
 _ZN11OpenImageIO4v1_011CineonInputD2Ev@Base 1.0.4+dfsg0
 _ZN11OpenImageIO4v1_011ColorConfig19supportsOpenColorIOEv@Base 1.0.4+dfsg0
 _ZN11OpenImageIO4v1_011ColorConfig20deleteColorProcessorEPNS0_14ColorProcessorE@Base 1.0.4+dfsg0
 _ZN11OpenImageIO4v1_011ColorConfig4Impl9inventoryEv@Base 1.0.4+dfsg0
 _ZN11OpenImageIO4v1_011ColorConfig8geterrorEv@Base 1.0.4+dfsg0
 _ZN11OpenImageIO4v1_011ColorConfigC1EPKc@Base 1.0.4+dfsg0
 _ZN11OpenImageIO4v1_011ColorConfigC1Ev@Base 1.0.4+dfsg0
 _ZN11OpenImageIO4v1_011ColorConfigC2EPKc@Base 1.0.4+dfsg0
 _ZN11OpenImageIO4v1_011ColorConfigC2Ev@Base 1.0.4+dfsg0
 _ZN11OpenImageIO4v1_011ColorConfigD1Ev@Base 1.0.4+dfsg0
 _ZN11OpenImageIO4v1_011ColorConfigD2Ev@Base 1.0.4+dfsg0
 _ZN11OpenImageIO4v1_011FilterBox1DD0Ev@Base 1.0.4+dfsg0
 _ZN11OpenImageIO4v1_011FilterBox1DD1Ev@Base 1.0.4+dfsg0
 _ZN11OpenImageIO4v1_011FilterBox1DD2Ev@Base 1.0.4+dfsg0
 _ZN11OpenImageIO4v1_011FilterBox2DD0Ev@Base 1.0.4+dfsg0
 _ZN11OpenImageIO4v1_011FilterBox2DD1Ev@Base 1.0.4+dfsg0
 _ZN11OpenImageIO4v1_011FilterBox2DD2Ev@Base 1.0.4+dfsg0
 _ZN11OpenImageIO4v1_011ImageOutput10copy_imageEPNS0_10ImageInputE@Base 1.0.4+dfsg0
 _ZN11OpenImageIO4v1_011ImageOutput10write_tileEiiiNS0_8TypeDescEPKviii@Base 1.0.4+dfsg0
 _ZN11OpenImageIO4v1_011ImageOutput11write_imageENS0_8TypeDescEPKviiiPFbPvfES5_@Base 1.0.4+dfsg0
 _ZN11OpenImageIO4v1_011ImageOutput11write_tilesEiiiiiiNS0_8TypeDescEPKviii@Base 1.0.4+dfsg0
 _ZN11OpenImageIO4v1_011ImageOutput14send_to_clientEPKcz@Base 1.0.4+dfsg0
 _ZN11OpenImageIO4v1_011ImageOutput14send_to_outputEPKcz@Base 1.0.4+dfsg0
 _ZN11OpenImageIO4v1_011ImageOutput14to_native_tileENS0_8TypeDescEPKviiiRSt6vectorIhSaIhEE@Base 1.0.4+dfsg0
 _ZN11OpenImageIO4v1_011ImageOutput14write_scanlineEiiNS0_8TypeDescEPKvi@Base 1.0.4+dfsg0
 _ZN11OpenImageIO4v1_011ImageOutput15write_rectangleEiiiiiiNS0_8TypeDescEPKviii@Base 1.0.4+dfsg0
 _ZN11OpenImageIO4v1_011ImageOutput15write_scanlinesEiiiNS0_8TypeDescEPKvii@Base 1.0.4+dfsg0
 _ZN11OpenImageIO4v1_011ImageOutput18to_native_scanlineENS0_8TypeDescEPKviRSt6vectorIhSaIhEE@Base 1.0.4+dfsg0
 _ZN11OpenImageIO4v1_011ImageOutput19to_native_rectangleEiiiiiiNS0_8TypeDescEPKviiiRSt6vectorIhSaIhEE@Base 1.0.4+dfsg0
 _ZN11OpenImageIO4v1_011ImageOutput5errorEPKcz@Base 1.0.4+dfsg0
 _ZN11OpenImageIO4v1_011ImageOutput6createERKSsS3_@Base 1.0.4+dfsg0
 _ZN11OpenImageIO4v1_011ImageOutputD0Ev@Base 1.0.4+dfsg0
 _ZN11OpenImageIO4v1_011ImageOutputD1Ev@Base 1.0.4+dfsg0
 _ZN11OpenImageIO4v1_011ImageOutputD2Ev@Base 1.0.4+dfsg0
 _ZN11OpenImageIO4v1_011SocketInput16read_native_tileEiiiPv@Base 1.0.4+dfsg0
 _ZN11OpenImageIO4v1_011SocketInput17accept_connectionERKSs@Base 1.0.4+dfsg0
 _ZN11OpenImageIO4v1_011SocketInput20get_spec_from_clientERNS0_9ImageSpecE@Base 1.0.4+dfsg0
 _ZN11OpenImageIO4v1_011SocketInput20read_native_scanlineEiiPv@Base 1.0.4+dfsg0
 _ZN11OpenImageIO4v1_011SocketInput4openERKSsRNS0_9ImageSpecE@Base 1.0.4+dfsg0
 _ZN11OpenImageIO4v1_011SocketInput4openERKSsRNS0_9ImageSpecERKS4_@Base 1.0.4+dfsg0
 _ZN11OpenImageIO4v1_011SocketInput5closeEv@Base 1.0.4+dfsg0
 _ZN11OpenImageIO4v1_011SocketInputC1Ev@Base 1.0.4+dfsg0
 _ZN11OpenImageIO4v1_011SocketInputC2Ev@Base 1.0.4+dfsg0
 _ZN11OpenImageIO4v1_011SocketInputD0Ev@Base 1.0.4+dfsg0
 _ZN11OpenImageIO4v1_011SocketInputD1Ev@Base 1.0.4+dfsg0
 _ZN11OpenImageIO4v1_011SocketInputD2Ev@Base 1.0.4+dfsg0
 _ZN11OpenImageIO4v1_011ZfileOutput14write_scanlineEiiNS0_8TypeDescEPKvi@Base 1.0.4+dfsg0
 _ZN11OpenImageIO4v1_011ZfileOutput4openERKSsRKNS0_9ImageSpecENS0_11ImageOutput8OpenModeE@Base 1.0.4+dfsg0
 _ZN11OpenImageIO4v1_011ZfileOutput5closeEv@Base 1.0.4+dfsg0
 _ZN11OpenImageIO4v1_011ZfileOutputD0Ev@Base 1.0.4+dfsg0
 _ZN11OpenImageIO4v1_011ZfileOutputD1Ev@Base 1.0.4+dfsg0
 _ZN11OpenImageIO4v1_011ZfileOutputD2Ev@Base 1.0.4+dfsg0
 _ZN11OpenImageIO4v1_011_from_floatI4halfEEPKvPKfPT_jffii@Base 1.0.4+dfsg0
 _ZN11OpenImageIO4v1_011_from_floatIcEEPKvPKfPT_jffii@Base 1.0.4+dfsg0
 _ZN11OpenImageIO4v1_011_from_floatIdEEPKvPKfPT_jffii@Base 1.0.4+dfsg0
 _ZN11OpenImageIO4v1_011_from_floatIhEEPKvPKfPT_jffii@Base 1.0.4+dfsg0
 _ZN11OpenImageIO4v1_011_from_floatIiEEPKvPKfPT_jffii@Base 1.0.4+dfsg0
 _ZN11OpenImageIO4v1_011_from_floatIjEEPKvPKfPT_jffii@Base 1.0.4+dfsg0
 _ZN11OpenImageIO4v1_011_from_floatIsEEPKvPKfPT_jffii@Base 1.0.4+dfsg0
 _ZN11OpenImageIO4v1_011_from_floatItEEPKvPKfPT_jffii@Base 1.0.4+dfsg0
 _ZN11OpenImageIO4v1_011_from_floatIxEEPKvPKfPT_jffii@Base 1.0.4+dfsg0
 _ZN11OpenImageIO4v1_011_from_floatIyEEPKvPKfPT_jffii@Base 1.0.4+dfsg0
 _ZN11OpenImageIO4v1_011decode_exifEPKviRNS0_9ImageSpecE@Base 1.0.4+dfsg0
 _ZN11OpenImageIO4v1_011encode_exifERKNS0_9ImageSpecERSt6vectorIcSaIcEE@Base 1.0.4+dfsg0
 _ZN11OpenImageIO4v1_011trilerp_madIffEEvPKT_S4_S4_S4_S4_S4_S4_S4_T0_S5_S5_S5_iPS2_@Base 1.0.4+dfsg0
 _ZN11OpenImageIO4v1_012CineonOutput14write_scanlineEiiNS0_8TypeDescEPKvi@Base 1.0.4+dfsg0
 _ZN11OpenImageIO4v1_012CineonOutput4openERKSsRKNS0_9ImageSpecENS0_11ImageOutput8OpenModeE@Base 1.0.4+dfsg0
 _ZN11OpenImageIO4v1_012CineonOutput5closeEv@Base 1.0.4+dfsg0
 _ZN11OpenImageIO4v1_012CineonOutputC1Ev@Base 1.0.4+dfsg0
 _ZN11OpenImageIO4v1_012CineonOutputC2Ev@Base 1.0.4+dfsg0
 _ZN11OpenImageIO4v1_012CineonOutputD0Ev@Base 1.0.4+dfsg0
 _ZN11OpenImageIO4v1_012CineonOutputD1Ev@Base 1.0.4+dfsg0
 _ZN11OpenImageIO4v1_012CineonOutputD2Ev@Base 1.0.4+dfsg0
 _ZN11OpenImageIO4v1_012ErrorHandler15default_handlerEv@Base 1.0.4+dfsg0
 _ZN11OpenImageIO4v1_012ErrorHandler4infoEPKcz@Base 1.0.4+dfsg0
 _ZN11OpenImageIO4v1_012ErrorHandler5errorEPKcz@Base 1.0.4+dfsg0
 _ZN11OpenImageIO4v1_012ErrorHandler5vInfoEPKcPc@Base 1.0.4+dfsg0
 _ZN11OpenImageIO4v1_012ErrorHandler6severeEPKcz@Base 1.0.4+dfsg0
 _ZN11OpenImageIO4v1_012ErrorHandler6vErrorEPKcPc@Base 1.0.4+dfsg0
 _ZN11OpenImageIO4v1_012ErrorHandler7messageEPKcz@Base 1.0.4+dfsg0
 _ZN11OpenImageIO4v1_012ErrorHandler7vSevereEPKcPc@Base 1.0.4+dfsg0
 _ZN11OpenImageIO4v1_012ErrorHandler7warningEPKcz@Base 1.0.4+dfsg0
 _ZN11OpenImageIO4v1_012ErrorHandler8vMessageEPKcPc@Base 1.0.4+dfsg0
 _ZN11OpenImageIO4v1_012ErrorHandler8vWarningEPKcPc@Base 1.0.4+dfsg0
 _ZN11OpenImageIO4v1_012ErrorHandlerD0Ev@Base 1.0.4+dfsg0
 _ZN11OpenImageIO4v1_012ErrorHandlerD1Ev@Base 1.0.4+dfsg0
 _ZN11OpenImageIO4v1_012ErrorHandlerD2Ev@Base 1.0.4+dfsg0
 _ZN11OpenImageIO4v1_012ErrorHandlerclEiRKSs@Base 1.0.4+dfsg0
 _ZN11OpenImageIO4v1_012FilterDisk2DD0Ev@Base 1.0.4+dfsg0
 _ZN11OpenImageIO4v1_012FilterDisk2DD1Ev@Base 1.0.4+dfsg0
 _ZN11OpenImageIO4v1_012FilterDisk2DD2Ev@Base 1.0.4+dfsg0
 _ZN11OpenImageIO4v1_012FilterSinc1DD0Ev@Base 1.0.4+dfsg0
 _ZN11OpenImageIO4v1_012FilterSinc1DD1Ev@Base 1.0.4+dfsg0
 _ZN11OpenImageIO4v1_012FilterSinc1DD2Ev@Base 1.0.4+dfsg0
 _ZN11OpenImageIO4v1_012FilterSinc2DD0Ev@Base 1.0.4+dfsg0
 _ZN11OpenImageIO4v1_012FilterSinc2DD1Ev@Base 1.0.4+dfsg0
 _ZN11OpenImageIO4v1_012FilterSinc2DD2Ev@Base 1.0.4+dfsg0
 _ZN11OpenImageIO4v1_012ImageBufAlgo11compare_YeeERKNS0_8ImageBufES4_ff@Base 1.0.4+dfsg0
 _ZN11OpenImageIO4v1_012ImageBufAlgo12colorconvertEPfiPKNS0_14ColorProcessorEb@Base 1.0.4+dfsg0
 _ZN11OpenImageIO4v1_012ImageBufAlgo12colorconvertERNS0_8ImageBufERKS2_PKNS0_14ColorProcessorEb@Base 1.0.4+dfsg0
 _ZN11OpenImageIO4v1_012ImageBufAlgo12fixNonFiniteERNS0_8ImageBufERKS2_NS1_16NonFiniteFixModeEPi@Base 1.0.4+dfsg0
 _ZN11OpenImageIO4v1_012ImageBufAlgo12isMonochromeERKNS0_8ImageBufE@Base 1.0.4+dfsg0
 _ZN11OpenImageIO4v1_012ImageBufAlgo14setNumChannelsERNS0_8ImageBufERKS2_i@Base 1.0.4+dfsg0
 _ZN11OpenImageIO4v1_012ImageBufAlgo15isConstantColorERKNS0_8ImageBufEPf@Base 1.0.4+dfsg0
 _ZN11OpenImageIO4v1_012ImageBufAlgo17computePixelStatsERNS1_10PixelStatsERKNS0_8ImageBufE@Base 1.0.4+dfsg0
 _ZN11OpenImageIO4v1_012ImageBufAlgo17isConstantChannelERKNS0_8ImageBufEif@Base 1.0.4+dfsg0
 _ZN11OpenImageIO4v1_012ImageBufAlgo20computePixelHashSHA1ERKNS0_8ImageBufE@Base 1.0.4+dfsg0
 _ZN11OpenImageIO4v1_012ImageBufAlgo20computePixelHashSHA1ERKNS0_8ImageBufERKSs@Base 1.0.4+dfsg0
 _ZN11OpenImageIO4v1_012ImageBufAlgo3addERNS0_8ImageBufERKS2_S5_i@Base 1.0.4+dfsg0
 _ZN11OpenImageIO4v1_012ImageBufAlgo4cropERNS0_8ImageBufERKS2_iiiiPKf@Base 1.0.4+dfsg0
 _ZN11OpenImageIO4v1_012ImageBufAlgo4fillERNS0_8ImageBufEPKf@Base 1.0.4+dfsg0
 _ZN11OpenImageIO4v1_012ImageBufAlgo4fillERNS0_8ImageBufEPKfiiii@Base 1.0.4+dfsg0
 _ZN11OpenImageIO4v1_012ImageBufAlgo4fillERNS0_8ImageBufEPKfiiiiii@Base 1.0.4+dfsg0
 _ZN11OpenImageIO4v1_012ImageBufAlgo4zeroERNS0_8ImageBufE@Base 1.0.4+dfsg0
 _ZN11OpenImageIO4v1_012ImageBufAlgo6resizeERNS0_8ImageBufERKS2_iiiiPNS0_8Filter2DE@Base 1.0.4+dfsg0
 _ZN11OpenImageIO4v1_012ImageBufAlgo7checkerERNS0_8ImageBufEiPKfS5_iiiiii@Base 1.0.4+dfsg0
 _ZN11OpenImageIO4v1_012ImageBufAlgo7compareERKNS0_8ImageBufES4_ffRNS1_14CompareResultsE@Base 1.0.4+dfsg0
 _ZN11OpenImageIO4v1_012ImageBufAlgo9transformERNS0_8ImageBufERKS2_NS1_16AlignedTransformE@Base 1.0.4+dfsg0
 _ZN11OpenImageIO4v1_012OpenEXRInput13seek_subimageEiiRNS0_9ImageSpecE@Base 1.0.4+dfsg0
 _ZN11OpenImageIO4v1_012OpenEXRInput14query_channelsEv@Base 1.0.4+dfsg0
 _ZN11OpenImageIO4v1_012OpenEXRInput16read_native_tileEiiiPv@Base 1.0.4+dfsg0
 _ZN11OpenImageIO4v1_012OpenEXRInput17read_native_tilesEiiiiiiPv@Base 1.0.4+dfsg0
 _ZN11OpenImageIO4v1_012OpenEXRInput17read_native_tilesEiiiiiiiiPv@Base 1.0.4+dfsg0
 _ZN11OpenImageIO4v1_012OpenEXRInput20read_native_scanlineEiiPv@Base 1.0.4+dfsg0
 _ZN11OpenImageIO4v1_012OpenEXRInput21read_native_scanlinesEiiiPv@Base 1.0.4+dfsg0
 _ZN11OpenImageIO4v1_012OpenEXRInput21read_native_scanlinesEiiiiiPv@Base 1.0.4+dfsg0
 _ZN11OpenImageIO4v1_012OpenEXRInput4openERKSsRNS0_9ImageSpecE@Base 1.0.4+dfsg0
 _ZN11OpenImageIO4v1_012OpenEXRInput5closeEv@Base 1.0.4+dfsg0
 _ZN11OpenImageIO4v1_012OpenEXRInputC1Ev@Base 1.0.4+dfsg0
 _ZN11OpenImageIO4v1_012OpenEXRInputC2Ev@Base 1.0.4+dfsg0
 _ZN11OpenImageIO4v1_012OpenEXRInputD0Ev@Base 1.0.4+dfsg0
 _ZN11OpenImageIO4v1_012OpenEXRInputD1Ev@Base 1.0.4+dfsg0
 _ZN11OpenImageIO4v1_012OpenEXRInputD2Ev@Base 1.0.4+dfsg0
 _ZN11OpenImageIO4v1_012SocketOutput10copy_imageEPNS0_10ImageInputE@Base 1.0.4+dfsg0
 _ZN11OpenImageIO4v1_012SocketOutput10write_tileEiiiNS0_8TypeDescEPKviii@Base 1.0.4+dfsg0
 _ZN11OpenImageIO4v1_012SocketOutput14write_scanlineEiiNS0_8TypeDescEPKvi@Base 1.0.4+dfsg0
 _ZN11OpenImageIO4v1_012SocketOutput17connect_to_serverERKSs@Base 1.0.4+dfsg0
 _ZN11OpenImageIO4v1_012SocketOutput19send_spec_to_serverERKNS0_9ImageSpecE@Base 1.0.4+dfsg0
 _ZN11OpenImageIO4v1_012SocketOutput4openERKSsRKNS0_9ImageSpecENS0_11ImageOutput8OpenModeE@Base 1.0.4+dfsg0
 _ZN11OpenImageIO4v1_012SocketOutput5closeEv@Base 1.0.4+dfsg0
 _ZN11OpenImageIO4v1_012SocketOutputC1Ev@Base 1.0.4+dfsg0
 _ZN11OpenImageIO4v1_012SocketOutputC2Ev@Base 1.0.4+dfsg0
 _ZN11OpenImageIO4v1_012SocketOutputD0Ev@Base 1.0.4+dfsg0
 _ZN11OpenImageIO4v1_012SocketOutputD1Ev@Base 1.0.4+dfsg0
 _ZN11OpenImageIO4v1_012SocketOutputD2Ev@Base 1.0.4+dfsg0
 _ZN11OpenImageIO4v1_012convert_typeI4halffEEvPKT_PT0_jS6_S6_S6_S6_@Base 1.0.4+dfsg0
 _ZN11OpenImageIO4v1_012convert_typeIcfEEvPKT_PT0_jS5_S5_S5_S5_@Base 1.0.4+dfsg0
 _ZN11OpenImageIO4v1_012convert_typeIdfEEvPKT_PT0_jS5_S5_S5_S5_@Base 1.0.4+dfsg0
 _ZN11OpenImageIO4v1_012convert_typeIf4halfEEvPKT_PT0_jS6_S6_S6_S6_@Base 1.0.4+dfsg0
 _ZN11OpenImageIO4v1_012convert_typeIfcEEvPKT_PT0_jS5_S5_S5_S5_@Base 1.0.4+dfsg0
 _ZN11OpenImageIO4v1_012convert_typeIfdEEvPKT_PT0_jS5_S5_S5_S5_@Base 1.0.4+dfsg0
 _ZN11OpenImageIO4v1_012convert_typeIfhEEvPKT_PT0_jS5_S5_S5_S5_@Base 1.0.4+dfsg0
 _ZN11OpenImageIO4v1_012convert_typeIfiEEvPKT_PT0_jS5_S5_S5_S5_@Base 1.0.4+dfsg0
 _ZN11OpenImageIO4v1_012convert_typeIfjEEvPKT_PT0_jS5_S5_S5_S5_@Base 1.0.4+dfsg0
 _ZN11OpenImageIO4v1_012convert_typeIfsEEvPKT_PT0_jS5_S5_S5_S5_@Base 1.0.4+dfsg0
 _ZN11OpenImageIO4v1_012convert_typeIftEEvPKT_PT0_jS5_S5_S5_S5_@Base 1.0.4+dfsg0
 _ZN11OpenImageIO4v1_012convert_typeIfxEEvPKT_PT0_jS5_S5_S5_S5_@Base 1.0.4+dfsg0
 _ZN11OpenImageIO4v1_012convert_typeIfyEEvPKT_PT0_jS5_S5_S5_S5_@Base 1.0.4+dfsg0
 _ZN11OpenImageIO4v1_012convert_typeIhfEEvPKT_PT0_jS5_S5_S5_S5_@Base 1.0.4+dfsg0
 _ZN11OpenImageIO4v1_012convert_typeIifEEvPKT_PT0_jS5_S5_S5_S5_@Base 1.0.4+dfsg0
 _ZN11OpenImageIO4v1_012convert_typeIjfEEvPKT_PT0_jS5_S5_S5_S5_@Base 1.0.4+dfsg0
 _ZN11OpenImageIO4v1_012convert_typeIsfEEvPKT_PT0_jS5_S5_S5_S5_@Base 1.0.4+dfsg0
 _ZN11OpenImageIO4v1_012convert_typeItfEEvPKT_PT0_jS5_S5_S5_S5_@Base 1.0.4+dfsg0
 _ZN11OpenImageIO4v1_012convert_typeIxfEEvPKT_PT0_jS5_S5_S5_S5_@Base 1.0.4+dfsg0
 _ZN11OpenImageIO4v1_012convert_typeIyfEEvPKT_PT0_jS5_S5_S5_S5_@Base 1.0.4+dfsg0
 _ZN11OpenImageIO4v1_012getattributeERKSsNS0_8TypeDescEPv@Base 1.0.4+dfsg0
 _ZN11OpenImageIO4v1_013OpenEXROutput10write_tileEiiiNS0_8TypeDescEPKviii@Base 1.0.4+dfsg0
 _ZN11OpenImageIO4v1_013OpenEXROutput11write_tilesEiiiiiiNS0_8TypeDescEPKviii@Base 1.0.4+dfsg0
 _ZN11OpenImageIO4v1_013OpenEXROutput13put_parameterERKSsNS0_8TypeDescEPKv@Base 1.0.4+dfsg0
 _ZN11OpenImageIO4v1_013OpenEXROutput14write_scanlineEiiNS0_8TypeDescEPKvi@Base 1.0.4+dfsg0
 _ZN11OpenImageIO4v1_013OpenEXROutput15write_scanlinesEiiiNS0_8TypeDescEPKvii@Base 1.0.4+dfsg0
 _ZN11OpenImageIO4v1_013OpenEXROutput4openERKSsRKNS0_9ImageSpecENS0_11ImageOutput8OpenModeE@Base 1.0.4+dfsg0
 _ZN11OpenImageIO4v1_013OpenEXROutput5closeEv@Base 1.0.4+dfsg0
 _ZN11OpenImageIO4v1_013OpenEXROutputC1Ev@Base 1.0.4+dfsg0
 _ZN11OpenImageIO4v1_013OpenEXROutputC2Ev@Base 1.0.4+dfsg0
 _ZN11OpenImageIO4v1_013OpenEXROutputD0Ev@Base 1.0.4+dfsg0
 _ZN11OpenImageIO4v1_013OpenEXROutputD1Ev@Base 1.0.4+dfsg0
 _ZN11OpenImageIO4v1_013OpenEXROutputD2Ev@Base 1.0.4+dfsg0
 _ZN11OpenImageIO4v1_013TextureSystem10get_texelsENS0_7ustringERNS0_14TextureOptionsEiiiiiiiNS0_8TypeDescEPv@Base 1.0.4+dfsg0
 _ZN11OpenImageIO4v1_013TextureSystem6createEb@Base 1.0.4+dfsg0
 _ZN11OpenImageIO4v1_013TextureSystem7destroyEPS1_@Base 1.0.4+dfsg0
 _ZN11OpenImageIO4v1_013TextureSystem9texture3dENS0_7ustringERNS0_14TextureOptionsERKN5Imath4Vec3IfEES9_S9_S9_Pf@Base 1.0.4+dfsg0
 _ZN11OpenImageIO4v1_013TextureSystemD0Ev@Base 1.0.4+dfsg0
 _ZN11OpenImageIO4v1_013TextureSystemD1Ev@Base 1.0.4+dfsg0
 _ZN11OpenImageIO4v1_013TextureSystemD2Ev@Base 1.0.4+dfsg0
 _ZN11OpenImageIO4v1_013convert_imageEiiiiPKvNS0_8TypeDescEiiiPvS3_iiiii@Base 1.0.4+dfsg0
 _ZN11OpenImageIO4v1_013convert_typesENS0_8TypeDescEPKvS1_Pviii@Base 1.0.4+dfsg0
 _ZN11OpenImageIO4v1_013softimage_pvt13PicFileHeader11read_headerEP8_IO_FILE@Base 1.0.4+dfsg0
 _ZN11OpenImageIO4v1_013softimage_pvt13PicFileHeader11swap_endianEv@Base 1.0.4+dfsg0
 _ZN11OpenImageIO4v1_013spin_rw_mutex10write_lockEv@Base 1.0.4+dfsg0
 _ZN11OpenImageIO4v1_013spin_rw_mutex15read_lock_guardD1Ev@Base 1.0.4+dfsg0
 _ZN11OpenImageIO4v1_013spin_rw_mutex15read_lock_guardD2Ev@Base 1.0.4+dfsg0
 _ZN11OpenImageIO4v1_013spin_rw_mutex16write_lock_guardD1Ev@Base 1.0.4+dfsg0
 _ZN11OpenImageIO4v1_013spin_rw_mutex16write_lock_guardD2Ev@Base 1.0.4+dfsg0
 _ZN11OpenImageIO4v1_013spin_rw_mutex9read_lockEv@Base 1.0.4+dfsg0
 _ZN11OpenImageIO4v1_013spin_rw_mutexD1Ev@Base 1.0.4+dfsg0
 _ZN11OpenImageIO4v1_013spin_rw_mutexD2Ev@Base 1.0.4+dfsg0
 _ZN11OpenImageIO4v1_014ColorProcessorD0Ev@Base 1.0.4+dfsg0
 _ZN11OpenImageIO4v1_014ColorProcessorD1Ev@Base 1.0.4+dfsg0
 _ZN11OpenImageIO4v1_014ColorProcessorD2Ev@Base 1.0.4+dfsg0
 _ZN11OpenImageIO4v1_014ParamValueList6resizeEj@Base 1.0.4+dfsg0
 _ZN11OpenImageIO4v1_014SoftimageInput20read_native_scanlineEiiPv@Base 1.0.4+dfsg0
 _ZN11OpenImageIO4v1_014SoftimageInput4initEv@Base 1.0.4+dfsg0
 _ZN11OpenImageIO4v1_014SoftimageInput4openERKSsRNS0_9ImageSpecE@Base 1.0.4+dfsg0
 _ZN11OpenImageIO4v1_014SoftimageInput5closeEv@Base 1.0.4+dfsg0
 _ZN11OpenImageIO4v1_014SoftimageInputD0Ev@Base 1.0.4+dfsg0
 _ZN11OpenImageIO4v1_014SoftimageInputD1Ev@Base 1.0.4+dfsg0
 _ZN11OpenImageIO4v1_014SoftimageInputD2Ev@Base 1.0.4+dfsg0
 _ZN11OpenImageIO4v1_014TextureOptionsC1ERKNS0_10TextureOptE@Base 1.0.4+dfsg0
 _ZN11OpenImageIO4v1_014TextureOptionsC1Ev@Base 1.0.4+dfsg0
 _ZN11OpenImageIO4v1_014TextureOptionsC2ERKNS0_10TextureOptE@Base 1.0.4+dfsg0
 _ZN11OpenImageIO4v1_014TextureOptionsC2Ev@Base 1.0.4+dfsg0
 _ZN11OpenImageIO4v1_015FilterBSpline1DD0Ev@Base 1.0.4+dfsg0
 _ZN11OpenImageIO4v1_015FilterBSpline1DD1Ev@Base 1.0.4+dfsg0
 _ZN11OpenImageIO4v1_015FilterBSpline1DD2Ev@Base 1.0.4+dfsg0
 _ZN11OpenImageIO4v1_015FilterBSpline2DD0Ev@Base 1.0.4+dfsg0
 _ZN11OpenImageIO4v1_015FilterBSpline2DD1Ev@Base 1.0.4+dfsg0
 _ZN11OpenImageIO4v1_015FilterBSpline2DD2Ev@Base 1.0.4+dfsg0
 _ZN11OpenImageIO4v1_015RGBE_ReadHeaderEP8_IO_FILEPiS3_PNS0_16rgbe_header_infoEPc@Base 1.0.4+dfsg0
 _ZN11OpenImageIO4v1_015RGBE_ReadPixelsEP8_IO_FILEPfiPc@Base 1.0.4+dfsg0
 _ZN11OpenImageIO4v1_015decode_iptc_iimEPKviRNS0_9ImageSpecE@Base 1.0.4+dfsg0
 _ZN11OpenImageIO4v1_015encode_iptc_iimERKNS0_9ImageSpecERSt6vectorIcSaIcEE@Base 1.0.4+dfsg0
 _ZN11OpenImageIO4v1_016FilterGaussian1DD0Ev@Base 1.0.4+dfsg0
 _ZN11OpenImageIO4v1_016FilterGaussian1DD1Ev@Base 1.0.4+dfsg0
 _ZN11OpenImageIO4v1_016FilterGaussian1DD2Ev@Base 1.0.4+dfsg0
 _ZN11OpenImageIO4v1_016FilterGaussian2DD0Ev@Base 1.0.4+dfsg0
 _ZN11OpenImageIO4v1_016FilterGaussian2DD1Ev@Base 1.0.4+dfsg0
 _ZN11OpenImageIO4v1_016FilterGaussian2DD2Ev@Base 1.0.4+dfsg0
 _ZN11OpenImageIO4v1_016FilterMitchell1DD0Ev@Base 1.0.4+dfsg0
 _ZN11OpenImageIO4v1_016FilterMitchell1DD1Ev@Base 1.0.4+dfsg0
 _ZN11OpenImageIO4v1_016FilterMitchell1DD2Ev@Base 1.0.4+dfsg0
 _ZN11OpenImageIO4v1_016FilterMitchell2DD0Ev@Base 1.0.4+dfsg0
 _ZN11OpenImageIO4v1_016FilterMitchell2DD1Ev@Base 1.0.4+dfsg0
 _ZN11OpenImageIO4v1_016FilterMitchell2DD2Ev@Base 1.0.4+dfsg0
 _ZN11OpenImageIO4v1_016FilterTriangle1DD0Ev@Base 1.0.4+dfsg0
 _ZN11OpenImageIO4v1_016FilterTriangle1DD1Ev@Base 1.0.4+dfsg0
 _ZN11OpenImageIO4v1_016FilterTriangle1DD2Ev@Base 1.0.4+dfsg0
 _ZN11OpenImageIO4v1_016FilterTriangle2DD0Ev@Base 1.0.4+dfsg0
 _ZN11OpenImageIO4v1_016FilterTriangle2DD1Ev@Base 1.0.4+dfsg0
 _ZN11OpenImageIO4v1_016FilterTriangle2DD2Ev@Base 1.0.4+dfsg0
 _ZN11OpenImageIO4v1_016QuantizationSpec16quantize_defaultE@Base 1.0.4+dfsg0
 _ZN11OpenImageIO4v1_016QuantizationSpecC1ENS0_8TypeDescE@Base 1.0.4+dfsg0
 _ZN11OpenImageIO4v1_016QuantizationSpecC2ENS0_8TypeDescE@Base 1.0.4+dfsg0
 _ZN11OpenImageIO4v1_016RGBE_WriteHeaderEP8_IO_FILEiiPNS0_16rgbe_header_infoEPc@Base 1.0.4+dfsg0
 _ZN11OpenImageIO4v1_016RGBE_WritePixelsEP8_IO_FILEPfiPc@Base 1.0.4+dfsg0
 _ZN11OpenImageIO4v1_017FilterLanczos3_1DD0Ev@Base 1.0.4+dfsg0
 _ZN11OpenImageIO4v1_017FilterLanczos3_1DD1Ev@Base 1.0.4+dfsg0
 _ZN11OpenImageIO4v1_017FilterLanczos3_1DD2Ev@Base 1.0.4+dfsg0
 _ZN11OpenImageIO4v1_017FilterLanczos3_2DD0Ev@Base 1.0.4+dfsg0
 _ZN11OpenImageIO4v1_017FilterLanczos3_2DD1Ev@Base 1.0.4+dfsg0
 _ZN11OpenImageIO4v1_017FilterLanczos3_2DD2Ev@Base 1.0.4+dfsg0
 _ZN11OpenImageIO4v1_017float_to_rationalEfRjS1_@Base 1.0.4+dfsg0
 _ZN11OpenImageIO4v1_018FilterCatmullRom1DD0Ev@Base 1.0.4+dfsg0
 _ZN11OpenImageIO4v1_018FilterCatmullRom1DD1Ev@Base 1.0.4+dfsg0
 _ZN11OpenImageIO4v1_018FilterCatmullRom1DD2Ev@Base 1.0.4+dfsg0
 _ZN11OpenImageIO4v1_018FilterCatmullRom2DD0Ev@Base 1.0.4+dfsg0
 _ZN11OpenImageIO4v1_018FilterCatmullRom2DD1Ev@Base 1.0.4+dfsg0
 _ZN11OpenImageIO4v1_018FilterCatmullRom2DD2Ev@Base 1.0.4+dfsg0
 _ZN11OpenImageIO4v1_019RGBE_ReadPixels_RLEEP8_IO_FILEPfiiPc@Base 1.0.4+dfsg0
 _ZN11OpenImageIO4v1_019bmp_imageio_versionE@Base 1.0.4+dfsg0
 _ZN11OpenImageIO4v1_019dds_imageio_versionE@Base 1.0.4+dfsg0
 _ZN11OpenImageIO4v1_019dpx_imageio_versionE@Base 1.0.4+dfsg0
 _ZN11OpenImageIO4v1_019hdr_imageio_versionE@Base 1.0.4+dfsg0
 _ZN11OpenImageIO4v1_019ico_imageio_versionE@Base 1.0.4+dfsg0
 _ZN11OpenImageIO4v1_019iff_imageio_versionE@Base 1.0.4+dfsg0
 _ZN11OpenImageIO4v1_019openimageio_versionEv@Base 1.0.4+dfsg0
 _ZN11OpenImageIO4v1_019png_imageio_versionE@Base 1.0.4+dfsg0
 _ZN11OpenImageIO4v1_019pnm_imageio_versionE@Base 1.0.4+dfsg0
 _ZN11OpenImageIO4v1_019psd_imageio_versionE@Base 1.0.4+dfsg0
 _ZN11OpenImageIO4v1_019rla_imageio_versionE@Base 1.0.4+dfsg0
 _ZN11OpenImageIO4v1_019sgi_imageio_versionE@Base 1.0.4+dfsg0
 _ZN11OpenImageIO4v1_020RGBE_WritePixels_RLEEP8_IO_FILEPfiiPc@Base 1.0.4+dfsg0
 _ZN11OpenImageIO4v1_020bmp_input_extensionsE@Base 1.0.4+dfsg0
 _ZN11OpenImageIO4v1_020dds_input_extensionsE@Base 1.0.4+dfsg0
 _ZN11OpenImageIO4v1_020dpx_input_extensionsE@Base 1.0.4+dfsg0
 _ZN11OpenImageIO4v1_020fits_imageio_versionE@Base 1.0.4+dfsg0
 _ZN11OpenImageIO4v1_020hdr_input_extensionsE@Base 1.0.4+dfsg0
 _ZN11OpenImageIO4v1_020ico_input_extensionsE@Base 1.0.4+dfsg0
 _ZN11OpenImageIO4v1_020iff_input_extensionsE@Base 1.0.4+dfsg0
 _ZN11OpenImageIO4v1_020jpeg_imageio_versionE@Base 1.0.4+dfsg0
 _ZN11OpenImageIO4v1_020png_input_extensionsE@Base 1.0.4+dfsg0
 _ZN11OpenImageIO4v1_020pnm_input_extensionsE@Base 1.0.4+dfsg0
 _ZN11OpenImageIO4v1_020psd_input_extensionsE@Base 1.0.4+dfsg0
 _ZN11OpenImageIO4v1_020ptex_imageio_versionE@Base 1.0.4+dfsg0
 _ZN11OpenImageIO4v1_020rla_input_extensionsE@Base 1.0.4+dfsg0
 _ZN11OpenImageIO4v1_020sgi_input_extensionsE@Base 1.0.4+dfsg0
 _ZN11OpenImageIO4v1_020tiff_imageio_versionE@Base 1.0.4+dfsg0
 _ZN11OpenImageIO4v1_021bmp_output_extensionsE@Base 1.0.4+dfsg0
 _ZN11OpenImageIO4v1_021dds_output_extensionsE@Base 1.0.4+dfsg0
 _ZN11OpenImageIO4v1_021dpx_output_extensionsE@Base 1.0.4+dfsg0
 _ZN11OpenImageIO4v1_021fits_input_extensionsE@Base 1.0.4+dfsg0
 _ZN11OpenImageIO4v1_021hdr_output_extensionsE@Base 1.0.4+dfsg0
 _ZN11OpenImageIO4v1_021ico_output_extensionsE@Base 1.0.4+dfsg0
 _ZN11OpenImageIO4v1_021iff_output_extensionsE@Base 1.0.4+dfsg0
 _ZN11OpenImageIO4v1_021intrusive_ptr_add_refINS0_3pvt14ImageCacheFileEEEvPT_@Base 1.0.4+dfsg0
 _ZN11OpenImageIO4v1_021intrusive_ptr_add_refINS0_3pvt14ImageCacheTileEEEvPT_@Base 1.0.4+dfsg0
 _ZN11OpenImageIO4v1_021intrusive_ptr_releaseINS0_3pvt14ImageCacheFileEEEvPT_@Base 1.0.4+dfsg0
 _ZN11OpenImageIO4v1_021intrusive_ptr_releaseINS0_3pvt14ImageCacheTileEEEvPT_@Base 1.0.4+dfsg0
 _ZN11OpenImageIO4v1_021jpeg_input_extensionsE@Base 1.0.4+dfsg0
 _ZN11OpenImageIO4v1_021png_output_extensionsE@Base 1.0.4+dfsg0
 _ZN11OpenImageIO4v1_021pnm_output_extensionsE@Base 1.0.4+dfsg0
 _ZN11OpenImageIO4v1_021psd_output_extensionsE@Base 1.0.4+dfsg0
 _ZN11OpenImageIO4v1_021ptex_input_extensionsE@Base 1.0.4+dfsg0
 _ZN11OpenImageIO4v1_021rla_output_extensionsE@Base 1.0.4+dfsg0
 _ZN11OpenImageIO4v1_021sgi_output_extensionsE@Base 1.0.4+dfsg0
 _ZN11OpenImageIO4v1_021targa_imageio_versionE@Base 1.0.4+dfsg0
 _ZN11OpenImageIO4v1_021tiff_input_extensionsE@Base 1.0.4+dfsg0
 _ZN11OpenImageIO4v1_021zfile_imageio_versionE@Base 1.0.4+dfsg0
 _ZN11OpenImageIO4v1_022FilterBlackmanHarris1DD0Ev@Base 1.0.4+dfsg0
 _ZN11OpenImageIO4v1_022FilterBlackmanHarris1DD1Ev@Base 1.0.4+dfsg0
 _ZN11OpenImageIO4v1_022FilterBlackmanHarris1DD2Ev@Base 1.0.4+dfsg0
 _ZN11OpenImageIO4v1_022FilterBlackmanHarris2DD0Ev@Base 1.0.4+dfsg0
 _ZN11OpenImageIO4v1_022FilterBlackmanHarris2DD1Ev@Base 1.0.4+dfsg0
 _ZN11OpenImageIO4v1_022FilterBlackmanHarris2DD2Ev@Base 1.0.4+dfsg0
 _ZN11OpenImageIO4v1_022cineon_imageio_versionE@Base 1.0.4+dfsg0
 _ZN11OpenImageIO4v1_022fits_output_extensionsE@Base 1.0.4+dfsg0
 _ZN11OpenImageIO4v1_022jpeg_output_extensionsE@Base 1.0.4+dfsg0
 _ZN11OpenImageIO4v1_022ptex_output_extensionsE@Base 1.0.4+dfsg0
 _ZN11OpenImageIO4v1_022socket_imageio_versionE@Base 1.0.4+dfsg0
 _ZN11OpenImageIO4v1_022targa_input_extensionsE@Base 1.0.4+dfsg0
 _ZN11OpenImageIO4v1_022tiff_output_extensionsE@Base 1.0.4+dfsg0
 _ZN11OpenImageIO4v1_022zfile_input_extensionsE@Base 1.0.4+dfsg0
 _ZN11OpenImageIO4v1_023FilterRadialLanczos3_2DD0Ev@Base 1.0.4+dfsg0
 _ZN11OpenImageIO4v1_023FilterRadialLanczos3_2DD1Ev@Base 1.0.4+dfsg0
 _ZN11OpenImageIO4v1_023FilterRadialLanczos3_2DD2Ev@Base 1.0.4+dfsg0
 _ZN11OpenImageIO4v1_023cineon_input_extensionsE@Base 1.0.4+dfsg0
 _ZN11OpenImageIO4v1_023openexr_imageio_versionE@Base 1.0.4+dfsg0
 _ZN11OpenImageIO4v1_023socket_input_extensionsE@Base 1.0.4+dfsg0
 _ZN11OpenImageIO4v1_023targa_output_extensionsE@Base 1.0.4+dfsg0
 _ZN11OpenImageIO4v1_023zfile_output_extensionsE@Base 1.0.4+dfsg0
 _ZN11OpenImageIO4v1_024bmp_input_imageio_createEv@Base 1.0.4+dfsg0
 _ZN11OpenImageIO4v1_024cineon_output_extensionsE@Base 1.0.4+dfsg0
 _ZN11OpenImageIO4v1_024dds_input_imageio_createEv@Base 1.0.4+dfsg0
 _ZN11OpenImageIO4v1_024dpx_input_imageio_createEv@Base 1.0.4+dfsg0
 _ZN11OpenImageIO4v1_024hdr_input_imageio_createEv@Base 1.0.4+dfsg0
 _ZN11OpenImageIO4v1_024ico_input_imageio_createEv@Base 1.0.4+dfsg0
 _ZN11OpenImageIO4v1_024iff_input_imageio_createEv@Base 1.0.4+dfsg0
 _ZN11OpenImageIO4v1_024openexr_input_extensionsE@Base 1.0.4+dfsg0
 _ZN11OpenImageIO4v1_024png_input_imageio_createEv@Base 1.0.4+dfsg0
 _ZN11OpenImageIO4v1_024pnm_input_imageio_createEv@Base 1.0.4+dfsg0
 _ZN11OpenImageIO4v1_024psd_input_imageio_createEv@Base 1.0.4+dfsg0
 _ZN11OpenImageIO4v1_024rla_input_imageio_createEv@Base 1.0.4+dfsg0
 _ZN11OpenImageIO4v1_024sgi_input_imageio_createEv@Base 1.0.4+dfsg0
 _ZN11OpenImageIO4v1_024socket_output_extensionsE@Base 1.0.4+dfsg0
 _ZN11OpenImageIO4v1_025bmp_output_imageio_createEv@Base 1.0.4+dfsg0
 _ZN11OpenImageIO4v1_025dds_output_imageio_createEv@Base 1.0.4+dfsg0
 _ZN11OpenImageIO4v1_025dpx_output_imageio_createEv@Base 1.0.4+dfsg0
 _ZN11OpenImageIO4v1_025fits_input_imageio_createEv@Base 1.0.4+dfsg0
 _ZN11OpenImageIO4v1_025hdr_output_imageio_createEv@Base 1.0.4+dfsg0
 _ZN11OpenImageIO4v1_025ico_output_imageio_createEv@Base 1.0.4+dfsg0
 _ZN11OpenImageIO4v1_025iff_output_imageio_createEv@Base 1.0.4+dfsg0
 _ZN11OpenImageIO4v1_025jpeg_input_imageio_createEv@Base 1.0.4+dfsg0
 _ZN11OpenImageIO4v1_025openexr_output_extensionsE@Base 1.0.4+dfsg0
 _ZN11OpenImageIO4v1_025png_output_imageio_createEv@Base 1.0.4+dfsg0
 _ZN11OpenImageIO4v1_025pnm_output_imageio_createEv@Base 1.0.4+dfsg0
 _ZN11OpenImageIO4v1_025psd_output_imageio_createEv@Base 1.0.4+dfsg0
 _ZN11OpenImageIO4v1_025ptex_input_imageio_createEv@Base 1.0.4+dfsg0
 _ZN11OpenImageIO4v1_025rla_output_imageio_createEv@Base 1.0.4+dfsg0
 _ZN11OpenImageIO4v1_025sgi_output_imageio_createEv@Base 1.0.4+dfsg0
 _ZN11OpenImageIO4v1_025softimage_imageio_versionE@Base 1.0.4+dfsg0
 _ZN11OpenImageIO4v1_025tiff_input_imageio_createEv@Base 1.0.4+dfsg0
 _ZN11OpenImageIO4v1_026fits_output_imageio_createEv@Base 1.0.4+dfsg0
 _ZN11OpenImageIO4v1_026jpeg_output_imageio_createEv@Base 1.0.4+dfsg0
 _ZN11OpenImageIO4v1_026ptex_output_imageio_createEv@Base 1.0.4+dfsg0
 _ZN11OpenImageIO4v1_026softimage_input_extensionsE@Base 1.0.4+dfsg0
 _ZN11OpenImageIO4v1_026targa_input_imageio_createEv@Base 1.0.4+dfsg0
 _ZN11OpenImageIO4v1_026tiff_output_imageio_createEv@Base 1.0.4+dfsg0
 _ZN11OpenImageIO4v1_026zfile_input_imageio_createEv@Base 1.0.4+dfsg0
 _ZN11OpenImageIO4v1_027cineon_input_imageio_createEv@Base 1.0.4+dfsg0
 _ZN11OpenImageIO4v1_027socket_input_imageio_createEv@Base 1.0.4+dfsg0
 _ZN11OpenImageIO4v1_027softimage_output_extensionsE@Base 1.0.4+dfsg0
 _ZN11OpenImageIO4v1_027targa_output_imageio_createEv@Base 1.0.4+dfsg0
 _ZN11OpenImageIO4v1_027zfile_output_imageio_createEv@Base 1.0.4+dfsg0
 _ZN11OpenImageIO4v1_028cineon_output_imageio_createEv@Base 1.0.4+dfsg0
 _ZN11OpenImageIO4v1_028openexr_input_imageio_createEv@Base 1.0.4+dfsg0
 _ZN11OpenImageIO4v1_028socket_output_imageio_createEv@Base 1.0.4+dfsg0
 _ZN11OpenImageIO4v1_029ColorProcessor_linear_to_sRGBD0Ev@Base 1.0.4+dfsg0
 _ZN11OpenImageIO4v1_029ColorProcessor_linear_to_sRGBD1Ev@Base 1.0.4+dfsg0
 _ZN11OpenImageIO4v1_029ColorProcessor_linear_to_sRGBD2Ev@Base 1.0.4+dfsg0
 _ZN11OpenImageIO4v1_029ColorProcessor_sRGB_to_linearD0Ev@Base 1.0.4+dfsg0
 _ZN11OpenImageIO4v1_029ColorProcessor_sRGB_to_linearD1Ev@Base 1.0.4+dfsg0
 _ZN11OpenImageIO4v1_029ColorProcessor_sRGB_to_linearD2Ev@Base 1.0.4+dfsg0
 _ZN11OpenImageIO4v1_029openexr_output_imageio_createEv@Base 1.0.4+dfsg0
 _ZN11OpenImageIO4v1_030softimage_input_imageio_createEv@Base 1.0.4+dfsg0
 _ZN11OpenImageIO4v1_031ColorProcessor_Rec709_to_linearD0Ev@Base 1.0.4+dfsg0
 _ZN11OpenImageIO4v1_031ColorProcessor_Rec709_to_linearD1Ev@Base 1.0.4+dfsg0
 _ZN11OpenImageIO4v1_031ColorProcessor_Rec709_to_linearD2Ev@Base 1.0.4+dfsg0
 _ZN11OpenImageIO4v1_031ColorProcessor_linear_to_Rec709D0Ev@Base 1.0.4+dfsg0
 _ZN11OpenImageIO4v1_031ColorProcessor_linear_to_Rec709D1Ev@Base 1.0.4+dfsg0
 _ZN11OpenImageIO4v1_031ColorProcessor_linear_to_Rec709D2Ev@Base 1.0.4+dfsg0
 _ZN11OpenImageIO4v1_031softimage_output_imageio_createEv@Base 1.0.4+dfsg0
 _ZN11OpenImageIO4v1_03pvt10contiguizeEPKviiiiPviiiNS0_8TypeDescE@Base 1.0.4+dfsg0
 _ZN11OpenImageIO4v1_03pvt12ellipse_axesEffffRfS2_@Base 1.0.4+dfsg0
 _ZN11OpenImageIO4v1_03pvt13imageio_mutexE@Base 1.0.4+dfsg0
 _ZN11OpenImageIO4v1_03pvt14ImageCacheFile10invalidateEv@Base 1.0.4+dfsg0
 _ZN11OpenImageIO4v1_03pvt14ImageCacheFile12SubimageInfoC1ERKS3_@Base 1.0.4+dfsg0
 _ZN11OpenImageIO4v1_03pvt14ImageCacheFile12SubimageInfoC2ERKS3_@Base 1.0.4+dfsg0
 _ZN11OpenImageIO4v1_03pvt14ImageCacheFile12read_untiledEPNS1_23ImageCachePerThreadInfoEiiiiiNS0_8TypeDescEPv@Base 1.0.4+dfsg0
 _ZN11OpenImageIO4v1_03pvt14ImageCacheFile13read_unmippedEPNS1_23ImageCachePerThreadInfoEiiiiiNS0_8TypeDescEPv@Base 1.0.4+dfsg0
 _ZN11OpenImageIO4v1_03pvt14ImageCacheFile15invalidate_specEv@Base 1.0.4+dfsg0
 _ZN11OpenImageIO4v1_03pvt14ImageCacheFile4openEPNS1_23ImageCachePerThreadInfoE@Base 1.0.4+dfsg0
 _ZN11OpenImageIO4v1_03pvt14ImageCacheFile5closeEv@Base 1.0.4+dfsg0
 _ZN11OpenImageIO4v1_03pvt14ImageCacheFile7releaseEv@Base 1.0.4+dfsg0
 _ZN11OpenImageIO4v1_03pvt14ImageCacheFile9LevelInfoC1ERKNS0_9ImageSpecES6_@Base 1.0.4+dfsg0
 _ZN11OpenImageIO4v1_03pvt14ImageCacheFile9LevelInfoC1ERKS3_@Base 1.0.4+dfsg0
 _ZN11OpenImageIO4v1_03pvt14ImageCacheFile9LevelInfoC2ERKNS0_9ImageSpecES6_@Base 1.0.4+dfsg0
 _ZN11OpenImageIO4v1_03pvt14ImageCacheFile9LevelInfoC2ERKS3_@Base 1.0.4+dfsg0
 _ZN11OpenImageIO4v1_03pvt14ImageCacheFile9LevelInfoD1Ev@Base 1.0.4+dfsg0
 _ZN11OpenImageIO4v1_03pvt14ImageCacheFile9LevelInfoD2Ev@Base 1.0.4+dfsg0
 _ZN11OpenImageIO4v1_03pvt14ImageCacheFile9LevelInfoaSERKS3_@Base 1.0.4+dfsg0
 _ZN11OpenImageIO4v1_03pvt14ImageCacheFile9forceopenEPNS1_23ImageCachePerThreadInfoE@Base 1.0.4+dfsg0
 _ZN11OpenImageIO4v1_03pvt14ImageCacheFile9read_tileEPNS1_23ImageCachePerThreadInfoEiiiiiNS0_8TypeDescEPv@Base 1.0.4+dfsg0
 _ZN11OpenImageIO4v1_03pvt14ImageCacheFileC1ERNS1_14ImageCacheImplEPNS1_23ImageCachePerThreadInfoENS0_7ustringE@Base 1.0.4+dfsg0
 _ZN11OpenImageIO4v1_03pvt14ImageCacheFileC2ERNS1_14ImageCacheImplEPNS1_23ImageCachePerThreadInfoENS0_7ustringE@Base 1.0.4+dfsg0
 _ZN11OpenImageIO4v1_03pvt14ImageCacheFileD1Ev@Base 1.0.4+dfsg0
 _ZN11OpenImageIO4v1_03pvt14ImageCacheFileD2Ev@Base 1.0.4+dfsg0
 _ZN11OpenImageIO4v1_03pvt14ImageCacheImpl10decr_tilesEj@Base 1.0.4+dfsg0
 _ZN11OpenImageIO4v1_03pvt14ImageCacheImpl10get_pixelsENS0_7ustringEiiiiiiiiNS0_8TypeDescEPv@Base 1.0.4+dfsg0
 _ZN11OpenImageIO4v1_03pvt14ImageCacheImpl10get_pixelsEPNS1_14ImageCacheFileEPNS1_23ImageCachePerThreadInfoEiiiiiiiiNS0_8TypeDescEPv@Base 1.0.4+dfsg0
 _ZN11OpenImageIO4v1_03pvt14ImageCacheImpl10incr_tilesEj@Base 1.0.4+dfsg0
 _ZN11OpenImageIO4v1_03pvt14ImageCacheImpl10invalidateENS0_7ustringE@Base 1.0.4+dfsg0
 _ZN11OpenImageIO4v1_03pvt14ImageCacheImpl11reset_statsEv@Base 1.0.4+dfsg0
 _ZN11OpenImageIO4v1_03pvt14ImageCacheImpl12getattributeERKSsNS0_8TypeDescEPv@Base 1.0.4+dfsg0
 _ZN11OpenImageIO4v1_03pvt14ImageCacheImpl12getattributeERKSsPPc@Base 1.0.4+dfsg0
 _ZN11OpenImageIO4v1_03pvt14ImageCacheImpl12getattributeERKSsRSs@Base 1.0.4+dfsg0
 _ZN11OpenImageIO4v1_03pvt14ImageCacheImpl12getattributeERKSsRd@Base 1.0.4+dfsg0
 _ZN11OpenImageIO4v1_03pvt14ImageCacheImpl12getattributeERKSsRf@Base 1.0.4+dfsg0
 _ZN11OpenImageIO4v1_03pvt14ImageCacheImpl12getattributeERKSsRi@Base 1.0.4+dfsg0
 _ZN11OpenImageIO4v1_03pvt14ImageCacheImpl13check_max_memEPNS1_23ImageCachePerThreadInfoE@Base 1.0.4+dfsg0
 _ZN11OpenImageIO4v1_03pvt14ImageCacheImpl13get_imagespecENS0_7ustringERNS0_9ImageSpecEiib@Base 1.0.4+dfsg0
 _ZN11OpenImageIO4v1_03pvt14ImageCacheImpl14get_image_infoENS0_7ustringEiiS3_NS0_8TypeDescEPv@Base 1.0.4+dfsg0
 _ZN11OpenImageIO4v1_03pvt14ImageCacheImpl14invalidate_allEb@Base 1.0.4+dfsg0
 _ZN11OpenImageIO4v1_03pvt14ImageCacheImpl15check_max_filesEPNS1_23ImageCachePerThreadInfoE@Base 1.0.4+dfsg0
 _ZN11OpenImageIO4v1_03pvt14ImageCacheImpl15incr_open_filesEv@Base 1.0.4+dfsg0
 _ZN11OpenImageIO4v1_03pvt14ImageCacheImpl16find_fingerprintENS0_7ustringEPNS1_14ImageCacheFileE@Base 1.0.4+dfsg0
 _ZN11OpenImageIO4v1_03pvt14ImageCacheImpl17add_tile_to_cacheERN5boost13intrusive_ptrINS1_14ImageCacheTileEEEPNS1_23ImageCachePerThreadInfoE@Base 1.0.4+dfsg0
 _ZN11OpenImageIO4v1_03pvt14ImageCacheImpl18clear_fingerprintsEv@Base 1.0.4+dfsg0
 _ZN11OpenImageIO4v1_03pvt14ImageCacheImpl18get_perthread_infoEv@Base 1.0.4+dfsg0
 _ZN11OpenImageIO4v1_03pvt14ImageCacheImpl18set_min_cache_sizeEx@Base 1.0.4+dfsg0
 _ZN11OpenImageIO4v1_03pvt14ImageCacheImpl20erase_perthread_infoEv@Base 1.0.4+dfsg0
 _ZN11OpenImageIO4v1_03pvt14ImageCacheImpl20find_tile_main_cacheERKNS1_6TileIDERN5boost13intrusive_ptrINS1_14ImageCacheTileEEEPNS1_23ImageCachePerThreadInfoE@Base 1.0.4+dfsg0
 _ZN11OpenImageIO4v1_03pvt14ImageCacheImpl22cleanup_perthread_infoEPNS1_23ImageCachePerThreadInfoE@Base 1.0.4+dfsg0
 _ZN11OpenImageIO4v1_03pvt14ImageCacheImpl22m_perthread_info_mutexE@Base 1.0.4+dfsg0
 _ZN11OpenImageIO4v1_03pvt14ImageCacheImpl25check_max_files_with_lockEPNS1_23ImageCachePerThreadInfoE@Base 1.0.4+dfsg0
 _ZN11OpenImageIO4v1_03pvt14ImageCacheImpl4initEv@Base 1.0.4+dfsg0
 _ZN11OpenImageIO4v1_03pvt14ImageCacheImpl5clearEv@Base 1.0.4+dfsg0
 _ZN11OpenImageIO4v1_03pvt14ImageCacheImpl5errorEPKcz@Base 1.0.4+dfsg0
 _ZN11OpenImageIO4v1_03pvt14ImageCacheImpl8get_tileENS0_7ustringEiiiii@Base 1.0.4+dfsg0
 _ZN11OpenImageIO4v1_03pvt14ImageCacheImpl9attributeERKSsNS0_8TypeDescEPKv@Base 1.0.4+dfsg0
 _ZN11OpenImageIO4v1_03pvt14ImageCacheImpl9attributeERKSsPKc@Base 1.0.4+dfsg0
 _ZN11OpenImageIO4v1_03pvt14ImageCacheImpl9attributeERKSsS4_@Base 1.0.4+dfsg0
 _ZN11OpenImageIO4v1_03pvt14ImageCacheImpl9attributeERKSsd@Base 1.0.4+dfsg0
 _ZN11OpenImageIO4v1_03pvt14ImageCacheImpl9attributeERKSsf@Base 1.0.4+dfsg0
 _ZN11OpenImageIO4v1_03pvt14ImageCacheImpl9attributeERKSsi@Base 1.0.4+dfsg0
 _ZN11OpenImageIO4v1_03pvt14ImageCacheImpl9find_fileENS0_7ustringEPNS1_23ImageCachePerThreadInfoE@Base 1.0.4+dfsg0
 _ZN11OpenImageIO4v1_03pvt14ImageCacheImpl9find_tileERKNS1_6TileIDEPNS1_23ImageCachePerThreadInfoE@Base 1.0.4+dfsg0
 _ZN11OpenImageIO4v1_03pvt14ImageCacheImpl9imagespecENS0_7ustringEiib@Base 1.0.4+dfsg0
 _ZN11OpenImageIO4v1_03pvt14ImageCacheImplC1Ev@Base 1.0.4+dfsg0
 _ZN11OpenImageIO4v1_03pvt14ImageCacheImplC2Ev@Base 1.0.4+dfsg0
 _ZN11OpenImageIO4v1_03pvt14ImageCacheImplD0Ev@Base 1.0.4+dfsg0
 _ZN11OpenImageIO4v1_03pvt14ImageCacheImplD1Ev@Base 1.0.4+dfsg0
 _ZN11OpenImageIO4v1_03pvt14ImageCacheImplD2Ev@Base 1.0.4+dfsg0
 _ZN11OpenImageIO4v1_03pvt14ImageCacheTile3useEv@Base 1.0.4+dfsg0
 _ZN11OpenImageIO4v1_03pvt14ImageCacheTile4readEPNS1_23ImageCachePerThreadInfoE@Base 1.0.4+dfsg0
 _ZN11OpenImageIO4v1_03pvt14ImageCacheTileC1ERKNS1_6TileIDEPNS1_23ImageCachePerThreadInfoEb@Base 1.0.4+dfsg0
 _ZN11OpenImageIO4v1_03pvt14ImageCacheTileC1ERKNS1_6TileIDEPvNS0_8TypeDescEiii@Base 1.0.4+dfsg0
 _ZN11OpenImageIO4v1_03pvt14ImageCacheTileC2ERKNS1_6TileIDEPNS1_23ImageCachePerThreadInfoEb@Base 1.0.4+dfsg0
 _ZN11OpenImageIO4v1_03pvt14ImageCacheTileC2ERKNS1_6TileIDEPvNS0_8TypeDescEiii@Base 1.0.4+dfsg0
 _ZN11OpenImageIO4v1_03pvt14ImageCacheTileD1Ev@Base 1.0.4+dfsg0
 _ZN11OpenImageIO4v1_03pvt14ImageCacheTileD2Ev@Base 1.0.4+dfsg0
 _ZN11OpenImageIO4v1_03pvt15set_exr_threadsEv@Base 1.0.4+dfsg0
 _ZN11OpenImageIO4v1_03pvt16convert_to_floatEPKvPfiNS0_8TypeDescE@Base 1.0.4+dfsg0
 _ZN11OpenImageIO4v1_03pvt17TextureSystemImpl10get_texelsENS0_7ustringERNS0_10TextureOptEiiiiiiiNS0_8TypeDescEPv@Base 1.0.4+dfsg0
 _ZN11OpenImageIO4v1_03pvt17TextureSystemImpl10invalidateENS0_7ustringE@Base 1.0.4+dfsg0
 _ZN11OpenImageIO4v1_03pvt17TextureSystemImpl10pole_colorERNS1_14ImageCacheFileEPNS1_23ImageCachePerThreadInfoERKNS3_9LevelInfoERN5boost13intrusive_ptrINS1_14ImageCacheTileEEEiii@Base 1.0.4+dfsg0
 _ZN11OpenImageIO4v1_03pvt17TextureSystemImpl10wrap_blackERiii@Base 1.0.4+dfsg0
 _ZN11OpenImageIO4v1_03pvt17TextureSystemImpl10wrap_clampERiii@Base 1.0.4+dfsg0
 _ZN11OpenImageIO4v1_03pvt17TextureSystemImpl11environmentENS0_7ustringERNS0_10TextureOptERKN5Imath4Vec3IfEESA_SA_Pf@Base 1.0.4+dfsg0
 _ZN11OpenImageIO4v1_03pvt17TextureSystemImpl11environmentENS0_7ustringERNS0_14TextureOptionsEPhiiNS0_10VaryingRefIN5Imath4Vec3IfEEEESB_SB_Pf@Base 1.0.4+dfsg0
 _ZN11OpenImageIO4v1_03pvt17TextureSystemImpl11environmentEPNS0_13TextureSystem13TextureHandleEPNS3_9PerthreadERNS0_10TextureOptERKN5Imath4Vec3IfEESE_SE_Pf@Base 1.0.4+dfsg0
 _ZN11OpenImageIO4v1_03pvt17TextureSystemImpl11reset_statsEv@Base 1.0.4+dfsg0
 _ZN11OpenImageIO4v1_03pvt17TextureSystemImpl11wrap_mirrorERiii@Base 1.0.4+dfsg0
 _ZN11OpenImageIO4v1_03pvt17TextureSystemImpl12fade_to_poleEfPfRfRNS1_14ImageCacheFileEPNS1_23ImageCachePerThreadInfoERKNS5_9LevelInfoERNS0_10TextureOptEii@Base 1.0.4+dfsg0
 _ZN11OpenImageIO4v1_03pvt17TextureSystemImpl12getattributeERKSsNS0_8TypeDescEPv@Base 1.0.4+dfsg0
 _ZN11OpenImageIO4v1_03pvt17TextureSystemImpl12getattributeERKSsPPc@Base 1.0.4+dfsg0
 _ZN11OpenImageIO4v1_03pvt17TextureSystemImpl12getattributeERKSsRSs@Base 1.0.4+dfsg0
 _ZN11OpenImageIO4v1_03pvt17TextureSystemImpl12getattributeERKSsRd@Base 1.0.4+dfsg0
 _ZN11OpenImageIO4v1_03pvt17TextureSystemImpl12getattributeERKSsRf@Base 1.0.4+dfsg0
 _ZN11OpenImageIO4v1_03pvt17TextureSystemImpl12getattributeERKSsRi@Base 1.0.4+dfsg0
 _ZN11OpenImageIO4v1_03pvt17TextureSystemImpl13fill_channelsEiRNS0_10TextureOptEPf@Base 1.0.4+dfsg0
 _ZN11OpenImageIO4v1_03pvt17TextureSystemImpl13get_imagespecENS0_7ustringEiRNS0_9ImageSpecE@Base 1.0.4+dfsg0
 _ZN11OpenImageIO4v1_03pvt17TextureSystemImpl13wrap_periodicERiii@Base 1.0.4+dfsg0
 _ZN11OpenImageIO4v1_03pvt17TextureSystemImpl14invalidate_allEb@Base 1.0.4+dfsg0
 _ZN11OpenImageIO4v1_03pvt17TextureSystemImpl14texture_lookupERNS1_14ImageCacheFileEPNS1_23ImageCachePerThreadInfoERNS0_10TextureOptEffffffPf@Base 1.0.4+dfsg0
 _ZN11OpenImageIO4v1_03pvt17TextureSystemImpl14wrap_functionsE@Base 1.0.4+dfsg0
 _ZN11OpenImageIO4v1_03pvt17TextureSystemImpl14wrap_periodic2ERiii@Base 1.0.4+dfsg0
 _ZN11OpenImageIO4v1_03pvt17TextureSystemImpl15missing_textureERNS0_10TextureOptEPf@Base 1.0.4+dfsg0
 _ZN11OpenImageIO4v1_03pvt17TextureSystemImpl16find_texturefileENS0_7ustringEPNS1_23ImageCachePerThreadInfoE@Base 1.0.4+dfsg0
 _ZN11OpenImageIO4v1_03pvt17TextureSystemImpl16get_texture_infoENS0_7ustringEiS3_NS0_8TypeDescEPv@Base 1.0.4+dfsg0
 _ZN11OpenImageIO4v1_03pvt17TextureSystemImpl18anisotropic_aspectERfS3_RNS0_10TextureOptES3_@Base 1.0.4+dfsg0
 _ZN11OpenImageIO4v1_03pvt17TextureSystemImpl18get_perthread_infoEv@Base 1.0.4+dfsg0
 _ZN11OpenImageIO4v1_03pvt17TextureSystemImpl18get_texture_handleENS0_7ustringEPNS0_13TextureSystem9PerthreadE@Base 1.0.4+dfsg0
 _ZN11OpenImageIO4v1_03pvt17TextureSystemImpl20accum_sample_bicubicEffiRNS1_14ImageCacheFileEPNS1_23ImageCachePerThreadInfoERNS0_10TextureOptEfPfS9_S9_@Base 1.0.4+dfsg0
 _ZN11OpenImageIO4v1_03pvt17TextureSystemImpl20accum_sample_closestEffiRNS1_14ImageCacheFileEPNS1_23ImageCachePerThreadInfoERNS0_10TextureOptEfPfS9_S9_@Base 1.0.4+dfsg0
 _ZN11OpenImageIO4v1_03pvt17TextureSystemImpl20texture_lookup_nomipERNS1_14ImageCacheFileEPNS1_23ImageCachePerThreadInfoERNS0_10TextureOptEffffffPf@Base 1.0.4+dfsg0
 _ZN11OpenImageIO4v1_03pvt17TextureSystemImpl21accum_sample_bilinearEffiRNS1_14ImageCacheFileEPNS1_23ImageCachePerThreadInfoERNS0_10TextureOptEfPfS9_S9_@Base 1.0.4+dfsg0
 _ZN11OpenImageIO4v1_03pvt17TextureSystemImpl22accum3d_sample_closestERKN5Imath4Vec3IfEEiRNS1_14ImageCacheFileEPNS1_23ImageCachePerThreadInfoERNS0_10TextureOptEfPfSE_SE_SE_@Base 1.0.4+dfsg0
 _ZN11OpenImageIO4v1_03pvt17TextureSystemImpl22texture3d_lookup_nomipERNS1_14ImageCacheFileEPNS1_23ImageCachePerThreadInfoERNS0_10TextureOptERKN5Imath4Vec3IfEESD_SD_SD_Pf@Base 1.0.4+dfsg0
 _ZN11OpenImageIO4v1_03pvt17TextureSystemImpl23accum3d_sample_bilinearERKN5Imath4Vec3IfEEiRNS1_14ImageCacheFileEPNS1_23ImageCachePerThreadInfoERNS0_10TextureOptEfPfSE_SE_SE_@Base 1.0.4+dfsg0
 _ZN11OpenImageIO4v1_03pvt17TextureSystemImpl26wrap_periodic_sharedborderERiii@Base 1.0.4+dfsg0
 _ZN11OpenImageIO4v1_03pvt17TextureSystemImpl31texture_lookup_trilinear_mipmapERNS1_14ImageCacheFileEPNS1_23ImageCachePerThreadInfoERNS0_10TextureOptEffffffPf@Base 1.0.4+dfsg0
 _ZN11OpenImageIO4v1_03pvt17TextureSystemImpl4initEv@Base 1.0.4+dfsg0
 _ZN11OpenImageIO4v1_03pvt17TextureSystemImpl5clearEv@Base 1.0.4+dfsg0
 _ZN11OpenImageIO4v1_03pvt17TextureSystemImpl5errorEPKcz@Base 1.0.4+dfsg0
 _ZN11OpenImageIO4v1_03pvt17TextureSystemImpl6shadowENS0_7ustringERNS0_10TextureOptERKN5Imath4Vec3IfEESA_SA_Pf@Base 1.0.4+dfsg0
 _ZN11OpenImageIO4v1_03pvt17TextureSystemImpl6shadowENS0_7ustringERNS0_14TextureOptionsEPhiiNS0_10VaryingRefIN5Imath4Vec3IfEEEESB_SB_Pf@Base 1.0.4+dfsg0
 _ZN11OpenImageIO4v1_03pvt17TextureSystemImpl6shadowEPNS0_13TextureSystem13TextureHandleEPNS3_9PerthreadERNS0_10TextureOptERKN5Imath4Vec3IfEESE_SE_Pf@Base 1.0.4+dfsg0
 _ZN11OpenImageIO4v1_03pvt17TextureSystemImpl7textureENS0_7ustringERNS0_10TextureOptEffffffPf@Base 1.0.4+dfsg0
 _ZN11OpenImageIO4v1_03pvt17TextureSystemImpl7textureENS0_7ustringERNS0_14TextureOptionsEPhiiNS0_10VaryingRefIfEES8_S8_S8_S8_S8_Pf@Base 1.0.4+dfsg0
 _ZN11OpenImageIO4v1_03pvt17TextureSystemImpl7textureENS0_7ustringERNS0_14TextureOptionsEffffffPf@Base 1.0.4+dfsg0
 _ZN11OpenImageIO4v1_03pvt17TextureSystemImpl7textureEPNS0_13TextureSystem13TextureHandleEPNS3_9PerthreadERNS0_10TextureOptEffffffPf@Base 1.0.4+dfsg0
 _ZN11OpenImageIO4v1_03pvt17TextureSystemImpl9attributeERKSsNS0_8TypeDescEPKv@Base 1.0.4+dfsg0
 _ZN11OpenImageIO4v1_03pvt17TextureSystemImpl9attributeERKSsPKc@Base 1.0.4+dfsg0
 _ZN11OpenImageIO4v1_03pvt17TextureSystemImpl9attributeERKSsS4_@Base 1.0.4+dfsg0
 _ZN11OpenImageIO4v1_03pvt17TextureSystemImpl9attributeERKSsd@Base 1.0.4+dfsg0
 _ZN11OpenImageIO4v1_03pvt17TextureSystemImpl9attributeERKSsf@Base 1.0.4+dfsg0
 _ZN11OpenImageIO4v1_03pvt17TextureSystemImpl9attributeERKSsi@Base 1.0.4+dfsg0
 _ZN11OpenImageIO4v1_03pvt17TextureSystemImpl9imagespecENS0_7ustringEi@Base 1.0.4+dfsg0
 _ZN11OpenImageIO4v1_03pvt17TextureSystemImpl9texture3dENS0_7ustringERNS0_10TextureOptERKN5Imath4Vec3IfEESA_SA_SA_Pf@Base 1.0.4+dfsg0
 _ZN11OpenImageIO4v1_03pvt17TextureSystemImpl9texture3dENS0_7ustringERNS0_14TextureOptionsEPhiiNS0_10VaryingRefIN5Imath4Vec3IfEEEESB_SB_SB_Pf@Base 1.0.4+dfsg0
 _ZN11OpenImageIO4v1_03pvt17TextureSystemImpl9texture3dEPNS0_13TextureSystem13TextureHandleEPNS3_9PerthreadERNS0_10TextureOptERKN5Imath4Vec3IfEESE_SE_SE_Pf@Base 1.0.4+dfsg0
 _ZN11OpenImageIO4v1_03pvt17TextureSystemImplC1EPNS0_10ImageCacheE@Base 1.0.4+dfsg0
 _ZN11OpenImageIO4v1_03pvt17TextureSystemImplC2EPNS0_10ImageCacheE@Base 1.0.4+dfsg0
 _ZN11OpenImageIO4v1_03pvt17TextureSystemImplD0Ev@Base 1.0.4+dfsg0
 _ZN11OpenImageIO4v1_03pvt17TextureSystemImplD1Ev@Base 1.0.4+dfsg0
 _ZN11OpenImageIO4v1_03pvt17TextureSystemImplD2Ev@Base 1.0.4+dfsg0
 _ZN11OpenImageIO4v1_03pvt17adjust_width_blurERfS2_S2_S2_ffff@Base 1.0.4+dfsg0
 _ZN11OpenImageIO4v1_03pvt17texture_type_nameENS1_9TexFormatE@Base 1.0.4+dfsg0
 _ZN11OpenImageIO4v1_03pvt18convert_from_floatEPKfPvjiiiiNS0_8TypeDescE@Base 1.0.4+dfsg0
 _ZN11OpenImageIO4v1_03pvt19texture_format_nameENS1_9TexFormatE@Base 1.0.4+dfsg0
 _ZN11OpenImageIO4v1_03pvt20ImageCacheStatistics4initEv@Base 1.0.4+dfsg0
 _ZN11OpenImageIO4v1_03pvt20ImageCacheStatistics5mergeERKS2_@Base 1.0.4+dfsg0
 _ZN11OpenImageIO4v1_03pvt23ImageCachePerThreadInfoC1Ev@Base 1.0.4+dfsg0
 _ZN11OpenImageIO4v1_03pvt23ImageCachePerThreadInfoC2Ev@Base 1.0.4+dfsg0
 _ZN11OpenImageIO4v1_03pvt23ImageCachePerThreadInfoD1Ev@Base 1.0.4+dfsg0
 _ZN11OpenImageIO4v1_03pvt23ImageCachePerThreadInfoD2Ev@Base 1.0.4+dfsg0
 _ZN11OpenImageIO4v1_03pvt5errorEPKcz@Base 1.0.4+dfsg0
 _ZN11OpenImageIO4v1_04pugi10xml_writerD0Ev@Base 1.0.4+dfsg0
 _ZN11OpenImageIO4v1_04pugi10xml_writerD1Ev@Base 1.0.4+dfsg0
 _ZN11OpenImageIO4v1_04pugi10xml_writerD2Ev@Base 1.0.4+dfsg0
 _ZN11OpenImageIO4v1_04pugi10xpath_nodeC1ERKNS1_13xml_attributeERKNS1_8xml_nodeE@Base 1.0.4+dfsg0
 _ZN11OpenImageIO4v1_04pugi10xpath_nodeC1ERKNS1_8xml_nodeE@Base 1.0.4+dfsg0
 _ZN11OpenImageIO4v1_04pugi10xpath_nodeC1Ev@Base 1.0.4+dfsg0
 _ZN11OpenImageIO4v1_04pugi10xpath_nodeC2ERKNS1_13xml_attributeERKNS1_8xml_nodeE@Base 1.0.4+dfsg0
 _ZN11OpenImageIO4v1_04pugi10xpath_nodeC2ERKNS1_8xml_nodeE@Base 1.0.4+dfsg0
 _ZN11OpenImageIO4v1_04pugi10xpath_nodeC2Ev@Base 1.0.4+dfsg0
 _ZN11OpenImageIO4v1_04pugi11xpath_queryC1EPKcPNS1_18xpath_variable_setE@Base 1.0.4+dfsg0
 _ZN11OpenImageIO4v1_04pugi11xpath_queryC2EPKcPNS1_18xpath_variable_setE@Base 1.0.4+dfsg0
 _ZN11OpenImageIO4v1_04pugi11xpath_queryD1Ev@Base 1.0.4+dfsg0
 _ZN11OpenImageIO4v1_04pugi11xpath_queryD2Ev@Base 1.0.4+dfsg0
 _ZN11OpenImageIO4v1_04pugi12xml_document11load_bufferEPKvjjNS1_12xml_encodingE@Base 1.0.4+dfsg0
 _ZN11OpenImageIO4v1_04pugi12xml_document16load_buffer_implEPvjjNS1_12xml_encodingEbb@Base 1.0.4+dfsg0
 _ZN11OpenImageIO4v1_04pugi12xml_document19load_buffer_inplaceEPvjjNS1_12xml_encodingE@Base 1.0.4+dfsg0
 _ZN11OpenImageIO4v1_04pugi12xml_document23load_buffer_inplace_ownEPvjjNS1_12xml_encodingE@Base 1.0.4+dfsg0
 _ZN11OpenImageIO4v1_04pugi12xml_document4loadEPKcj@Base 1.0.4+dfsg0
 _ZN11OpenImageIO4v1_04pugi12xml_document4loadERSijNS1_12xml_encodingE@Base 1.0.4+dfsg0
 _ZN11OpenImageIO4v1_04pugi12xml_document4loadERSt13basic_istreamIwSt11char_traitsIwEEj@Base 1.0.4+dfsg0
 _ZN11OpenImageIO4v1_04pugi12xml_document5resetERKS2_@Base 1.0.4+dfsg0
 _ZN11OpenImageIO4v1_04pugi12xml_document5resetEv@Base 1.0.4+dfsg0
 _ZN11OpenImageIO4v1_04pugi12xml_document6createEv@Base 1.0.4+dfsg0
 _ZN11OpenImageIO4v1_04pugi12xml_document7destroyEv@Base 1.0.4+dfsg0
 _ZN11OpenImageIO4v1_04pugi12xml_document9load_fileEPKcjNS1_12xml_encodingE@Base 1.0.4+dfsg0
 _ZN11OpenImageIO4v1_04pugi12xml_document9load_fileEPKwjNS1_12xml_encodingE@Base 1.0.4+dfsg0
 _ZN11OpenImageIO4v1_04pugi12xml_documentC1Ev@Base 1.0.4+dfsg0
 _ZN11OpenImageIO4v1_04pugi12xml_documentC2Ev@Base 1.0.4+dfsg0
 _ZN11OpenImageIO4v1_04pugi12xml_documentD1Ev@Base 1.0.4+dfsg0
 _ZN11OpenImageIO4v1_04pugi12xml_documentD2Ev@Base 1.0.4+dfsg0
 _ZN11OpenImageIO4v1_04pugi13xml_attribute8set_nameEPKc@Base 1.0.4+dfsg0
 _ZN11OpenImageIO4v1_04pugi13xml_attribute9set_valueEPKc@Base 1.0.4+dfsg0
 _ZN11OpenImageIO4v1_04pugi13xml_attribute9set_valueEb@Base 1.0.4+dfsg0
 _ZN11OpenImageIO4v1_04pugi13xml_attribute9set_valueEd@Base 1.0.4+dfsg0
 _ZN11OpenImageIO4v1_04pugi13xml_attribute9set_valueEi@Base 1.0.4+dfsg0
 _ZN11OpenImageIO4v1_04pugi13xml_attribute9set_valueEj@Base 1.0.4+dfsg0
 _ZN11OpenImageIO4v1_04pugi13xml_attributeC1EPNS1_20xml_attribute_structE@Base 1.0.4+dfsg0
 _ZN11OpenImageIO4v1_04pugi13xml_attributeC1Ev@Base 1.0.4+dfsg0
 _ZN11OpenImageIO4v1_04pugi13xml_attributeC2EPNS1_20xml_attribute_structE@Base 1.0.4+dfsg0
 _ZN11OpenImageIO4v1_04pugi13xml_attributeC2Ev@Base 1.0.4+dfsg0
 _ZN11OpenImageIO4v1_04pugi13xml_attributeaSEPKc@Base 1.0.4+dfsg0
 _ZN11OpenImageIO4v1_04pugi13xml_attributeaSEb@Base 1.0.4+dfsg0
 _ZN11OpenImageIO4v1_04pugi13xml_attributeaSEd@Base 1.0.4+dfsg0
 _ZN11OpenImageIO4v1_04pugi13xml_attributeaSEi@Base 1.0.4+dfsg0
 _ZN11OpenImageIO4v1_04pugi13xml_attributeaSEj@Base 1.0.4+dfsg0
 _ZN11OpenImageIO4v1_04pugi14xpath_node_set4sortEb@Base 1.0.4+dfsg0
 _ZN11OpenImageIO4v1_04pugi14xpath_node_set7_assignEPKNS1_10xpath_nodeES5_@Base 1.0.4+dfsg0
 _ZN11OpenImageIO4v1_04pugi14xpath_node_setC1EPKNS1_10xpath_nodeES5_NS2_6type_tE@Base 1.0.4+dfsg0
 _ZN11OpenImageIO4v1_04pugi14xpath_node_setC1ERKS2_@Base 1.0.4+dfsg0
 _ZN11OpenImageIO4v1_04pugi14xpath_node_setC1Ev@Base 1.0.4+dfsg0
 _ZN11OpenImageIO4v1_04pugi14xpath_node_setC2EPKNS1_10xpath_nodeES5_NS2_6type_tE@Base 1.0.4+dfsg0
 _ZN11OpenImageIO4v1_04pugi14xpath_node_setC2ERKS2_@Base 1.0.4+dfsg0
 _ZN11OpenImageIO4v1_04pugi14xpath_node_setC2Ev@Base 1.0.4+dfsg0
 _ZN11OpenImageIO4v1_04pugi14xpath_node_setD1Ev@Base 1.0.4+dfsg0
 _ZN11OpenImageIO4v1_04pugi14xpath_node_setD2Ev@Base 1.0.4+dfsg0
 _ZN11OpenImageIO4v1_04pugi14xpath_node_setaSERKS2_@Base 1.0.4+dfsg0
 _ZN11OpenImageIO4v1_04pugi14xpath_variable3setEPKc@Base 1.0.4+dfsg0
 _ZN11OpenImageIO4v1_04pugi14xpath_variable3setERKNS1_14xpath_node_setE@Base 1.0.4+dfsg0
 _ZN11OpenImageIO4v1_04pugi14xpath_variable3setEb@Base 1.0.4+dfsg0
 _ZN11OpenImageIO4v1_04pugi14xpath_variable3setEd@Base 1.0.4+dfsg0
 _ZN11OpenImageIO4v1_04pugi14xpath_variableC1Ev@Base 1.0.4+dfsg0
 _ZN11OpenImageIO4v1_04pugi14xpath_variableC2Ev@Base 1.0.4+dfsg0
 _ZN11OpenImageIO4v1_04pugi15xml_tree_walker3endERNS1_8xml_nodeE@Base 1.0.4+dfsg0
 _ZN11OpenImageIO4v1_04pugi15xml_tree_walker5beginERNS1_8xml_nodeE@Base 1.0.4+dfsg0
 _ZN11OpenImageIO4v1_04pugi15xml_tree_walkerC1Ev@Base 1.0.4+dfsg0
 _ZN11OpenImageIO4v1_04pugi15xml_tree_walkerC2Ev@Base 1.0.4+dfsg0
 _ZN11OpenImageIO4v1_04pugi15xml_tree_walkerD0Ev@Base 1.0.4+dfsg0
 _ZN11OpenImageIO4v1_04pugi15xml_tree_walkerD1Ev@Base 1.0.4+dfsg0
 _ZN11OpenImageIO4v1_04pugi15xml_tree_walkerD2Ev@Base 1.0.4+dfsg0
 _ZN11OpenImageIO4v1_04pugi15xml_writer_file5writeEPKvj@Base 1.0.4+dfsg0
 _ZN11OpenImageIO4v1_04pugi15xml_writer_fileC1EPv@Base 1.0.4+dfsg0
 _ZN11OpenImageIO4v1_04pugi15xml_writer_fileC2EPv@Base 1.0.4+dfsg0
 _ZN11OpenImageIO4v1_04pugi15xml_writer_fileD0Ev@Base 1.0.4+dfsg0
 _ZN11OpenImageIO4v1_04pugi15xml_writer_fileD1Ev@Base 1.0.4+dfsg0
 _ZN11OpenImageIO4v1_04pugi15xml_writer_fileD2Ev@Base 1.0.4+dfsg0
 _ZN11OpenImageIO4v1_04pugi15xpath_exceptionC1ERKNS1_18xpath_parse_resultE@Base 1.0.4+dfsg0
 _ZN11OpenImageIO4v1_04pugi15xpath_exceptionC2ERKNS1_18xpath_parse_resultE@Base 1.0.4+dfsg0
 _ZN11OpenImageIO4v1_04pugi15xpath_exceptionD0Ev@Base 1.0.4+dfsg0
 _ZN11OpenImageIO4v1_04pugi15xpath_exceptionD1Ev@Base 1.0.4+dfsg0
 _ZN11OpenImageIO4v1_04pugi15xpath_exceptionD2Ev@Base 1.0.4+dfsg0
 _ZN11OpenImageIO4v1_04pugi16xml_parse_resultC1Ev@Base 1.0.4+dfsg0
 _ZN11OpenImageIO4v1_04pugi16xml_parse_resultC2Ev@Base 1.0.4+dfsg0
 _ZN11OpenImageIO4v1_04pugi17xml_node_iteratorC1EPNS1_15xml_node_structES4_@Base 1.0.4+dfsg0
 _ZN11OpenImageIO4v1_04pugi17xml_node_iteratorC1ERKNS1_8xml_nodeE@Base 1.0.4+dfsg0
 _ZN11OpenImageIO4v1_04pugi17xml_node_iteratorC1Ev@Base 1.0.4+dfsg0
 _ZN11OpenImageIO4v1_04pugi17xml_node_iteratorC2EPNS1_15xml_node_structES4_@Base 1.0.4+dfsg0
 _ZN11OpenImageIO4v1_04pugi17xml_node_iteratorC2ERKNS1_8xml_nodeE@Base 1.0.4+dfsg0
 _ZN11OpenImageIO4v1_04pugi17xml_node_iteratorC2Ev@Base 1.0.4+dfsg0
 _ZN11OpenImageIO4v1_04pugi17xml_node_iteratordeEv@Base 1.0.4+dfsg0
 _ZN11OpenImageIO4v1_04pugi17xml_node_iteratormmEi@Base 1.0.4+dfsg0
 _ZN11OpenImageIO4v1_04pugi17xml_node_iteratormmEv@Base 1.0.4+dfsg0
 _ZN11OpenImageIO4v1_04pugi17xml_node_iteratorppEi@Base 1.0.4+dfsg0
 _ZN11OpenImageIO4v1_04pugi17xml_node_iteratorppEv@Base 1.0.4+dfsg0
 _ZN11OpenImageIO4v1_04pugi17xml_node_iteratorptEv@Base 1.0.4+dfsg0
 _ZN11OpenImageIO4v1_04pugi17xml_writer_stream5writeEPKvj@Base 1.0.4+dfsg0
 _ZN11OpenImageIO4v1_04pugi17xml_writer_streamC1ERSo@Base 1.0.4+dfsg0
 _ZN11OpenImageIO4v1_04pugi17xml_writer_streamC1ERSt13basic_ostreamIwSt11char_traitsIwEE@Base 1.0.4+dfsg0
 _ZN11OpenImageIO4v1_04pugi17xml_writer_streamC2ERSo@Base 1.0.4+dfsg0
 _ZN11OpenImageIO4v1_04pugi17xml_writer_streamC2ERSt13basic_ostreamIwSt11char_traitsIwEE@Base 1.0.4+dfsg0
 _ZN11OpenImageIO4v1_04pugi17xml_writer_streamD0Ev@Base 1.0.4+dfsg0
 _ZN11OpenImageIO4v1_04pugi17xml_writer_streamD1Ev@Base 1.0.4+dfsg0
 _ZN11OpenImageIO4v1_04pugi17xml_writer_streamD2Ev@Base 1.0.4+dfsg0
 _ZN11OpenImageIO4v1_04pugi18xpath_parse_resultC1Ev@Base 1.0.4+dfsg0
 _ZN11OpenImageIO4v1_04pugi18xpath_parse_resultC2Ev@Base 1.0.4+dfsg0
 _ZN11OpenImageIO4v1_04pugi18xpath_variable_set3addEPKcNS1_16xpath_value_typeE@Base 1.0.4+dfsg0
 _ZN11OpenImageIO4v1_04pugi18xpath_variable_set3getEPKc@Base 1.0.4+dfsg0
 _ZN11OpenImageIO4v1_04pugi18xpath_variable_set3setEPKcRKNS1_14xpath_node_setE@Base 1.0.4+dfsg0
 _ZN11OpenImageIO4v1_04pugi18xpath_variable_set3setEPKcS4_@Base 1.0.4+dfsg0
 _ZN11OpenImageIO4v1_04pugi18xpath_variable_set3setEPKcb@Base 1.0.4+dfsg0
 _ZN11OpenImageIO4v1_04pugi18xpath_variable_set3setEPKcd@Base 1.0.4+dfsg0
 _ZN11OpenImageIO4v1_04pugi18xpath_variable_setC1Ev@Base 1.0.4+dfsg0
 _ZN11OpenImageIO4v1_04pugi18xpath_variable_setC2Ev@Base 1.0.4+dfsg0
 _ZN11OpenImageIO4v1_04pugi18xpath_variable_setD1Ev@Base 1.0.4+dfsg0
 _ZN11OpenImageIO4v1_04pugi18xpath_variable_setD2Ev@Base 1.0.4+dfsg0
 _ZN11OpenImageIO4v1_04pugi22xml_attribute_iteratorC1EPNS1_20xml_attribute_structEPNS1_15xml_node_structE@Base 1.0.4+dfsg0
 _ZN11OpenImageIO4v1_04pugi22xml_attribute_iteratorC1ERKNS1_13xml_attributeERKNS1_8xml_nodeE@Base 1.0.4+dfsg0
 _ZN11OpenImageIO4v1_04pugi22xml_attribute_iteratorC1Ev@Base 1.0.4+dfsg0
 _ZN11OpenImageIO4v1_04pugi22xml_attribute_iteratorC2EPNS1_20xml_attribute_structEPNS1_15xml_node_structE@Base 1.0.4+dfsg0
 _ZN11OpenImageIO4v1_04pugi22xml_attribute_iteratorC2ERKNS1_13xml_attributeERKNS1_8xml_nodeE@Base 1.0.4+dfsg0
 _ZN11OpenImageIO4v1_04pugi22xml_attribute_iteratorC2Ev@Base 1.0.4+dfsg0
 _ZN11OpenImageIO4v1_04pugi22xml_attribute_iteratordeEv@Base 1.0.4+dfsg0
 _ZN11OpenImageIO4v1_04pugi22xml_attribute_iteratormmEi@Base 1.0.4+dfsg0
 _ZN11OpenImageIO4v1_04pugi22xml_attribute_iteratormmEv@Base 1.0.4+dfsg0
 _ZN11OpenImageIO4v1_04pugi22xml_attribute_iteratorppEi@Base 1.0.4+dfsg0
 _ZN11OpenImageIO4v1_04pugi22xml_attribute_iteratorppEv@Base 1.0.4+dfsg0
 _ZN11OpenImageIO4v1_04pugi22xml_attribute_iteratorptEv@Base 1.0.4+dfsg0
 _ZN11OpenImageIO4v1_04pugi30get_memory_allocation_functionEv@Base 1.0.4+dfsg0
 _ZN11OpenImageIO4v1_04pugi31set_memory_management_functionsEPFPvjEPFvS2_E@Base 1.0.4+dfsg0
 _ZN11OpenImageIO4v1_04pugi32get_memory_deallocation_functionEv@Base 1.0.4+dfsg0
 _ZN11OpenImageIO4v1_04pugi7as_utf8EPKw@Base 1.0.4+dfsg0
 _ZN11OpenImageIO4v1_04pugi7as_utf8ERKSbIwSt11char_traitsIwESaIwEE@Base 1.0.4+dfsg0
 _ZN11OpenImageIO4v1_04pugi7as_wideEPKc@Base 1.0.4+dfsg0
 _ZN11OpenImageIO4v1_04pugi7as_wideERKSs@Base 1.0.4+dfsg0
 _ZN11OpenImageIO4v1_04pugi8xml_node11append_copyERKNS1_13xml_attributeE@Base 1.0.4+dfsg0
 _ZN11OpenImageIO4v1_04pugi8xml_node11append_copyERKS2_@Base 1.0.4+dfsg0
 _ZN11OpenImageIO4v1_04pugi8xml_node12append_childENS1_13xml_node_typeE@Base 1.0.4+dfsg0
 _ZN11OpenImageIO4v1_04pugi8xml_node12append_childEPKc@Base 1.0.4+dfsg0
 _ZN11OpenImageIO4v1_04pugi8xml_node12prepend_copyERKNS1_13xml_attributeE@Base 1.0.4+dfsg0
 _ZN11OpenImageIO4v1_04pugi8xml_node12prepend_copyERKS2_@Base 1.0.4+dfsg0
 _ZN11OpenImageIO4v1_04pugi8xml_node12remove_childEPKc@Base 1.0.4+dfsg0
 _ZN11OpenImageIO4v1_04pugi8xml_node12remove_childERKS2_@Base 1.0.4+dfsg0
 _ZN11OpenImageIO4v1_04pugi8xml_node13prepend_childENS1_13xml_node_typeE@Base 1.0.4+dfsg0
 _ZN11OpenImageIO4v1_04pugi8xml_node13prepend_childEPKc@Base 1.0.4+dfsg0
 _ZN11OpenImageIO4v1_04pugi8xml_node16append_attributeEPKc@Base 1.0.4+dfsg0
 _ZN11OpenImageIO4v1_04pugi8xml_node16remove_attributeEPKc@Base 1.0.4+dfsg0
 _ZN11OpenImageIO4v1_04pugi8xml_node16remove_attributeERKNS1_13xml_attributeE@Base 1.0.4+dfsg0
 _ZN11OpenImageIO4v1_04pugi8xml_node17insert_copy_afterERKNS1_13xml_attributeES5_@Base 1.0.4+dfsg0
 _ZN11OpenImageIO4v1_04pugi8xml_node17insert_copy_afterERKS2_S4_@Base 1.0.4+dfsg0
 _ZN11OpenImageIO4v1_04pugi8xml_node17prepend_attributeEPKc@Base 1.0.4+dfsg0
 _ZN11OpenImageIO4v1_04pugi8xml_node18insert_child_afterENS1_13xml_node_typeERKS2_@Base 1.0.4+dfsg0
 _ZN11OpenImageIO4v1_04pugi8xml_node18insert_child_afterEPKcRKS2_@Base 1.0.4+dfsg0
 _ZN11OpenImageIO4v1_04pugi8xml_node18insert_copy_beforeERKNS1_13xml_attributeES5_@Base 1.0.4+dfsg0
 _ZN11OpenImageIO4v1_04pugi8xml_node18insert_copy_beforeERKS2_S4_@Base 1.0.4+dfsg0
 _ZN11OpenImageIO4v1_04pugi8xml_node19insert_child_beforeENS1_13xml_node_typeERKS2_@Base 1.0.4+dfsg0
 _ZN11OpenImageIO4v1_04pugi8xml_node19insert_child_beforeEPKcRKS2_@Base 1.0.4+dfsg0
 _ZN11OpenImageIO4v1_04pugi8xml_node22insert_attribute_afterEPKcRKNS1_13xml_attributeE@Base 1.0.4+dfsg0
 _ZN11OpenImageIO4v1_04pugi8xml_node23insert_attribute_beforeEPKcRKNS1_13xml_attributeE@Base 1.0.4+dfsg0
 _ZN11OpenImageIO4v1_04pugi8xml_node8set_nameEPKc@Base 1.0.4+dfsg0
 _ZN11OpenImageIO4v1_04pugi8xml_node8traverseERNS1_15xml_tree_walkerE@Base 1.0.4+dfsg0
 _ZN11OpenImageIO4v1_04pugi8xml_node9set_valueEPKc@Base 1.0.4+dfsg0
 _ZN11OpenImageIO4v1_04pugi8xml_nodeC1EPNS1_15xml_node_structE@Base 1.0.4+dfsg0
 _ZN11OpenImageIO4v1_04pugi8xml_nodeC1Ev@Base 1.0.4+dfsg0
 _ZN11OpenImageIO4v1_04pugi8xml_nodeC2EPNS1_15xml_node_structE@Base 1.0.4+dfsg0
 _ZN11OpenImageIO4v1_04pugi8xml_nodeC2Ev@Base 1.0.4+dfsg0
 _ZN11OpenImageIO4v1_05CSHA15FinalEv@Base 1.0.4+dfsg0
 _ZN11OpenImageIO4v1_05CSHA15ResetEv@Base 1.0.4+dfsg0
 _ZN11OpenImageIO4v1_05CSHA16UpdateEPKhj@Base 1.0.4+dfsg0
 _ZN11OpenImageIO4v1_05CSHA18HashFileEPKc@Base 1.0.4+dfsg0
 _ZN11OpenImageIO4v1_05CSHA19TransformEPjPKh@Base 1.0.4+dfsg0
 _ZN11OpenImageIO4v1_05CSHA1C1Ev@Base 1.0.4+dfsg0
 _ZN11OpenImageIO4v1_05CSHA1C2Ev@Base 1.0.4+dfsg0
 _ZN11OpenImageIO4v1_05CSHA1D1Ev@Base 1.0.4+dfsg0
 _ZN11OpenImageIO4v1_05CSHA1D2Ev@Base 1.0.4+dfsg0
 _ZN11OpenImageIO4v1_05TimerC1Eb@Base 1.0.4+dfsg0
 _ZN11OpenImageIO4v1_05TimerC2Eb@Base 1.0.4+dfsg0
 _ZN11OpenImageIO4v1_06Plugin16plugin_extensionEv@Base 1.0.4+dfsg0
 _ZN11OpenImageIO4v1_06Plugin4openEPKcb@Base 1.0.4+dfsg0
 _ZN11OpenImageIO4v1_06Plugin5closeEPv@Base 1.0.4+dfsg0
 _ZN11OpenImageIO4v1_06Plugin6getsymEPvPKc@Base 1.0.4+dfsg0
 _ZN11OpenImageIO4v1_06Plugin8geterrorEv@Base 1.0.4+dfsg0
 _ZN11OpenImageIO4v1_06atomicIiEaSERKS2_@Base 1.0.4+dfsg0
 _ZN11OpenImageIO4v1_06atomicIiEppEv@Base 1.0.4+dfsg0
 _ZN11OpenImageIO4v1_06atomicIxEaSEx@Base 1.0.4+dfsg0
 _ZN11OpenImageIO4v1_07PNG_pvt10write_infoERP14png_struct_defRP15png_info_structRiRNS0_9ImageSpecERSt6vectorI15png_text_structSaISC_EE@Base 1.0.4+dfsg0
 _ZN11OpenImageIO4v1_07PNG_pvt12finish_imageERP14png_struct_def@Base 1.0.4+dfsg0
 _ZN11OpenImageIO4v1_07PNG_pvt13put_parameterERP14png_struct_defRP15png_info_structRKSsNS0_8TypeDescEPKvRSt6vectorI15png_text_structSaISE_EE@Base 1.0.4+dfsg0
 _ZN11OpenImageIO4v1_07PNG_pvt14get_backgroundERP14png_struct_defRP15png_info_structRNS0_9ImageSpecERiPfSB_SB_@Base 1.0.4+dfsg0
 _ZN11OpenImageIO4v1_07PNG_pvt16read_into_bufferERP14png_struct_defRP15png_info_structRNS0_9ImageSpecERiSA_RSt6vectorIhSaIhEE@Base 1.0.4+dfsg0
 _ZN11OpenImageIO4v1_07PNG_pvt18create_read_structERP14png_struct_defRP15png_info_struct@Base 1.0.4+dfsg0
 _ZN11OpenImageIO4v1_07PNG_pvt18read_next_scanlineERP14png_struct_defPv@Base 1.0.4+dfsg0
 _ZN11OpenImageIO4v1_07PNG_pvt19create_write_structERP14png_struct_defRP15png_info_structRiRNS0_9ImageSpecE@Base 1.0.4+dfsg0
 _ZN11OpenImageIO4v1_07PNG_pvt19destroy_read_structERP14png_struct_defRP15png_info_struct@Base 1.0.4+dfsg0
 _ZN11OpenImageIO4v1_07PNG_pvt9read_infoERP14png_struct_defRP15png_info_structRiS8_S8_RN5Imath6Color3IfEERNS0_9ImageSpecE@Base 1.0.4+dfsg0
 _ZN11OpenImageIO4v1_07PNG_pvt9write_rowERP14png_struct_defPh@Base 1.0.4+dfsg0
 _ZN11OpenImageIO4v1_07Strutil10iends_withEPKcS3_@Base 1.0.4+dfsg0
 _ZN11OpenImageIO4v1_07Strutil10iends_withERKSsS3_@Base 1.0.4+dfsg0
 _ZN11OpenImageIO4v1_07Strutil12escape_charsERKSs@Base 1.0.4+dfsg0
 _ZN11OpenImageIO4v1_07Strutil12istarts_withEPKcS3_@Base 1.0.4+dfsg0
 _ZN11OpenImageIO4v1_07Strutil12istarts_withERKSsS3_@Base 1.0.4+dfsg0
 _ZN11OpenImageIO4v1_07Strutil14unescape_charsERKSs@Base 1.0.4+dfsg0
 _ZN11OpenImageIO4v1_07Strutil18get_rest_argumentsERKSsRSsRSt3mapISsSsSt4lessISsESaISt4pairIS2_SsEEE@Base 1.0.4+dfsg0
 _ZN11OpenImageIO4v1_07Strutil18timeintervalformatEdi@Base 1.0.4+dfsg0
 _ZN11OpenImageIO4v1_07Strutil6formatEPKcz@Base 1.0.4+dfsg0
 _ZN11OpenImageIO4v1_07Strutil7iequalsEPKcS3_@Base 1.0.4+dfsg0
 _ZN11OpenImageIO4v1_07Strutil7iequalsERKSsS3_@Base 1.0.4+dfsg0
 _ZN11OpenImageIO4v1_07Strutil7strhashEPKc@Base 1.0.4+dfsg0
 _ZN11OpenImageIO4v1_07Strutil7vformatEPKcPc@Base 1.0.4+dfsg0
 _ZN11OpenImageIO4v1_07Strutil8to_lowerERSs@Base 1.0.4+dfsg0
 _ZN11OpenImageIO4v1_07Strutil8to_upperERSs@Base 1.0.4+dfsg0
 _ZN11OpenImageIO4v1_07Strutil8wordwrapESsii@Base 1.0.4+dfsg0
 _ZN11OpenImageIO4v1_07Strutil9memformatExi@Base 1.0.4+dfsg0
 _ZN11OpenImageIO4v1_07Sysutil11memory_usedEb@Base 1.0.4+dfsg0
 _ZN11OpenImageIO4v1_07Sysutil14get_local_timeEPKlP2tm@Base 1.0.4+dfsg0
 _ZN11OpenImageIO4v1_07Sysutil16terminal_columnsEv@Base 1.0.4+dfsg0
 _ZN11OpenImageIO4v1_07Sysutil17this_program_pathEv@Base 1.0.4+dfsg0
 _ZN11OpenImageIO4v1_07Sysutil6usleepEm@Base 1.0.4+dfsg0
 _ZN11OpenImageIO4v1_07bmp_pvt13BmpFileHeader11read_headerEP8_IO_FILE@Base 1.0.4+dfsg0
 _ZN11OpenImageIO4v1_07bmp_pvt13BmpFileHeader11swap_endianEv@Base 1.0.4+dfsg0
 _ZN11OpenImageIO4v1_07bmp_pvt13BmpFileHeader12write_headerEP8_IO_FILE@Base 1.0.4+dfsg0
 _ZN11OpenImageIO4v1_07bmp_pvt20DibInformationHeader11read_headerEP8_IO_FILE@Base 1.0.4+dfsg0
 _ZN11OpenImageIO4v1_07bmp_pvt20DibInformationHeader11swap_endianEv@Base 1.0.4+dfsg0
 _ZN11OpenImageIO4v1_07bmp_pvt20DibInformationHeader12write_headerEP8_IO_FILE@Base 1.0.4+dfsg0
 _ZN11OpenImageIO4v1_07iff_pvt13IffFileHeader11read_headerEP8_IO_FILE@Base 1.0.4+dfsg0
 _ZN11OpenImageIO4v1_07iff_pvt13IffFileHeader12write_headerEP8_IO_FILE@Base 1.0.4+dfsg0
 _ZN11OpenImageIO4v1_07iff_pvt13IffFileHeaderD1Ev@Base 1.0.4+dfsg0
 _ZN11OpenImageIO4v1_07iff_pvt13IffFileHeaderD2Ev@Base 1.0.4+dfsg0
 _ZN11OpenImageIO4v1_07psd_pvt13ColorModeDataD1Ev@Base 1.0.4+dfsg0
 _ZN11OpenImageIO4v1_07psd_pvt13ColorModeDataD2Ev@Base 1.0.4+dfsg0
 _ZN11OpenImageIO4v1_07psd_pvt15jpeg_memory_srcEP22jpeg_decompress_structPhm@Base 1.0.4+dfsg0
 _ZN11OpenImageIO4v1_07psd_pvt18ImageResourceBlockD1Ev@Base 1.0.4+dfsg0
 _ZN11OpenImageIO4v1_07psd_pvt18ImageResourceBlockD2Ev@Base 1.0.4+dfsg0
 _ZN11OpenImageIO4v1_07ustring11make_uniqueEPKc@Base 1.0.4+dfsg0
 _ZN11OpenImageIO4v1_07ustring16empty_std_stringE@Base 1.0.4+dfsg0
 _ZN11OpenImageIO4v1_07ustring6formatEPKcz@Base 1.0.4+dfsg0
 _ZN11OpenImageIO4v1_07ustring6memoryEv@Base 1.0.4+dfsg0
 _ZN11OpenImageIO4v1_07ustring8TableRepC1EPKcj@Base 1.0.4+dfsg0
 _ZN11OpenImageIO4v1_07ustring8TableRepC2EPKcj@Base 1.0.4+dfsg0
 _ZN11OpenImageIO4v1_07ustring8TableRepD1Ev@Base 1.0.4+dfsg0
 _ZN11OpenImageIO4v1_07ustring8TableRepD2Ev@Base 1.0.4+dfsg0
 _ZN11OpenImageIO4v1_07ustring8getstatsEb@Base 1.0.4+dfsg0
 _ZN11OpenImageIO4v1_07ustringC1EPKc@Base 1.0.4+dfsg0
 _ZN11OpenImageIO4v1_07ustringC1ERKSs@Base 1.0.4+dfsg0
 _ZN11OpenImageIO4v1_07ustringC1ERKSsjj@Base 1.0.4+dfsg0
 _ZN11OpenImageIO4v1_07ustringC2EPKc@Base 1.0.4+dfsg0
 _ZN11OpenImageIO4v1_07ustringC2ERKSs@Base 1.0.4+dfsg0
 _ZN11OpenImageIO4v1_07ustringC2ERKSsjj@Base 1.0.4+dfsg0
 _ZN11OpenImageIO4v1_07ustringD1Ev@Base 1.0.4+dfsg0
 _ZN11OpenImageIO4v1_07ustringD2Ev@Base 1.0.4+dfsg0
 _ZN11OpenImageIO4v1_07ustringaSERKSs@Base 1.0.4+dfsg0
 _ZN11OpenImageIO4v1_08ArgParse11find_optionEPKc@Base 1.0.4+dfsg0
 _ZN11OpenImageIO4v1_08ArgParse5errorEPKcz@Base 1.0.4+dfsg0
 _ZN11OpenImageIO4v1_08ArgParse5foundEPKc@Base 1.0.4+dfsg0
 _ZN11OpenImageIO4v1_08ArgParse5parseEiPPKc@Base 1.0.4+dfsg0
 _ZN11OpenImageIO4v1_08ArgParse7optionsEPKcz@Base 1.0.4+dfsg0
 _ZN11OpenImageIO4v1_08ArgParseC1EiPPKc@Base 1.0.4+dfsg0
 _ZN11OpenImageIO4v1_08ArgParseC2EiPPKc@Base 1.0.4+dfsg0
 _ZN11OpenImageIO4v1_08ArgParseD1Ev@Base 1.0.4+dfsg0
 _ZN11OpenImageIO4v1_08ArgParseD2Ev@Base 1.0.4+dfsg0
 _ZN11OpenImageIO4v1_08BmpInput16read_color_tableEv@Base 1.0.4+dfsg0
 _ZN11OpenImageIO4v1_08BmpInput20read_native_scanlineEiiPv@Base 1.0.4+dfsg0
 _ZN11OpenImageIO4v1_08BmpInput4openERKSsRNS0_9ImageSpecE@Base 1.0.4+dfsg0
 _ZN11OpenImageIO4v1_08BmpInput5closeEv@Base 1.0.4+dfsg0
 _ZN11OpenImageIO4v1_08BmpInputD0Ev@Base 1.0.4+dfsg0
 _ZN11OpenImageIO4v1_08BmpInputD1Ev@Base 1.0.4+dfsg0
 _ZN11OpenImageIO4v1_08BmpInputD2Ev@Base 1.0.4+dfsg0
 _ZN11OpenImageIO4v1_08DDSInput13readimg_tilesEv@Base 1.0.4+dfsg0
 _ZN11OpenImageIO4v1_08DDSInput13seek_subimageEiiRNS0_9ImageSpecE@Base 1.0.4+dfsg0
 _ZN11OpenImageIO4v1_08DDSInput16internal_readimgEPhiii@Base 1.0.4+dfsg0
 _ZN11OpenImageIO4v1_08DDSInput16read_native_tileEiiiPv@Base 1.0.4+dfsg0
 _ZN11OpenImageIO4v1_08DDSInput17readimg_scanlinesEv@Base 1.0.4+dfsg0
 _ZN11OpenImageIO4v1_08DDSInput20read_native_scanlineEiiPv@Base 1.0.4+dfsg0
 _ZN11OpenImageIO4v1_08DDSInput22internal_seek_subimageEiiRjS2_S2_@Base 1.0.4+dfsg0
 _ZN11OpenImageIO4v1_08DDSInput4openERKSsRNS0_9ImageSpecE@Base 1.0.4+dfsg0
 _ZN11OpenImageIO4v1_08DDSInput5closeEv@Base 1.0.4+dfsg0
 _ZN11OpenImageIO4v1_08DDSInput5freadEPvjj@Base 1.0.4+dfsg0
 _ZN11OpenImageIO4v1_08DDSInputD0Ev@Base 1.0.4+dfsg0
 _ZN11OpenImageIO4v1_08DDSInputD1Ev@Base 1.0.4+dfsg0
 _ZN11OpenImageIO4v1_08DDSInputD2Ev@Base 1.0.4+dfsg0
 _ZN11OpenImageIO4v1_08DPXInput13seek_subimageEiiRNS0_9ImageSpecE@Base 1.0.4+dfsg0
 _ZN11OpenImageIO4v1_08DPXInput20read_native_scanlineEiiPv@Base 1.0.4+dfsg0
 _ZN11OpenImageIO4v1_08DPXInput21get_descriptor_stringEN3dpx10DescriptorE@Base 1.0.4+dfsg0
 _ZN11OpenImageIO4v1_08DPXInput25get_characteristic_stringEN3dpx14CharacteristicE@Base 1.0.4+dfsg0
 _ZN11OpenImageIO4v1_08DPXInput4openERKSsRNS0_9ImageSpecE@Base 1.0.4+dfsg0
 _ZN11OpenImageIO4v1_08DPXInput5closeEv@Base 1.0.4+dfsg0
 _ZN11OpenImageIO4v1_08DPXInputD0Ev@Base 1.0.4+dfsg0
 _ZN11OpenImageIO4v1_08DPXInputD1Ev@Base 1.0.4+dfsg0
 _ZN11OpenImageIO4v1_08DPXInputD2Ev@Base 1.0.4+dfsg0
 _ZN11OpenImageIO4v1_08Filter1D11num_filtersEv@Base 1.0.4+dfsg0
 _ZN11OpenImageIO4v1_08Filter1D14get_filterdescEiPNS0_10FilterDescE@Base 1.0.4+dfsg0
 _ZN11OpenImageIO4v1_08Filter1D6createERKSsf@Base 1.0.4+dfsg0
 _ZN11OpenImageIO4v1_08Filter1D7destroyEPS1_@Base 1.0.4+dfsg0
 _ZN11OpenImageIO4v1_08Filter1DD0Ev@Base 1.0.4+dfsg0
 _ZN11OpenImageIO4v1_08Filter1DD1Ev@Base 1.0.4+dfsg0
 _ZN11OpenImageIO4v1_08Filter1DD2Ev@Base 1.0.4+dfsg0
 _ZN11OpenImageIO4v1_08Filter2D11num_filtersEv@Base 1.0.4+dfsg0
 _ZN11OpenImageIO4v1_08Filter2D14get_filterdescEiPNS0_10FilterDescE@Base 1.0.4+dfsg0
 _ZN11OpenImageIO4v1_08Filter2D6createERKSsff@Base 1.0.4+dfsg0
 _ZN11OpenImageIO4v1_08Filter2D7destroyEPS1_@Base 1.0.4+dfsg0
 _ZN11OpenImageIO4v1_08Filter2DD0Ev@Base 1.0.4+dfsg0
 _ZN11OpenImageIO4v1_08Filter2DD1Ev@Base 1.0.4+dfsg0
 _ZN11OpenImageIO4v1_08Filter2DD2Ev@Base 1.0.4+dfsg0
 _ZN11OpenImageIO4v1_08HdrInput13seek_subimageEiiRNS0_9ImageSpecE@Base 1.0.4+dfsg0
 _ZN11OpenImageIO4v1_08HdrInput20read_native_scanlineEiiPv@Base 1.0.4+dfsg0
 _ZN11OpenImageIO4v1_08HdrInput4openERKSsRNS0_9ImageSpecE@Base 1.0.4+dfsg0
 _ZN11OpenImageIO4v1_08HdrInput5closeEv@Base 1.0.4+dfsg0
 _ZN11OpenImageIO4v1_08HdrInputD0Ev@Base 1.0.4+dfsg0
 _ZN11OpenImageIO4v1_08HdrInputD1Ev@Base 1.0.4+dfsg0
 _ZN11OpenImageIO4v1_08HdrInputD2Ev@Base 1.0.4+dfsg0
 _ZN11OpenImageIO4v1_08ICOInput13seek_subimageEiiRNS0_9ImageSpecE@Base 1.0.4+dfsg0
 _ZN11OpenImageIO4v1_08ICOInput20read_native_scanlineEiiPv@Base 1.0.4+dfsg0
 _ZN11OpenImageIO4v1_08ICOInput4openERKSsRNS0_9ImageSpecE@Base 1.0.4+dfsg0
 _ZN11OpenImageIO4v1_08ICOInput5closeEv@Base 1.0.4+dfsg0
 _ZN11OpenImageIO4v1_08ICOInput7readimgEv@Base 1.0.4+dfsg0
 _ZN11OpenImageIO4v1_08ICOInputC1Ev@Base 1.0.4+dfsg0
 _ZN11OpenImageIO4v1_08ICOInputC2Ev@Base 1.0.4+dfsg0
 _ZN11OpenImageIO4v1_08ICOInputD0Ev@Base 1.0.4+dfsg0
 _ZN11OpenImageIO4v1_08ICOInputD1Ev@Base 1.0.4+dfsg0
 _ZN11OpenImageIO4v1_08ICOInputD2Ev@Base 1.0.4+dfsg0
 _ZN11OpenImageIO4v1_08IffInput16read_native_tileEiiiPv@Base 1.0.4+dfsg0
 _ZN11OpenImageIO4v1_08IffInput20read_native_scanlineEiiPv@Base 1.0.4+dfsg0
 _ZN11OpenImageIO4v1_08IffInput22uncompress_rle_channelEPKhPhi@Base 1.0.4+dfsg0
 _ZN11OpenImageIO4v1_08IffInput4openERKSsRNS0_9ImageSpecE@Base 1.0.4+dfsg0
 _ZN11OpenImageIO4v1_08IffInput5closeEv@Base 1.0.4+dfsg0
 _ZN11OpenImageIO4v1_08IffInput7readimgEv@Base 1.0.4+dfsg0
 _ZN11OpenImageIO4v1_08IffInputD0Ev@Base 1.0.4+dfsg0
 _ZN11OpenImageIO4v1_08IffInputD1Ev@Base 1.0.4+dfsg0
 _ZN11OpenImageIO4v1_08IffInputD2Ev@Base 1.0.4+dfsg0
 _ZN11OpenImageIO4v1_08ImageBuf13ConstIteratorI4halfS3_E3posEiii@Base 1.0.4+dfsg0
 _ZN11OpenImageIO4v1_08ImageBuf13ConstIteratorI4halfS3_E9pos_xincrEv@Base 1.0.4+dfsg0
 _ZN11OpenImageIO4v1_08ImageBuf13ConstIteratorI4halfS3_EC1ERKS1_@Base 1.0.4+dfsg0
 _ZN11OpenImageIO4v1_08ImageBuf13ConstIteratorI4halfS3_EC2ERKS1_@Base 1.0.4+dfsg0
 _ZN11OpenImageIO4v1_08ImageBuf13ConstIteratorI4halfS3_EppEv@Base 1.0.4+dfsg0
 _ZN11OpenImageIO4v1_08ImageBuf13ConstIteratorI4halfcEC1ERKS1_iiiiii@Base 1.0.4+dfsg0
 _ZN11OpenImageIO4v1_08ImageBuf13ConstIteratorI4halfcEC2ERKS1_iiiiii@Base 1.0.4+dfsg0
 _ZN11OpenImageIO4v1_08ImageBuf13ConstIteratorI4halfdEC1ERKS1_iiiiii@Base 1.0.4+dfsg0
 _ZN11OpenImageIO4v1_08ImageBuf13ConstIteratorI4halfdEC2ERKS1_iiiiii@Base 1.0.4+dfsg0
 _ZN11OpenImageIO4v1_08ImageBuf13ConstIteratorI4halftEC1ERKS1_iiiiii@Base 1.0.4+dfsg0
 _ZN11OpenImageIO4v1_08ImageBuf13ConstIteratorI4halftEC2ERKS1_iiiiii@Base 1.0.4+dfsg0
 _ZN11OpenImageIO4v1_08ImageBuf13ConstIteratorI4halfxEC1ERKS1_iiiiii@Base 1.0.4+dfsg0
 _ZN11OpenImageIO4v1_08ImageBuf13ConstIteratorI4halfxEC2ERKS1_iiiiii@Base 1.0.4+dfsg0
 _ZN11OpenImageIO4v1_08ImageBuf13ConstIteratorI4halfyEC1ERKS1_iiiiii@Base 1.0.4+dfsg0
 _ZN11OpenImageIO4v1_08ImageBuf13ConstIteratorI4halfyEC2ERKS1_iiiiii@Base 1.0.4+dfsg0
 _ZN11OpenImageIO4v1_08ImageBuf13ConstIteratorIccE3posEiii@Base 1.0.4+dfsg0
 _ZN11OpenImageIO4v1_08ImageBuf13ConstIteratorIccE9pos_xincrEv@Base 1.0.4+dfsg0
 _ZN11OpenImageIO4v1_08ImageBuf13ConstIteratorIccEC1ERKS1_@Base 1.0.4+dfsg0
 _ZN11OpenImageIO4v1_08ImageBuf13ConstIteratorIccEC2ERKS1_@Base 1.0.4+dfsg0
 _ZN11OpenImageIO4v1_08ImageBuf13ConstIteratorIccEppEv@Base 1.0.4+dfsg0
 _ZN11OpenImageIO4v1_08ImageBuf13ConstIteratorIcdEC1ERKS1_iiiiii@Base 1.0.4+dfsg0
 _ZN11OpenImageIO4v1_08ImageBuf13ConstIteratorIcdEC2ERKS1_iiiiii@Base 1.0.4+dfsg0
 _ZN11OpenImageIO4v1_08ImageBuf13ConstIteratorIchEC1ERKS1_iiiiii@Base 1.0.4+dfsg0
 _ZN11OpenImageIO4v1_08ImageBuf13ConstIteratorIchEC2ERKS1_iiiiii@Base 1.0.4+dfsg0
 _ZN11OpenImageIO4v1_08ImageBuf13ConstIteratorIcxEC1ERKS1_iiiiii@Base 1.0.4+dfsg0
 _ZN11OpenImageIO4v1_08ImageBuf13ConstIteratorIcxEC2ERKS1_iiiiii@Base 1.0.4+dfsg0
 _ZN11OpenImageIO4v1_08ImageBuf13ConstIteratorIcyEC1ERKS1_iiiiii@Base 1.0.4+dfsg0
 _ZN11OpenImageIO4v1_08ImageBuf13ConstIteratorIcyEC2ERKS1_iiiiii@Base 1.0.4+dfsg0
 _ZN11OpenImageIO4v1_08ImageBuf13ConstIteratorIddE3posEiii@Base 1.0.4+dfsg0
 _ZN11OpenImageIO4v1_08ImageBuf13ConstIteratorIddE9pos_xincrEv@Base 1.0.4+dfsg0
 _ZN11OpenImageIO4v1_08ImageBuf13ConstIteratorIddEC1ERKS1_@Base 1.0.4+dfsg0
 _ZN11OpenImageIO4v1_08ImageBuf13ConstIteratorIddEC1ERKS1_iiiiii@Base 1.0.4+dfsg0
 _ZN11OpenImageIO4v1_08ImageBuf13ConstIteratorIddEC2ERKS1_@Base 1.0.4+dfsg0
 _ZN11OpenImageIO4v1_08ImageBuf13ConstIteratorIddEC2ERKS1_iiiiii@Base 1.0.4+dfsg0
 _ZN11OpenImageIO4v1_08ImageBuf13ConstIteratorIddEppEv@Base 1.0.4+dfsg0
 _ZN11OpenImageIO4v1_08ImageBuf13ConstIteratorIdfE3posEiii@Base 1.0.4+dfsg0
 _ZN11OpenImageIO4v1_08ImageBuf13ConstIteratorIdsEC1ERKS1_iiiiii@Base 1.0.4+dfsg0
 _ZN11OpenImageIO4v1_08ImageBuf13ConstIteratorIdsEC2ERKS1_iiiiii@Base 1.0.4+dfsg0
 _ZN11OpenImageIO4v1_08ImageBuf13ConstIteratorIdxEC1ERKS1_iiiiii@Base 1.0.4+dfsg0
 _ZN11OpenImageIO4v1_08ImageBuf13ConstIteratorIdxEC2ERKS1_iiiiii@Base 1.0.4+dfsg0
 _ZN11OpenImageIO4v1_08ImageBuf13ConstIteratorIfcEC1ERKS1_iiiiii@Base 1.0.4+dfsg0
 _ZN11OpenImageIO4v1_08ImageBuf13ConstIteratorIfcEC2ERKS1_iiiiii@Base 1.0.4+dfsg0
 _ZN11OpenImageIO4v1_08ImageBuf13ConstIteratorIffE3posEiii@Base 1.0.4+dfsg0
 _ZN11OpenImageIO4v1_08ImageBuf13ConstIteratorIffE9pos_xincrEv@Base 1.0.4+dfsg0
 _ZN11OpenImageIO4v1_08ImageBuf13ConstIteratorIffEC1ERKS1_@Base 1.0.4+dfsg0
 _ZN11OpenImageIO4v1_08ImageBuf13ConstIteratorIffEC2ERKS1_@Base 1.0.4+dfsg0
 _ZN11OpenImageIO4v1_08ImageBuf13ConstIteratorIffEppEv@Base 1.0.4+dfsg0
 _ZN11OpenImageIO4v1_08ImageBuf13ConstIteratorIfhEC1ERKS1_iiiiii@Base 1.0.4+dfsg0
 _ZN11OpenImageIO4v1_08ImageBuf13ConstIteratorIfhEC2ERKS1_iiiiii@Base 1.0.4+dfsg0
 _ZN11OpenImageIO4v1_08ImageBuf13ConstIteratorIfjEC1ERKS1_iiiiii@Base 1.0.4+dfsg0
 _ZN11OpenImageIO4v1_08ImageBuf13ConstIteratorIfjEC2ERKS1_iiiiii@Base 1.0.4+dfsg0
 _ZN11OpenImageIO4v1_08ImageBuf13ConstIteratorIftEC1ERKS1_iiiiii@Base 1.0.4+dfsg0
 _ZN11OpenImageIO4v1_08ImageBuf13ConstIteratorIftEC2ERKS1_iiiiii@Base 1.0.4+dfsg0
 _ZN11OpenImageIO4v1_08ImageBuf13ConstIteratorIfxEC1ERKS1_iiiiii@Base 1.0.4+dfsg0
 _ZN11OpenImageIO4v1_08ImageBuf13ConstIteratorIfxEC2ERKS1_iiiiii@Base 1.0.4+dfsg0
 _ZN11OpenImageIO4v1_08ImageBuf13ConstIteratorIfyEC1ERKS1_iiiiii@Base 1.0.4+dfsg0
 _ZN11OpenImageIO4v1_08ImageBuf13ConstIteratorIfyEC2ERKS1_iiiiii@Base 1.0.4+dfsg0
 _ZN11OpenImageIO4v1_08ImageBuf13ConstIteratorIh4halfEC1ERKS1_iiiiii@Base 1.0.4+dfsg0
 _ZN11OpenImageIO4v1_08ImageBuf13ConstIteratorIh4halfEC2ERKS1_iiiiii@Base 1.0.4+dfsg0
 _ZN11OpenImageIO4v1_08ImageBuf13ConstIteratorIhdEC1ERKS1_iiiiii@Base 1.0.4+dfsg0
 _ZN11OpenImageIO4v1_08ImageBuf13ConstIteratorIhdEC2ERKS1_iiiiii@Base 1.0.4+dfsg0
 _ZN11OpenImageIO4v1_08ImageBuf13ConstIteratorIhhE3posEiii@Base 1.0.4+dfsg0
 _ZN11OpenImageIO4v1_08ImageBuf13ConstIteratorIhhE9pos_xincrEv@Base 1.0.4+dfsg0
 _ZN11OpenImageIO4v1_08ImageBuf13ConstIteratorIhhEC1ERKS1_@Base 1.0.4+dfsg0
 _ZN11OpenImageIO4v1_08ImageBuf13ConstIteratorIhhEC2ERKS1_@Base 1.0.4+dfsg0
 _ZN11OpenImageIO4v1_08ImageBuf13ConstIteratorIhhEppEv@Base 1.0.4+dfsg0
 _ZN11OpenImageIO4v1_08ImageBuf13ConstIteratorIhiEC1ERKS1_iiiiii@Base 1.0.4+dfsg0
 _ZN11OpenImageIO4v1_08ImageBuf13ConstIteratorIhiEC2ERKS1_iiiiii@Base 1.0.4+dfsg0
 _ZN11OpenImageIO4v1_08ImageBuf13ConstIteratorIhsEC1ERKS1_iiiiii@Base 1.0.4+dfsg0
 _ZN11OpenImageIO4v1_08ImageBuf13ConstIteratorIhsEC2ERKS1_iiiiii@Base 1.0.4+dfsg0
 _ZN11OpenImageIO4v1_08ImageBuf13ConstIteratorIhxEC1ERKS1_iiiiii@Base 1.0.4+dfsg0
 _ZN11OpenImageIO4v1_08ImageBuf13ConstIteratorIhxEC2ERKS1_iiiiii@Base 1.0.4+dfsg0
 _ZN11OpenImageIO4v1_08ImageBuf13ConstIteratorIhyEC1ERKS1_iiiiii@Base 1.0.4+dfsg0
 _ZN11OpenImageIO4v1_08ImageBuf13ConstIteratorIhyEC2ERKS1_iiiiii@Base 1.0.4+dfsg0
 _ZN11OpenImageIO4v1_08ImageBuf13ConstIteratorIi4halfEC1ERKS1_iiiiii@Base 1.0.4+dfsg0
 _ZN11OpenImageIO4v1_08ImageBuf13ConstIteratorIi4halfEC2ERKS1_iiiiii@Base 1.0.4+dfsg0
 _ZN11OpenImageIO4v1_08ImageBuf13ConstIteratorIifE3posEiii@Base 1.0.4+dfsg0
 _ZN11OpenImageIO4v1_08ImageBuf13ConstIteratorIifEC1ERKS1_iiiiii@Base 1.0.4+dfsg0
 _ZN11OpenImageIO4v1_08ImageBuf13ConstIteratorIifEC2ERKS1_iiiiii@Base 1.0.4+dfsg0
 _ZN11OpenImageIO4v1_08ImageBuf13ConstIteratorIihEC1ERKS1_iiiiii@Base 1.0.4+dfsg0
 _ZN11OpenImageIO4v1_08ImageBuf13ConstIteratorIihEC2ERKS1_iiiiii@Base 1.0.4+dfsg0
 _ZN11OpenImageIO4v1_08ImageBuf13ConstIteratorIiiE3posEiii@Base 1.0.4+dfsg0
 _ZN11OpenImageIO4v1_08ImageBuf13ConstIteratorIiiE9pos_xincrEv@Base 1.0.4+dfsg0
 _ZN11OpenImageIO4v1_08ImageBuf13ConstIteratorIiiEC1ERKS1_@Base 1.0.4+dfsg0
 _ZN11OpenImageIO4v1_08ImageBuf13ConstIteratorIiiEC1ERKS1_iiiiii@Base 1.0.4+dfsg0
 _ZN11OpenImageIO4v1_08ImageBuf13ConstIteratorIiiEC2ERKS1_@Base 1.0.4+dfsg0
 _ZN11OpenImageIO4v1_08ImageBuf13ConstIteratorIiiEC2ERKS1_iiiiii@Base 1.0.4+dfsg0
 _ZN11OpenImageIO4v1_08ImageBuf13ConstIteratorIiiEppEv@Base 1.0.4+dfsg0
 _ZN11OpenImageIO4v1_08ImageBuf13ConstIteratorIixEC1ERKS1_iiiiii@Base 1.0.4+dfsg0
 _ZN11OpenImageIO4v1_08ImageBuf13ConstIteratorIixEC2ERKS1_iiiiii@Base 1.0.4+dfsg0
 _ZN11OpenImageIO4v1_08ImageBuf13ConstIteratorIiyEC1ERKS1_iiiiii@Base 1.0.4+dfsg0
 _ZN11OpenImageIO4v1_08ImageBuf13ConstIteratorIiyEC2ERKS1_iiiiii@Base 1.0.4+dfsg0
 _ZN11OpenImageIO4v1_08ImageBuf13ConstIteratorIjcEC1ERKS1_iiiiii@Base 1.0.4+dfsg0
 _ZN11OpenImageIO4v1_08ImageBuf13ConstIteratorIjcEC2ERKS1_iiiiii@Base 1.0.4+dfsg0
 _ZN11OpenImageIO4v1_08ImageBuf13ConstIteratorIjdEC1ERKS1_iiiiii@Base 1.0.4+dfsg0
 _ZN11OpenImageIO4v1_08ImageBuf13ConstIteratorIjdEC2ERKS1_iiiiii@Base 1.0.4+dfsg0
 _ZN11OpenImageIO4v1_08ImageBuf13ConstIteratorIjjE3posEiii@Base 1.0.4+dfsg0
 _ZN11OpenImageIO4v1_08ImageBuf13ConstIteratorIjjE9pos_xincrEv@Base 1.0.4+dfsg0
 _ZN11OpenImageIO4v1_08ImageBuf13ConstIteratorIjjEC1ERKS1_@Base 1.0.4+dfsg0
 _ZN11OpenImageIO4v1_08ImageBuf13ConstIteratorIjjEC2ERKS1_@Base 1.0.4+dfsg0
 _ZN11OpenImageIO4v1_08ImageBuf13ConstIteratorIjjEppEv@Base 1.0.4+dfsg0
 _ZN11OpenImageIO4v1_08ImageBuf13ConstIteratorIjsEC1ERKS1_iiiiii@Base 1.0.4+dfsg0
 _ZN11OpenImageIO4v1_08ImageBuf13ConstIteratorIjsEC2ERKS1_iiiiii@Base 1.0.4+dfsg0
 _ZN11OpenImageIO4v1_08ImageBuf13ConstIteratorIjtEC1ERKS1_iiiiii@Base 1.0.4+dfsg0
 _ZN11OpenImageIO4v1_08ImageBuf13ConstIteratorIjtEC2ERKS1_iiiiii@Base 1.0.4+dfsg0
 _ZN11OpenImageIO4v1_08ImageBuf13ConstIteratorIjxEC1ERKS1_iiiiii@Base 1.0.4+dfsg0
 _ZN11OpenImageIO4v1_08ImageBuf13ConstIteratorIjxEC2ERKS1_iiiiii@Base 1.0.4+dfsg0
 _ZN11OpenImageIO4v1_08ImageBuf13ConstIteratorIs4halfEC1ERKS1_iiiiii@Base 1.0.4+dfsg0
 _ZN11OpenImageIO4v1_08ImageBuf13ConstIteratorIs4halfEC2ERKS1_iiiiii@Base 1.0.4+dfsg0
 _ZN11OpenImageIO4v1_08ImageBuf13ConstIteratorIscEC1ERKS1_iiiiii@Base 1.0.4+dfsg0
 _ZN11OpenImageIO4v1_08ImageBuf13ConstIteratorIscEC2ERKS1_iiiiii@Base 1.0.4+dfsg0
 _ZN11OpenImageIO4v1_08ImageBuf13ConstIteratorIsfE3posEiii@Base 1.0.4+dfsg0
 _ZN11OpenImageIO4v1_08ImageBuf13ConstIteratorIshEC1ERKS1_iiiiii@Base 1.0.4+dfsg0
 _ZN11OpenImageIO4v1_08ImageBuf13ConstIteratorIshEC2ERKS1_iiiiii@Base 1.0.4+dfsg0
 _ZN11OpenImageIO4v1_08ImageBuf13ConstIteratorIsiEC1ERKS1_iiiiii@Base 1.0.4+dfsg0
 _ZN11OpenImageIO4v1_08ImageBuf13ConstIteratorIsiEC2ERKS1_iiiiii@Base 1.0.4+dfsg0
 _ZN11OpenImageIO4v1_08ImageBuf13ConstIteratorIssE3posEiii@Base 1.0.4+dfsg0
 _ZN11OpenImageIO4v1_08ImageBuf13ConstIteratorIssE9pos_xincrEv@Base 1.0.4+dfsg0
 _ZN11OpenImageIO4v1_08ImageBuf13ConstIteratorIssEC1ERKS1_@Base 1.0.4+dfsg0
 _ZN11OpenImageIO4v1_08ImageBuf13ConstIteratorIssEC2ERKS1_@Base 1.0.4+dfsg0
 _ZN11OpenImageIO4v1_08ImageBuf13ConstIteratorIssEppEv@Base 1.0.4+dfsg0
 _ZN11OpenImageIO4v1_08ImageBuf13ConstIteratorIstEC1ERKS1_iiiiii@Base 1.0.4+dfsg0
 _ZN11OpenImageIO4v1_08ImageBuf13ConstIteratorIstEC2ERKS1_iiiiii@Base 1.0.4+dfsg0
 _ZN11OpenImageIO4v1_08ImageBuf13ConstIteratorIsxEC1ERKS1_iiiiii@Base 1.0.4+dfsg0
 _ZN11OpenImageIO4v1_08ImageBuf13ConstIteratorIsxEC2ERKS1_iiiiii@Base 1.0.4+dfsg0
 _ZN11OpenImageIO4v1_08ImageBuf13ConstIteratorIsyEC1ERKS1_iiiiii@Base 1.0.4+dfsg0
 _ZN11OpenImageIO4v1_08ImageBuf13ConstIteratorIsyEC2ERKS1_iiiiii@Base 1.0.4+dfsg0
 _ZN11OpenImageIO4v1_08ImageBuf13ConstIteratorItcEC1ERKS1_iiiiii@Base 1.0.4+dfsg0
 _ZN11OpenImageIO4v1_08ImageBuf13ConstIteratorItcEC2ERKS1_iiiiii@Base 1.0.4+dfsg0
 _ZN11OpenImageIO4v1_08ImageBuf13ConstIteratorItdEC1ERKS1_iiiiii@Base 1.0.4+dfsg0
 _ZN11OpenImageIO4v1_08ImageBuf13ConstIteratorItdEC2ERKS1_iiiiii@Base 1.0.4+dfsg0
 _ZN11OpenImageIO4v1_08ImageBuf13ConstIteratorItfE3posEiii@Base 1.0.4+dfsg0
 _ZN11OpenImageIO4v1_08ImageBuf13ConstIteratorItsEC1ERKS1_iiiiii@Base 1.0.4+dfsg0
 _ZN11OpenImageIO4v1_08ImageBuf13ConstIteratorItsEC2ERKS1_iiiiii@Base 1.0.4+dfsg0
 _ZN11OpenImageIO4v1_08ImageBuf13ConstIteratorIttE3posEiii@Base 1.0.4+dfsg0
 _ZN11OpenImageIO4v1_08ImageBuf13ConstIteratorIttE9pos_xincrEv@Base 1.0.4+dfsg0
 _ZN11OpenImageIO4v1_08ImageBuf13ConstIteratorIttEC1ERKS1_@Base 1.0.4+dfsg0
 _ZN11OpenImageIO4v1_08ImageBuf13ConstIteratorIttEC1ERKS1_iiiiii@Base 1.0.4+dfsg0
 _ZN11OpenImageIO4v1_08ImageBuf13ConstIteratorIttEC2ERKS1_@Base 1.0.4+dfsg0
 _ZN11OpenImageIO4v1_08ImageBuf13ConstIteratorIttEC2ERKS1_iiiiii@Base 1.0.4+dfsg0
 _ZN11OpenImageIO4v1_08ImageBuf13ConstIteratorIttEppEv@Base 1.0.4+dfsg0
 _ZN11OpenImageIO4v1_08ImageBuf13ConstIteratorItxEC1ERKS1_iiiiii@Base 1.0.4+dfsg0
 _ZN11OpenImageIO4v1_08ImageBuf13ConstIteratorItxEC2ERKS1_iiiiii@Base 1.0.4+dfsg0
 _ZN11OpenImageIO4v1_08ImageBuf13ConstIteratorItyEC1ERKS1_iiiiii@Base 1.0.4+dfsg0
 _ZN11OpenImageIO4v1_08ImageBuf13ConstIteratorItyEC2ERKS1_iiiiii@Base 1.0.4+dfsg0
 _ZN11OpenImageIO4v1_08ImageBuf13ConstIteratorIxcEC1ERKS1_iiiiii@Base 1.0.4+dfsg0
 _ZN11OpenImageIO4v1_08ImageBuf13ConstIteratorIxcEC2ERKS1_iiiiii@Base 1.0.4+dfsg0
 _ZN11OpenImageIO4v1_08ImageBuf13ConstIteratorIxdEC1ERKS1_iiiiii@Base 1.0.4+dfsg0
 _ZN11OpenImageIO4v1_08ImageBuf13ConstIteratorIxdEC2ERKS1_iiiiii@Base 1.0.4+dfsg0
 _ZN11OpenImageIO4v1_08ImageBuf13ConstIteratorIxfEC1ERKS1_iiiiii@Base 1.0.4+dfsg0
 _ZN11OpenImageIO4v1_08ImageBuf13ConstIteratorIxfEC2ERKS1_iiiiii@Base 1.0.4+dfsg0
 _ZN11OpenImageIO4v1_08ImageBuf13ConstIteratorIxhEC1ERKS1_iiiiii@Base 1.0.4+dfsg0
 _ZN11OpenImageIO4v1_08ImageBuf13ConstIteratorIxhEC2ERKS1_iiiiii@Base 1.0.4+dfsg0
 _ZN11OpenImageIO4v1_08ImageBuf13ConstIteratorIxiEC1ERKS1_iiiiii@Base 1.0.4+dfsg0
 _ZN11OpenImageIO4v1_08ImageBuf13ConstIteratorIxiEC2ERKS1_iiiiii@Base 1.0.4+dfsg0
 _ZN11OpenImageIO4v1_08ImageBuf13ConstIteratorIxsEC1ERKS1_iiiiii@Base 1.0.4+dfsg0
 _ZN11OpenImageIO4v1_08ImageBuf13ConstIteratorIxsEC2ERKS1_iiiiii@Base 1.0.4+dfsg0
 _ZN11OpenImageIO4v1_08ImageBuf13ConstIteratorIxxE3posEiii@Base 1.0.4+dfsg0
 _ZN11OpenImageIO4v1_08ImageBuf13ConstIteratorIxxE9pos_xincrEv@Base 1.0.4+dfsg0
 _ZN11OpenImageIO4v1_08ImageBuf13ConstIteratorIxxEC1ERKS1_@Base 1.0.4+dfsg0
 _ZN11OpenImageIO4v1_08ImageBuf13ConstIteratorIxxEC1ERKS1_iiiiii@Base 1.0.4+dfsg0
 _ZN11OpenImageIO4v1_08ImageBuf13ConstIteratorIxxEC2ERKS1_@Base 1.0.4+dfsg0
 _ZN11OpenImageIO4v1_08ImageBuf13ConstIteratorIxxEC2ERKS1_iiiiii@Base 1.0.4+dfsg0
 _ZN11OpenImageIO4v1_08ImageBuf13ConstIteratorIxxEppEv@Base 1.0.4+dfsg0
 _ZN11OpenImageIO4v1_08ImageBuf13ConstIteratorIxyEC1ERKS1_iiiiii@Base 1.0.4+dfsg0
 _ZN11OpenImageIO4v1_08ImageBuf13ConstIteratorIxyEC2ERKS1_iiiiii@Base 1.0.4+dfsg0
 _ZN11OpenImageIO4v1_08ImageBuf13ConstIteratorIydEC1ERKS1_iiiiii@Base 1.0.4+dfsg0
 _ZN11OpenImageIO4v1_08ImageBuf13ConstIteratorIydEC2ERKS1_iiiiii@Base 1.0.4+dfsg0
 _ZN11OpenImageIO4v1_08ImageBuf13ConstIteratorIyfE3posEiii@Base 1.0.4+dfsg0
 _ZN11OpenImageIO4v1_08ImageBuf13ConstIteratorIyfEC1ERKS1_iiiiii@Base 1.0.4+dfsg0
 _ZN11OpenImageIO4v1_08ImageBuf13ConstIteratorIyfEC2ERKS1_iiiiii@Base 1.0.4+dfsg0
 _ZN11OpenImageIO4v1_08ImageBuf13ConstIteratorIyhEC1ERKS1_iiiiii@Base 1.0.4+dfsg0
 _ZN11OpenImageIO4v1_08ImageBuf13ConstIteratorIyhEC2ERKS1_iiiiii@Base 1.0.4+dfsg0
 _ZN11OpenImageIO4v1_08ImageBuf13ConstIteratorIyyE3posEiii@Base 1.0.4+dfsg0
 _ZN11OpenImageIO4v1_08ImageBuf13ConstIteratorIyyE9pos_xincrEv@Base 1.0.4+dfsg0
 _ZN11OpenImageIO4v1_08ImageBuf13ConstIteratorIyyEC1ERKS1_@Base 1.0.4+dfsg0
 _ZN11OpenImageIO4v1_08ImageBuf13ConstIteratorIyyEC1ERKS1_iiiiii@Base 1.0.4+dfsg0
 _ZN11OpenImageIO4v1_08ImageBuf13ConstIteratorIyyEC2ERKS1_@Base 1.0.4+dfsg0
 _ZN11OpenImageIO4v1_08ImageBuf13ConstIteratorIyyEC2ERKS1_iiiiii@Base 1.0.4+dfsg0
 _ZN11OpenImageIO4v1_08ImageBuf13ConstIteratorIyyEppEv@Base 1.0.4+dfsg0
 _ZN11OpenImageIO4v1_08ImageBuf4readEiibNS0_8TypeDescEPFbPvfES3_@Base 1.0.4+dfsg0
 _ZN11OpenImageIO4v1_08ImageBuf5allocERKNS0_9ImageSpecE@Base 1.0.4+dfsg0
 _ZN11OpenImageIO4v1_08ImageBuf5clearEv@Base 1.0.4+dfsg0
 _ZN11OpenImageIO4v1_08ImageBuf5resetERKSsPNS0_10ImageCacheE@Base 1.0.4+dfsg0
 _ZN11OpenImageIO4v1_08ImageBuf5resetERKSsRKNS0_9ImageSpecE@Base 1.0.4+dfsg0
 _ZN11OpenImageIO4v1_08ImageBuf7reallocEv@Base 1.0.4+dfsg0
 _ZN11OpenImageIO4v1_08ImageBuf8IteratorI4halfS3_E3posEiii@Base 1.0.4+dfsg0
 _ZN11OpenImageIO4v1_08ImageBuf8IteratorI4halfS3_EC1ERS1_iiiiii@Base 1.0.4+dfsg0
 _ZN11OpenImageIO4v1_08ImageBuf8IteratorI4halfS3_EC2ERS1_iiiiii@Base 1.0.4+dfsg0
 _ZN11OpenImageIO4v1_08ImageBuf8IteratorI4halffE3posEiii@Base 1.0.4+dfsg0
 _ZN11OpenImageIO4v1_08ImageBuf8IteratorIccE3posEiii@Base 1.0.4+dfsg0
 _ZN11OpenImageIO4v1_08ImageBuf8IteratorIccEC1ERS1_iiiiii@Base 1.0.4+dfsg0
 _ZN11OpenImageIO4v1_08ImageBuf8IteratorIccEC2ERS1_iiiiii@Base 1.0.4+dfsg0
 _ZN11OpenImageIO4v1_08ImageBuf8IteratorIcfE3posEiii@Base 1.0.4+dfsg0
 _ZN11OpenImageIO4v1_08ImageBuf8IteratorIddE3posEiii@Base 1.0.4+dfsg0
 _ZN11OpenImageIO4v1_08ImageBuf8IteratorIddEC1ERS1_iiiiii@Base 1.0.4+dfsg0
 _ZN11OpenImageIO4v1_08ImageBuf8IteratorIddEC2ERS1_iiiiii@Base 1.0.4+dfsg0
 _ZN11OpenImageIO4v1_08ImageBuf8IteratorIdfE3posEiii@Base 1.0.4+dfsg0
 _ZN11OpenImageIO4v1_08ImageBuf8IteratorIdfE9pos_xincrEv@Base 1.0.4+dfsg0
 _ZN11OpenImageIO4v1_08ImageBuf8IteratorIdfEC1ERS1_@Base 1.0.4+dfsg0
 _ZN11OpenImageIO4v1_08ImageBuf8IteratorIdfEC2ERS1_@Base 1.0.4+dfsg0
 _ZN11OpenImageIO4v1_08ImageBuf8IteratorIffE3posEiii@Base 1.0.4+dfsg0
 _ZN11OpenImageIO4v1_08ImageBuf8IteratorIffE9pos_xincrEv@Base 1.0.4+dfsg0
 _ZN11OpenImageIO4v1_08ImageBuf8IteratorIffEC1ERS1_@Base 1.0.4+dfsg0
 _ZN11OpenImageIO4v1_08ImageBuf8IteratorIffEC2ERS1_@Base 1.0.4+dfsg0
 _ZN11OpenImageIO4v1_08ImageBuf8IteratorIhfE3posEiii@Base 1.0.4+dfsg0
 _ZN11OpenImageIO4v1_08ImageBuf8IteratorIhhE3posEiii@Base 1.0.4+dfsg0
 _ZN11OpenImageIO4v1_08ImageBuf8IteratorIhhEC1ERS1_iiiiii@Base 1.0.4+dfsg0
 _ZN11OpenImageIO4v1_08ImageBuf8IteratorIhhEC2ERS1_iiiiii@Base 1.0.4+dfsg0
 _ZN11OpenImageIO4v1_08ImageBuf8IteratorIifE3posEiii@Base 1.0.4+dfsg0
 _ZN11OpenImageIO4v1_08ImageBuf8IteratorIiiE3posEiii@Base 1.0.4+dfsg0
 _ZN11OpenImageIO4v1_08ImageBuf8IteratorIiiEC1ERS1_iiiiii@Base 1.0.4+dfsg0
 _ZN11OpenImageIO4v1_08ImageBuf8IteratorIiiEC2ERS1_iiiiii@Base 1.0.4+dfsg0
 _ZN11OpenImageIO4v1_08ImageBuf8IteratorIjfE3posEiii@Base 1.0.4+dfsg0
 _ZN11OpenImageIO4v1_08ImageBuf8IteratorIjjE3posEiii@Base 1.0.4+dfsg0
 _ZN11OpenImageIO4v1_08ImageBuf8IteratorIjjEC1ERS1_iiiiii@Base 1.0.4+dfsg0
 _ZN11OpenImageIO4v1_08ImageBuf8IteratorIjjEC2ERS1_iiiiii@Base 1.0.4+dfsg0
 _ZN11OpenImageIO4v1_08ImageBuf8IteratorIsfE3posEiii@Base 1.0.4+dfsg0
 _ZN11OpenImageIO4v1_08ImageBuf8IteratorIssE3posEiii@Base 1.0.4+dfsg0
 _ZN11OpenImageIO4v1_08ImageBuf8IteratorIssEC1ERS1_iiiiii@Base 1.0.4+dfsg0
 _ZN11OpenImageIO4v1_08ImageBuf8IteratorIssEC2ERS1_iiiiii@Base 1.0.4+dfsg0
 _ZN11OpenImageIO4v1_08ImageBuf8IteratorItfE3posEiii@Base 1.0.4+dfsg0
 _ZN11OpenImageIO4v1_08ImageBuf8IteratorIttE3posEiii@Base 1.0.4+dfsg0
 _ZN11OpenImageIO4v1_08ImageBuf8IteratorIttEC1ERS1_iiiiii@Base 1.0.4+dfsg0
 _ZN11OpenImageIO4v1_08ImageBuf8IteratorIttEC2ERS1_iiiiii@Base 1.0.4+dfsg0
 _ZN11OpenImageIO4v1_08ImageBuf8IteratorIxfE3posEiii@Base 1.0.4+dfsg0
 _ZN11OpenImageIO4v1_08ImageBuf8IteratorIxxE3posEiii@Base 1.0.4+dfsg0
 _ZN11OpenImageIO4v1_08ImageBuf8IteratorIxxEC1ERS1_iiiiii@Base 1.0.4+dfsg0
 _ZN11OpenImageIO4v1_08ImageBuf8IteratorIxxEC2ERS1_iiiiii@Base 1.0.4+dfsg0
 _ZN11OpenImageIO4v1_08ImageBuf8IteratorIyfE3posEiii@Base 1.0.4+dfsg0
 _ZN11OpenImageIO4v1_08ImageBuf8IteratorIyyE3posEiii@Base 1.0.4+dfsg0
 _ZN11OpenImageIO4v1_08ImageBuf8IteratorIyyEC1ERS1_iiiiii@Base 1.0.4+dfsg0
 _ZN11OpenImageIO4v1_08ImageBuf8IteratorIyyEC2ERS1_iiiiii@Base 1.0.4+dfsg0
 _ZN11OpenImageIO4v1_08ImageBuf8set_fullEiiiiiiPKf@Base 1.0.4+dfsg0
 _ZN11OpenImageIO4v1_08ImageBuf8setpixelEiPKfi@Base 1.0.4+dfsg0
 _ZN11OpenImageIO4v1_08ImageBuf8setpixelEiiiPKfi@Base 1.0.4+dfsg0
 _ZN11OpenImageIO4v1_08ImageBuf9init_specERKSsii@Base 1.0.4+dfsg0
 _ZN11OpenImageIO4v1_08ImageBuf9pixeladdrEiii@Base 1.0.4+dfsg0
 _ZN11OpenImageIO4v1_08ImageBufC1ERKS1_@Base 1.0.4+dfsg0
 _ZN11OpenImageIO4v1_08ImageBufC1ERKSsPNS0_10ImageCacheE@Base 1.0.4+dfsg0
 _ZN11OpenImageIO4v1_08ImageBufC1ERKSsRKNS0_9ImageSpecE@Base 1.0.4+dfsg0
 _ZN11OpenImageIO4v1_08ImageBufC2ERKS1_@Base 1.0.4+dfsg0
 _ZN11OpenImageIO4v1_08ImageBufC2ERKSsPNS0_10ImageCacheE@Base 1.0.4+dfsg0
 _ZN11OpenImageIO4v1_08ImageBufC2ERKSsRKNS0_9ImageSpecE@Base 1.0.4+dfsg0
 _ZN11OpenImageIO4v1_08ImageBufD0Ev@Base 1.0.4+dfsg0
 _ZN11OpenImageIO4v1_08ImageBufD1Ev@Base 1.0.4+dfsg0
 _ZN11OpenImageIO4v1_08ImageBufD2Ev@Base 1.0.4+dfsg0
 _ZN11OpenImageIO4v1_08ImageBufaSERKS1_@Base 1.0.4+dfsg0
 _ZN11OpenImageIO4v1_08JpgInput13seek_subimageEiiRNS0_9ImageSpecE@Base 1.0.4+dfsg0
 _ZN11OpenImageIO4v1_08JpgInput16jpeg_decode_iptcEPKh@Base 1.0.4+dfsg0
 _ZN11OpenImageIO4v1_08JpgInput20read_native_scanlineEiiPv@Base 1.0.4+dfsg0
 _ZN11OpenImageIO4v1_08JpgInput4openERKSsRNS0_9ImageSpecE@Base 1.0.4+dfsg0
 _ZN11OpenImageIO4v1_08JpgInput4openERKSsRNS0_9ImageSpecERKS4_@Base 1.0.4+dfsg0
 _ZN11OpenImageIO4v1_08JpgInput5closeEv@Base 1.0.4+dfsg0
 _ZN11OpenImageIO4v1_08JpgInput9jpegerrorEPNS1_12my_error_mgrEb@Base 1.0.4+dfsg0
 _ZN11OpenImageIO4v1_08JpgInputD0Ev@Base 1.0.4+dfsg0
 _ZN11OpenImageIO4v1_08JpgInputD1Ev@Base 1.0.4+dfsg0
 _ZN11OpenImageIO4v1_08JpgInputD2Ev@Base 1.0.4+dfsg0
 _ZN11OpenImageIO4v1_08PNGInput20read_native_scanlineEiiPv@Base 1.0.4+dfsg0
 _ZN11OpenImageIO4v1_08PNGInput4openERKSsRNS0_9ImageSpecE@Base 1.0.4+dfsg0
 _ZN11OpenImageIO4v1_08PNGInput4openERKSsRNS0_9ImageSpecERKS4_@Base 1.0.4+dfsg0
 _ZN11OpenImageIO4v1_08PNGInput5closeEv@Base 1.0.4+dfsg0
 _ZN11OpenImageIO4v1_08PNGInput7readimgEv@Base 1.0.4+dfsg0
 _ZN11OpenImageIO4v1_08PNGInputD0Ev@Base 1.0.4+dfsg0
 _ZN11OpenImageIO4v1_08PNGInputD1Ev@Base 1.0.4+dfsg0
 _ZN11OpenImageIO4v1_08PNGInputD2Ev@Base 1.0.4+dfsg0
 _ZN11OpenImageIO4v1_08PNMInput16read_file_headerEv@Base 1.0.4+dfsg0
 _ZN11OpenImageIO4v1_08PNMInput18read_file_scanlineEPv@Base 1.0.4+dfsg0
 _ZN11OpenImageIO4v1_08PNMInput20read_native_scanlineEiiPv@Base 1.0.4+dfsg0
 _ZN11OpenImageIO4v1_08PNMInput4openERKSsRNS0_9ImageSpecE@Base 1.0.4+dfsg0
 _ZN11OpenImageIO4v1_08PNMInput5closeEv@Base 1.0.4+dfsg0
 _ZN11OpenImageIO4v1_08PNMInputD0Ev@Base 1.0.4+dfsg0
 _ZN11OpenImageIO4v1_08PNMInputD1Ev@Base 1.0.4+dfsg0
 _ZN11OpenImageIO4v1_08PNMInputD2Ev@Base 1.0.4+dfsg0
 _ZN11OpenImageIO4v1_08PSDInput10load_layerERNS1_5LayerE@Base 1.0.4+dfsg0
 _ZN11OpenImageIO4v1_08PSDInput11ChannelInfoC1ERKS2_@Base 1.0.4+dfsg0
 _ZN11OpenImageIO4v1_08PSDInput11ChannelInfoC2ERKS2_@Base 1.0.4+dfsg0
 _ZN11OpenImageIO4v1_08PSDInput11ChannelInfoD1Ev@Base 1.0.4+dfsg0
 _ZN11OpenImageIO4v1_08PSDInput11ChannelInfoD2Ev@Base 1.0.4+dfsg0
 _ZN11OpenImageIO4v1_08PSDInput11load_headerEv@Base 1.0.4+dfsg0
 _ZN11OpenImageIO4v1_08PSDInput11load_layersEv@Base 1.0.4+dfsg0
 _ZN11OpenImageIO4v1_08PSDInput11read_headerEv@Base 1.0.4+dfsg0
 _ZN11OpenImageIO4v1_08PSDInput13bitmap_to_rgbEPc@Base 1.0.4+dfsg0
 _ZN11OpenImageIO4v1_08PSDInput13read_resourceERNS0_7psd_pvt18ImageResourceBlockE@Base 1.0.4+dfsg0
 _ZN11OpenImageIO4v1_08PSDInput13seek_subimageEiiRNS0_9ImageSpecE@Base 1.0.4+dfsg0
 _ZN11OpenImageIO4v1_08PSDInput13set_type_descEv@Base 1.0.4+dfsg0
 _ZN11OpenImageIO4v1_08PSDInput14convert_to_rgbEPc@Base 1.0.4+dfsg0
 _ZN11OpenImageIO4v1_08PSDInput14indexed_to_rgbEPc@Base 1.0.4+dfsg0
 _ZN11OpenImageIO4v1_08PSDInput14interleave_rowEPc@Base 1.0.4+dfsg0
 _ZN11OpenImageIO4v1_08PSDInput14load_resourcesEv@Base 1.0.4+dfsg0
 _ZN11OpenImageIO4v1_08PSDInput15load_color_dataEv@Base 1.0.4+dfsg0
 _ZN11OpenImageIO4v1_08PSDInput15load_image_dataEv@Base 1.0.4+dfsg0
 _ZN11OpenImageIO4v1_08PSDInput15validate_headerEv@Base 1.0.4+dfsg0
 _ZN11OpenImageIO4v1_08PSDInput16common_attributeIA3_cEEvRKSsRKT_@Base 1.0.4+dfsg0
 _ZN11OpenImageIO4v1_08PSDInput16common_attributeIfEEvRKSsRKT_@Base 1.0.4+dfsg0
 _ZN11OpenImageIO4v1_08PSDInput16handle_resourcesERSt3mapItNS0_7psd_pvt18ImageResourceBlockESt4lessItESaISt4pairIKtS4_EEE@Base 1.0.4+dfsg0
 _ZN11OpenImageIO4v1_08PSDInput16read_channel_rowERKNS1_11ChannelInfoEjPc@Base 1.0.4+dfsg0
 _ZN11OpenImageIO4v1_08PSDInput16read_rle_lengthsEjRSt6vectorIjSaIjEE@Base 1.0.4+dfsg0
 _ZN11OpenImageIO4v1_08PSDInput16resource_loadersE@Base 1.0.4+dfsg0
 _ZN11OpenImageIO4v1_08PSDInput17validate_resourceERNS0_7psd_pvt18ImageResourceBlockE@Base 1.0.4+dfsg0
 _ZN11OpenImageIO4v1_08PSDInput18fill_channel_namesERNS0_9ImageSpecEb@Base 1.0.4+dfsg0
 _ZN11OpenImageIO4v1_08PSDInput18load_layer_channelERNS1_5LayerERNS1_11ChannelInfoE@Base 1.0.4+dfsg0
 _ZN11OpenImageIO4v1_08PSDInput18load_resource_1005Ej@Base 1.0.4+dfsg0
 _ZN11OpenImageIO4v1_08PSDInput18load_resource_1006Ej@Base 1.0.4+dfsg0
 _ZN11OpenImageIO4v1_08PSDInput18load_resource_1033Ej@Base 1.0.4+dfsg0
 _ZN11OpenImageIO4v1_08PSDInput18load_resource_1036Ej@Base 1.0.4+dfsg0
 _ZN11OpenImageIO4v1_08PSDInput18load_resource_1047Ej@Base 1.0.4+dfsg0
 _ZN11OpenImageIO4v1_08PSDInput18load_resource_1058Ej@Base 1.0.4+dfsg0
 _ZN11OpenImageIO4v1_08PSDInput18load_resource_1059Ej@Base 1.0.4+dfsg0
 _ZN11OpenImageIO4v1_08PSDInput18load_resource_1060Ej@Base 1.0.4+dfsg0
 _ZN11OpenImageIO4v1_08PSDInput18load_resource_1064Ej@Base 1.0.4+dfsg0
 _ZN11OpenImageIO4v1_08PSDInput18mode_channel_countE@Base 1.0.4+dfsg0
 _ZN11OpenImageIO4v1_08PSDInput18mode_channel_namesE@Base 1.0.4+dfsg0
 _ZN11OpenImageIO4v1_08PSDInput18read_pascal_stringERSst@Base 1.0.4+dfsg0
 _ZN11OpenImageIO4v1_08PSDInput19additional_info_psbE@Base 1.0.4+dfsg0
 _ZN11OpenImageIO4v1_08PSDInput19decompress_packbitsEPKcPctt@Base 1.0.4+dfsg0
 _ZN11OpenImageIO4v1_08PSDInput19load_layer_channelsERNS1_5LayerE@Base 1.0.4+dfsg0
 _ZN11OpenImageIO4v1_08PSDInput19validate_color_dataEv@Base 1.0.4+dfsg0
 _ZN11OpenImageIO4v1_08PSDInput20read_native_scanlineEiiPv@Base 1.0.4+dfsg0
 _ZN11OpenImageIO4v1_08PSDInput20thumbnail_error_exitEP18jpeg_common_struct@Base 1.0.4+dfsg0
 _ZN11OpenImageIO4v1_08PSDInput21load_global_mask_infoEv@Base 1.0.4+dfsg0
 _ZN11OpenImageIO4v1_08PSDInput22is_additional_info_psbEPKc@Base 1.0.4+dfsg0
 _ZN11OpenImageIO4v1_08PSDInput22load_global_additionalEv@Base 1.0.4+dfsg0
 _ZN11OpenImageIO4v1_08PSDInput23load_resource_thumbnailEjb@Base 1.0.4+dfsg0
 _ZN11OpenImageIO4v1_08PSDInput25additional_info_psb_countE@Base 1.0.4+dfsg0
 _ZN11OpenImageIO4v1_08PSDInput4initEv@Base 1.0.4+dfsg0
 _ZN11OpenImageIO4v1_08PSDInput4openERKSsRNS0_9ImageSpecE@Base 1.0.4+dfsg0
 _ZN11OpenImageIO4v1_08PSDInput4openERKSsRNS0_9ImageSpecERKS4_@Base 1.0.4+dfsg0
 _ZN11OpenImageIO4v1_08PSDInput5LayerC1ERKS2_@Base 1.0.4+dfsg0
 _ZN11OpenImageIO4v1_08PSDInput5LayerC2ERKS2_@Base 1.0.4+dfsg0
 _ZN11OpenImageIO4v1_08PSDInput5LayerD1Ev@Base 1.0.4+dfsg0
 _ZN11OpenImageIO4v1_08PSDInput5LayerD2Ev@Base 1.0.4+dfsg0
 _ZN11OpenImageIO4v1_08PSDInput5closeEv@Base 1.0.4+dfsg0
 _ZN11OpenImageIO4v1_08PSDInput5setupEv@Base 1.0.4+dfsg0
 _ZN11OpenImageIO4v1_08PSDInput8check_ioEv@Base 1.0.4+dfsg0
 _ZN11OpenImageIO4v1_08PSDInput9read_bigeIddEEbRT0_@Base 1.0.4+dfsg0
 _ZN11OpenImageIO4v1_08PSDInput9read_bigeIhhEEbRT0_@Base 1.0.4+dfsg0
 _ZN11OpenImageIO4v1_08PSDInput9read_bigeIjfEEbRT0_@Base 1.0.4+dfsg0
 _ZN11OpenImageIO4v1_08PSDInput9read_bigeIjjEEbRT0_@Base 1.0.4+dfsg0
 _ZN11OpenImageIO4v1_08PSDInput9read_bigeIjyEEbRT0_@Base 1.0.4+dfsg0
 _ZN11OpenImageIO4v1_08PSDInput9read_bigeIsaEEbRT0_@Base 1.0.4+dfsg0
 _ZN11OpenImageIO4v1_08PSDInput9read_bigeIssEEbRT0_@Base 1.0.4+dfsg0
 _ZN11OpenImageIO4v1_08PSDInput9read_bigeIttEEbRT0_@Base 1.0.4+dfsg0
 _ZN11OpenImageIO4v1_08PSDInput9read_bigeIyyEEbRT0_@Base 1.0.4+dfsg0
 _ZN11OpenImageIO4v1_08PSDInputC1Ev@Base 1.0.4+dfsg0
 _ZN11OpenImageIO4v1_08PSDInputC2Ev@Base 1.0.4+dfsg0
 _ZN11OpenImageIO4v1_08PSDInputD0Ev@Base 1.0.4+dfsg0
 _ZN11OpenImageIO4v1_08PSDInputD1Ev@Base 1.0.4+dfsg0
 _ZN11OpenImageIO4v1_08PSDInputD2Ev@Base 1.0.4+dfsg0
 _ZN11OpenImageIO4v1_08RLAInput13seek_subimageEiiRNS0_9ImageSpecE@Base 1.0.4+dfsg0
 _ZN11OpenImageIO4v1_08RLAInput15decode_rle_spanEPhiiPKcj@Base 1.0.4+dfsg0
 _ZN11OpenImageIO4v1_08RLAInput20decode_channel_groupEissi@Base 1.0.4+dfsg0
 _ZN11OpenImageIO4v1_08RLAInput20read_native_scanlineEiiPv@Base 1.0.4+dfsg0
 _ZN11OpenImageIO4v1_08RLAInput4openERKSsRNS0_9ImageSpecE@Base 1.0.4+dfsg0
 _ZN11OpenImageIO4v1_08RLAInput5closeEv@Base 1.0.4+dfsg0
 _ZN11OpenImageIO4v1_08RLAInputD0Ev@Base 1.0.4+dfsg0
 _ZN11OpenImageIO4v1_08RLAInputD1Ev@Base 1.0.4+dfsg0
 _ZN11OpenImageIO4v1_08RLAInputD2Ev@Base 1.0.4+dfsg0
 _ZN11OpenImageIO4v1_08SgiInput11read_headerEv@Base 1.0.4+dfsg0
 _ZN11OpenImageIO4v1_08SgiInput18read_offset_tablesEv@Base 1.0.4+dfsg0
 _ZN11OpenImageIO4v1_08SgiInput20read_native_scanlineEiiPv@Base 1.0.4+dfsg0
 _ZN11OpenImageIO4v1_08SgiInput22uncompress_rle_channelEiiPh@Base 1.0.4+dfsg0
 _ZN11OpenImageIO4v1_08SgiInput4openERKSsRNS0_9ImageSpecE@Base 1.0.4+dfsg0
 _ZN11OpenImageIO4v1_08SgiInput5closeEv@Base 1.0.4+dfsg0
 _ZN11OpenImageIO4v1_08SgiInput5freadEPvjj@Base 1.0.4+dfsg0
 _ZN11OpenImageIO4v1_08SgiInputD0Ev@Base 1.0.4+dfsg0
 _ZN11OpenImageIO4v1_08SgiInputD1Ev@Base 1.0.4+dfsg0
 _ZN11OpenImageIO4v1_08SgiInputD2Ev@Base 1.0.4+dfsg0
 _ZN11OpenImageIO4v1_08TGAInput12decode_pixelEPhS2_S2_RiS3_S3_@Base 1.0.4+dfsg0
 _ZN11OpenImageIO4v1_08TGAInput20read_native_scanlineEiiPv@Base 1.0.4+dfsg0
 _ZN11OpenImageIO4v1_08TGAInput4openERKSsRNS0_9ImageSpecE@Base 1.0.4+dfsg0
 _ZN11OpenImageIO4v1_08TGAInput5closeEv@Base 1.0.4+dfsg0
 _ZN11OpenImageIO4v1_08TGAInput5freadEPvjj@Base 1.0.4+dfsg0
 _ZN11OpenImageIO4v1_08TGAInput7readimgEv@Base 1.0.4+dfsg0
 _ZN11OpenImageIO4v1_08TGAInputD0Ev@Base 1.0.4+dfsg0
 _ZN11OpenImageIO4v1_08TGAInputD1Ev@Base 1.0.4+dfsg0
 _ZN11OpenImageIO4v1_08TGAInputD2Ev@Base 1.0.4+dfsg0
 _ZN11OpenImageIO4v1_08TypeDesc10TypeMatrixE@Base 1.0.4+dfsg0
 _ZN11OpenImageIO4v1_08TypeDesc10TypeNormalE@Base 1.0.4+dfsg0
 _ZN11OpenImageIO4v1_08TypeDesc10TypeStringE@Base 1.0.4+dfsg0
 _ZN11OpenImageIO4v1_08TypeDesc10TypeVectorE@Base 1.0.4+dfsg0
 _ZN11OpenImageIO4v1_08TypeDesc10fromstringEPKc@Base 1.0.4+dfsg0
 _ZN11OpenImageIO4v1_08TypeDesc7TypeIntE@Base 1.0.4+dfsg0
 _ZN11OpenImageIO4v1_08TypeDesc9TypeColorE@Base 1.0.4+dfsg0
 _ZN11OpenImageIO4v1_08TypeDesc9TypeFloatE@Base 1.0.4+dfsg0
 _ZN11OpenImageIO4v1_08TypeDesc9TypePointE@Base 1.0.4+dfsg0
 _ZN11OpenImageIO4v1_08TypeDescC1EPKc@Base 1.0.4+dfsg0
 _ZN11OpenImageIO4v1_08TypeDescC2EPKc@Base 1.0.4+dfsg0
 _ZN11OpenImageIO4v1_08fits_pvt11create_cardESsSs@Base 1.0.4+dfsg0
 _ZN11OpenImageIO4v1_08fits_pvt11unpack_cardERKSsRSsS4_@Base 1.0.4+dfsg0
 _ZN11OpenImageIO4v1_08fits_pvt7num2strEf@Base 1.0.4+dfsg0
 _ZN11OpenImageIO4v1_08geterrorEv@Base 1.0.4+dfsg0
 _ZN11OpenImageIO4v1_08pystring10capitalizeERKSs@Base 1.0.4+dfsg0
 _ZN11OpenImageIO4v1_08pystring10expandtabsERKSsi@Base 1.0.4+dfsg0
 _ZN11OpenImageIO4v1_08pystring10rpartitionERKSsS3_RSt6vectorISsSaISsEE@Base 1.0.4+dfsg0
 _ZN11OpenImageIO4v1_08pystring10splitlinesERKSsRSt6vectorISsSaISsEEb@Base 1.0.4+dfsg0
 _ZN11OpenImageIO4v1_08pystring10startswithERKSsS3_ii@Base 1.0.4+dfsg0
 _ZN11OpenImageIO4v1_08pystring11__substrcmpERKSsS3_j@Base 1.0.4+dfsg0
 _ZN11OpenImageIO4v1_08pystring16__adjustsliceposEji@Base 1.0.4+dfsg0
 _ZN11OpenImageIO4v1_08pystring4findERKSsS3_ii@Base 1.0.4+dfsg0
 _ZN11OpenImageIO4v1_08pystring4joinERKSsRKSt6vectorISsSaISsEE@Base 1.0.4+dfsg0
 _ZN11OpenImageIO4v1_08pystring5countERKSsS3_ii@Base 1.0.4+dfsg0
 _ZN11OpenImageIO4v1_08pystring5indexERKSsS3_ii@Base 1.0.4+dfsg0
 _ZN11OpenImageIO4v1_08pystring5ljustERKSsi@Base 1.0.4+dfsg0
 _ZN11OpenImageIO4v1_08pystring5lowerERKSs@Base 1.0.4+dfsg0
 _ZN11OpenImageIO4v1_08pystring5rfindERKSsS3_ii@Base 1.0.4+dfsg0
 _ZN11OpenImageIO4v1_08pystring5rjustERKSsi@Base 1.0.4+dfsg0
 _ZN11OpenImageIO4v1_08pystring5sliceERKSsii@Base 1.0.4+dfsg0
 _ZN11OpenImageIO4v1_08pystring5splitERKSsRSt6vectorISsSaISsEES3_i@Base 1.0.4+dfsg0
 _ZN11OpenImageIO4v1_08pystring5stripERKSsS3_@Base 1.0.4+dfsg0
 _ZN11OpenImageIO4v1_08pystring5titleERKSs@Base 1.0.4+dfsg0
 _ZN11OpenImageIO4v1_08pystring5upperERKSs@Base 1.0.4+dfsg0
 _ZN11OpenImageIO4v1_08pystring5zfillERKSsi@Base 1.0.4+dfsg0
 _ZN11OpenImageIO4v1_08pystring6centerERKSsi@Base 1.0.4+dfsg0
 _ZN11OpenImageIO4v1_08pystring6lstripERKSsS3_@Base 1.0.4+dfsg0
 _ZN11OpenImageIO4v1_08pystring6rindexERKSsS3_ii@Base 1.0.4+dfsg0
 _ZN11OpenImageIO4v1_08pystring6rsplitERKSsRSt6vectorISsSaISsEES3_i@Base 1.0.4+dfsg0
 _ZN11OpenImageIO4v1_08pystring6rstripERKSsS3_@Base 1.0.4+dfsg0
 _ZN11OpenImageIO4v1_08pystring7isalnumERKSs@Base 1.0.4+dfsg0
 _ZN11OpenImageIO4v1_08pystring7isalphaERKSs@Base 1.0.4+dfsg0
 _ZN11OpenImageIO4v1_08pystring7isdigitERKSs@Base 1.0.4+dfsg0
 _ZN11OpenImageIO4v1_08pystring7islowerERKSs@Base 1.0.4+dfsg0
 _ZN11OpenImageIO4v1_08pystring7isspaceERKSs@Base 1.0.4+dfsg0
 _ZN11OpenImageIO4v1_08pystring7istitleERKSs@Base 1.0.4+dfsg0
 _ZN11OpenImageIO4v1_08pystring7isupperERKSs@Base 1.0.4+dfsg0
 _ZN11OpenImageIO4v1_08pystring7replaceERKSsS3_S3_i@Base 1.0.4+dfsg0
 _ZN11OpenImageIO4v1_08pystring8do_stripERKSsiS3_@Base 1.0.4+dfsg0
 _ZN11OpenImageIO4v1_08pystring8endswithERKSsS3_ii@Base 1.0.4+dfsg0
 _ZN11OpenImageIO4v1_08pystring8swapcaseERKSs@Base 1.0.4+dfsg0
 _ZN11OpenImageIO4v1_08pystring9partitionERKSsS3_RSt6vectorISsSaISsEE@Base 1.0.4+dfsg0
 _ZN11OpenImageIO4v1_08pystring9translateERKSsS3_S3_@Base 1.0.4+dfsg0
 _ZN11OpenImageIO4v1_09ArgOption10initializeEv@Base 1.0.4+dfsg0
 _ZN11OpenImageIO4v1_09ArgOption12add_argumentEPKc@Base 1.0.4+dfsg0
 _ZN11OpenImageIO4v1_09ArgOption13add_parameterEiPv@Base 1.0.4+dfsg0
 _ZN11OpenImageIO4v1_09ArgOption13set_parameterEiPKc@Base 1.0.4+dfsg0
 _ZN11OpenImageIO4v1_09ArgOptionC1EPKc@Base 1.0.4+dfsg0
 _ZN11OpenImageIO4v1_09ArgOptionC2EPKc@Base 1.0.4+dfsg0
 _ZN11OpenImageIO4v1_09BmpOutput14write_scanlineEiiNS0_8TypeDescEPKvi@Base 1.0.4+dfsg0
 _ZN11OpenImageIO4v1_09BmpOutput28create_and_write_file_headerEv@Base 1.0.4+dfsg0
 _ZN11OpenImageIO4v1_09BmpOutput30create_and_write_bitmap_headerEv@Base 1.0.4+dfsg0
 _ZN11OpenImageIO4v1_09BmpOutput4openERKSsRKNS0_9ImageSpecENS0_11ImageOutput8OpenModeE@Base 1.0.4+dfsg0
 _ZN11OpenImageIO4v1_09BmpOutput5closeEv@Base 1.0.4+dfsg0
 _ZN11OpenImageIO4v1_09BmpOutputD0Ev@Base 1.0.4+dfsg0
 _ZN11OpenImageIO4v1_09BmpOutputD1Ev@Base 1.0.4+dfsg0
 _ZN11OpenImageIO4v1_09BmpOutputD2Ev@Base 1.0.4+dfsg0
 _ZN11OpenImageIO4v1_09DDSOutput14write_scanlineEiiNS0_8TypeDescEPKvi@Base 1.0.4+dfsg0
 _ZN11OpenImageIO4v1_09DDSOutput4openERKSsRKNS0_9ImageSpecENS0_11ImageOutput8OpenModeE@Base 1.0.4+dfsg0
 _ZN11OpenImageIO4v1_09DDSOutput5closeEv@Base 1.0.4+dfsg0
 _ZN11OpenImageIO4v1_09DDSOutputC1Ev@Base 1.0.4+dfsg0
 _ZN11OpenImageIO4v1_09DDSOutputC2Ev@Base 1.0.4+dfsg0
 _ZN11OpenImageIO4v1_09DDSOutputD0Ev@Base 1.0.4+dfsg0
 _ZN11OpenImageIO4v1_09DDSOutputD1Ev@Base 1.0.4+dfsg0
 _ZN11OpenImageIO4v1_09DDSOutputD2Ev@Base 1.0.4+dfsg0
 _ZN11OpenImageIO4v1_09DPXOutput14write_scanlineEiiNS0_8TypeDescEPKvi@Base 1.0.4+dfsg0
 _ZN11OpenImageIO4v1_09DPXOutput26get_descriptor_from_stringERKSs@Base 1.0.4+dfsg0
 _ZN11OpenImageIO4v1_09DPXOutput30get_characteristic_from_stringERKSs@Base 1.0.4+dfsg0
 _ZN11OpenImageIO4v1_09DPXOutput4openERKSsRKNS0_9ImageSpecENS0_11ImageOutput8OpenModeE@Base 1.0.4+dfsg0
 _ZN11OpenImageIO4v1_09DPXOutput5closeEv@Base 1.0.4+dfsg0
 _ZN11OpenImageIO4v1_09DPXOutputC1Ev@Base 1.0.4+dfsg0
 _ZN11OpenImageIO4v1_09DPXOutputC2Ev@Base 1.0.4+dfsg0
 _ZN11OpenImageIO4v1_09DPXOutputD0Ev@Base 1.0.4+dfsg0
 _ZN11OpenImageIO4v1_09DPXOutputD1Ev@Base 1.0.4+dfsg0
 _ZN11OpenImageIO4v1_09DPXOutputD2Ev@Base 1.0.4+dfsg0
 _ZN11OpenImageIO4v1_09FitsInput11add_to_specERKSsS3_@Base 1.0.4+dfsg0
 _ZN11OpenImageIO4v1_09FitsInput12convert_dateERKSs@Base 1.0.4+dfsg0
 _ZN11OpenImageIO4v1_09FitsInput13seek_subimageEiiRNS0_9ImageSpecE@Base 1.0.4+dfsg0
 _ZN11OpenImageIO4v1_09FitsInput13set_spec_infoEv@Base 1.0.4+dfsg0
 _ZN11OpenImageIO4v1_09FitsInput15subimage_searchEv@Base 1.0.4+dfsg0
 _ZN11OpenImageIO4v1_09FitsInput16read_fits_headerEv@Base 1.0.4+dfsg0
 _ZN11OpenImageIO4v1_09FitsInput20read_native_scanlineEiiPv@Base 1.0.4+dfsg0
 _ZN11OpenImageIO4v1_09FitsInput4openERKSsRNS0_9ImageSpecE@Base 1.0.4+dfsg0
 _ZN11OpenImageIO4v1_09FitsInput5closeEv@Base 1.0.4+dfsg0
 _ZN11OpenImageIO4v1_09FitsInputD0Ev@Base 1.0.4+dfsg0
 _ZN11OpenImageIO4v1_09FitsInputD1Ev@Base 1.0.4+dfsg0
 _ZN11OpenImageIO4v1_09FitsInputD2Ev@Base 1.0.4+dfsg0
 _ZN11OpenImageIO4v1_09HdrOutput14write_scanlineEiiNS0_8TypeDescEPKvi@Base 1.0.4+dfsg0
 _ZN11OpenImageIO4v1_09HdrOutput4openERKSsRKNS0_9ImageSpecENS0_11ImageOutput8OpenModeE@Base 1.0.4+dfsg0
 _ZN11OpenImageIO4v1_09HdrOutput5closeEv@Base 1.0.4+dfsg0
 _ZN11OpenImageIO4v1_09HdrOutputD0Ev@Base 1.0.4+dfsg0
 _ZN11OpenImageIO4v1_09HdrOutputD1Ev@Base 1.0.4+dfsg0
 _ZN11OpenImageIO4v1_09HdrOutputD2Ev@Base 1.0.4+dfsg0
 _ZN11OpenImageIO4v1_09ICOOutput14write_scanlineEiiNS0_8TypeDescEPKvi@Base 1.0.4+dfsg0
 _ZN11OpenImageIO4v1_09ICOOutput4openERKSsRKNS0_9ImageSpecENS0_11ImageOutput8OpenModeE@Base 1.0.4+dfsg0
 _ZN11OpenImageIO4v1_09ICOOutput5closeEv@Base 1.0.4+dfsg0
 _ZN11OpenImageIO4v1_09ICOOutput5freadEPvjj@Base 1.0.4+dfsg0
 _ZN11OpenImageIO4v1_09ICOOutputC1Ev@Base 1.0.4+dfsg0
 _ZN11OpenImageIO4v1_09ICOOutputC2Ev@Base 1.0.4+dfsg0
 _ZN11OpenImageIO4v1_09ICOOutputD0Ev@Base 1.0.4+dfsg0
 _ZN11OpenImageIO4v1_09ICOOutputD1Ev@Base 1.0.4+dfsg0
 _ZN11OpenImageIO4v1_09ICOOutputD2Ev@Base 1.0.4+dfsg0
 _ZN11OpenImageIO4v1_09IffOutput10write_tileEiiiNS0_8TypeDescEPKviii@Base 1.0.4+dfsg0
 _ZN11OpenImageIO4v1_09IffOutput14write_scanlineEiiNS0_8TypeDescEPKvi@Base 1.0.4+dfsg0
 _ZN11OpenImageIO4v1_09IffOutput17compress_verbatimERPKhRPhi@Base 1.0.4+dfsg0
 _ZN11OpenImageIO4v1_09IffOutput18compress_duplicateERPKhRPhi@Base 1.0.4+dfsg0
 _ZN11OpenImageIO4v1_09IffOutput20compress_rle_channelEPKhPhi@Base 1.0.4+dfsg0
 _ZN11OpenImageIO4v1_09IffOutput4openERKSsRKNS0_9ImageSpecENS0_11ImageOutput8OpenModeE@Base 1.0.4+dfsg0
 _ZN11OpenImageIO4v1_09IffOutput5closeEv@Base 1.0.4+dfsg0
 _ZN11OpenImageIO4v1_09IffOutputD0Ev@Base 1.0.4+dfsg0
 _ZN11OpenImageIO4v1_09IffOutputD1Ev@Base 1.0.4+dfsg0
 _ZN11OpenImageIO4v1_09IffOutputD2Ev@Base 1.0.4+dfsg0
 _ZN11OpenImageIO4v1_09ImageSpec10set_formatENS0_8TypeDescE@Base 1.0.4+dfsg0
 _ZN11OpenImageIO4v1_09ImageSpec11auto_strideERiS2_S2_NS0_8TypeDescEiii@Base 1.0.4+dfsg0
 _ZN11OpenImageIO4v1_09ImageSpec14find_attributeERKSsNS0_8TypeDescEb@Base 1.0.4+dfsg0
 _ZN11OpenImageIO4v1_09ImageSpec15erase_attributeERKSsNS0_8TypeDescEb@Base 1.0.4+dfsg0
 _ZN11OpenImageIO4v1_09ImageSpec20format_from_quantizeEiiii@Base 1.0.4+dfsg0
 _ZN11OpenImageIO4v1_09ImageSpec21default_channel_namesEv@Base 1.0.4+dfsg0
 _ZN11OpenImageIO4v1_09ImageSpec8from_xmlEPKc@Base 1.0.4+dfsg0
 _ZN11OpenImageIO4v1_09ImageSpec9attributeERKSsNS0_8TypeDescEPKv@Base 1.0.4+dfsg0
 _ZN11OpenImageIO4v1_09ImageSpec9attributeERKSsNS0_8TypeDescES3_@Base 1.0.4+dfsg0
 _ZN11OpenImageIO4v1_09ImageSpec9attributeERKSsPKc@Base 1.0.4+dfsg0
 _ZN11OpenImageIO4v1_09ImageSpec9attributeERKSsS3_@Base 1.0.4+dfsg0
 _ZN11OpenImageIO4v1_09ImageSpec9attributeERKSsf@Base 1.0.4+dfsg0
 _ZN11OpenImageIO4v1_09ImageSpec9attributeERKSsi@Base 1.0.4+dfsg0
 _ZN11OpenImageIO4v1_09ImageSpecC1ENS0_8TypeDescE@Base 1.0.4+dfsg0
 _ZN11OpenImageIO4v1_09ImageSpecC1ERKS1_@Base 1.0.4+dfsg0
 _ZN11OpenImageIO4v1_09ImageSpecC1EiiiNS0_8TypeDescE@Base 1.0.4+dfsg0
 _ZN11OpenImageIO4v1_09ImageSpecC2ENS0_8TypeDescE@Base 1.0.4+dfsg0
 _ZN11OpenImageIO4v1_09ImageSpecC2ERKS1_@Base 1.0.4+dfsg0
 _ZN11OpenImageIO4v1_09ImageSpecC2EiiiNS0_8TypeDescE@Base 1.0.4+dfsg0
 _ZN11OpenImageIO4v1_09ImageSpecD1Ev@Base 1.0.4+dfsg0
 _ZN11OpenImageIO4v1_09ImageSpecD2Ev@Base 1.0.4+dfsg0
 _ZN11OpenImageIO4v1_09ImageSpecaSERKS1_@Base 1.0.4+dfsg0
 _ZN11OpenImageIO4v1_09JpgOutput10copy_imageEPNS0_10ImageInputE@Base 1.0.4+dfsg0
 _ZN11OpenImageIO4v1_09JpgOutput14write_scanlineEiiNS0_8TypeDescEPKvi@Base 1.0.4+dfsg0
 _ZN11OpenImageIO4v1_09JpgOutput4openERKSsRKNS0_9ImageSpecENS0_11ImageOutput8OpenModeE@Base 1.0.4+dfsg0
 _ZN11OpenImageIO4v1_09JpgOutput5closeEv@Base 1.0.4+dfsg0
 _ZN11OpenImageIO4v1_09JpgOutputD0Ev@Base 1.0.4+dfsg0
 _ZN11OpenImageIO4v1_09JpgOutputD1Ev@Base 1.0.4+dfsg0
 _ZN11OpenImageIO4v1_09JpgOutputD2Ev@Base 1.0.4+dfsg0
 _ZN11OpenImageIO4v1_09PNGOutput14write_scanlineEiiNS0_8TypeDescEPKvi@Base 1.0.4+dfsg0
 _ZN11OpenImageIO4v1_09PNGOutput4openERKSsRKNS0_9ImageSpecENS0_11ImageOutput8OpenModeE@Base 1.0.4+dfsg0
 _ZN11OpenImageIO4v1_09PNGOutput5closeEv@Base 1.0.4+dfsg0
 _ZN11OpenImageIO4v1_09PNGOutputC1Ev@Base 1.0.4+dfsg0
 _ZN11OpenImageIO4v1_09PNGOutputC2Ev@Base 1.0.4+dfsg0
 _ZN11OpenImageIO4v1_09PNGOutputD0Ev@Base 1.0.4+dfsg0
 _ZN11OpenImageIO4v1_09PNGOutputD1Ev@Base 1.0.4+dfsg0
 _ZN11OpenImageIO4v1_09PNGOutputD2Ev@Base 1.0.4+dfsg0
 _ZN11OpenImageIO4v1_09PNMOutput14write_scanlineEiiNS0_8TypeDescEPKvi@Base 1.0.4+dfsg0
 _ZN11OpenImageIO4v1_09PNMOutput4openERKSsRKNS0_9ImageSpecENS0_11ImageOutput8OpenModeE@Base 1.0.4+dfsg0
 _ZN11OpenImageIO4v1_09PNMOutput5closeEv@Base 1.0.4+dfsg0
 _ZN11OpenImageIO4v1_09PNMOutputD0Ev@Base 1.0.4+dfsg0
 _ZN11OpenImageIO4v1_09PNMOutputD1Ev@Base 1.0.4+dfsg0
 _ZN11OpenImageIO4v1_09PNMOutputD2Ev@Base 1.0.4+dfsg0
 _ZN11OpenImageIO4v1_09PSDOutput14write_scanlineEiiNS0_8TypeDescEPKvi@Base 1.0.4+dfsg0
 _ZN11OpenImageIO4v1_09PSDOutput4openERKSsRKNS0_9ImageSpecENS0_11ImageOutput8OpenModeE@Base 1.0.4+dfsg0
 _ZN11OpenImageIO4v1_09PSDOutput5closeEv@Base 1.0.4+dfsg0
 _ZN11OpenImageIO4v1_09PSDOutputC1Ev@Base 1.0.4+dfsg0
 _ZN11OpenImageIO4v1_09PSDOutputC2Ev@Base 1.0.4+dfsg0
 _ZN11OpenImageIO4v1_09PSDOutputD0Ev@Base 1.0.4+dfsg0
 _ZN11OpenImageIO4v1_09PSDOutputD1Ev@Base 1.0.4+dfsg0
 _ZN11OpenImageIO4v1_09PSDOutputD2Ev@Base 1.0.4+dfsg0
 _ZN11OpenImageIO4v1_09PtexInput13seek_subimageEiiRNS0_9ImageSpecE@Base 1.0.4+dfsg0
 _ZN11OpenImageIO4v1_09PtexInput16read_native_tileEiiiPv@Base 1.0.4+dfsg0
 _ZN11OpenImageIO4v1_09PtexInput20read_native_scanlineEiiPv@Base 1.0.4+dfsg0
 _ZN11OpenImageIO4v1_09PtexInput4openERKSsRNS0_9ImageSpecE@Base 1.0.4+dfsg0
 _ZN11OpenImageIO4v1_09PtexInput5closeEv@Base 1.0.4+dfsg0
 _ZN11OpenImageIO4v1_09PtexInputD0Ev@Base 1.0.4+dfsg0
 _ZN11OpenImageIO4v1_09PtexInputD1Ev@Base 1.0.4+dfsg0
 _ZN11OpenImageIO4v1_09PtexInputD2Ev@Base 1.0.4+dfsg0
 _ZN11OpenImageIO4v1_09RLAOutput14encode_channelEPKhiNS0_8TypeDescEi@Base 1.0.4+dfsg0
 _ZN11OpenImageIO4v1_09RLAOutput14write_scanlineEiiNS0_8TypeDescEPKvi@Base 1.0.4+dfsg0
 _ZN11OpenImageIO4v1_09RLAOutput4openERKSsRKNS0_9ImageSpecENS0_11ImageOutput8OpenModeE@Base 1.0.4+dfsg0
 _ZN11OpenImageIO4v1_09RLAOutput5closeEv@Base 1.0.4+dfsg0
 _ZN11OpenImageIO4v1_09RLAOutput5writeINS0_7RLA_pvt9RLAHeaderEEEbPKT_j@Base 1.0.4+dfsg0
 _ZN11OpenImageIO4v1_09RLAOutput5writeIhEEbPKT_j@Base 1.0.4+dfsg0
 _ZN11OpenImageIO4v1_09RLAOutput5writeIjEEbPKT_j@Base 1.0.4+dfsg0
 _ZN11OpenImageIO4v1_09RLAOutput5writeItEEbPKT_j@Base 1.0.4+dfsg0
 _ZN11OpenImageIO4v1_09RLAOutputC1Ev@Base 1.0.4+dfsg0
 _ZN11OpenImageIO4v1_09RLAOutputC2Ev@Base 1.0.4+dfsg0
 _ZN11OpenImageIO4v1_09RLAOutputD0Ev@Base 1.0.4+dfsg0
 _ZN11OpenImageIO4v1_09RLAOutputD1Ev@Base 1.0.4+dfsg0
 _ZN11OpenImageIO4v1_09RLAOutputD2Ev@Base 1.0.4+dfsg0
 _ZN11OpenImageIO4v1_09SgiOutput14write_scanlineEiiNS0_8TypeDescEPKvi@Base 1.0.4+dfsg0
 _ZN11OpenImageIO4v1_09SgiOutput23create_and_write_headerEv@Base 1.0.4+dfsg0
 _ZN11OpenImageIO4v1_09SgiOutput4openERKSsRKNS0_9ImageSpecENS0_11ImageOutput8OpenModeE@Base 1.0.4+dfsg0
 _ZN11OpenImageIO4v1_09SgiOutput5closeEv@Base 1.0.4+dfsg0
 _ZN11OpenImageIO4v1_09SgiOutputD0Ev@Base 1.0.4+dfsg0
 _ZN11OpenImageIO4v1_09SgiOutputD1Ev@Base 1.0.4+dfsg0
 _ZN11OpenImageIO4v1_09SgiOutputD2Ev@Base 1.0.4+dfsg0
 _ZN11OpenImageIO4v1_09StringMap4initEv@Base 1.0.4+dfsg0
 _ZN11OpenImageIO4v1_09StringMapC1Ev@Base 1.0.4+dfsg0
 _ZN11OpenImageIO4v1_09StringMapC2Ev@Base 1.0.4+dfsg0
 _ZN11OpenImageIO4v1_09StringMapD1Ev@Base 1.0.4+dfsg0
 _ZN11OpenImageIO4v1_09StringMapD2Ev@Base 1.0.4+dfsg0
 _ZN11OpenImageIO4v1_09TGAOutput14write_scanlineEiiNS0_8TypeDescEPKvi@Base 1.0.4+dfsg0
 _ZN11OpenImageIO4v1_09TGAOutput4openERKSsRKNS0_9ImageSpecENS0_11ImageOutput8OpenModeE@Base 1.0.4+dfsg0
 _ZN11OpenImageIO4v1_09TGAOutput5closeEv@Base 1.0.4+dfsg0
 _ZN11OpenImageIO4v1_09TGAOutputC1Ev@Base 1.0.4+dfsg0
 _ZN11OpenImageIO4v1_09TGAOutputC2Ev@Base 1.0.4+dfsg0
 _ZN11OpenImageIO4v1_09TGAOutputD0Ev@Base 1.0.4+dfsg0
 _ZN11OpenImageIO4v1_09TGAOutputD1Ev@Base 1.0.4+dfsg0
 _ZN11OpenImageIO4v1_09TGAOutputD2Ev@Base 1.0.4+dfsg0
 _ZN11OpenImageIO4v1_09TIFFInput11bit_convertEiPKhiPvi@Base 1.0.4+dfsg0
 _ZN11OpenImageIO4v1_09TIFFInput13seek_subimageEiiRNS0_9ImageSpecE@Base 1.0.4+dfsg0
 _ZN11OpenImageIO4v1_09TIFFInput14palette_to_rgbEiPKhPh@Base 1.0.4+dfsg0
 _ZN11OpenImageIO4v1_09TIFFInput16read_native_tileEiiiPv@Base 1.0.4+dfsg0
 _ZN11OpenImageIO4v1_09TIFFInput18invert_photometricEiPv@Base 1.0.4+dfsg0
 _ZN11OpenImageIO4v1_09TIFFInput18separate_to_contigEiPKhPh@Base 1.0.4+dfsg0
 _ZN11OpenImageIO4v1_09TIFFInput20read_native_scanlineEiiPv@Base 1.0.4+dfsg0
 _ZN11OpenImageIO4v1_09TIFFInput24unassalpha_to_assocalphaEiPv@Base 1.0.4+dfsg0
 _ZN11OpenImageIO4v1_09TIFFInput4openERKSsRNS0_9ImageSpecE@Base 1.0.4+dfsg0
 _ZN11OpenImageIO4v1_09TIFFInput4openERKSsRNS0_9ImageSpecERKS4_@Base 1.0.4+dfsg0
 _ZN11OpenImageIO4v1_09TIFFInput5closeEv@Base 1.0.4+dfsg0
 _ZN11OpenImageIO4v1_09TIFFInput8readspecEv@Base 1.0.4+dfsg0
 _ZN11OpenImageIO4v1_09TIFFInputD0Ev@Base 1.0.4+dfsg0
 _ZN11OpenImageIO4v1_09TIFFInputD1Ev@Base 1.0.4+dfsg0
 _ZN11OpenImageIO4v1_09TIFFInputD2Ev@Base 1.0.4+dfsg0
 _ZN11OpenImageIO4v1_09attributeERKSsNS0_8TypeDescEPKv@Base 1.0.4+dfsg0
 _ZN11OpenImageIO4v1_09optparserINS0_3pvt14ImageCacheImplEEEbRT_RKSs@Base 1.0.4+dfsg0
 _ZN11OpenImageIO4v1_09optparserINS0_3pvt17TextureSystemImplEEEbRT_RKSs@Base 1.0.4+dfsg0
 _ZN11OpenImageIO4v1_0neERKNS0_8TypeDescENS1_8BASETYPEE@Base 1.0.4+dfsg0
 _ZN11PtexHashMapIN10PtexReader12ReductionKeyEPNS0_8FaceDataENS1_6HasherEE5clearEv@Base 1.0.4+dfsg0
 _ZN11PtexHashMapIN10PtexReader12ReductionKeyEPNS0_8FaceDataENS1_6HasherEEixERKS1_@Base 1.0.4+dfsg0
 _ZN11PtexLruItemD0Ev@Base 1.0.4+dfsg0
 _ZN11PtexLruItemD1Ev@Base 1.0.4+dfsg0
 _ZN11PtexLruItemD2Ev@Base 1.0.4+dfsg0
 _ZN11PtexLruListD1Ev@Base 1.0.4+dfsg0
 _ZN11PtexLruListD2Ev@Base 1.0.4+dfsg0
 _ZN11PtexTexture4openEPKcRSsb@Base 1.0.4+dfsg0
 _ZN11PtexTextureD0Ev@Base 1.0.4+dfsg0
 _ZN11PtexTextureD1Ev@Base 1.0.4+dfsg0
 _ZN11PtexTextureD2Ev@Base 1.0.4+dfsg0
 _ZN12PtexFaceDataD0Ev@Base 1.0.4+dfsg0
 _ZN12PtexFaceDataD1Ev@Base 1.0.4+dfsg0
 _ZN12PtexFaceDataD2Ev@Base 1.0.4+dfsg0
 _ZN12PtexInternal6_MutexD1Ev@Base 1.0.4+dfsg0
 _ZN12PtexInternal6_MutexD2Ev@Base 1.0.4+dfsg0
 _ZN12PtexInternal8AutoLockINS_6_MutexEED1Ev@Base 1.0.4+dfsg0
 _ZN12PtexInternal8AutoLockINS_6_MutexEED2Ev@Base 1.0.4+dfsg0
 _ZN12PtexInternal8AutoLockINS_9_SpinLockEED1Ev@Base 1.0.4+dfsg0
 _ZN12PtexInternal8AutoLockINS_9_SpinLockEED2Ev@Base 1.0.4+dfsg0
 _ZN12PtexMetaDataD0Ev@Base 1.0.4+dfsg0
 _ZN12PtexMetaDataD1Ev@Base 1.0.4+dfsg0
 _ZN12PtexMetaDataD2Ev@Base 1.0.4+dfsg0
 _ZN13PtexCacheImpl10removeDataEi@Base 1.0.4+dfsg0
 _ZN13PtexCacheImpl10removeFileEv@Base 1.0.4+dfsg0
 _ZN13PtexCacheImpl12setDataInUseEP11PtexLruItemi@Base 1.0.4+dfsg0
 _ZN13PtexCacheImpl12setFileInUseEP11PtexLruItem@Base 1.0.4+dfsg0
 _ZN13PtexCacheImpl13setDataUnusedEP11PtexLruItemi@Base 1.0.4+dfsg0
 _ZN13PtexCacheImpl13setFileUnusedEP11PtexLruItem@Base 1.0.4+dfsg0
 _ZN13PtexCacheImpl7releaseEv@Base 1.0.4+dfsg0
 _ZN13PtexCacheImplD0Ev@Base 1.0.4+dfsg0
 _ZN13PtexCacheImplD1Ev@Base 1.0.4+dfsg0
 _ZN13PtexCacheImplD2Ev@Base 1.0.4+dfsg0
 _ZN14PtexCachedDataD0Ev@Base 1.0.4+dfsg0
 _ZN14PtexCachedDataD1Ev@Base 1.0.4+dfsg0
 _ZN14PtexCachedDataD2Ev@Base 1.0.4+dfsg0
 _ZN14PtexCachedFileD0Ev@Base 1.0.4+dfsg0
 _ZN14PtexCachedFileD1Ev@Base 1.0.4+dfsg0
 _ZN14PtexCachedFileD2Ev@Base 1.0.4+dfsg0
 _ZN14PtexIncrWriter17writeConstantFaceEiRKN4Ptex8FaceInfoEPKv@Base 1.0.4+dfsg0
 _ZN14PtexIncrWriter17writeMetaDataEditEv@Base 1.0.4+dfsg0
 _ZN14PtexIncrWriter5closeERSs@Base 1.0.4+dfsg0
 _ZN14PtexIncrWriter6finishEv@Base 1.0.4+dfsg0
 _ZN14PtexIncrWriter9writeFaceEiRKN4Ptex8FaceInfoEPKvi@Base 1.0.4+dfsg0
 _ZN14PtexIncrWriterC1EPKcP8_IO_FILEN4Ptex8MeshTypeENS4_8DataTypeEiii@Base 1.0.4+dfsg0
 _ZN14PtexIncrWriterC2EPKcP8_IO_FILEN4Ptex8MeshTypeENS4_8DataTypeEiii@Base 1.0.4+dfsg0
 _ZN14PtexIncrWriterD0Ev@Base 1.0.4+dfsg0
 _ZN14PtexIncrWriterD1Ev@Base 1.0.4+dfsg0
 _ZN14PtexIncrWriterD2Ev@Base 1.0.4+dfsg0
 _ZN14PtexMainWriter11addMetaDataEPKcN4Ptex12MetaDataTypeEPKvi@Base 1.0.4+dfsg0
 _ZN14PtexMainWriter13writeMetaDataEP8_IO_FILE@Base 1.0.4+dfsg0
 _ZN14PtexMainWriter15storeConstValueEiPKviN4Ptex3ResE@Base 1.0.4+dfsg0
 _ZN14PtexMainWriter17writeConstantFaceEiRKN4Ptex8FaceInfoEPKv@Base 1.0.4+dfsg0
 _ZN14PtexMainWriter18generateReductionsEv@Base 1.0.4+dfsg0
 _ZN14PtexMainWriter24flagConstantNeighorhoodsEv@Base 1.0.4+dfsg0
 _ZN14PtexMainWriter5closeERSs@Base 1.0.4+dfsg0
 _ZN14PtexMainWriter6finishEv@Base 1.0.4+dfsg0
 _ZN14PtexMainWriter8LevelRecD1Ev@Base 1.0.4+dfsg0
 _ZN14PtexMainWriter8LevelRecD2Ev@Base 1.0.4+dfsg0
 _ZN14PtexMainWriter9writeFaceEiRKN4Ptex8FaceInfoEPKvi@Base 1.0.4+dfsg0
 _ZN14PtexMainWriterC1EPKcP11PtexTextureN4Ptex8MeshTypeENS4_8DataTypeEiiib@Base 1.0.4+dfsg0
 _ZN14PtexMainWriterC2EPKcP11PtexTextureN4Ptex8MeshTypeENS4_8DataTypeEiiib@Base 1.0.4+dfsg0
 _ZN14PtexMainWriterD0Ev@Base 1.0.4+dfsg0
 _ZN14PtexMainWriterD1Ev@Base 1.0.4+dfsg0
 _ZN14PtexMainWriterD2Ev@Base 1.0.4+dfsg0
 _ZN14PtexWriterBase10writeBlankEP8_IO_FILEi@Base 1.0.4+dfsg0
 _ZN14PtexWriterBase10writeBlockEP8_IO_FILEPKvi@Base 1.0.4+dfsg0
 _ZN14PtexWriterBase11addMetaDataEPKcN4Ptex12MetaDataTypeEPKvi@Base 1.0.4+dfsg0
 _ZN14PtexWriterBase11calcTileResEN4Ptex3ResE@Base 1.0.4+dfsg0
 _ZN14PtexWriterBase13storeFaceInfoEiRN4Ptex8FaceInfoERKS1_i@Base 1.0.4+dfsg0
 _ZN14PtexWriterBase13writeFaceDataEP8_IO_FILEPKviN4Ptex3ResERN6PtexIO14FaceDataHeaderE@Base 1.0.4+dfsg0
 _ZN14PtexWriterBase13writeZipBlockEP8_IO_FILEPKvib@Base 1.0.4+dfsg0
 _ZN14PtexWriterBase14setBorderModesEN4Ptex10BorderModeES1_@Base 1.0.4+dfsg0
 _ZN14PtexWriterBase14writeFaceBlockEP8_IO_FILEPKviN4Ptex3ResERN6PtexIO14FaceDataHeaderE@Base 1.0.4+dfsg0
 _ZN14PtexWriterBase14writeReductionEP8_IO_FILEPKviN4Ptex3ResE@Base 1.0.4+dfsg0
 _ZN14PtexWriterBase18writeMetaDataBlockEP8_IO_FILERNS_9MetaEntryE@Base 1.0.4+dfsg0
 _ZN14PtexWriterBase19writeConstFaceBlockEP8_IO_FILEPKvRN6PtexIO14FaceDataHeaderE@Base 1.0.4+dfsg0
 _ZN14PtexWriterBase5closeERSs@Base 1.0.4+dfsg0
 _ZN14PtexWriterBase7releaseEv@Base 1.0.4+dfsg0
 _ZN14PtexWriterBase8getErrorERSs@Base 1.0.4+dfsg0
 _ZN14PtexWriterBase9MetaEntryD1Ev@Base 1.0.4+dfsg0
 _ZN14PtexWriterBase9MetaEntryD2Ev@Base 1.0.4+dfsg0
 _ZN14PtexWriterBase9copyBlockEP8_IO_FILES1_xi@Base 1.0.4+dfsg0
 _ZN14PtexWriterBase9readBlockEP8_IO_FILEPvi@Base 1.0.4+dfsg0
 _ZN14PtexWriterBase9writeMetaEP12PtexMetaData@Base 1.0.4+dfsg0
 _ZN14PtexWriterBase9writeMetaEPKcPKai@Base 1.0.4+dfsg0
 _ZN14PtexWriterBase9writeMetaEPKcPKdi@Base 1.0.4+dfsg0
 _ZN14PtexWriterBase9writeMetaEPKcPKfi@Base 1.0.4+dfsg0
 _ZN14PtexWriterBase9writeMetaEPKcPKii@Base 1.0.4+dfsg0
 _ZN14PtexWriterBase9writeMetaEPKcPKsi@Base 1.0.4+dfsg0
 _ZN14PtexWriterBase9writeMetaEPKcS1_@Base 1.0.4+dfsg0
 _ZN14PtexWriterBaseC1EPKcN4Ptex8MeshTypeENS2_8DataTypeEiiib@Base 1.0.4+dfsg0
 _ZN14PtexWriterBaseC2EPKcN4Ptex8MeshTypeENS2_8DataTypeEiiib@Base 1.0.4+dfsg0
 _ZN14PtexWriterBaseD0Ev@Base 1.0.4+dfsg0
 _ZN14PtexWriterBaseD1Ev@Base 1.0.4+dfsg0
 _ZN14PtexWriterBaseD2Ev@Base 1.0.4+dfsg0
 _ZN15PtexReaderCache13getSearchPathEv@Base 1.0.4+dfsg0
 _ZN15PtexReaderCache13setSearchPathEPKc@Base 1.0.4+dfsg0
 _ZN15PtexReaderCache18removeBlankEntriesEv@Base 1.0.4+dfsg0
 _ZN15PtexReaderCache3getEPKcRSs@Base 1.0.4+dfsg0
 _ZN15PtexReaderCache5purgeEP11PtexTexture@Base 1.0.4+dfsg0
 _ZN15PtexReaderCache5purgeEPKc@Base 1.0.4+dfsg0
 _ZN15PtexReaderCache8purgeAllEv@Base 1.0.4+dfsg0
 _ZN15PtexReaderCacheD0Ev@Base 1.0.4+dfsg0
 _ZN15PtexReaderCacheD1Ev@Base 1.0.4+dfsg0
 _ZN15PtexReaderCacheD2Ev@Base 1.0.4+dfsg0
 _ZN16PtexInputHandlerD0Ev@Base 1.0.4+dfsg0
 _ZN16PtexInputHandlerD1Ev@Base 1.0.4+dfsg0
 _ZN16PtexInputHandlerD2Ev@Base 1.0.4+dfsg0
 _ZN18PtexTriangleFilter11buildKernelER18PtexTriangleKernelffffffffN4Ptex3ResE@Base 1.0.4+dfsg0
 _ZN18PtexTriangleFilter13splitAndApplyER18PtexTriangleKerneliRKN4Ptex8FaceInfoE@Base 1.0.4+dfsg0
 _ZN18PtexTriangleFilter15applyAcrossEdgeER18PtexTriangleKernelRKN4Ptex8FaceInfoEi@Base 1.0.4+dfsg0
 _ZN18PtexTriangleFilter4evalEPfiiiffffffff@Base 1.0.4+dfsg0
 _ZN18PtexTriangleFilter5applyER18PtexTriangleKerneliRKN4Ptex8FaceInfoE@Base 1.0.4+dfsg0
 _ZN18PtexTriangleFilter7releaseEv@Base 1.0.4+dfsg0
 _ZN18PtexTriangleFilter9applyIterER22PtexTriangleKernelIterP12PtexFaceData@Base 1.0.4+dfsg0
 _ZN18PtexTriangleFilterD0Ev@Base 1.0.4+dfsg0
 _ZN18PtexTriangleFilterD1Ev@Base 1.0.4+dfsg0
 _ZN18PtexTriangleFilterD2Ev@Base 1.0.4+dfsg0
 _ZN19PtexSeparableFilter13applyToCornerER19PtexSeparableKerneliRKN4Ptex8FaceInfoEi@Base 1.0.4+dfsg0
 _ZN19PtexSeparableFilter13splitAndApplyER19PtexSeparableKerneliRKN4Ptex8FaceInfoE@Base 1.0.4+dfsg0
 _ZN19PtexSeparableFilter15applyAcrossEdgeER19PtexSeparableKerneliRKN4Ptex8FaceInfoEi@Base 1.0.4+dfsg0
 _ZN19PtexSeparableFilter17applyToCornerFaceER19PtexSeparableKernelRKN4Ptex8FaceInfoEiiS5_i@Base 1.0.4+dfsg0
 _ZN19PtexSeparableFilter4evalEPfiiiffffffff@Base 1.0.4+dfsg0
 _ZN19PtexSeparableFilter5applyER19PtexSeparableKerneliRKN4Ptex8FaceInfoE@Base 1.0.4+dfsg0
 _ZN19PtexSeparableFilter7releaseEv@Base 1.0.4+dfsg0
 _ZN19PtexSeparableFilterD0Ev@Base 1.0.4+dfsg0
 _ZN19PtexSeparableFilterD1Ev@Base 1.0.4+dfsg0
 _ZN19PtexSeparableFilterD2Ev@Base 1.0.4+dfsg0
 _ZN19PtexSeparableKernel14applyFunctionsE@Base 1.0.4+dfsg0
 _ZN22PtexTriangleKernelIter10applyConstEPdPvN4Ptex8DataTypeEi@Base 1.0.4+dfsg0
 _ZN22PtexTriangleKernelIter14applyFunctionsE@Base 1.0.4+dfsg0
 _ZN3Iex7MathExcD0Ev@Base 1.0.4+dfsg0
 _ZN3Iex7MathExcD1Ev@Base 1.0.4+dfsg0
 _ZN3Iex7MathExcD2Ev@Base 1.0.4+dfsg0
 _ZN3Iex7TypeExcC1EPKc@Base 1.0.4+dfsg0
 _ZN3Iex7TypeExcC2EPKc@Base 1.0.4+dfsg0
 _ZN3Iex7TypeExcD0Ev@Base 1.0.4+dfsg0
 _ZN3Iex7TypeExcD1Ev@Base 1.0.4+dfsg0
 _ZN3Iex7TypeExcD2Ev@Base 1.0.4+dfsg0
 _ZN3Imf11FrameBufferD1Ev@Base 1.0.4+dfsg0
 _ZN3Imf11FrameBufferD2Ev@Base 1.0.4+dfsg0
 _ZN3Imf14TypedAttributeIN5Imath4Vec3IfEEE13copyValueFromERKNS_9AttributeE@Base 1.0.4+dfsg0
 _ZN3Imf14TypedAttributeIN5Imath4Vec3IfEEED0Ev@Base 1.0.4+dfsg0
 _ZN3Imf14TypedAttributeIN5Imath4Vec3IfEEED1Ev@Base 1.0.4+dfsg0
 _ZN3Imf14TypedAttributeIN5Imath4Vec3IfEEED2Ev@Base 1.0.4+dfsg0
 _ZN3Imf14TypedAttributeIN5Imath8Matrix44IfEEE13copyValueFromERKNS_9AttributeE@Base 1.0.4+dfsg0
 _ZN3Imf14TypedAttributeIN5Imath8Matrix44IfEEEC1ERKS3_@Base 1.0.4+dfsg0
 _ZN3Imf14TypedAttributeIN5Imath8Matrix44IfEEEC2ERKS3_@Base 1.0.4+dfsg0
 _ZN3Imf14TypedAttributeIN5Imath8Matrix44IfEEED0Ev@Base 1.0.4+dfsg0
 _ZN3Imf14TypedAttributeIN5Imath8Matrix44IfEEED1Ev@Base 1.0.4+dfsg0
 _ZN3Imf14TypedAttributeIN5Imath8Matrix44IfEEED2Ev@Base 1.0.4+dfsg0
 _ZN3Imf14TypedAttributeINS_6EnvmapEE13copyValueFromERKNS_9AttributeE@Base 1.0.4+dfsg0
 _ZN3Imf14TypedAttributeINS_6EnvmapEED0Ev@Base 1.0.4+dfsg0
 _ZN3Imf14TypedAttributeINS_6EnvmapEED1Ev@Base 1.0.4+dfsg0
 _ZN3Imf14TypedAttributeINS_6EnvmapEED2Ev@Base 1.0.4+dfsg0
 _ZN3Imf14TypedAttributeISsE13copyValueFromERKNS_9AttributeE@Base 1.0.4+dfsg0
 _ZN3Imf14TypedAttributeISsED0Ev@Base 1.0.4+dfsg0
 _ZN3Imf14TypedAttributeISsED1Ev@Base 1.0.4+dfsg0
 _ZN3Imf14TypedAttributeISsED2Ev@Base 1.0.4+dfsg0
 _ZN3Imf14TypedAttributeIfE13copyValueFromERKNS_9AttributeE@Base 1.0.4+dfsg0
 _ZN3Imf14TypedAttributeIfE13readValueFromERNS_7IStreamEii@Base 1.0.4+dfsg0
 _ZN3Imf14TypedAttributeIfED0Ev@Base 1.0.4+dfsg0
 _ZN3Imf14TypedAttributeIfED1Ev@Base 1.0.4+dfsg0
 _ZN3Imf14TypedAttributeIfED2Ev@Base 1.0.4+dfsg0
 _ZN3Imf14TypedAttributeIiE13copyValueFromERKNS_9AttributeE@Base 1.0.4+dfsg0
 _ZN3Imf14TypedAttributeIiE13readValueFromERNS_7IStreamEii@Base 1.0.4+dfsg0
 _ZN3Imf14TypedAttributeIiED0Ev@Base 1.0.4+dfsg0
 _ZN3Imf14TypedAttributeIiED1Ev@Base 1.0.4+dfsg0
 _ZN3Imf14TypedAttributeIiED2Ev@Base 1.0.4+dfsg0
 _ZN3dpx10ReadPackedINS_17ElementReadStreamEdLj65472ELi2ELi4ELi6EEEbRKNS_6HeaderEPjPT_iRKNS_5BlockEPT0_@Base 1.0.4+dfsg0
 _ZN3dpx10ReadPackedINS_17ElementReadStreamEdLj65520ELi4ELi2ELi4EEEbRKNS_6HeaderEPjPT_iRKNS_5BlockEPT0_@Base 1.0.4+dfsg0
 _ZN3dpx10ReadPackedINS_17ElementReadStreamEfLj65472ELi2ELi4ELi6EEEbRKNS_6HeaderEPjPT_iRKNS_5BlockEPT0_@Base 1.0.4+dfsg0
 _ZN3dpx10ReadPackedINS_17ElementReadStreamEfLj65520ELi4ELi2ELi4EEEbRKNS_6HeaderEPjPT_iRKNS_5BlockEPT0_@Base 1.0.4+dfsg0
 _ZN3dpx10ReadPackedINS_17ElementReadStreamEhLj65472ELi2ELi4ELi6EEEbRKNS_6HeaderEPjPT_iRKNS_5BlockEPT0_@Base 1.0.4+dfsg0
 _ZN3dpx10ReadPackedINS_17ElementReadStreamEhLj65520ELi4ELi2ELi4EEEbRKNS_6HeaderEPjPT_iRKNS_5BlockEPT0_@Base 1.0.4+dfsg0
 _ZN3dpx10ReadPackedINS_17ElementReadStreamEjLj65472ELi2ELi4ELi6EEEbRKNS_6HeaderEPjPT_iRKNS_5BlockEPT0_@Base 1.0.4+dfsg0
 _ZN3dpx10ReadPackedINS_17ElementReadStreamEjLj65520ELi4ELi2ELi4EEEbRKNS_6HeaderEPjPT_iRKNS_5BlockEPT0_@Base 1.0.4+dfsg0
 _ZN3dpx10ReadPackedINS_17ElementReadStreamEtLj65472ELi2ELi4ELi6EEEbRKNS_6HeaderEPjPT_iRKNS_5BlockEPT0_@Base 1.0.4+dfsg0
 _ZN3dpx10ReadPackedINS_17ElementReadStreamEtLj65520ELi4ELi2ELi4EEEbRKNS_6HeaderEPjPT_iRKNS_5BlockEPT0_@Base 1.0.4+dfsg0
 _ZN3dpx11WriteBufferIhLi8ELb0EEEiP9OutStreamNS_8DataSizeEPvjjiNS_7PackingEbbiPcRbb@Base 1.0.4+dfsg0
 _ZN3dpx11WriteBufferItLi10ELb0EEEiP9OutStreamNS_8DataSizeEPvjjiNS_7PackingEbbiPcRbb@Base 1.0.4+dfsg0
 _ZN3dpx11WriteBufferItLi10ELb1EEEiP9OutStreamNS_8DataSizeEPvjjiNS_7PackingEbbiPcRbb@Base 1.0.4+dfsg0
 _ZN3dpx11WriteBufferItLi12ELb0EEEiP9OutStreamNS_8DataSizeEPvjjiNS_7PackingEbbiPcRbb@Base 1.0.4+dfsg0
 _ZN3dpx11WriteBufferItLi12ELb1EEEiP9OutStreamNS_8DataSizeEPvjjiNS_7PackingEbbiPcRbb@Base 1.0.4+dfsg0
 _ZN3dpx11WriteBufferItLi16ELb0EEEiP9OutStreamNS_8DataSizeEPvjjiNS_7PackingEbbiPcRbb@Base 1.0.4+dfsg0
 _ZN3dpx12ConvertToRGBERKNS_6HeaderEiPKvPv@Base 1.0.4+dfsg0
 _ZN3dpx12ConvertToRGBERKNS_6HeaderEiPKvPvRKNS_5BlockE@Base 1.0.4+dfsg0
 _ZN3dpx12IdentifyFileEP8InStream@Base 1.0.4+dfsg0
 _ZN3dpx12IdentifyFileEPKv@Base 1.0.4+dfsg0
 _ZN3dpx12ImageElementC1Ev@Base 1.0.4+dfsg0
 _ZN3dpx12ImageElementC2Ev@Base 1.0.4+dfsg0
 _ZN3dpx13GenericHeader17DataSizeByteCountENS_8DataSizeE@Base 1.0.4+dfsg0
 _ZN3dpx13GenericHeader17SetSourceTimeDateEl@Base 1.0.4+dfsg0
 _ZN3dpx13GenericHeader19SetCreationTimeDateEl@Base 1.0.4+dfsg0
 _ZN3dpx13GenericHeader25CalculateNumberOfElementsEv@Base 1.0.4+dfsg0
 _ZN3dpx13GenericHeader5ResetEv@Base 1.0.4+dfsg0
 _ZN3dpx13GenericHeaderC1Ev@Base 1.0.4+dfsg0
 _ZN3dpx13GenericHeaderC2Ev@Base 1.0.4+dfsg0
 _ZN3dpx14IndustryHeader11SetTimeCodeEPKc@Base 1.0.4+dfsg0
 _ZN3dpx14IndustryHeader11SetUserBitsEPKc@Base 1.0.4+dfsg0
 _ZN3dpx14IndustryHeader15SetFileEdgeCodeEPKc@Base 1.0.4+dfsg0
 _ZN3dpx14IndustryHeader5ResetEv@Base 1.0.4+dfsg0
 _ZN3dpx14IndustryHeaderC1Ev@Base 1.0.4+dfsg0
 _ZN3dpx14IndustryHeaderC2Ev@Base 1.0.4+dfsg0
 _ZN3dpx14ReadBlockTypesINS_17ElementReadStreamEtLNS_8DataSizeE1EdLS2_4EEEbRKNS_6HeaderEPT0_PT_iRKNS_5BlockEPT2_@Base 1.0.4+dfsg0
 _ZN3dpx14ReadBlockTypesINS_17ElementReadStreamEtLNS_8DataSizeE1EfLS2_3EEEbRKNS_6HeaderEPT0_PT_iRKNS_5BlockEPT2_@Base 1.0.4+dfsg0
 _ZN3dpx14ReadBlockTypesINS_17ElementReadStreamEtLNS_8DataSizeE1EhLS2_0EEEbRKNS_6HeaderEPT0_PT_iRKNS_5BlockEPT2_@Base 1.0.4+dfsg0
 _ZN3dpx14ReadBlockTypesINS_17ElementReadStreamEtLNS_8DataSizeE1EjLS2_2EEEbRKNS_6HeaderEPT0_PT_iRKNS_5BlockEPT2_@Base 1.0.4+dfsg0
 _ZN3dpx14ReadBlockTypesINS_17ElementReadStreamEtLNS_8DataSizeE1EtLS2_1EEEbRKNS_6HeaderEPT0_PT_iRKNS_5BlockEPT2_@Base 1.0.4+dfsg0
 _ZN3dpx14ReadImageBlockINS_17ElementReadStreamEdLNS_8DataSizeE4EEEbRKNS_6HeaderEPjPT_iRKNS_5BlockEPT0_@Base 1.0.4+dfsg0
 _ZN3dpx14ReadImageBlockINS_17ElementReadStreamEfLNS_8DataSizeE3EEEbRKNS_6HeaderEPjPT_iRKNS_5BlockEPT0_@Base 1.0.4+dfsg0
 _ZN3dpx14ReadImageBlockINS_17ElementReadStreamEhLNS_8DataSizeE0EEEbRKNS_6HeaderEPjPT_iRKNS_5BlockEPT0_@Base 1.0.4+dfsg0
 _ZN3dpx14ReadImageBlockINS_17ElementReadStreamEjLNS_8DataSizeE2EEEbRKNS_6HeaderEPjPT_iRKNS_5BlockEPT0_@Base 1.0.4+dfsg0
 _ZN3dpx14ReadImageBlockINS_17ElementReadStreamEtLNS_8DataSizeE1EEEbRKNS_6HeaderEPjPT_iRKNS_5BlockEPT0_@Base 1.0.4+dfsg0
 _ZN3dpx15ConvertToNativeENS_10DescriptorENS_8DataSizeENS_14CharacteristicEPKvPvRKNS_5BlockE@Base 1.0.4+dfsg0
 _ZN3dpx15ConvertToNativeENS_10DescriptorENS_8DataSizeENS_14CharacteristicEiiPKvPv@Base 1.0.4+dfsg0
 _ZN3dpx15CopyWriteBufferIdEEvNS_8DataSizeEPhPT_i@Base 1.0.4+dfsg0
 _ZN3dpx15CopyWriteBufferIfEEvNS_8DataSizeEPhPT_i@Base 1.0.4+dfsg0
 _ZN3dpx15Read10bitFilledINS_17ElementReadStreamEdLi0EEEbRKNS_6HeaderEPjPT_iRKNS_5BlockEPT0_@Base 1.0.4+dfsg0
 _ZN3dpx15Read10bitFilledINS_17ElementReadStreamEdLi2EEEbRKNS_6HeaderEPjPT_iRKNS_5BlockEPT0_@Base 1.0.4+dfsg0
 _ZN3dpx15Read10bitFilledINS_17ElementReadStreamEfLi0EEEbRKNS_6HeaderEPjPT_iRKNS_5BlockEPT0_@Base 1.0.4+dfsg0
 _ZN3dpx15Read10bitFilledINS_17ElementReadStreamEfLi2EEEbRKNS_6HeaderEPjPT_iRKNS_5BlockEPT0_@Base 1.0.4+dfsg0
 _ZN3dpx15Read10bitFilledINS_17ElementReadStreamEhLi0EEEbRKNS_6HeaderEPjPT_iRKNS_5BlockEPT0_@Base 1.0.4+dfsg0
 _ZN3dpx15Read10bitFilledINS_17ElementReadStreamEhLi2EEEbRKNS_6HeaderEPjPT_iRKNS_5BlockEPT0_@Base 1.0.4+dfsg0
 _ZN3dpx15Read10bitFilledINS_17ElementReadStreamEjLi0EEEbRKNS_6HeaderEPjPT_iRKNS_5BlockEPT0_@Base 1.0.4+dfsg0
 _ZN3dpx15Read10bitFilledINS_17ElementReadStreamEjLi2EEEbRKNS_6HeaderEPjPT_iRKNS_5BlockEPT0_@Base 1.0.4+dfsg0
 _ZN3dpx15Read10bitFilledINS_17ElementReadStreamEtLi0EEEbRKNS_6HeaderEPjPT_iRKNS_5BlockEPT0_@Base 1.0.4+dfsg0
 _ZN3dpx15Read10bitFilledINS_17ElementReadStreamEtLi2EEEbRKNS_6HeaderEPjPT_iRKNS_5BlockEPT0_@Base 1.0.4+dfsg0
 _ZN3dpx15systemByteOrderE@Base 1.0.4+dfsg0
 _ZN3dpx16EndianBufferSwapEiNS_7PackingEPvj@Base 1.0.4+dfsg0
 _ZN3dpx17ElementReadStream10ReadDirectERKNS_6HeaderEilPvj@Base 1.0.4+dfsg0
 _ZN3dpx17ElementReadStream15EndianDataCheckERKNS_6HeaderEiPvj@Base 1.0.4+dfsg0
 _ZN3dpx17ElementReadStream4ReadERKNS_6HeaderEilPvj@Base 1.0.4+dfsg0
 _ZN3dpx17ElementReadStream5ResetEv@Base 1.0.4+dfsg0
 _ZN3dpx17ElementReadStreamC1EP8InStream@Base 1.0.4+dfsg0
 _ZN3dpx17ElementReadStreamC2EP8InStream@Base 1.0.4+dfsg0
 _ZN3dpx17ElementReadStreamD0Ev@Base 1.0.4+dfsg0
 _ZN3dpx17ElementReadStreamD1Ev@Base 1.0.4+dfsg0
 _ZN3dpx17ElementReadStreamD2Ev@Base 1.0.4+dfsg0
 _ZN3dpx17RunLengthEncoding4ReadERKNS_6HeaderEPNS_17ElementReadStreamEiRKNS_5BlockEPvNS_8DataSizeE@Base 1.0.4+dfsg0
 _ZN3dpx17RunLengthEncoding5ResetEv@Base 1.0.4+dfsg0
 _ZN3dpx17RunLengthEncodingC1Ev@Base 1.0.4+dfsg0
 _ZN3dpx17RunLengthEncodingC2Ev@Base 1.0.4+dfsg0
 _ZN3dpx17RunLengthEncodingD0Ev@Base 1.0.4+dfsg0
 _ZN3dpx17RunLengthEncodingD1Ev@Base 1.0.4+dfsg0
 _ZN3dpx17RunLengthEncodingD2Ev@Base 1.0.4+dfsg0
 _ZN3dpx18QueryRGBBufferSizeERKNS_6HeaderEi@Base 1.0.4+dfsg0
 _ZN3dpx18QueryRGBBufferSizeERKNS_6HeaderEiRKNS_5BlockE@Base 1.0.4+dfsg0
 _ZN3dpx21QueryNativeBufferSizeENS_10DescriptorENS_8DataSizeERKNS_5BlockE@Base 1.0.4+dfsg0
 _ZN3dpx21QueryNativeBufferSizeENS_10DescriptorENS_8DataSizeEii@Base 1.0.4+dfsg0
 _ZN3dpx5Codec4ReadERKNS_6HeaderEPNS_17ElementReadStreamEiRKNS_5BlockEPvNS_8DataSizeE@Base 1.0.4+dfsg0
 _ZN3dpx5Codec5ResetEv@Base 1.0.4+dfsg0
 _ZN3dpx5CodecC1Ev@Base 1.0.4+dfsg0
 _ZN3dpx5CodecC2Ev@Base 1.0.4+dfsg0
 _ZN3dpx5CodecD0Ev@Base 1.0.4+dfsg0
 _ZN3dpx5CodecD1Ev@Base 1.0.4+dfsg0
 _ZN3dpx5CodecD2Ev@Base 1.0.4+dfsg0
 _ZN3dpx6Header12SetDatumSwapEb@Base 1.0.4+dfsg0
 _ZN3dpx6Header15WriteOffsetDataEP9OutStream@Base 1.0.4+dfsg0
 _ZN3dpx6Header16CalculateOffsetsEv@Base 1.0.4+dfsg0
 _ZN3dpx6Header16ValidMagicCookieEj@Base 1.0.4+dfsg0
 _ZN3dpx6Header4ReadEP8InStream@Base 1.0.4+dfsg0
 _ZN3dpx6Header5CheckEv@Base 1.0.4+dfsg0
 _ZN3dpx6Header5ResetEv@Base 1.0.4+dfsg0
 _ZN3dpx6Header5WriteEP9OutStream@Base 1.0.4+dfsg0
 _ZN3dpx6Header8ValidateEv@Base 1.0.4+dfsg0
 _ZN3dpx6HeaderC1Ev@Base 1.0.4+dfsg0
 _ZN3dpx6HeaderC2Ev@Base 1.0.4+dfsg0
 _ZN3dpx6Reader10ReadHeaderEv@Base 1.0.4+dfsg0
 _ZN3dpx6Reader11SetInStreamEP8InStream@Base 1.0.4+dfsg0
 _ZN3dpx6Reader12ReadUserDataEPh@Base 1.0.4+dfsg0
 _ZN3dpx6Reader5ResetEv@Base 1.0.4+dfsg0
 _ZN3dpx6Reader9ReadBlockEPvNS_8DataSizeERNS_5BlockENS_10DescriptorE@Base 1.0.4+dfsg0
 _ZN3dpx6Reader9ReadBlockEiPhRNS_5BlockE@Base 1.0.4+dfsg0
 _ZN3dpx6Reader9ReadImageEPvNS_8DataSizeENS_10DescriptorE@Base 1.0.4+dfsg0
 _ZN3dpx6Reader9ReadImageEiPv@Base 1.0.4+dfsg0
 _ZN3dpx6ReaderC1Ev@Base 1.0.4+dfsg0
 _ZN3dpx6ReaderC2Ev@Base 1.0.4+dfsg0
 _ZN3dpx6ReaderD0Ev@Base 1.0.4+dfsg0
 _ZN3dpx6ReaderD1Ev@Base 1.0.4+dfsg0
 _ZN3dpx6ReaderD2Ev@Base 1.0.4+dfsg0
 _ZN3dpx6Writer10SetElementEiNS_10DescriptorEhNS_14CharacteristicES2_NS_7PackingENS_8EncodingEjjfjfjj@Base 1.0.4+dfsg0
 _ZN3dpx6Writer11SetFileInfoEPKcS2_S2_S2_S2_jb@Base 1.0.4+dfsg0
 _ZN3dpx6Writer11SetUserDataEl@Base 1.0.4+dfsg0
 _ZN3dpx6Writer11WriteHeaderEv@Base 1.0.4+dfsg0
 _ZN3dpx6Writer12SetImageInfoEjj@Base 1.0.4+dfsg0
 _ZN3dpx6Writer12SetOutStreamEP9OutStream@Base 1.0.4+dfsg0
 _ZN3dpx6Writer12WriteElementEiPv@Base 1.0.4+dfsg0
 _ZN3dpx6Writer12WriteElementEiPvNS_8DataSizeE@Base 1.0.4+dfsg0
 _ZN3dpx6Writer12WriteElementEiPvl@Base 1.0.4+dfsg0
 _ZN3dpx6Writer12WriteThroughEPvjjiijjPc@Base 1.0.4+dfsg0
 _ZN3dpx6Writer13WriteUserDataEPv@Base 1.0.4+dfsg0
 _ZN3dpx6Writer5StartEv@Base 1.0.4+dfsg0
 _ZN3dpx6Writer6FinishEv@Base 1.0.4+dfsg0
 _ZN3dpx6WriterC1Ev@Base 1.0.4+dfsg0
 _ZN3dpx6WriterC2Ev@Base 1.0.4+dfsg0
 _ZN3dpx6WriterD0Ev@Base 1.0.4+dfsg0
 _ZN3dpx6WriterD1Ev@Base 1.0.4+dfsg0
 _ZN3dpx6WriterD2Ev@Base 1.0.4+dfsg0
 _ZN4Ptex10EdgeIdNameENS_6EdgeIdE@Base 1.0.4+dfsg0
 _ZN4Ptex12DataTypeNameENS_8DataTypeE@Base 1.0.4+dfsg0
 _ZN4Ptex12MeshTypeNameENS_8MeshTypeE@Base 1.0.4+dfsg0
 _ZN4Ptex14BorderModeNameENS_10BorderModeE@Base 1.0.4+dfsg0
 _ZN4Ptex14ConvertToFloatEPfPKvNS_8DataTypeEi@Base 1.0.4+dfsg0
 _ZN4Ptex16ConvertFromFloatEPvPKfNS_8DataTypeEi@Base 1.0.4+dfsg0
 _ZN4Ptex16MetaDataTypeNameENS_12MetaDataTypeE@Base 1.0.4+dfsg0
 _ZN4halfC1Ef@Base 1.0.4+dfsg0
 _ZN4halfC2Ef@Base 1.0.4+dfsg0
 _ZN5Imath13SingMatrixExcC1EPKc@Base 1.0.4+dfsg0
 _ZN5Imath13SingMatrixExcC2EPKc@Base 1.0.4+dfsg0
 _ZN5Imath13SingMatrixExcD0Ev@Base 1.0.4+dfsg0
 _ZN5Imath13SingMatrixExcD1Ev@Base 1.0.4+dfsg0
 _ZN5Imath13SingMatrixExcD2Ev@Base 1.0.4+dfsg0
 _ZN5Imath4Vec3IfE9normalizeEv@Base 1.0.4+dfsg0
 _ZN5Imath8Matrix44IfE8multiplyERKS1_S3_RS1_@Base 1.0.4+dfsg0
 _ZN5Imath8Matrix44IfEC1ERKS1_@Base 1.0.4+dfsg0
 _ZN5Imath8Matrix44IfEC2ERKS1_@Base 1.0.4+dfsg0
 _ZN5Imath8Matrix44IfEaSERKS1_@Base 1.0.4+dfsg0
 _ZN5boost10lock_errorD0Ev@Base 1.0.4+dfsg0
 _ZN5boost10lock_errorD1Ev@Base 1.0.4+dfsg0
 _ZN5boost10lock_errorD2Ev@Base 1.0.4+dfsg0
 _ZN5boost10lock_guardINS_15recursive_mutexEED1Ev@Base 1.0.4+dfsg0
 _ZN5boost10lock_guardINS_15recursive_mutexEED2Ev@Base 1.0.4+dfsg0
 _ZN5boost10lock_guardINS_5mutexEED1Ev@Base 1.0.4+dfsg0
 _ZN5boost10lock_guardINS_5mutexEED2Ev@Base 1.0.4+dfsg0
 _ZN5boost10scoped_ptrINS_13match_resultsIN9__gnu_cxx17__normal_iteratorIPKcSsEESaINS_9sub_matchIS6_EEEEEED1Ev@Base 1.0.4+dfsg0
 _ZN5boost10scoped_ptrINS_13match_resultsIN9__gnu_cxx17__normal_iteratorIPKcSsEESaINS_9sub_matchIS6_EEEEEED2Ev@Base 1.0.4+dfsg0
 _ZN5boost10shared_ptrIKNS_16exception_detail10clone_baseEEC1INS1_10clone_implINS1_10bad_alloc_EEEEEPT_@Base 1.0.4+dfsg0
 _ZN5boost10shared_ptrIKNS_16exception_detail10clone_baseEEC1INS1_10clone_implINS1_14bad_exception_EEEEEPT_@Base 1.0.4+dfsg0
 _ZN5boost10shared_ptrIKNS_16exception_detail10clone_baseEEC2INS1_10clone_implINS1_10bad_alloc_EEEEEPT_@Base 1.0.4+dfsg0
 _ZN5boost10shared_ptrIKNS_16exception_detail10clone_baseEEC2INS1_10clone_implINS1_14bad_exception_EEEEEPT_@Base 1.0.4+dfsg0
 _ZN5boost10shared_ptrIN11OpenImageIO4v1_010ImageInputEE5resetEv@Base 1.0.4+dfsg0
 _ZN5boost10shared_ptrIN11OpenImageIO4v1_010ImageInputEE5resetIS3_EEvPT_@Base 1.0.4+dfsg0
 _ZN5boost10shared_ptrIN11OpenImageIO4v1_010ImageInputEED1Ev@Base 1.0.4+dfsg0
 _ZN5boost10shared_ptrIN11OpenImageIO4v1_010ImageInputEED2Ev@Base 1.0.4+dfsg0
 _ZN5boost10shared_ptrIN11OpenImageIO4v1_03pvt14ImageCacheImplEE5resetIS4_EEvPT_@Base 1.0.4+dfsg0
 _ZN5boost10shared_ptrIN11OpenImageIO4v1_03pvt14ImageCacheImplEED1Ev@Base 1.0.4+dfsg0
 _ZN5boost10shared_ptrIN11OpenImageIO4v1_03pvt14ImageCacheImplEED2Ev@Base 1.0.4+dfsg0
 _ZN5boost10shared_ptrIN11OpenImageIO4v1_03pvt17TextureSystemImplEED1Ev@Base 1.0.4+dfsg0
 _ZN5boost10shared_ptrIN11OpenImageIO4v1_03pvt17TextureSystemImplEED2Ev@Base 1.0.4+dfsg0
 _ZN5boost10shared_ptrINS_11filesystem36detail11dir_itr_impEED1Ev@Base 1.0.4+dfsg0
 _ZN5boost10shared_ptrINS_11filesystem36detail11dir_itr_impEED2Ev@Base 1.0.4+dfsg0
 _ZN5boost10shared_ptrINS_4asio21basic_socket_acceptorINS1_2ip3tcpENS1_23socket_acceptor_serviceIS4_EEEEED1Ev@Base 1.0.4+dfsg0
 _ZN5boost10shared_ptrINS_4asio21basic_socket_acceptorINS1_2ip3tcpENS1_23socket_acceptor_serviceIS4_EEEEED2Ev@Base 1.0.4+dfsg0
 _ZN5boost10shared_ptrINS_4asio21basic_socket_acceptorINS1_2ip3tcpENS1_23socket_acceptor_serviceIS4_EEEEEaSERKS8_@Base 1.0.4+dfsg0
 _ZN5boost10shared_ptrINS_6detail20tss_cleanup_functionEE5resetINS_19thread_specific_ptrIN11OpenImageIO4v1_03pvt23ImageCachePerThreadInfoEE27run_custom_cleanup_functionENS1_14do_heap_deleteISB_EEEEvPT_T0_@Base 1.0.4+dfsg0
 _ZN5boost10shared_ptrINS_6detail20tss_cleanup_functionEED1Ev@Base 1.0.4+dfsg0
 _ZN5boost10shared_ptrINS_6detail20tss_cleanup_functionEED2Ev@Base 1.0.4+dfsg0
 _ZN5boost10shared_ptrINS_9re_detail20named_subexpressionsEEaSERKS3_@Base 1.0.4+dfsg0
 _ZN5boost10shared_ptrINS_9re_detail26basic_regex_implementationIcNS_12regex_traitsIcNS_16cpp_regex_traitsIcEEEEEEED1Ev@Base 1.0.4+dfsg0
 _ZN5boost10shared_ptrINS_9re_detail26basic_regex_implementationIcNS_12regex_traitsIcNS_16cpp_regex_traitsIcEEEEEEED2Ev@Base 1.0.4+dfsg0
 _ZN5boost10shared_ptrISt6vectorINS_4asio2ip20basic_resolver_entryINS3_3tcpEEESaIS6_EEE5resetIS8_EEvPT_@Base 1.0.4+dfsg0
 _ZN5boost10shared_ptrISt6vectorINS_4asio2ip20basic_resolver_entryINS3_3tcpEEESaIS6_EEED1Ev@Base 1.0.4+dfsg0
 _ZN5boost10shared_ptrISt6vectorINS_4asio2ip20basic_resolver_entryINS3_3tcpEEESaIS6_EEED2Ev@Base 1.0.4+dfsg0
 _ZN5boost10shared_ptrIvED1Ev@Base 1.0.4+dfsg0
 _ZN5boost10shared_ptrIvED2Ev@Base 1.0.4+dfsg0
 _ZN5boost11filesystem315directory_entryD1Ev@Base 1.0.4+dfsg0
 _ZN5boost11filesystem315directory_entryD2Ev@Base 1.0.4+dfsg0
 _ZN5boost11filesystem34pathD1Ev@Base 1.0.4+dfsg0
 _ZN5boost11filesystem34pathD2Ev@Base 1.0.4+dfsg0
 _ZN5boost11filesystem36detail11dir_itr_impD1Ev@Base 1.0.4+dfsg0
 _ZN5boost11filesystem36detail11dir_itr_impD2Ev@Base 1.0.4+dfsg0
 _ZN5boost13exception_ptrD1Ev@Base 1.0.4+dfsg0
 _ZN5boost13exception_ptrD2Ev@Base 1.0.4+dfsg0
 _ZN5boost13intrusive_ptrIN11OpenImageIO4v1_03pvt14ImageCacheFileEED1Ev@Base 1.0.4+dfsg0
 _ZN5boost13intrusive_ptrIN11OpenImageIO4v1_03pvt14ImageCacheFileEED2Ev@Base 1.0.4+dfsg0
 _ZN5boost13intrusive_ptrIN11OpenImageIO4v1_03pvt14ImageCacheFileEEaSEPS4_@Base 1.0.4+dfsg0
 _ZN5boost13intrusive_ptrIN11OpenImageIO4v1_03pvt14ImageCacheFileEEaSERKS5_@Base 1.0.4+dfsg0
 _ZN5boost13intrusive_ptrIN11OpenImageIO4v1_03pvt14ImageCacheTileEED1Ev@Base 1.0.4+dfsg0
 _ZN5boost13intrusive_ptrIN11OpenImageIO4v1_03pvt14ImageCacheTileEED2Ev@Base 1.0.4+dfsg0
 _ZN5boost13intrusive_ptrIN11OpenImageIO4v1_03pvt14ImageCacheTileEEaSEPS4_@Base 1.0.4+dfsg0
 _ZN5boost13intrusive_ptrIN11OpenImageIO4v1_03pvt14ImageCacheTileEEaSERKS5_@Base 1.0.4+dfsg0
 _ZN5boost13match_resultsIN9__gnu_cxx17__normal_iteratorIPKcSsEESaINS_9sub_matchIS5_EEEE10set_secondES5_jbb@Base 1.0.4+dfsg0
 _ZN5boost13match_resultsIN9__gnu_cxx17__normal_iteratorIPKcSsEESaINS_9sub_matchIS5_EEEE17raise_logic_errorEv@Base 1.0.4+dfsg0
 _ZN5boost13match_resultsIN9__gnu_cxx17__normal_iteratorIPKcSsEESaINS_9sub_matchIS5_EEEE8set_sizeEjS5_S5_@Base 1.0.4+dfsg0
 _ZN5boost13match_resultsIN9__gnu_cxx17__normal_iteratorIPKcSsEESaINS_9sub_matchIS5_EEEE9set_firstES5_@Base 1.0.4+dfsg0
 _ZN5boost13match_resultsIN9__gnu_cxx17__normal_iteratorIPKcSsEESaINS_9sub_matchIS5_EEEE9set_firstES5_jb@Base 1.0.4+dfsg0
 _ZN5boost13match_resultsIN9__gnu_cxx17__normal_iteratorIPKcSsEESaINS_9sub_matchIS5_EEEEC1ERKS9_@Base 1.0.4+dfsg0
 _ZN5boost13match_resultsIN9__gnu_cxx17__normal_iteratorIPKcSsEESaINS_9sub_matchIS5_EEEEC2ERKS9_@Base 1.0.4+dfsg0
 _ZN5boost13match_resultsIN9__gnu_cxx17__normal_iteratorIPKcSsEESaINS_9sub_matchIS5_EEEED1Ev@Base 1.0.4+dfsg0
 _ZN5boost13match_resultsIN9__gnu_cxx17__normal_iteratorIPKcSsEESaINS_9sub_matchIS5_EEEED2Ev@Base 1.0.4+dfsg0
 _ZN5boost13match_resultsIN9__gnu_cxx17__normal_iteratorIPKcSsEESaINS_9sub_matchIS5_EEEEaSERKS9_@Base 1.0.4+dfsg0
 _ZN5boost14char_separatorIcSt11char_traitsIcEEC1ERKS3_@Base 1.0.4+dfsg0
 _ZN5boost14char_separatorIcSt11char_traitsIcEEC2ERKS3_@Base 1.0.4+dfsg0
 _ZN5boost14char_separatorIcSt11char_traitsIcEED1Ev@Base 1.0.4+dfsg0
 _ZN5boost14char_separatorIcSt11char_traitsIcEED2Ev@Base 1.0.4+dfsg0
 _ZN5boost14char_separatorIcSt11char_traitsIcEEclIN9__gnu_cxx17__normal_iteratorIPKcSsEESsEEbRT_SA_RT0_@Base 1.0.4+dfsg0
 _ZN5boost14checked_deleteINS_11filesystem36detail11dir_itr_impEEEvPT_@Base 1.0.4+dfsg0
 _ZN5boost14checked_deleteINS_4asio21basic_socket_acceptorINS1_2ip3tcpENS1_23socket_acceptor_serviceIS4_EEEEEEvPT_@Base 1.0.4+dfsg0
 _ZN5boost14checked_deleteISt6vectorINS_4asio2ip20basic_resolver_entryINS3_3tcpEEESaIS6_EEEEvPT_@Base 1.0.4+dfsg0
 _ZN5boost14token_iteratorINS_14char_separatorIcSt11char_traitsIcEEEN9__gnu_cxx17__normal_iteratorIPKcSsEESsEC1ES4_S9_S9_@Base 1.0.4+dfsg0
 _ZN5boost14token_iteratorINS_14char_separatorIcSt11char_traitsIcEEEN9__gnu_cxx17__normal_iteratorIPKcSsEESsEC2ES4_S9_S9_@Base 1.0.4+dfsg0
 _ZN5boost14token_iteratorINS_14char_separatorIcSt11char_traitsIcEEEN9__gnu_cxx17__normal_iteratorIPKcSsEESsED1Ev@Base 1.0.4+dfsg0
 _ZN5boost14token_iteratorINS_14char_separatorIcSt11char_traitsIcEEEN9__gnu_cxx17__normal_iteratorIPKcSsEESsED2Ev@Base 1.0.4+dfsg0
 _ZN5boost15foreach_detail_14simple_variantISt6vectorISsSaISsEEED1Ev@Base 1.0.4+dfsg0
 _ZN5boost15foreach_detail_14simple_variantISt6vectorISsSaISsEEED2Ev@Base 1.0.4+dfsg0
 _ZN5boost15foreach_detail_8auto_anyINS0_14simple_variantISt6vectorISsSaISsEEEEED1Ev@Base 1.0.4+dfsg0
 _ZN5boost15foreach_detail_8auto_anyINS0_14simple_variantISt6vectorISsSaISsEEEEED2Ev@Base 1.0.4+dfsg0
 _ZN5boost15foreach_detail_8auto_anyINS_14token_iteratorINS_14char_separatorIcSt11char_traitsIcEEEN9__gnu_cxx17__normal_iteratorIPKcSsEESsEEED1Ev@Base 1.0.4+dfsg0
 _ZN5boost15foreach_detail_8auto_anyINS_14token_iteratorINS_14char_separatorIcSt11char_traitsIcEEEN9__gnu_cxx17__normal_iteratorIPKcSsEESsEEED2Ev@Base 1.0.4+dfsg0
 _ZN5boost15recursive_mutexC1Ev@Base 1.0.4+dfsg0
 _ZN5boost15recursive_mutexC2Ev@Base 1.0.4+dfsg0
 _ZN5boost15recursive_mutexD1Ev@Base 1.0.4+dfsg0
 _ZN5boost15recursive_mutexD2Ev@Base 1.0.4+dfsg0
 _ZN5boost15throw_exceptionINS_10lock_errorEEEvRKT_@Base 1.0.4+dfsg0
 _ZN5boost15throw_exceptionINS_17bad_function_callEEEvRKT_@Base 1.0.4+dfsg0
 _ZN5boost15throw_exceptionINS_21thread_resource_errorEEEvRKT_@Base 1.0.4+dfsg0
 _ZN5boost15throw_exceptionINS_6system12system_errorEEEvRKT_@Base 1.0.4+dfsg0
 _ZN5boost15throw_exceptionISt11logic_errorEEvRKT_@Base 1.0.4+dfsg0
 _ZN5boost16exception_detail10bad_alloc_D0Ev@Base 1.0.4+dfsg0
 _ZN5boost16exception_detail10bad_alloc_D1Ev@Base 1.0.4+dfsg0
 _ZN5boost16exception_detail10bad_alloc_D2Ev@Base 1.0.4+dfsg0
 _ZN5boost16exception_detail10clone_baseD0Ev@Base 1.0.4+dfsg0
 _ZN5boost16exception_detail10clone_baseD1Ev@Base 1.0.4+dfsg0
 _ZN5boost16exception_detail10clone_baseD2Ev@Base 1.0.4+dfsg0
 _ZN5boost16exception_detail10clone_implINS0_10bad_alloc_EEC1ERKS2_@Base 1.0.4+dfsg0
 _ZN5boost16exception_detail10clone_implINS0_10bad_alloc_EEC1ERKS3_@Base 1.0.4+dfsg0
 _ZN5boost16exception_detail10clone_implINS0_10bad_alloc_EEC2ERKS2_@Base 1.0.4+dfsg0
 _ZN5boost16exception_detail10clone_implINS0_10bad_alloc_EEC2ERKS3_@Base 1.0.4+dfsg0
 _ZN5boost16exception_detail10clone_implINS0_10bad_alloc_EED0Ev@Base 1.0.4+dfsg0
 _ZN5boost16exception_detail10clone_implINS0_10bad_alloc_EED1Ev@Base 1.0.4+dfsg0
 _ZN5boost16exception_detail10clone_implINS0_10bad_alloc_EED2Ev@Base 1.0.4+dfsg0
 _ZN5boost16exception_detail10clone_implINS0_14bad_exception_EEC1ERKS2_@Base 1.0.4+dfsg0
 _ZN5boost16exception_detail10clone_implINS0_14bad_exception_EEC1ERKS3_@Base 1.0.4+dfsg0
 _ZN5boost16exception_detail10clone_implINS0_14bad_exception_EEC2ERKS2_@Base 1.0.4+dfsg0
 _ZN5boost16exception_detail10clone_implINS0_14bad_exception_EEC2ERKS3_@Base 1.0.4+dfsg0
 _ZN5boost16exception_detail10clone_implINS0_14bad_exception_EED0Ev@Base 1.0.4+dfsg0
 _ZN5boost16exception_detail10clone_implINS0_14bad_exception_EED1Ev@Base 1.0.4+dfsg0
 _ZN5boost16exception_detail10clone_implINS0_14bad_exception_EED2Ev@Base 1.0.4+dfsg0
 _ZN5boost16exception_detail10clone_implINS0_19error_info_injectorINS_10lock_errorEEEED0Ev@Base 1.0.4+dfsg0
 _ZN5boost16exception_detail10clone_implINS0_19error_info_injectorINS_10lock_errorEEEED1Ev@Base 1.0.4+dfsg0
 _ZN5boost16exception_detail10clone_implINS0_19error_info_injectorINS_10lock_errorEEEED2Ev@Base 1.0.4+dfsg0
 _ZN5boost16exception_detail10clone_implINS0_19error_info_injectorINS_17bad_function_callEEEED0Ev@Base 1.0.4+dfsg0
 _ZN5boost16exception_detail10clone_implINS0_19error_info_injectorINS_17bad_function_callEEEED1Ev@Base 1.0.4+dfsg0
 _ZN5boost16exception_detail10clone_implINS0_19error_info_injectorINS_17bad_function_callEEEED2Ev@Base 1.0.4+dfsg0
 _ZN5boost16exception_detail10clone_implINS0_19error_info_injectorINS_21thread_resource_errorEEEED0Ev@Base 1.0.4+dfsg0
 _ZN5boost16exception_detail10clone_implINS0_19error_info_injectorINS_21thread_resource_errorEEEED1Ev@Base 1.0.4+dfsg0
 _ZN5boost16exception_detail10clone_implINS0_19error_info_injectorINS_21thread_resource_errorEEEED2Ev@Base 1.0.4+dfsg0
 _ZN5boost16exception_detail10clone_implINS0_19error_info_injectorINS_6system12system_errorEEEED0Ev@Base 1.0.4+dfsg0
 _ZN5boost16exception_detail10clone_implINS0_19error_info_injectorINS_6system12system_errorEEEED1Ev@Base 1.0.4+dfsg0
 _ZN5boost16exception_detail10clone_implINS0_19error_info_injectorINS_6system12system_errorEEEED2Ev@Base 1.0.4+dfsg0
 _ZN5boost16exception_detail10clone_implINS0_19error_info_injectorISt11logic_errorEEEC1ERKS4_@Base 1.0.4+dfsg0
 _ZN5boost16exception_detail10clone_implINS0_19error_info_injectorISt11logic_errorEEEC2ERKS4_@Base 1.0.4+dfsg0
 _ZN5boost16exception_detail10clone_implINS0_19error_info_injectorISt11logic_errorEEED0Ev@Base 1.0.4+dfsg0
 _ZN5boost16exception_detail10clone_implINS0_19error_info_injectorISt11logic_errorEEED1Ev@Base 1.0.4+dfsg0
 _ZN5boost16exception_detail10clone_implINS0_19error_info_injectorISt11logic_errorEEED2Ev@Base 1.0.4+dfsg0
 _ZN5boost16exception_detail12refcount_ptrINS0_20error_info_containerEE7releaseEv@Base 1.0.4+dfsg0
 _ZN5boost16exception_detail14bad_exception_D0Ev@Base 1.0.4+dfsg0
 _ZN5boost16exception_detail14bad_exception_D1Ev@Base 1.0.4+dfsg0
 _ZN5boost16exception_detail14bad_exception_D2Ev@Base 1.0.4+dfsg0
 _ZN5boost16exception_detail19error_info_injectorINS_10lock_errorEEC1ERKS3_@Base 1.0.4+dfsg0
 _ZN5boost16exception_detail19error_info_injectorINS_10lock_errorEEC2ERKS3_@Base 1.0.4+dfsg0
 _ZN5boost16exception_detail19error_info_injectorINS_10lock_errorEED0Ev@Base 1.0.4+dfsg0
 _ZN5boost16exception_detail19error_info_injectorINS_10lock_errorEED1Ev@Base 1.0.4+dfsg0
 _ZN5boost16exception_detail19error_info_injectorINS_10lock_errorEED2Ev@Base 1.0.4+dfsg0
 _ZN5boost16exception_detail19error_info_injectorINS_17bad_function_callEEC1ERKS3_@Base 1.0.4+dfsg0
 _ZN5boost16exception_detail19error_info_injectorINS_17bad_function_callEEC2ERKS3_@Base 1.0.4+dfsg0
 _ZN5boost16exception_detail19error_info_injectorINS_17bad_function_callEED0Ev@Base 1.0.4+dfsg0
 _ZN5boost16exception_detail19error_info_injectorINS_17bad_function_callEED1Ev@Base 1.0.4+dfsg0
 _ZN5boost16exception_detail19error_info_injectorINS_17bad_function_callEED2Ev@Base 1.0.4+dfsg0
 _ZN5boost16exception_detail19error_info_injectorINS_21thread_resource_errorEEC1ERKS3_@Base 1.0.4+dfsg0
 _ZN5boost16exception_detail19error_info_injectorINS_21thread_resource_errorEEC2ERKS3_@Base 1.0.4+dfsg0
 _ZN5boost16exception_detail19error_info_injectorINS_21thread_resource_errorEED0Ev@Base 1.0.4+dfsg0
 _ZN5boost16exception_detail19error_info_injectorINS_21thread_resource_errorEED1Ev@Base 1.0.4+dfsg0
 _ZN5boost16exception_detail19error_info_injectorINS_21thread_resource_errorEED2Ev@Base 1.0.4+dfsg0
 _ZN5boost16exception_detail19error_info_injectorINS_6system12system_errorEEC1ERKS4_@Base 1.0.4+dfsg0
 _ZN5boost16exception_detail19error_info_injectorINS_6system12system_errorEEC2ERKS4_@Base 1.0.4+dfsg0
 _ZN5boost16exception_detail19error_info_injectorINS_6system12system_errorEED0Ev@Base 1.0.4+dfsg0
 _ZN5boost16exception_detail19error_info_injectorINS_6system12system_errorEED1Ev@Base 1.0.4+dfsg0
 _ZN5boost16exception_detail19error_info_injectorINS_6system12system_errorEED2Ev@Base 1.0.4+dfsg0
 _ZN5boost16exception_detail19error_info_injectorISt11logic_errorEC1ERKS3_@Base 1.0.4+dfsg0
 _ZN5boost16exception_detail19error_info_injectorISt11logic_errorEC2ERKS3_@Base 1.0.4+dfsg0
 _ZN5boost16exception_detail19error_info_injectorISt11logic_errorED0Ev@Base 1.0.4+dfsg0
 _ZN5boost16exception_detail19error_info_injectorISt11logic_errorED1Ev@Base 1.0.4+dfsg0
 _ZN5boost16exception_detail19error_info_injectorISt11logic_errorED2Ev@Base 1.0.4+dfsg0
 _ZN5boost16exception_detail20copy_boost_exceptionEPNS_9exceptionEPKS1_@Base 1.0.4+dfsg0
 _ZN5boost16exception_detail27get_static_exception_objectINS0_10bad_alloc_EEENS_13exception_ptrEv@Base 1.0.4+dfsg0
 _ZN5boost16exception_detail27get_static_exception_objectINS0_14bad_exception_EEENS_13exception_ptrEv@Base 1.0.4+dfsg0
 _ZN5boost16exception_detail37exception_ptr_static_exception_objectINS0_10bad_alloc_EE1eE@Base 1.0.4+dfsg0
 _ZN5boost16exception_detail37exception_ptr_static_exception_objectINS0_14bad_exception_EE1eE@Base 1.0.4+dfsg0
 _ZN5boost16thread_exceptionD0Ev@Base 1.0.4+dfsg0
 _ZN5boost16thread_exceptionD1Ev@Base 1.0.4+dfsg0
 _ZN5boost16thread_exceptionD2Ev@Base 1.0.4+dfsg0
 _ZN5boost17bad_function_callC1Ev@Base 1.0.4+dfsg0
 _ZN5boost17bad_function_callC2Ev@Base 1.0.4+dfsg0
 _ZN5boost17bad_function_callD0Ev@Base 1.0.4+dfsg0
 _ZN5boost17bad_function_callD1Ev@Base 1.0.4+dfsg0
 _ZN5boost17bad_function_callD2Ev@Base 1.0.4+dfsg0
 _ZN5boost19thread_specific_ptrIN11OpenImageIO4v1_03pvt23ImageCachePerThreadInfoEE27run_custom_cleanup_functionD0Ev@Base 1.0.4+dfsg0
 _ZN5boost19thread_specific_ptrIN11OpenImageIO4v1_03pvt23ImageCachePerThreadInfoEE27run_custom_cleanup_functionD1Ev@Base 1.0.4+dfsg0
 _ZN5boost19thread_specific_ptrIN11OpenImageIO4v1_03pvt23ImageCachePerThreadInfoEE27run_custom_cleanup_functionD2Ev@Base 1.0.4+dfsg0
 _ZN5boost19thread_specific_ptrIN11OpenImageIO4v1_03pvt23ImageCachePerThreadInfoEE27run_custom_cleanup_functionclEPv@Base 1.0.4+dfsg0
 _ZN5boost19thread_specific_ptrIN11OpenImageIO4v1_03pvt23ImageCachePerThreadInfoEE5resetEPS4_@Base 1.0.4+dfsg0
 _ZN5boost19thread_specific_ptrIN11OpenImageIO4v1_03pvt23ImageCachePerThreadInfoEED1Ev@Base 1.0.4+dfsg0
 _ZN5boost19thread_specific_ptrIN11OpenImageIO4v1_03pvt23ImageCachePerThreadInfoEED2Ev@Base 1.0.4+dfsg0
 _ZN5boost19thread_specific_ptrISsE11delete_dataD0Ev@Base 1.0.4+dfsg0
 _ZN5boost19thread_specific_ptrISsE11delete_dataD1Ev@Base 1.0.4+dfsg0
 _ZN5boost19thread_specific_ptrISsE11delete_dataD2Ev@Base 1.0.4+dfsg0
 _ZN5boost19thread_specific_ptrISsE11delete_dataclEPv@Base 1.0.4+dfsg0
 _ZN5boost19thread_specific_ptrISsE5resetEPSs@Base 1.0.4+dfsg0
 _ZN5boost19thread_specific_ptrISsED1Ev@Base 1.0.4+dfsg0
 _ZN5boost19thread_specific_ptrISsED2Ev@Base 1.0.4+dfsg0
 _ZN5boost21thread_resource_errorD0Ev@Base 1.0.4+dfsg0
 _ZN5boost21thread_resource_errorD1Ev@Base 1.0.4+dfsg0
 _ZN5boost21thread_resource_errorD2Ev@Base 1.0.4+dfsg0
 _ZN5boost4asio10io_service7service12fork_serviceENS1_10fork_eventE@Base 1.0.4+dfsg0
 _ZN5boost4asio10io_service7serviceD0Ev@Base 1.0.4+dfsg0
 _ZN5boost4asio10io_service7serviceD1Ev@Base 1.0.4+dfsg0
 _ZN5boost4asio10io_service7serviceD2Ev@Base 1.0.4+dfsg0
 _ZN5boost4asio10io_serviceD1Ev@Base 1.0.4+dfsg0
 _ZN5boost4asio10io_serviceD2Ev@Base 1.0.4+dfsg0
 _ZN5boost4asio12basic_socketINS0_2ip3tcpENS0_21stream_socket_serviceIS3_EEE5closeEv@Base 1.0.4+dfsg0
 _ZN5boost4asio15basic_io_objectINS0_21stream_socket_serviceINS0_2ip3tcpEEEEC1ERNS0_10io_serviceE@Base 1.0.4+dfsg0
 _ZN5boost4asio15basic_io_objectINS0_21stream_socket_serviceINS0_2ip3tcpEEEEC2ERNS0_10io_serviceE@Base 1.0.4+dfsg0
 _ZN5boost4asio15basic_io_objectINS0_23socket_acceptor_serviceINS0_2ip3tcpEEEEC1ERNS0_10io_serviceE@Base 1.0.4+dfsg0
 _ZN5boost4asio15basic_io_objectINS0_23socket_acceptor_serviceINS0_2ip3tcpEEEEC2ERNS0_10io_serviceE@Base 1.0.4+dfsg0
 _ZN5boost4asio15basic_io_objectINS0_23socket_acceptor_serviceINS0_2ip3tcpEEEED1Ev@Base 1.0.4+dfsg0
 _ZN5boost4asio15basic_io_objectINS0_23socket_acceptor_serviceINS0_2ip3tcpEEEED2Ev@Base 1.0.4+dfsg0
 _ZN5boost4asio15basic_io_objectINS0_2ip16resolver_serviceINS2_3tcpEEEEC1ERNS0_10io_serviceE@Base 1.0.4+dfsg0
 _ZN5boost4asio15basic_io_objectINS0_2ip16resolver_serviceINS2_3tcpEEEEC2ERNS0_10io_serviceE@Base 1.0.4+dfsg0
 _ZN5boost4asio15basic_io_objectINS0_2ip16resolver_serviceINS2_3tcpEEEED1Ev@Base 1.0.4+dfsg0
 _ZN5boost4asio15basic_io_objectINS0_2ip16resolver_serviceINS2_3tcpEEEED2Ev@Base 1.0.4+dfsg0
 _ZN5boost4asio19basic_stream_socketINS0_2ip3tcpENS0_21stream_socket_serviceIS3_EEED1Ev@Base 1.0.4+dfsg0
 _ZN5boost4asio19basic_stream_socketINS0_2ip3tcpENS0_21stream_socket_serviceIS3_EEED2Ev@Base 1.0.4+dfsg0
 _ZN5boost4asio21basic_socket_acceptorINS0_2ip3tcpENS0_23socket_acceptor_serviceIS3_EEE6acceptINS0_21stream_socket_serviceIS3_EEEEvRNS0_12basic_socketIS3_T_EE@Base 1.0.4+dfsg0
 _ZN5boost4asio21basic_socket_acceptorINS0_2ip3tcpENS0_23socket_acceptor_serviceIS3_EEEC1ERNS0_10io_serviceERKNS2_14basic_endpointIS3_EEb@Base 1.0.4+dfsg0
 _ZN5boost4asio21basic_socket_acceptorINS0_2ip3tcpENS0_23socket_acceptor_serviceIS3_EEEC2ERNS0_10io_serviceERKNS2_14basic_endpointIS3_EEb@Base 1.0.4+dfsg0
 _ZN5boost4asio21stream_socket_serviceINS0_2ip3tcpEE16shutdown_serviceEv@Base 1.0.4+dfsg0
 _ZN5boost4asio21stream_socket_serviceINS0_2ip3tcpEEC1ERNS0_10io_serviceE@Base 1.0.4+dfsg0
 _ZN5boost4asio21stream_socket_serviceINS0_2ip3tcpEEC2ERNS0_10io_serviceE@Base 1.0.4+dfsg0
 _ZN5boost4asio21stream_socket_serviceINS0_2ip3tcpEED0Ev@Base 1.0.4+dfsg0
 _ZN5boost4asio21stream_socket_serviceINS0_2ip3tcpEED1Ev@Base 1.0.4+dfsg0
 _ZN5boost4asio21stream_socket_serviceINS0_2ip3tcpEED2Ev@Base 1.0.4+dfsg0
 _ZN5boost4asio23socket_acceptor_serviceINS0_2ip3tcpEE16shutdown_serviceEv@Base 1.0.4+dfsg0
 _ZN5boost4asio23socket_acceptor_serviceINS0_2ip3tcpEED0Ev@Base 1.0.4+dfsg0
 _ZN5boost4asio23socket_acceptor_serviceINS0_2ip3tcpEED1Ev@Base 1.0.4+dfsg0
 _ZN5boost4asio23socket_acceptor_serviceINS0_2ip3tcpEED2Ev@Base 1.0.4+dfsg0
 _ZN5boost4asio2ip14basic_resolverINS1_3tcpENS1_16resolver_serviceIS3_EEE7resolveERKNS1_20basic_resolver_queryIS3_EE@Base 1.0.4+dfsg0
 _ZN5boost4asio2ip16resolver_serviceINS1_3tcpEE12fork_serviceENS0_10io_service10fork_eventE@Base 1.0.4+dfsg0
 _ZN5boost4asio2ip16resolver_serviceINS1_3tcpEE16shutdown_serviceEv@Base 1.0.4+dfsg0
 _ZN5boost4asio2ip16resolver_serviceINS1_3tcpEED0Ev@Base 1.0.4+dfsg0
 _ZN5boost4asio2ip16resolver_serviceINS1_3tcpEED1Ev@Base 1.0.4+dfsg0
 _ZN5boost4asio2ip16resolver_serviceINS1_3tcpEED2Ev@Base 1.0.4+dfsg0
 _ZN5boost4asio2ip20basic_resolver_entryINS1_3tcpEEC1ERKS4_@Base 1.0.4+dfsg0
 _ZN5boost4asio2ip20basic_resolver_entryINS1_3tcpEEC2ERKS4_@Base 1.0.4+dfsg0
 _ZN5boost4asio2ip20basic_resolver_entryINS1_3tcpEED1Ev@Base 1.0.4+dfsg0
 _ZN5boost4asio2ip20basic_resolver_entryINS1_3tcpEED2Ev@Base 1.0.4+dfsg0
 _ZN5boost4asio2ip20basic_resolver_entryINS1_3tcpEEaSERKS4_@Base 1.0.4+dfsg0
 _ZN5boost4asio2ip20basic_resolver_queryINS1_3tcpEEC1ERKSsS6_NS1_19resolver_query_base5flagsE@Base 1.0.4+dfsg0
 _ZN5boost4asio2ip20basic_resolver_queryINS1_3tcpEEC2ERKSsS6_NS1_19resolver_query_base5flagsE@Base 1.0.4+dfsg0
 _ZN5boost4asio2ip20basic_resolver_queryINS1_3tcpEED1Ev@Base 1.0.4+dfsg0
 _ZN5boost4asio2ip20basic_resolver_queryINS1_3tcpEED2Ev@Base 1.0.4+dfsg0
 _ZN5boost4asio2ip23basic_resolver_iteratorINS1_3tcpEE6createEP8addrinfoRKSsS8_@Base 1.0.4+dfsg0
 _ZN5boost4asio2ip23basic_resolver_iteratorINS1_3tcpEED1Ev@Base 1.0.4+dfsg0
 _ZN5boost4asio2ip23basic_resolver_iteratorINS1_3tcpEED2Ev@Base 1.0.4+dfsg0
 _ZN5boost4asio2ip6detail8endpointC1Eit@Base 1.0.4+dfsg0
 _ZN5boost4asio2ip6detail8endpointC2Eit@Base 1.0.4+dfsg0
 _ZN5boost4asio4readINS0_19basic_stream_socketINS0_2ip3tcpENS0_21stream_socket_serviceIS4_EEEENS0_17mutable_buffers_1ENS0_6detail14transfer_all_tEEEjRT_RKT0_T1_RNS_6system10error_codeE@Base 1.0.4+dfsg0
 _ZN5boost4asio5error17get_misc_categoryEv@Base 1.0.4+dfsg0
 _ZN5boost4asio5error18get_netdb_categoryEv@Base 1.0.4+dfsg0
 _ZN5boost4asio5error21get_addrinfo_categoryEv@Base 1.0.4+dfsg0
 _ZN5boost4asio5error6detail13misc_categoryD0Ev@Base 1.0.4+dfsg0
 _ZN5boost4asio5error6detail13misc_categoryD1Ev@Base 1.0.4+dfsg0
 _ZN5boost4asio5error6detail13misc_categoryD2Ev@Base 1.0.4+dfsg0
 _ZN5boost4asio5error6detail14netdb_categoryD0Ev@Base 1.0.4+dfsg0
 _ZN5boost4asio5error6detail14netdb_categoryD1Ev@Base 1.0.4+dfsg0
 _ZN5boost4asio5error6detail14netdb_categoryD2Ev@Base 1.0.4+dfsg0
 _ZN5boost4asio5error6detail17addrinfo_categoryD0Ev@Base 1.0.4+dfsg0
 _ZN5boost4asio5error6detail17addrinfo_categoryD1Ev@Base 1.0.4+dfsg0
 _ZN5boost4asio5error6detail17addrinfo_categoryD2Ev@Base 1.0.4+dfsg0
 _ZN5boost4asio5writeINS0_19basic_stream_socketINS0_2ip3tcpENS0_21stream_socket_serviceIS4_EEEENS0_15const_buffers_1ENS0_6detail14transfer_all_tEEEjRT_RKT0_T1_RNS_6system10error_codeE@Base 1.0.4+dfsg0
 _ZN5boost4asio6detail10call_stackINS1_14strand_service11strand_implEhE4top_E@Base 1.0.4+dfsg0
 _ZN5boost4asio6detail10call_stackINS1_15task_io_serviceENS3_11thread_infoEE4top_E@Base 1.0.4+dfsg0
 _ZN5boost4asio6detail10call_stackINS1_15task_io_serviceENS3_11thread_infoEE8containsEPS3_@Base 1.0.4+dfsg0
 _ZN5boost4asio6detail10scoped_ptrINS0_10io_service4workEED1Ev@Base 1.0.4+dfsg0
 _ZN5boost4asio6detail10scoped_ptrINS0_10io_service4workEED2Ev@Base 1.0.4+dfsg0
 _ZN5boost4asio6detail10scoped_ptrINS0_10io_serviceEED1Ev@Base 1.0.4+dfsg0
 _ZN5boost4asio6detail10scoped_ptrINS0_10io_serviceEED2Ev@Base 1.0.4+dfsg0
 _ZN5boost4asio6detail10scoped_ptrINS1_12posix_threadEED1Ev@Base 1.0.4+dfsg0
 _ZN5boost4asio6detail10scoped_ptrINS1_12posix_threadEED2Ev@Base 1.0.4+dfsg0
 _ZN5boost4asio6detail10service_idINS0_21stream_socket_serviceINS0_2ip3tcpEEEED1Ev@Base 1.0.4+dfsg0
 _ZN5boost4asio6detail10service_idINS0_21stream_socket_serviceINS0_2ip3tcpEEEED2Ev@Base 1.0.4+dfsg0
 _ZN5boost4asio6detail10service_idINS0_23socket_acceptor_serviceINS0_2ip3tcpEEEED1Ev@Base 1.0.4+dfsg0
 _ZN5boost4asio6detail10service_idINS0_23socket_acceptor_serviceINS0_2ip3tcpEEEED2Ev@Base 1.0.4+dfsg0
 _ZN5boost4asio6detail10service_idINS0_2ip16resolver_serviceINS3_3tcpEEEED1Ev@Base 1.0.4+dfsg0
 _ZN5boost4asio6detail10service_idINS0_2ip16resolver_serviceINS3_3tcpEEEED2Ev@Base 1.0.4+dfsg0
 _ZN5boost4asio6detail10service_idINS1_14select_reactorEED1Ev@Base 1.0.4+dfsg0
 _ZN5boost4asio6detail10service_idINS1_14select_reactorEED2Ev@Base 1.0.4+dfsg0
 _ZN5boost4asio6detail10service_idINS1_14strand_serviceEED1Ev@Base 1.0.4+dfsg0
 _ZN5boost4asio6detail10service_idINS1_14strand_serviceEED2Ev@Base 1.0.4+dfsg0
 _ZN5boost4asio6detail10service_idINS1_15task_io_serviceEED1Ev@Base 1.0.4+dfsg0
 _ZN5boost4asio6detail10service_idINS1_15task_io_serviceEED2Ev@Base 1.0.4+dfsg0
 _ZN5boost4asio6detail10socket_ops10setsockoptEiRhiiPKvjRNS_6system10error_codeE@Base 1.0.4+dfsg0
 _ZN5boost4asio6detail10socket_ops11getaddrinfoEPKcS4_RK8addrinfoPPS5_RNS_6system10error_codeE@Base 1.0.4+dfsg0
 _ZN5boost4asio6detail10socket_ops11sync_acceptEihP8sockaddrPjRNS_6system10error_codeE@Base 1.0.4+dfsg0
 _ZN5boost4asio6detail10socket_ops24translate_addrinfo_errorEi@Base 1.0.4+dfsg0
 _ZN5boost4asio6detail10socket_ops4bindEiPK8sockaddrjRNS_6system10error_codeE@Base 1.0.4+dfsg0
 _ZN5boost4asio6detail10socket_ops5closeEiRhbRNS_6system10error_codeE@Base 1.0.4+dfsg0
 _ZN5boost4asio6detail10socket_ops6listenEiiRNS_6system10error_codeE@Base 1.0.4+dfsg0
 _ZN5boost4asio6detail10socket_ops6selectEiP6fd_setS4_S4_P7timevalRNS_6system10error_codeE@Base 1.0.4+dfsg0
 _ZN5boost4asio6detail10socket_ops6socketEiiiRNS_6system10error_codeE@Base 1.0.4+dfsg0
 _ZN5boost4asio6detail11posix_eventC1Ev@Base 1.0.4+dfsg0
 _ZN5boost4asio6detail11posix_eventC2Ev@Base 1.0.4+dfsg0
 _ZN5boost4asio6detail11posix_mutexC1Ev@Base 1.0.4+dfsg0
 _ZN5boost4asio6detail11posix_mutexC2Ev@Base 1.0.4+dfsg0
 _ZN5boost4asio6detail11posix_mutexD1Ev@Base 1.0.4+dfsg0
 _ZN5boost4asio6detail11posix_mutexD2Ev@Base 1.0.4+dfsg0
 _ZN5boost4asio6detail11scoped_lockINS1_11posix_mutexEED1Ev@Base 1.0.4+dfsg0
 _ZN5boost4asio6detail11scoped_lockINS1_11posix_mutexEED2Ev@Base 1.0.4+dfsg0
 _ZN5boost4asio6detail12posix_thread12start_threadEPNS2_9func_baseE@Base 1.0.4+dfsg0
 _ZN5boost4asio6detail12posix_thread4funcINS1_21resolver_service_base22work_io_service_runnerEE3runEv@Base 1.0.4+dfsg0
 _ZN5boost4asio6detail12posix_thread4funcINS1_21resolver_service_base22work_io_service_runnerEED0Ev@Base 1.0.4+dfsg0
 _ZN5boost4asio6detail12posix_thread4funcINS1_21resolver_service_base22work_io_service_runnerEED1Ev@Base 1.0.4+dfsg0
 _ZN5boost4asio6detail12posix_thread4funcINS1_21resolver_service_base22work_io_service_runnerEED2Ev@Base 1.0.4+dfsg0
 _ZN5boost4asio6detail12posix_thread9func_baseD0Ev@Base 1.0.4+dfsg0
 _ZN5boost4asio6detail12posix_thread9func_baseD1Ev@Base 1.0.4+dfsg0
 _ZN5boost4asio6detail12posix_thread9func_baseD2Ev@Base 1.0.4+dfsg0
 _ZN5boost4asio6detail12service_baseINS0_21stream_socket_serviceINS0_2ip3tcpEEEE2idE@Base 1.0.4+dfsg0
 _ZN5boost4asio6detail12service_baseINS0_21stream_socket_serviceINS0_2ip3tcpEEEED0Ev@Base 1.0.4+dfsg0
 _ZN5boost4asio6detail12service_baseINS0_21stream_socket_serviceINS0_2ip3tcpEEEED1Ev@Base 1.0.4+dfsg0
 _ZN5boost4asio6detail12service_baseINS0_21stream_socket_serviceINS0_2ip3tcpEEEED2Ev@Base 1.0.4+dfsg0
 _ZN5boost4asio6detail12service_baseINS0_23socket_acceptor_serviceINS0_2ip3tcpEEEE2idE@Base 1.0.4+dfsg0
 _ZN5boost4asio6detail12service_baseINS0_23socket_acceptor_serviceINS0_2ip3tcpEEEED0Ev@Base 1.0.4+dfsg0
 _ZN5boost4asio6detail12service_baseINS0_23socket_acceptor_serviceINS0_2ip3tcpEEEED1Ev@Base 1.0.4+dfsg0
 _ZN5boost4asio6detail12service_baseINS0_23socket_acceptor_serviceINS0_2ip3tcpEEEED2Ev@Base 1.0.4+dfsg0
 _ZN5boost4asio6detail12service_baseINS0_2ip16resolver_serviceINS3_3tcpEEEE2idE@Base 1.0.4+dfsg0
 _ZN5boost4asio6detail12service_baseINS0_2ip16resolver_serviceINS3_3tcpEEEED0Ev@Base 1.0.4+dfsg0
 _ZN5boost4asio6detail12service_baseINS0_2ip16resolver_serviceINS3_3tcpEEEED1Ev@Base 1.0.4+dfsg0
 _ZN5boost4asio6detail12service_baseINS0_2ip16resolver_serviceINS3_3tcpEEEED2Ev@Base 1.0.4+dfsg0
 _ZN5boost4asio6detail12service_baseINS1_14select_reactorEE2idE@Base 1.0.4+dfsg0
 _ZN5boost4asio6detail12service_baseINS1_14select_reactorEED0Ev@Base 1.0.4+dfsg0
 _ZN5boost4asio6detail12service_baseINS1_14select_reactorEED1Ev@Base 1.0.4+dfsg0
 _ZN5boost4asio6detail12service_baseINS1_14select_reactorEED2Ev@Base 1.0.4+dfsg0
 _ZN5boost4asio6detail12service_baseINS1_14strand_serviceEE2idE@Base 1.0.4+dfsg0
 _ZN5boost4asio6detail12service_baseINS1_15task_io_serviceEE2idE@Base 1.0.4+dfsg0
 _ZN5boost4asio6detail12service_baseINS1_15task_io_serviceEED0Ev@Base 1.0.4+dfsg0
 _ZN5boost4asio6detail12service_baseINS1_15task_io_serviceEED1Ev@Base 1.0.4+dfsg0
 _ZN5boost4asio6detail12service_baseINS1_15task_io_serviceEED2Ev@Base 1.0.4+dfsg0
 _ZN5boost4asio6detail13socket_holderD1Ev@Base 1.0.4+dfsg0
 _ZN5boost4asio6detail13socket_holderD2Ev@Base 1.0.4+dfsg0
 _ZN5boost4asio6detail14do_throw_errorERKNS_6system10error_codeE@Base 1.0.4+dfsg0
 _ZN5boost4asio6detail14do_throw_errorERKNS_6system10error_codeEPKc@Base 1.0.4+dfsg0
 _ZN5boost4asio6detail14select_reactor12fork_serviceENS0_10io_service10fork_eventE@Base 1.0.4+dfsg0
 _ZN5boost4asio6detail14select_reactor16shutdown_serviceEv@Base 1.0.4+dfsg0
 _ZN5boost4asio6detail14select_reactor19cancel_ops_unlockedEiRKNS_6system10error_codeE@Base 1.0.4+dfsg0
 _ZN5boost4asio6detail14select_reactor3runEbRNS1_8op_queueINS1_25task_io_service_operationEEE@Base 1.0.4+dfsg0
 _ZN5boost4asio6detail14select_reactorC1ERNS0_10io_serviceE@Base 1.0.4+dfsg0
 _ZN5boost4asio6detail14select_reactorC2ERNS0_10io_serviceE@Base 1.0.4+dfsg0
 _ZN5boost4asio6detail14select_reactorD0Ev@Base 1.0.4+dfsg0
 _ZN5boost4asio6detail14select_reactorD1Ev@Base 1.0.4+dfsg0
 _ZN5boost4asio6detail14select_reactorD2Ev@Base 1.0.4+dfsg0
 _ZN5boost4asio6detail15task_io_service10do_run_oneERNS1_11scoped_lockINS1_11posix_mutexEEERNS2_11thread_infoERNS1_8op_queueINS1_25task_io_service_operationEEERKNS_6system10error_codeE@Base 1.0.4+dfsg0
 _ZN5boost4asio6detail15task_io_service12task_cleanupD1Ev@Base 1.0.4+dfsg0
 _ZN5boost4asio6detail15task_io_service12task_cleanupD2Ev@Base 1.0.4+dfsg0
 _ZN5boost4asio6detail15task_io_service12work_cleanupD1Ev@Base 1.0.4+dfsg0
 _ZN5boost4asio6detail15task_io_service12work_cleanupD2Ev@Base 1.0.4+dfsg0
 _ZN5boost4asio6detail15task_io_service16shutdown_serviceEv@Base 1.0.4+dfsg0
 _ZN5boost4asio6detail15task_io_service25post_deferred_completionsERNS1_8op_queueINS1_25task_io_service_operationEEE@Base 1.0.4+dfsg0
 _ZN5boost4asio6detail15task_io_service26wake_one_thread_and_unlockERNS1_11scoped_lockINS1_11posix_mutexEEE@Base 1.0.4+dfsg0
 _ZN5boost4asio6detail15task_io_service3runERNS_6system10error_codeE@Base 1.0.4+dfsg0
 _ZN5boost4asio6detail15task_io_service4stopEv@Base 1.0.4+dfsg0
 _ZN5boost4asio6detail15task_io_service5resetEv@Base 1.0.4+dfsg0
 _ZN5boost4asio6detail15task_io_service9init_taskEv@Base 1.0.4+dfsg0
 _ZN5boost4asio6detail15task_io_serviceD0Ev@Base 1.0.4+dfsg0
 _ZN5boost4asio6detail15task_io_serviceD1Ev@Base 1.0.4+dfsg0
 _ZN5boost4asio6detail15task_io_serviceD2Ev@Base 1.0.4+dfsg0
 _ZN5boost4asio6detail16reactor_op_queueIiE15get_descriptorsINS1_20posix_fd_set_adapterEEEvRT_RNS1_8op_queueINS1_25task_io_service_operationEEE@Base 1.0.4+dfsg0
 _ZN5boost4asio6detail16reactor_op_queueIiE34perform_operations_for_descriptorsINS1_20posix_fd_set_adapterEEEvRKT_RNS1_8op_queueINS1_25task_io_service_operationEEE@Base 1.0.4+dfsg0
 _ZN5boost4asio6detail16resolver_serviceINS0_2ip3tcpEE7resolveERNS_10shared_ptrIvEERKNS3_20basic_resolver_queryIS4_EERNS_6system10error_codeE@Base 1.0.4+dfsg0
 _ZN5boost4asio6detail16service_registry11use_serviceINS1_14select_reactorEEERT_v@Base 1.0.4+dfsg0
 _ZN5boost4asio6detail16service_registry14do_use_serviceERKNS0_10io_service7service3keyEPFPS4_RS3_E@Base 1.0.4+dfsg0
 _ZN5boost4asio6detail16service_registry6createINS0_21stream_socket_serviceINS0_2ip3tcpEEEEEPNS0_10io_service7serviceERS8_@Base 1.0.4+dfsg0
 _ZN5boost4asio6detail16service_registry6createINS0_23socket_acceptor_serviceINS0_2ip3tcpEEEEEPNS0_10io_service7serviceERS8_@Base 1.0.4+dfsg0
 _ZN5boost4asio6detail16service_registry6createINS0_2ip16resolver_serviceINS4_3tcpEEEEEPNS0_10io_service7serviceERS8_@Base 1.0.4+dfsg0
 _ZN5boost4asio6detail16service_registry6createINS1_14select_reactorEEEPNS0_10io_service7serviceERS5_@Base 1.0.4+dfsg0
 _ZN5boost4asio6detail16service_registryC1INS1_15task_io_serviceEjEERNS0_10io_serviceEPT_T0_@Base 1.0.4+dfsg0
 _ZN5boost4asio6detail16service_registryC2INS1_15task_io_serviceEjEERNS0_10io_serviceEPT_T0_@Base 1.0.4+dfsg0
 _ZN5boost4asio6detail16service_registryD1Ev@Base 1.0.4+dfsg0
 _ZN5boost4asio6detail16service_registryD2Ev@Base 1.0.4+dfsg0
 _ZN5boost4asio6detail20posix_tss_ptr_createERj@Base 1.0.4+dfsg0
 _ZN5boost4asio6detail21resolver_service_base12fork_serviceENS0_10io_service10fork_eventE@Base 1.0.4+dfsg0
 _ZN5boost4asio6detail21resolver_service_base16shutdown_serviceEv@Base 1.0.4+dfsg0
 _ZN5boost4asio6detail21resolver_service_baseC1ERNS0_10io_serviceE@Base 1.0.4+dfsg0
 _ZN5boost4asio6detail21resolver_service_baseC2ERNS0_10io_serviceE@Base 1.0.4+dfsg0
 _ZN5boost4asio6detail21resolver_service_baseD1Ev@Base 1.0.4+dfsg0
 _ZN5boost4asio6detail21resolver_service_baseD2Ev@Base 1.0.4+dfsg0
 _ZN5boost4asio6detail23pipe_select_interrupter16open_descriptorsEv@Base 1.0.4+dfsg0
 _ZN5boost4asio6detail23pipe_select_interrupter17close_descriptorsEv@Base 1.0.4+dfsg0
 _ZN5boost4asio6detail23pipe_select_interrupter5resetEv@Base 1.0.4+dfsg0
 _ZN5boost4asio6detail23pipe_select_interrupter8recreateEv@Base 1.0.4+dfsg0
 _ZN5boost4asio6detail23reactive_socket_serviceINS0_2ip3tcpEE6acceptINS0_12basic_socketIS4_NS0_21stream_socket_serviceIS4_EEEEEENS_6system10error_codeERNS5_19implementation_typeERT_PNS3_14basic_endpointIS4_EERSC_@Base 1.0.4+dfsg0
 _ZN5boost4asio6detail23reactive_socket_serviceINS0_2ip3tcpEE6assignERNS5_19implementation_typeERKS4_RKiRNS_6system10error_codeE@Base 1.0.4+dfsg0
 _ZN5boost4asio6detail28reactive_socket_service_base7do_openERNS2_24base_implementation_typeEiiiRNS_6system10error_codeE@Base 1.0.4+dfsg0
 _ZN5boost4asio6detail7tss_ptrINS1_10call_stackINS1_14strand_service11strand_implEhE7contextEED1Ev@Base 1.0.4+dfsg0
 _ZN5boost4asio6detail7tss_ptrINS1_10call_stackINS1_14strand_service11strand_implEhE7contextEED2Ev@Base 1.0.4+dfsg0
 _ZN5boost4asio6detail7tss_ptrINS1_10call_stackINS1_15task_io_serviceENS4_11thread_infoEE7contextEED1Ev@Base 1.0.4+dfsg0
 _ZN5boost4asio6detail7tss_ptrINS1_10call_stackINS1_15task_io_serviceENS4_11thread_infoEE7contextEED2Ev@Base 1.0.4+dfsg0
 _ZN5boost4asio6detail8hash_mapIiNS1_16reactor_op_queueIiE10operationsEE12values_eraseESt14_List_iteratorISt4pairIiS5_EE@Base 1.0.4+dfsg0
 _ZN5boost4asio6detail8hash_mapIiNS1_16reactor_op_queueIiE10operationsEE5eraseESt14_List_iteratorISt4pairIiS5_EE@Base 1.0.4+dfsg0
 _ZN5boost4asio6detail8hash_mapIiNS1_16reactor_op_queueIiE10operationsEED1Ev@Base 1.0.4+dfsg0
 _ZN5boost4asio6detail8hash_mapIiNS1_16reactor_op_queueIiE10operationsEED2Ev@Base 1.0.4+dfsg0
 _ZN5boost4asio6detail8op_queueINS1_10reactor_opEED1Ev@Base 1.0.4+dfsg0
 _ZN5boost4asio6detail8op_queueINS1_10reactor_opEED2Ev@Base 1.0.4+dfsg0
 _ZN5boost4asio6detail8op_queueINS1_25task_io_service_operationEED1Ev@Base 1.0.4+dfsg0
 _ZN5boost4asio6detail8op_queueINS1_25task_io_service_operationEED2Ev@Base 1.0.4+dfsg0
 _ZN5boost4bindIbN11OpenImageIO4v1_08PSDInputEjNS_3argILi1EEENS4_ILi2EEEEENS_3_bi6bind_tIT_NS_4_mfi3mf1IS9_T0_T1_EENS7_9list_av_2IT2_T3_E4typeEEEMSC_FS9_SD_ESG_SH_@Base 1.0.4+dfsg0
 _ZN5boost5mutex4lockEv@Base 1.0.4+dfsg0
 _ZN5boost5mutex6unlockEv@Base 1.0.4+dfsg0
 _ZN5boost5mutexC1Ev@Base 1.0.4+dfsg0
 _ZN5boost5mutexC2Ev@Base 1.0.4+dfsg0
 _ZN5boost5mutexD1Ev@Base 1.0.4+dfsg0
 _ZN5boost5mutexD2Ev@Base 1.0.4+dfsg0
 _ZN5boost6detail12shared_countC1IN11OpenImageIO4v1_010ImageInputEEEPT_@Base 1.0.4+dfsg0
 _ZN5boost6detail12shared_countC1IN11OpenImageIO4v1_03pvt14ImageCacheImplEEEPT_@Base 1.0.4+dfsg0
 _ZN5boost6detail12shared_countC1INS_11filesystem36detail11dir_itr_impEEEPT_@Base 1.0.4+dfsg0
 _ZN5boost6detail12shared_countC1INS_16exception_detail10clone_implINS3_10bad_alloc_EEEEEPT_@Base 1.0.4+dfsg0
 _ZN5boost6detail12shared_countC1INS_16exception_detail10clone_implINS3_14bad_exception_EEEEEPT_@Base 1.0.4+dfsg0
 _ZN5boost6detail12shared_countC1INS_4asio21basic_socket_acceptorINS3_2ip3tcpENS3_23socket_acceptor_serviceIS6_EEEEEEPT_@Base 1.0.4+dfsg0
 _ZN5boost6detail12shared_countC1IPNS_19thread_specific_ptrIN11OpenImageIO4v1_03pvt23ImageCachePerThreadInfoEE27run_custom_cleanup_functionENS0_14do_heap_deleteIS9_EEEET_T0_@Base 1.0.4+dfsg0
 _ZN5boost6detail12shared_countC1IPNS_19thread_specific_ptrISsE11delete_dataENS0_14do_heap_deleteIS5_EEEET_T0_@Base 1.0.4+dfsg0
 _ZN5boost6detail12shared_countC1ISt6vectorINS_4asio2ip20basic_resolver_entryINS5_3tcpEEESaIS8_EEEEPT_@Base 1.0.4+dfsg0
 _ZN5boost6detail12shared_countC2IN11OpenImageIO4v1_010ImageInputEEEPT_@Base 1.0.4+dfsg0
 _ZN5boost6detail12shared_countC2IN11OpenImageIO4v1_03pvt14ImageCacheImplEEEPT_@Base 1.0.4+dfsg0
 _ZN5boost6detail12shared_countC2INS_11filesystem36detail11dir_itr_impEEEPT_@Base 1.0.4+dfsg0
 _ZN5boost6detail12shared_countC2INS_16exception_detail10clone_implINS3_10bad_alloc_EEEEEPT_@Base 1.0.4+dfsg0
 _ZN5boost6detail12shared_countC2INS_16exception_detail10clone_implINS3_14bad_exception_EEEEEPT_@Base 1.0.4+dfsg0
 _ZN5boost6detail12shared_countC2INS_4asio21basic_socket_acceptorINS3_2ip3tcpENS3_23socket_acceptor_serviceIS6_EEEEEEPT_@Base 1.0.4+dfsg0
 _ZN5boost6detail12shared_countC2IPNS_19thread_specific_ptrIN11OpenImageIO4v1_03pvt23ImageCachePerThreadInfoEE27run_custom_cleanup_functionENS0_14do_heap_deleteIS9_EEEET_T0_@Base 1.0.4+dfsg0
 _ZN5boost6detail12shared_countC2IPNS_19thread_specific_ptrISsE11delete_dataENS0_14do_heap_deleteIS5_EEEET_T0_@Base 1.0.4+dfsg0
 _ZN5boost6detail12shared_countC2ISt6vectorINS_4asio2ip20basic_resolver_entryINS5_3tcpEEESaIS8_EEEEPT_@Base 1.0.4+dfsg0
 _ZN5boost6detail12shared_countD1Ev@Base 1.0.4+dfsg0
 _ZN5boost6detail12shared_countD2Ev@Base 1.0.4+dfsg0
 _ZN5boost6detail15sp_counted_base7destroyEv@Base 1.0.4+dfsg0
 _ZN5boost6detail15sp_counted_base7releaseEv@Base 1.0.4+dfsg0
 _ZN5boost6detail15sp_counted_baseD0Ev@Base 1.0.4+dfsg0
 _ZN5boost6detail15sp_counted_baseD1Ev@Base 1.0.4+dfsg0
 _ZN5boost6detail15sp_counted_baseD2Ev@Base 1.0.4+dfsg0
 _ZN5boost6detail17sp_counted_impl_pIN11OpenImageIO4v1_010ImageInputEE11get_deleterERKSt9type_info@Base 1.0.4+dfsg0
 _ZN5boost6detail17sp_counted_impl_pIN11OpenImageIO4v1_010ImageInputEE7disposeEv@Base 1.0.4+dfsg0
 _ZN5boost6detail17sp_counted_impl_pIN11OpenImageIO4v1_010ImageInputEED0Ev@Base 1.0.4+dfsg0
 _ZN5boost6detail17sp_counted_impl_pIN11OpenImageIO4v1_010ImageInputEED1Ev@Base 1.0.4+dfsg0
 _ZN5boost6detail17sp_counted_impl_pIN11OpenImageIO4v1_010ImageInputEED2Ev@Base 1.0.4+dfsg0
 _ZN5boost6detail17sp_counted_impl_pIN11OpenImageIO4v1_03pvt14ImageCacheImplEE11get_deleterERKSt9type_info@Base 1.0.4+dfsg0
 _ZN5boost6detail17sp_counted_impl_pIN11OpenImageIO4v1_03pvt14ImageCacheImplEE7disposeEv@Base 1.0.4+dfsg0
 _ZN5boost6detail17sp_counted_impl_pIN11OpenImageIO4v1_03pvt14ImageCacheImplEED0Ev@Base 1.0.4+dfsg0
 _ZN5boost6detail17sp_counted_impl_pIN11OpenImageIO4v1_03pvt14ImageCacheImplEED1Ev@Base 1.0.4+dfsg0
 _ZN5boost6detail17sp_counted_impl_pIN11OpenImageIO4v1_03pvt14ImageCacheImplEED2Ev@Base 1.0.4+dfsg0
 _ZN5boost6detail17sp_counted_impl_pINS_11filesystem36detail11dir_itr_impEE11get_deleterERKSt9type_info@Base 1.0.4+dfsg0
 _ZN5boost6detail17sp_counted_impl_pINS_11filesystem36detail11dir_itr_impEE7disposeEv@Base 1.0.4+dfsg0
 _ZN5boost6detail17sp_counted_impl_pINS_11filesystem36detail11dir_itr_impEED0Ev@Base 1.0.4+dfsg0
 _ZN5boost6detail17sp_counted_impl_pINS_11filesystem36detail11dir_itr_impEED1Ev@Base 1.0.4+dfsg0
 _ZN5boost6detail17sp_counted_impl_pINS_11filesystem36detail11dir_itr_impEED2Ev@Base 1.0.4+dfsg0
 _ZN5boost6detail17sp_counted_impl_pINS_16exception_detail10clone_implINS2_10bad_alloc_EEEE11get_deleterERKSt9type_info@Base 1.0.4+dfsg0
 _ZN5boost6detail17sp_counted_impl_pINS_16exception_detail10clone_implINS2_10bad_alloc_EEEE7disposeEv@Base 1.0.4+dfsg0
 _ZN5boost6detail17sp_counted_impl_pINS_16exception_detail10clone_implINS2_10bad_alloc_EEEED0Ev@Base 1.0.4+dfsg0
 _ZN5boost6detail17sp_counted_impl_pINS_16exception_detail10clone_implINS2_10bad_alloc_EEEED1Ev@Base 1.0.4+dfsg0
 _ZN5boost6detail17sp_counted_impl_pINS_16exception_detail10clone_implINS2_10bad_alloc_EEEED2Ev@Base 1.0.4+dfsg0
 _ZN5boost6detail17sp_counted_impl_pINS_16exception_detail10clone_implINS2_14bad_exception_EEEE11get_deleterERKSt9type_info@Base 1.0.4+dfsg0
 _ZN5boost6detail17sp_counted_impl_pINS_16exception_detail10clone_implINS2_14bad_exception_EEEE7disposeEv@Base 1.0.4+dfsg0
 _ZN5boost6detail17sp_counted_impl_pINS_16exception_detail10clone_implINS2_14bad_exception_EEEED0Ev@Base 1.0.4+dfsg0
 _ZN5boost6detail17sp_counted_impl_pINS_16exception_detail10clone_implINS2_14bad_exception_EEEED1Ev@Base 1.0.4+dfsg0
 _ZN5boost6detail17sp_counted_impl_pINS_16exception_detail10clone_implINS2_14bad_exception_EEEED2Ev@Base 1.0.4+dfsg0
 _ZN5boost6detail17sp_counted_impl_pINS_4asio21basic_socket_acceptorINS2_2ip3tcpENS2_23socket_acceptor_serviceIS5_EEEEE11get_deleterERKSt9type_info@Base 1.0.4+dfsg0
 _ZN5boost6detail17sp_counted_impl_pINS_4asio21basic_socket_acceptorINS2_2ip3tcpENS2_23socket_acceptor_serviceIS5_EEEEE7disposeEv@Base 1.0.4+dfsg0
 _ZN5boost6detail17sp_counted_impl_pINS_4asio21basic_socket_acceptorINS2_2ip3tcpENS2_23socket_acceptor_serviceIS5_EEEEED0Ev@Base 1.0.4+dfsg0
 _ZN5boost6detail17sp_counted_impl_pINS_4asio21basic_socket_acceptorINS2_2ip3tcpENS2_23socket_acceptor_serviceIS5_EEEEED1Ev@Base 1.0.4+dfsg0
 _ZN5boost6detail17sp_counted_impl_pINS_4asio21basic_socket_acceptorINS2_2ip3tcpENS2_23socket_acceptor_serviceIS5_EEEEED2Ev@Base 1.0.4+dfsg0
 _ZN5boost6detail17sp_counted_impl_pISt6vectorINS_4asio2ip20basic_resolver_entryINS4_3tcpEEESaIS7_EEE11get_deleterERKSt9type_info@Base 1.0.4+dfsg0
 _ZN5boost6detail17sp_counted_impl_pISt6vectorINS_4asio2ip20basic_resolver_entryINS4_3tcpEEESaIS7_EEE7disposeEv@Base 1.0.4+dfsg0
 _ZN5boost6detail17sp_counted_impl_pISt6vectorINS_4asio2ip20basic_resolver_entryINS4_3tcpEEESaIS7_EEED0Ev@Base 1.0.4+dfsg0
 _ZN5boost6detail17sp_counted_impl_pISt6vectorINS_4asio2ip20basic_resolver_entryINS4_3tcpEEESaIS7_EEED1Ev@Base 1.0.4+dfsg0
 _ZN5boost6detail17sp_counted_impl_pISt6vectorINS_4asio2ip20basic_resolver_entryINS4_3tcpEEESaIS7_EEED2Ev@Base 1.0.4+dfsg0
 _ZN5boost6detail18sp_counted_impl_pdIPNS_19thread_specific_ptrIN11OpenImageIO4v1_03pvt23ImageCachePerThreadInfoEE27run_custom_cleanup_functionENS0_14do_heap_deleteIS8_EEE11get_deleterERKSt9type_info@Base 1.0.4+dfsg0
 _ZN5boost6detail18sp_counted_impl_pdIPNS_19thread_specific_ptrIN11OpenImageIO4v1_03pvt23ImageCachePerThreadInfoEE27run_custom_cleanup_functionENS0_14do_heap_deleteIS8_EEE7disposeEv@Base 1.0.4+dfsg0
 _ZN5boost6detail18sp_counted_impl_pdIPNS_19thread_specific_ptrIN11OpenImageIO4v1_03pvt23ImageCachePerThreadInfoEE27run_custom_cleanup_functionENS0_14do_heap_deleteIS8_EEED0Ev@Base 1.0.4+dfsg0
 _ZN5boost6detail18sp_counted_impl_pdIPNS_19thread_specific_ptrIN11OpenImageIO4v1_03pvt23ImageCachePerThreadInfoEE27run_custom_cleanup_functionENS0_14do_heap_deleteIS8_EEED1Ev@Base 1.0.4+dfsg0
 _ZN5boost6detail18sp_counted_impl_pdIPNS_19thread_specific_ptrIN11OpenImageIO4v1_03pvt23ImageCachePerThreadInfoEE27run_custom_cleanup_functionENS0_14do_heap_deleteIS8_EEED2Ev@Base 1.0.4+dfsg0
 _ZN5boost6detail18sp_counted_impl_pdIPNS_19thread_specific_ptrISsE11delete_dataENS0_14do_heap_deleteIS4_EEE11get_deleterERKSt9type_info@Base 1.0.4+dfsg0
 _ZN5boost6detail18sp_counted_impl_pdIPNS_19thread_specific_ptrISsE11delete_dataENS0_14do_heap_deleteIS4_EEE7disposeEv@Base 1.0.4+dfsg0
 _ZN5boost6detail18sp_counted_impl_pdIPNS_19thread_specific_ptrISsE11delete_dataENS0_14do_heap_deleteIS4_EEED0Ev@Base 1.0.4+dfsg0
 _ZN5boost6detail18sp_counted_impl_pdIPNS_19thread_specific_ptrISsE11delete_dataENS0_14do_heap_deleteIS4_EEED1Ev@Base 1.0.4+dfsg0
 _ZN5boost6detail18sp_counted_impl_pdIPNS_19thread_specific_ptrISsE11delete_dataENS0_14do_heap_deleteIS4_EEED2Ev@Base 1.0.4+dfsg0
 _ZN5boost6detail18sp_counted_impl_pdIPvNS_4asio6detail10socket_ops12noop_deleterEE11get_deleterERKSt9type_info@Base 1.0.4+dfsg0
 _ZN5boost6detail18sp_counted_impl_pdIPvNS_4asio6detail10socket_ops12noop_deleterEE7disposeEv@Base 1.0.4+dfsg0
 _ZN5boost6detail18sp_counted_impl_pdIPvNS_4asio6detail10socket_ops12noop_deleterEED0Ev@Base 1.0.4+dfsg0
 _ZN5boost6detail18sp_counted_impl_pdIPvNS_4asio6detail10socket_ops12noop_deleterEED1Ev@Base 1.0.4+dfsg0
 _ZN5boost6detail18sp_counted_impl_pdIPvNS_4asio6detail10socket_ops12noop_deleterEED2Ev@Base 1.0.4+dfsg0
 _ZN5boost6detail20tss_cleanup_functionD0Ev@Base 1.0.4+dfsg0
 _ZN5boost6detail20tss_cleanup_functionD1Ev@Base 1.0.4+dfsg0
 _ZN5boost6detail20tss_cleanup_functionD2Ev@Base 1.0.4+dfsg0
 _ZN5boost6detail8function15functor_managerINS_3_bi6bind_tIbNS_4_mfi3mf1IbN11OpenImageIO4v1_08PSDInputEjEENS3_5list2INS_3argILi1EEENSC_ILi2EEEEEEEE6manageERKNS1_15function_bufferERSI_NS1_30functor_manager_operation_typeE@Base 1.0.4+dfsg0
 _ZN5boost6detail8function16has_empty_targetEz@Base 1.0.4+dfsg0
 _ZN5boost6detail8function21function_obj_invoker2INS_3_bi6bind_tIbNS_4_mfi3mf1IbN11OpenImageIO4v1_08PSDInputEjEENS3_5list2INS_3argILi1EEENSC_ILi2EEEEEEEbPS9_jE6invokeERNS1_15function_bufferESH_j@Base 1.0.4+dfsg0
 _ZN5boost6detail8function22functor_manager_commonINS_3_bi6bind_tIbNS_4_mfi3mf1IbN11OpenImageIO4v1_08PSDInputEjEENS3_5list2INS_3argILi1EEENSC_ILi2EEEEEEEE12manage_smallERKNS1_15function_bufferERSI_NS1_30functor_manager_operation_typeE@Base 1.0.4+dfsg0
 _ZN5boost6system10error_code21unspecified_bool_trueEv@Base 1.0.4+dfsg0
 _ZN5boost6system12system_errorC1ENS0_10error_codeE@Base 1.0.4+dfsg0
 _ZN5boost6system12system_errorC1ENS0_10error_codeEPKc@Base 1.0.4+dfsg0
 _ZN5boost6system12system_errorC1ERKS1_@Base 1.0.4+dfsg0
 _ZN5boost6system12system_errorC2ENS0_10error_codeE@Base 1.0.4+dfsg0
 _ZN5boost6system12system_errorC2ENS0_10error_codeEPKc@Base 1.0.4+dfsg0
 _ZN5boost6system12system_errorC2ERKS1_@Base 1.0.4+dfsg0
 _ZN5boost6system12system_errorD0Ev@Base 1.0.4+dfsg0
 _ZN5boost6system12system_errorD1Ev@Base 1.0.4+dfsg0
 _ZN5boost6system12system_errorD2Ev@Base 1.0.4+dfsg0
 _ZN5boost6system14error_categoryD0Ev@Base 1.0.4+dfsg0
 _ZN5boost6system14error_categoryD1Ev@Base 1.0.4+dfsg0
 _ZN5boost6system14error_categoryD2Ev@Base 1.0.4+dfsg0
 _ZN5boost8functionIFbPN11OpenImageIO4v1_08PSDInputEjEEC1INS_3_bi6bind_tIbNS_4_mfi3mf1IbS3_jEENS8_5list2INS_3argILi1EEENSE_ILi2EEEEEEEEET_NS_11enable_if_cIXsrNS_11type_traits7ice_notIXsrNS_11is_integralISJ_EE5valueEEE5valueEiE4typeE@Base 1.0.4+dfsg0
 _ZN5boost8functionIFbPN11OpenImageIO4v1_08PSDInputEjEEC2INS_3_bi6bind_tIbNS_4_mfi3mf1IbS3_jEENS8_5list2INS_3argILi1EEENSE_ILi2EEEEEEEEET_NS_11enable_if_cIXsrNS_11type_traits7ice_notIXsrNS_11is_integralISJ_EE5valueEEE5valueEiE4typeE@Base 1.0.4+dfsg0
 _ZN5boost9algorithm11starts_withISsA6_cNS0_8is_equalEEEbRKT_RKT0_T1_@Base 1.0.4+dfsg0
 _ZN5boost9algorithm9is_iequalD1Ev@Base 1.0.4+dfsg0
 _ZN5boost9algorithm9is_iequalD2Ev@Base 1.0.4+dfsg0
 _ZN5boost9exceptionD0Ev@Base 1.0.4+dfsg0
 _ZN5boost9exceptionD1Ev@Base 1.0.4+dfsg0
 _ZN5boost9exceptionD2Ev@Base 1.0.4+dfsg0
 _ZN5boost9re_detail11raise_errorINS_20regex_traits_wrapperINS_12regex_traitsIcNS_16cpp_regex_traitsIcEEEEEEEEvRKT_NS_15regex_constants10error_typeE@Base 1.0.4+dfsg0
 _ZN5boost9re_detail12perl_matcherIN9__gnu_cxx17__normal_iteratorIPKcSsEESaINS_9sub_matchIS6_EEENS_12regex_traitsIcNS_16cpp_regex_traitsIcEEEEE10match_jumpEv@Base 1.0.4+dfsg0
 _ZN5boost9re_detail12perl_matcherIN9__gnu_cxx17__normal_iteratorIPKcSsEESaINS_9sub_matchIS6_EEENS_12regex_traitsIcNS_16cpp_regex_traitsIcEEEEE10match_wildEv@Base 1.0.4+dfsg0
 _ZN5boost9re_detail12perl_matcherIN9__gnu_cxx17__normal_iteratorIPKcSsEESaINS_9sub_matchIS6_EEENS_12regex_traitsIcNS_16cpp_regex_traitsIcEEEEE10unwind_altEb@Base 1.0.4+dfsg0
 _ZN5boost9re_detail12perl_matcherIN9__gnu_cxx17__normal_iteratorIPKcSsEESaINS_9sub_matchIS6_EEENS_12regex_traitsIcNS_16cpp_regex_traitsIcEEEEE10unwind_endEb@Base 1.0.4+dfsg0
 _ZN5boost9re_detail12perl_matcherIN9__gnu_cxx17__normal_iteratorIPKcSsEESaINS_9sub_matchIS6_EEENS_12regex_traitsIcNS_16cpp_regex_traitsIcEEEEE11match_matchEv@Base 1.0.4+dfsg0
 _ZN5boost9re_detail12perl_matcherIN9__gnu_cxx17__normal_iteratorIPKcSsEESaINS_9sub_matchIS6_EEENS_12regex_traitsIcNS_16cpp_regex_traitsIcEEEEE12extend_stackEv@Base 1.0.4+dfsg0
 _ZN5boost9re_detail12perl_matcherIN9__gnu_cxx17__normal_iteratorIPKcSsEESaINS_9sub_matchIS6_EEENS_12regex_traitsIcNS_16cpp_regex_traitsIcEEEEE12match_prefixEv@Base 1.0.4+dfsg0
 _ZN5boost9re_detail12perl_matcherIN9__gnu_cxx17__normal_iteratorIPKcSsEESaINS_9sub_matchIS6_EEENS_12regex_traitsIcNS_16cpp_regex_traitsIcEEEEE12unwind_parenEb@Base 1.0.4+dfsg0
 _ZN5boost9re_detail12perl_matcherIN9__gnu_cxx17__normal_iteratorIPKcSsEESaINS_9sub_matchIS6_EEENS_12regex_traitsIcNS_16cpp_regex_traitsIcEEEEE13match_backrefEv@Base 1.0.4+dfsg0
 _ZN5boost9re_detail12perl_matcherIN9__gnu_cxx17__normal_iteratorIPKcSsEESaINS_9sub_matchIS6_EEENS_12regex_traitsIcNS_16cpp_regex_traitsIcEEEEE13match_endmarkEv@Base 1.0.4+dfsg0
 _ZN5boost9re_detail12perl_matcherIN9__gnu_cxx17__normal_iteratorIPKcSsEESaINS_9sub_matchIS6_EEENS_12regex_traitsIcNS_16cpp_regex_traitsIcEEEEE13match_literalEv@Base 1.0.4+dfsg0
 _ZN5boost9re_detail12perl_matcherIN9__gnu_cxx17__normal_iteratorIPKcSsEESaINS_9sub_matchIS6_EEENS_12regex_traitsIcNS_16cpp_regex_traitsIcEEEEE14match_backstepEv@Base 1.0.4+dfsg0
 _ZN5boost9re_detail12perl_matcherIN9__gnu_cxx17__normal_iteratorIPKcSsEESaINS_9sub_matchIS6_EEENS_12regex_traitsIcNS_16cpp_regex_traitsIcEEEEE14match_end_lineEv@Base 1.0.4+dfsg0
 _ZN5boost9re_detail12perl_matcherIN9__gnu_cxx17__normal_iteratorIPKcSsEESaINS_9sub_matchIS6_EEENS_12regex_traitsIcNS_16cpp_regex_traitsIcEEEEE14match_long_setEv@Base 1.0.4+dfsg0
 _ZN5boost9re_detail12perl_matcherIN9__gnu_cxx17__normal_iteratorIPKcSsEESaINS_9sub_matchIS6_EEENS_12regex_traitsIcNS_16cpp_regex_traitsIcEEEEE14match_word_endEv@Base 1.0.4+dfsg0
 _ZN5boost9re_detail12perl_matcherIN9__gnu_cxx17__normal_iteratorIPKcSsEESaINS_9sub_matchIS6_EEENS_12regex_traitsIcNS_16cpp_regex_traitsIcEEEEE14push_assertionEPKNS0_14re_syntax_baseEb@Base 1.0.4+dfsg0
 _ZN5boost9re_detail12perl_matcherIN9__gnu_cxx17__normal_iteratorIPKcSsEESaINS_9sub_matchIS6_EEENS_12regex_traitsIcNS_16cpp_regex_traitsIcEEEEE14push_recursionEiPKNS0_14re_syntax_baseEPNS_13match_resultsIS6_S9_EE@Base 1.0.4+dfsg0
 _ZN5boost9re_detail12perl_matcherIN9__gnu_cxx17__normal_iteratorIPKcSsEESaINS_9sub_matchIS6_EEENS_12regex_traitsIcNS_16cpp_regex_traitsIcEEEEE15match_combiningEv@Base 1.0.4+dfsg0
 _ZN5boost9re_detail12perl_matcherIN9__gnu_cxx17__normal_iteratorIPKcSsEESaINS_9sub_matchIS6_EEENS_12regex_traitsIcNS_16cpp_regex_traitsIcEEEEE15match_recursionEv@Base 1.0.4+dfsg0
 _ZN5boost9re_detail12perl_matcherIN9__gnu_cxx17__normal_iteratorIPKcSsEESaINS_9sub_matchIS6_EEENS_12regex_traitsIcNS_16cpp_regex_traitsIcEEEEE15match_startmarkEv@Base 1.0.4+dfsg0
 _ZN5boost9re_detail12perl_matcherIN9__gnu_cxx17__normal_iteratorIPKcSsEESaINS_9sub_matchIS6_EEENS_12regex_traitsIcNS_16cpp_regex_traitsIcEEEEE16find_restart_anyEv@Base 1.0.4+dfsg0
 _ZN5boost9re_detail12perl_matcherIN9__gnu_cxx17__normal_iteratorIPKcSsEESaINS_9sub_matchIS6_EEENS_12regex_traitsIcNS_16cpp_regex_traitsIcEEEEE16find_restart_bufEv@Base 1.0.4+dfsg0
 _ZN5boost9re_detail12perl_matcherIN9__gnu_cxx17__normal_iteratorIPKcSsEESaINS_9sub_matchIS6_EEENS_12regex_traitsIcNS_16cpp_regex_traitsIcEEEEE16find_restart_litEv@Base 1.0.4+dfsg0
 _ZN5boost9re_detail12perl_matcherIN9__gnu_cxx17__normal_iteratorIPKcSsEESaINS_9sub_matchIS6_EEENS_12regex_traitsIcNS_16cpp_regex_traitsIcEEEEE16match_all_statesEv@Base 1.0.4+dfsg0
 _ZN5boost9re_detail12perl_matcherIN9__gnu_cxx17__normal_iteratorIPKcSsEESaINS_9sub_matchIS6_EEENS_12regex_traitsIcNS_16cpp_regex_traitsIcEEEEE16match_buffer_endEv@Base 1.0.4+dfsg0
 _ZN5boost9re_detail12perl_matcherIN9__gnu_cxx17__normal_iteratorIPKcSsEESaINS_9sub_matchIS6_EEENS_12regex_traitsIcNS_16cpp_regex_traitsIcEEEEE16match_set_repeatEv@Base 1.0.4+dfsg0
 _ZN5boost9re_detail12perl_matcherIN9__gnu_cxx17__normal_iteratorIPKcSsEESaINS_9sub_matchIS6_EEENS_12regex_traitsIcNS_16cpp_regex_traitsIcEEEEE16match_start_lineEv@Base 1.0.4+dfsg0
 _ZN5boost9re_detail12perl_matcherIN9__gnu_cxx17__normal_iteratorIPKcSsEESaINS_9sub_matchIS6_EEENS_12regex_traitsIcNS_16cpp_regex_traitsIcEEEEE16match_word_startEv@Base 1.0.4+dfsg0
 _ZN5boost9re_detail12perl_matcherIN9__gnu_cxx17__normal_iteratorIPKcSsEESaINS_9sub_matchIS6_EEENS_12regex_traitsIcNS_16cpp_regex_traitsIcEEEEE16unwind_assertionEb@Base 1.0.4+dfsg0
 _ZN5boost9re_detail12perl_matcherIN9__gnu_cxx17__normal_iteratorIPKcSsEESaINS_9sub_matchIS6_EEENS_12regex_traitsIcNS_16cpp_regex_traitsIcEEEEE16unwind_recursionEb@Base 1.0.4+dfsg0
 _ZN5boost9re_detail12perl_matcherIN9__gnu_cxx17__normal_iteratorIPKcSsEESaINS_9sub_matchIS6_EEENS_12regex_traitsIcNS_16cpp_regex_traitsIcEEEEE17find_restart_lineEv@Base 1.0.4+dfsg0
 _ZN5boost9re_detail12perl_matcherIN9__gnu_cxx17__normal_iteratorIPKcSsEESaINS_9sub_matchIS6_EEENS_12regex_traitsIcNS_16cpp_regex_traitsIcEEEEE17find_restart_wordEv@Base 1.0.4+dfsg0
 _ZN5boost9re_detail12perl_matcherIN9__gnu_cxx17__normal_iteratorIPKcSsEESaINS_9sub_matchIS6_EEENS_12regex_traitsIcNS_16cpp_regex_traitsIcEEEEE17match_char_repeatEv@Base 1.0.4+dfsg0
 _ZN5boost9re_detail12perl_matcherIN9__gnu_cxx17__normal_iteratorIPKcSsEESaINS_9sub_matchIS6_EEENS_12regex_traitsIcNS_16cpp_regex_traitsIcEEEEE17match_toggle_caseEv@Base 1.0.4+dfsg0
 _ZN5boost9re_detail12perl_matcherIN9__gnu_cxx17__normal_iteratorIPKcSsEESaINS_9sub_matchIS6_EEENS_12regex_traitsIcNS_16cpp_regex_traitsIcEEEEE17match_within_wordEv@Base 1.0.4+dfsg0
 _ZN5boost9re_detail12perl_matcherIN9__gnu_cxx17__normal_iteratorIPKcSsEESaINS_9sub_matchIS6_EEENS_12regex_traitsIcNS_16cpp_regex_traitsIcEEEEE18match_buffer_startEv@Base 1.0.4+dfsg0
 _ZN5boost9re_detail12perl_matcherIN9__gnu_cxx17__normal_iteratorIPKcSsEESaINS_9sub_matchIS6_EEENS_12regex_traitsIcNS_16cpp_regex_traitsIcEEEEE18push_single_repeatEjPKNS0_9re_repeatES6_i@Base 1.0.4+dfsg0
 _ZN5boost9re_detail12perl_matcherIN9__gnu_cxx17__normal_iteratorIPKcSsEESaINS_9sub_matchIS6_EEENS_12regex_traitsIcNS_16cpp_regex_traitsIcEEEEE18unwind_char_repeatEb@Base 1.0.4+dfsg0
 _ZN5boost9re_detail12perl_matcherIN9__gnu_cxx17__normal_iteratorIPKcSsEESaINS_9sub_matchIS6_EEENS_12regex_traitsIcNS_16cpp_regex_traitsIcEEEEE18unwind_extra_blockEb@Base 1.0.4+dfsg0
 _ZN5boost9re_detail12perl_matcherIN9__gnu_cxx17__normal_iteratorIPKcSsEESaINS_9sub_matchIS6_EEENS_12regex_traitsIcNS_16cpp_regex_traitsIcEEEEE19match_word_boundaryEv@Base 1.0.4+dfsg0
 _ZN5boost9re_detail12perl_matcherIN9__gnu_cxx17__normal_iteratorIPKcSsEESaINS_9sub_matchIS6_EEENS_12regex_traitsIcNS_16cpp_regex_traitsIcEEEEE19push_repeater_countEiPPNS0_14repeater_countIS6_EE@Base 1.0.4+dfsg0
 _ZN5boost9re_detail12perl_matcherIN9__gnu_cxx17__normal_iteratorIPKcSsEESaINS_9sub_matchIS6_EEENS_12regex_traitsIcNS_16cpp_regex_traitsIcEEEEE20match_assert_backrefEv@Base 1.0.4+dfsg0
 _ZN5boost9re_detail12perl_matcherIN9__gnu_cxx17__normal_iteratorIPKcSsEESaINS_9sub_matchIS6_EEENS_12regex_traitsIcNS_16cpp_regex_traitsIcEEEEE20unwind_recursion_popEb@Base 1.0.4+dfsg0
 _ZN5boost9re_detail12perl_matcherIN9__gnu_cxx17__normal_iteratorIPKcSsEESaINS_9sub_matchIS6_EEENS_12regex_traitsIcNS_16cpp_regex_traitsIcEEEEE21match_dot_repeat_fastEv@Base 1.0.4+dfsg0
 _ZN5boost9re_detail12perl_matcherIN9__gnu_cxx17__normal_iteratorIPKcSsEESaINS_9sub_matchIS6_EEENS_12regex_traitsIcNS_16cpp_regex_traitsIcEEEEE21match_dot_repeat_slowEv@Base 1.0.4+dfsg0
 _ZN5boost9re_detail12perl_matcherIN9__gnu_cxx17__normal_iteratorIPKcSsEESaINS_9sub_matchIS6_EEENS_12regex_traitsIcNS_16cpp_regex_traitsIcEEEEE21match_long_set_repeatEv@Base 1.0.4+dfsg0
 _ZN5boost9re_detail12perl_matcherIN9__gnu_cxx17__normal_iteratorIPKcSsEESaINS_9sub_matchIS6_EEENS_12regex_traitsIcNS_16cpp_regex_traitsIcEEEEE21match_soft_buffer_endEv@Base 1.0.4+dfsg0
 _ZN5boost9re_detail12perl_matcherIN9__gnu_cxx17__normal_iteratorIPKcSsEESaINS_9sub_matchIS6_EEENS_12regex_traitsIcNS_16cpp_regex_traitsIcEEEEE22match_restart_continueEv@Base 1.0.4+dfsg0
 _ZN5boost9re_detail12perl_matcherIN9__gnu_cxx17__normal_iteratorIPKcSsEESaINS_9sub_matchIS6_EEENS_12regex_traitsIcNS_16cpp_regex_traitsIcEEEEE22push_non_greedy_repeatEPKNS0_14re_syntax_baseE@Base 1.0.4+dfsg0
 _ZN5boost9re_detail12perl_matcherIN9__gnu_cxx17__normal_iteratorIPKcSsEESaINS_9sub_matchIS6_EEENS_12regex_traitsIcNS_16cpp_regex_traitsIcEEEEE22unwind_fast_dot_repeatEb@Base 1.0.4+dfsg0
 _ZN5boost9re_detail12perl_matcherIN9__gnu_cxx17__normal_iteratorIPKcSsEESaINS_9sub_matchIS6_EEENS_12regex_traitsIcNS_16cpp_regex_traitsIcEEEEE22unwind_long_set_repeatEb@Base 1.0.4+dfsg0
 _ZN5boost9re_detail12perl_matcherIN9__gnu_cxx17__normal_iteratorIPKcSsEESaINS_9sub_matchIS6_EEENS_12regex_traitsIcNS_16cpp_regex_traitsIcEEEEE22unwind_slow_dot_repeatEb@Base 1.0.4+dfsg0
 _ZN5boost9re_detail12perl_matcherIN9__gnu_cxx17__normal_iteratorIPKcSsEESaINS_9sub_matchIS6_EEENS_12regex_traitsIcNS_16cpp_regex_traitsIcEEEEE23unwind_repeater_counterEb@Base 1.0.4+dfsg0
 _ZN5boost9re_detail12perl_matcherIN9__gnu_cxx17__normal_iteratorIPKcSsEESaINS_9sub_matchIS6_EEENS_12regex_traitsIcNS_16cpp_regex_traitsIcEEEEE23unwind_short_set_repeatEb@Base 1.0.4+dfsg0
 _ZN5boost9re_detail12perl_matcherIN9__gnu_cxx17__normal_iteratorIPKcSsEESaINS_9sub_matchIS6_EEENS_12regex_traitsIcNS_16cpp_regex_traitsIcEEEEE24unwind_non_greedy_repeatEb@Base 1.0.4+dfsg0
 _ZN5boost9re_detail12perl_matcherIN9__gnu_cxx17__normal_iteratorIPKcSsEESaINS_9sub_matchIS6_EEENS_12regex_traitsIcNS_16cpp_regex_traitsIcEEEEE24unwind_recursion_stopperEb@Base 1.0.4+dfsg0
 _ZN5boost9re_detail12perl_matcherIN9__gnu_cxx17__normal_iteratorIPKcSsEESaINS_9sub_matchIS6_EEENS_12regex_traitsIcNS_16cpp_regex_traitsIcEEEEE25match_dot_repeat_dispatchEv@Base 1.0.4+dfsg0
 _ZN5boost9re_detail12perl_matcherIN9__gnu_cxx17__normal_iteratorIPKcSsEESaINS_9sub_matchIS6_EEENS_12regex_traitsIcNS_16cpp_regex_traitsIcEEEEE27unwind_greedy_single_repeatEb@Base 1.0.4+dfsg0
 _ZN5boost9re_detail12perl_matcherIN9__gnu_cxx17__normal_iteratorIPKcSsEESaINS_9sub_matchIS6_EEENS_12regex_traitsIcNS_16cpp_regex_traitsIcEEEEE6unwindEb@Base 1.0.4+dfsg0
 _ZN5boost9re_detail12perl_matcherIN9__gnu_cxx17__normal_iteratorIPKcSsEESaINS_9sub_matchIS6_EEENS_12regex_traitsIcNS_16cpp_regex_traitsIcEEEEE8find_impEv@Base 1.0.4+dfsg0
 _ZN5boost9re_detail12perl_matcherIN9__gnu_cxx17__normal_iteratorIPKcSsEESaINS_9sub_matchIS6_EEENS_12regex_traitsIcNS_16cpp_regex_traitsIcEEEEE8push_altEPKNS0_14re_syntax_baseE@Base 1.0.4+dfsg0
 _ZN5boost9re_detail12perl_matcherIN9__gnu_cxx17__normal_iteratorIPKcSsEESaINS_9sub_matchIS6_EEENS_12regex_traitsIcNS_16cpp_regex_traitsIcEEEEE9match_altEv@Base 1.0.4+dfsg0
 _ZN5boost9re_detail12perl_matcherIN9__gnu_cxx17__normal_iteratorIPKcSsEESaINS_9sub_matchIS6_EEENS_12regex_traitsIcNS_16cpp_regex_traitsIcEEEEE9match_repEv@Base 1.0.4+dfsg0
 _ZN5boost9re_detail12perl_matcherIN9__gnu_cxx17__normal_iteratorIPKcSsEESaINS_9sub_matchIS6_EEENS_12regex_traitsIcNS_16cpp_regex_traitsIcEEEEE9match_setEv@Base 1.0.4+dfsg0
 _ZN5boost9re_detail12perl_matcherIN9__gnu_cxx17__normal_iteratorIPKcSsEESaINS_9sub_matchIS6_EEENS_12regex_traitsIcNS_16cpp_regex_traitsIcEEEEED1Ev@Base 1.0.4+dfsg0
 _ZN5boost9re_detail12perl_matcherIN9__gnu_cxx17__normal_iteratorIPKcSsEESaINS_9sub_matchIS6_EEENS_12regex_traitsIcNS_16cpp_regex_traitsIcEEEEED2Ev@Base 1.0.4+dfsg0
 _ZN5boost9re_detail14repeater_countIN9__gnu_cxx17__normal_iteratorIPKcSsEEEC1EiPPS7_S6_@Base 1.0.4+dfsg0
 _ZN5boost9re_detail14repeater_countIN9__gnu_cxx17__normal_iteratorIPKcSsEEEC2EiPPS7_S6_@Base 1.0.4+dfsg0
 _ZN5boost9re_detail15save_state_initD1Ev@Base 1.0.4+dfsg0
 _ZN5boost9re_detail15save_state_initD2Ev@Base 1.0.4+dfsg0
 _ZN5boost9re_detail16re_is_set_memberIN9__gnu_cxx17__normal_iteratorIPKcSsEEcNS_12regex_traitsIcNS_16cpp_regex_traitsIcEEEEjEET_SB_SB_PKNS0_11re_set_longIT2_EERKNS0_10regex_dataIT0_T1_EEb@Base 1.0.4+dfsg0
 _ZN5boost9tokenizerINS_14char_separatorIcSt11char_traitsIcEEEN9__gnu_cxx17__normal_iteratorIPKcSsEESsED1Ev@Base 1.0.4+dfsg0
 _ZN5boost9tokenizerINS_14char_separatorIcSt11char_traitsIcEEEN9__gnu_cxx17__normal_iteratorIPKcSsEESsED2Ev@Base 1.0.4+dfsg0
 _ZN5boost9unordered13unordered_mapIN11OpenImageIO4v1_03pvt6TileIDENS_13intrusive_ptrINS4_14ImageCacheTileEEENS5_6HasherESt8equal_toIS5_ESaISt4pairIKS5_S8_EEE4findERSD_@Base 1.0.4+dfsg0
 _ZN5boost9unordered13unordered_mapIN11OpenImageIO4v1_03pvt6TileIDENS_13intrusive_ptrINS4_14ImageCacheTileEEENS5_6HasherESt8equal_toIS5_ESaISt4pairIKS5_S8_EEED1Ev@Base 1.0.4+dfsg0
 _ZN5boost9unordered13unordered_mapIN11OpenImageIO4v1_03pvt6TileIDENS_13intrusive_ptrINS4_14ImageCacheTileEEENS5_6HasherESt8equal_toIS5_ESaISt4pairIKS5_S8_EEED2Ev@Base 1.0.4+dfsg0
 _ZN5boost9unordered13unordered_mapIN11OpenImageIO4v1_07ustringENS_13intrusive_ptrINS3_3pvt14ImageCacheFileEEENS3_11ustringHashESt8equal_toIS4_ESaISt4pairIKS4_S8_EEED1Ev@Base 1.0.4+dfsg0
 _ZN5boost9unordered13unordered_mapIN11OpenImageIO4v1_07ustringENS_13intrusive_ptrINS3_3pvt14ImageCacheFileEEENS3_11ustringHashESt8equal_toIS4_ESaISt4pairIKS4_S8_EEED2Ev@Base 1.0.4+dfsg0
 _ZN5boost9unordered13unordered_mapIPKcPN11OpenImageIO4v1_07ustring8TableRepENS5_7Strutil10StringHashENS9_11StringEqualESaISt4pairIKS3_S8_EEE4findERSD_@Base 1.0.4+dfsg0
 _ZN5boost9unordered13unordered_mapIPKcPN11OpenImageIO4v1_07ustring8TableRepENS5_7Strutil10StringHashENS9_11StringEqualESaISt4pairIKS3_S8_EEED1Ev@Base 1.0.4+dfsg0
 _ZN5boost9unordered13unordered_mapIPKcPN11OpenImageIO4v1_07ustring8TableRepENS5_7Strutil10StringHashENS9_11StringEqualESaISt4pairIKS3_S8_EEED2Ev@Base 1.0.4+dfsg0
 _ZN5boost9unordered6detail10next_primeEj@Base 1.0.4+dfsg0
 _ZN5boost9unordered6detail10table_implINS1_3mapISaISt4pairIKN11OpenImageIO4v1_03pvt6TileIDENS_13intrusive_ptrINS7_14ImageCacheTileEEEEES8_SC_NS8_6HasherESt8equal_toIS8_EEEE11rehash_implEj@Base 1.0.4+dfsg0
 _ZN5boost9unordered6detail10table_implINS1_3mapISaISt4pairIKN11OpenImageIO4v1_03pvt6TileIDENS_13intrusive_ptrINS7_14ImageCacheTileEEEEES8_SC_NS8_6HasherESt8equal_toIS8_EEEE5eraseEPNS1_8ptr_nodeISD_EE@Base 1.0.4+dfsg0
 _ZN5boost9unordered6detail10table_implINS1_3mapISaISt4pairIKN11OpenImageIO4v1_03pvt6TileIDENS_13intrusive_ptrINS7_14ImageCacheTileEEEEES8_SC_NS8_6HasherESt8equal_toIS8_EEEE8add_nodeERNS1_16node_constructorISaINS1_8ptr_nodeISD_EEEEEj@Base 1.0.4+dfsg0
 _ZN5boost9unordered6detail10table_implINS1_3mapISaISt4pairIKN11OpenImageIO4v1_03pvt6TileIDENS_13intrusive_ptrINS7_14ImageCacheTileEEEEES8_SC_NS8_6HasherESt8equal_toIS8_EEEEixERS9_@Base 1.0.4+dfsg0
 _ZN5boost9unordered6detail10table_implINS1_3mapISaISt4pairIKN11OpenImageIO4v1_07ustringENS_13intrusive_ptrINS6_3pvt14ImageCacheFileEEEEES7_SC_NS6_11ustringHashESt8equal_toIS7_EEEE11rehash_implEj@Base 1.0.4+dfsg0
 _ZN5boost9unordered6detail10table_implINS1_3mapISaISt4pairIKN11OpenImageIO4v1_07ustringENS_13intrusive_ptrINS6_3pvt14ImageCacheFileEEEEES7_SC_NS6_11ustringHashESt8equal_toIS7_EEEE5eraseEPNS1_8ptr_nodeISD_EE@Base 1.0.4+dfsg0
 _ZN5boost9unordered6detail10table_implINS1_3mapISaISt4pairIKN11OpenImageIO4v1_07ustringENS_13intrusive_ptrINS6_3pvt14ImageCacheFileEEEEES7_SC_NS6_11ustringHashESt8equal_toIS7_EEEE8add_nodeERNS1_16node_constructorISaINS1_8ptr_nodeISD_EEEEEj@Base 1.0.4+dfsg0
 _ZN5boost9unordered6detail10table_implINS1_3mapISaISt4pairIKN11OpenImageIO4v1_07ustringENS_13intrusive_ptrINS6_3pvt14ImageCacheFileEEEEES7_SC_NS6_11ustringHashESt8equal_toIS7_EEEEixERS8_@Base 1.0.4+dfsg0
 _ZN5boost9unordered6detail10table_implINS1_3mapISaISt4pairIKPKcPN11OpenImageIO4v1_07ustring8TableRepEEES6_SC_NS9_7Strutil10StringHashENSF_11StringEqualEEEE11rehash_implEj@Base 1.0.4+dfsg0
 _ZN5boost9unordered6detail10table_implINS1_3mapISaISt4pairIKPKcPN11OpenImageIO4v1_07ustring8TableRepEEES6_SC_NS9_7Strutil10StringHashENSF_11StringEqualEEEE8add_nodeERNS1_16node_constructorISaINS1_8ptr_nodeISD_EEEEEj@Base 1.0.4+dfsg0
 _ZN5boost9unordered6detail10table_implINS1_3mapISaISt4pairIKPKcPN11OpenImageIO4v1_07ustring8TableRepEEES6_SC_NS9_7Strutil10StringHashENSF_11StringEqualEEEEixERS7_@Base 1.0.4+dfsg0
 _ZN5boost9unordered6detail16node_constructorISaINS1_8ptr_nodeISt4pairIKN11OpenImageIO4v1_03pvt6TileIDENS_13intrusive_ptrINS7_14ImageCacheTileEEEEEEEE14construct_nodeEv@Base 1.0.4+dfsg0
 _ZN5boost9unordered6detail16node_constructorISaINS1_8ptr_nodeISt4pairIKN11OpenImageIO4v1_03pvt6TileIDENS_13intrusive_ptrINS7_14ImageCacheTileEEEEEEEED1Ev@Base 1.0.4+dfsg0
 _ZN5boost9unordered6detail16node_constructorISaINS1_8ptr_nodeISt4pairIKN11OpenImageIO4v1_03pvt6TileIDENS_13intrusive_ptrINS7_14ImageCacheTileEEEEEEEED2Ev@Base 1.0.4+dfsg0
 _ZN5boost9unordered6detail16node_constructorISaINS1_8ptr_nodeISt4pairIKN11OpenImageIO4v1_07ustringENS_13intrusive_ptrINS6_3pvt14ImageCacheFileEEEEEEEE14construct_nodeEv@Base 1.0.4+dfsg0
 _ZN5boost9unordered6detail16node_constructorISaINS1_8ptr_nodeISt4pairIKN11OpenImageIO4v1_07ustringENS_13intrusive_ptrINS6_3pvt14ImageCacheFileEEEEEEEED1Ev@Base 1.0.4+dfsg0
 _ZN5boost9unordered6detail16node_constructorISaINS1_8ptr_nodeISt4pairIKN11OpenImageIO4v1_07ustringENS_13intrusive_ptrINS6_3pvt14ImageCacheFileEEEEEEEED2Ev@Base 1.0.4+dfsg0
 _ZN5boost9unordered6detail16node_constructorISaINS1_8ptr_nodeISt4pairIKPKcPN11OpenImageIO4v1_07ustring8TableRepEEEEEE14construct_nodeEv@Base 1.0.4+dfsg0
 _ZN5boost9unordered6detail17array_constructorISaINS1_10ptr_bucketEEE9constructIS3_EEvRKT_j@Base 1.0.4+dfsg0
 _ZN5boost9unordered6detail17array_constructorISaINS1_10ptr_bucketEEED1Ev@Base 1.0.4+dfsg0
 _ZN5boost9unordered6detail17array_constructorISaINS1_10ptr_bucketEEED2Ev@Base 1.0.4+dfsg0
 _ZN5boost9unordered6detail19prime_list_templateIjE5valueE@Base 1.0.4+dfsg0
 _ZN5boost9unordered6detail5tableINS1_3mapISaISt4pairIKN11OpenImageIO4v1_03pvt6TileIDENS_13intrusive_ptrINS7_14ImageCacheTileEEEEES8_SC_NS8_6HasherESt8equal_toIS8_EEEE18reserve_for_insertEj@Base 1.0.4+dfsg0
 _ZN5boost9unordered6detail5tableINS1_3mapISaISt4pairIKN11OpenImageIO4v1_07ustringENS_13intrusive_ptrINS6_3pvt14ImageCacheFileEEEEES7_SC_NS6_11ustringHashESt8equal_toIS7_EEEE18reserve_for_insertEj@Base 1.0.4+dfsg0
 _ZN5boost9unordered6detail5tableINS1_3mapISaISt4pairIKPKcPN11OpenImageIO4v1_07ustring8TableRepEEES6_SC_NS9_7Strutil10StringHashENSF_11StringEqualEEEE18reserve_for_insertEj@Base 1.0.4+dfsg0
 _ZN5boost9unordered6detail7bucketsISaISt4pairIKN11OpenImageIO4v1_03pvt6TileIDENS_13intrusive_ptrINS6_14ImageCacheTileEEEEENS1_10ptr_bucketENS1_8ptr_nodeISC_EEE14create_bucketsEv@Base 1.0.4+dfsg0
 _ZN5boost9unordered6detail7bucketsISaISt4pairIKN11OpenImageIO4v1_03pvt6TileIDENS_13intrusive_ptrINS6_14ImageCacheTileEEEEENS1_10ptr_bucketENS1_8ptr_nodeISC_EEE14delete_bucketsEv@Base 1.0.4+dfsg0
 _ZN5boost9unordered6detail7bucketsISaISt4pairIKN11OpenImageIO4v1_07ustringENS_13intrusive_ptrINS5_3pvt14ImageCacheFileEEEEENS1_10ptr_bucketENS1_8ptr_nodeISC_EEE14create_bucketsEv@Base 1.0.4+dfsg0
 _ZN5boost9unordered6detail7bucketsISaISt4pairIKN11OpenImageIO4v1_07ustringENS_13intrusive_ptrINS5_3pvt14ImageCacheFileEEEEENS1_10ptr_bucketENS1_8ptr_nodeISC_EEE14delete_bucketsEv@Base 1.0.4+dfsg0
 _ZN5boost9unordered6detail7bucketsISaISt4pairIKN11OpenImageIO4v1_07ustringENS_13intrusive_ptrINS5_3pvt14ImageCacheFileEEEEENS1_10ptr_bucketENS1_8ptr_nodeISC_EEE5clearEv@Base 1.0.4+dfsg0
 _ZN5boost9unordered6detail7bucketsISaISt4pairIKPKcPN11OpenImageIO4v1_07ustring8TableRepEEENS1_10ptr_bucketENS1_8ptr_nodeISC_EEE14create_bucketsEv@Base 1.0.4+dfsg0
 _ZN5boost9unordered6detail7bucketsISaISt4pairIKPKcPN11OpenImageIO4v1_07ustring8TableRepEEENS1_10ptr_bucketENS1_8ptr_nodeISC_EEE14delete_bucketsEv@Base 1.0.4+dfsg0
 _ZN6cineon10ReadPackedINS_17ElementReadStreamEhLj65472ELi2ELi4ELi6EEEbRKNS_6HeaderEPjPT_RKNS_5BlockEPT0_@Base 1.0.4+dfsg0
 _ZN6cineon10ReadPackedINS_17ElementReadStreamEhLj65520ELi4ELi2ELi4EEEbRKNS_6HeaderEPjPT_RKNS_5BlockEPT0_@Base 1.0.4+dfsg0
 _ZN6cineon10ReadPackedINS_17ElementReadStreamEjLj65472ELi2ELi4ELi6EEEbRKNS_6HeaderEPjPT_RKNS_5BlockEPT0_@Base 1.0.4+dfsg0
 _ZN6cineon10ReadPackedINS_17ElementReadStreamEjLj65520ELi4ELi2ELi4EEEbRKNS_6HeaderEPjPT_RKNS_5BlockEPT0_@Base 1.0.4+dfsg0
 _ZN6cineon10ReadPackedINS_17ElementReadStreamEtLj65472ELi2ELi4ELi6EEEbRKNS_6HeaderEPjPT_RKNS_5BlockEPT0_@Base 1.0.4+dfsg0
 _ZN6cineon10ReadPackedINS_17ElementReadStreamEtLj65520ELi4ELi2ELi4EEEbRKNS_6HeaderEPjPT_RKNS_5BlockEPT0_@Base 1.0.4+dfsg0
 _ZN6cineon10ReadPackedINS_17ElementReadStreamEyLj65472ELi2ELi4ELi6EEEbRKNS_6HeaderEPjPT_RKNS_5BlockEPT0_@Base 1.0.4+dfsg0
 _ZN6cineon10ReadPackedINS_17ElementReadStreamEyLj65520ELi4ELi2ELi4EEEbRKNS_6HeaderEPjPT_RKNS_5BlockEPT0_@Base 1.0.4+dfsg0
 _ZN6cineon11WriteBufferIhLi8ELb0EEEiPNS_9OutStreamENS_8DataSizeEPvjjiNS_7PackingEbiPcRb@Base 1.0.4+dfsg0
 _ZN6cineon11WriteBufferItLi10ELb0EEEiPNS_9OutStreamENS_8DataSizeEPvjjiNS_7PackingEbiPcRb@Base 1.0.4+dfsg0
 _ZN6cineon11WriteBufferItLi10ELb1EEEiPNS_9OutStreamENS_8DataSizeEPvjjiNS_7PackingEbiPcRb@Base 1.0.4+dfsg0
 _ZN6cineon11WriteBufferItLi12ELb0EEEiPNS_9OutStreamENS_8DataSizeEPvjjiNS_7PackingEbiPcRb@Base 1.0.4+dfsg0
 _ZN6cineon11WriteBufferItLi12ELb1EEEiPNS_9OutStreamENS_8DataSizeEPvjjiNS_7PackingEbiPcRb@Base 1.0.4+dfsg0
 _ZN6cineon11WriteBufferItLi16ELb0EEEiPNS_9OutStreamENS_8DataSizeEPvjjiNS_7PackingEbiPcRb@Base 1.0.4+dfsg0
 _ZN6cineon12IdentifyFileEPKv@Base 1.0.4+dfsg0
 _ZN6cineon12IdentifyFileEPNS_8InStreamE@Base 1.0.4+dfsg0
 _ZN6cineon12ImageElementC1Ev@Base 1.0.4+dfsg0
 _ZN6cineon12ImageElementC2Ev@Base 1.0.4+dfsg0
 _ZN6cineon13GenericHeader17DataSizeByteCountENS_8DataSizeE@Base 1.0.4+dfsg0
 _ZN6cineon13GenericHeader17SetSourceTimeDateEl@Base 1.0.4+dfsg0
 _ZN6cineon13GenericHeader19SetCreationTimeDateEl@Base 1.0.4+dfsg0
 _ZN6cineon13GenericHeader25CalculateNumberOfElementsEv@Base 1.0.4+dfsg0
 _ZN6cineon13GenericHeader5ResetEv@Base 1.0.4+dfsg0
 _ZN6cineon13GenericHeaderC1Ev@Base 1.0.4+dfsg0
 _ZN6cineon13GenericHeaderC2Ev@Base 1.0.4+dfsg0
 _ZN6cineon14IndustryHeader15SetFilmEdgeCodeEPKc@Base 1.0.4+dfsg0
 _ZN6cineon14IndustryHeader5ResetEv@Base 1.0.4+dfsg0
 _ZN6cineon14IndustryHeaderC1Ev@Base 1.0.4+dfsg0
 _ZN6cineon14IndustryHeaderC2Ev@Base 1.0.4+dfsg0
 _ZN6cineon14ReadImageBlockINS_17ElementReadStreamEhLNS_8DataSizeE0EEEbRKNS_6HeaderEPjPT_RKNS_5BlockEPT0_@Base 1.0.4+dfsg0
 _ZN6cineon14ReadImageBlockINS_17ElementReadStreamEjLNS_8DataSizeE2EEEbRKNS_6HeaderEPjPT_RKNS_5BlockEPT0_@Base 1.0.4+dfsg0
 _ZN6cineon14ReadImageBlockINS_17ElementReadStreamEtLNS_8DataSizeE1EEEbRKNS_6HeaderEPjPT_RKNS_5BlockEPT0_@Base 1.0.4+dfsg0
 _ZN6cineon14ReadImageBlockINS_17ElementReadStreamEyLNS_8DataSizeE3EEEbRKNS_6HeaderEPjPT_RKNS_5BlockEPT0_@Base 1.0.4+dfsg0
 _ZN6cineon15Read10bitFilledINS_17ElementReadStreamEhLi0EEEbRKNS_6HeaderEPjPT_RKNS_5BlockEPT0_@Base 1.0.4+dfsg0
 _ZN6cineon15Read10bitFilledINS_17ElementReadStreamEhLi2EEEbRKNS_6HeaderEPjPT_RKNS_5BlockEPT0_@Base 1.0.4+dfsg0
 _ZN6cineon15Read10bitFilledINS_17ElementReadStreamEjLi0EEEbRKNS_6HeaderEPjPT_RKNS_5BlockEPT0_@Base 1.0.4+dfsg0
 _ZN6cineon15Read10bitFilledINS_17ElementReadStreamEjLi2EEEbRKNS_6HeaderEPjPT_RKNS_5BlockEPT0_@Base 1.0.4+dfsg0
 _ZN6cineon15Read10bitFilledINS_17ElementReadStreamEtLi0EEEbRKNS_6HeaderEPjPT_RKNS_5BlockEPT0_@Base 1.0.4+dfsg0
 _ZN6cineon15Read10bitFilledINS_17ElementReadStreamEtLi2EEEbRKNS_6HeaderEPjPT_RKNS_5BlockEPT0_@Base 1.0.4+dfsg0
 _ZN6cineon15Read10bitFilledINS_17ElementReadStreamEyLi0EEEbRKNS_6HeaderEPjPT_RKNS_5BlockEPT0_@Base 1.0.4+dfsg0
 _ZN6cineon15Read10bitFilledINS_17ElementReadStreamEyLi2EEEbRKNS_6HeaderEPjPT_RKNS_5BlockEPT0_@Base 1.0.4+dfsg0
 _ZN6cineon15systemByteOrderE@Base 1.0.4+dfsg0
 _ZN6cineon17ElementReadStream10ReadDirectERKNS_6HeaderElPvj@Base 1.0.4+dfsg0
 _ZN6cineon17ElementReadStream15EndianDataCheckERKNS_6HeaderEPvj@Base 1.0.4+dfsg0
 _ZN6cineon17ElementReadStream4ReadERKNS_6HeaderElPvj@Base 1.0.4+dfsg0
 _ZN6cineon17ElementReadStream5ResetEv@Base 1.0.4+dfsg0
 _ZN6cineon17ElementReadStreamC1EPNS_8InStreamE@Base 1.0.4+dfsg0
 _ZN6cineon17ElementReadStreamC2EPNS_8InStreamE@Base 1.0.4+dfsg0
 _ZN6cineon17ElementReadStreamD0Ev@Base 1.0.4+dfsg0
 _ZN6cineon17ElementReadStreamD1Ev@Base 1.0.4+dfsg0
 _ZN6cineon17ElementReadStreamD2Ev@Base 1.0.4+dfsg0
 _ZN6cineon3HexEc@Base 1.0.4+dfsg0
 _ZN6cineon5Codec4ReadERKNS_6HeaderEPNS_17ElementReadStreamERKNS_5BlockEPvNS_8DataSizeE@Base 1.0.4+dfsg0
 _ZN6cineon5Codec5ResetEv@Base 1.0.4+dfsg0
 _ZN6cineon5CodecC1Ev@Base 1.0.4+dfsg0
 _ZN6cineon5CodecC2Ev@Base 1.0.4+dfsg0
 _ZN6cineon5CodecD0Ev@Base 1.0.4+dfsg0
 _ZN6cineon5CodecD1Ev@Base 1.0.4+dfsg0
 _ZN6cineon5CodecD2Ev@Base 1.0.4+dfsg0
 _ZN6cineon6Header15WriteOffsetDataEPNS_9OutStreamE@Base 1.0.4+dfsg0
 _ZN6cineon6Header16CalculateOffsetsEv@Base 1.0.4+dfsg0
 _ZN6cineon6Header16ValidMagicCookieEj@Base 1.0.4+dfsg0
 _ZN6cineon6Header4ReadEPNS_8InStreamE@Base 1.0.4+dfsg0
 _ZN6cineon6Header5CheckEv@Base 1.0.4+dfsg0
 _ZN6cineon6Header5ResetEv@Base 1.0.4+dfsg0
 _ZN6cineon6Header5WriteEPNS_9OutStreamE@Base 1.0.4+dfsg0
 _ZN6cineon6Header8ValidateEv@Base 1.0.4+dfsg0
 _ZN6cineon6HeaderC1Ev@Base 1.0.4+dfsg0
 _ZN6cineon6HeaderC2Ev@Base 1.0.4+dfsg0
 _ZN6cineon6Reader10ReadHeaderEv@Base 1.0.4+dfsg0
 _ZN6cineon6Reader11SetInStreamEPNS_8InStreamE@Base 1.0.4+dfsg0
 _ZN6cineon6Reader12ReadUserDataEPh@Base 1.0.4+dfsg0
 _ZN6cineon6Reader5ResetEv@Base 1.0.4+dfsg0
 _ZN6cineon6Reader9ReadBlockEPvNS_8DataSizeERNS_5BlockE@Base 1.0.4+dfsg0
 _ZN6cineon6Reader9ReadImageEPvNS_8DataSizeE@Base 1.0.4+dfsg0
 _ZN6cineon6ReaderC1Ev@Base 1.0.4+dfsg0
 _ZN6cineon6ReaderC2Ev@Base 1.0.4+dfsg0
 _ZN6cineon6ReaderD0Ev@Base 1.0.4+dfsg0
 _ZN6cineon6ReaderD1Ev@Base 1.0.4+dfsg0
 _ZN6cineon6ReaderD2Ev@Base 1.0.4+dfsg0
 _ZN6cineon6Writer10SetElementEiNS_10DescriptorEhjjffff@Base 1.0.4+dfsg0
 _ZN6cineon6Writer11SetFileInfoEPKcS2_S2_@Base 1.0.4+dfsg0
 _ZN6cineon6Writer11SetUserDataEl@Base 1.0.4+dfsg0
 _ZN6cineon6Writer11WriteHeaderEv@Base 1.0.4+dfsg0
 _ZN6cineon6Writer12SetImageInfoEjj@Base 1.0.4+dfsg0
 _ZN6cineon6Writer12SetOutStreamEPNS_9OutStreamE@Base 1.0.4+dfsg0
 _ZN6cineon6Writer12WriteElementEiPv@Base 1.0.4+dfsg0
 _ZN6cineon6Writer12WriteElementEiPvNS_8DataSizeE@Base 1.0.4+dfsg0
 _ZN6cineon6Writer12WriteElementEiPvl@Base 1.0.4+dfsg0
 _ZN6cineon6Writer12WriteThroughEPvjjiijjPc@Base 1.0.4+dfsg0
 _ZN6cineon6Writer13WriteUserDataEPv@Base 1.0.4+dfsg0
 _ZN6cineon6Writer5StartEv@Base 1.0.4+dfsg0
 _ZN6cineon6Writer6FinishEv@Base 1.0.4+dfsg0
 _ZN6cineon6WriterC1Ev@Base 1.0.4+dfsg0
 _ZN6cineon6WriterC2Ev@Base 1.0.4+dfsg0
 _ZN6cineon6WriterD0Ev@Base 1.0.4+dfsg0
 _ZN6cineon6WriterD1Ev@Base 1.0.4+dfsg0
 _ZN6cineon6WriterD2Ev@Base 1.0.4+dfsg0
 _ZN6cineon8InStream10ReadDirectEPvj@Base 1.0.4+dfsg0
 _ZN6cineon8InStream4OpenEPKc@Base 1.0.4+dfsg0
 _ZN6cineon8InStream4ReadEPvj@Base 1.0.4+dfsg0
 _ZN6cineon8InStream4SeekElNS0_6OriginE@Base 1.0.4+dfsg0
 _ZN6cineon8InStream5CloseEv@Base 1.0.4+dfsg0
 _ZN6cineon8InStream6RewindEv@Base 1.0.4+dfsg0
 _ZN6cineon8InStreamC1Ev@Base 1.0.4+dfsg0
 _ZN6cineon8InStreamC2Ev@Base 1.0.4+dfsg0
 _ZN6cineon8InStreamD0Ev@Base 1.0.4+dfsg0
 _ZN6cineon8InStreamD1Ev@Base 1.0.4+dfsg0
 _ZN6cineon8InStreamD2Ev@Base 1.0.4+dfsg0
 _ZN6squish10ClusterFit17ConstructOrderingERKNS_4Vec3Ei@Base 1.0.4+dfsg0
 _ZN6squish10ClusterFit9Compress3EPv@Base 1.0.4+dfsg0
 _ZN6squish10ClusterFit9Compress4EPv@Base 1.0.4+dfsg0
 _ZN6squish10ClusterFitC1EPKNS_9ColourSetEiPf@Base 1.0.4+dfsg0
 _ZN6squish10ClusterFitC2EPKNS_9ColourSetEiPf@Base 1.0.4+dfsg0
 _ZN6squish10ClusterFitD0Ev@Base 1.0.4+dfsg0
 _ZN6squish10ClusterFitD1Ev@Base 1.0.4+dfsg0
 _ZN6squish10ClusterFitD2Ev@Base 1.0.4+dfsg0
 _ZN6squish10DecompressEPhPKvi@Base 1.0.4+dfsg0
 _ZN6squish13CompressImageEPKhiiPviPf@Base 1.0.4+dfsg0
 _ZN6squish14CompressMaskedEPKhiPviPf@Base 1.0.4+dfsg0
 _ZN6squish15DecompressImageEPhiiPKvi@Base 1.0.4+dfsg0
 _ZN6squish15SingleColourFit16ComputeEndPointsEPKPKNS_18SingleColourLookupE@Base 1.0.4+dfsg0
 _ZN6squish15SingleColourFit9Compress3EPv@Base 1.0.4+dfsg0
 _ZN6squish15SingleColourFit9Compress4EPv@Base 1.0.4+dfsg0
 _ZN6squish15SingleColourFitC1EPKNS_9ColourSetEi@Base 1.0.4+dfsg0
 _ZN6squish15SingleColourFitC2EPKNS_9ColourSetEi@Base 1.0.4+dfsg0
 _ZN6squish15SingleColourFitD0Ev@Base 1.0.4+dfsg0
 _ZN6squish15SingleColourFitD1Ev@Base 1.0.4+dfsg0
 _ZN6squish15SingleColourFitD2Ev@Base 1.0.4+dfsg0
 _ZN6squish16DecompressColourEPhPKvb@Base 1.0.4+dfsg0
 _ZN6squish17CompressAlphaDxt3EPKhiPv@Base 1.0.4+dfsg0
 _ZN6squish17CompressAlphaDxt5EPKhiPv@Base 1.0.4+dfsg0
 _ZN6squish17WriteColourBlock3ERKNS_4Vec3ES2_PKhPv@Base 1.0.4+dfsg0
 _ZN6squish17WriteColourBlock4ERKNS_4Vec3ES2_PKhPv@Base 1.0.4+dfsg0
 _ZN6squish19DecompressAlphaDxt3EPhPKv@Base 1.0.4+dfsg0
 _ZN6squish19DecompressAlphaDxt5EPhPKv@Base 1.0.4+dfsg0
 _ZN6squish22GetStorageRequirementsEiii@Base 1.0.4+dfsg0
 _ZN6squish25ComputePrincipleComponentERKNS_6Sym3x3E@Base 1.0.4+dfsg0
 _ZN6squish25ComputeWeightedCovarianceEiPKNS_4Vec3EPKf@Base 1.0.4+dfsg0
 _ZN6squish8RangeFit9Compress3EPv@Base 1.0.4+dfsg0
 _ZN6squish8RangeFit9Compress4EPv@Base 1.0.4+dfsg0
 _ZN6squish8RangeFitC1EPKNS_9ColourSetEiPf@Base 1.0.4+dfsg0
 _ZN6squish8RangeFitC2EPKNS_9ColourSetEiPf@Base 1.0.4+dfsg0
 _ZN6squish8RangeFitD0Ev@Base 1.0.4+dfsg0
 _ZN6squish8RangeFitD1Ev@Base 1.0.4+dfsg0
 _ZN6squish8RangeFitD2Ev@Base 1.0.4+dfsg0
 _ZN6squish9ColourFit8CompressEPv@Base 1.0.4+dfsg0
 _ZN6squish9ColourFitC1EPKNS_9ColourSetEi@Base 1.0.4+dfsg0
 _ZN6squish9ColourFitC2EPKNS_9ColourSetEi@Base 1.0.4+dfsg0
 _ZN6squish9ColourFitD0Ev@Base 1.0.4+dfsg0
 _ZN6squish9ColourFitD1Ev@Base 1.0.4+dfsg0
 _ZN6squish9ColourFitD2Ev@Base 1.0.4+dfsg0
 _ZN6squish9ColourSetC1EPKhii@Base 1.0.4+dfsg0
 _ZN6squish9ColourSetC2EPKhii@Base 1.0.4+dfsg0
 _ZN8InStream10ReadDirectEPvj@Base 1.0.4+dfsg0
 _ZN8InStream4OpenEPKc@Base 1.0.4+dfsg0
 _ZN8InStream4ReadEPvj@Base 1.0.4+dfsg0
 _ZN8InStream4SeekElNS_6OriginE@Base 1.0.4+dfsg0
 _ZN8InStream5CloseEv@Base 1.0.4+dfsg0
 _ZN8InStream6RewindEv@Base 1.0.4+dfsg0
 _ZN8InStreamC1Ev@Base 1.0.4+dfsg0
 _ZN8InStreamC2Ev@Base 1.0.4+dfsg0
 _ZN8InStreamD0Ev@Base 1.0.4+dfsg0
 _ZN8InStreamD1Ev@Base 1.0.4+dfsg0
 _ZN8InStreamD2Ev@Base 1.0.4+dfsg0
 _ZN8PtexDictIP10PtexReaderE5clearEv@Base 1.0.4+dfsg0
 _ZN8PtexDictIP10PtexReaderE8iterator11_defaultValE@Base 1.0.4+dfsg0
 _ZN8PtexDictIP10PtexReaderED0Ev@Base 1.0.4+dfsg0
 _ZN8PtexDictIP10PtexReaderED1Ev@Base 1.0.4+dfsg0
 _ZN8PtexDictIP10PtexReaderED2Ev@Base 1.0.4+dfsg0
 _ZN8PtexDictIP10PtexReaderEixEPKc@Base 1.0.4+dfsg0
 _ZN8PtexHalf16fromFloat_exceptEj@Base 1.0.4+dfsg0
 _ZN8PtexHalf8f2hTableE@Base 1.0.4+dfsg0
 _ZN8PtexHalf8h2fTableE@Base 1.0.4+dfsg0
 _ZN9OutStream4OpenEPKc@Base 1.0.4+dfsg0
 _ZN9OutStream4SeekElNS_6OriginE@Base 1.0.4+dfsg0
 _ZN9OutStream5CloseEv@Base 1.0.4+dfsg0
 _ZN9OutStream5FlushEv@Base 1.0.4+dfsg0
 _ZN9OutStream5WriteEPvj@Base 1.0.4+dfsg0
 _ZN9OutStreamC1Ev@Base 1.0.4+dfsg0
 _ZN9OutStreamC2Ev@Base 1.0.4+dfsg0
 _ZN9OutStreamD0Ev@Base 1.0.4+dfsg0
 _ZN9OutStreamD1Ev@Base 1.0.4+dfsg0
 _ZN9OutStreamD2Ev@Base 1.0.4+dfsg0
 _ZN9PtexCache6createEiibP16PtexInputHandler@Base 1.0.4+dfsg0
 _ZN9PtexCacheD0Ev@Base 1.0.4+dfsg0
 _ZN9PtexCacheD1Ev@Base 1.0.4+dfsg0
 _ZN9PtexCacheD2Ev@Base 1.0.4+dfsg0
 _ZN9PtexUtils10interleaveEPKviiiPviN4Ptex8DataTypeEi@Base 1.0.4+dfsg0
 _ZN9PtexUtils10isConstantEPKviiii@Base 1.0.4+dfsg0
 _ZN9PtexUtils11genRfaceidsEPKN4Ptex8FaceInfoEiPjS4_@Base 1.0.4+dfsg0
 _ZN9PtexUtils12deinterleaveEPKviiiPviN4Ptex8DataTypeEi@Base 1.0.4+dfsg0
 _ZN9PtexUtils16decodeDifferenceEPviN4Ptex8DataTypeE@Base 1.0.4+dfsg0
 _ZN9PtexUtils16encodeDifferenceEPviN4Ptex8DataTypeE@Base 1.0.4+dfsg0
 _ZN9PtexUtils19applyConstFunctionsE@Base 1.0.4+dfsg0
 _ZN9PtexUtils4copyEPKviPviii@Base 1.0.4+dfsg0
 _ZN9PtexUtils4fillEPKvPviiii@Base 1.0.4+dfsg0
 _ZN9PtexUtils5blendEPKvfPvbiN4Ptex8DataTypeEi@Base 1.0.4+dfsg0
 _ZN9PtexUtils6reduceEPKviiiPviN4Ptex8DataTypeEi@Base 1.0.4+dfsg0
 _ZN9PtexUtils7averageEPKviiiPvN4Ptex8DataTypeEi@Base 1.0.4+dfsg0
 _ZN9PtexUtils7reduceuEPKviiiPviN4Ptex8DataTypeEi@Base 1.0.4+dfsg0
 _ZN9PtexUtils7reducevEPKviiiPviN4Ptex8DataTypeEi@Base 1.0.4+dfsg0
 _ZN9PtexUtils8divalphaEPviN4Ptex8DataTypeEii@Base 1.0.4+dfsg0
 _ZN9PtexUtils9multalphaEPviN4Ptex8DataTypeEii@Base 1.0.4+dfsg0
 _ZN9PtexUtils9reduceTriEPKviiiPviN4Ptex8DataTypeEi@Base 1.0.4+dfsg0
 _ZNK11OpenImageIO4v1_010FitsOutput11format_nameEv@Base 1.0.4+dfsg0
 _ZNK11OpenImageIO4v1_010FitsOutput8supportsERKSs@Base 1.0.4+dfsg0
 _ZNK11OpenImageIO4v1_010ImageInput16current_miplevelEv@Base 1.0.4+dfsg0
 _ZNK11OpenImageIO4v1_010ImageInput16current_subimageEv@Base 1.0.4+dfsg0
 _ZNK11OpenImageIO4v1_010ImageInput8geterrorEv@Base 1.0.4+dfsg0
 _ZNK11OpenImageIO4v1_010ImageInput8supportsERKSs@Base 1.0.4+dfsg0
 _ZNK11OpenImageIO4v1_010PtexOutput11format_nameEv@Base 1.0.4+dfsg0
 _ZNK11OpenImageIO4v1_010PtexOutput8supportsERKSs@Base 1.0.4+dfsg0
 _ZNK11OpenImageIO4v1_010TIFFOutput11format_nameEv@Base 1.0.4+dfsg0
 _ZNK11OpenImageIO4v1_010TIFFOutput8supportsERKSs@Base 1.0.4+dfsg0
 _ZNK11OpenImageIO4v1_010ZfileInput11format_nameEv@Base 1.0.4+dfsg0
 _ZNK11OpenImageIO4v1_011CineonInput11format_nameEv@Base 1.0.4+dfsg0
 _ZNK11OpenImageIO4v1_011ColorConfig17getNumColorSpacesEv@Base 1.0.4+dfsg0
 _ZNK11OpenImageIO4v1_011ColorConfig20createColorProcessorEPKcS3_@Base 1.0.4+dfsg0
 _ZNK11OpenImageIO4v1_011ColorConfig23getColorSpaceNameByRoleEPKc@Base 1.0.4+dfsg0
 _ZNK11OpenImageIO4v1_011ColorConfig24getColorSpaceNameByIndexEi@Base 1.0.4+dfsg0
 _ZNK11OpenImageIO4v1_011ColorConfig5errorEv@Base 1.0.4+dfsg0
 _ZNK11OpenImageIO4v1_011FilterBox1D4nameEv@Base 1.0.4+dfsg0
 _ZNK11OpenImageIO4v1_011FilterBox1DclEf@Base 1.0.4+dfsg0
 _ZNK11OpenImageIO4v1_011FilterBox2D4nameEv@Base 1.0.4+dfsg0
 _ZNK11OpenImageIO4v1_011FilterBox2D5xfiltEf@Base 1.0.4+dfsg0
 _ZNK11OpenImageIO4v1_011FilterBox2D5yfiltEf@Base 1.0.4+dfsg0
 _ZNK11OpenImageIO4v1_011FilterBox2D9separableEv@Base 1.0.4+dfsg0
 _ZNK11OpenImageIO4v1_011FilterBox2DclEff@Base 1.0.4+dfsg0
 _ZNK11OpenImageIO4v1_011ImageOutput8supportsERKSs@Base 1.0.4+dfsg0
 _ZNK11OpenImageIO4v1_011SocketInput11format_nameEv@Base 1.0.4+dfsg0
 _ZNK11OpenImageIO4v1_011ZfileOutput11format_nameEv@Base 1.0.4+dfsg0
 _ZNK11OpenImageIO4v1_011ZfileOutput8supportsERKSs@Base 1.0.4+dfsg0
 _ZNK11OpenImageIO4v1_012CineonOutput11format_nameEv@Base 1.0.4+dfsg0
 _ZNK11OpenImageIO4v1_012CineonOutput8supportsERKSs@Base 1.0.4+dfsg0
 _ZNK11OpenImageIO4v1_012FilterDisk2D4nameEv@Base 1.0.4+dfsg0
 _ZNK11OpenImageIO4v1_012FilterDisk2DclEff@Base 1.0.4+dfsg0
 _ZNK11OpenImageIO4v1_012FilterSinc1D4nameEv@Base 1.0.4+dfsg0
 _ZNK11OpenImageIO4v1_012FilterSinc1DclEf@Base 1.0.4+dfsg0
 _ZNK11OpenImageIO4v1_012FilterSinc2D4nameEv@Base 1.0.4+dfsg0
 _ZNK11OpenImageIO4v1_012FilterSinc2D5xfiltEf@Base 1.0.4+dfsg0
 _ZNK11OpenImageIO4v1_012FilterSinc2D5yfiltEf@Base 1.0.4+dfsg0
 _ZNK11OpenImageIO4v1_012FilterSinc2D9separableEv@Base 1.0.4+dfsg0
 _ZNK11OpenImageIO4v1_012FilterSinc2DclEff@Base 1.0.4+dfsg0
 _ZNK11OpenImageIO4v1_012OpenEXRInput11format_nameEv@Base 1.0.4+dfsg0
 _ZNK11OpenImageIO4v1_012OpenEXRInput16current_miplevelEv@Base 1.0.4+dfsg0
 _ZNK11OpenImageIO4v1_012OpenEXRInput16current_subimageEv@Base 1.0.4+dfsg0
 _ZNK11OpenImageIO4v1_012SocketOutput11format_nameEv@Base 1.0.4+dfsg0
 _ZNK11OpenImageIO4v1_012SocketOutput8supportsERKSs@Base 1.0.4+dfsg0
 _ZNK11OpenImageIO4v1_013OpenEXROutput11format_nameEv@Base 1.0.4+dfsg0
 _ZNK11OpenImageIO4v1_013OpenEXROutput8supportsERKSs@Base 1.0.4+dfsg0
 _ZNK11OpenImageIO4v1_013softimage_pvt13ChannelPacket8channelsEv@Base 1.0.4+dfsg0
 _ZNK11OpenImageIO4v1_014ColorProcessor19hasChannelCrosstalkEv@Base 1.0.4+dfsg0
 _ZNK11OpenImageIO4v1_014ColorProcessor6isNoOpEv@Base 1.0.4+dfsg0
 _ZNK11OpenImageIO4v1_014SoftimageInput11format_nameEv@Base 1.0.4+dfsg0
 _ZNK11OpenImageIO4v1_015FilterBSpline1D4nameEv@Base 1.0.4+dfsg0
 _ZNK11OpenImageIO4v1_015FilterBSpline1DclEf@Base 1.0.4+dfsg0
 _ZNK11OpenImageIO4v1_015FilterBSpline2D4nameEv@Base 1.0.4+dfsg0
 _ZNK11OpenImageIO4v1_015FilterBSpline2D5xfiltEf@Base 1.0.4+dfsg0
 _ZNK11OpenImageIO4v1_015FilterBSpline2D5yfiltEf@Base 1.0.4+dfsg0
 _ZNK11OpenImageIO4v1_015FilterBSpline2D9separableEv@Base 1.0.4+dfsg0
 _ZNK11OpenImageIO4v1_015FilterBSpline2DclEff@Base 1.0.4+dfsg0
 _ZNK11OpenImageIO4v1_016FilterGaussian1D4nameEv@Base 1.0.4+dfsg0
 _ZNK11OpenImageIO4v1_016FilterGaussian1DclEf@Base 1.0.4+dfsg0
 _ZNK11OpenImageIO4v1_016FilterGaussian2D4nameEv@Base 1.0.4+dfsg0
 _ZNK11OpenImageIO4v1_016FilterGaussian2D5xfiltEf@Base 1.0.4+dfsg0
 _ZNK11OpenImageIO4v1_016FilterGaussian2D5yfiltEf@Base 1.0.4+dfsg0
 _ZNK11OpenImageIO4v1_016FilterGaussian2D9separableEv@Base 1.0.4+dfsg0
 _ZNK11OpenImageIO4v1_016FilterGaussian2DclEff@Base 1.0.4+dfsg0
 _ZNK11OpenImageIO4v1_016FilterMitchell1D4nameEv@Base 1.0.4+dfsg0
 _ZNK11OpenImageIO4v1_016FilterMitchell1DclEf@Base 1.0.4+dfsg0
 _ZNK11OpenImageIO4v1_016FilterMitchell2D4nameEv@Base 1.0.4+dfsg0
 _ZNK11OpenImageIO4v1_016FilterMitchell2D5xfiltEf@Base 1.0.4+dfsg0
 _ZNK11OpenImageIO4v1_016FilterMitchell2D5yfiltEf@Base 1.0.4+dfsg0
 _ZNK11OpenImageIO4v1_016FilterMitchell2D9separableEv@Base 1.0.4+dfsg0
 _ZNK11OpenImageIO4v1_016FilterMitchell2DclEff@Base 1.0.4+dfsg0
 _ZNK11OpenImageIO4v1_016FilterTriangle1D4nameEv@Base 1.0.4+dfsg0
 _ZNK11OpenImageIO4v1_016FilterTriangle1DclEf@Base 1.0.4+dfsg0
 _ZNK11OpenImageIO4v1_016FilterTriangle2D4nameEv@Base 1.0.4+dfsg0
 _ZNK11OpenImageIO4v1_016FilterTriangle2D5xfiltEf@Base 1.0.4+dfsg0
 _ZNK11OpenImageIO4v1_016FilterTriangle2D5yfiltEf@Base 1.0.4+dfsg0
 _ZNK11OpenImageIO4v1_016FilterTriangle2D9separableEv@Base 1.0.4+dfsg0
 _ZNK11OpenImageIO4v1_016FilterTriangle2DclEff@Base 1.0.4+dfsg0
 _ZNK11OpenImageIO4v1_017FilterLanczos3_1D4nameEv@Base 1.0.4+dfsg0
 _ZNK11OpenImageIO4v1_017FilterLanczos3_1DclEf@Base 1.0.4+dfsg0
 _ZNK11OpenImageIO4v1_017FilterLanczos3_2D4nameEv@Base 1.0.4+dfsg0
 _ZNK11OpenImageIO4v1_017FilterLanczos3_2D5xfiltEf@Base 1.0.4+dfsg0
 _ZNK11OpenImageIO4v1_017FilterLanczos3_2D5yfiltEf@Base 1.0.4+dfsg0
 _ZNK11OpenImageIO4v1_017FilterLanczos3_2D9separableEv@Base 1.0.4+dfsg0
 _ZNK11OpenImageIO4v1_017FilterLanczos3_2DclEff@Base 1.0.4+dfsg0
 _ZNK11OpenImageIO4v1_018FilterCatmullRom1D4nameEv@Base 1.0.4+dfsg0
 _ZNK11OpenImageIO4v1_018FilterCatmullRom1DclEf@Base 1.0.4+dfsg0
 _ZNK11OpenImageIO4v1_018FilterCatmullRom2D4nameEv@Base 1.0.4+dfsg0
 _ZNK11OpenImageIO4v1_018FilterCatmullRom2D5xfiltEf@Base 1.0.4+dfsg0
 _ZNK11OpenImageIO4v1_018FilterCatmullRom2D5yfiltEf@Base 1.0.4+dfsg0
 _ZNK11OpenImageIO4v1_018FilterCatmullRom2D9separableEv@Base 1.0.4+dfsg0
 _ZNK11OpenImageIO4v1_018FilterCatmullRom2DclEff@Base 1.0.4+dfsg0
 _ZNK11OpenImageIO4v1_022FilterBlackmanHarris1D4nameEv@Base 1.0.4+dfsg0
 _ZNK11OpenImageIO4v1_022FilterBlackmanHarris1DclEf@Base 1.0.4+dfsg0
 _ZNK11OpenImageIO4v1_022FilterBlackmanHarris2D4nameEv@Base 1.0.4+dfsg0
 _ZNK11OpenImageIO4v1_022FilterBlackmanHarris2D5xfiltEf@Base 1.0.4+dfsg0
 _ZNK11OpenImageIO4v1_022FilterBlackmanHarris2D5yfiltEf@Base 1.0.4+dfsg0
 _ZNK11OpenImageIO4v1_022FilterBlackmanHarris2D9separableEv@Base 1.0.4+dfsg0
 _ZNK11OpenImageIO4v1_022FilterBlackmanHarris2DclEff@Base 1.0.4+dfsg0
 _ZNK11OpenImageIO4v1_023FilterRadialLanczos3_2D4nameEv@Base 1.0.4+dfsg0
 _ZNK11OpenImageIO4v1_023FilterRadialLanczos3_2D9separableEv@Base 1.0.4+dfsg0
 _ZNK11OpenImageIO4v1_023FilterRadialLanczos3_2DclEff@Base 1.0.4+dfsg0
 _ZNK11OpenImageIO4v1_029ColorProcessor_linear_to_sRGB5applyEPfiiiiii@Base 1.0.4+dfsg0
 _ZNK11OpenImageIO4v1_029ColorProcessor_sRGB_to_linear5applyEPfiiiiii@Base 1.0.4+dfsg0
 _ZNK11OpenImageIO4v1_031ColorProcessor_Rec709_to_linear5applyEPfiiiiii@Base 1.0.4+dfsg0
 _ZNK11OpenImageIO4v1_031ColorProcessor_linear_to_Rec7095applyEPfiiiiii@Base 1.0.4+dfsg0
 _ZNK11OpenImageIO4v1_03pvt14ImageCacheImpl10mergestatsERNS1_20ImageCacheStatisticsE@Base 1.0.4+dfsg0
 _ZNK11OpenImageIO4v1_03pvt14ImageCacheImpl10printstatsEv@Base 1.0.4+dfsg0
 _ZNK11OpenImageIO4v1_03pvt14ImageCacheImpl11tile_pixelsEPNS0_10ImageCache4TileERNS0_8TypeDescE@Base 1.0.4+dfsg0
 _ZNK11OpenImageIO4v1_03pvt14ImageCacheImpl12release_tileEPNS0_10ImageCache4TileE@Base 1.0.4+dfsg0
 _ZNK11OpenImageIO4v1_03pvt14ImageCacheImpl16resolve_filenameERKSs@Base 1.0.4+dfsg0
 _ZNK11OpenImageIO4v1_03pvt14ImageCacheImpl17onefile_stat_lineERKN5boost13intrusive_ptrINS1_14ImageCacheFileEEEib@Base 1.0.4+dfsg0
 _ZNK11OpenImageIO4v1_03pvt14ImageCacheImpl8geterrorEv@Base 1.0.4+dfsg0
 _ZNK11OpenImageIO4v1_03pvt14ImageCacheImpl8getstatsEi@Base 1.0.4+dfsg0
 _ZNK11OpenImageIO4v1_03pvt14ImageCacheTile14memsize_neededEv@Base 1.0.4+dfsg0
 _ZNK11OpenImageIO4v1_03pvt14ImageCacheTile17wait_pixels_readyEv@Base 1.0.4+dfsg0
 _ZNK11OpenImageIO4v1_03pvt14ImageCacheTile4dataEiii@Base 1.0.4+dfsg0
 _ZNK11OpenImageIO4v1_03pvt17TextureSystemImpl10printstatsEv@Base 1.0.4+dfsg0
 _ZNK11OpenImageIO4v1_03pvt17TextureSystemImpl16resolve_filenameERKSs@Base 1.0.4+dfsg0
 _ZNK11OpenImageIO4v1_03pvt17TextureSystemImpl8geterrorEv@Base 1.0.4+dfsg0
 _ZNK11OpenImageIO4v1_03pvt17TextureSystemImpl8getstatsEib@Base 1.0.4+dfsg0
 _ZNK11OpenImageIO4v1_04pugi10xpath_node4nodeEv@Base 1.0.4+dfsg0
 _ZNK11OpenImageIO4v1_04pugi10xpath_node6parentEv@Base 1.0.4+dfsg0
 _ZNK11OpenImageIO4v1_04pugi10xpath_node9attributeEv@Base 1.0.4+dfsg0
 _ZNK11OpenImageIO4v1_04pugi10xpath_nodecvMS2_NS1_8xml_nodeEEv@Base 1.0.4+dfsg0
 _ZNK11OpenImageIO4v1_04pugi10xpath_nodeeqERKS2_@Base 1.0.4+dfsg0
 _ZNK11OpenImageIO4v1_04pugi10xpath_nodeneERKS2_@Base 1.0.4+dfsg0
 _ZNK11OpenImageIO4v1_04pugi10xpath_nodentEv@Base 1.0.4+dfsg0
 _ZNK11OpenImageIO4v1_04pugi11xpath_query11return_typeEv@Base 1.0.4+dfsg0
 _ZNK11OpenImageIO4v1_04pugi11xpath_query15evaluate_numberERKNS1_10xpath_nodeE@Base 1.0.4+dfsg0
 _ZNK11OpenImageIO4v1_04pugi11xpath_query15evaluate_stringEPcjRKNS1_10xpath_nodeE@Base 1.0.4+dfsg0
 _ZNK11OpenImageIO4v1_04pugi11xpath_query15evaluate_stringERKNS1_10xpath_nodeE@Base 1.0.4+dfsg0
 _ZNK11OpenImageIO4v1_04pugi11xpath_query16evaluate_booleanERKNS1_10xpath_nodeE@Base 1.0.4+dfsg0
 _ZNK11OpenImageIO4v1_04pugi11xpath_query17evaluate_node_setERKNS1_10xpath_nodeE@Base 1.0.4+dfsg0
 _ZNK11OpenImageIO4v1_04pugi11xpath_query6resultEv@Base 1.0.4+dfsg0
 _ZNK11OpenImageIO4v1_04pugi11xpath_querycvMS2_PvEv@Base 1.0.4+dfsg0
 _ZNK11OpenImageIO4v1_04pugi11xpath_queryntEv@Base 1.0.4+dfsg0
 _ZNK11OpenImageIO4v1_04pugi12xml_document16document_elementEv@Base 1.0.4+dfsg0
 _ZNK11OpenImageIO4v1_04pugi12xml_document4saveERNS1_10xml_writerEPKcjNS1_12xml_encodingE@Base 1.0.4+dfsg0
 _ZNK11OpenImageIO4v1_04pugi12xml_document4saveERSoPKcjNS1_12xml_encodingE@Base 1.0.4+dfsg0
 _ZNK11OpenImageIO4v1_04pugi12xml_document4saveERSt13basic_ostreamIwSt11char_traitsIwEEPKcj@Base 1.0.4+dfsg0
 _ZNK11OpenImageIO4v1_04pugi12xml_document9save_fileEPKcS4_jNS1_12xml_encodingE@Base 1.0.4+dfsg0
 _ZNK11OpenImageIO4v1_04pugi12xml_document9save_fileEPKwPKcjNS1_12xml_encodingE@Base 1.0.4+dfsg0
 _ZNK11OpenImageIO4v1_04pugi13xml_attribute10hash_valueEv@Base 1.0.4+dfsg0
 _ZNK11OpenImageIO4v1_04pugi13xml_attribute14next_attributeEv@Base 1.0.4+dfsg0
 _ZNK11OpenImageIO4v1_04pugi13xml_attribute15internal_objectEv@Base 1.0.4+dfsg0
 _ZNK11OpenImageIO4v1_04pugi13xml_attribute18previous_attributeEv@Base 1.0.4+dfsg0
 _ZNK11OpenImageIO4v1_04pugi13xml_attribute4nameEv@Base 1.0.4+dfsg0
 _ZNK11OpenImageIO4v1_04pugi13xml_attribute5emptyEv@Base 1.0.4+dfsg0
 _ZNK11OpenImageIO4v1_04pugi13xml_attribute5valueEv@Base 1.0.4+dfsg0
 _ZNK11OpenImageIO4v1_04pugi13xml_attribute6as_intEv@Base 1.0.4+dfsg0
 _ZNK11OpenImageIO4v1_04pugi13xml_attribute7as_boolEv@Base 1.0.4+dfsg0
 _ZNK11OpenImageIO4v1_04pugi13xml_attribute7as_uintEv@Base 1.0.4+dfsg0
 _ZNK11OpenImageIO4v1_04pugi13xml_attribute8as_floatEv@Base 1.0.4+dfsg0
 _ZNK11OpenImageIO4v1_04pugi13xml_attribute9as_doubleEv@Base 1.0.4+dfsg0
 _ZNK11OpenImageIO4v1_04pugi13xml_attributecvMS2_PNS1_20xml_attribute_structEEv@Base 1.0.4+dfsg0
 _ZNK11OpenImageIO4v1_04pugi13xml_attributeeqERKS2_@Base 1.0.4+dfsg0
 _ZNK11OpenImageIO4v1_04pugi13xml_attributegeERKS2_@Base 1.0.4+dfsg0
 _ZNK11OpenImageIO4v1_04pugi13xml_attributegtERKS2_@Base 1.0.4+dfsg0
 _ZNK11OpenImageIO4v1_04pugi13xml_attributeleERKS2_@Base 1.0.4+dfsg0
 _ZNK11OpenImageIO4v1_04pugi13xml_attributeltERKS2_@Base 1.0.4+dfsg0
 _ZNK11OpenImageIO4v1_04pugi13xml_attributeneERKS2_@Base 1.0.4+dfsg0
 _ZNK11OpenImageIO4v1_04pugi13xml_attributentEv@Base 1.0.4+dfsg0
 _ZNK11OpenImageIO4v1_04pugi14xpath_node_set3endEv@Base 1.0.4+dfsg0
 _ZNK11OpenImageIO4v1_04pugi14xpath_node_set4sizeEv@Base 1.0.4+dfsg0
 _ZNK11OpenImageIO4v1_04pugi14xpath_node_set4typeEv@Base 1.0.4+dfsg0
 _ZNK11OpenImageIO4v1_04pugi14xpath_node_set5beginEv@Base 1.0.4+dfsg0
 _ZNK11OpenImageIO4v1_04pugi14xpath_node_set5emptyEv@Base 1.0.4+dfsg0
 _ZNK11OpenImageIO4v1_04pugi14xpath_node_set5firstEv@Base 1.0.4+dfsg0
 _ZNK11OpenImageIO4v1_04pugi14xpath_node_setixEj@Base 1.0.4+dfsg0
 _ZNK11OpenImageIO4v1_04pugi14xpath_variable10get_numberEv@Base 1.0.4+dfsg0
 _ZNK11OpenImageIO4v1_04pugi14xpath_variable10get_stringEv@Base 1.0.4+dfsg0
 _ZNK11OpenImageIO4v1_04pugi14xpath_variable11get_booleanEv@Base 1.0.4+dfsg0
 _ZNK11OpenImageIO4v1_04pugi14xpath_variable12get_node_setEv@Base 1.0.4+dfsg0
 _ZNK11OpenImageIO4v1_04pugi14xpath_variable4nameEv@Base 1.0.4+dfsg0
 _ZNK11OpenImageIO4v1_04pugi14xpath_variable4typeEv@Base 1.0.4+dfsg0
 _ZNK11OpenImageIO4v1_04pugi15xml_tree_walker5depthEv@Base 1.0.4+dfsg0
 _ZNK11OpenImageIO4v1_04pugi15xpath_exception4whatEv@Base 1.0.4+dfsg0
 _ZNK11OpenImageIO4v1_04pugi15xpath_exception6resultEv@Base 1.0.4+dfsg0
 _ZNK11OpenImageIO4v1_04pugi16xml_parse_result11descriptionEv@Base 1.0.4+dfsg0
 _ZNK11OpenImageIO4v1_04pugi16xml_parse_resultcvbEv@Base 1.0.4+dfsg0
 _ZNK11OpenImageIO4v1_04pugi17xml_node_iteratoreqERKS2_@Base 1.0.4+dfsg0
 _ZNK11OpenImageIO4v1_04pugi17xml_node_iteratorneERKS2_@Base 1.0.4+dfsg0
 _ZNK11OpenImageIO4v1_04pugi18xpath_parse_result11descriptionEv@Base 1.0.4+dfsg0
 _ZNK11OpenImageIO4v1_04pugi18xpath_parse_resultcvbEv@Base 1.0.4+dfsg0
 _ZNK11OpenImageIO4v1_04pugi18xpath_variable_set3getEPKc@Base 1.0.4+dfsg0
 _ZNK11OpenImageIO4v1_04pugi18xpath_variable_set4findEPKc@Base 1.0.4+dfsg0
 _ZNK11OpenImageIO4v1_04pugi22xml_attribute_iteratoreqERKS2_@Base 1.0.4+dfsg0
 _ZNK11OpenImageIO4v1_04pugi22xml_attribute_iteratorneERKS2_@Base 1.0.4+dfsg0
 _ZNK11OpenImageIO4v1_04pugi8xml_node10hash_valueEv@Base 1.0.4+dfsg0
 _ZNK11OpenImageIO4v1_04pugi8xml_node10last_childEv@Base 1.0.4+dfsg0
 _ZNK11OpenImageIO4v1_04pugi8xml_node11child_valueEPKc@Base 1.0.4+dfsg0
 _ZNK11OpenImageIO4v1_04pugi8xml_node11child_valueEv@Base 1.0.4+dfsg0
 _ZNK11OpenImageIO4v1_04pugi8xml_node11first_childEv@Base 1.0.4+dfsg0
 _ZNK11OpenImageIO4v1_04pugi8xml_node12next_siblingEPKc@Base 1.0.4+dfsg0
 _ZNK11OpenImageIO4v1_04pugi8xml_node12next_siblingEv@Base 1.0.4+dfsg0
 _ZNK11OpenImageIO4v1_04pugi8xml_node12offset_debugEv@Base 1.0.4+dfsg0
 _ZNK11OpenImageIO4v1_04pugi8xml_node12select_nodesEPKcPNS1_18xpath_variable_setE@Base 1.0.4+dfsg0
 _ZNK11OpenImageIO4v1_04pugi8xml_node12select_nodesERKNS1_11xpath_queryE@Base 1.0.4+dfsg0
 _ZNK11OpenImageIO4v1_04pugi8xml_node14attributes_endEv@Base 1.0.4+dfsg0
 _ZNK11OpenImageIO4v1_04pugi8xml_node14last_attributeEv@Base 1.0.4+dfsg0
 _ZNK11OpenImageIO4v1_04pugi8xml_node15first_attributeEv@Base 1.0.4+dfsg0
 _ZNK11OpenImageIO4v1_04pugi8xml_node15internal_objectEv@Base 1.0.4+dfsg0
 _ZNK11OpenImageIO4v1_04pugi8xml_node16attributes_beginEv@Base 1.0.4+dfsg0
 _ZNK11OpenImageIO4v1_04pugi8xml_node16previous_siblingEPKc@Base 1.0.4+dfsg0
 _ZNK11OpenImageIO4v1_04pugi8xml_node16previous_siblingEv@Base 1.0.4+dfsg0
 _ZNK11OpenImageIO4v1_04pugi8xml_node18select_single_nodeEPKcPNS1_18xpath_variable_setE@Base 1.0.4+dfsg0
 _ZNK11OpenImageIO4v1_04pugi8xml_node18select_single_nodeERKNS1_11xpath_queryE@Base 1.0.4+dfsg0
 _ZNK11OpenImageIO4v1_04pugi8xml_node21first_element_by_pathEPKcc@Base 1.0.4+dfsg0
 _ZNK11OpenImageIO4v1_04pugi8xml_node23find_child_by_attributeEPKcS4_@Base 1.0.4+dfsg0
 _ZNK11OpenImageIO4v1_04pugi8xml_node23find_child_by_attributeEPKcS4_S4_@Base 1.0.4+dfsg0
 _ZNK11OpenImageIO4v1_04pugi8xml_node3endEv@Base 1.0.4+dfsg0
 _ZNK11OpenImageIO4v1_04pugi8xml_node4nameEv@Base 1.0.4+dfsg0
 _ZNK11OpenImageIO4v1_04pugi8xml_node4pathEc@Base 1.0.4+dfsg0
 _ZNK11OpenImageIO4v1_04pugi8xml_node4rootEv@Base 1.0.4+dfsg0
 _ZNK11OpenImageIO4v1_04pugi8xml_node4typeEv@Base 1.0.4+dfsg0
 _ZNK11OpenImageIO4v1_04pugi8xml_node5beginEv@Base 1.0.4+dfsg0
 _ZNK11OpenImageIO4v1_04pugi8xml_node5childEPKc@Base 1.0.4+dfsg0
 _ZNK11OpenImageIO4v1_04pugi8xml_node5emptyEv@Base 1.0.4+dfsg0
 _ZNK11OpenImageIO4v1_04pugi8xml_node5printERNS1_10xml_writerEPKcjNS1_12xml_encodingEj@Base 1.0.4+dfsg0
 _ZNK11OpenImageIO4v1_04pugi8xml_node5printERSoPKcjNS1_12xml_encodingEj@Base 1.0.4+dfsg0
 _ZNK11OpenImageIO4v1_04pugi8xml_node5printERSt13basic_ostreamIwSt11char_traitsIwEEPKcjj@Base 1.0.4+dfsg0
 _ZNK11OpenImageIO4v1_04pugi8xml_node5valueEv@Base 1.0.4+dfsg0
 _ZNK11OpenImageIO4v1_04pugi8xml_node6parentEv@Base 1.0.4+dfsg0
 _ZNK11OpenImageIO4v1_04pugi8xml_node9attributeEPKc@Base 1.0.4+dfsg0
 _ZNK11OpenImageIO4v1_04pugi8xml_nodecvMS2_PNS1_15xml_node_structEEv@Base 1.0.4+dfsg0
 _ZNK11OpenImageIO4v1_04pugi8xml_nodeeqERKS2_@Base 1.0.4+dfsg0
 _ZNK11OpenImageIO4v1_04pugi8xml_nodegeERKS2_@Base 1.0.4+dfsg0
 _ZNK11OpenImageIO4v1_04pugi8xml_nodegtERKS2_@Base 1.0.4+dfsg0
 _ZNK11OpenImageIO4v1_04pugi8xml_nodeleERKS2_@Base 1.0.4+dfsg0
 _ZNK11OpenImageIO4v1_04pugi8xml_nodeltERKS2_@Base 1.0.4+dfsg0
 _ZNK11OpenImageIO4v1_04pugi8xml_nodeneERKS2_@Base 1.0.4+dfsg0
 _ZNK11OpenImageIO4v1_04pugi8xml_nodentEv@Base 1.0.4+dfsg0
 _ZNK11OpenImageIO4v1_05CSHA110ReportHashEPcNS1_11REPORT_TYPEE@Base 1.0.4+dfsg0
 _ZNK11OpenImageIO4v1_05CSHA113ReportHashStlERSsNS1_11REPORT_TYPEE@Base 1.0.4+dfsg0
 _ZNK11OpenImageIO4v1_05CSHA17GetHashEPh@Base 1.0.4+dfsg0
 _ZNK11OpenImageIO4v1_05Timer16time_since_startEv@Base 1.0.4+dfsg0
 _ZNK11OpenImageIO4v1_05TimerclEv@Base 1.0.4+dfsg0
 _ZNK11OpenImageIO4v1_06RefCnt7_increfEv@Base 1.0.4+dfsg0
 _ZNK11OpenImageIO4v1_06atomicIiEcviEv@Base 1.0.4+dfsg0
 _ZNK11OpenImageIO4v1_06atomicIxEcvxEv@Base 1.0.4+dfsg0
 _ZNK11OpenImageIO4v1_07bmp_pvt13BmpFileHeader5isBmpEv@Base 1.0.4+dfsg0
 _ZNK11OpenImageIO4v1_08ArgParse12command_lineEv@Base 1.0.4+dfsg0
 _ZNK11OpenImageIO4v1_08ArgParse5usageEv@Base 1.0.4+dfsg0
 _ZNK11OpenImageIO4v1_08ArgParse8geterrorEv@Base 1.0.4+dfsg0
 _ZNK11OpenImageIO4v1_08BmpInput11format_nameEv@Base 1.0.4+dfsg0
 _ZNK11OpenImageIO4v1_08DDSInput11format_nameEv@Base 1.0.4+dfsg0
 _ZNK11OpenImageIO4v1_08DDSInput16current_miplevelEv@Base 1.0.4+dfsg0
 _ZNK11OpenImageIO4v1_08DDSInput16current_subimageEv@Base 1.0.4+dfsg0
 _ZNK11OpenImageIO4v1_08DPXInput11format_nameEv@Base 1.0.4+dfsg0
 _ZNK11OpenImageIO4v1_08DPXInput16current_subimageEv@Base 1.0.4+dfsg0
 _ZNK11OpenImageIO4v1_08Filter2D5xfiltEf@Base 1.0.4+dfsg0
 _ZNK11OpenImageIO4v1_08Filter2D5yfiltEf@Base 1.0.4+dfsg0
 _ZNK11OpenImageIO4v1_08Filter2D9separableEv@Base 1.0.4+dfsg0
 _ZNK11OpenImageIO4v1_08HdrInput11format_nameEv@Base 1.0.4+dfsg0
 _ZNK11OpenImageIO4v1_08HdrInput16current_subimageEv@Base 1.0.4+dfsg0
 _ZNK11OpenImageIO4v1_08ICOInput11format_nameEv@Base 1.0.4+dfsg0
 _ZNK11OpenImageIO4v1_08ICOInput16current_subimageEv@Base 1.0.4+dfsg0
 _ZNK11OpenImageIO4v1_08IffInput11format_nameEv@Base 1.0.4+dfsg0
 _ZNK11OpenImageIO4v1_08ImageBuf10getchannelEiii@Base 1.0.4+dfsg0
 _ZNK11OpenImageIO4v1_08ImageBuf10oriented_xEv@Base 1.0.4+dfsg0
 _ZNK11OpenImageIO4v1_08ImageBuf10oriented_yEv@Base 1.0.4+dfsg0
 _ZNK11OpenImageIO4v1_08ImageBuf11copy_pixelsEiiiiNS0_8TypeDescEPv@Base 1.0.4+dfsg0
 _ZNK11OpenImageIO4v1_08ImageBuf11copy_pixelsI4halfEEbiiiiPT_@Base 1.0.4+dfsg0
 _ZNK11OpenImageIO4v1_08ImageBuf11copy_pixelsIcEEbiiiiPT_@Base 1.0.4+dfsg0
 _ZNK11OpenImageIO4v1_08ImageBuf11copy_pixelsIdEEbiiiiPT_@Base 1.0.4+dfsg0
 _ZNK11OpenImageIO4v1_08ImageBuf11copy_pixelsIfEEbiiiiPT_@Base 1.0.4+dfsg0
 _ZNK11OpenImageIO4v1_08ImageBuf11copy_pixelsIhEEbiiiiPT_@Base 1.0.4+dfsg0
 _ZNK11OpenImageIO4v1_08ImageBuf11copy_pixelsIiEEbiiiiPT_@Base 1.0.4+dfsg0
 _ZNK11OpenImageIO4v1_08ImageBuf11copy_pixelsIjEEbiiiiPT_@Base 1.0.4+dfsg0
 _ZNK11OpenImageIO4v1_08ImageBuf11copy_pixelsIsEEbiiiiPT_@Base 1.0.4+dfsg0
 _ZNK11OpenImageIO4v1_08ImageBuf11copy_pixelsItEEbiiiiPT_@Base 1.0.4+dfsg0
 _ZNK11OpenImageIO4v1_08ImageBuf11copy_pixelsIxEEbiiiiPT_@Base 1.0.4+dfsg0
 _ZNK11OpenImageIO4v1_08ImageBuf11copy_pixelsIyEEbiiiiPT_@Base 1.0.4+dfsg0
 _ZNK11OpenImageIO4v1_08ImageBuf11interppixelEffPf@Base 1.0.4+dfsg0
 _ZNK11OpenImageIO4v1_08ImageBuf14oriented_widthEv@Base 1.0.4+dfsg0
 _ZNK11OpenImageIO4v1_08ImageBuf15oriented_full_xEv@Base 1.0.4+dfsg0
 _ZNK11OpenImageIO4v1_08ImageBuf15oriented_full_yEv@Base 1.0.4+dfsg0
 _ZNK11OpenImageIO4v1_08ImageBuf15oriented_heightEv@Base 1.0.4+dfsg0
 _ZNK11OpenImageIO4v1_08ImageBuf19oriented_full_widthEv@Base 1.0.4+dfsg0
 _ZNK11OpenImageIO4v1_08ImageBuf20oriented_full_heightEv@Base 1.0.4+dfsg0
 _ZNK11OpenImageIO4v1_08ImageBuf4saveERKSsS3_PFbPvfES4_@Base 1.0.4+dfsg0
 _ZNK11OpenImageIO4v1_08ImageBuf5writeEPNS0_11ImageOutputEPFbPvfES4_@Base 1.0.4+dfsg0
 _ZNK11OpenImageIO4v1_08ImageBuf6retileEiiiRPNS0_10ImageCache4TileERiS6_S6_@Base 1.0.4+dfsg0
 _ZNK11OpenImageIO4v1_08ImageBuf8getpixelEiiiPfi@Base 1.0.4+dfsg0
 _ZNK11OpenImageIO4v1_08ImageBuf9pixeladdrEiii@Base 1.0.4+dfsg0
 _ZNK11OpenImageIO4v1_08JpgInput11format_nameEv@Base 1.0.4+dfsg0
 _ZNK11OpenImageIO4v1_08PNGInput11format_nameEv@Base 1.0.4+dfsg0
 _ZNK11OpenImageIO4v1_08PNGInput16current_subimageEv@Base 1.0.4+dfsg0
 _ZNK11OpenImageIO4v1_08PNMInput11format_nameEv@Base 1.0.4+dfsg0
 _ZNK11OpenImageIO4v1_08PNMInput16current_subimageEv@Base 1.0.4+dfsg0
 _ZNK11OpenImageIO4v1_08PSDInput11format_nameEv@Base 1.0.4+dfsg0
 _ZNK11OpenImageIO4v1_08PSDInput16current_subimageEv@Base 1.0.4+dfsg0
 _ZNK11OpenImageIO4v1_08RLAInput11format_nameEv@Base 1.0.4+dfsg0
 _ZNK11OpenImageIO4v1_08RLAInput16current_subimageEv@Base 1.0.4+dfsg0
 _ZNK11OpenImageIO4v1_08SgiInput11format_nameEv@Base 1.0.4+dfsg0
 _ZNK11OpenImageIO4v1_08TGAInput11format_nameEv@Base 1.0.4+dfsg0
 _ZNK11OpenImageIO4v1_08TypeDesc4sizeEv@Base 1.0.4+dfsg0
 _ZNK11OpenImageIO4v1_08TypeDesc5c_strEv@Base 1.0.4+dfsg0
 _ZNK11OpenImageIO4v1_08TypeDesc8basesizeEv@Base 1.0.4+dfsg0
 _ZNK11OpenImageIO4v1_09ArgOption15invoke_callbackEv@Base 1.0.4+dfsg0
 _ZNK11OpenImageIO4v1_09BmpOutput11format_nameEv@Base 1.0.4+dfsg0
 _ZNK11OpenImageIO4v1_09BmpOutput8supportsERKSs@Base 1.0.4+dfsg0
 _ZNK11OpenImageIO4v1_09DDSOutput11format_nameEv@Base 1.0.4+dfsg0
 _ZNK11OpenImageIO4v1_09DDSOutput8supportsERKSs@Base 1.0.4+dfsg0
 _ZNK11OpenImageIO4v1_09DPXOutput11format_nameEv@Base 1.0.4+dfsg0
 _ZNK11OpenImageIO4v1_09DPXOutput8supportsERKSs@Base 1.0.4+dfsg0
 _ZNK11OpenImageIO4v1_09FitsInput11format_nameEv@Base 1.0.4+dfsg0
 _ZNK11OpenImageIO4v1_09FitsInput16current_subimageEv@Base 1.0.4+dfsg0
 _ZNK11OpenImageIO4v1_09HdrOutput11format_nameEv@Base 1.0.4+dfsg0
 _ZNK11OpenImageIO4v1_09HdrOutput8supportsERKSs@Base 1.0.4+dfsg0
 _ZNK11OpenImageIO4v1_09ICOOutput11format_nameEv@Base 1.0.4+dfsg0
 _ZNK11OpenImageIO4v1_09ICOOutput8supportsERKSs@Base 1.0.4+dfsg0
 _ZNK11OpenImageIO4v1_09IffOutput11format_nameEv@Base 1.0.4+dfsg0
 _ZNK11OpenImageIO4v1_09IffOutput8supportsERKSs@Base 1.0.4+dfsg0
 _ZNK11OpenImageIO4v1_09ImageSpec10tile_bytesEb@Base 1.0.4+dfsg0
 _ZNK11OpenImageIO4v1_09ImageSpec11image_bytesEb@Base 1.0.4+dfsg0
 _ZNK11OpenImageIO4v1_09ImageSpec11pixel_bytesEb@Base 1.0.4+dfsg0
 _ZNK11OpenImageIO4v1_09ImageSpec11pixel_bytesEiib@Base 1.0.4+dfsg0
 _ZNK11OpenImageIO4v1_09ImageSpec11tile_pixelsEv@Base 1.0.4+dfsg0
 _ZNK11OpenImageIO4v1_09ImageSpec12image_pixelsEv@Base 1.0.4+dfsg0
 _ZNK11OpenImageIO4v1_09ImageSpec12metadata_valERKNS0_10ParamValueEb@Base 1.0.4+dfsg0
 _ZNK11OpenImageIO4v1_09ImageSpec13channel_bytesEib@Base 1.0.4+dfsg0
 _ZNK11OpenImageIO4v1_09ImageSpec13channel_bytesEv@Base 1.0.4+dfsg0
 _ZNK11OpenImageIO4v1_09ImageSpec14find_attributeERKSsNS0_8TypeDescEb@Base 1.0.4+dfsg0
 _ZNK11OpenImageIO4v1_09ImageSpec14scanline_bytesEb@Base 1.0.4+dfsg0
 _ZNK11OpenImageIO4v1_09ImageSpec17get_int_attributeERKSsi@Base 1.0.4+dfsg0
 _ZNK11OpenImageIO4v1_09ImageSpec19get_float_attributeERKSsf@Base 1.0.4+dfsg0
 _ZNK11OpenImageIO4v1_09ImageSpec20get_string_attributeERKSsS3_@Base 1.0.4+dfsg0
 _ZNK11OpenImageIO4v1_09ImageSpec6to_xmlEv@Base 1.0.4+dfsg0
 _ZNK11OpenImageIO4v1_09JpgOutput11format_nameEv@Base 1.0.4+dfsg0
 _ZNK11OpenImageIO4v1_09JpgOutput8supportsERKSs@Base 1.0.4+dfsg0
 _ZNK11OpenImageIO4v1_09PNGOutput11format_nameEv@Base 1.0.4+dfsg0
 _ZNK11OpenImageIO4v1_09PNGOutput8supportsERKSs@Base 1.0.4+dfsg0
 _ZNK11OpenImageIO4v1_09PNMOutput11format_nameEv@Base 1.0.4+dfsg0
 _ZNK11OpenImageIO4v1_09PNMOutput8supportsERKSs@Base 1.0.4+dfsg0
 _ZNK11OpenImageIO4v1_09PSDOutput11format_nameEv@Base 1.0.4+dfsg0
 _ZNK11OpenImageIO4v1_09PSDOutput8supportsERKSs@Base 1.0.4+dfsg0
 _ZNK11OpenImageIO4v1_09PtexInput11format_nameEv@Base 1.0.4+dfsg0
 _ZNK11OpenImageIO4v1_09PtexInput16current_miplevelEv@Base 1.0.4+dfsg0
 _ZNK11OpenImageIO4v1_09PtexInput16current_subimageEv@Base 1.0.4+dfsg0
 _ZNK11OpenImageIO4v1_09RLAOutput11format_nameEv@Base 1.0.4+dfsg0
 _ZNK11OpenImageIO4v1_09RLAOutput8supportsERKSs@Base 1.0.4+dfsg0
 _ZNK11OpenImageIO4v1_09SgiOutput11format_nameEv@Base 1.0.4+dfsg0
 _ZNK11OpenImageIO4v1_09SgiOutput8supportsERKSs@Base 1.0.4+dfsg0
 _ZNK11OpenImageIO4v1_09TGAOutput11format_nameEv@Base 1.0.4+dfsg0
 _ZNK11OpenImageIO4v1_09TGAOutput8supportsERKSs@Base 1.0.4+dfsg0
 _ZNK11OpenImageIO4v1_09TIFFInput11format_nameEv@Base 1.0.4+dfsg0
 _ZNK11OpenImageIO4v1_09TIFFInput16current_miplevelEv@Base 1.0.4+dfsg0
 _ZNK11OpenImageIO4v1_09TIFFInput16current_subimageEv@Base 1.0.4+dfsg0
 _ZNK3Imf14TypedAttributeIN5Imath4Vec3IfEEE4copyEv@Base 1.0.4+dfsg0
 _ZNK3Imf14TypedAttributeIN5Imath4Vec3IfEEE8typeNameEv@Base 1.0.4+dfsg0
 _ZNK3Imf14TypedAttributeIN5Imath8Matrix44IfEEE4copyEv@Base 1.0.4+dfsg0
 _ZNK3Imf14TypedAttributeIN5Imath8Matrix44IfEEE8typeNameEv@Base 1.0.4+dfsg0
 _ZNK3Imf14TypedAttributeINS_6EnvmapEE4copyEv@Base 1.0.4+dfsg0
 _ZNK3Imf14TypedAttributeINS_6EnvmapEE8typeNameEv@Base 1.0.4+dfsg0
 _ZNK3Imf14TypedAttributeISsE4copyEv@Base 1.0.4+dfsg0
 _ZNK3Imf14TypedAttributeISsE8typeNameEv@Base 1.0.4+dfsg0
 _ZNK3Imf14TypedAttributeIfE12writeValueToERNS_7OStreamEi@Base 1.0.4+dfsg0
 _ZNK3Imf14TypedAttributeIfE4copyEv@Base 1.0.4+dfsg0
 _ZNK3Imf14TypedAttributeIfE8typeNameEv@Base 1.0.4+dfsg0
 _ZNK3Imf14TypedAttributeIiE12writeValueToERNS_7OStreamEi@Base 1.0.4+dfsg0
 _ZNK3Imf14TypedAttributeIiE4copyEv@Base 1.0.4+dfsg0
 _ZNK3Imf14TypedAttributeIiE8typeNameEv@Base 1.0.4+dfsg0
 _ZNK3Imf6Header18findTypedAttributeINS_14TypedAttributeIN5Imath4Vec3IfEEEEEEPKT_PKc@Base 1.0.4+dfsg0
 _ZNK3Imf6Header18findTypedAttributeINS_14TypedAttributeIN5Imath8Matrix44IfEEEEEEPKT_PKc@Base 1.0.4+dfsg0
 _ZNK3Imf6Header18findTypedAttributeINS_14TypedAttributeINS_11CompressionEEEEEPKT_PKc@Base 1.0.4+dfsg0
 _ZNK3Imf6Header18findTypedAttributeINS_14TypedAttributeINS_6EnvmapEEEEEPKT_PKc@Base 1.0.4+dfsg0
 _ZNK3Imf6Header18findTypedAttributeINS_14TypedAttributeIfEEEEPKT_PKc@Base 1.0.4+dfsg0
 _ZNK3Imf6Header18findTypedAttributeINS_14TypedAttributeIiEEEEPKT_PKc@Base 1.0.4+dfsg0
 _ZNK3dpx13GenericHeader17ComponentDataSizeEi@Base 1.0.4+dfsg0
 _ZNK3dpx13GenericHeader17ImageElementCountEv@Base 1.0.4+dfsg0
 _ZNK3dpx13GenericHeader18ComponentByteCountEi@Base 1.0.4+dfsg0
 _ZNK3dpx13GenericHeader26ImageElementComponentCountEi@Base 1.0.4+dfsg0
 _ZNK3dpx14IndustryHeader12FilmEdgeCodeEPc@Base 1.0.4+dfsg0
 _ZNK3dpx14IndustryHeader12TCFromStringEPKc@Base 1.0.4+dfsg0
 _ZNK3dpx14IndustryHeader8TimeCodeEPc@Base 1.0.4+dfsg0
 _ZNK3dpx14IndustryHeader8UserBitsEPc@Base 1.0.4+dfsg0
 _ZNK3dpx6Header17DetermineByteSwapEj@Base 1.0.4+dfsg0
 _ZNK3dpx6Header5WidthEv@Base 1.0.4+dfsg0
 _ZNK3dpx6Header6HeightEv@Base 1.0.4+dfsg0
 _ZNK3dpx6Header9DatumSwapEi@Base 1.0.4+dfsg0
 _ZNK3dpx6Writer16NextAvailElementEv@Base 1.0.4+dfsg0
 _ZNK5Imath8Matrix44IfE7inverseEb@Base 1.0.4+dfsg0
 _ZNK5Imath8Matrix44IfE9gjInverseEb@Base 1.0.4+dfsg0
 _ZNK5boost10lock_error4whatEv@Base 1.0.4+dfsg0
 _ZNK5boost13match_resultsIN9__gnu_cxx17__normal_iteratorIPKcSsEESaINS_9sub_matchIS5_EEEEixEi@Base 1.0.4+dfsg0
 _ZNK5boost14char_separatorIcSt11char_traitsIcEE10is_droppedEc@Base 1.0.4+dfsg0
 _ZNK5boost14char_separatorIcSt11char_traitsIcEE7is_keptEc@Base 1.0.4+dfsg0
 _ZNK5boost16cpp_regex_traitsIcE7isctypeEcj@Base 1.0.4+dfsg0
 _ZNK5boost16exception_detail10clone_implINS0_10bad_alloc_EE5cloneEv@Base 1.0.4+dfsg0
 _ZNK5boost16exception_detail10clone_implINS0_10bad_alloc_EE7rethrowEv@Base 1.0.4+dfsg0
 _ZNK5boost16exception_detail10clone_implINS0_14bad_exception_EE5cloneEv@Base 1.0.4+dfsg0
 _ZNK5boost16exception_detail10clone_implINS0_14bad_exception_EE7rethrowEv@Base 1.0.4+dfsg0
 _ZNK5boost16exception_detail10clone_implINS0_19error_info_injectorINS_10lock_errorEEEE5cloneEv@Base 1.0.4+dfsg0
 _ZNK5boost16exception_detail10clone_implINS0_19error_info_injectorINS_10lock_errorEEEE7rethrowEv@Base 1.0.4+dfsg0
 _ZNK5boost16exception_detail10clone_implINS0_19error_info_injectorINS_17bad_function_callEEEE5cloneEv@Base 1.0.4+dfsg0
 _ZNK5boost16exception_detail10clone_implINS0_19error_info_injectorINS_17bad_function_callEEEE7rethrowEv@Base 1.0.4+dfsg0
 _ZNK5boost16exception_detail10clone_implINS0_19error_info_injectorINS_21thread_resource_errorEEEE5cloneEv@Base 1.0.4+dfsg0
 _ZNK5boost16exception_detail10clone_implINS0_19error_info_injectorINS_21thread_resource_errorEEEE7rethrowEv@Base 1.0.4+dfsg0
 _ZNK5boost16exception_detail10clone_implINS0_19error_info_injectorINS_6system12system_errorEEEE5cloneEv@Base 1.0.4+dfsg0
 _ZNK5boost16exception_detail10clone_implINS0_19error_info_injectorINS_6system12system_errorEEEE7rethrowEv@Base 1.0.4+dfsg0
 _ZNK5boost16exception_detail10clone_implINS0_19error_info_injectorISt11logic_errorEEE5cloneEv@Base 1.0.4+dfsg0
 _ZNK5boost16exception_detail10clone_implINS0_19error_info_injectorISt11logic_errorEEE7rethrowEv@Base 1.0.4+dfsg0
 _ZNK5boost21thread_resource_error4whatEv@Base 1.0.4+dfsg0
 _ZNK5boost4asio5error6detail13misc_category4nameEv@Base 1.0.4+dfsg0
 _ZNK5boost4asio5error6detail13misc_category7messageEi@Base 1.0.4+dfsg0
 _ZNK5boost4asio5error6detail14netdb_category4nameEv@Base 1.0.4+dfsg0
 _ZNK5boost4asio5error6detail14netdb_category7messageEi@Base 1.0.4+dfsg0
 _ZNK5boost4asio5error6detail17addrinfo_category4nameEv@Base 1.0.4+dfsg0
 _ZNK5boost4asio5error6detail17addrinfo_category7messageEi@Base 1.0.4+dfsg0
 _ZNK5boost6system12system_error4whatEv@Base 1.0.4+dfsg0
 _ZNK5boost6system14error_category10equivalentERKNS0_10error_codeEi@Base 1.0.4+dfsg0
 _ZNK5boost6system14error_category10equivalentEiRKNS0_15error_conditionE@Base 1.0.4+dfsg0
 _ZNK5boost6system14error_category23default_error_conditionEi@Base 1.0.4+dfsg0
 _ZNK5boost9re_detail20named_subexpressions11equal_rangeEi@Base 1.0.4+dfsg0
 _ZNK5boost9re_detail31cpp_regex_traits_implementationIcE12error_stringENS_15regex_constants10error_typeE@Base 1.0.4+dfsg0
 _ZNK6cineon13GenericHeader17ComponentDataSizeEi@Base 1.0.4+dfsg0
 _ZNK6cineon13GenericHeader17ImageElementCountEv@Base 1.0.4+dfsg0
 _ZNK6cineon13GenericHeader18ComponentByteCountEi@Base 1.0.4+dfsg0
 _ZNK6cineon14IndustryHeader12FilmEdgeCodeEPc@Base 1.0.4+dfsg0
 _ZNK6cineon6Header17DetermineByteSwapEj@Base 1.0.4+dfsg0
 _ZNK6cineon6Header5WidthEv@Base 1.0.4+dfsg0
 _ZNK6cineon6Header6HeightEv@Base 1.0.4+dfsg0
 _ZNK6cineon6Writer16NextAvailElementEv@Base 1.0.4+dfsg0
 _ZNK6cineon8InStream9EndOfFileEv@Base 1.0.4+dfsg0
 _ZNK6squish9ColourSet12RemapIndicesEPKhPh@Base 1.0.4+dfsg0
 _ZNK8InStream9EndOfFileEv@Base 1.0.4+dfsg0
 _ZNKSt6vectorI15png_text_structSaIS0_EE12_M_check_lenEjPKc@Base 1.0.4+dfsg0
 _ZNKSt6vectorIN11OpenImageIO4v1_03pvt14ImageCacheFile12SubimageInfoESaIS4_EE12_M_check_lenEjPKc@Base 1.0.4+dfsg0
 _ZNKSt6vectorIN11OpenImageIO4v1_03pvt14ImageCacheFile9LevelInfoESaIS4_EE12_M_check_lenEjPKc@Base 1.0.4+dfsg0
 _ZNKSt6vectorIN11OpenImageIO4v1_07ustringESaIS2_EE12_M_check_lenEjPKc@Base 1.0.4+dfsg0
 _ZNKSt6vectorIN11OpenImageIO4v1_08PSDInput11ChannelInfoESaIS3_EE12_M_check_lenEjPKc@Base 1.0.4+dfsg0
 _ZNKSt6vectorIN11OpenImageIO4v1_08PSDInput5Layer14AdditionalInfoESaIS4_EE12_M_check_lenEjPKc@Base 1.0.4+dfsg0
 _ZNKSt6vectorIN11OpenImageIO4v1_08PSDInput5LayerESaIS3_EE12_M_check_lenEjPKc@Base 1.0.4+dfsg0
 _ZNKSt6vectorIN11OpenImageIO4v1_08TypeDescESaIS2_EE12_M_check_lenEjPKc@Base 1.0.4+dfsg0
 _ZNKSt6vectorIN11OpenImageIO4v1_09ImageSpecESaIS2_EE12_M_check_lenEjPKc@Base 1.0.4+dfsg0
 _ZNKSt6vectorIN3Imf9PixelTypeESaIS1_EE12_M_check_lenEjPKc@Base 1.0.4+dfsg0
 _ZNKSt6vectorIN5boost13intrusive_ptrIN11OpenImageIO4v1_03pvt14ImageCacheFileEEESaIS6_EE12_M_check_lenEjPKc@Base 1.0.4+dfsg0
 _ZNKSt6vectorIN5boost4asio2ip20basic_resolver_entryINS2_3tcpEEESaIS5_EE12_M_check_lenEjPKc@Base 1.0.4+dfsg0
 _ZNKSt6vectorIN5boost9re_detail14recursion_infoINS0_13match_resultsIN9__gnu_cxx17__normal_iteratorIPKcSsEESaINS0_9sub_matchIS8_EEEEEEESaISD_EE12_M_check_lenEjS7_@Base 1.0.4+dfsg0
 _ZNKSt6vectorIN5boost9sub_matchIN9__gnu_cxx17__normal_iteratorIPKcSsEEEESaIS7_EE12_M_check_lenEjS5_@Base 1.0.4+dfsg0
 _ZNKSt6vectorIPN11OpenImageIO4v1_03pvt23ImageCachePerThreadInfoESaIS4_EE12_M_check_lenEjPKc@Base 1.0.4+dfsg0
 _ZNKSt6vectorIPN11OpenImageIO4v1_08PSDInput11ChannelInfoESaIS4_EE12_M_check_lenEjPKc@Base 1.0.4+dfsg0
 _ZNKSt6vectorIS_IPN11OpenImageIO4v1_08PSDInput11ChannelInfoESaIS4_EESaIS6_EE12_M_check_lenEjPKc@Base 1.0.4+dfsg0
 _ZNKSt6vectorISsSaISsEE12_M_check_lenEjPKc@Base 1.0.4+dfsg0
 _ZNKSt6vectorISt4fposI11__mbstate_tESaIS2_EE12_M_check_lenEjPKc@Base 1.0.4+dfsg0
 _ZNKSt6vectorIcSaIcEE12_M_check_lenEjPKc@Base 1.0.4+dfsg0
 _ZNKSt6vectorIfSaIfEE12_M_check_lenEjPKc@Base 1.0.4+dfsg0
 _ZNKSt6vectorIhSaIhEE12_M_check_lenEjPKc@Base 1.0.4+dfsg0
 _ZNKSt6vectorIiSaIiEE12_M_check_lenEjPKc@Base 1.0.4+dfsg0
 _ZNKSt6vectorIjSaIjEE12_M_check_lenEjPKc@Base 1.0.4+dfsg0
 _ZNKSt6vectorItSaItEE12_M_check_lenEjPKc@Base 1.0.4+dfsg0
 _ZNKSt6vectorIySaIyEE12_M_check_lenEjPKc@Base 1.0.4+dfsg0
 _ZNKSt8_Rb_treeIiSt4pairIKiSsESt10_Select1stIS2_ESt4lessIiESaIS2_EE4findERS1_@Base 1.0.4+dfsg0
 _ZNSs6assignIN9__gnu_cxx17__normal_iteratorIPKcSsEEEERSsT_S6_@Base 1.0.4+dfsg0
 _ZNSsC1IN9__gnu_cxx17__normal_iteratorIPcSsEEEET_S4_RKSaIcE@Base 1.0.4+dfsg0
 _ZNSsC2IN9__gnu_cxx17__normal_iteratorIPcSsEEEET_S4_RKSaIcE@Base 1.0.4+dfsg0
 _ZNSt10_List_baseISt4pairIiN5boost4asio6detail16reactor_op_queueIiE10operationsEESaIS7_EE8_M_clearEv@Base 1.0.4+dfsg0
 _ZNSt11__copy_moveILb0ELb0ESt26random_access_iterator_tagE8__copy_mIPKN11OpenImageIO4v1_010ParamValueEPS5_EET0_T_SA_S9_@Base 1.0.4+dfsg0
 _ZNSt11__copy_moveILb0ELb0ESt26random_access_iterator_tagE8__copy_mIPKN11OpenImageIO4v1_03pvt14ImageCacheFile9LevelInfoEPS7_EET0_T_SC_SB_@Base 1.0.4+dfsg0
 _ZNSt11__copy_moveILb0ELb0ESt26random_access_iterator_tagE8__copy_mIPKN11OpenImageIO4v1_08PSDInput11ChannelInfoEPS6_EET0_T_SB_SA_@Base 1.0.4+dfsg0
 _ZNSt11__copy_moveILb0ELb0ESt26random_access_iterator_tagE8__copy_mIPKN11OpenImageIO4v1_08PSDInput5Layer14AdditionalInfoEPS7_EET0_T_SC_SB_@Base 1.0.4+dfsg0
 _ZNSt11__copy_moveILb0ELb0ESt26random_access_iterator_tagE8__copy_mIPKSsPSsEET0_T_S7_S6_@Base 1.0.4+dfsg0
 _ZNSt11__copy_moveILb0ELb0ESt26random_access_iterator_tagE8__copy_mIPN11OpenImageIO4v1_010ParamValueES6_EET0_T_S8_S7_@Base 1.0.4+dfsg0
 _ZNSt11__copy_moveILb0ELb0ESt26random_access_iterator_tagE8__copy_mIPN11OpenImageIO4v1_03pvt14ImageCacheFile9LevelInfoES8_EET0_T_SA_S9_@Base 1.0.4+dfsg0
 _ZNSt11__copy_moveILb0ELb0ESt26random_access_iterator_tagE8__copy_mIPN11OpenImageIO4v1_08PSDInput11ChannelInfoES7_EET0_T_S9_S8_@Base 1.0.4+dfsg0
 _ZNSt11__copy_moveILb0ELb0ESt26random_access_iterator_tagE8__copy_mIPN11OpenImageIO4v1_08PSDInput5Layer14AdditionalInfoES8_EET0_T_SA_S9_@Base 1.0.4+dfsg0
 _ZNSt11__copy_moveILb0ELb0ESt26random_access_iterator_tagE8__copy_mIPSsS3_EET0_T_S5_S4_@Base 1.0.4+dfsg0
 _ZNSt11__copy_moveILb0ELb1ESt26random_access_iterator_tagE8__copy_mI15png_text_structEEPT_PKS4_S7_S5_@Base 1.0.4+dfsg0
 _ZNSt11__copy_moveILb0ELb1ESt26random_access_iterator_tagE8__copy_mIN3Imf9PixelTypeEEEPT_PKS5_S8_S6_@Base 1.0.4+dfsg0
 _ZNSt11__copy_moveILb0ELb1ESt26random_access_iterator_tagE8__copy_mIPN11OpenImageIO4v1_03pvt23ImageCachePerThreadInfoEEEPT_PKS8_SB_S9_@Base 1.0.4+dfsg0
 _ZNSt11__copy_moveILb0ELb1ESt26random_access_iterator_tagE8__copy_mIcEEPT_PKS3_S6_S4_@Base 1.0.4+dfsg0
 _ZNSt11__copy_moveILb0ELb1ESt26random_access_iterator_tagE8__copy_mIfEEPT_PKS3_S6_S4_@Base 1.0.4+dfsg0
 _ZNSt11__copy_moveILb0ELb1ESt26random_access_iterator_tagE8__copy_mIiEEPT_PKS3_S6_S4_@Base 1.0.4+dfsg0
 _ZNSt11__copy_moveILb0ELb1ESt26random_access_iterator_tagE8__copy_mIyEEPT_PKS3_S6_S4_@Base 1.0.4+dfsg0
 _ZNSt11logic_errorC1ERKS_@Base 1.0.4+dfsg0
 _ZNSt11logic_errorC2ERKS_@Base 1.0.4+dfsg0
 _ZNSt12_Destroy_auxILb0EE9__destroyIN9__gnu_cxx17__normal_iteratorIPN11OpenImageIO4v1_03pvt14ImageCacheFile9LevelInfoESt6vectorIS8_SaIS8_EEEEEEvT_SE_@Base 1.0.4+dfsg0
 _ZNSt12_Destroy_auxILb0EE9__destroyIN9__gnu_cxx17__normal_iteratorIPN11OpenImageIO4v1_08PSDInput11ChannelInfoESt6vectorIS7_SaIS7_EEEEEEvT_SD_@Base 1.0.4+dfsg0
 _ZNSt12_Destroy_auxILb0EE9__destroyIN9__gnu_cxx17__normal_iteratorIPSsSt6vectorISsSaISsEEEEEEvT_S9_@Base 1.0.4+dfsg0
 _ZNSt12_Destroy_auxILb0EE9__destroyIPN11OpenImageIO4v1_010ParamValueEEEvT_S6_@Base 1.0.4+dfsg0
 _ZNSt12_Destroy_auxILb0EE9__destroyIPN11OpenImageIO4v1_03pvt14ImageCacheFile12SubimageInfoEEEvT_S8_@Base 1.0.4+dfsg0
 _ZNSt12_Destroy_auxILb0EE9__destroyIPN11OpenImageIO4v1_03pvt14ImageCacheFile9LevelInfoEEEvT_S8_@Base 1.0.4+dfsg0
 _ZNSt12_Destroy_auxILb0EE9__destroyIPN11OpenImageIO4v1_08PSDInput11ChannelInfoEEEvT_S7_@Base 1.0.4+dfsg0
 _ZNSt12_Destroy_auxILb0EE9__destroyIPN11OpenImageIO4v1_08PSDInput5LayerEEEvT_S7_@Base 1.0.4+dfsg0
 _ZNSt12_Destroy_auxILb0EE9__destroyIPN11OpenImageIO4v1_09ImageSpecEEEvT_S6_@Base 1.0.4+dfsg0
 _ZNSt12_Destroy_auxILb0EE9__destroyIPN14PtexMainWriter8LevelRecEEEvT_S5_@Base 1.0.4+dfsg0
 _ZNSt12_Destroy_auxILb0EE9__destroyIPN14PtexWriterBase9MetaEntryEEEvT_S5_@Base 1.0.4+dfsg0
 _ZNSt12_Destroy_auxILb0EE9__destroyIPN5boost13intrusive_ptrIN11OpenImageIO4v1_03pvt14ImageCacheFileEEEEEvT_SA_@Base 1.0.4+dfsg0
 _ZNSt12_Destroy_auxILb0EE9__destroyIPN5boost4asio2ip20basic_resolver_entryINS4_3tcpEEEEEvT_S9_@Base 1.0.4+dfsg0
 _ZNSt12_Destroy_auxILb0EE9__destroyIPN5boost9re_detail14recursion_infoINS2_13match_resultsIN9__gnu_cxx17__normal_iteratorIPKcSsEESaINS2_9sub_matchISA_EEEEEEEEEvT_SH_@Base 1.0.4+dfsg0
 _ZNSt12_Destroy_auxILb0EE9__destroyIPSsEEvT_S3_@Base 1.0.4+dfsg0
 _ZNSt12_Destroy_auxILb0EE9__destroyIPSt4pairISsiEEEvT_S5_@Base 1.0.4+dfsg0
 _ZNSt12_Destroy_auxILb0EE9__destroyIPSt6vectorIPN11OpenImageIO4v1_08PSDInput11ChannelInfoESaIS7_EEEEvT_SB_@Base 1.0.4+dfsg0
 _ZNSt12_Vector_baseIN11OpenImageIO4v1_010ParamValueESaIS2_EED1Ev@Base 1.0.4+dfsg0
 _ZNSt12_Vector_baseIN11OpenImageIO4v1_010ParamValueESaIS2_EED2Ev@Base 1.0.4+dfsg0
 _ZNSt12_Vector_baseIN11OpenImageIO4v1_03pvt14ImageCacheFile12SubimageInfoESaIS4_EED1Ev@Base 1.0.4+dfsg0
 _ZNSt12_Vector_baseIN11OpenImageIO4v1_03pvt14ImageCacheFile12SubimageInfoESaIS4_EED2Ev@Base 1.0.4+dfsg0
 _ZNSt12_Vector_baseIN11OpenImageIO4v1_03pvt14ImageCacheFile9LevelInfoESaIS4_EED1Ev@Base 1.0.4+dfsg0
 _ZNSt12_Vector_baseIN11OpenImageIO4v1_03pvt14ImageCacheFile9LevelInfoESaIS4_EED2Ev@Base 1.0.4+dfsg0
 _ZNSt12_Vector_baseIN11OpenImageIO4v1_08PSDInput11ChannelInfoESaIS3_EED1Ev@Base 1.0.4+dfsg0
 _ZNSt12_Vector_baseIN11OpenImageIO4v1_08PSDInput11ChannelInfoESaIS3_EED2Ev@Base 1.0.4+dfsg0
 _ZNSt12_Vector_baseIN5boost13intrusive_ptrIN11OpenImageIO4v1_03pvt14ImageCacheFileEEESaIS6_EED1Ev@Base 1.0.4+dfsg0
 _ZNSt12_Vector_baseIN5boost13intrusive_ptrIN11OpenImageIO4v1_03pvt14ImageCacheFileEEESaIS6_EED2Ev@Base 1.0.4+dfsg0
 _ZNSt12_Vector_baseIN5boost9re_detail14recursion_infoINS0_13match_resultsIN9__gnu_cxx17__normal_iteratorIPKcSsEESaINS0_9sub_matchIS8_EEEEEEESaISD_EED1Ev@Base 1.0.4+dfsg0
 _ZNSt12_Vector_baseIN5boost9re_detail14recursion_infoINS0_13match_resultsIN9__gnu_cxx17__normal_iteratorIPKcSsEESaINS0_9sub_matchIS8_EEEEEEESaISD_EED2Ev@Base 1.0.4+dfsg0
 _ZNSt12_Vector_baseISsSaISsEED1Ev@Base 1.0.4+dfsg0
 _ZNSt12_Vector_baseISsSaISsEED2Ev@Base 1.0.4+dfsg0
 _ZNSt12_Vector_baseIcSaIcEED1Ev@Base 1.0.4+dfsg0
 _ZNSt12_Vector_baseIcSaIcEED2Ev@Base 1.0.4+dfsg0
 _ZNSt12_Vector_baseIhSaIhEED1Ev@Base 1.0.4+dfsg0
 _ZNSt12_Vector_baseIhSaIhEED2Ev@Base 1.0.4+dfsg0
 _ZNSt14numeric_limitsI4halfE3maxEv@Base 1.0.4+dfsg0
 _ZNSt14numeric_limitsI4halfE3minEv@Base 1.0.4+dfsg0
 _ZNSt15basic_stringbufIcSt11char_traitsIcESaIcEED0Ev@Base 1.0.4+dfsg0
 _ZNSt15basic_stringbufIcSt11char_traitsIcESaIcEED1Ev@Base 1.0.4+dfsg0
 _ZNSt15basic_stringbufIcSt11char_traitsIcESaIcEED2Ev@Base 1.0.4+dfsg0
 _ZNSt20__copy_move_backwardILb0ELb0ESt26random_access_iterator_tagE13__copy_move_bIPN11OpenImageIO4v1_03pvt14ImageCacheFile12SubimageInfoES8_EET0_T_SA_S9_@Base 1.0.4+dfsg0
 _ZNSt20__copy_move_backwardILb0ELb0ESt26random_access_iterator_tagE13__copy_move_bIPN11OpenImageIO4v1_03pvt14ImageCacheFile9LevelInfoES8_EET0_T_SA_S9_@Base 1.0.4+dfsg0
 _ZNSt20__copy_move_backwardILb0ELb0ESt26random_access_iterator_tagE13__copy_move_bIPN11OpenImageIO4v1_08PSDInput11ChannelInfoES7_EET0_T_S9_S8_@Base 1.0.4+dfsg0
 _ZNSt20__copy_move_backwardILb0ELb0ESt26random_access_iterator_tagE13__copy_move_bIPN11OpenImageIO4v1_08PSDInput5LayerES7_EET0_T_S9_S8_@Base 1.0.4+dfsg0
 _ZNSt20__copy_move_backwardILb0ELb0ESt26random_access_iterator_tagE13__copy_move_bIPN11OpenImageIO4v1_09ImageSpecES6_EET0_T_S8_S7_@Base 1.0.4+dfsg0
 _ZNSt20__copy_move_backwardILb0ELb0ESt26random_access_iterator_tagE13__copy_move_bIPN14PtexMainWriter8LevelRecES5_EET0_T_S7_S6_@Base 1.0.4+dfsg0
 _ZNSt20__copy_move_backwardILb0ELb0ESt26random_access_iterator_tagE13__copy_move_bIPN14PtexWriterBase9MetaEntryES5_EET0_T_S7_S6_@Base 1.0.4+dfsg0
 _ZNSt20__copy_move_backwardILb0ELb0ESt26random_access_iterator_tagE13__copy_move_bIPN5boost13intrusive_ptrIN11OpenImageIO4v1_03pvt14ImageCacheFileEEESA_EET0_T_SC_SB_@Base 1.0.4+dfsg0
 _ZNSt20__copy_move_backwardILb0ELb0ESt26random_access_iterator_tagE13__copy_move_bIPN5boost4asio2ip20basic_resolver_entryINS5_3tcpEEES9_EET0_T_SB_SA_@Base 1.0.4+dfsg0
 _ZNSt20__copy_move_backwardILb0ELb0ESt26random_access_iterator_tagE13__copy_move_bIPN5boost9re_detail14recursion_infoINS3_13match_resultsIN9__gnu_cxx17__normal_iteratorIPKcSsEESaINS3_9sub_matchISB_EEEEEEESH_EET0_T_SJ_SI_@Base 1.0.4+dfsg0
 _ZNSt20__copy_move_backwardILb0ELb0ESt26random_access_iterator_tagE13__copy_move_bIPSsS3_EET0_T_S5_S4_@Base 1.0.4+dfsg0
 _ZNSt20__copy_move_backwardILb0ELb0ESt26random_access_iterator_tagE13__copy_move_bIPSt6vectorIPN11OpenImageIO4v1_08PSDInput11ChannelInfoESaIS8_EESB_EET0_T_SD_SC_@Base 1.0.4+dfsg0
 _ZNSt20__copy_move_backwardILb0ELb1ESt26random_access_iterator_tagE13__copy_move_bIcEEPT_PKS3_S6_S4_@Base 1.0.4+dfsg0
 _ZNSt20__uninitialized_copyILb0EE13__uninit_copyIN9__gnu_cxx17__normal_iteratorIPKN11OpenImageIO4v1_010ParamValueESt6vectorIS6_SaIS6_EEEEPS6_EET0_T_SF_SE_@Base 1.0.4+dfsg0
 _ZNSt20__uninitialized_copyILb0EE13__uninit_copyIN9__gnu_cxx17__normal_iteratorIPKN11OpenImageIO4v1_03pvt14ImageCacheFile9LevelInfoESt6vectorIS8_SaIS8_EEEEPS8_EET0_T_SH_SG_@Base 1.0.4+dfsg0
 _ZNSt20__uninitialized_copyILb0EE13__uninit_copyIN9__gnu_cxx17__normal_iteratorIPKN11OpenImageIO4v1_08PSDInput11ChannelInfoESt6vectorIS7_SaIS7_EEEEPS7_EET0_T_SG_SF_@Base 1.0.4+dfsg0
 _ZNSt20__uninitialized_copyILb0EE13__uninit_copyIN9__gnu_cxx17__normal_iteratorIPKSsSt6vectorISsSaISsEEEEPSsEET0_T_SC_SB_@Base 1.0.4+dfsg0
 _ZNSt20__uninitialized_copyILb0EE13__uninit_copyIPN11OpenImageIO4v1_010ParamValueES5_EET0_T_S7_S6_@Base 1.0.4+dfsg0
 _ZNSt20__uninitialized_copyILb0EE13__uninit_copyIPN11OpenImageIO4v1_03pvt14ImageCacheFile12SubimageInfoES7_EET0_T_S9_S8_@Base 1.0.4+dfsg0
 _ZNSt20__uninitialized_copyILb0EE13__uninit_copyIPN11OpenImageIO4v1_03pvt14ImageCacheFile9LevelInfoES7_EET0_T_S9_S8_@Base 1.0.4+dfsg0
 _ZNSt20__uninitialized_copyILb0EE13__uninit_copyIPN11OpenImageIO4v1_08PSDInput11ChannelInfoES6_EET0_T_S8_S7_@Base 1.0.4+dfsg0
 _ZNSt20__uninitialized_copyILb0EE13__uninit_copyIPN11OpenImageIO4v1_08PSDInput5Layer14AdditionalInfoES7_EET0_T_S9_S8_@Base 1.0.4+dfsg0
 _ZNSt20__uninitialized_copyILb0EE13__uninit_copyIPN11OpenImageIO4v1_08PSDInput5LayerES6_EET0_T_S8_S7_@Base 1.0.4+dfsg0
 _ZNSt20__uninitialized_copyILb0EE13__uninit_copyIPN11OpenImageIO4v1_09ImageSpecES5_EET0_T_S7_S6_@Base 1.0.4+dfsg0
 _ZNSt20__uninitialized_copyILb0EE13__uninit_copyIPN14PtexMainWriter8LevelRecES4_EET0_T_S6_S5_@Base 1.0.4+dfsg0
 _ZNSt20__uninitialized_copyILb0EE13__uninit_copyIPN14PtexWriterBase9MetaEntryES4_EET0_T_S6_S5_@Base 1.0.4+dfsg0
 _ZNSt20__uninitialized_copyILb0EE13__uninit_copyIPN5boost13intrusive_ptrIN11OpenImageIO4v1_03pvt14ImageCacheFileEEES9_EET0_T_SB_SA_@Base 1.0.4+dfsg0
 _ZNSt20__uninitialized_copyILb0EE13__uninit_copyIPN5boost4asio2ip20basic_resolver_entryINS4_3tcpEEES8_EET0_T_SA_S9_@Base 1.0.4+dfsg0
 _ZNSt20__uninitialized_copyILb0EE13__uninit_copyIPN5boost9re_detail14recursion_infoINS2_13match_resultsIN9__gnu_cxx17__normal_iteratorIPKcSsEESaINS2_9sub_matchISA_EEEEEEESG_EET0_T_SI_SH_@Base 1.0.4+dfsg0
 _ZNSt20__uninitialized_copyILb0EE13__uninit_copyIPSsS2_EET0_T_S4_S3_@Base 1.0.4+dfsg0
 _ZNSt20__uninitialized_copyILb0EE13__uninit_copyIPSt6vectorIPN11OpenImageIO4v1_08PSDInput11ChannelInfoESaIS7_EESA_EET0_T_SC_SB_@Base 1.0.4+dfsg0
 _ZNSt22__uninitialized_fill_nILb0EE15__uninit_fill_nIPN11OpenImageIO4v1_010ParamValueEjS4_EEvT_T0_RKT1_@Base 1.0.4+dfsg0
 _ZNSt22__uninitialized_fill_nILb0EE15__uninit_fill_nIPN11OpenImageIO4v1_03pvt14ImageCacheFile12SubimageInfoEjS6_EEvT_T0_RKT1_@Base 1.0.4+dfsg0
 _ZNSt22__uninitialized_fill_nILb0EE15__uninit_fill_nIPN11OpenImageIO4v1_08PSDInput11ChannelInfoEjS5_EEvT_T0_RKT1_@Base 1.0.4+dfsg0
 _ZNSt22__uninitialized_fill_nILb0EE15__uninit_fill_nIPN11OpenImageIO4v1_08PSDInput5LayerEjS5_EEvT_T0_RKT1_@Base 1.0.4+dfsg0
 _ZNSt22__uninitialized_fill_nILb0EE15__uninit_fill_nIPN14PtexMainWriter8LevelRecEjS3_EEvT_T0_RKT1_@Base 1.0.4+dfsg0
 _ZNSt22__uninitialized_fill_nILb0EE15__uninit_fill_nIPN14PtexWriterBase9MetaEntryEjS3_EEvT_T0_RKT1_@Base 1.0.4+dfsg0
 _ZNSt22__uninitialized_fill_nILb0EE15__uninit_fill_nIPSsjSsEEvT_T0_RKT1_@Base 1.0.4+dfsg0
 _ZNSt22__uninitialized_fill_nILb0EE15__uninit_fill_nIPSt6vectorIPN11OpenImageIO4v1_08PSDInput11ChannelInfoESaIS7_EEjS9_EEvT_T0_RKT1_@Base 1.0.4+dfsg0
 _ZNSt3mapISsPFPvvESt4lessISsESaISt4pairIKSsS2_EEED1Ev@Base 1.0.4+dfsg0
 _ZNSt3mapISsPFPvvESt4lessISsESaISt4pairIKSsS2_EEED2Ev@Base 1.0.4+dfsg0
 _ZNSt3mapISsPFPvvESt4lessISsESaISt4pairIKSsS2_EEEixERS6_@Base 1.0.4+dfsg0
 _ZNSt3mapISsPvSt4lessISsESaISt4pairIKSsS0_EEED1Ev@Base 1.0.4+dfsg0
 _ZNSt3mapISsPvSt4lessISsESaISt4pairIKSsS0_EEED2Ev@Base 1.0.4+dfsg0
 _ZNSt3mapISsPvSt4lessISsESaISt4pairIKSsS0_EEEixERS4_@Base 1.0.4+dfsg0
 _ZNSt3mapISsSsSt4lessISsESaISt4pairIKSsSsEEED1Ev@Base 1.0.4+dfsg0
 _ZNSt3mapISsSsSt4lessISsESaISt4pairIKSsSsEEED2Ev@Base 1.0.4+dfsg0
 _ZNSt3mapISsSsSt4lessISsESaISt4pairIKSsSsEEEixERS3_@Base 1.0.4+dfsg0
 _ZNSt3mapISsiSt4lessISsESaISt4pairIKSsiEEEixERS3_@Base 1.0.4+dfsg0
 _ZNSt3mapIsPN11OpenImageIO4v1_08PSDInput11ChannelInfoESt4lessIsESaISt4pairIKsS4_EEED1Ev@Base 1.0.4+dfsg0
 _ZNSt3mapIsPN11OpenImageIO4v1_08PSDInput11ChannelInfoESt4lessIsESaISt4pairIKsS4_EEED2Ev@Base 1.0.4+dfsg0
 _ZNSt4pairIKSsN10PtexReader8MetaData5EntryEED1Ev@Base 1.0.4+dfsg0
 _ZNSt4pairIKSsN10PtexReader8MetaData5EntryEED2Ev@Base 1.0.4+dfsg0
 _ZNSt4pairIKSsPFPvvEED1Ev@Base 1.0.4+dfsg0
 _ZNSt4pairIKSsPFPvvEED2Ev@Base 1.0.4+dfsg0
 _ZNSt4pairIKSsPvED1Ev@Base 1.0.4+dfsg0
 _ZNSt4pairIKSsPvED2Ev@Base 1.0.4+dfsg0
 _ZNSt4pairIKSsSsEC1ERS0_S2_@Base 1.0.4+dfsg0
 _ZNSt4pairIKSsSsEC2ERS0_S2_@Base 1.0.4+dfsg0
 _ZNSt4pairIKSsSsED1Ev@Base 1.0.4+dfsg0
 _ZNSt4pairIKSsSsED2Ev@Base 1.0.4+dfsg0
 _ZNSt4pairISsN10PtexReader8MetaData5EntryEED1Ev@Base 1.0.4+dfsg0
 _ZNSt4pairISsN10PtexReader8MetaData5EntryEED2Ev@Base 1.0.4+dfsg0
 _ZNSt4pairISsiED1Ev@Base 1.0.4+dfsg0
 _ZNSt4pairISsiED2Ev@Base 1.0.4+dfsg0
 _ZNSt6vectorI12TIFFDirEntrySaIS0_EE13_M_insert_auxEN9__gnu_cxx17__normal_iteratorIPS0_S2_EERKS0_@Base 1.0.4+dfsg0
 _ZNSt6vectorI12TIFFDirEntrySaIS0_EED1Ev@Base 1.0.4+dfsg0
 _ZNSt6vectorI12TIFFDirEntrySaIS0_EED2Ev@Base 1.0.4+dfsg0
 _ZNSt6vectorI15png_text_structSaIS0_EE13_M_insert_auxEN9__gnu_cxx17__normal_iteratorIPS0_S2_EERKS0_@Base 1.0.4+dfsg0
 _ZNSt6vectorI15png_text_structSaIS0_EE9push_backERKS0_@Base 1.0.4+dfsg0
 _ZNSt6vectorI4halfSaIS0_EEC1EjRKS0_RKS1_@Base 1.0.4+dfsg0
 _ZNSt6vectorI4halfSaIS0_EEC2EjRKS0_RKS1_@Base 1.0.4+dfsg0
 _ZNSt6vectorI4halfSaIS0_EED1Ev@Base 1.0.4+dfsg0
 _ZNSt6vectorI4halfSaIS0_EED2Ev@Base 1.0.4+dfsg0
 _ZNSt6vectorI9_G_fpos_tSaIS0_EE13_M_insert_auxEN9__gnu_cxx17__normal_iteratorIPS0_S2_EERKS0_@Base 1.0.4+dfsg0
 _ZNSt6vectorI9_G_fpos_tSaIS0_EED1Ev@Base 1.0.4+dfsg0
 _ZNSt6vectorI9_G_fpos_tSaIS0_EED2Ev@Base 1.0.4+dfsg0
 _ZNSt6vectorIN10PtexReader8FaceEditESaIS1_EE13_M_insert_auxEN9__gnu_cxx17__normal_iteratorIPS1_S3_EERKS1_@Base 1.0.4+dfsg0
 _ZNSt6vectorIN10PtexReader8FaceEditESaIS1_EED1Ev@Base 1.0.4+dfsg0
 _ZNSt6vectorIN10PtexReader8FaceEditESaIS1_EED2Ev@Base 1.0.4+dfsg0
 _ZNSt6vectorIN10PtexReader8MetaEditESaIS1_EE13_M_insert_auxEN9__gnu_cxx17__normal_iteratorIPS1_S3_EERKS1_@Base 1.0.4+dfsg0
 _ZNSt6vectorIN10PtexReader8MetaEditESaIS1_EED1Ev@Base 1.0.4+dfsg0
 _ZNSt6vectorIN10PtexReader8MetaEditESaIS1_EED2Ev@Base 1.0.4+dfsg0
 _ZNSt6vectorIN11OpenImageIO4v1_010ParamValueESaIS2_EE13_M_insert_auxEN9__gnu_cxx17__normal_iteratorIPS2_S4_EERKS2_@Base 1.0.4+dfsg0
 _ZNSt6vectorIN11OpenImageIO4v1_010ParamValueESaIS2_EE14_M_fill_insertEN9__gnu_cxx17__normal_iteratorIPS2_S4_EEjRKS2_@Base 1.0.4+dfsg0
 _ZNSt6vectorIN11OpenImageIO4v1_010ParamValueESaIS2_EE9push_backERKS2_@Base 1.0.4+dfsg0
 _ZNSt6vectorIN11OpenImageIO4v1_010ParamValueESaIS2_EEC1ERKS4_@Base 1.0.4+dfsg0
 _ZNSt6vectorIN11OpenImageIO4v1_010ParamValueESaIS2_EEC2ERKS4_@Base 1.0.4+dfsg0
 _ZNSt6vectorIN11OpenImageIO4v1_010ParamValueESaIS2_EED1Ev@Base 1.0.4+dfsg0
 _ZNSt6vectorIN11OpenImageIO4v1_010ParamValueESaIS2_EED2Ev@Base 1.0.4+dfsg0
 _ZNSt6vectorIN11OpenImageIO4v1_010ParamValueESaIS2_EEaSERKS4_@Base 1.0.4+dfsg0
 _ZNSt6vectorIN11OpenImageIO4v1_013softimage_pvt13ChannelPacketESaIS3_EE13_M_insert_auxEN9__gnu_cxx17__normal_iteratorIPS3_S5_EERKS3_@Base 1.0.4+dfsg0
 _ZNSt6vectorIN11OpenImageIO4v1_013softimage_pvt13ChannelPacketESaIS3_EED1Ev@Base 1.0.4+dfsg0
 _ZNSt6vectorIN11OpenImageIO4v1_013softimage_pvt13ChannelPacketESaIS3_EED2Ev@Base 1.0.4+dfsg0
 _ZNSt6vectorIN11OpenImageIO4v1_03pvt14ImageCacheFile12SubimageInfoESaIS4_EE14_M_fill_insertEN9__gnu_cxx17__normal_iteratorIPS4_S6_EEjRKS4_@Base 1.0.4+dfsg0
 _ZNSt6vectorIN11OpenImageIO4v1_03pvt14ImageCacheFile12SubimageInfoESaIS4_EE5clearEv@Base 1.0.4+dfsg0
 _ZNSt6vectorIN11OpenImageIO4v1_03pvt14ImageCacheFile12SubimageInfoESaIS4_EE6resizeEjS4_@Base 1.0.4+dfsg0
 _ZNSt6vectorIN11OpenImageIO4v1_03pvt14ImageCacheFile12SubimageInfoESaIS4_EED1Ev@Base 1.0.4+dfsg0
 _ZNSt6vectorIN11OpenImageIO4v1_03pvt14ImageCacheFile12SubimageInfoESaIS4_EED2Ev@Base 1.0.4+dfsg0
 _ZNSt6vectorIN11OpenImageIO4v1_03pvt14ImageCacheFile9LevelInfoESaIS4_EE13_M_insert_auxEN9__gnu_cxx17__normal_iteratorIPS4_S6_EERKS4_@Base 1.0.4+dfsg0
 _ZNSt6vectorIN11OpenImageIO4v1_03pvt14ImageCacheFile9LevelInfoESaIS4_EE9push_backERKS4_@Base 1.0.4+dfsg0
 _ZNSt6vectorIN11OpenImageIO4v1_03pvt14ImageCacheFile9LevelInfoESaIS4_EEC1ERKS6_@Base 1.0.4+dfsg0
 _ZNSt6vectorIN11OpenImageIO4v1_03pvt14ImageCacheFile9LevelInfoESaIS4_EEC2ERKS6_@Base 1.0.4+dfsg0
 _ZNSt6vectorIN11OpenImageIO4v1_03pvt14ImageCacheFile9LevelInfoESaIS4_EED1Ev@Base 1.0.4+dfsg0
 _ZNSt6vectorIN11OpenImageIO4v1_03pvt14ImageCacheFile9LevelInfoESaIS4_EED2Ev@Base 1.0.4+dfsg0
 _ZNSt6vectorIN11OpenImageIO4v1_03pvt14ImageCacheFile9LevelInfoESaIS4_EEaSERKS6_@Base 1.0.4+dfsg0
 _ZNSt6vectorIN11OpenImageIO4v1_07ICO_pvt17ico_palette_entryESaIS3_EEC1EjRKS3_RKS4_@Base 1.0.4+dfsg0
 _ZNSt6vectorIN11OpenImageIO4v1_07ICO_pvt17ico_palette_entryESaIS3_EEC2EjRKS3_RKS4_@Base 1.0.4+dfsg0
 _ZNSt6vectorIN11OpenImageIO4v1_07ICO_pvt17ico_palette_entryESaIS3_EED1Ev@Base 1.0.4+dfsg0
 _ZNSt6vectorIN11OpenImageIO4v1_07ICO_pvt17ico_palette_entryESaIS3_EED2Ev@Base 1.0.4+dfsg0
 _ZNSt6vectorIN11OpenImageIO4v1_07bmp_pvt11color_tableESaIS3_EE14_M_fill_insertEN9__gnu_cxx17__normal_iteratorIPS3_S5_EEjRKS3_@Base 1.0.4+dfsg0
 _ZNSt6vectorIN11OpenImageIO4v1_07bmp_pvt11color_tableESaIS3_EED1Ev@Base 1.0.4+dfsg0
 _ZNSt6vectorIN11OpenImageIO4v1_07bmp_pvt11color_tableESaIS3_EED2Ev@Base 1.0.4+dfsg0
 _ZNSt6vectorIN11OpenImageIO4v1_07ustringESaIS2_EE13_M_insert_auxEN9__gnu_cxx17__normal_iteratorIPS2_S4_EERKS2_@Base 1.0.4+dfsg0
 _ZNSt6vectorIN11OpenImageIO4v1_07ustringESaIS2_EED1Ev@Base 1.0.4+dfsg0
 _ZNSt6vectorIN11OpenImageIO4v1_07ustringESaIS2_EED2Ev@Base 1.0.4+dfsg0
 _ZNSt6vectorIN11OpenImageIO4v1_08PSDInput11ChannelInfoESaIS3_EE14_M_fill_insertEN9__gnu_cxx17__normal_iteratorIPS3_S5_EEjRKS3_@Base 1.0.4+dfsg0
 _ZNSt6vectorIN11OpenImageIO4v1_08PSDInput11ChannelInfoESaIS3_EE6resizeEjS3_@Base 1.0.4+dfsg0
 _ZNSt6vectorIN11OpenImageIO4v1_08PSDInput11ChannelInfoESaIS3_EEC1ERKS5_@Base 1.0.4+dfsg0
 _ZNSt6vectorIN11OpenImageIO4v1_08PSDInput11ChannelInfoESaIS3_EEC2ERKS5_@Base 1.0.4+dfsg0
 _ZNSt6vectorIN11OpenImageIO4v1_08PSDInput11ChannelInfoESaIS3_EED1Ev@Base 1.0.4+dfsg0
 _ZNSt6vectorIN11OpenImageIO4v1_08PSDInput11ChannelInfoESaIS3_EED2Ev@Base 1.0.4+dfsg0
 _ZNSt6vectorIN11OpenImageIO4v1_08PSDInput11ChannelInfoESaIS3_EEaSERKS5_@Base 1.0.4+dfsg0
 _ZNSt6vectorIN11OpenImageIO4v1_08PSDInput5Layer14AdditionalInfoESaIS4_EE13_M_insert_auxEN9__gnu_cxx17__normal_iteratorIPS4_S6_EERKS4_@Base 1.0.4+dfsg0
 _ZNSt6vectorIN11OpenImageIO4v1_08PSDInput5Layer14AdditionalInfoESaIS4_EE9push_backERKS4_@Base 1.0.4+dfsg0
 _ZNSt6vectorIN11OpenImageIO4v1_08PSDInput5Layer14AdditionalInfoESaIS4_EEC1ERKS6_@Base 1.0.4+dfsg0
 _ZNSt6vectorIN11OpenImageIO4v1_08PSDInput5Layer14AdditionalInfoESaIS4_EEC2ERKS6_@Base 1.0.4+dfsg0
 _ZNSt6vectorIN11OpenImageIO4v1_08PSDInput5Layer14AdditionalInfoESaIS4_EEaSERKS6_@Base 1.0.4+dfsg0
 _ZNSt6vectorIN11OpenImageIO4v1_08PSDInput5LayerESaIS3_EE14_M_fill_insertEN9__gnu_cxx17__normal_iteratorIPS3_S5_EEjRKS3_@Base 1.0.4+dfsg0
 _ZNSt6vectorIN11OpenImageIO4v1_08PSDInput5LayerESaIS3_EE6resizeEjS3_@Base 1.0.4+dfsg0
 _ZNSt6vectorIN11OpenImageIO4v1_08PSDInput5LayerESaIS3_EED1Ev@Base 1.0.4+dfsg0
 _ZNSt6vectorIN11OpenImageIO4v1_08PSDInput5LayerESaIS3_EED2Ev@Base 1.0.4+dfsg0
 _ZNSt6vectorIN11OpenImageIO4v1_08TypeDescESaIS2_EE13_M_insert_auxEN9__gnu_cxx17__normal_iteratorIPS2_S4_EERKS2_@Base 1.0.4+dfsg0
 _ZNSt6vectorIN11OpenImageIO4v1_08TypeDescESaIS2_EE14_M_fill_insertEN9__gnu_cxx17__normal_iteratorIPS2_S4_EEjRKS2_@Base 1.0.4+dfsg0
 _ZNSt6vectorIN11OpenImageIO4v1_08TypeDescESaIS2_EE6resizeEjS2_@Base 1.0.4+dfsg0
 _ZNSt6vectorIN11OpenImageIO4v1_08TypeDescESaIS2_EED1Ev@Base 1.0.4+dfsg0
 _ZNSt6vectorIN11OpenImageIO4v1_08TypeDescESaIS2_EED2Ev@Base 1.0.4+dfsg0
 _ZNSt6vectorIN11OpenImageIO4v1_08TypeDescESaIS2_EEaSERKS4_@Base 1.0.4+dfsg0
 _ZNSt6vectorIN11OpenImageIO4v1_08fits_pvt8SubimageESaIS3_EE13_M_insert_auxEN9__gnu_cxx17__normal_iteratorIPS3_S5_EERKS3_@Base 1.0.4+dfsg0
 _ZNSt6vectorIN11OpenImageIO4v1_08fits_pvt8SubimageESaIS3_EED1Ev@Base 1.0.4+dfsg0
 _ZNSt6vectorIN11OpenImageIO4v1_08fits_pvt8SubimageESaIS3_EED2Ev@Base 1.0.4+dfsg0
 _ZNSt6vectorIN11OpenImageIO4v1_09ImageSpecESaIS2_EE13_M_insert_auxEN9__gnu_cxx17__normal_iteratorIPS2_S4_EERKS2_@Base 1.0.4+dfsg0
 _ZNSt6vectorIN11OpenImageIO4v1_09ImageSpecESaIS2_EED1Ev@Base 1.0.4+dfsg0
 _ZNSt6vectorIN11OpenImageIO4v1_09ImageSpecESaIS2_EED2Ev@Base 1.0.4+dfsg0
 _ZNSt6vectorIN14PtexMainWriter8LevelRecESaIS1_EE13_M_insert_auxEN9__gnu_cxx17__normal_iteratorIPS1_S3_EERKS1_@Base 1.0.4+dfsg0
 _ZNSt6vectorIN14PtexMainWriter8LevelRecESaIS1_EE14_M_fill_insertEN9__gnu_cxx17__normal_iteratorIPS1_S3_EEjRKS1_@Base 1.0.4+dfsg0
 _ZNSt6vectorIN14PtexMainWriter8LevelRecESaIS1_EED1Ev@Base 1.0.4+dfsg0
 _ZNSt6vectorIN14PtexMainWriter8LevelRecESaIS1_EED2Ev@Base 1.0.4+dfsg0
 _ZNSt6vectorIN14PtexWriterBase9MetaEntryESaIS1_EE14_M_fill_insertEN9__gnu_cxx17__normal_iteratorIPS1_S3_EEjRKS1_@Base 1.0.4+dfsg0
 _ZNSt6vectorIN14PtexWriterBase9MetaEntryESaIS1_EE6resizeEjS1_@Base 1.0.4+dfsg0
 _ZNSt6vectorIN14PtexWriterBase9MetaEntryESaIS1_EED1Ev@Base 1.0.4+dfsg0
 _ZNSt6vectorIN14PtexWriterBase9MetaEntryESaIS1_EED2Ev@Base 1.0.4+dfsg0
 _ZNSt6vectorIN3Imf9PixelTypeESaIS1_EE13_M_insert_auxEN9__gnu_cxx17__normal_iteratorIPS1_S3_EERKS1_@Base 1.0.4+dfsg0
 _ZNSt6vectorIN3Imf9PixelTypeESaIS1_EED1Ev@Base 1.0.4+dfsg0
 _ZNSt6vectorIN3Imf9PixelTypeESaIS1_EED2Ev@Base 1.0.4+dfsg0
 _ZNSt6vectorIN4Ptex3ResESaIS1_EE14_M_fill_insertEN9__gnu_cxx17__normal_iteratorIPS1_S3_EEjRKS1_@Base 1.0.4+dfsg0
 _ZNSt6vectorIN4Ptex3ResESaIS1_EED1Ev@Base 1.0.4+dfsg0
 _ZNSt6vectorIN4Ptex3ResESaIS1_EED2Ev@Base 1.0.4+dfsg0
 _ZNSt6vectorIN4Ptex8FaceInfoESaIS1_EE14_M_fill_insertEN9__gnu_cxx17__normal_iteratorIPS1_S3_EEjRKS1_@Base 1.0.4+dfsg0
 _ZNSt6vectorIN4Ptex8FaceInfoESaIS1_EED1Ev@Base 1.0.4+dfsg0
 _ZNSt6vectorIN4Ptex8FaceInfoESaIS1_EED2Ev@Base 1.0.4+dfsg0
 _ZNSt6vectorIN5boost13intrusive_ptrIN11OpenImageIO4v1_03pvt14ImageCacheFileEEESaIS6_EE13_M_insert_auxEN9__gnu_cxx17__normal_iteratorIPS6_S8_EERKS6_@Base 1.0.4+dfsg0
 _ZNSt6vectorIN5boost13intrusive_ptrIN11OpenImageIO4v1_03pvt14ImageCacheFileEEESaIS6_EED1Ev@Base 1.0.4+dfsg0
 _ZNSt6vectorIN5boost13intrusive_ptrIN11OpenImageIO4v1_03pvt14ImageCacheFileEEESaIS6_EED2Ev@Base 1.0.4+dfsg0
 _ZNSt6vectorIN5boost4asio2ip20basic_resolver_entryINS2_3tcpEEESaIS5_EE13_M_insert_auxEN9__gnu_cxx17__normal_iteratorIPS5_S7_EERKS5_@Base 1.0.4+dfsg0
 _ZNSt6vectorIN5boost9re_detail14recursion_infoINS0_13match_resultsIN9__gnu_cxx17__normal_iteratorIPKcSsEESaINS0_9sub_matchIS8_EEEEEEESaISD_EE13_M_insert_auxENS5_IPSD_SF_EERKSD_@Base 1.0.4+dfsg0
 _ZNSt6vectorIN5boost9re_detail14recursion_infoINS0_13match_resultsIN9__gnu_cxx17__normal_iteratorIPKcSsEESaINS0_9sub_matchIS8_EEEEEEESaISD_EE7reserveEj@Base 1.0.4+dfsg0
 _ZNSt6vectorIN5boost9re_detail14recursion_infoINS0_13match_resultsIN9__gnu_cxx17__normal_iteratorIPKcSsEESaINS0_9sub_matchIS8_EEEEEEESaISD_EE9push_backERKSD_@Base 1.0.4+dfsg0
 _ZNSt6vectorIN5boost9re_detail14recursion_infoINS0_13match_resultsIN9__gnu_cxx17__normal_iteratorIPKcSsEESaINS0_9sub_matchIS8_EEEEEEESaISD_EED1Ev@Base 1.0.4+dfsg0
 _ZNSt6vectorIN5boost9re_detail14recursion_infoINS0_13match_resultsIN9__gnu_cxx17__normal_iteratorIPKcSsEESaINS0_9sub_matchIS8_EEEEEEESaISD_EED2Ev@Base 1.0.4+dfsg0
 _ZNSt6vectorIN5boost9sub_matchIN9__gnu_cxx17__normal_iteratorIPKcSsEEEESaIS7_EE14_M_fill_insertENS3_IPS7_S9_EEjRKS7_@Base 1.0.4+dfsg0
 _ZNSt6vectorIN5boost9sub_matchIN9__gnu_cxx17__normal_iteratorIPKcSsEEEESaIS7_EE5eraseENS3_IPS7_S9_EESB_@Base 1.0.4+dfsg0
 _ZNSt6vectorIN5boost9sub_matchIN9__gnu_cxx17__normal_iteratorIPKcSsEEEESaIS7_EED1Ev@Base 1.0.4+dfsg0
 _ZNSt6vectorIN5boost9sub_matchIN9__gnu_cxx17__normal_iteratorIPKcSsEEEESaIS7_EED2Ev@Base 1.0.4+dfsg0
 _ZNSt6vectorIN5boost9sub_matchIN9__gnu_cxx17__normal_iteratorIPKcSsEEEESaIS7_EEaSERKS9_@Base 1.0.4+dfsg0
 _ZNSt6vectorIN6PtexIO14FaceDataHeaderESaIS1_EE14_M_fill_insertEN9__gnu_cxx17__normal_iteratorIPS1_S3_EEjRKS1_@Base 1.0.4+dfsg0
 _ZNSt6vectorIN6PtexIO14FaceDataHeaderESaIS1_EED1Ev@Base 1.0.4+dfsg0
 _ZNSt6vectorIN6PtexIO14FaceDataHeaderESaIS1_EED2Ev@Base 1.0.4+dfsg0
 _ZNSt6vectorIN6PtexIO14FaceDataHeaderESaIS1_EEaSERKS3_@Base 1.0.4+dfsg0
 _ZNSt6vectorIN6PtexIO9LevelInfoESaIS1_EE14_M_fill_insertEN9__gnu_cxx17__normal_iteratorIPS1_S3_EEjRKS1_@Base 1.0.4+dfsg0
 _ZNSt6vectorIN6PtexIO9LevelInfoESaIS1_EED1Ev@Base 1.0.4+dfsg0
 _ZNSt6vectorIN6PtexIO9LevelInfoESaIS1_EED2Ev@Base 1.0.4+dfsg0
 _ZNSt6vectorIPN10PtexReader5LevelESaIS2_EE14_M_fill_insertEN9__gnu_cxx17__normal_iteratorIPS2_S4_EEjRKS2_@Base 1.0.4+dfsg0
 _ZNSt6vectorIPN10PtexReader5LevelESaIS2_EED1Ev@Base 1.0.4+dfsg0
 _ZNSt6vectorIPN10PtexReader5LevelESaIS2_EED2Ev@Base 1.0.4+dfsg0
 _ZNSt6vectorIPN10PtexReader8FaceDataESaIS2_EE13_M_insert_auxEN9__gnu_cxx17__normal_iteratorIPS2_S4_EERKS2_@Base 1.0.4+dfsg0
 _ZNSt6vectorIPN10PtexReader8FaceDataESaIS2_EE14_M_fill_insertEN9__gnu_cxx17__normal_iteratorIPS2_S4_EEjRKS2_@Base 1.0.4+dfsg0
 _ZNSt6vectorIPN10PtexReader8FaceDataESaIS2_EED1Ev@Base 1.0.4+dfsg0
 _ZNSt6vectorIPN10PtexReader8FaceDataESaIS2_EED2Ev@Base 1.0.4+dfsg0
 _ZNSt6vectorIPN10PtexReader8MetaData13LargeMetaDataESaIS3_EE13_M_insert_auxEN9__gnu_cxx17__normal_iteratorIPS3_S5_EERKS3_@Base 1.0.4+dfsg0
 _ZNSt6vectorIPN10PtexReader8MetaData13LargeMetaDataESaIS3_EE14_M_fill_insertEN9__gnu_cxx17__normal_iteratorIPS3_S5_EEjRKS3_@Base 1.0.4+dfsg0
 _ZNSt6vectorIPN10PtexReader8MetaData5EntryESaIS3_EE13_M_insert_auxEN9__gnu_cxx17__normal_iteratorIPS3_S5_EERKS3_@Base 1.0.4+dfsg0
 _ZNSt6vectorIPN11OpenImageIO4v1_03pvt23ImageCachePerThreadInfoESaIS4_EE13_M_insert_auxEN9__gnu_cxx17__normal_iteratorIPS4_S6_EERKS4_@Base 1.0.4+dfsg0
 _ZNSt6vectorIPN11OpenImageIO4v1_03pvt23ImageCachePerThreadInfoESaIS4_EE9push_backERKS4_@Base 1.0.4+dfsg0
 _ZNSt6vectorIPN11OpenImageIO4v1_03pvt23ImageCachePerThreadInfoESaIS4_EED1Ev@Base 1.0.4+dfsg0
 _ZNSt6vectorIPN11OpenImageIO4v1_03pvt23ImageCachePerThreadInfoESaIS4_EED2Ev@Base 1.0.4+dfsg0
 _ZNSt6vectorIPN11OpenImageIO4v1_08PSDInput11ChannelInfoESaIS4_EE13_M_insert_auxEN9__gnu_cxx17__normal_iteratorIPS4_S6_EERKS4_@Base 1.0.4+dfsg0
 _ZNSt6vectorIPN11OpenImageIO4v1_08PSDInput11ChannelInfoESaIS4_EEC1ERKS6_@Base 1.0.4+dfsg0
 _ZNSt6vectorIPN11OpenImageIO4v1_08PSDInput11ChannelInfoESaIS4_EEC2ERKS6_@Base 1.0.4+dfsg0
 _ZNSt6vectorIPN11OpenImageIO4v1_08PSDInput11ChannelInfoESaIS4_EED1Ev@Base 1.0.4+dfsg0
 _ZNSt6vectorIPN11OpenImageIO4v1_08PSDInput11ChannelInfoESaIS4_EED2Ev@Base 1.0.4+dfsg0
 _ZNSt6vectorIPN11OpenImageIO4v1_08PSDInput11ChannelInfoESaIS4_EEaSERKS6_@Base 1.0.4+dfsg0
 _ZNSt6vectorIPN11OpenImageIO4v1_09ArgOptionESaIS3_EE13_M_insert_auxEN9__gnu_cxx17__normal_iteratorIPS3_S5_EERKS3_@Base 1.0.4+dfsg0
 _ZNSt6vectorIPN14PtexWriterBase9MetaEntryESaIS2_EE13_M_insert_auxEN9__gnu_cxx17__normal_iteratorIPS2_S4_EERKS2_@Base 1.0.4+dfsg0
 _ZNSt6vectorIPhSaIS0_EEC1EjRKS0_RKS1_@Base 1.0.4+dfsg0
 _ZNSt6vectorIPhSaIS0_EEC2EjRKS0_RKS1_@Base 1.0.4+dfsg0
 _ZNSt6vectorIPvSaIS0_EE14_M_fill_insertEN9__gnu_cxx17__normal_iteratorIPS0_S2_EEjRKS0_@Base 1.0.4+dfsg0
 _ZNSt6vectorIS_IPN11OpenImageIO4v1_08PSDInput11ChannelInfoESaIS4_EESaIS6_EE14_M_fill_insertEN9__gnu_cxx17__normal_iteratorIPS6_S8_EEjRKS6_@Base 1.0.4+dfsg0
 _ZNSt6vectorIS_IPN11OpenImageIO4v1_08PSDInput11ChannelInfoESaIS4_EESaIS6_EE7reserveEj@Base 1.0.4+dfsg0
 _ZNSt6vectorIS_IPN11OpenImageIO4v1_08PSDInput11ChannelInfoESaIS4_EESaIS6_EED1Ev@Base 1.0.4+dfsg0
 _ZNSt6vectorIS_IPN11OpenImageIO4v1_08PSDInput11ChannelInfoESaIS4_EESaIS6_EED2Ev@Base 1.0.4+dfsg0
 _ZNSt6vectorISsSaISsEE13_M_insert_auxEN9__gnu_cxx17__normal_iteratorIPSsS1_EERKSs@Base 1.0.4+dfsg0
 _ZNSt6vectorISsSaISsEE14_M_fill_insertEN9__gnu_cxx17__normal_iteratorIPSsS1_EEjRKSs@Base 1.0.4+dfsg0
 _ZNSt6vectorISsSaISsEE6resizeEjSs@Base 1.0.4+dfsg0
 _ZNSt6vectorISsSaISsEE9push_backERKSs@Base 1.0.4+dfsg0
 _ZNSt6vectorISsSaISsEEC1ERKS1_@Base 1.0.4+dfsg0
 _ZNSt6vectorISsSaISsEEC2ERKS1_@Base 1.0.4+dfsg0
 _ZNSt6vectorISsSaISsEED1Ev@Base 1.0.4+dfsg0
 _ZNSt6vectorISsSaISsEED2Ev@Base 1.0.4+dfsg0
 _ZNSt6vectorISsSaISsEEaSERKS1_@Base 1.0.4+dfsg0
 _ZNSt6vectorISt4fposI11__mbstate_tESaIS2_EE14_M_fill_insertEN9__gnu_cxx17__normal_iteratorIPS2_S4_EEjRKS2_@Base 1.0.4+dfsg0
 _ZNSt6vectorISt4fposI11__mbstate_tESaIS2_EEaSERKS4_@Base 1.0.4+dfsg0
 _ZNSt6vectorISt4pairISsiESaIS1_EE13_M_insert_auxEN9__gnu_cxx17__normal_iteratorIPS1_S3_EERKS1_@Base 1.0.4+dfsg0
 _ZNSt6vectorIcSaIcEE13_M_insert_auxEN9__gnu_cxx17__normal_iteratorIPcS1_EERKc@Base 1.0.4+dfsg0
 _ZNSt6vectorIcSaIcEE14_M_fill_insertEN9__gnu_cxx17__normal_iteratorIPcS1_EEjRKc@Base 1.0.4+dfsg0
 _ZNSt6vectorIcSaIcEE15_M_range_insertIN9__gnu_cxx17__normal_iteratorIPcS1_EEEEvS6_T_S7_St20forward_iterator_tag@Base 1.0.4+dfsg0
 _ZNSt6vectorIcSaIcEE15_M_range_insertIPKcEEvN9__gnu_cxx17__normal_iteratorIPcS1_EET_S9_St20forward_iterator_tag@Base 1.0.4+dfsg0
 _ZNSt6vectorIcSaIcEE15_M_range_insertIPcEEvN9__gnu_cxx17__normal_iteratorIS3_S1_EET_S7_St20forward_iterator_tag@Base 1.0.4+dfsg0
 _ZNSt6vectorIcSaIcEEC1EjRKcRKS0_@Base 1.0.4+dfsg0
 _ZNSt6vectorIcSaIcEEC2EjRKcRKS0_@Base 1.0.4+dfsg0
 _ZNSt6vectorIcSaIcEED1Ev@Base 1.0.4+dfsg0
 _ZNSt6vectorIcSaIcEED2Ev@Base 1.0.4+dfsg0
 _ZNSt6vectorIcSaIcEEaSERKS1_@Base 1.0.4+dfsg0
 _ZNSt6vectorIdSaIdEEC1EjRKdRKS0_@Base 1.0.4+dfsg0
 _ZNSt6vectorIdSaIdEEC2EjRKdRKS0_@Base 1.0.4+dfsg0
 _ZNSt6vectorIdSaIdEED1Ev@Base 1.0.4+dfsg0
 _ZNSt6vectorIdSaIdEED2Ev@Base 1.0.4+dfsg0
 _ZNSt6vectorIeSaIeEEC1EjRKeRKS0_@Base 1.0.4+dfsg0
 _ZNSt6vectorIeSaIeEEC2EjRKeRKS0_@Base 1.0.4+dfsg0
 _ZNSt6vectorIeSaIeEED1Ev@Base 1.0.4+dfsg0
 _ZNSt6vectorIeSaIeEED2Ev@Base 1.0.4+dfsg0
 _ZNSt6vectorIfSaIfEE14_M_fill_insertEN9__gnu_cxx17__normal_iteratorIPfS1_EEjRKf@Base 1.0.4+dfsg0
 _ZNSt6vectorIfSaIfEE15_M_range_insertIPfEEvN9__gnu_cxx17__normal_iteratorIS3_S1_EET_S7_St20forward_iterator_tag@Base 1.0.4+dfsg0
 _ZNSt6vectorIfSaIfEE6resizeEjf@Base 1.0.4+dfsg0
 _ZNSt6vectorIfSaIfEEC1ERKS1_@Base 1.0.4+dfsg0
 _ZNSt6vectorIfSaIfEEC1EjRKfRKS0_@Base 1.0.4+dfsg0
 _ZNSt6vectorIfSaIfEEC2ERKS1_@Base 1.0.4+dfsg0
 _ZNSt6vectorIfSaIfEEC2EjRKfRKS0_@Base 1.0.4+dfsg0
 _ZNSt6vectorIfSaIfEED1Ev@Base 1.0.4+dfsg0
 _ZNSt6vectorIfSaIfEED2Ev@Base 1.0.4+dfsg0
 _ZNSt6vectorIfSaIfEEaSERKS1_@Base 1.0.4+dfsg0
 _ZNSt6vectorIhSaIhEE13_M_assign_auxIPhEEvT_S4_St20forward_iterator_tag@Base 1.0.4+dfsg0
 _ZNSt6vectorIhSaIhEE13_M_insert_auxEN9__gnu_cxx17__normal_iteratorIPhS1_EERKh@Base 1.0.4+dfsg0
 _ZNSt6vectorIhSaIhEE14_M_fill_insertEN9__gnu_cxx17__normal_iteratorIPhS1_EEjRKh@Base 1.0.4+dfsg0
 _ZNSt6vectorIhSaIhEE6resizeEjh@Base 1.0.4+dfsg0
 _ZNSt6vectorIhSaIhEEC1EjRKhRKS0_@Base 1.0.4+dfsg0
 _ZNSt6vectorIhSaIhEEC1IPiEET_S4_RKS0_@Base 1.0.4+dfsg0
 _ZNSt6vectorIhSaIhEEC2EjRKhRKS0_@Base 1.0.4+dfsg0
 _ZNSt6vectorIhSaIhEEC2IPiEET_S4_RKS0_@Base 1.0.4+dfsg0
 _ZNSt6vectorIhSaIhEED1Ev@Base 1.0.4+dfsg0
 _ZNSt6vectorIhSaIhEED2Ev@Base 1.0.4+dfsg0
 _ZNSt6vectorIhSaIhEEaSERKS1_@Base 1.0.4+dfsg0
 _ZNSt6vectorIiSaIiEE13_M_insert_auxEN9__gnu_cxx17__normal_iteratorIPiS1_EERKi@Base 1.0.4+dfsg0
 _ZNSt6vectorIiSaIiEE14_M_fill_insertEN9__gnu_cxx17__normal_iteratorIPiS1_EEjRKi@Base 1.0.4+dfsg0
 _ZNSt6vectorIiSaIiEEC1EjRKiRKS0_@Base 1.0.4+dfsg0
 _ZNSt6vectorIiSaIiEEC2EjRKiRKS0_@Base 1.0.4+dfsg0
 _ZNSt6vectorIiSaIiEED1Ev@Base 1.0.4+dfsg0
 _ZNSt6vectorIiSaIiEED2Ev@Base 1.0.4+dfsg0
 _ZNSt6vectorIjSaIjEE14_M_fill_insertEN9__gnu_cxx17__normal_iteratorIPjS1_EEjRKj@Base 1.0.4+dfsg0
 _ZNSt6vectorIjSaIjEEC1ERKS1_@Base 1.0.4+dfsg0
 _ZNSt6vectorIjSaIjEEC1EjRKjRKS0_@Base 1.0.4+dfsg0
 _ZNSt6vectorIjSaIjEEC2ERKS1_@Base 1.0.4+dfsg0
 _ZNSt6vectorIjSaIjEEC2EjRKjRKS0_@Base 1.0.4+dfsg0
 _ZNSt6vectorIjSaIjEED1Ev@Base 1.0.4+dfsg0
 _ZNSt6vectorIjSaIjEED2Ev@Base 1.0.4+dfsg0
 _ZNSt6vectorIjSaIjEEaSERKS1_@Base 1.0.4+dfsg0
 _ZNSt6vectorIsSaIsEEC1EjRKsRKS0_@Base 1.0.4+dfsg0
 _ZNSt6vectorIsSaIsEEC2EjRKsRKS0_@Base 1.0.4+dfsg0
 _ZNSt6vectorIsSaIsEED1Ev@Base 1.0.4+dfsg0
 _ZNSt6vectorIsSaIsEED2Ev@Base 1.0.4+dfsg0
 _ZNSt6vectorItSaItEE15_M_range_insertIPtEEvN9__gnu_cxx17__normal_iteratorIS3_S1_EET_S7_St20forward_iterator_tag@Base 1.0.4+dfsg0
 _ZNSt6vectorItSaItEEC1EjRKtRKS0_@Base 1.0.4+dfsg0
 _ZNSt6vectorItSaItEEC2EjRKtRKS0_@Base 1.0.4+dfsg0
 _ZNSt6vectorItSaItEED1Ev@Base 1.0.4+dfsg0
 _ZNSt6vectorItSaItEED2Ev@Base 1.0.4+dfsg0
 _ZNSt6vectorIxSaIxEE14_M_fill_insertEN9__gnu_cxx17__normal_iteratorIPxS1_EEjRKx@Base 1.0.4+dfsg0
 _ZNSt6vectorIxSaIxEEC1EjRKxRKS0_@Base 1.0.4+dfsg0
 _ZNSt6vectorIxSaIxEEC2EjRKxRKS0_@Base 1.0.4+dfsg0
 _ZNSt6vectorIxSaIxEED1Ev@Base 1.0.4+dfsg0
 _ZNSt6vectorIxSaIxEED2Ev@Base 1.0.4+dfsg0
 _ZNSt6vectorIxSaIxEEaSERKS1_@Base 1.0.4+dfsg0
 _ZNSt6vectorIySaIyEE14_M_fill_insertEN9__gnu_cxx17__normal_iteratorIPyS1_EEjRKy@Base 1.0.4+dfsg0
 _ZNSt6vectorIySaIyEE6resizeEjy@Base 1.0.4+dfsg0
 _ZNSt6vectorIySaIyEEC1EjRKyRKS0_@Base 1.0.4+dfsg0
 _ZNSt6vectorIySaIyEEC2EjRKyRKS0_@Base 1.0.4+dfsg0
 _ZNSt6vectorIySaIyEED1Ev@Base 1.0.4+dfsg0
 _ZNSt6vectorIySaIyEED2Ev@Base 1.0.4+dfsg0
 _ZNSt8_Rb_treeIN3Imf4NameESt4pairIKS1_NS0_5SliceEESt10_Select1stIS5_ESt4lessIS1_ESaIS5_EE8_M_eraseEPSt13_Rb_tree_nodeIS5_E@Base 1.0.4+dfsg0
 _ZNSt8_Rb_treeISsSt4pairIKSsN10PtexReader8MetaData5EntryEESt10_Select1stIS5_ESt4lessISsESaIS5_EE10_M_insert_EPKSt18_Rb_tree_node_baseSE_RKS5_@Base 1.0.4+dfsg0
 _ZNSt8_Rb_treeISsSt4pairIKSsN10PtexReader8MetaData5EntryEESt10_Select1stIS5_ESt4lessISsESaIS5_EE16_M_insert_uniqueERKS5_@Base 1.0.4+dfsg0
 _ZNSt8_Rb_treeISsSt4pairIKSsN10PtexReader8MetaData5EntryEESt10_Select1stIS5_ESt4lessISsESaIS5_EE8_M_eraseEPSt13_Rb_tree_nodeIS5_E@Base 1.0.4+dfsg0
 _ZNSt8_Rb_treeISsSt4pairIKSsPFPvvEESt10_Select1stIS5_ESt4lessISsESaIS5_EE10_M_insert_EPKSt18_Rb_tree_node_baseSE_RKS5_@Base 1.0.4+dfsg0
 _ZNSt8_Rb_treeISsSt4pairIKSsPFPvvEESt10_Select1stIS5_ESt4lessISsESaIS5_EE16_M_insert_uniqueERKS5_@Base 1.0.4+dfsg0
 _ZNSt8_Rb_treeISsSt4pairIKSsPFPvvEESt10_Select1stIS5_ESt4lessISsESaIS5_EE17_M_insert_unique_ESt23_Rb_tree_const_iteratorIS5_ERKS5_@Base 1.0.4+dfsg0
 _ZNSt8_Rb_treeISsSt4pairIKSsPFPvvEESt10_Select1stIS5_ESt4lessISsESaIS5_EE4findERS1_@Base 1.0.4+dfsg0
 _ZNSt8_Rb_treeISsSt4pairIKSsPFPvvEESt10_Select1stIS5_ESt4lessISsESaIS5_EE8_M_eraseEPSt13_Rb_tree_nodeIS5_E@Base 1.0.4+dfsg0
 _ZNSt8_Rb_treeISsSt4pairIKSsPvESt10_Select1stIS3_ESt4lessISsESaIS3_EE10_M_insert_EPKSt18_Rb_tree_node_baseSC_RKS3_@Base 1.0.4+dfsg0
 _ZNSt8_Rb_treeISsSt4pairIKSsPvESt10_Select1stIS3_ESt4lessISsESaIS3_EE16_M_insert_uniqueERKS3_@Base 1.0.4+dfsg0
 _ZNSt8_Rb_treeISsSt4pairIKSsPvESt10_Select1stIS3_ESt4lessISsESaIS3_EE17_M_insert_unique_ESt23_Rb_tree_const_iteratorIS3_ERKS3_@Base 1.0.4+dfsg0
 _ZNSt8_Rb_treeISsSt4pairIKSsPvESt10_Select1stIS3_ESt4lessISsESaIS3_EE8_M_eraseEPSt13_Rb_tree_nodeIS3_E@Base 1.0.4+dfsg0
 _ZNSt8_Rb_treeISsSt4pairIKSsSsESt10_Select1stIS2_ESt4lessISsESaIS2_EE10_M_insert_EPKSt18_Rb_tree_node_baseSB_RKS2_@Base 1.0.4+dfsg0
 _ZNSt8_Rb_treeISsSt4pairIKSsSsESt10_Select1stIS2_ESt4lessISsESaIS2_EE16_M_insert_uniqueERKS2_@Base 1.0.4+dfsg0
 _ZNSt8_Rb_treeISsSt4pairIKSsSsESt10_Select1stIS2_ESt4lessISsESaIS2_EE17_M_insert_unique_ESt23_Rb_tree_const_iteratorIS2_ERKS2_@Base 1.0.4+dfsg0
 _ZNSt8_Rb_treeISsSt4pairIKSsSsESt10_Select1stIS2_ESt4lessISsESaIS2_EE8_M_eraseEPSt13_Rb_tree_nodeIS2_E@Base 1.0.4+dfsg0
 _ZNSt8_Rb_treeISsSt4pairIKSsiESt10_Select1stIS2_ESt4lessISsESaIS2_EE10_M_insert_EPKSt18_Rb_tree_node_baseSB_RKS2_@Base 1.0.4+dfsg0
 _ZNSt8_Rb_treeISsSt4pairIKSsiESt10_Select1stIS2_ESt4lessISsESaIS2_EE16_M_insert_uniqueERKS2_@Base 1.0.4+dfsg0
 _ZNSt8_Rb_treeISsSt4pairIKSsiESt10_Select1stIS2_ESt4lessISsESaIS2_EE17_M_insert_unique_ESt23_Rb_tree_const_iteratorIS2_ERKS2_@Base 1.0.4+dfsg0
 _ZNSt8_Rb_treeISsSt4pairIKSsiESt10_Select1stIS2_ESt4lessISsESaIS2_EE8_M_eraseEPSt13_Rb_tree_nodeIS2_E@Base 1.0.4+dfsg0
 _ZNSt8_Rb_treeIjjSt9_IdentityIjESt4lessIjESaIjEE16_M_insert_uniqueERKj@Base 1.0.4+dfsg0
 _ZNSt8_Rb_treeIjjSt9_IdentityIjESt4lessIjESaIjEE8_M_eraseEPSt13_Rb_tree_nodeIjE@Base 1.0.4+dfsg0
 _ZNSt8_Rb_treeIsSt4pairIKsPN11OpenImageIO4v1_08PSDInput11ChannelInfoEESt10_Select1stIS7_ESt4lessIsESaIS7_EE10_M_insert_EPKSt18_Rb_tree_node_baseSG_RKS7_@Base 1.0.4+dfsg0
 _ZNSt8_Rb_treeIsSt4pairIKsPN11OpenImageIO4v1_08PSDInput11ChannelInfoEESt10_Select1stIS7_ESt4lessIsESaIS7_EE16_M_insert_uniqueERKS7_@Base 1.0.4+dfsg0
 _ZNSt8_Rb_treeIsSt4pairIKsPN11OpenImageIO4v1_08PSDInput11ChannelInfoEESt10_Select1stIS7_ESt4lessIsESaIS7_EE17_M_insert_unique_ESt23_Rb_tree_const_iteratorIS7_ERKS7_@Base 1.0.4+dfsg0
 _ZNSt8_Rb_treeIsSt4pairIKsPN11OpenImageIO4v1_08PSDInput11ChannelInfoEESt10_Select1stIS7_ESt4lessIsESaIS7_EE7_M_copyEPKSt13_Rb_tree_nodeIS7_EPSF_@Base 1.0.4+dfsg0
 _ZNSt8_Rb_treeIsSt4pairIKsPN11OpenImageIO4v1_08PSDInput11ChannelInfoEESt10_Select1stIS7_ESt4lessIsESaIS7_EE8_M_eraseEPSt13_Rb_tree_nodeIS7_E@Base 1.0.4+dfsg0
 _ZNSt8_Rb_treeIsSt4pairIKsPN11OpenImageIO4v1_08PSDInput11ChannelInfoEESt10_Select1stIS7_ESt4lessIsESaIS7_EEC1ERKSD_@Base 1.0.4+dfsg0
 _ZNSt8_Rb_treeIsSt4pairIKsPN11OpenImageIO4v1_08PSDInput11ChannelInfoEESt10_Select1stIS7_ESt4lessIsESaIS7_EEC2ERKSD_@Base 1.0.4+dfsg0
 _ZNSt8_Rb_treeItSt4pairIKtN11OpenImageIO4v1_07psd_pvt18ImageResourceBlockEESt10_Select1stIS6_ESt4lessItESaIS6_EE10_M_insert_EPKSt18_Rb_tree_node_baseSF_RKS6_@Base 1.0.4+dfsg0
 _ZNSt8_Rb_treeItSt4pairIKtN11OpenImageIO4v1_07psd_pvt18ImageResourceBlockEESt10_Select1stIS6_ESt4lessItESaIS6_EE8_M_eraseEPSt13_Rb_tree_nodeIS6_E@Base 1.0.4+dfsg0
 _ZSt10__pop_heapIN9__gnu_cxx17__normal_iteratorIPN5boost13intrusive_ptrIN11OpenImageIO4v1_03pvt14ImageCacheFileEEESt6vectorIS8_SaIS8_EEEEPFbRKS8_SF_EEvT_SI_SI_T0_@Base 1.0.4+dfsg0
 _ZSt11__push_heapIN9__gnu_cxx17__normal_iteratorIPN5boost13intrusive_ptrIN11OpenImageIO4v1_03pvt14ImageCacheFileEEESt6vectorIS8_SaIS8_EEEEiS8_PFbRKS8_SF_EEvT_T0_SJ_T1_T2_@Base 1.0.4+dfsg0
 _ZSt11equal_rangeIN9__gnu_cxx17__normal_iteratorIPKN5boost9re_detail20named_subexpressions4nameESt6vectorIS5_SaIS5_EEEES5_ESt4pairIT_SD_ESD_SD_RKT0_@Base 1.0.4+dfsg0
 _ZSt13__adjust_heapIN9__gnu_cxx17__normal_iteratorIPN5boost13intrusive_ptrIN11OpenImageIO4v1_03pvt14ImageCacheFileEEESt6vectorIS8_SaIS8_EEEEiS8_PFbRKS8_SF_EEvT_T0_SJ_T1_T2_@Base 1.0.4+dfsg0
 _ZSt13__heap_selectIN9__gnu_cxx17__normal_iteratorIPN5boost13intrusive_ptrIN11OpenImageIO4v1_03pvt14ImageCacheFileEEESt6vectorIS8_SaIS8_EEEEPFbRKS8_SF_EEvT_SI_SI_T0_@Base 1.0.4+dfsg0
 _ZSt13copy_backwardIPfS0_ET0_T_S2_S1_@Base 1.0.4+dfsg0
 _ZSt13copy_backwardIPiS0_ET0_T_S2_S1_@Base 1.0.4+dfsg0
 _ZSt13copy_backwardIPjS0_ET0_T_S2_S1_@Base 1.0.4+dfsg0
 _ZSt13copy_backwardIPyS0_ET0_T_S2_S1_@Base 1.0.4+dfsg0
 _ZSt16__insertion_sortIN9__gnu_cxx17__normal_iteratorIPN5boost13intrusive_ptrIN11OpenImageIO4v1_03pvt14ImageCacheFileEEESt6vectorIS8_SaIS8_EEEEPFbRKS8_SF_EEvT_SI_T0_@Base 1.0.4+dfsg0
 _ZSt16__introsort_loopIN9__gnu_cxx17__normal_iteratorIPN5boost13intrusive_ptrIN11OpenImageIO4v1_03pvt14ImageCacheFileEEESt6vectorIS8_SaIS8_EEEEiPFbRKS8_SF_EEvT_SI_T0_T1_@Base 1.0.4+dfsg0
 _ZSt17__rotate_adaptiveIPjS0_iET_S1_S1_S1_T1_S2_T0_S2_@Base 1.0.4+dfsg0
 _ZSt19__move_median_firstIN9__gnu_cxx17__normal_iteratorIPN5boost13intrusive_ptrIN11OpenImageIO4v1_03pvt14ImageCacheFileEEESt6vectorIS8_SaIS8_EEEEPFbRKS8_SF_EEvT_SI_SI_T0_@Base 1.0.4+dfsg0
 _ZSt25__unguarded_linear_insertIN9__gnu_cxx17__normal_iteratorIPN5boost13intrusive_ptrIN11OpenImageIO4v1_03pvt14ImageCacheFileEEESt6vectorIS8_SaIS8_EEEEPFbRKS8_SF_EEvT_T0_@Base 1.0.4+dfsg0
 _ZSt26__unguarded_insertion_sortIN9__gnu_cxx17__normal_iteratorIPN5boost13intrusive_ptrIN11OpenImageIO4v1_03pvt14ImageCacheFileEEESt6vectorIS8_SaIS8_EEEEPFbRKS8_SF_EEvT_SI_T0_@Base 1.0.4+dfsg0
 _ZSt4copyIN9__gnu_cxx17__normal_iteratorIPKfSt6vectorIfSaIfEEEENS1_IPfS6_EEET0_T_SB_SA_@Base 1.0.4+dfsg0
 _ZSt4sortIN9__gnu_cxx17__normal_iteratorIPN5boost13intrusive_ptrIN11OpenImageIO4v1_03pvt14ImageCacheFileEEESt6vectorIS8_SaIS8_EEEEPFbRKS8_SF_EEvT_SI_T0_@Base 1.0.4+dfsg0
 _ZSt8__fill_aIPN11OpenImageIO4v1_03pvt14ImageCacheFile12SubimageInfoES4_EN9__gnu_cxx11__enable_ifIXntsrSt11__is_scalarIT0_E7__valueEvE6__typeET_SD_RKS9_@Base 1.0.4+dfsg0
 _ZSt8__fill_aIPN11OpenImageIO4v1_08PSDInput11ChannelInfoES3_EN9__gnu_cxx11__enable_ifIXntsrSt11__is_scalarIT0_E7__valueEvE6__typeET_SC_RKS8_@Base 1.0.4+dfsg0
 _ZSt8__fill_aIPN11OpenImageIO4v1_08PSDInput5LayerES3_EN9__gnu_cxx11__enable_ifIXntsrSt11__is_scalarIT0_E7__valueEvE6__typeET_SC_RKS8_@Base 1.0.4+dfsg0
 _ZSt8__fill_aIPN14PtexMainWriter8LevelRecES1_EN9__gnu_cxx11__enable_ifIXntsrSt11__is_scalarIT0_E7__valueEvE6__typeET_SA_RKS6_@Base 1.0.4+dfsg0
 _ZSt8__fill_aIPN14PtexWriterBase9MetaEntryES1_EN9__gnu_cxx11__enable_ifIXntsrSt11__is_scalarIT0_E7__valueEvE6__typeET_SA_RKS6_@Base 1.0.4+dfsg0
 _ZSt8__fill_aIPSsSsEN9__gnu_cxx11__enable_ifIXntsrSt11__is_scalarIT0_E7__valueEvE6__typeET_S8_RKS4_@Base 1.0.4+dfsg0
 _ZSt8__rotateIPjEvT_S1_S1_St26random_access_iterator_tag@Base 1.0.4+dfsg0
 _ZSt9make_heapIN9__gnu_cxx17__normal_iteratorIPN5boost13intrusive_ptrIN11OpenImageIO4v1_03pvt14ImageCacheFileEEESt6vectorIS8_SaIS8_EEEEPFbRKS8_SF_EEvT_SI_T0_@Base 1.0.4+dfsg0
 _ZSt9sort_heapIN9__gnu_cxx17__normal_iteratorIPN5boost13intrusive_ptrIN11OpenImageIO4v1_03pvt14ImageCacheFileEEESt6vectorIS8_SaIS8_EEEEPFbRKS8_SF_EEvT_SI_T0_@Base 1.0.4+dfsg0
 _ZSteqIcSt11char_traitsIcESaIcEEbRKSbIT_T0_T1_EPKS3_@Base 1.0.4+dfsg0
 _ZStneIcSt11char_traitsIcESaIcEEbRKSbIT_T0_T1_ES8_@Base 1.0.4+dfsg0
 _ZStplIcSt11char_traitsIcESaIcEESbIT_T0_T1_ERKS6_PKS3_@Base 1.0.4+dfsg0
 _ZTI10PtexFilter@Base 1.0.4+dfsg0
 _ZTI10PtexReader@Base 1.0.4+dfsg0
 _ZTI10PtexWriter@Base 1.0.4+dfsg0
 _ZTI11PtexLruItem@Base 1.0.4+dfsg0
 _ZTI11PtexTexture@Base 1.0.4+dfsg0
 _ZTI12PtexFaceData@Base 1.0.4+dfsg0
 _ZTI12PtexMetaData@Base 1.0.4+dfsg0
 _ZTI13PtexCacheImpl@Base 1.0.4+dfsg0
 _ZTI14PtexCachedData@Base 1.0.4+dfsg0
 _ZTI14PtexCachedFile@Base 1.0.4+dfsg0
 _ZTI14PtexIncrWriter@Base 1.0.4+dfsg0
 _ZTI14PtexMainWriter@Base 1.0.4+dfsg0
 _ZTI14PtexWriterBase@Base 1.0.4+dfsg0
 _ZTI15PtexReaderCache@Base 1.0.4+dfsg0
 _ZTI16PtexInputHandler@Base 1.0.4+dfsg0
 _ZTI18PtexTriangleFilter@Base 1.0.4+dfsg0
 _ZTI19PtexSeparableFilter@Base 1.0.4+dfsg0
 _ZTI4Ptex@Base 1.0.4+dfsg0
 _ZTI6PtexIO@Base 1.0.4+dfsg0
 _ZTI8InStream@Base 1.0.4+dfsg0
 _ZTI8PtexDictIP10PtexReaderE@Base 1.0.4+dfsg0
 _ZTI9OutStream@Base 1.0.4+dfsg0
 _ZTI9PtexCache@Base 1.0.4+dfsg0
 _ZTIN10PtexReader10PackedFaceE@Base 1.0.4+dfsg0
 _ZTIN10PtexReader12ConstDataPtrE@Base 1.0.4+dfsg0
 _ZTIN10PtexReader12ConstantFaceE@Base 1.0.4+dfsg0
 _ZTIN10PtexReader13TiledFaceBaseE@Base 1.0.4+dfsg0
 _ZTIN10PtexReader16TiledReducedFaceE@Base 1.0.4+dfsg0
 _ZTIN10PtexReader5LevelE@Base 1.0.4+dfsg0
 _ZTIN10PtexReader8FaceDataE@Base 1.0.4+dfsg0
 _ZTIN10PtexReader8MetaData13LargeMetaDataE@Base 1.0.4+dfsg0
 _ZTIN10PtexReader8MetaDataE@Base 1.0.4+dfsg0
 _ZTIN10PtexReader9TiledFaceE@Base 1.0.4+dfsg0
 _ZTIN11OpenImageIO4v1_010FitsOutputE@Base 1.0.4+dfsg0
 _ZTIN11OpenImageIO4v1_010ImageCacheE@Base 1.0.4+dfsg0
 _ZTIN11OpenImageIO4v1_010ImageInputE@Base 1.0.4+dfsg0
 _ZTIN11OpenImageIO4v1_010PtexOutputE@Base 1.0.4+dfsg0
 _ZTIN11OpenImageIO4v1_010TIFFOutputE@Base 1.0.4+dfsg0
 _ZTIN11OpenImageIO4v1_010ZfileInputE@Base 1.0.4+dfsg0
 _ZTIN11OpenImageIO4v1_011CineonInputE@Base 1.0.4+dfsg0
 _ZTIN11OpenImageIO4v1_011FilterBox1DE@Base 1.0.4+dfsg0
 _ZTIN11OpenImageIO4v1_011FilterBox2DE@Base 1.0.4+dfsg0
 _ZTIN11OpenImageIO4v1_011ImageOutputE@Base 1.0.4+dfsg0
 _ZTIN11OpenImageIO4v1_011SocketInputE@Base 1.0.4+dfsg0
 _ZTIN11OpenImageIO4v1_011ZfileOutputE@Base 1.0.4+dfsg0
 _ZTIN11OpenImageIO4v1_012CineonOutputE@Base 1.0.4+dfsg0
 _ZTIN11OpenImageIO4v1_012ErrorHandlerE@Base 1.0.4+dfsg0
 _ZTIN11OpenImageIO4v1_012FilterDisk2DE@Base 1.0.4+dfsg0
 _ZTIN11OpenImageIO4v1_012FilterSinc1DE@Base 1.0.4+dfsg0
 _ZTIN11OpenImageIO4v1_012FilterSinc2DE@Base 1.0.4+dfsg0
 _ZTIN11OpenImageIO4v1_012OpenEXRInputE@Base 1.0.4+dfsg0
 _ZTIN11OpenImageIO4v1_012SocketOutputE@Base 1.0.4+dfsg0
 _ZTIN11OpenImageIO4v1_013OpenEXROutputE@Base 1.0.4+dfsg0
 _ZTIN11OpenImageIO4v1_013TextureSystemE@Base 1.0.4+dfsg0
 _ZTIN11OpenImageIO4v1_014ColorProcessorE@Base 1.0.4+dfsg0
 _ZTIN11OpenImageIO4v1_014SoftimageInputE@Base 1.0.4+dfsg0
 _ZTIN11OpenImageIO4v1_015FilterBSpline1DE@Base 1.0.4+dfsg0
 _ZTIN11OpenImageIO4v1_015FilterBSpline2DE@Base 1.0.4+dfsg0
 _ZTIN11OpenImageIO4v1_016FilterGaussian1DE@Base 1.0.4+dfsg0
 _ZTIN11OpenImageIO4v1_016FilterGaussian2DE@Base 1.0.4+dfsg0
 _ZTIN11OpenImageIO4v1_016FilterMitchell1DE@Base 1.0.4+dfsg0
 _ZTIN11OpenImageIO4v1_016FilterMitchell2DE@Base 1.0.4+dfsg0
 _ZTIN11OpenImageIO4v1_016FilterTriangle1DE@Base 1.0.4+dfsg0
 _ZTIN11OpenImageIO4v1_016FilterTriangle2DE@Base 1.0.4+dfsg0
 _ZTIN11OpenImageIO4v1_017FilterLanczos3_1DE@Base 1.0.4+dfsg0
 _ZTIN11OpenImageIO4v1_017FilterLanczos3_2DE@Base 1.0.4+dfsg0
 _ZTIN11OpenImageIO4v1_018FilterCatmullRom1DE@Base 1.0.4+dfsg0
 _ZTIN11OpenImageIO4v1_018FilterCatmullRom2DE@Base 1.0.4+dfsg0
 _ZTIN11OpenImageIO4v1_022FilterBlackmanHarris1DE@Base 1.0.4+dfsg0
 _ZTIN11OpenImageIO4v1_022FilterBlackmanHarris2DE@Base 1.0.4+dfsg0
 _ZTIN11OpenImageIO4v1_023FilterRadialLanczos3_2DE@Base 1.0.4+dfsg0
 _ZTIN11OpenImageIO4v1_029ColorProcessor_linear_to_sRGBE@Base 1.0.4+dfsg0
 _ZTIN11OpenImageIO4v1_029ColorProcessor_sRGB_to_linearE@Base 1.0.4+dfsg0
 _ZTIN11OpenImageIO4v1_031ColorProcessor_Rec709_to_linearE@Base 1.0.4+dfsg0
 _ZTIN11OpenImageIO4v1_031ColorProcessor_linear_to_Rec709E@Base 1.0.4+dfsg0
 _ZTIN11OpenImageIO4v1_03pvt14ImageCacheImplE@Base 1.0.4+dfsg0
 _ZTIN11OpenImageIO4v1_03pvt17TextureSystemImplE@Base 1.0.4+dfsg0
 _ZTIN11OpenImageIO4v1_04pugi10xml_writerE@Base 1.0.4+dfsg0
 _ZTIN11OpenImageIO4v1_04pugi15xml_tree_walkerE@Base 1.0.4+dfsg0
 _ZTIN11OpenImageIO4v1_04pugi15xml_writer_fileE@Base 1.0.4+dfsg0
 _ZTIN11OpenImageIO4v1_04pugi15xpath_exceptionE@Base 1.0.4+dfsg0
 _ZTIN11OpenImageIO4v1_04pugi17xml_writer_streamE@Base 1.0.4+dfsg0
 _ZTIN11OpenImageIO4v1_08BmpInputE@Base 1.0.4+dfsg0
 _ZTIN11OpenImageIO4v1_08DDSInputE@Base 1.0.4+dfsg0
 _ZTIN11OpenImageIO4v1_08DPXInputE@Base 1.0.4+dfsg0
 _ZTIN11OpenImageIO4v1_08Filter1DE@Base 1.0.4+dfsg0
 _ZTIN11OpenImageIO4v1_08Filter2DE@Base 1.0.4+dfsg0
 _ZTIN11OpenImageIO4v1_08HdrInputE@Base 1.0.4+dfsg0
 _ZTIN11OpenImageIO4v1_08ICOInputE@Base 1.0.4+dfsg0
 _ZTIN11OpenImageIO4v1_08IffInputE@Base 1.0.4+dfsg0
 _ZTIN11OpenImageIO4v1_08ImageBufE@Base 1.0.4+dfsg0
 _ZTIN11OpenImageIO4v1_08JpgInputE@Base 1.0.4+dfsg0
 _ZTIN11OpenImageIO4v1_08PNGInputE@Base 1.0.4+dfsg0
 _ZTIN11OpenImageIO4v1_08PNMInputE@Base 1.0.4+dfsg0
 _ZTIN11OpenImageIO4v1_08PSDInputE@Base 1.0.4+dfsg0
 _ZTIN11OpenImageIO4v1_08RLAInputE@Base 1.0.4+dfsg0
 _ZTIN11OpenImageIO4v1_08SgiInputE@Base 1.0.4+dfsg0
 _ZTIN11OpenImageIO4v1_08TGAInputE@Base 1.0.4+dfsg0
 _ZTIN11OpenImageIO4v1_09BmpOutputE@Base 1.0.4+dfsg0
 _ZTIN11OpenImageIO4v1_09DDSOutputE@Base 1.0.4+dfsg0
 _ZTIN11OpenImageIO4v1_09DPXOutputE@Base 1.0.4+dfsg0
 _ZTIN11OpenImageIO4v1_09FitsInputE@Base 1.0.4+dfsg0
 _ZTIN11OpenImageIO4v1_09HdrOutputE@Base 1.0.4+dfsg0
 _ZTIN11OpenImageIO4v1_09ICOOutputE@Base 1.0.4+dfsg0
 _ZTIN11OpenImageIO4v1_09IffOutputE@Base 1.0.4+dfsg0
 _ZTIN11OpenImageIO4v1_09JpgOutputE@Base 1.0.4+dfsg0
 _ZTIN11OpenImageIO4v1_09PNGOutputE@Base 1.0.4+dfsg0
 _ZTIN11OpenImageIO4v1_09PNMOutputE@Base 1.0.4+dfsg0
 _ZTIN11OpenImageIO4v1_09PSDOutputE@Base 1.0.4+dfsg0
 _ZTIN11OpenImageIO4v1_09PtexInputE@Base 1.0.4+dfsg0
 _ZTIN11OpenImageIO4v1_09RLAOutputE@Base 1.0.4+dfsg0
 _ZTIN11OpenImageIO4v1_09SgiOutputE@Base 1.0.4+dfsg0
 _ZTIN11OpenImageIO4v1_09TGAOutputE@Base 1.0.4+dfsg0
 _ZTIN11OpenImageIO4v1_09TIFFInputE@Base 1.0.4+dfsg0
 _ZTIN3Iex7MathExcE@Base 1.0.4+dfsg0
 _ZTIN3Iex7TypeExcE@Base 1.0.4+dfsg0
 _ZTIN3Imf14TypedAttributeIN5Imath4Vec3IfEEEE@Base 1.0.4+dfsg0
 _ZTIN3Imf14TypedAttributeIN5Imath8Matrix44IfEEEE@Base 1.0.4+dfsg0
 _ZTIN3Imf14TypedAttributeINS_11CompressionEEE@Base 1.0.4+dfsg0
 _ZTIN3Imf14TypedAttributeINS_6EnvmapEEE@Base 1.0.4+dfsg0
 _ZTIN3Imf14TypedAttributeISsEE@Base 1.0.4+dfsg0
 _ZTIN3Imf14TypedAttributeIfEE@Base 1.0.4+dfsg0
 _ZTIN3Imf14TypedAttributeIiEE@Base 1.0.4+dfsg0
 _ZTIN3dpx17ElementReadStreamE@Base 1.0.4+dfsg0
 _ZTIN3dpx17RunLengthEncodingE@Base 1.0.4+dfsg0
 _ZTIN3dpx5CodecE@Base 1.0.4+dfsg0
 _ZTIN3dpx6ReaderE@Base 1.0.4+dfsg0
 _ZTIN3dpx6WriterE@Base 1.0.4+dfsg0
 _ZTIN5Imath13SingMatrixExcE@Base 1.0.4+dfsg0
 _ZTIN5boost10lock_errorE@Base 1.0.4+dfsg0
 _ZTIN5boost12noncopyable_11noncopyableE@Base 1.0.4+dfsg0
 _ZTIN5boost16exception_detail10bad_alloc_E@Base 1.0.4+dfsg0
 _ZTIN5boost16exception_detail10clone_baseE@Base 1.0.4+dfsg0
 _ZTIN5boost16exception_detail10clone_implINS0_10bad_alloc_EEE@Base 1.0.4+dfsg0
 _ZTIN5boost16exception_detail10clone_implINS0_14bad_exception_EEE@Base 1.0.4+dfsg0
 _ZTIN5boost16exception_detail10clone_implINS0_19error_info_injectorINS_10lock_errorEEEEE@Base 1.0.4+dfsg0
 _ZTIN5boost16exception_detail10clone_implINS0_19error_info_injectorINS_17bad_function_callEEEEE@Base 1.0.4+dfsg0
 _ZTIN5boost16exception_detail10clone_implINS0_19error_info_injectorINS_21thread_resource_errorEEEEE@Base 1.0.4+dfsg0
 _ZTIN5boost16exception_detail10clone_implINS0_19error_info_injectorINS_6system12system_errorEEEEE@Base 1.0.4+dfsg0
 _ZTIN5boost16exception_detail10clone_implINS0_19error_info_injectorISt11logic_errorEEEE@Base 1.0.4+dfsg0
 _ZTIN5boost16exception_detail14bad_exception_E@Base 1.0.4+dfsg0
 _ZTIN5boost16exception_detail19error_info_injectorINS_10lock_errorEEE@Base 1.0.4+dfsg0
 _ZTIN5boost16exception_detail19error_info_injectorINS_17bad_function_callEEE@Base 1.0.4+dfsg0
 _ZTIN5boost16exception_detail19error_info_injectorINS_21thread_resource_errorEEE@Base 1.0.4+dfsg0
 _ZTIN5boost16exception_detail19error_info_injectorINS_6system12system_errorEEE@Base 1.0.4+dfsg0
 _ZTIN5boost16exception_detail19error_info_injectorISt11logic_errorEE@Base 1.0.4+dfsg0
 _ZTIN5boost16thread_exceptionE@Base 1.0.4+dfsg0
 _ZTIN5boost17bad_function_callE@Base 1.0.4+dfsg0
 _ZTIN5boost19thread_specific_ptrIN11OpenImageIO4v1_03pvt23ImageCachePerThreadInfoEE27run_custom_cleanup_functionE@Base 1.0.4+dfsg0
 _ZTIN5boost19thread_specific_ptrISsE11delete_dataE@Base 1.0.4+dfsg0
 _ZTIN5boost21thread_resource_errorE@Base 1.0.4+dfsg0
 _ZTIN5boost3_bi6bind_tIbNS_4_mfi3mf1IbN11OpenImageIO4v1_08PSDInputEjEENS0_5list2INS_3argILi1EEENS9_ILi2EEEEEEE@Base 1.0.4+dfsg0
 _ZTIN5boost4asio10io_service7serviceE@Base 1.0.4+dfsg0
 _ZTIN5boost4asio21stream_socket_serviceINS0_2ip3tcpEEE@Base 1.0.4+dfsg0
 _ZTIN5boost4asio23socket_acceptor_serviceINS0_2ip3tcpEEE@Base 1.0.4+dfsg0
 _ZTIN5boost4asio2ip16resolver_serviceINS1_3tcpEEE@Base 1.0.4+dfsg0
 _ZTIN5boost4asio5error6detail13misc_categoryE@Base 1.0.4+dfsg0
 _ZTIN5boost4asio5error6detail14netdb_categoryE@Base 1.0.4+dfsg0
 _ZTIN5boost4asio5error6detail17addrinfo_categoryE@Base 1.0.4+dfsg0
 _ZTIN5boost4asio6detail12posix_thread4funcINS1_21resolver_service_base22work_io_service_runnerEEE@Base 1.0.4+dfsg0
 _ZTIN5boost4asio6detail12posix_thread9func_baseE@Base 1.0.4+dfsg0
 _ZTIN5boost4asio6detail12service_baseINS0_21stream_socket_serviceINS0_2ip3tcpEEEEE@Base 1.0.4+dfsg0
 _ZTIN5boost4asio6detail12service_baseINS0_23socket_acceptor_serviceINS0_2ip3tcpEEEEE@Base 1.0.4+dfsg0
 _ZTIN5boost4asio6detail12service_baseINS0_2ip16resolver_serviceINS3_3tcpEEEEE@Base 1.0.4+dfsg0
 _ZTIN5boost4asio6detail12service_baseINS1_14select_reactorEEE@Base 1.0.4+dfsg0
 _ZTIN5boost4asio6detail12service_baseINS1_15task_io_serviceEEE@Base 1.0.4+dfsg0
 _ZTIN5boost4asio6detail14select_reactorE@Base 1.0.4+dfsg0
 _ZTIN5boost4asio6detail14typeid_wrapperINS0_21stream_socket_serviceINS0_2ip3tcpEEEEE@Base 1.0.4+dfsg0
 _ZTIN5boost4asio6detail14typeid_wrapperINS0_23socket_acceptor_serviceINS0_2ip3tcpEEEEE@Base 1.0.4+dfsg0
 _ZTIN5boost4asio6detail14typeid_wrapperINS0_2ip16resolver_serviceINS3_3tcpEEEEE@Base 1.0.4+dfsg0
 _ZTIN5boost4asio6detail14typeid_wrapperINS1_14select_reactorEEE@Base 1.0.4+dfsg0
 _ZTIN5boost4asio6detail14typeid_wrapperINS1_15task_io_serviceEEE@Base 1.0.4+dfsg0
 _ZTIN5boost4asio6detail15task_io_serviceE@Base 1.0.4+dfsg0
 _ZTIN5boost6detail15sp_counted_baseE@Base 1.0.4+dfsg0
 _ZTIN5boost6detail17sp_counted_impl_pIN11OpenImageIO4v1_010ImageInputEEE@Base 1.0.4+dfsg0
 _ZTIN5boost6detail17sp_counted_impl_pIN11OpenImageIO4v1_03pvt14ImageCacheImplEEE@Base 1.0.4+dfsg0
 _ZTIN5boost6detail17sp_counted_impl_pINS_11filesystem36detail11dir_itr_impEEE@Base 1.0.4+dfsg0
 _ZTIN5boost6detail17sp_counted_impl_pINS_16exception_detail10clone_implINS2_10bad_alloc_EEEEE@Base 1.0.4+dfsg0
 _ZTIN5boost6detail17sp_counted_impl_pINS_16exception_detail10clone_implINS2_14bad_exception_EEEEE@Base 1.0.4+dfsg0
 _ZTIN5boost6detail17sp_counted_impl_pINS_4asio21basic_socket_acceptorINS2_2ip3tcpENS2_23socket_acceptor_serviceIS5_EEEEEE@Base 1.0.4+dfsg0
 _ZTIN5boost6detail17sp_counted_impl_pISt6vectorINS_4asio2ip20basic_resolver_entryINS4_3tcpEEESaIS7_EEEE@Base 1.0.4+dfsg0
 _ZTIN5boost6detail18sp_counted_impl_pdIPNS_19thread_specific_ptrIN11OpenImageIO4v1_03pvt23ImageCachePerThreadInfoEE27run_custom_cleanup_functionENS0_14do_heap_deleteIS8_EEEE@Base 1.0.4+dfsg0
 _ZTIN5boost6detail18sp_counted_impl_pdIPNS_19thread_specific_ptrISsE11delete_dataENS0_14do_heap_deleteIS4_EEEE@Base 1.0.4+dfsg0
 _ZTIN5boost6detail18sp_counted_impl_pdIPvNS_4asio6detail10socket_ops12noop_deleterEEE@Base 1.0.4+dfsg0
 _ZTIN5boost6detail20tss_cleanup_functionE@Base 1.0.4+dfsg0
 _ZTIN5boost6system12system_errorE@Base 1.0.4+dfsg0
 _ZTIN5boost6system14error_categoryE@Base 1.0.4+dfsg0
 _ZTIN5boost9exceptionE@Base 1.0.4+dfsg0
 _ZTIN6cineon17ElementReadStreamE@Base 1.0.4+dfsg0
 _ZTIN6cineon5CodecE@Base 1.0.4+dfsg0
 _ZTIN6cineon6ReaderE@Base 1.0.4+dfsg0
 _ZTIN6cineon6WriterE@Base 1.0.4+dfsg0
 _ZTIN6cineon8InStreamE@Base 1.0.4+dfsg0
 _ZTIN6squish10ClusterFitE@Base 1.0.4+dfsg0
 _ZTIN6squish15SingleColourFitE@Base 1.0.4+dfsg0
 _ZTIN6squish8RangeFitE@Base 1.0.4+dfsg0
 _ZTIN6squish9ColourFitE@Base 1.0.4+dfsg0
 _ZTS10PtexFilter@Base 1.0.4+dfsg0
 _ZTS10PtexReader@Base 1.0.4+dfsg0
 _ZTS10PtexWriter@Base 1.0.4+dfsg0
 _ZTS11PtexLruItem@Base 1.0.4+dfsg0
 _ZTS11PtexTexture@Base 1.0.4+dfsg0
 _ZTS12PtexFaceData@Base 1.0.4+dfsg0
 _ZTS12PtexMetaData@Base 1.0.4+dfsg0
 _ZTS13PtexCacheImpl@Base 1.0.4+dfsg0
 _ZTS14PtexCachedData@Base 1.0.4+dfsg0
 _ZTS14PtexCachedFile@Base 1.0.4+dfsg0
 _ZTS14PtexIncrWriter@Base 1.0.4+dfsg0
 _ZTS14PtexMainWriter@Base 1.0.4+dfsg0
 _ZTS14PtexWriterBase@Base 1.0.4+dfsg0
 _ZTS15PtexReaderCache@Base 1.0.4+dfsg0
 _ZTS16PtexInputHandler@Base 1.0.4+dfsg0
 _ZTS18PtexTriangleFilter@Base 1.0.4+dfsg0
 _ZTS19PtexSeparableFilter@Base 1.0.4+dfsg0
 _ZTS4Ptex@Base 1.0.4+dfsg0
 _ZTS6PtexIO@Base 1.0.4+dfsg0
 _ZTS8InStream@Base 1.0.4+dfsg0
 _ZTS8PtexDictIP10PtexReaderE@Base 1.0.4+dfsg0
 _ZTS9OutStream@Base 1.0.4+dfsg0
 _ZTS9PtexCache@Base 1.0.4+dfsg0
 _ZTSN10PtexReader10PackedFaceE@Base 1.0.4+dfsg0
 _ZTSN10PtexReader12ConstDataPtrE@Base 1.0.4+dfsg0
 _ZTSN10PtexReader12ConstantFaceE@Base 1.0.4+dfsg0
 _ZTSN10PtexReader13TiledFaceBaseE@Base 1.0.4+dfsg0
 _ZTSN10PtexReader16TiledReducedFaceE@Base 1.0.4+dfsg0
 _ZTSN10PtexReader5LevelE@Base 1.0.4+dfsg0
 _ZTSN10PtexReader8FaceDataE@Base 1.0.4+dfsg0
 _ZTSN10PtexReader8MetaData13LargeMetaDataE@Base 1.0.4+dfsg0
 _ZTSN10PtexReader8MetaDataE@Base 1.0.4+dfsg0
 _ZTSN10PtexReader9TiledFaceE@Base 1.0.4+dfsg0
 _ZTSN11OpenImageIO4v1_010FitsOutputE@Base 1.0.4+dfsg0
 _ZTSN11OpenImageIO4v1_010ImageCacheE@Base 1.0.4+dfsg0
 _ZTSN11OpenImageIO4v1_010ImageInputE@Base 1.0.4+dfsg0
 _ZTSN11OpenImageIO4v1_010PtexOutputE@Base 1.0.4+dfsg0
 _ZTSN11OpenImageIO4v1_010TIFFOutputE@Base 1.0.4+dfsg0
 _ZTSN11OpenImageIO4v1_010ZfileInputE@Base 1.0.4+dfsg0
 _ZTSN11OpenImageIO4v1_011CineonInputE@Base 1.0.4+dfsg0
 _ZTSN11OpenImageIO4v1_011FilterBox1DE@Base 1.0.4+dfsg0
 _ZTSN11OpenImageIO4v1_011FilterBox2DE@Base 1.0.4+dfsg0
 _ZTSN11OpenImageIO4v1_011ImageOutputE@Base 1.0.4+dfsg0
 _ZTSN11OpenImageIO4v1_011SocketInputE@Base 1.0.4+dfsg0
 _ZTSN11OpenImageIO4v1_011ZfileOutputE@Base 1.0.4+dfsg0
 _ZTSN11OpenImageIO4v1_012CineonOutputE@Base 1.0.4+dfsg0
 _ZTSN11OpenImageIO4v1_012ErrorHandlerE@Base 1.0.4+dfsg0
 _ZTSN11OpenImageIO4v1_012FilterDisk2DE@Base 1.0.4+dfsg0
 _ZTSN11OpenImageIO4v1_012FilterSinc1DE@Base 1.0.4+dfsg0
 _ZTSN11OpenImageIO4v1_012FilterSinc2DE@Base 1.0.4+dfsg0
 _ZTSN11OpenImageIO4v1_012OpenEXRInputE@Base 1.0.4+dfsg0
 _ZTSN11OpenImageIO4v1_012SocketOutputE@Base 1.0.4+dfsg0
 _ZTSN11OpenImageIO4v1_013OpenEXROutputE@Base 1.0.4+dfsg0
 _ZTSN11OpenImageIO4v1_013TextureSystemE@Base 1.0.4+dfsg0
 _ZTSN11OpenImageIO4v1_014ColorProcessorE@Base 1.0.4+dfsg0
 _ZTSN11OpenImageIO4v1_014SoftimageInputE@Base 1.0.4+dfsg0
 _ZTSN11OpenImageIO4v1_015FilterBSpline1DE@Base 1.0.4+dfsg0
 _ZTSN11OpenImageIO4v1_015FilterBSpline2DE@Base 1.0.4+dfsg0
 _ZTSN11OpenImageIO4v1_016FilterGaussian1DE@Base 1.0.4+dfsg0
 _ZTSN11OpenImageIO4v1_016FilterGaussian2DE@Base 1.0.4+dfsg0
 _ZTSN11OpenImageIO4v1_016FilterMitchell1DE@Base 1.0.4+dfsg0
 _ZTSN11OpenImageIO4v1_016FilterMitchell2DE@Base 1.0.4+dfsg0
 _ZTSN11OpenImageIO4v1_016FilterTriangle1DE@Base 1.0.4+dfsg0
 _ZTSN11OpenImageIO4v1_016FilterTriangle2DE@Base 1.0.4+dfsg0
 _ZTSN11OpenImageIO4v1_017FilterLanczos3_1DE@Base 1.0.4+dfsg0
 _ZTSN11OpenImageIO4v1_017FilterLanczos3_2DE@Base 1.0.4+dfsg0
 _ZTSN11OpenImageIO4v1_018FilterCatmullRom1DE@Base 1.0.4+dfsg0
 _ZTSN11OpenImageIO4v1_018FilterCatmullRom2DE@Base 1.0.4+dfsg0
 _ZTSN11OpenImageIO4v1_022FilterBlackmanHarris1DE@Base 1.0.4+dfsg0
 _ZTSN11OpenImageIO4v1_022FilterBlackmanHarris2DE@Base 1.0.4+dfsg0
 _ZTSN11OpenImageIO4v1_023FilterRadialLanczos3_2DE@Base 1.0.4+dfsg0
 _ZTSN11OpenImageIO4v1_029ColorProcessor_linear_to_sRGBE@Base 1.0.4+dfsg0
 _ZTSN11OpenImageIO4v1_029ColorProcessor_sRGB_to_linearE@Base 1.0.4+dfsg0
 _ZTSN11OpenImageIO4v1_031ColorProcessor_Rec709_to_linearE@Base 1.0.4+dfsg0
 _ZTSN11OpenImageIO4v1_031ColorProcessor_linear_to_Rec709E@Base 1.0.4+dfsg0
 _ZTSN11OpenImageIO4v1_03pvt14ImageCacheImplE@Base 1.0.4+dfsg0
 _ZTSN11OpenImageIO4v1_03pvt17TextureSystemImplE@Base 1.0.4+dfsg0
 _ZTSN11OpenImageIO4v1_04pugi10xml_writerE@Base 1.0.4+dfsg0
 _ZTSN11OpenImageIO4v1_04pugi15xml_tree_walkerE@Base 1.0.4+dfsg0
 _ZTSN11OpenImageIO4v1_04pugi15xml_writer_fileE@Base 1.0.4+dfsg0
 _ZTSN11OpenImageIO4v1_04pugi15xpath_exceptionE@Base 1.0.4+dfsg0
 _ZTSN11OpenImageIO4v1_04pugi17xml_writer_streamE@Base 1.0.4+dfsg0
 _ZTSN11OpenImageIO4v1_08BmpInputE@Base 1.0.4+dfsg0
 _ZTSN11OpenImageIO4v1_08DDSInputE@Base 1.0.4+dfsg0
 _ZTSN11OpenImageIO4v1_08DPXInputE@Base 1.0.4+dfsg0
 _ZTSN11OpenImageIO4v1_08Filter1DE@Base 1.0.4+dfsg0
 _ZTSN11OpenImageIO4v1_08Filter2DE@Base 1.0.4+dfsg0
 _ZTSN11OpenImageIO4v1_08HdrInputE@Base 1.0.4+dfsg0
 _ZTSN11OpenImageIO4v1_08ICOInputE@Base 1.0.4+dfsg0
 _ZTSN11OpenImageIO4v1_08IffInputE@Base 1.0.4+dfsg0
 _ZTSN11OpenImageIO4v1_08ImageBufE@Base 1.0.4+dfsg0
 _ZTSN11OpenImageIO4v1_08JpgInputE@Base 1.0.4+dfsg0
 _ZTSN11OpenImageIO4v1_08PNGInputE@Base 1.0.4+dfsg0
 _ZTSN11OpenImageIO4v1_08PNMInputE@Base 1.0.4+dfsg0
 _ZTSN11OpenImageIO4v1_08PSDInputE@Base 1.0.4+dfsg0
 _ZTSN11OpenImageIO4v1_08RLAInputE@Base 1.0.4+dfsg0
 _ZTSN11OpenImageIO4v1_08SgiInputE@Base 1.0.4+dfsg0
 _ZTSN11OpenImageIO4v1_08TGAInputE@Base 1.0.4+dfsg0
 _ZTSN11OpenImageIO4v1_09BmpOutputE@Base 1.0.4+dfsg0
 _ZTSN11OpenImageIO4v1_09DDSOutputE@Base 1.0.4+dfsg0
 _ZTSN11OpenImageIO4v1_09DPXOutputE@Base 1.0.4+dfsg0
 _ZTSN11OpenImageIO4v1_09FitsInputE@Base 1.0.4+dfsg0
 _ZTSN11OpenImageIO4v1_09HdrOutputE@Base 1.0.4+dfsg0
 _ZTSN11OpenImageIO4v1_09ICOOutputE@Base 1.0.4+dfsg0
 _ZTSN11OpenImageIO4v1_09IffOutputE@Base 1.0.4+dfsg0
 _ZTSN11OpenImageIO4v1_09JpgOutputE@Base 1.0.4+dfsg0
 _ZTSN11OpenImageIO4v1_09PNGOutputE@Base 1.0.4+dfsg0
 _ZTSN11OpenImageIO4v1_09PNMOutputE@Base 1.0.4+dfsg0
 _ZTSN11OpenImageIO4v1_09PSDOutputE@Base 1.0.4+dfsg0
 _ZTSN11OpenImageIO4v1_09PtexInputE@Base 1.0.4+dfsg0
 _ZTSN11OpenImageIO4v1_09RLAOutputE@Base 1.0.4+dfsg0
 _ZTSN11OpenImageIO4v1_09SgiOutputE@Base 1.0.4+dfsg0
 _ZTSN11OpenImageIO4v1_09TGAOutputE@Base 1.0.4+dfsg0
 _ZTSN11OpenImageIO4v1_09TIFFInputE@Base 1.0.4+dfsg0
 _ZTSN3Iex7MathExcE@Base 1.0.4+dfsg0
 _ZTSN3Iex7TypeExcE@Base 1.0.4+dfsg0
 _ZTSN3Imf14TypedAttributeIN5Imath4Vec3IfEEEE@Base 1.0.4+dfsg0
 _ZTSN3Imf14TypedAttributeIN5Imath8Matrix44IfEEEE@Base 1.0.4+dfsg0
 _ZTSN3Imf14TypedAttributeINS_11CompressionEEE@Base 1.0.4+dfsg0
 _ZTSN3Imf14TypedAttributeINS_6EnvmapEEE@Base 1.0.4+dfsg0
 _ZTSN3Imf14TypedAttributeISsEE@Base 1.0.4+dfsg0
 _ZTSN3Imf14TypedAttributeIfEE@Base 1.0.4+dfsg0
 _ZTSN3Imf14TypedAttributeIiEE@Base 1.0.4+dfsg0
 _ZTSN3dpx17ElementReadStreamE@Base 1.0.4+dfsg0
 _ZTSN3dpx17RunLengthEncodingE@Base 1.0.4+dfsg0
 _ZTSN3dpx5CodecE@Base 1.0.4+dfsg0
 _ZTSN3dpx6ReaderE@Base 1.0.4+dfsg0
 _ZTSN3dpx6WriterE@Base 1.0.4+dfsg0
 _ZTSN5Imath13SingMatrixExcE@Base 1.0.4+dfsg0
 _ZTSN5boost10lock_errorE@Base 1.0.4+dfsg0
 _ZTSN5boost12noncopyable_11noncopyableE@Base 1.0.4+dfsg0
 _ZTSN5boost16exception_detail10bad_alloc_E@Base 1.0.4+dfsg0
 _ZTSN5boost16exception_detail10clone_baseE@Base 1.0.4+dfsg0
 _ZTSN5boost16exception_detail10clone_implINS0_10bad_alloc_EEE@Base 1.0.4+dfsg0
 _ZTSN5boost16exception_detail10clone_implINS0_14bad_exception_EEE@Base 1.0.4+dfsg0
 _ZTSN5boost16exception_detail10clone_implINS0_19error_info_injectorINS_10lock_errorEEEEE@Base 1.0.4+dfsg0
 _ZTSN5boost16exception_detail10clone_implINS0_19error_info_injectorINS_17bad_function_callEEEEE@Base 1.0.4+dfsg0
 _ZTSN5boost16exception_detail10clone_implINS0_19error_info_injectorINS_21thread_resource_errorEEEEE@Base 1.0.4+dfsg0
 _ZTSN5boost16exception_detail10clone_implINS0_19error_info_injectorINS_6system12system_errorEEEEE@Base 1.0.4+dfsg0
 _ZTSN5boost16exception_detail10clone_implINS0_19error_info_injectorISt11logic_errorEEEE@Base 1.0.4+dfsg0
 _ZTSN5boost16exception_detail14bad_exception_E@Base 1.0.4+dfsg0
 _ZTSN5boost16exception_detail19error_info_injectorINS_10lock_errorEEE@Base 1.0.4+dfsg0
 _ZTSN5boost16exception_detail19error_info_injectorINS_17bad_function_callEEE@Base 1.0.4+dfsg0
 _ZTSN5boost16exception_detail19error_info_injectorINS_21thread_resource_errorEEE@Base 1.0.4+dfsg0
 _ZTSN5boost16exception_detail19error_info_injectorINS_6system12system_errorEEE@Base 1.0.4+dfsg0
 _ZTSN5boost16exception_detail19error_info_injectorISt11logic_errorEE@Base 1.0.4+dfsg0
 _ZTSN5boost16thread_exceptionE@Base 1.0.4+dfsg0
 _ZTSN5boost17bad_function_callE@Base 1.0.4+dfsg0
 _ZTSN5boost19thread_specific_ptrIN11OpenImageIO4v1_03pvt23ImageCachePerThreadInfoEE27run_custom_cleanup_functionE@Base 1.0.4+dfsg0
 _ZTSN5boost19thread_specific_ptrISsE11delete_dataE@Base 1.0.4+dfsg0
 _ZTSN5boost21thread_resource_errorE@Base 1.0.4+dfsg0
 _ZTSN5boost3_bi6bind_tIbNS_4_mfi3mf1IbN11OpenImageIO4v1_08PSDInputEjEENS0_5list2INS_3argILi1EEENS9_ILi2EEEEEEE@Base 1.0.4+dfsg0
 _ZTSN5boost4asio10io_service7serviceE@Base 1.0.4+dfsg0
 _ZTSN5boost4asio21stream_socket_serviceINS0_2ip3tcpEEE@Base 1.0.4+dfsg0
 _ZTSN5boost4asio23socket_acceptor_serviceINS0_2ip3tcpEEE@Base 1.0.4+dfsg0
 _ZTSN5boost4asio2ip16resolver_serviceINS1_3tcpEEE@Base 1.0.4+dfsg0
 _ZTSN5boost4asio5error6detail13misc_categoryE@Base 1.0.4+dfsg0
 _ZTSN5boost4asio5error6detail14netdb_categoryE@Base 1.0.4+dfsg0
 _ZTSN5boost4asio5error6detail17addrinfo_categoryE@Base 1.0.4+dfsg0
 _ZTSN5boost4asio6detail10socket_ops12noop_deleterE@Base 1.0.4+dfsg0
 _ZTSN5boost4asio6detail12posix_thread4funcINS1_21resolver_service_base22work_io_service_runnerEEE@Base 1.0.4+dfsg0
 _ZTSN5boost4asio6detail12posix_thread9func_baseE@Base 1.0.4+dfsg0
 _ZTSN5boost4asio6detail12service_baseINS0_21stream_socket_serviceINS0_2ip3tcpEEEEE@Base 1.0.4+dfsg0
 _ZTSN5boost4asio6detail12service_baseINS0_23socket_acceptor_serviceINS0_2ip3tcpEEEEE@Base 1.0.4+dfsg0
 _ZTSN5boost4asio6detail12service_baseINS0_2ip16resolver_serviceINS3_3tcpEEEEE@Base 1.0.4+dfsg0
 _ZTSN5boost4asio6detail12service_baseINS1_14select_reactorEEE@Base 1.0.4+dfsg0
 _ZTSN5boost4asio6detail12service_baseINS1_15task_io_serviceEEE@Base 1.0.4+dfsg0
 _ZTSN5boost4asio6detail14select_reactorE@Base 1.0.4+dfsg0
 _ZTSN5boost4asio6detail14typeid_wrapperINS0_21stream_socket_serviceINS0_2ip3tcpEEEEE@Base 1.0.4+dfsg0
 _ZTSN5boost4asio6detail14typeid_wrapperINS0_23socket_acceptor_serviceINS0_2ip3tcpEEEEE@Base 1.0.4+dfsg0
 _ZTSN5boost4asio6detail14typeid_wrapperINS0_2ip16resolver_serviceINS3_3tcpEEEEE@Base 1.0.4+dfsg0
 _ZTSN5boost4asio6detail14typeid_wrapperINS1_14select_reactorEEE@Base 1.0.4+dfsg0
 _ZTSN5boost4asio6detail14typeid_wrapperINS1_15task_io_serviceEEE@Base 1.0.4+dfsg0
 _ZTSN5boost4asio6detail15task_io_serviceE@Base 1.0.4+dfsg0
 _ZTSN5boost6detail14do_heap_deleteINS_19thread_specific_ptrIN11OpenImageIO4v1_03pvt23ImageCachePerThreadInfoEE27run_custom_cleanup_functionEEE@Base 1.0.4+dfsg0
 _ZTSN5boost6detail14do_heap_deleteINS_19thread_specific_ptrISsE11delete_dataEEE@Base 1.0.4+dfsg0
 _ZTSN5boost6detail15sp_counted_baseE@Base 1.0.4+dfsg0
 _ZTSN5boost6detail17sp_counted_impl_pIN11OpenImageIO4v1_010ImageInputEEE@Base 1.0.4+dfsg0
 _ZTSN5boost6detail17sp_counted_impl_pIN11OpenImageIO4v1_03pvt14ImageCacheImplEEE@Base 1.0.4+dfsg0
 _ZTSN5boost6detail17sp_counted_impl_pINS_11filesystem36detail11dir_itr_impEEE@Base 1.0.4+dfsg0
 _ZTSN5boost6detail17sp_counted_impl_pINS_16exception_detail10clone_implINS2_10bad_alloc_EEEEE@Base 1.0.4+dfsg0
 _ZTSN5boost6detail17sp_counted_impl_pINS_16exception_detail10clone_implINS2_14bad_exception_EEEEE@Base 1.0.4+dfsg0
 _ZTSN5boost6detail17sp_counted_impl_pINS_4asio21basic_socket_acceptorINS2_2ip3tcpENS2_23socket_acceptor_serviceIS5_EEEEEE@Base 1.0.4+dfsg0
 _ZTSN5boost6detail17sp_counted_impl_pISt6vectorINS_4asio2ip20basic_resolver_entryINS4_3tcpEEESaIS7_EEEE@Base 1.0.4+dfsg0
 _ZTSN5boost6detail18sp_counted_impl_pdIPNS_19thread_specific_ptrIN11OpenImageIO4v1_03pvt23ImageCachePerThreadInfoEE27run_custom_cleanup_functionENS0_14do_heap_deleteIS8_EEEE@Base 1.0.4+dfsg0
 _ZTSN5boost6detail18sp_counted_impl_pdIPNS_19thread_specific_ptrISsE11delete_dataENS0_14do_heap_deleteIS4_EEEE@Base 1.0.4+dfsg0
 _ZTSN5boost6detail18sp_counted_impl_pdIPvNS_4asio6detail10socket_ops12noop_deleterEEE@Base 1.0.4+dfsg0
 _ZTSN5boost6detail20tss_cleanup_functionE@Base 1.0.4+dfsg0
 _ZTSN5boost6system12system_errorE@Base 1.0.4+dfsg0
 _ZTSN5boost6system14error_categoryE@Base 1.0.4+dfsg0
 _ZTSN5boost9exceptionE@Base 1.0.4+dfsg0
 _ZTSN6cineon17ElementReadStreamE@Base 1.0.4+dfsg0
 _ZTSN6cineon5CodecE@Base 1.0.4+dfsg0
 _ZTSN6cineon6ReaderE@Base 1.0.4+dfsg0
 _ZTSN6cineon6WriterE@Base 1.0.4+dfsg0
 _ZTSN6cineon8InStreamE@Base 1.0.4+dfsg0
 _ZTSN6squish10ClusterFitE@Base 1.0.4+dfsg0
 _ZTSN6squish15SingleColourFitE@Base 1.0.4+dfsg0
 _ZTSN6squish8RangeFitE@Base 1.0.4+dfsg0
 _ZTSN6squish9ColourFitE@Base 1.0.4+dfsg0
 _ZTV10PtexFilter@Base 1.0.4+dfsg0
 _ZTV10PtexReader@Base 1.0.4+dfsg0
 _ZTV10PtexWriter@Base 1.0.4+dfsg0
 _ZTV11PtexLruItem@Base 1.0.4+dfsg0
 _ZTV11PtexTexture@Base 1.0.4+dfsg0
 _ZTV12PtexFaceData@Base 1.0.4+dfsg0
 _ZTV12PtexMetaData@Base 1.0.4+dfsg0
 _ZTV13PtexCacheImpl@Base 1.0.4+dfsg0
 _ZTV14PtexCachedData@Base 1.0.4+dfsg0
 _ZTV14PtexCachedFile@Base 1.0.4+dfsg0
 _ZTV14PtexIncrWriter@Base 1.0.4+dfsg0
 _ZTV14PtexMainWriter@Base 1.0.4+dfsg0
 _ZTV14PtexWriterBase@Base 1.0.4+dfsg0
 _ZTV15PtexReaderCache@Base 1.0.4+dfsg0
 _ZTV16PtexInputHandler@Base 1.0.4+dfsg0
 _ZTV18PtexTriangleFilter@Base 1.0.4+dfsg0
 _ZTV19PtexSeparableFilter@Base 1.0.4+dfsg0
 _ZTV8InStream@Base 1.0.4+dfsg0
 _ZTV8PtexDictIP10PtexReaderE@Base 1.0.4+dfsg0
 _ZTV9OutStream@Base 1.0.4+dfsg0
 _ZTV9PtexCache@Base 1.0.4+dfsg0
 _ZTVN10PtexReader10PackedFaceE@Base 1.0.4+dfsg0
 _ZTVN10PtexReader12ConstDataPtrE@Base 1.0.4+dfsg0
 _ZTVN10PtexReader12ConstantFaceE@Base 1.0.4+dfsg0
 _ZTVN10PtexReader13TiledFaceBaseE@Base 1.0.4+dfsg0
 _ZTVN10PtexReader16TiledReducedFaceE@Base 1.0.4+dfsg0
 _ZTVN10PtexReader5LevelE@Base 1.0.4+dfsg0
 _ZTVN10PtexReader8FaceDataE@Base 1.0.4+dfsg0
 _ZTVN10PtexReader8MetaData13LargeMetaDataE@Base 1.0.4+dfsg0
 _ZTVN10PtexReader8MetaDataE@Base 1.0.4+dfsg0
 _ZTVN10PtexReader9TiledFaceE@Base 1.0.4+dfsg0
 _ZTVN11OpenImageIO4v1_010FitsOutputE@Base 1.0.4+dfsg0
 _ZTVN11OpenImageIO4v1_010ImageCacheE@Base 1.0.4+dfsg0
 _ZTVN11OpenImageIO4v1_010ImageInputE@Base 1.0.4+dfsg0
 _ZTVN11OpenImageIO4v1_010PtexOutputE@Base 1.0.4+dfsg0
 _ZTVN11OpenImageIO4v1_010TIFFOutputE@Base 1.0.4+dfsg0
 _ZTVN11OpenImageIO4v1_010ZfileInputE@Base 1.0.4+dfsg0
 _ZTVN11OpenImageIO4v1_011CineonInputE@Base 1.0.4+dfsg0
 _ZTVN11OpenImageIO4v1_011FilterBox1DE@Base 1.0.4+dfsg0
 _ZTVN11OpenImageIO4v1_011FilterBox2DE@Base 1.0.4+dfsg0
 _ZTVN11OpenImageIO4v1_011ImageOutputE@Base 1.0.4+dfsg0
 _ZTVN11OpenImageIO4v1_011SocketInputE@Base 1.0.4+dfsg0
 _ZTVN11OpenImageIO4v1_011ZfileOutputE@Base 1.0.4+dfsg0
 _ZTVN11OpenImageIO4v1_012CineonOutputE@Base 1.0.4+dfsg0
 _ZTVN11OpenImageIO4v1_012ErrorHandlerE@Base 1.0.4+dfsg0
 _ZTVN11OpenImageIO4v1_012FilterDisk2DE@Base 1.0.4+dfsg0
 _ZTVN11OpenImageIO4v1_012FilterSinc1DE@Base 1.0.4+dfsg0
 _ZTVN11OpenImageIO4v1_012FilterSinc2DE@Base 1.0.4+dfsg0
 _ZTVN11OpenImageIO4v1_012OpenEXRInputE@Base 1.0.4+dfsg0
 _ZTVN11OpenImageIO4v1_012SocketOutputE@Base 1.0.4+dfsg0
 _ZTVN11OpenImageIO4v1_013OpenEXROutputE@Base 1.0.4+dfsg0
 _ZTVN11OpenImageIO4v1_013TextureSystemE@Base 1.0.4+dfsg0
 _ZTVN11OpenImageIO4v1_014ColorProcessorE@Base 1.0.4+dfsg0
 _ZTVN11OpenImageIO4v1_014SoftimageInputE@Base 1.0.4+dfsg0
 _ZTVN11OpenImageIO4v1_015FilterBSpline1DE@Base 1.0.4+dfsg0
 _ZTVN11OpenImageIO4v1_015FilterBSpline2DE@Base 1.0.4+dfsg0
 _ZTVN11OpenImageIO4v1_016FilterGaussian1DE@Base 1.0.4+dfsg0
 _ZTVN11OpenImageIO4v1_016FilterGaussian2DE@Base 1.0.4+dfsg0
 _ZTVN11OpenImageIO4v1_016FilterMitchell1DE@Base 1.0.4+dfsg0
 _ZTVN11OpenImageIO4v1_016FilterMitchell2DE@Base 1.0.4+dfsg0
 _ZTVN11OpenImageIO4v1_016FilterTriangle1DE@Base 1.0.4+dfsg0
 _ZTVN11OpenImageIO4v1_016FilterTriangle2DE@Base 1.0.4+dfsg0
 _ZTVN11OpenImageIO4v1_017FilterLanczos3_1DE@Base 1.0.4+dfsg0
 _ZTVN11OpenImageIO4v1_017FilterLanczos3_2DE@Base 1.0.4+dfsg0
 _ZTVN11OpenImageIO4v1_018FilterCatmullRom1DE@Base 1.0.4+dfsg0
 _ZTVN11OpenImageIO4v1_018FilterCatmullRom2DE@Base 1.0.4+dfsg0
 _ZTVN11OpenImageIO4v1_022FilterBlackmanHarris1DE@Base 1.0.4+dfsg0
 _ZTVN11OpenImageIO4v1_022FilterBlackmanHarris2DE@Base 1.0.4+dfsg0
 _ZTVN11OpenImageIO4v1_023FilterRadialLanczos3_2DE@Base 1.0.4+dfsg0
 _ZTVN11OpenImageIO4v1_029ColorProcessor_linear_to_sRGBE@Base 1.0.4+dfsg0
 _ZTVN11OpenImageIO4v1_029ColorProcessor_sRGB_to_linearE@Base 1.0.4+dfsg0
 _ZTVN11OpenImageIO4v1_031ColorProcessor_Rec709_to_linearE@Base 1.0.4+dfsg0
 _ZTVN11OpenImageIO4v1_031ColorProcessor_linear_to_Rec709E@Base 1.0.4+dfsg0
 _ZTVN11OpenImageIO4v1_03pvt14ImageCacheImplE@Base 1.0.4+dfsg0
 _ZTVN11OpenImageIO4v1_03pvt17TextureSystemImplE@Base 1.0.4+dfsg0
 _ZTVN11OpenImageIO4v1_04pugi10xml_writerE@Base 1.0.4+dfsg0
 _ZTVN11OpenImageIO4v1_04pugi15xml_tree_walkerE@Base 1.0.4+dfsg0
 _ZTVN11OpenImageIO4v1_04pugi15xml_writer_fileE@Base 1.0.4+dfsg0
 _ZTVN11OpenImageIO4v1_04pugi15xpath_exceptionE@Base 1.0.4+dfsg0
 _ZTVN11OpenImageIO4v1_04pugi17xml_writer_streamE@Base 1.0.4+dfsg0
 _ZTVN11OpenImageIO4v1_08BmpInputE@Base 1.0.4+dfsg0
 _ZTVN11OpenImageIO4v1_08DDSInputE@Base 1.0.4+dfsg0
 _ZTVN11OpenImageIO4v1_08DPXInputE@Base 1.0.4+dfsg0
 _ZTVN11OpenImageIO4v1_08Filter1DE@Base 1.0.4+dfsg0
 _ZTVN11OpenImageIO4v1_08Filter2DE@Base 1.0.4+dfsg0
 _ZTVN11OpenImageIO4v1_08HdrInputE@Base 1.0.4+dfsg0
 _ZTVN11OpenImageIO4v1_08ICOInputE@Base 1.0.4+dfsg0
 _ZTVN11OpenImageIO4v1_08IffInputE@Base 1.0.4+dfsg0
 _ZTVN11OpenImageIO4v1_08ImageBufE@Base 1.0.4+dfsg0
 _ZTVN11OpenImageIO4v1_08JpgInputE@Base 1.0.4+dfsg0
 _ZTVN11OpenImageIO4v1_08PNGInputE@Base 1.0.4+dfsg0
 _ZTVN11OpenImageIO4v1_08PNMInputE@Base 1.0.4+dfsg0
 _ZTVN11OpenImageIO4v1_08PSDInputE@Base 1.0.4+dfsg0
 _ZTVN11OpenImageIO4v1_08RLAInputE@Base 1.0.4+dfsg0
 _ZTVN11OpenImageIO4v1_08SgiInputE@Base 1.0.4+dfsg0
 _ZTVN11OpenImageIO4v1_08TGAInputE@Base 1.0.4+dfsg0
 _ZTVN11OpenImageIO4v1_09BmpOutputE@Base 1.0.4+dfsg0
 _ZTVN11OpenImageIO4v1_09DDSOutputE@Base 1.0.4+dfsg0
 _ZTVN11OpenImageIO4v1_09DPXOutputE@Base 1.0.4+dfsg0
 _ZTVN11OpenImageIO4v1_09FitsInputE@Base 1.0.4+dfsg0
 _ZTVN11OpenImageIO4v1_09HdrOutputE@Base 1.0.4+dfsg0
 _ZTVN11OpenImageIO4v1_09ICOOutputE@Base 1.0.4+dfsg0
 _ZTVN11OpenImageIO4v1_09IffOutputE@Base 1.0.4+dfsg0
 _ZTVN11OpenImageIO4v1_09JpgOutputE@Base 1.0.4+dfsg0
 _ZTVN11OpenImageIO4v1_09PNGOutputE@Base 1.0.4+dfsg0
 _ZTVN11OpenImageIO4v1_09PNMOutputE@Base 1.0.4+dfsg0
 _ZTVN11OpenImageIO4v1_09PSDOutputE@Base 1.0.4+dfsg0
 _ZTVN11OpenImageIO4v1_09PtexInputE@Base 1.0.4+dfsg0
 _ZTVN11OpenImageIO4v1_09RLAOutputE@Base 1.0.4+dfsg0
 _ZTVN11OpenImageIO4v1_09SgiOutputE@Base 1.0.4+dfsg0
 _ZTVN11OpenImageIO4v1_09TGAOutputE@Base 1.0.4+dfsg0
 _ZTVN11OpenImageIO4v1_09TIFFInputE@Base 1.0.4+dfsg0
 _ZTVN3Iex7MathExcE@Base 1.0.4+dfsg0
 _ZTVN3Iex7TypeExcE@Base 1.0.4+dfsg0
 _ZTVN3Imf14TypedAttributeIN5Imath4Vec3IfEEEE@Base 1.0.4+dfsg0
 _ZTVN3Imf14TypedAttributeIN5Imath8Matrix44IfEEEE@Base 1.0.4+dfsg0
 _ZTVN3Imf14TypedAttributeINS_6EnvmapEEE@Base 1.0.4+dfsg0
 _ZTVN3Imf14TypedAttributeISsEE@Base 1.0.4+dfsg0
 _ZTVN3Imf14TypedAttributeIfEE@Base 1.0.4+dfsg0
 _ZTVN3Imf14TypedAttributeIiEE@Base 1.0.4+dfsg0
 _ZTVN3dpx17ElementReadStreamE@Base 1.0.4+dfsg0
 _ZTVN3dpx17RunLengthEncodingE@Base 1.0.4+dfsg0
 _ZTVN3dpx5CodecE@Base 1.0.4+dfsg0
 _ZTVN3dpx6ReaderE@Base 1.0.4+dfsg0
 _ZTVN3dpx6WriterE@Base 1.0.4+dfsg0
 _ZTVN5Imath13SingMatrixExcE@Base 1.0.4+dfsg0
 _ZTVN5boost10lock_errorE@Base 1.0.4+dfsg0
 _ZTVN5boost16exception_detail10bad_alloc_E@Base 1.0.4+dfsg0
 _ZTVN5boost16exception_detail10clone_baseE@Base 1.0.4+dfsg0
 _ZTVN5boost16exception_detail10clone_implINS0_10bad_alloc_EEE@Base 1.0.4+dfsg0
 _ZTVN5boost16exception_detail10clone_implINS0_14bad_exception_EEE@Base 1.0.4+dfsg0
 _ZTVN5boost16exception_detail10clone_implINS0_19error_info_injectorINS_10lock_errorEEEEE@Base 1.0.4+dfsg0
 _ZTVN5boost16exception_detail10clone_implINS0_19error_info_injectorINS_17bad_function_callEEEEE@Base 1.0.4+dfsg0
 _ZTVN5boost16exception_detail10clone_implINS0_19error_info_injectorINS_21thread_resource_errorEEEEE@Base 1.0.4+dfsg0
 _ZTVN5boost16exception_detail10clone_implINS0_19error_info_injectorINS_6system12system_errorEEEEE@Base 1.0.4+dfsg0
 _ZTVN5boost16exception_detail10clone_implINS0_19error_info_injectorISt11logic_errorEEEE@Base 1.0.4+dfsg0
 _ZTVN5boost16exception_detail14bad_exception_E@Base 1.0.4+dfsg0
 _ZTVN5boost16exception_detail19error_info_injectorINS_10lock_errorEEE@Base 1.0.4+dfsg0
 _ZTVN5boost16exception_detail19error_info_injectorINS_17bad_function_callEEE@Base 1.0.4+dfsg0
 _ZTVN5boost16exception_detail19error_info_injectorINS_21thread_resource_errorEEE@Base 1.0.4+dfsg0
 _ZTVN5boost16exception_detail19error_info_injectorINS_6system12system_errorEEE@Base 1.0.4+dfsg0
 _ZTVN5boost16exception_detail19error_info_injectorISt11logic_errorEE@Base 1.0.4+dfsg0
 _ZTVN5boost16thread_exceptionE@Base 1.0.4+dfsg0
 _ZTVN5boost17bad_function_callE@Base 1.0.4+dfsg0
 _ZTVN5boost19thread_specific_ptrIN11OpenImageIO4v1_03pvt23ImageCachePerThreadInfoEE27run_custom_cleanup_functionE@Base 1.0.4+dfsg0
 _ZTVN5boost19thread_specific_ptrISsE11delete_dataE@Base 1.0.4+dfsg0
 _ZTVN5boost21thread_resource_errorE@Base 1.0.4+dfsg0
 _ZTVN5boost4asio10io_service7serviceE@Base 1.0.4+dfsg0
 _ZTVN5boost4asio21stream_socket_serviceINS0_2ip3tcpEEE@Base 1.0.4+dfsg0
 _ZTVN5boost4asio23socket_acceptor_serviceINS0_2ip3tcpEEE@Base 1.0.4+dfsg0
 _ZTVN5boost4asio2ip16resolver_serviceINS1_3tcpEEE@Base 1.0.4+dfsg0
 _ZTVN5boost4asio5error6detail13misc_categoryE@Base 1.0.4+dfsg0
 _ZTVN5boost4asio5error6detail14netdb_categoryE@Base 1.0.4+dfsg0
 _ZTVN5boost4asio5error6detail17addrinfo_categoryE@Base 1.0.4+dfsg0
 _ZTVN5boost4asio6detail12posix_thread4funcINS1_21resolver_service_base22work_io_service_runnerEEE@Base 1.0.4+dfsg0
 _ZTVN5boost4asio6detail12posix_thread9func_baseE@Base 1.0.4+dfsg0
 _ZTVN5boost4asio6detail12service_baseINS0_21stream_socket_serviceINS0_2ip3tcpEEEEE@Base 1.0.4+dfsg0
 _ZTVN5boost4asio6detail12service_baseINS0_23socket_acceptor_serviceINS0_2ip3tcpEEEEE@Base 1.0.4+dfsg0
 _ZTVN5boost4asio6detail12service_baseINS0_2ip16resolver_serviceINS3_3tcpEEEEE@Base 1.0.4+dfsg0
 _ZTVN5boost4asio6detail12service_baseINS1_14select_reactorEEE@Base 1.0.4+dfsg0
 _ZTVN5boost4asio6detail12service_baseINS1_15task_io_serviceEEE@Base 1.0.4+dfsg0
 _ZTVN5boost4asio6detail14select_reactorE@Base 1.0.4+dfsg0
 _ZTVN5boost4asio6detail15task_io_serviceE@Base 1.0.4+dfsg0
 _ZTVN5boost6detail15sp_counted_baseE@Base 1.0.4+dfsg0
 _ZTVN5boost6detail17sp_counted_impl_pIN11OpenImageIO4v1_010ImageInputEEE@Base 1.0.4+dfsg0
 _ZTVN5boost6detail17sp_counted_impl_pIN11OpenImageIO4v1_03pvt14ImageCacheImplEEE@Base 1.0.4+dfsg0
 _ZTVN5boost6detail17sp_counted_impl_pINS_11filesystem36detail11dir_itr_impEEE@Base 1.0.4+dfsg0
 _ZTVN5boost6detail17sp_counted_impl_pINS_16exception_detail10clone_implINS2_10bad_alloc_EEEEE@Base 1.0.4+dfsg0
 _ZTVN5boost6detail17sp_counted_impl_pINS_16exception_detail10clone_implINS2_14bad_exception_EEEEE@Base 1.0.4+dfsg0
 _ZTVN5boost6detail17sp_counted_impl_pINS_4asio21basic_socket_acceptorINS2_2ip3tcpENS2_23socket_acceptor_serviceIS5_EEEEEE@Base 1.0.4+dfsg0
 _ZTVN5boost6detail17sp_counted_impl_pISt6vectorINS_4asio2ip20basic_resolver_entryINS4_3tcpEEESaIS7_EEEE@Base 1.0.4+dfsg0
 _ZTVN5boost6detail18sp_counted_impl_pdIPNS_19thread_specific_ptrIN11OpenImageIO4v1_03pvt23ImageCachePerThreadInfoEE27run_custom_cleanup_functionENS0_14do_heap_deleteIS8_EEEE@Base 1.0.4+dfsg0
 _ZTVN5boost6detail18sp_counted_impl_pdIPNS_19thread_specific_ptrISsE11delete_dataENS0_14do_heap_deleteIS4_EEEE@Base 1.0.4+dfsg0
 _ZTVN5boost6detail18sp_counted_impl_pdIPvNS_4asio6detail10socket_ops12noop_deleterEEE@Base 1.0.4+dfsg0
 _ZTVN5boost6detail20tss_cleanup_functionE@Base 1.0.4+dfsg0
 _ZTVN5boost6system12system_errorE@Base 1.0.4+dfsg0
 _ZTVN5boost6system14error_categoryE@Base 1.0.4+dfsg0
 _ZTVN5boost9exceptionE@Base 1.0.4+dfsg0
 _ZTVN6cineon17ElementReadStreamE@Base 1.0.4+dfsg0
 _ZTVN6cineon5CodecE@Base 1.0.4+dfsg0
 _ZTVN6cineon6ReaderE@Base 1.0.4+dfsg0
 _ZTVN6cineon6WriterE@Base 1.0.4+dfsg0
 _ZTVN6cineon8InStreamE@Base 1.0.4+dfsg0
 _ZTVN6squish10ClusterFitE@Base 1.0.4+dfsg0
 _ZTVN6squish15SingleColourFitE@Base 1.0.4+dfsg0
 _ZTVN6squish8RangeFitE@Base 1.0.4+dfsg0
 _ZTVN6squish9ColourFitE@Base 1.0.4+dfsg0
 _ZThn20_N5boost16exception_detail10bad_alloc_D0Ev@Base 1.0.4+dfsg0
 _ZThn20_N5boost16exception_detail10bad_alloc_D1Ev@Base 1.0.4+dfsg0
 _ZThn20_N5boost16exception_detail10clone_implINS0_10bad_alloc_EED0Ev@Base 1.0.4+dfsg0
 _ZThn20_N5boost16exception_detail10clone_implINS0_10bad_alloc_EED1Ev@Base 1.0.4+dfsg0
 _ZThn20_N5boost16exception_detail10clone_implINS0_14bad_exception_EED0Ev@Base 1.0.4+dfsg0
 _ZThn20_N5boost16exception_detail10clone_implINS0_14bad_exception_EED1Ev@Base 1.0.4+dfsg0
 _ZThn20_N5boost16exception_detail10clone_implINS0_19error_info_injectorINS_6system12system_errorEEEED0Ev@Base 1.0.4+dfsg0
 _ZThn20_N5boost16exception_detail10clone_implINS0_19error_info_injectorINS_6system12system_errorEEEED1Ev@Base 1.0.4+dfsg0
 _ZThn20_N5boost16exception_detail14bad_exception_D0Ev@Base 1.0.4+dfsg0
 _ZThn20_N5boost16exception_detail14bad_exception_D1Ev@Base 1.0.4+dfsg0
 _ZThn20_N5boost16exception_detail19error_info_injectorINS_6system12system_errorEED0Ev@Base 1.0.4+dfsg0
 _ZThn20_N5boost16exception_detail19error_info_injectorINS_6system12system_errorEED1Ev@Base 1.0.4+dfsg0
 _ZThn24_N10PtexReader10hasMipMapsEv@Base 1.0.4+dfsg0
 _ZThn24_N10PtexReader11getFaceInfoEi@Base 1.0.4+dfsg0
 _ZThn24_N10PtexReader11getMetaDataEv@Base 1.0.4+dfsg0
 _ZThn24_N10PtexReader11numChannelsEv@Base 1.0.4+dfsg0
 _ZThn24_N10PtexReader11uBorderModeEv@Base 1.0.4+dfsg0
 _ZThn24_N10PtexReader11vBorderModeEv@Base 1.0.4+dfsg0
 _ZThn24_N10PtexReader12alphaChannelEv@Base 1.0.4+dfsg0
 _ZThn24_N10PtexReader4pathEv@Base 1.0.4+dfsg0
 _ZThn24_N10PtexReader7getDataEi@Base 1.0.4+dfsg0
 _ZThn24_N10PtexReader7getDataEiN4Ptex3ResE@Base 1.0.4+dfsg0
 _ZThn24_N10PtexReader7getDataEiPvi@Base 1.0.4+dfsg0
 _ZThn24_N10PtexReader7getDataEiPviN4Ptex3ResE@Base 1.0.4+dfsg0
 _ZThn24_N10PtexReader7releaseEv@Base 1.0.4+dfsg0
 _ZThn24_N10PtexReader8dataTypeEv@Base 1.0.4+dfsg0
 _ZThn24_N10PtexReader8getPixelEiiiPfii@Base 1.0.4+dfsg0
 _ZThn24_N10PtexReader8getPixelEiiiPfiiN4Ptex3ResE@Base 1.0.4+dfsg0
 _ZThn24_N10PtexReader8hasEditsEv@Base 1.0.4+dfsg0
 _ZThn24_N10PtexReader8meshTypeEv@Base 1.0.4+dfsg0
 _ZThn24_N10PtexReader8numFacesEv@Base 1.0.4+dfsg0
 _ZThn24_N10PtexReaderD0Ev@Base 1.0.4+dfsg0
 _ZThn24_N10PtexReaderD1Ev@Base 1.0.4+dfsg0
 _ZThn24_N5boost16exception_detail10clone_implINS0_10bad_alloc_EED0Ev@Base 1.0.4+dfsg0
 _ZThn24_N5boost16exception_detail10clone_implINS0_10bad_alloc_EED1Ev@Base 1.0.4+dfsg0
 _ZThn24_N5boost16exception_detail10clone_implINS0_14bad_exception_EED0Ev@Base 1.0.4+dfsg0
 _ZThn24_N5boost16exception_detail10clone_implINS0_14bad_exception_EED1Ev@Base 1.0.4+dfsg0
 _ZThn24_NK5boost16exception_detail10clone_implINS0_10bad_alloc_EE5cloneEv@Base 1.0.4+dfsg0
 _ZThn24_NK5boost16exception_detail10clone_implINS0_10bad_alloc_EE7rethrowEv@Base 1.0.4+dfsg0
 _ZThn24_NK5boost16exception_detail10clone_implINS0_14bad_exception_EE5cloneEv@Base 1.0.4+dfsg0
 _ZThn24_NK5boost16exception_detail10clone_implINS0_14bad_exception_EE7rethrowEv@Base 1.0.4+dfsg0
 _ZThn28_N10PtexReader10PackedFace10isConstantEv@Base 1.0.4+dfsg0
 _ZThn28_N10PtexReader10PackedFace7getDataEv@Base 1.0.4+dfsg0
 _ZThn28_N10PtexReader10PackedFace7getTileEi@Base 1.0.4+dfsg0
 _ZThn28_N10PtexReader10PackedFace7isTiledEv@Base 1.0.4+dfsg0
 _ZThn28_N10PtexReader10PackedFace7tileResEv@Base 1.0.4+dfsg0
 _ZThn28_N10PtexReader10PackedFace8getPixelEiiPv@Base 1.0.4+dfsg0
 _ZThn28_N10PtexReader10PackedFaceD0Ev@Base 1.0.4+dfsg0
 _ZThn28_N10PtexReader10PackedFaceD1Ev@Base 1.0.4+dfsg0
 _ZThn28_N10PtexReader12ConstantFace10isConstantEv@Base 1.0.4+dfsg0
 _ZThn28_N10PtexReader12ConstantFace8getPixelEiiPv@Base 1.0.4+dfsg0
 _ZThn28_N10PtexReader12ConstantFaceD0Ev@Base 1.0.4+dfsg0
 _ZThn28_N10PtexReader12ConstantFaceD1Ev@Base 1.0.4+dfsg0
 _ZThn28_N10PtexReader13TiledFaceBase10isConstantEv@Base 1.0.4+dfsg0
 _ZThn28_N10PtexReader13TiledFaceBase7getDataEv@Base 1.0.4+dfsg0
 _ZThn28_N10PtexReader13TiledFaceBase7isTiledEv@Base 1.0.4+dfsg0
 _ZThn28_N10PtexReader13TiledFaceBase7releaseEv@Base 1.0.4+dfsg0
 _ZThn28_N10PtexReader13TiledFaceBase7tileResEv@Base 1.0.4+dfsg0
 _ZThn28_N10PtexReader13TiledFaceBase8getPixelEiiPv@Base 1.0.4+dfsg0
 _ZThn28_N10PtexReader13TiledFaceBaseD0Ev@Base 1.0.4+dfsg0
 _ZThn28_N10PtexReader13TiledFaceBaseD1Ev@Base 1.0.4+dfsg0
 _ZThn28_N10PtexReader16TiledReducedFace7getTileEi@Base 1.0.4+dfsg0
 _ZThn28_N10PtexReader16TiledReducedFaceD0Ev@Base 1.0.4+dfsg0
 _ZThn28_N10PtexReader16TiledReducedFaceD1Ev@Base 1.0.4+dfsg0
 _ZThn28_N10PtexReader8FaceData3resEv@Base 1.0.4+dfsg0
 _ZThn28_N10PtexReader8FaceData7releaseEv@Base 1.0.4+dfsg0
 _ZThn28_N10PtexReader8FaceDataD0Ev@Base 1.0.4+dfsg0
 _ZThn28_N10PtexReader8FaceDataD1Ev@Base 1.0.4+dfsg0
 _ZThn28_N10PtexReader8MetaData6getKeyEiRPKcRN4Ptex12MetaDataTypeE@Base 1.0.4+dfsg0
 _ZThn28_N10PtexReader8MetaData7numKeysEv@Base 1.0.4+dfsg0
 _ZThn28_N10PtexReader8MetaData7releaseEv@Base 1.0.4+dfsg0
 _ZThn28_N10PtexReader8MetaData8getValueEPKcRPKaRi@Base 1.0.4+dfsg0
 _ZThn28_N10PtexReader8MetaData8getValueEPKcRPKdRi@Base 1.0.4+dfsg0
 _ZThn28_N10PtexReader8MetaData8getValueEPKcRPKfRi@Base 1.0.4+dfsg0
 _ZThn28_N10PtexReader8MetaData8getValueEPKcRPKiRi@Base 1.0.4+dfsg0
 _ZThn28_N10PtexReader8MetaData8getValueEPKcRPKsRi@Base 1.0.4+dfsg0
 _ZThn28_N10PtexReader8MetaData8getValueEPKcRS2_@Base 1.0.4+dfsg0
 _ZThn28_N10PtexReader8MetaDataD0Ev@Base 1.0.4+dfsg0
 _ZThn28_N10PtexReader8MetaDataD1Ev@Base 1.0.4+dfsg0
 _ZThn28_N10PtexReader9TiledFace7getTileEi@Base 1.0.4+dfsg0
 _ZThn28_N10PtexReader9TiledFaceD0Ev@Base 1.0.4+dfsg0
 _ZThn28_N10PtexReader9TiledFaceD1Ev@Base 1.0.4+dfsg0
 _ZThn28_N5boost16exception_detail10clone_implINS0_19error_info_injectorINS_10lock_errorEEEED0Ev@Base 1.0.4+dfsg0
 _ZThn28_N5boost16exception_detail10clone_implINS0_19error_info_injectorINS_10lock_errorEEEED1Ev@Base 1.0.4+dfsg0
 _ZThn28_N5boost16exception_detail10clone_implINS0_19error_info_injectorINS_17bad_function_callEEEED0Ev@Base 1.0.4+dfsg0
 _ZThn28_N5boost16exception_detail10clone_implINS0_19error_info_injectorINS_17bad_function_callEEEED1Ev@Base 1.0.4+dfsg0
 _ZThn28_N5boost16exception_detail10clone_implINS0_19error_info_injectorINS_21thread_resource_errorEEEED0Ev@Base 1.0.4+dfsg0
 _ZThn28_N5boost16exception_detail10clone_implINS0_19error_info_injectorINS_21thread_resource_errorEEEED1Ev@Base 1.0.4+dfsg0
 _ZThn28_N5boost16exception_detail10clone_implINS0_19error_info_injectorISt11logic_errorEEED0Ev@Base 1.0.4+dfsg0
 _ZThn28_N5boost16exception_detail10clone_implINS0_19error_info_injectorISt11logic_errorEEED1Ev@Base 1.0.4+dfsg0
 _ZThn28_NK5boost16exception_detail10clone_implINS0_19error_info_injectorINS_10lock_errorEEEE5cloneEv@Base 1.0.4+dfsg0
 _ZThn28_NK5boost16exception_detail10clone_implINS0_19error_info_injectorINS_10lock_errorEEEE7rethrowEv@Base 1.0.4+dfsg0
 _ZThn28_NK5boost16exception_detail10clone_implINS0_19error_info_injectorINS_17bad_function_callEEEE5cloneEv@Base 1.0.4+dfsg0
 _ZThn28_NK5boost16exception_detail10clone_implINS0_19error_info_injectorINS_17bad_function_callEEEE7rethrowEv@Base 1.0.4+dfsg0
 _ZThn28_NK5boost16exception_detail10clone_implINS0_19error_info_injectorINS_21thread_resource_errorEEEE5cloneEv@Base 1.0.4+dfsg0
 _ZThn28_NK5boost16exception_detail10clone_implINS0_19error_info_injectorINS_21thread_resource_errorEEEE7rethrowEv@Base 1.0.4+dfsg0
 _ZThn28_NK5boost16exception_detail10clone_implINS0_19error_info_injectorISt11logic_errorEEE5cloneEv@Base 1.0.4+dfsg0
 _ZThn28_NK5boost16exception_detail10clone_implINS0_19error_info_injectorISt11logic_errorEEE7rethrowEv@Base 1.0.4+dfsg0
 _ZThn40_N5boost16exception_detail10clone_implINS0_19error_info_injectorINS_6system12system_errorEEEED0Ev@Base 1.0.4+dfsg0
 _ZThn40_N5boost16exception_detail10clone_implINS0_19error_info_injectorINS_6system12system_errorEEEED1Ev@Base 1.0.4+dfsg0
 _ZThn40_NK5boost16exception_detail10clone_implINS0_19error_info_injectorINS_6system12system_errorEEEE5cloneEv@Base 1.0.4+dfsg0
 _ZThn40_NK5boost16exception_detail10clone_implINS0_19error_info_injectorINS_6system12system_errorEEEE7rethrowEv@Base 1.0.4+dfsg0
 _ZThn8_N5boost16exception_detail10clone_implINS0_19error_info_injectorINS_10lock_errorEEEED0Ev@Base 1.0.4+dfsg0
 _ZThn8_N5boost16exception_detail10clone_implINS0_19error_info_injectorINS_10lock_errorEEEED1Ev@Base 1.0.4+dfsg0
 _ZThn8_N5boost16exception_detail10clone_implINS0_19error_info_injectorINS_17bad_function_callEEEED0Ev@Base 1.0.4+dfsg0
 _ZThn8_N5boost16exception_detail10clone_implINS0_19error_info_injectorINS_17bad_function_callEEEED1Ev@Base 1.0.4+dfsg0
 _ZThn8_N5boost16exception_detail10clone_implINS0_19error_info_injectorINS_21thread_resource_errorEEEED0Ev@Base 1.0.4+dfsg0
 _ZThn8_N5boost16exception_detail10clone_implINS0_19error_info_injectorINS_21thread_resource_errorEEEED1Ev@Base 1.0.4+dfsg0
 _ZThn8_N5boost16exception_detail10clone_implINS0_19error_info_injectorISt11logic_errorEEED0Ev@Base 1.0.4+dfsg0
 _ZThn8_N5boost16exception_detail10clone_implINS0_19error_info_injectorISt11logic_errorEEED1Ev@Base 1.0.4+dfsg0
 _ZThn8_N5boost16exception_detail19error_info_injectorINS_10lock_errorEED0Ev@Base 1.0.4+dfsg0
 _ZThn8_N5boost16exception_detail19error_info_injectorINS_10lock_errorEED1Ev@Base 1.0.4+dfsg0
 _ZThn8_N5boost16exception_detail19error_info_injectorINS_17bad_function_callEED0Ev@Base 1.0.4+dfsg0
 _ZThn8_N5boost16exception_detail19error_info_injectorINS_17bad_function_callEED1Ev@Base 1.0.4+dfsg0
 _ZThn8_N5boost16exception_detail19error_info_injectorINS_21thread_resource_errorEED0Ev@Base 1.0.4+dfsg0
 _ZThn8_N5boost16exception_detail19error_info_injectorINS_21thread_resource_errorEED1Ev@Base 1.0.4+dfsg0
 _ZThn8_N5boost16exception_detail19error_info_injectorISt11logic_errorED0Ev@Base 1.0.4+dfsg0
 _ZThn8_N5boost16exception_detail19error_info_injectorISt11logic_errorED1Ev@Base 1.0.4+dfsg0
 _ZZN11OpenImageIO4v1_07iff_pvt10tile_widthEvE6tile_w@Base 1.0.4+dfsg0
 _ZZN11OpenImageIO4v1_07iff_pvt11tile_heightEvE6tile_h@Base 1.0.4+dfsg0
 _ZZN11OpenImageIO4v1_08RLAInput16get_month_numberEPKcE6months@Base 1.0.4+dfsg0
 _ZZN4Ptex11OneValueInvENS_8DataTypeEE3one@Base 1.0.4+dfsg0
 _ZZN4Ptex8DataSizeENS_8DataTypeEE5sizes@Base 1.0.4+dfsg0
 _ZZN4Ptex8OneValueENS_8DataTypeEE3one@Base 1.0.4+dfsg0
 _ZZN5boost16exception_detail27get_static_exception_objectINS0_10bad_alloc_EEENS_13exception_ptrEvE2ep@Base 1.0.4+dfsg0
 _ZZN5boost16exception_detail27get_static_exception_objectINS0_14bad_exception_EEENS_13exception_ptrEvE2ep@Base 1.0.4+dfsg0
 _ZZN5boost4asio5error17get_misc_categoryEvE8instance@Base 1.0.4+dfsg0
 _ZZN5boost4asio5error18get_netdb_categoryEvE8instance@Base 1.0.4+dfsg0
 _ZZN5boost4asio5error21get_addrinfo_categoryEvE8instance@Base 1.0.4+dfsg0
 _ZZN5boost9function2IbPN11OpenImageIO4v1_08PSDInputEjE9assign_toINS_3_bi6bind_tIbNS_4_mfi3mf1IbS3_jEENS7_5list2INS_3argILi1EEENSD_ILi2EEEEEEEEEvT_E13stored_vtable@Base 1.0.4+dfsg0
 _ZZN5boost9re_detail12perl_matcherIN9__gnu_cxx17__normal_iteratorIPKcSsEESaINS_9sub_matchIS6_EEENS_12regex_traitsIcNS_16cpp_regex_traitsIcEEEEE16match_all_statesEvE14s_match_vtable@Base 1.0.4+dfsg0
 _ZZN5boost9re_detail12perl_matcherIN9__gnu_cxx17__normal_iteratorIPKcSsEESaINS_9sub_matchIS6_EEENS_12regex_traitsIcNS_16cpp_regex_traitsIcEEEEE6unwindEbE14s_unwind_table@Base 1.0.4+dfsg0
 _ZZN5boost9re_detail12perl_matcherIN9__gnu_cxx17__normal_iteratorIPKcSsEESaINS_9sub_matchIS6_EEENS_12regex_traitsIcNS_16cpp_regex_traitsIcEEEEE8find_impEvE13s_find_vtable@Base 1.0.4+dfsg0
 _ZZNK10PtexReader12ReductionKey6HasherclERKS0_E1C@Base 1.0.4+dfsg0
 _ZZNK10PtexReader12ReductionKey6HasherclERKS0_E1M@Base 1.0.4+dfsg0
 _ZZNK11PtexHashMapIN10PtexReader12ReductionKeyEPNS0_8FaceDataENS1_6HasherEE8iteratorptEvE1v@Base 1.0.4+dfsg0
 boost_asio_detail_posix_thread_function@Base 1.0.4+dfsg0
