# SymbolsHelper-Confirmed: 4:4.8.1 amd64
libkactivities.so.6 libkactivities6 #MINVER#
* Build-Depends-Package: libkactivities-dev
 _ZN11KActivities10Controller11addActivityERK7QString@Base 4:4.8.1
 _ZN11KActivities10Controller11qt_metacallEN11QMetaObject4CallEiPPv@Base 4:4.8.1
 _ZN11KActivities10Controller11qt_metacastEPKc@Base 4:4.8.1
 _ZN11KActivities10Controller12stopActivityERK7QString@Base 4:4.8.1
 _ZN11KActivities10Controller13startActivityERK7QString@Base 4:4.8.1
 _ZN11KActivities10Controller14removeActivityERK7QString@Base 4:4.8.1
 _ZN11KActivities10Controller15setActivityIconERK7QStringS3_@Base 4:4.8.1
 _ZN11KActivities10Controller15setActivityNameERK7QStringS3_@Base 4:4.8.1
 _ZN11KActivities10Controller16staticMetaObjectE@Base 4:4.8.1
 _ZN11KActivities10Controller18setCurrentActivityERK7QString@Base 4:4.8.1
 _ZN11KActivities10ControllerC1EP7QObject@Base 4:4.8.1
 _ZN11KActivities10ControllerC2EP7QObject@Base 4:4.8.1
 _ZN11KActivities10ControllerD0Ev@Base 4:4.8.1
 _ZN11KActivities10ControllerD1Ev@Base 4:4.8.1
 _ZN11KActivities10ControllerD2Ev@Base 4:4.8.1
 _ZN11KActivities16ResourceInstance11qt_metacallEN11QMetaObject4CallEiPPv@Base 4:4.8.1
 _ZN11KActivities16ResourceInstance11qt_metacastEPKc@Base 4:4.8.1
 _ZN11KActivities16ResourceInstance11setMimetypeERK7QString@Base 4:4.8.1
 _ZN11KActivities16ResourceInstance13requestsFocusEv@Base 4:4.8.1
 _ZN11KActivities16ResourceInstance14notifyAccessedERK4QUrlRK7QString@Base 4:4.8.1
 _ZN11KActivities16ResourceInstance14notifyModifiedEv@Base 4:4.8.1
 _ZN11KActivities16ResourceInstance15notifyFocusedInEv@Base 4:4.8.1
 _ZN11KActivities16ResourceInstance16notifyFocusedOutEv@Base 4:4.8.1
 _ZN11KActivities16ResourceInstance16staticMetaObjectE@Base 4:4.8.1
 _ZN11KActivities16ResourceInstance6setUriERK4QUrl@Base 4:4.8.1
 _ZN11KActivities16ResourceInstance8setTitleERK7QString@Base 4:4.8.1
 _ZN11KActivities16ResourceInstanceC1Em4QUrlRK7QStringS4_NS0_12AccessReasonES4_P7QObject@Base 4:4.8.1
 _ZN11KActivities16ResourceInstanceC1EmNS0_12AccessReasonERK7QStringP7QObject@Base 4:4.8.1
 _ZN11KActivities16ResourceInstanceC2Em4QUrlRK7QStringS4_NS0_12AccessReasonES4_P7QObject@Base 4:4.8.1
 _ZN11KActivities16ResourceInstanceC2EmNS0_12AccessReasonERK7QStringP7QObject@Base 4:4.8.1
 _ZN11KActivities16ResourceInstanceD0Ev@Base 4:4.8.1
 _ZN11KActivities16ResourceInstanceD1Ev@Base 4:4.8.1
 _ZN11KActivities16ResourceInstanceD2Ev@Base 4:4.8.1
 _ZN11KActivities4Info11infoChangedEv@Base 4:4.8.1
 _ZN11KActivities4Info11qt_metacallEN11QMetaObject4CallEiPPv@Base 4:4.8.1
 _ZN11KActivities4Info11qt_metacastEPKc@Base 4:4.8.1
 _ZN11KActivities4Info12stateChangedENS0_5StateE@Base 4:4.8.1
 _ZN11KActivities4Info16staticMetaObjectE@Base 4:4.8.1
 _ZN11KActivities4Info4nameERK7QString@Base 4:4.8.1
 _ZN11KActivities4Info5addedEv@Base 4:4.8.1
 _ZN11KActivities4Info7removedEv@Base 4:4.8.1
 _ZN11KActivities4Info7startedEv@Base 4:4.8.1
 _ZN11KActivities4Info7stoppedEv@Base 4:4.8.1
 _ZN11KActivities4InfoC1ERK7QStringP7QObject@Base 4:4.8.1
 _ZN11KActivities4InfoC2ERK7QStringP7QObject@Base 4:4.8.1
 _ZN11KActivities4InfoD0Ev@Base 4:4.8.1
 _ZN11KActivities4InfoD1Ev@Base 4:4.8.1
 _ZN11KActivities4InfoD2Ev@Base 4:4.8.1
 _ZN11KActivities8Consumer11qt_metacallEN11QMetaObject4CallEiPPv@Base 4:4.8.1
 _ZN11KActivities8Consumer11qt_metacastEPKc@Base 4:4.8.1
 _ZN11KActivities8Consumer13activityAddedERK7QString@Base 4:4.8.1
 _ZN11KActivities8Consumer13serviceStatusEv@Base 4:4.8.1
 _ZN11KActivities8Consumer15activityRemovedERK7QString@Base 4:4.8.1
 _ZN11KActivities8Consumer16staticMetaObjectE@Base 4:4.8.1
 _ZN11KActivities8Consumer20serviceStatusChangedENS0_13ServiceStatusE@Base 4:4.8.1
 _ZN11KActivities8Consumer22currentActivityChangedERK7QString@Base 4:4.8.1
 _ZN11KActivities8Consumer22linkResourceToActivityERK4QUrlRK7QString@Base 4:4.8.1
 _ZN11KActivities8ConsumerC1EP7QObject@Base 4:4.8.1
 _ZN11KActivities8ConsumerC2EP7QObject@Base 4:4.8.1
 _ZN11KActivities8ConsumerD0Ev@Base 4:4.8.1
 _ZN11KActivities8ConsumerD1Ev@Base 4:4.8.1
 _ZN11KActivities8ConsumerD2Ev@Base 4:4.8.1
 _ZNK11KActivities10Controller10metaObjectEv@Base 4:4.8.1
 _ZNK11KActivities16ResourceInstance10metaObjectEv@Base 4:4.8.1
 _ZNK11KActivities16ResourceInstance12accessReasonEv@Base 4:4.8.1
 _ZNK11KActivities16ResourceInstance3uriEv@Base 4:4.8.1
 _ZNK11KActivities16ResourceInstance5titleEv@Base 4:4.8.1
 _ZNK11KActivities16ResourceInstance5winIdEv@Base 4:4.8.1
 _ZNK11KActivities16ResourceInstance8mimetypeEv@Base 4:4.8.1
 _ZNK11KActivities4Info10metaObjectEv@Base 4:4.8.1
 _ZNK11KActivities4Info11resourceUriEv@Base 4:4.8.1
 _ZNK11KActivities4Info12availabilityEv@Base 4:4.8.1
 _ZNK11KActivities4Info2idEv@Base 4:4.8.1
 _ZNK11KActivities4Info3uriEv@Base 4:4.8.1
 _ZNK11KActivities4Info4iconEv@Base 4:4.8.1
 _ZNK11KActivities4Info4nameEv@Base 4:4.8.1
 _ZNK11KActivities4Info5stateEv@Base 4:4.8.1
 _ZNK11KActivities4Info7isValidEv@Base 4:4.8.1
 _ZNK11KActivities8Consumer10metaObjectEv@Base 4:4.8.1
 _ZNK11KActivities8Consumer14listActivitiesENS_4Info5StateE@Base 4:4.8.1
 _ZNK11KActivities8Consumer14listActivitiesEv@Base 4:4.8.1
 _ZNK11KActivities8Consumer15currentActivityEv@Base 4:4.8.1
 _ZTIN11KActivities10ControllerE@Base 4:4.8.1
 _ZTIN11KActivities16ResourceInstanceE@Base 4:4.8.1
 _ZTIN11KActivities4InfoE@Base 4:4.8.1
 _ZTIN11KActivities8ConsumerE@Base 4:4.8.1
 _ZTSN11KActivities10ControllerE@Base 4:4.8.1
 _ZTSN11KActivities16ResourceInstanceE@Base 4:4.8.1
 _ZTSN11KActivities4InfoE@Base 4:4.8.1
 _ZTSN11KActivities8ConsumerE@Base 4:4.8.1
 _ZTVN11KActivities10ControllerE@Base 4:4.8.1
 _ZTVN11KActivities16ResourceInstanceE@Base 4:4.8.1
 _ZTVN11KActivities4InfoE@Base 4:4.8.1
 _ZTVN11KActivities8ConsumerE@Base 4:4.8.1
