# SymbolsHelper-Confirmed: 4:4.8.1 armel armhf hurd-i386 i386 ia64 kfreebsd-amd64 kfreebsd-i386 mips mipsel powerpc s390 s390x sparc
libQtTest.so.4 libqt4-test #MINVER#
* Build-Depends-Package: libqt4-dev
 _ZN10QTestTable15globalTestTableEv@Base 4:4.7.4
 _ZN10QTestTable16currentTestTableEv@Base 4:4.7.4
 _ZN10QTestTable20clearGlobalTestTableEv@Base 4:4.7.4
 _ZN10QTestTable7newDataEPKc@Base 4:4.7.4
 _ZN10QTestTable9addColumnEiPKc@Base 4:4.7.4
 _ZN10QTestTableC1Ev@Base 4:4.7.4
 _ZN10QTestTableC2Ev@Base 4:4.7.4
 _ZN10QTestTableD1Ev@Base 4:4.7.4
 _ZN10QTestTableD2Ev@Base 4:4.7.4
 _ZN11QTestResult10addFailureEPKcS1_i@Base 4:4.7.4
 _ZN11QTestResult10expectFailEPKcS1_N5QTest12TestFailModeES1_i@Base 4:4.7.4
 _ZN11QTestResult10testFailedEv@Base 4:4.7.4
 _ZN11QTestResult13allDataPassedEv@Base 4:4.7.4
 _ZN11QTestResult13ignoreMessageE9QtMsgTypePKc@Base 4:4.7.4
 _ZN11QTestResult14currentDataTagEv@Base 4:4.7.4
 _ZN11QTestResult15currentTestDataEv@Base 4:4.7.4
 _ZN11QTestResult15skipCurrentTestEv@Base 4:4.7.4
 _ZN11QTestResult17currentTestFailedEv@Base 4:4.7.4
 _ZN11QTestResult18setCurrentTestDataEP9QTestData@Base 4:4.7.4
 _ZN11QTestResult18setSkipCurrentTestEb@Base 4:4.7.4
 _ZN11QTestResult19currentTestFunctionEv@Base 4:4.7.4
 _ZN11QTestResult19currentTestLocationEv@Base 4:4.7.4
 _ZN11QTestResult20currentGlobalDataTagEv@Base 4:4.7.4
 _ZN11QTestResult20setCurrentTestObjectEPKc@Base 4:4.7.4
 _ZN11QTestResult21currentGlobalTestDataEv@Base 4:4.7.4
 _ZN11QTestResult21currentTestObjectNameEv@Base 4:4.7.4
 _ZN11QTestResult22setCurrentTestFunctionEPKc@Base 4:4.7.4
 _ZN11QTestResult22setCurrentTestLocationENS_12TestLocationE@Base 4:4.7.4
 _ZN11QTestResult24setCurrentGlobalTestDataEP9QTestData@Base 4:4.7.4
 _ZN11QTestResult27finishedCurrentTestFunctionEv@Base 4:4.7.4
 _ZN11QTestResult5resetEv@Base 4:4.7.4
 _ZN11QTestResult6verifyEbPKcS1_S1_i@Base 4:4.7.4
 _ZN11QTestResult7addSkipEPKcN5QTest8SkipModeES1_i@Base 4:4.7.4
 _ZN11QTestResult7compareEbPKcPcS2_S1_S1_S1_i@Base 4:4.7.4
 _ZN11QTestResult7compareEbPKcS1_i@Base 4:4.7.4
 _ZN11QTestResult9failCountEv@Base 4:4.7.4
 _ZN11QTestResult9passCountEv@Base 4:4.7.4
 _ZN11QTestResult9skipCountEv@Base 4:4.7.4
 _ZN14QTestEventLoop11qt_metacallEN11QMetaObject4CallEiPPv@Base 4:4.5.3
 _ZN14QTestEventLoop11qt_metacastEPKc@Base 4:4.5.3
 _ZN14QTestEventLoop16staticMetaObjectE@Base 4:4.5.3
 _ZN14QTestEventLoopD0Ev@Base 4:4.7.4
 _ZN14QTestEventLoopD1Ev@Base 4:4.7.4
 _ZN14QTestEventLoopD2Ev@Base 4:4.7.4
 _ZN20QBenchmarkGlobalData14createMeasurerEv@Base 4:4.7.4
 _ZN20QBenchmarkGlobalData26adjustMedianIterationCountEv@Base 4:4.7.4
 _ZN20QBenchmarkGlobalData7currentE@Base 4:4.7.4
 _ZN20QBenchmarkGlobalData7setModeENS_4ModeE@Base 4:4.7.4
 _ZN20QBenchmarkGlobalDataC1Ev@Base 4:4.7.4
 _ZN20QBenchmarkGlobalDataC2Ev@Base 4:4.7.4
 _ZN20QBenchmarkGlobalDataD1Ev@Base 4:4.7.4
 _ZN20QBenchmarkGlobalDataD2Ev@Base 4:4.7.4
 _ZN24QBenchmarkTestMethodData10endDataRunEv@Base 4:4.7.4
 _ZN24QBenchmarkTestMethodData12beginDataRunEv@Base 4:4.7.4
 _ZN24QBenchmarkTestMethodData20adjustIterationCountEi@Base 4:4.7.4
 _ZN24QBenchmarkTestMethodData7currentE@Base 4:4.7.4
 (subst)_ZN24QBenchmarkTestMethodData9setResultE{qreal}N5QTest16QBenchmarkMetricEb@Base 4:4.7.4
 _ZN24QBenchmarkTestMethodDataC1Ev@Base 4:4.7.4
 _ZN24QBenchmarkTestMethodDataC2Ev@Base 4:4.7.4
 _ZN24QBenchmarkTestMethodDataD1Ev@Base 4:4.7.4
 _ZN24QBenchmarkTestMethodDataD2Ev@Base 4:4.7.4
 _ZN5QTest10asciiToKeyEc@Base 4:4.5.3
 _ZN5QTest10keyToAsciiEN2Qt3KeyE@Base 4:4.5.3
 _ZN5QTest10testObjectEv@Base 4:4.5.3
 _ZN5QTest11qExpectFailEPKcS1_NS_12TestFailModeES1_i@Base 4:4.5.3
 _ZN5QTest11qGlobalDataEPKci@Base 4:4.5.3
 _ZN5QTest11qt_snprintfEPciPKcz@Base 4:4.5.3
 _ZN5QTest12qElementDataEPKci@Base 4:4.5.3
 _ZN5QTest13ignoreMessageE9QtMsgTypePKc@Base 4:4.5.3
 _ZN5QTest13testFunctionsE@Base 4:4.7.4
 _ZN5QTest14compare_helperEbPKcPcS2_S1_S1_S1_i@Base 4:4.5.3
 _ZN5QTest14compare_helperEbPKcS1_i@Base 4:4.5.3
 _ZN5QTest14currentDataTagEv@Base 4:4.5.3
 _ZN5QTest15defaultKeyDelayEv@Base 4:4.5.3
 _ZN5QTest16qtest_qParseArgsEiPPcb@Base 4:4.7.4
 _ZN5QTest17addColumnInternalEiPKc@Base 4:4.5.3
 _ZN5QTest17currentTestFailedEv@Base 4:4.5.3
 _ZN5QTest17defaultKeyVerboseEv@Base 4:4.5.3
 _ZN5QTest17defaultMouseDelayEv@Base 4:4.5.3
 _ZN5QTest18printAvailableTagsE@Base 4:4.8.0
 (subst)_ZN5QTest18setBenchmarkResultE{qreal}NS_16QBenchmarkMetricE@Base 4:4.7.0~beta1
 _ZN5QTest19currentTestFunctionEv@Base 4:4.5.3
 _ZN5QTest19toHexRepresentationEPKci@Base 4:4.5.3
 _ZN5QTest21compare_string_helperEPKcS1_S1_S1_S1_i@Base 4:4.5.3
 _ZN5QTest23endBenchmarkMeasurementEv@Base 4:4.5.3
 _ZN5QTest23printAvailableFunctionsE@Base 4:4.7.4
 _ZN5QTest25beginBenchmarkMeasurementEv@Base 4:4.5.3
 _ZN5QTest29QBenchmarkIterationController4nextEv@Base 4:4.5.3
 _ZN5QTest29QBenchmarkIterationController6isDoneEv@Base 4:4.5.3
 _ZN5QTest29QBenchmarkIterationControllerC1ENS0_7RunModeE@Base 4:4.6.1
 _ZN5QTest29QBenchmarkIterationControllerC1Ev@Base 4:4.5.3
 _ZN5QTest29QBenchmarkIterationControllerC2ENS0_7RunModeE@Base 4:4.6.1
 _ZN5QTest29QBenchmarkIterationControllerC2Ev@Base 4:4.5.3
 _ZN5QTest29QBenchmarkIterationControllerD1Ev@Base 4:4.5.3
 _ZN5QTest29QBenchmarkIterationControllerD2Ev@Base 4:4.5.3
 _ZN5QTest5qDataEPKci@Base 4:4.5.3
 _ZN5QTest5qExecEP7QObjectRK11QStringList@Base 4:4.5.3
 _ZN5QTest5qExecEP7QObjectiPPc@Base 4:4.5.3
 _ZN5QTest5qFailEPKcS1_i@Base 4:4.5.3
 _ZN5QTest5qSkipEPKcNS_8SkipModeES1_i@Base 4:4.5.3
 _ZN5QTest5qWarnEPKc@Base 4:4.5.3
 _ZN5QTest6newRowEPKc@Base 4:4.5.3
 _ZN5QTest6qSleepEi@Base 4:4.5.3
 _ZN5QTest7qVerifyEbPKcS1_S1_i@Base 4:4.5.3
 (optional=templinst)_ZN5QTest8qCompareIdEEbRKT_S3_PKcS5_S5_i@Base 4:4.5.3
 (optional=templinst)_ZN5QTest8qCompareIfEEbRKT_S3_PKcS5_S5_i@Base 4:4.5.3
 _ZN5QTest8testTagsE@Base 4:4.7.4
 _ZN5QTest8toStringEPKc@Base 4:4.5.3
 _ZN5QTest8toStringEPKv@Base 4:4.5.3
 (optional=templinst)_ZN5QTest8toStringIbEEPcRKT_@Base 4:4.5.3
 (optional=templinst)_ZN5QTest8toStringIcEEPcRKT_@Base 4:4.5.3
 (optional=templinst)_ZN5QTest8toStringIdEEPcRKT_@Base 4:4.5.3
 (optional=templinst)_ZN5QTest8toStringIfEEPcRKT_@Base 4:4.5.3
 (optional=templinst)_ZN5QTest8toStringIiEEPcRKT_@Base 4:4.5.3
 (optional=templinst)_ZN5QTest8toStringIjEEPcRKT_@Base 4:4.5.3
 (optional=templinst)_ZN5QTest8toStringIlEEPcRKT_@Base 4:4.5.3
 (optional=templinst)_ZN5QTest8toStringImEEPcRKT_@Base 4:4.5.3
 (optional=templinst)_ZN5QTest8toStringIsEEPcRKT_@Base 4:4.5.3
 (optional=templinst)_ZN5QTest8toStringItEEPcRKT_@Base 4:4.5.3
 (optional=templinst)_ZN5QTest8toStringIxEEPcRKT_@Base 4:4.5.3
 (optional=templinst)_ZN5QTest8toStringIyEEPcRKT_@Base 4:4.5.3
 _ZN8QTestLog10setLogModeENS_7LogModeE@Base 4:4.7.4
 _ZN8QTestLog11stopLoggingEv@Base 4:4.7.4
 _ZN8QTestLog12setFlushModeENS_9FlushModeE@Base 4:4.7.4
 _ZN8QTestLog12startLoggingEj@Base 4:4.8.0
 _ZN8QTestLog12startLoggingEv@Base 4:4.7.4
 _ZN8QTestLog12verboseLevelEv@Base 4:4.7.4
 _ZN8QTestLog14outputFileNameEv@Base 4:4.7.4
 _ZN8QTestLog14redirectOutputEPKc@Base 4:4.7.4
 _ZN8QTestLog14setMaxWarningsEi@Base 4:4.7.4
 _ZN8QTestLog15setVerboseLevelEi@Base 4:4.7.4
 _ZN8QTestLog16addIgnoreMessageE9QtMsgTypePKc@Base 4:4.7.4
 _ZN8QTestLog17enterTestFunctionEPKc@Base 4:4.7.4
 _ZN8QTestLog17leaveTestFunctionEv@Base 4:4.7.4
 _ZN8QTestLog18addBenchmarkResultERK16QBenchmarkResult@Base 4:4.7.4
 _ZN8QTestLog23unhandledIgnoreMessagesEv@Base 4:4.7.4
 _ZN8QTestLog28printUnhandledIgnoreMessagesEv@Base 4:4.7.4
 _ZN8QTestLog4infoEPKcS1_i@Base 4:4.7.4
 _ZN8QTestLog4warnEPKc@Base 4:4.7.4
 _ZN8QTestLog7addFailEPKcS1_i@Base 4:4.7.4
 _ZN8QTestLog7addPassEPKc@Base 4:4.7.4
 _ZN8QTestLog7addSkipEPKcN5QTest8SkipModeES1_i@Base 4:4.7.4
 _ZN8QTestLog7logModeEv@Base 4:4.7.4
 _ZN8QTestLog8addXFailEPKcS1_i@Base 4:4.7.4
 _ZN8QTestLog8addXPassEPKcS1_i@Base 4:4.7.4
 _ZN8QTestLogC1Ev@Base 4:4.7.4
 _ZN8QTestLogC2Ev@Base 4:4.7.4
 _ZN8QTestLogD1Ev@Base 4:4.7.4
 _ZN8QTestLogD2Ev@Base 4:4.7.4
 _ZN9QTestData6appendEiPKv@Base 4:4.5.3
 _ZN9QTestDataC1EPKcP10QTestTable@Base 4:4.5.3
 _ZN9QTestDataC2EPKcP10QTestTable@Base 4:4.5.3
 _ZN9QTestDataD1Ev@Base 4:4.5.3
 _ZN9QTestDataD2Ev@Base 4:4.5.3
 _ZNK10QTestTable12elementCountEv@Base 4:4.7.4
 _ZNK10QTestTable13elementTypeIdEi@Base 4:4.7.4
 _ZNK10QTestTable7dataTagEi@Base 4:4.7.4
 _ZNK10QTestTable7indexOfEPKc@Base 4:4.7.4
 _ZNK10QTestTable7isEmptyEv@Base 4:4.7.4
 _ZNK10QTestTable8testDataEi@Base 4:4.7.4
 _ZNK10QTestTable9dataCountEv@Base 4:4.7.4
 _ZNK14QTestEventLoop10metaObjectEv@Base 4:4.5.3
 _ZNK9QTestData4dataEi@Base 4:4.5.3
 _ZNK9QTestData6parentEv@Base 4:4.5.3
 _ZNK9QTestData7dataTagEv@Base 4:4.5.3
 _ZNK9QTestData9dataCountEv@Base 4:4.5.3
 _ZTI14QTestEventLoop@Base 4:4.5.3
 _ZTS14QTestEventLoop@Base 4:4.5.3
 _ZTV14QTestEventLoop@Base 4:4.5.3
