libQt5CLucene.so.5 libqtcore5 #MINVER#
* Build-Depends-Package: libqt5-dev
 _ZN12QCLuceneHits2idEi@Base 5.0.1
 _ZN12QCLuceneHits5scoreEi@Base 5.0.1
 _ZN12QCLuceneHits8documentEi@Base 5.0.1
 _ZN12QCLuceneHitsC1ERK16QCLuceneSearcherRK13QCLuceneQueryRK14QCLuceneFilter@Base 5.0.1
 _ZN12QCLuceneHitsC1ERK16QCLuceneSearcherRK13QCLuceneQueryRK14QCLuceneFilterRK12QCLuceneSort@Base 5.0.1
 _ZN12QCLuceneHitsC2ERK16QCLuceneSearcherRK13QCLuceneQueryRK14QCLuceneFilter@Base 5.0.1
 _ZN12QCLuceneHitsC2ERK16QCLuceneSearcherRK13QCLuceneQueryRK14QCLuceneFilterRK12QCLuceneSort@Base 5.0.1
 _ZN12QCLuceneHitsD0Ev@Base 5.0.1
 _ZN12QCLuceneHitsD1Ev@Base 5.0.1
 _ZN12QCLuceneHitsD2Ev@Base 5.0.1
 _ZN12QCLuceneSort7setSortERK11QStringList@Base 5.0.1
 _ZN12QCLuceneSort7setSortERK7QStringb@Base 5.0.1
 _ZN12QCLuceneSortC1ERK11QStringList@Base 5.0.1
 _ZN12QCLuceneSortC1ERK7QStringb@Base 5.0.1
 _ZN12QCLuceneSortC1Ev@Base 5.0.1
 _ZN12QCLuceneSortC2ERK11QStringList@Base 5.0.1
 _ZN12QCLuceneSortC2ERK7QStringb@Base 5.0.1
 _ZN12QCLuceneSortC2Ev@Base 5.0.1
 _ZN12QCLuceneSortD0Ev@Base 5.0.1
 _ZN12QCLuceneSortD1Ev@Base 5.0.1
 _ZN12QCLuceneSortD2Ev@Base 5.0.1
 _ZN12QCLuceneTerm3setERK7QStringS2_@Base 5.0.1
 _ZN12QCLuceneTerm3setERK7QStringS2_b@Base 5.0.1
 _ZN12QCLuceneTerm3setERKS_RK7QString@Base 5.0.1
 _ZN12QCLuceneTermC1ERK7QStringS2_@Base 5.0.1
 _ZN12QCLuceneTermC1ERKS_RK7QString@Base 5.0.1
 _ZN12QCLuceneTermC1Ev@Base 5.0.1
 _ZN12QCLuceneTermC2ERK7QStringS2_@Base 5.0.1
 _ZN12QCLuceneTermC2ERKS_RK7QString@Base 5.0.1
 _ZN12QCLuceneTermC2Ev@Base 5.0.1
 _ZN12QCLuceneTermD0Ev@Base 5.0.1
 _ZN12QCLuceneTermD1Ev@Base 5.0.1
 _ZN12QCLuceneTermD2Ev@Base 5.0.1
 _ZN13QCLuceneField12setOmitNormsEb@Base 5.0.1
 _ZN13QCLuceneField8setBoostEd@Base 5.0.1
 _ZN13QCLuceneField9setConfigEi@Base 5.0.1
 _ZN13QCLuceneFieldC1ERK7QStringP14QCLuceneReaderi@Base 5.0.1
 _ZN13QCLuceneFieldC1ERK7QStringS2_i@Base 5.0.1
 _ZN13QCLuceneFieldC1Ev@Base 5.0.1
 _ZN13QCLuceneFieldC2ERK7QStringP14QCLuceneReaderi@Base 5.0.1
 _ZN13QCLuceneFieldC2ERK7QStringS2_i@Base 5.0.1
 _ZN13QCLuceneFieldC2Ev@Base 5.0.1
 _ZN13QCLuceneFieldD1Ev@Base 5.0.1
 _ZN13QCLuceneFieldD2Ev@Base 5.0.1
 _ZN13QCLuceneQuery8setBoostEd@Base 5.0.1
 _ZN13QCLuceneQueryC1Ev@Base 5.0.1
 _ZN13QCLuceneQueryC2Ev@Base 5.0.1
 _ZN13QCLuceneQueryD0Ev@Base 5.0.1
 _ZN13QCLuceneQueryD1Ev@Base 5.0.1
 _ZN13QCLuceneQueryD2Ev@Base 5.0.1
 _ZN13QCLuceneToken10growBufferEj@Base 5.0.1
 _ZN13QCLuceneToken11setTermTextERK7QString@Base 5.0.1
 _ZN13QCLuceneToken12setEndOffsetEi@Base 5.0.1
 _ZN13QCLuceneToken14setStartOffsetEi@Base 5.0.1
 _ZN13QCLuceneToken20setPositionIncrementEi@Base 5.0.1
 _ZN13QCLuceneToken7setTypeERK7QString@Base 5.0.1
 _ZN13QCLuceneTokenC1ERK7QStringiiS2_@Base 5.0.1
 _ZN13QCLuceneTokenC1Ev@Base 5.0.1
 _ZN13QCLuceneTokenC2ERK7QStringiiS2_@Base 5.0.1
 _ZN13QCLuceneTokenC2Ev@Base 5.0.1
 _ZN13QCLuceneTokenD0Ev@Base 5.0.1
 _ZN13QCLuceneTokenD1Ev@Base 5.0.1
 _ZN13QCLuceneTokenD2Ev@Base 5.0.1
 _ZN14QCLuceneFilterC1Ev@Base 5.0.1
 _ZN14QCLuceneFilterC2Ev@Base 5.0.1
 _ZN14QCLuceneFilterD0Ev@Base 5.0.1
 _ZN14QCLuceneFilterD1Ev@Base 5.0.1
 _ZN14QCLuceneFilterD2Ev@Base 5.0.1
 _ZN14QCLuceneReaderC1Ev@Base 5.0.1
 _ZN14QCLuceneReaderC2Ev@Base 5.0.1
 _ZN14QCLuceneReaderD0Ev@Base 5.0.1
 _ZN14QCLuceneReaderD1Ev@Base 5.0.1
 _ZN14QCLuceneReaderD2Ev@Base 5.0.1
 _ZN16QCLuceneAnalyzerC1Ev@Base 5.0.1
 _ZN16QCLuceneAnalyzerC2Ev@Base 5.0.1
 _ZN16QCLuceneAnalyzerD0Ev@Base 5.0.1
 _ZN16QCLuceneAnalyzerD1Ev@Base 5.0.1
 _ZN16QCLuceneAnalyzerD2Ev@Base 5.0.1
 _ZN16QCLuceneDocument11removeFieldERK7QString@Base 5.0.1
 _ZN16QCLuceneDocument12removeFieldsERK7QString@Base 5.0.1
 _ZN16QCLuceneDocument3addEP13QCLuceneField@Base 5.0.1
 _ZN16QCLuceneDocument5clearEv@Base 5.0.1
 _ZN16QCLuceneDocument8setBoostEd@Base 5.0.1
 _ZN16QCLuceneDocumentC1Ev@Base 5.0.1
 _ZN16QCLuceneDocumentC2Ev@Base 5.0.1
 _ZN16QCLuceneDocumentD1Ev@Base 5.0.1
 _ZN16QCLuceneDocumentD2Ev@Base 5.0.1
 _ZN16QCLuceneSearcher6searchERK13QCLuceneQuery@Base 5.0.1
 _ZN16QCLuceneSearcher6searchERK13QCLuceneQueryRK12QCLuceneSort@Base 5.0.1
 _ZN16QCLuceneSearcher6searchERK13QCLuceneQueryRK14QCLuceneFilter@Base 5.0.1
 _ZN16QCLuceneSearcher6searchERK13QCLuceneQueryRK14QCLuceneFilterRK12QCLuceneSort@Base 5.0.1
 _ZN16QCLuceneSearcherC1Ev@Base 5.0.1
 _ZN16QCLuceneSearcherC2Ev@Base 5.0.1
 _ZN16QCLuceneSearcherD0Ev@Base 5.0.1
 _ZN16QCLuceneSearcherD1Ev@Base 5.0.1
 _ZN16QCLuceneSearcherD2Ev@Base 5.0.1
 _ZN17QCLuceneTermQuery12getClassNameEv@Base 5.0.1
 _ZN17QCLuceneTermQueryC1ERK12QCLuceneTerm@Base 5.0.1
 _ZN17QCLuceneTermQueryC2ERK12QCLuceneTerm@Base 5.0.1
 _ZN17QCLuceneTermQueryD0Ev@Base 5.0.1
 _ZN17QCLuceneTermQueryD1Ev@Base 5.0.1
 _ZN17QCLuceneTermQueryD2Ev@Base 5.0.1
 _ZN17QCLuceneTokenizer4nextER13QCLuceneToken@Base 5.0.1
 _ZN17QCLuceneTokenizer5closeEv@Base 5.0.1
 _ZN17QCLuceneTokenizerC1ERK14QCLuceneReader@Base 5.0.1
 _ZN17QCLuceneTokenizerC1Ev@Base 5.0.1
 _ZN17QCLuceneTokenizerC2ERK14QCLuceneReader@Base 5.0.1
 _ZN17QCLuceneTokenizerC2Ev@Base 5.0.1
 _ZN17QCLuceneTokenizerD0Ev@Base 5.0.1
 _ZN17QCLuceneTokenizerD1Ev@Base 5.0.1
 _ZN17QCLuceneTokenizerD2Ev@Base 5.0.1
 _ZN18QCLuceneFileReaderC1ERK7QStringS2_ii@Base 5.0.1
 _ZN18QCLuceneFileReaderC2ERK7QStringS2_ii@Base 5.0.1
 _ZN18QCLuceneFileReaderD0Ev@Base 5.0.1
 _ZN18QCLuceneFileReaderD1Ev@Base 5.0.1
 _ZN18QCLuceneFileReaderD2Ev@Base 5.0.1
 _ZN18QCLuceneRangeQuery12getClassNameEv@Base 5.0.1
 _ZN18QCLuceneRangeQueryC1ERK12QCLuceneTermS2_b@Base 5.0.1
 _ZN18QCLuceneRangeQueryC2ERK12QCLuceneTermS2_b@Base 5.0.1
 _ZN18QCLuceneRangeQueryD0Ev@Base 5.0.1
 _ZN18QCLuceneRangeQueryD1Ev@Base 5.0.1
 _ZN18QCLuceneRangeQueryD2Ev@Base 5.0.1
 _ZN18QCLuceneSearchableC1Ev@Base 5.0.1
 _ZN18QCLuceneSearchableC2Ev@Base 5.0.1
 _ZN18QCLuceneSearchableD0Ev@Base 5.0.1
 _ZN18QCLuceneSearchableD1Ev@Base 5.0.1
 _ZN18QCLuceneSearchableD2Ev@Base 5.0.1
 _ZN19QCLuceneHitsPrivateC1ERKS_@Base 5.0.1
 _ZN19QCLuceneHitsPrivateC1Ev@Base 5.0.1
 _ZN19QCLuceneHitsPrivateC2ERKS_@Base 5.0.1
 _ZN19QCLuceneHitsPrivateC2Ev@Base 5.0.1
 _ZN19QCLuceneHitsPrivateD1Ev@Base 5.0.1
 _ZN19QCLuceneHitsPrivateD2Ev@Base 5.0.1
 _ZN19QCLuceneIndexReader10getVersionEv@Base 5.0.1
 _ZN19QCLuceneIndexReader11indexExistsERK7QString@Base 5.0.1
 _ZN19QCLuceneIndexReader11undeleteAllEv@Base 5.0.1
 _ZN19QCLuceneIndexReader12isLuceneFileERK7QString@Base 5.0.1
 _ZN19QCLuceneIndexReader12lastModifiedERK7QString@Base 5.0.1
 _ZN19QCLuceneIndexReader14deleteDocumentEi@Base 5.0.1
 _ZN19QCLuceneIndexReader15deleteDocumentsERK12QCLuceneTerm@Base 5.0.1
 _ZN19QCLuceneIndexReader17getCurrentVersionERK7QString@Base 5.0.1
 _ZN19QCLuceneIndexReader4openERK7QString@Base 5.0.1
 _ZN19QCLuceneIndexReader5closeEv@Base 5.0.1
 _ZN19QCLuceneIndexReader6unlockERK7QString@Base 5.0.1
 _ZN19QCLuceneIndexReader7setNormEiRK7QStringd@Base 5.0.1
 _ZN19QCLuceneIndexReader7setNormEiRK7QStringh@Base 5.0.1
 _ZN19QCLuceneIndexReader8documentEiR16QCLuceneDocument@Base 5.0.1
 _ZN19QCLuceneIndexReader8hasNormsERK7QString@Base 5.0.1
 _ZN19QCLuceneIndexReader8isLockedERK7QString@Base 5.0.1
 _ZN19QCLuceneIndexReader9isCurrentEv@Base 5.0.1
 _ZN19QCLuceneIndexReaderC1Ev@Base 5.0.1
 _ZN19QCLuceneIndexReaderC2Ev@Base 5.0.1
 _ZN19QCLuceneIndexReaderD0Ev@Base 5.0.1
 _ZN19QCLuceneIndexReaderD1Ev@Base 5.0.1
 _ZN19QCLuceneIndexReaderD2Ev@Base 5.0.1
 _ZN19QCLuceneIndexWriter10addIndexesERK5QListIP19QCLuceneIndexReaderE@Base 5.0.1
 _ZN19QCLuceneIndexWriter11addDocumentER16QCLuceneDocumentR16QCLuceneAnalyzer@Base 5.0.1
 _ZN19QCLuceneIndexWriter11getAnalyzerEv@Base 5.0.1
 _ZN19QCLuceneIndexWriter14setMergeFactorEi@Base 5.0.1
 _ZN19QCLuceneIndexWriter15setMaxMergeDocsEi@Base 5.0.1
 _ZN19QCLuceneIndexWriter15setMinMergeDocsEi@Base 5.0.1
 _ZN19QCLuceneIndexWriter17setMaxFieldLengthEi@Base 5.0.1
 _ZN19QCLuceneIndexWriter18setMaxBufferedDocsEi@Base 5.0.1
 _ZN19QCLuceneIndexWriter18setUseCompoundFileEb@Base 5.0.1
 _ZN19QCLuceneIndexWriter19setWriteLockTimeoutEx@Base 5.0.1
 _ZN19QCLuceneIndexWriter20setCommitLockTimeoutEx@Base 5.0.1
 _ZN19QCLuceneIndexWriter20setTermIndexIntervalEi@Base 5.0.1
 _ZN19QCLuceneIndexWriter5closeEv@Base 5.0.1
 _ZN19QCLuceneIndexWriter8docCountEv@Base 5.0.1
 _ZN19QCLuceneIndexWriter8optimizeEv@Base 5.0.1
 _ZN19QCLuceneIndexWriterC1ERK7QStringR16QCLuceneAnalyzerbb@Base 5.0.1
 _ZN19QCLuceneIndexWriterC2ERK7QStringR16QCLuceneAnalyzerbb@Base 5.0.1
 _ZN19QCLuceneIndexWriterD0Ev@Base 5.0.1
 _ZN19QCLuceneIndexWriterD1Ev@Base 5.0.1
 _ZN19QCLuceneIndexWriterD2Ev@Base 5.0.1
 _ZN19QCLucenePhraseQuery12getClassNameEv@Base 5.0.1
 _ZN19QCLucenePhraseQuery7addTermERK12QCLuceneTerm@Base 5.0.1
 _ZN19QCLucenePhraseQuery7addTermERK12QCLuceneTermi@Base 5.0.1
 _ZN19QCLucenePhraseQuery7setSlopEi@Base 5.0.1
 _ZN19QCLucenePhraseQueryC1Ev@Base 5.0.1
 _ZN19QCLucenePhraseQueryC2Ev@Base 5.0.1
 _ZN19QCLucenePhraseQueryD0Ev@Base 5.0.1
 _ZN19QCLucenePhraseQueryD1Ev@Base 5.0.1
 _ZN19QCLucenePhraseQueryD2Ev@Base 5.0.1
 _ZN19QCLucenePrefixQuery12getClassNameEv@Base 5.0.1
 _ZN19QCLucenePrefixQueryC1ERK12QCLuceneTerm@Base 5.0.1
 _ZN19QCLucenePrefixQueryC2ERK12QCLuceneTerm@Base 5.0.1
 _ZN19QCLucenePrefixQueryD0Ev@Base 5.0.1
 _ZN19QCLucenePrefixQueryD1Ev@Base 5.0.1
 _ZN19QCLucenePrefixQueryD2Ev@Base 5.0.1
 _ZN19QCLuceneQueryParser11getAnalyzerEv@Base 5.0.1
 _ZN19QCLuceneQueryParser5parseER14QCLuceneReader@Base 5.0.1
 _ZN19QCLuceneQueryParser5parseERK7QString@Base 5.0.1
 _ZN19QCLuceneQueryParser5parseERK7QStringS2_R16QCLuceneAnalyzer@Base 5.0.1
 _ZN19QCLuceneQueryParser8getFieldEv@Base 5.0.1
 _ZN19QCLuceneQueryParserC1ERK7QStringR16QCLuceneAnalyzer@Base 5.0.1
 _ZN19QCLuceneQueryParserC2ERK7QStringR16QCLuceneAnalyzer@Base 5.0.1
 _ZN19QCLuceneQueryParserD0Ev@Base 5.0.1
 _ZN19QCLuceneQueryParserD1Ev@Base 5.0.1
 _ZN19QCLuceneQueryParserD2Ev@Base 5.0.1
 _ZN19QCLuceneSortPrivateC1ERKS_@Base 5.0.1
 _ZN19QCLuceneSortPrivateC1Ev@Base 5.0.1
 _ZN19QCLuceneSortPrivateC2ERKS_@Base 5.0.1
 _ZN19QCLuceneSortPrivateC2Ev@Base 5.0.1
 _ZN19QCLuceneSortPrivateD1Ev@Base 5.0.1
 _ZN19QCLuceneSortPrivateD2Ev@Base 5.0.1
 _ZN19QCLuceneTermPrivateC1ERKS_@Base 5.0.1
 _ZN19QCLuceneTermPrivateC1Ev@Base 5.0.1
 _ZN19QCLuceneTermPrivateC2ERKS_@Base 5.0.1
 _ZN19QCLuceneTermPrivateC2Ev@Base 5.0.1
 _ZN19QCLuceneTermPrivateD1Ev@Base 5.0.1
 _ZN19QCLuceneTermPrivateD2Ev@Base 5.0.1
 _ZN19QCLuceneTokenStream4nextER13QCLuceneToken@Base 5.0.1
 _ZN19QCLuceneTokenStream5closeEv@Base 5.0.1
 _ZN19QCLuceneTokenStreamC1Ev@Base 5.0.1
 _ZN19QCLuceneTokenStreamC2Ev@Base 5.0.1
 _ZN19QCLuceneTokenStreamD0Ev@Base 5.0.1
 _ZN19QCLuceneTokenStreamD1Ev@Base 5.0.1
 _ZN19QCLuceneTokenStreamD2Ev@Base 5.0.1
 _ZN20QCLuceneBooleanQuery12getClassNameEv@Base 5.0.1
 _ZN20QCLuceneBooleanQuery17setMaxClauseCountEj@Base 5.0.1
 _ZN20QCLuceneBooleanQuery3addEP13QCLuceneQuerybb@Base 5.0.1
 _ZN20QCLuceneBooleanQuery3addEP13QCLuceneQuerybbb@Base 5.0.1
 _ZN20QCLuceneBooleanQueryC1Ev@Base 5.0.1
 _ZN20QCLuceneBooleanQueryC2Ev@Base 5.0.1
 _ZN20QCLuceneBooleanQueryD0Ev@Base 5.0.1
 _ZN20QCLuceneBooleanQueryD1Ev@Base 5.0.1
 _ZN20QCLuceneBooleanQueryD2Ev@Base 5.0.1
 _ZN20QCLuceneFieldPrivateC1ERKS_@Base 5.0.1
 _ZN20QCLuceneFieldPrivateC1Ev@Base 5.0.1
 _ZN20QCLuceneFieldPrivateC2ERKS_@Base 5.0.1
 _ZN20QCLuceneFieldPrivateC2Ev@Base 5.0.1
 _ZN20QCLuceneFieldPrivateD1Ev@Base 5.0.1
 _ZN20QCLuceneFieldPrivateD2Ev@Base 5.0.1
 _ZN20QCLuceneQueryPrivateC1ERKS_@Base 5.0.1
 _ZN20QCLuceneQueryPrivateC1Ev@Base 5.0.1
 _ZN20QCLuceneQueryPrivateC2ERKS_@Base 5.0.1
 _ZN20QCLuceneQueryPrivateC2Ev@Base 5.0.1
 _ZN20QCLuceneQueryPrivateD1Ev@Base 5.0.1
 _ZN20QCLuceneQueryPrivateD2Ev@Base 5.0.1
 _ZN20QCLuceneStopAnalyzerC1ERK11QStringList@Base 5.0.1
 _ZN20QCLuceneStopAnalyzerC1Ev@Base 5.0.1
 _ZN20QCLuceneStopAnalyzerC2ERK11QStringList@Base 5.0.1
 _ZN20QCLuceneStopAnalyzerC2Ev@Base 5.0.1
 _ZN20QCLuceneStopAnalyzerD0Ev@Base 5.0.1
 _ZN20QCLuceneStopAnalyzerD1Ev@Base 5.0.1
 _ZN20QCLuceneStopAnalyzerD2Ev@Base 5.0.1
 _ZN20QCLuceneTokenPrivateC1ERKS_@Base 5.0.1
 _ZN20QCLuceneTokenPrivateC1Ev@Base 5.0.1
 _ZN20QCLuceneTokenPrivateC2ERKS_@Base 5.0.1
 _ZN20QCLuceneTokenPrivateC2Ev@Base 5.0.1
 _ZN20QCLuceneTokenPrivateD1Ev@Base 5.0.1
 _ZN20QCLuceneTokenPrivateD2Ev@Base 5.0.1
 _ZN21QCLuceneFilterPrivateC1ERKS_@Base 5.0.1
 _ZN21QCLuceneFilterPrivateC1Ev@Base 5.0.1
 _ZN21QCLuceneFilterPrivateC2ERKS_@Base 5.0.1
 _ZN21QCLuceneFilterPrivateC2Ev@Base 5.0.1
 _ZN21QCLuceneFilterPrivateD1Ev@Base 5.0.1
 _ZN21QCLuceneFilterPrivateD2Ev@Base 5.0.1
 _ZN21QCLuceneIndexSearcher3docEiR16QCLuceneDocument@Base 5.0.1
 _ZN21QCLuceneIndexSearcher5closeEv@Base 5.0.1
 _ZN21QCLuceneIndexSearcher9getReaderEv@Base 5.0.1
 _ZN21QCLuceneIndexSearcherC1ERK19QCLuceneIndexReader@Base 5.0.1
 _ZN21QCLuceneIndexSearcherC1ERK7QString@Base 5.0.1
 _ZN21QCLuceneIndexSearcherC2ERK19QCLuceneIndexReader@Base 5.0.1
 _ZN21QCLuceneIndexSearcherC2ERK7QString@Base 5.0.1
 _ZN21QCLuceneIndexSearcherD0Ev@Base 5.0.1
 _ZN21QCLuceneIndexSearcherD1Ev@Base 5.0.1
 _ZN21QCLuceneIndexSearcherD2Ev@Base 5.0.1
 _ZN21QCLuceneMultiSearcher3docEiR16QCLuceneDocument@Base 5.0.1
 _ZN21QCLuceneMultiSearcher5closeEv@Base 5.0.1
 _ZN21QCLuceneMultiSearcherC1E5QListI18QCLuceneSearchableE@Base 5.0.1
 _ZN21QCLuceneMultiSearcherC2E5QListI18QCLuceneSearchableE@Base 5.0.1
 _ZN21QCLuceneMultiSearcherD0Ev@Base 5.0.1
 _ZN21QCLuceneMultiSearcherD1Ev@Base 5.0.1
 _ZN21QCLuceneMultiSearcherD2Ev@Base 5.0.1
 _ZN21QCLuceneReaderPrivateC1ERKS_@Base 5.0.1
 _ZN21QCLuceneReaderPrivateC1Ev@Base 5.0.1
 _ZN21QCLuceneReaderPrivateC2ERKS_@Base 5.0.1
 _ZN21QCLuceneReaderPrivateC2Ev@Base 5.0.1
 _ZN21QCLuceneReaderPrivateD1Ev@Base 5.0.1
 _ZN21QCLuceneReaderPrivateD2Ev@Base 5.0.1
 _ZN22QCLuceneSimpleAnalyzerC1Ev@Base 5.0.1
 _ZN22QCLuceneSimpleAnalyzerC2Ev@Base 5.0.1
 _ZN22QCLuceneSimpleAnalyzerD0Ev@Base 5.0.1
 _ZN22QCLuceneSimpleAnalyzerD1Ev@Base 5.0.1
 _ZN22QCLuceneSimpleAnalyzerD2Ev@Base 5.0.1
 _ZN23QCLuceneAnalyzerPrivateC1ERKS_@Base 5.0.1
 _ZN23QCLuceneAnalyzerPrivateC1Ev@Base 5.0.1
 _ZN23QCLuceneAnalyzerPrivateC2ERKS_@Base 5.0.1
 _ZN23QCLuceneAnalyzerPrivateC2Ev@Base 5.0.1
 _ZN23QCLuceneAnalyzerPrivateD1Ev@Base 5.0.1
 _ZN23QCLuceneAnalyzerPrivateD2Ev@Base 5.0.1
 _ZN23QCLuceneDocumentPrivateC1ERKS_@Base 5.0.1
 _ZN23QCLuceneDocumentPrivateC1Ev@Base 5.0.1
 _ZN23QCLuceneDocumentPrivateC2ERKS_@Base 5.0.1
 _ZN23QCLuceneDocumentPrivateC2Ev@Base 5.0.1
 _ZN23QCLuceneDocumentPrivateD1Ev@Base 5.0.1
 _ZN23QCLuceneDocumentPrivateD2Ev@Base 5.0.1
 _ZN23QCLuceneKeywordAnalyzerC1Ev@Base 5.0.1
 _ZN23QCLuceneKeywordAnalyzerC2Ev@Base 5.0.1
 _ZN23QCLuceneKeywordAnalyzerD0Ev@Base 5.0.1
 _ZN23QCLuceneKeywordAnalyzerD1Ev@Base 5.0.1
 _ZN23QCLuceneKeywordAnalyzerD2Ev@Base 5.0.1
 _ZN24QCLuceneStandardAnalyzerC1ERK11QStringList@Base 5.0.1
 _ZN24QCLuceneStandardAnalyzerC1Ev@Base 5.0.1
 _ZN24QCLuceneStandardAnalyzerC2ERK11QStringList@Base 5.0.1
 _ZN24QCLuceneStandardAnalyzerC2Ev@Base 5.0.1
 _ZN24QCLuceneStandardAnalyzerD0Ev@Base 5.0.1
 _ZN24QCLuceneStandardAnalyzerD1Ev@Base 5.0.1
 _ZN24QCLuceneStandardAnalyzerD2Ev@Base 5.0.1
 _ZN25QCLuceneSearchablePrivateC1ERKS_@Base 5.0.1
 _ZN25QCLuceneSearchablePrivateC1Ev@Base 5.0.1
 _ZN25QCLuceneSearchablePrivateC2ERKS_@Base 5.0.1
 _ZN25QCLuceneSearchablePrivateC2Ev@Base 5.0.1
 _ZN25QCLuceneSearchablePrivateD1Ev@Base 5.0.1
 _ZN25QCLuceneSearchablePrivateD2Ev@Base 5.0.1
 _ZN25QCLuceneStandardTokenizer11readCompanyERK7QStringR13QCLuceneToken@Base 5.0.1
 _ZN25QCLuceneStandardTokenizer14readApostropheERK7QStringR13QCLuceneToken@Base 5.0.1
 _ZN25QCLuceneStandardTokenizer6readAtERK7QStringR13QCLuceneToken@Base 5.0.1
 _ZN25QCLuceneStandardTokenizerC1ERK14QCLuceneReader@Base 5.0.1
 _ZN25QCLuceneStandardTokenizerC2ERK14QCLuceneReader@Base 5.0.1
 _ZN25QCLuceneStandardTokenizerD0Ev@Base 5.0.1
 _ZN25QCLuceneStandardTokenizerD1Ev@Base 5.0.1
 _ZN25QCLuceneStandardTokenizerD2Ev@Base 5.0.1
 _ZN26QCLuceneIndexReaderPrivateC1ERKS_@Base 5.0.1
 _ZN26QCLuceneIndexReaderPrivateC1Ev@Base 5.0.1
 _ZN26QCLuceneIndexReaderPrivateC2ERKS_@Base 5.0.1
 _ZN26QCLuceneIndexReaderPrivateC2Ev@Base 5.0.1
 _ZN26QCLuceneIndexReaderPrivateD1Ev@Base 5.0.1
 _ZN26QCLuceneIndexReaderPrivateD2Ev@Base 5.0.1
 _ZN26QCLuceneIndexWriterPrivateC1ERKS_@Base 5.0.1
 _ZN26QCLuceneIndexWriterPrivateC1Ev@Base 5.0.1
 _ZN26QCLuceneIndexWriterPrivateC2ERKS_@Base 5.0.1
 _ZN26QCLuceneIndexWriterPrivateC2Ev@Base 5.0.1
 _ZN26QCLuceneIndexWriterPrivateD1Ev@Base 5.0.1
 _ZN26QCLuceneIndexWriterPrivateD2Ev@Base 5.0.1
 _ZN26QCLuceneQueryParserPrivateC1ERKS_@Base 5.0.1
 _ZN26QCLuceneQueryParserPrivateC1Ev@Base 5.0.1
 _ZN26QCLuceneQueryParserPrivateC2ERKS_@Base 5.0.1
 _ZN26QCLuceneQueryParserPrivateC2Ev@Base 5.0.1
 _ZN26QCLuceneQueryParserPrivateD1Ev@Base 5.0.1
 _ZN26QCLuceneQueryParserPrivateD2Ev@Base 5.0.1
 _ZN26QCLuceneTokenStreamPrivateC1ERKS_@Base 5.0.1
 _ZN26QCLuceneTokenStreamPrivateC1Ev@Base 5.0.1
 _ZN26QCLuceneTokenStreamPrivateC2ERKS_@Base 5.0.1
 _ZN26QCLuceneTokenStreamPrivateC2Ev@Base 5.0.1
 _ZN26QCLuceneTokenStreamPrivateD1Ev@Base 5.0.1
 _ZN26QCLuceneTokenStreamPrivateD2Ev@Base 5.0.1
 _ZN26QCLuceneWhitespaceAnalyzerC1Ev@Base 5.0.1
 _ZN26QCLuceneWhitespaceAnalyzerC2Ev@Base 5.0.1
 _ZN26QCLuceneWhitespaceAnalyzerD0Ev@Base 5.0.1
 _ZN26QCLuceneWhitespaceAnalyzerD1Ev@Base 5.0.1
 _ZN26QCLuceneWhitespaceAnalyzerD2Ev@Base 5.0.1
 _ZN29QCLuceneMultiFieldQueryParser5parseERK7QStringRK11QStringList5QListINS_10FieldFlagsEER16QCLuceneAnalyzer@Base 5.0.1
 _ZN29QCLuceneMultiFieldQueryParser5parseERK7QStringRK11QStringListR16QCLuceneAnalyzer@Base 5.0.1
 _ZN29QCLuceneMultiFieldQueryParserC1ERK11QStringListR16QCLuceneAnalyzer@Base 5.0.1
 _ZN29QCLuceneMultiFieldQueryParserC2ERK11QStringListR16QCLuceneAnalyzer@Base 5.0.1
 _ZN29QCLuceneMultiFieldQueryParserD0Ev@Base 5.0.1
 _ZN29QCLuceneMultiFieldQueryParserD1Ev@Base 5.0.1
 _ZN29QCLuceneMultiFieldQueryParserD2Ev@Base 5.0.1
 _ZN31QCLucenePerFieldAnalyzerWrapper11addAnalyzerERK7QStringP16QCLuceneAnalyzer@Base 5.0.1
 _ZN31QCLucenePerFieldAnalyzerWrapperC1EP16QCLuceneAnalyzer@Base 5.0.1
 _ZN31QCLucenePerFieldAnalyzerWrapperC2EP16QCLuceneAnalyzer@Base 5.0.1
 _ZN31QCLucenePerFieldAnalyzerWrapperD0Ev@Base 5.0.1
 _ZN31QCLucenePerFieldAnalyzerWrapperD1Ev@Base 5.0.1
 _ZN31QCLucenePerFieldAnalyzerWrapperD2Ev@Base 5.0.1
 _ZNK12QCLuceneHits6lengthEv@Base 5.0.1
 _ZNK12QCLuceneSort8toStringEv@Base 5.0.1
 _ZNK12QCLuceneTerm10textLengthEv@Base 5.0.1
 _ZNK12QCLuceneTerm4textEv@Base 5.0.1
 _ZNK12QCLuceneTerm5fieldEv@Base 5.0.1
 _ZNK12QCLuceneTerm6equalsERKS_@Base 5.0.1
 _ZNK12QCLuceneTerm8hashCodeEv@Base 5.0.1
 _ZNK12QCLuceneTerm8toStringEv@Base 5.0.1
 _ZNK12QCLuceneTerm9compareToERKS_@Base 5.0.1
 _ZNK13QCLuceneField11isTokenizedEv@Base 5.0.1
 _ZNK13QCLuceneField11readerValueEv@Base 5.0.1
 _ZNK13QCLuceneField11stringValueEv@Base 5.0.1
 _ZNK13QCLuceneField12getOmitNormsEv@Base 5.0.1
 _ZNK13QCLuceneField12isCompressedEv@Base 5.0.1
 _ZNK13QCLuceneField18isTermVectorStoredEv@Base 5.0.1
 _ZNK13QCLuceneField27isStoreOffsetWithTermVectorEv@Base 5.0.1
 _ZNK13QCLuceneField29isStorePositionWithTermVectorEv@Base 5.0.1
 _ZNK13QCLuceneField4nameEv@Base 5.0.1
 _ZNK13QCLuceneField8getBoostEv@Base 5.0.1
 _ZNK13QCLuceneField8isBinaryEv@Base 5.0.1
 _ZNK13QCLuceneField8isStoredEv@Base 5.0.1
 _ZNK13QCLuceneField8toStringEv@Base 5.0.1
 _ZNK13QCLuceneField9isIndexedEv@Base 5.0.1
 _ZNK13QCLuceneQuery10instanceOfERK7QString@Base 5.0.1
 _ZNK13QCLuceneQuery12getQueryNameEv@Base 5.0.1
 _ZNK13QCLuceneQuery6equalsERKS_@Base 5.0.1
 _ZNK13QCLuceneQuery8getBoostEv@Base 5.0.1
 _ZNK13QCLuceneQuery8hashCodeEv@Base 5.0.1
 _ZNK13QCLuceneQuery8toStringERK7QString@Base 5.0.1
 _ZNK13QCLuceneQuery8toStringEv@Base 5.0.1
 _ZNK13QCLuceneToken11startOffsetEv@Base 5.0.1
 _ZNK13QCLuceneToken12bufferLengthEv@Base 5.0.1
 _ZNK13QCLuceneToken14termTextLengthEv@Base 5.0.1
 _ZNK13QCLuceneToken17positionIncrementEv@Base 5.0.1
 _ZNK13QCLuceneToken19resetTermTextLengthEv@Base 5.0.1
 _ZNK13QCLuceneToken4typeEv@Base 5.0.1
 _ZNK13QCLuceneToken8termTextEv@Base 5.0.1
 _ZNK13QCLuceneToken8toStringEv@Base 5.0.1
 _ZNK13QCLuceneToken9endOffsetEv@Base 5.0.1
 _ZNK16QCLuceneAnalyzer11tokenStreamERK7QStringRK14QCLuceneReader@Base 5.0.1
 _ZNK16QCLuceneAnalyzer20positionIncrementGapERK7QString@Base 5.0.1
 _ZNK16QCLuceneDocument3getERK7QString@Base 5.0.1
 _ZNK16QCLuceneDocument8getBoostEv@Base 5.0.1
 _ZNK16QCLuceneDocument8getFieldERK7QString@Base 5.0.1
 _ZNK16QCLuceneDocument8toStringEv@Base 5.0.1
 _ZNK16QCLuceneDocument9getValuesERK7QString@Base 5.0.1
 _ZNK17QCLuceneTermQuery7getTermEv@Base 5.0.1
 _ZNK18QCLuceneRangeQuery11isInclusiveEv@Base 5.0.1
 _ZNK18QCLuceneRangeQuery12getLowerTermEv@Base 5.0.1
 _ZNK18QCLuceneRangeQuery12getUpperTermEv@Base 5.0.1
 _ZNK18QCLuceneRangeQuery8getFieldEv@Base 5.0.1
 _ZNK19QCLuceneIndexWriter14getMergeFactorEv@Base 5.0.1
 _ZNK19QCLuceneIndexWriter15getMaxMergeDocsEv@Base 5.0.1
 _ZNK19QCLuceneIndexWriter15getMinMergeDocsEv@Base 5.0.1
 _ZNK19QCLuceneIndexWriter17getMaxFieldLengthEv@Base 5.0.1
 _ZNK19QCLuceneIndexWriter18getMaxBufferedDocsEv@Base 5.0.1
 _ZNK19QCLuceneIndexWriter18getUseCompoundFileEv@Base 5.0.1
 _ZNK19QCLuceneIndexWriter19getWriteLockTimeoutEv@Base 5.0.1
 _ZNK19QCLuceneIndexWriter20getCommitLockTimeoutEv@Base 5.0.1
 _ZNK19QCLuceneIndexWriter20getTermIndexIntervalEv@Base 5.0.1
 _ZNK19QCLucenePhraseQuery12getFieldNameEv@Base 5.0.1
 _ZNK19QCLucenePhraseQuery7getSlopEv@Base 5.0.1
 _ZNK19QCLucenePhraseQuery8getTermsEv@Base 5.0.1
 _ZNK19QCLucenePrefixQuery9getPrefixEv@Base 5.0.1
 _ZNK20QCLuceneBooleanQuery14getClauseCountEv@Base 5.0.1
 _ZNK20QCLuceneBooleanQuery17getMaxClauseCountEv@Base 5.0.1
 _ZNK20QCLuceneStopAnalyzer16englishStopWordsEv@Base 5.0.1
 _ZNK21QCLuceneIndexSearcher6maxDocEv@Base 5.0.1
 _ZNK21QCLuceneMultiSearcher11subSearcherEi@Base 5.0.1
 _ZNK21QCLuceneMultiSearcher13searcherIndexEi@Base 5.0.1
 _ZNK21QCLuceneMultiSearcher6maxDocEv@Base 5.0.1
 _ZNK21QCLuceneMultiSearcher6subDocEi@Base 5.0.1
 _ZNSt6vectorIPKwSaIS1_EE19_M_emplace_back_auxIIS1_EEEvDpOT_@Base 5.0.1
 _ZNSt6vectorIPKwSaIS1_EE19_M_emplace_back_auxIJS1_EEEvDpOT_@Base 5.0.1
 _ZNSt6vectorIPKwSaIS1_EED1Ev@Base 5.0.1
 _ZNSt6vectorIPKwSaIS1_EED2Ev@Base 5.0.1
 _ZNSt6vectorIPhSaIS0_EE13_M_insert_auxEN9__gnu_cxx17__normal_iteratorIPS0_S2_EERKS0_@Base 4:4.5.3
 _ZNSt6vectorIPhSaIS0_EE19_M_emplace_back_auxIIRKS0_EEEvDpOT_@Base 5.0.1
 _ZNSt6vectorIPhSaIS0_EE19_M_emplace_back_auxIJRKS0_EEEvDpOT_@Base 5.0.1
 _ZNSt6vectorIPhSaIS0_EED1Ev@Base 5.0.1
 _ZNSt6vectorIPhSaIS0_EED2Ev@Base 5.0.1
 _ZNSt6vectorIPwSaIS0_EE13_M_insert_auxEN9__gnu_cxx17__normal_iteratorIPS0_S2_EERKS0_@Base 4:4.5.3
 _ZNSt6vectorIPwSaIS0_EE19_M_emplace_back_auxIIRKS0_EEEvDpOT_@Base 5.0.1
 _ZNSt6vectorIPwSaIS0_EE19_M_emplace_back_auxIIS0_EEEvDpOT_@Base 5.0.1
 _ZNSt6vectorIPwSaIS0_EE19_M_emplace_back_auxIJRKS0_EEEvDpOT_@Base 5.0.1
 _ZNSt6vectorIPwSaIS0_EE19_M_emplace_back_auxIJS0_EEEvDpOT_@Base 5.0.1
 _ZNSt6vectorIPwSaIS0_EED1Ev@Base 5.0.1
 _ZNSt6vectorIPwSaIS0_EED2Ev@Base 5.0.1
 _ZNSt6vectorIiSaIiEE13_M_insert_auxEN9__gnu_cxx17__normal_iteratorIPiS1_EERKi@Base 4:4.5.3
 _ZNSt6vectorIiSaIiEE19_M_emplace_back_auxIIRKiEEEvDpOT_@Base 5.0.1
 _ZNSt6vectorIiSaIiEE19_M_emplace_back_auxIJRKiEEEvDpOT_@Base 5.0.1
 _ZNSt6vectorIiSaIiEED1Ev@Base 5.0.1
 _ZNSt6vectorIiSaIiEED2Ev@Base 5.0.1
 _ZNSt8_Rb_treeI7QStringS0_St9_IdentityIS0_EN6lucene4util7Compare7QstringESaIS0_EE10_M_insert_IRKS0_EESt17_Rb_tree_iteratorIS0_EPKSt18_Rb_tree_node_baseSG_OT_@Base 5.0.1
 _ZNSt8_Rb_treeI7QStringS0_St9_IdentityIS0_EN6lucene4util7Compare7QstringESaIS0_EE16_M_insert_uniqueIRKS0_EESt4pairISt17_Rb_tree_iteratorIS0_EbEOT_@Base 5.0.1
 _ZNSt8_Rb_treeI7QStringSt4pairIKS0_PvESt10_Select1stIS4_EN6lucene4util7Compare7QstringESaIS4_EE10_M_insert_IS1_IS0_S3_EEESt17_Rb_tree_iteratorIS4_EPKSt18_Rb_tree_node_baseSJ_OT_@Base 5.0.1
 _ZNSt8_Rb_treeI7QStringSt4pairIKS0_PvESt10_Select1stIS4_EN6lucene4util7Compare7QstringESaIS4_EE16_M_insert_uniqueIS1_IS0_S3_EEES1_ISt17_Rb_tree_iteratorIS4_EbEOT_@Base 5.0.1
 _ZNSt8_Rb_treeIPFvbES1_St9_IdentityIS1_EN6lucene4util7Compare4VoidIS0_EESaIS1_EE10_M_insert_IRKS1_EESt17_Rb_tree_iteratorIS1_EPKSt18_Rb_tree_node_baseSI_OT_@Base 5.0.1
 _ZNSt8_Rb_treeIPKcSt4pairIKS1_iESt10_Select1stIS4_EN6lucene4util7Compare4CharESaIS4_EE10_M_insert_IS2_IS1_iEEESt17_Rb_tree_iteratorIS4_EPKSt18_Rb_tree_node_baseSJ_OT_@Base 5.0.1
 _ZNSt8_Rb_treeIPKcSt4pairIKS1_iESt10_Select1stIS4_EN6lucene4util7Compare4CharESaIS4_EE16_M_insert_uniqueIS2_IS1_iEEES2_ISt17_Rb_tree_iteratorIS4_EbEOT_@Base 5.0.1
 _ZNSt8_Rb_treeIPKcSt4pairIKS1_iESt10_Select1stIS4_EN6lucene4util7Compare4CharESaIS4_EE17_M_insert_unique_IS2_IS1_iEEESt17_Rb_tree_iteratorIS4_ESt23_Rb_tree_const_iteratorIS4_EOT_@Base 5.0.1
 _ZNSt8_Rb_treeIPKwS1_St9_IdentityIS1_EN6lucene4util7Compare5TCharESaIS1_EE10_M_insert_IRKS1_EESt17_Rb_tree_iteratorIS1_EPKSt18_Rb_tree_node_baseSH_OT_@Base 5.0.1
 _ZNSt8_Rb_treeIPKwS1_St9_IdentityIS1_EN6lucene4util7Compare5TCharESaIS1_EE16_M_insert_uniqueIRKS1_EESt4pairISt17_Rb_tree_iteratorIS1_EbEOT_@Base 5.0.1
 _ZNSt8_Rb_treeIPKwSt4pairIKS1_PhESt10_Select1stIS5_EN6lucene4util7Compare5TCharESaIS5_EE10_M_insert_IS2_IS1_S4_EEESt17_Rb_tree_iteratorIS5_EPKSt18_Rb_tree_node_baseSK_OT_@Base 5.0.1
 _ZNSt8_Rb_treeIPKwSt4pairIKS1_PhESt10_Select1stIS5_EN6lucene4util7Compare5TCharESaIS5_EE16_M_insert_uniqueIS2_IS1_S4_EEES2_ISt17_Rb_tree_iteratorIS5_EbEOT_@Base 5.0.1
 _ZNSt8_Rb_treeIPKwSt4pairIKS1_iESt10_Select1stIS4_EN6lucene4util7Compare5TCharESaIS4_EE10_M_insert_IS2_IS1_iEEESt17_Rb_tree_iteratorIS4_EPKSt18_Rb_tree_node_baseSJ_OT_@Base 5.0.1
 _ZNSt8_Rb_treeIPKwSt4pairIKS1_iESt10_Select1stIS4_EN6lucene4util7Compare5TCharESaIS4_EE16_M_insert_uniqueIS2_IS1_iEEES2_ISt17_Rb_tree_iteratorIS4_EbEOT_@Base 5.0.1
 _ZNSt8_Rb_treeIPKwSt4pairIKS1_iESt10_Select1stIS4_EN6lucene4util7Compare5TCharESaIS4_EE17_M_insert_unique_IS2_IS1_iEEESt17_Rb_tree_iteratorIS4_ESt23_Rb_tree_const_iteratorIS4_EOT_@Base 5.0.1
 _ZNSt8_Rb_treeIPwS0_St9_IdentityIS0_EN6lucene4util7Compare5TCharESaIS0_EE10_M_insert_IS0_EESt17_Rb_tree_iteratorIS0_EPKSt18_Rb_tree_node_baseSE_OT_@Base 5.0.1
 _ZNSt8_Rb_treeIPwS0_St9_IdentityIS0_EN6lucene4util7Compare5TCharESaIS0_EE16_M_insert_uniqueIS0_EESt4pairISt17_Rb_tree_iteratorIS0_EbEOT_@Base 5.0.1
 _ZStplIcSt11char_traitsIcESaIcEESbIT_T0_T1_EPKS3_RKS6_@Base 5.0.1
 _ZTI12QCLuceneHits@Base 5.0.1
 _ZTI12QCLuceneSort@Base 5.0.1
 _ZTI12QCLuceneTerm@Base 5.0.1
 _ZTI13QCLuceneQuery@Base 5.0.1
 _ZTI13QCLuceneToken@Base 5.0.1
 _ZTI14QCLuceneFilter@Base 5.0.1
 _ZTI14QCLuceneReader@Base 5.0.1
 _ZTI16QCLuceneAnalyzer@Base 5.0.1
 _ZTI16QCLuceneSearcher@Base 5.0.1
 _ZTI17QCLuceneTermQuery@Base 5.0.1
 _ZTI17QCLuceneTokenizer@Base 5.0.1
 _ZTI18QCLuceneFileReader@Base 5.0.1
 _ZTI18QCLuceneRangeQuery@Base 5.0.1
 _ZTI18QCLuceneSearchable@Base 5.0.1
 _ZTI19QCLuceneIndexReader@Base 5.0.1
 _ZTI19QCLuceneIndexWriter@Base 5.0.1
 _ZTI19QCLucenePhraseQuery@Base 5.0.1
 _ZTI19QCLucenePrefixQuery@Base 5.0.1
 _ZTI19QCLuceneQueryParser@Base 5.0.1
 _ZTI19QCLuceneTokenStream@Base 5.0.1
 _ZTI20QCLuceneBooleanQuery@Base 5.0.1
 _ZTI20QCLuceneStopAnalyzer@Base 5.0.1
 _ZTI21QCLuceneIndexSearcher@Base 5.0.1
 _ZTI21QCLuceneMultiSearcher@Base 5.0.1
 _ZTI22QCLuceneSimpleAnalyzer@Base 5.0.1
 _ZTI23QCLuceneKeywordAnalyzer@Base 5.0.1
 _ZTI24QCLuceneStandardAnalyzer@Base 5.0.1
 _ZTI25QCLuceneStandardTokenizer@Base 5.0.1
 _ZTI26QCLuceneWhitespaceAnalyzer@Base 5.0.1
 _ZTI29QCLuceneMultiFieldQueryParser@Base 5.0.1
 _ZTI31QCLucenePerFieldAnalyzerWrapper@Base 5.0.1
 _ZTISt12_Vector_baseIPKwSaIS1_EE@Base 5.0.1
 _ZTISt12_Vector_baseIPhSaIS0_EE@Base 5.0.1
 _ZTISt12_Vector_baseIPwSaIS0_EE@Base 5.0.1
 _ZTISt12_Vector_baseIiSaIiEE@Base 5.0.1
 _ZTISt6vectorIPKwSaIS1_EE@Base 5.0.1
 _ZTISt6vectorIPhSaIS0_EE@Base 5.0.1
 _ZTISt6vectorIPwSaIS0_EE@Base 5.0.1
 _ZTISt6vectorIiSaIiEE@Base 5.0.1
 _ZTS12QCLuceneHits@Base 5.0.1
 _ZTS12QCLuceneSort@Base 5.0.1
 _ZTS12QCLuceneTerm@Base 5.0.1
 _ZTS13QCLuceneQuery@Base 5.0.1
 _ZTS13QCLuceneToken@Base 5.0.1
 _ZTS14QCLuceneFilter@Base 5.0.1
 _ZTS14QCLuceneReader@Base 5.0.1
 _ZTS16QCLuceneAnalyzer@Base 5.0.1
 _ZTS16QCLuceneSearcher@Base 5.0.1
 _ZTS17QCLuceneTermQuery@Base 5.0.1
 _ZTS17QCLuceneTokenizer@Base 5.0.1
 _ZTS18QCLuceneFileReader@Base 5.0.1
 _ZTS18QCLuceneRangeQuery@Base 5.0.1
 _ZTS18QCLuceneSearchable@Base 5.0.1
 _ZTS19QCLuceneIndexReader@Base 5.0.1
 _ZTS19QCLuceneIndexWriter@Base 5.0.1
 _ZTS19QCLucenePhraseQuery@Base 5.0.1
 _ZTS19QCLucenePrefixQuery@Base 5.0.1
 _ZTS19QCLuceneQueryParser@Base 5.0.1
 _ZTS19QCLuceneTokenStream@Base 5.0.1
 _ZTS20QCLuceneBooleanQuery@Base 5.0.1
 _ZTS20QCLuceneStopAnalyzer@Base 5.0.1
 _ZTS21QCLuceneIndexSearcher@Base 5.0.1
 _ZTS21QCLuceneMultiSearcher@Base 5.0.1
 _ZTS22QCLuceneSimpleAnalyzer@Base 5.0.1
 _ZTS23QCLuceneKeywordAnalyzer@Base 5.0.1
 _ZTS24QCLuceneStandardAnalyzer@Base 5.0.1
 _ZTS25QCLuceneStandardTokenizer@Base 5.0.1
 _ZTS26QCLuceneWhitespaceAnalyzer@Base 5.0.1
 _ZTS29QCLuceneMultiFieldQueryParser@Base 5.0.1
 _ZTS31QCLucenePerFieldAnalyzerWrapper@Base 5.0.1
 _ZTSSt12_Vector_baseIPKwSaIS1_EE@Base 5.0.1
 _ZTSSt12_Vector_baseIPhSaIS0_EE@Base 5.0.1
 _ZTSSt12_Vector_baseIPwSaIS0_EE@Base 5.0.1
 _ZTSSt12_Vector_baseIiSaIiEE@Base 5.0.1
 _ZTSSt6vectorIPKwSaIS1_EE@Base 5.0.1
 _ZTSSt6vectorIPhSaIS0_EE@Base 5.0.1
 _ZTSSt6vectorIPwSaIS0_EE@Base 5.0.1
 _ZTSSt6vectorIiSaIiEE@Base 5.0.1
 _ZTV12QCLuceneHits@Base 5.0.1
 _ZTV12QCLuceneSort@Base 5.0.1
 _ZTV12QCLuceneTerm@Base 5.0.1
 _ZTV13QCLuceneQuery@Base 5.0.1
 _ZTV13QCLuceneToken@Base 5.0.1
 _ZTV14QCLuceneFilter@Base 5.0.1
 _ZTV14QCLuceneReader@Base 5.0.1
 _ZTV16QCLuceneAnalyzer@Base 5.0.1
 _ZTV16QCLuceneSearcher@Base 5.0.1
 _ZTV17QCLuceneTermQuery@Base 5.0.1
 _ZTV17QCLuceneTokenizer@Base 5.0.1
 _ZTV18QCLuceneFileReader@Base 5.0.1
 _ZTV18QCLuceneRangeQuery@Base 5.0.1
 _ZTV18QCLuceneSearchable@Base 5.0.1
 _ZTV19QCLuceneIndexReader@Base 5.0.1
 _ZTV19QCLuceneIndexWriter@Base 5.0.1
 _ZTV19QCLucenePhraseQuery@Base 5.0.1
 _ZTV19QCLucenePrefixQuery@Base 5.0.1
 _ZTV19QCLuceneQueryParser@Base 5.0.1
 _ZTV19QCLuceneTokenStream@Base 5.0.1
 _ZTV20QCLuceneBooleanQuery@Base 5.0.1
 _ZTV20QCLuceneStopAnalyzer@Base 5.0.1
 _ZTV21QCLuceneIndexSearcher@Base 5.0.1
 _ZTV21QCLuceneMultiSearcher@Base 5.0.1
 _ZTV22QCLuceneSimpleAnalyzer@Base 5.0.1
 _ZTV23QCLuceneKeywordAnalyzer@Base 5.0.1
 _ZTV24QCLuceneStandardAnalyzer@Base 5.0.1
 _ZTV25QCLuceneStandardTokenizer@Base 5.0.1
 _ZTV26QCLuceneWhitespaceAnalyzer@Base 5.0.1
 _ZTV29QCLuceneMultiFieldQueryParser@Base 5.0.1
 _ZTV31QCLucenePerFieldAnalyzerWrapper@Base 5.0.1
libQt5Core.so.5 libqtcore5 #MINVER#
 _Z10forcepointR11QTextStream@Base 5.0.1
 _Z10noshowbaseR11QTextStream@Base 5.0.1
 _Z10qAllocMoreii@Base 5.0.1
 _Z10qHBNewFacePvPF8HB_ErrorS_jPhPjE@Base 5.0.1
 _Z10qShapeItemP14HB_ShaperItem_@Base 5.0.1
 _Z10qTerminatev@Base 5.0.1
 _Z10qvsnprintfPcmPKcP13__va_list_tag@Base 5.0.1
 _Z10scientificR11QTextStream@Base 5.0.1
 _Z11noforcesignR11QTextStream@Base 5.0.1
 _Z11qHBFreeFaceP11HB_FaceRec_@Base 5.0.1
 _Z11qHBLoadFaceP11HB_FaceRec_@Base 5.0.1
 _Z11qUncompressPKhi@Base 5.0.1
 _Z11qt_assert_xPKcS0_S0_i@Base 5.0.1
 _Z11qt_int_sqrtj@Base 5.0.1
 _Z12noforcepointR11QTextStream@Base 5.0.1
 _Z12qFreeAlignedPv@Base 5.0.1
 _Z12qSharedBuildv@Base 5.0.1
 _Z13lowercasebaseR11QTextStream@Base 5.0.1
 _Z13qErrnoWarningPKcz@Base 5.0.1
 _Z13qErrnoWarningiPKcz@Base 5.0.1
 _Z13qFlagLocationPKc@Base 5.0.1
 _Z13uppercasebaseR11QTextStream@Base 5.0.1
 _Z14qDecodeDataUrlRK4QUrlR7QStringR10QByteArray@Base 5.0.1
 _Z14qMallocAlignedmm@Base 5.0.1
 _Z14qt_safe_selectiP6fd_setS0_S0_PK7timeval@Base 5.0.1
 _Z15lowercasedigitsR11QTextStream@Base 5.0.1
 _Z15qAddPostRoutinePFvvE@Base 5.0.1
 _Z15qIsEffectiveTLDRK7QString@Base 5.0.1
 _Z15qReallocAlignedPvmmm@Base 5.0.1
 _Z15qTopLevelDomainRK7QString@Base 5.0.1
 _Z15qt_error_stringi@Base 5.0.1
 _Z15uppercasedigitsR11QTextStream@Base 5.0.1
 _Z16qt_check_pointerPKci@Base 5.0.1
 _Z17qt_message_output9QtMsgTypeRK18QMessageLogContextRK7QString@Base 5.0.1
 _Z18qDetectCpuFeaturesv@Base 5.0.1
 _Z18qInstallMsgHandlerPFv9QtMsgTypePKcE@Base 5.0.1
 _Z18qRemovePostRoutinePFvvE@Base 5.0.1
 _Z18qSetMessagePatternRK7QString@Base 5.0.1
 _Z19qcoreVariantHandlerv@Base 5.0.1
 _Z20qMessageFormatString9QtMsgTypeRK18QMessageLogContextRK7QString@Base 5.0.1
 _Z20qt_qFindChild_helperPK7QObjectRK7QStringRK11QMetaObject6QFlagsIN2Qt15FindChildOptionEE@Base 5.0.1
 _Z21qDeleteInEventHandlerP7QObject@Base 5.0.1
 _Z21qRegisterResourceDataiPKhS0_S0_@Base 5.0.1
 _Z21qt_call_post_routinesv@Base 5.0.1
 _Z21qt_regexp_toCanonicalRK7QStringN7QRegExp13PatternSyntaxE@Base 5.0.1
 _Z22qInstallMessageHandlerPFv9QtMsgTypeRK18QMessageLogContextRK7QStringE@Base 5.0.1
 _Z23qUnregisterResourceDataiPKhS0_S0_@Base 5.0.1
 _Z23qt_qFindChildren_helperPK7QObjectRK18QRegularExpressionRK11QMetaObjectP5QListIPvE6QFlagsIN2Qt15FindChildOptionEE@Base 5.0.1
 _Z23qt_qFindChildren_helperPK7QObjectRK7QRegExpRK11QMetaObjectP5QListIPvE6QFlagsIN2Qt15FindChildOptionEE@Base 5.0.1
 _Z23qt_qFindChildren_helperPK7QObjectRK7QStringRK11QMetaObjectP5QListIPvE6QFlagsIN2Qt15FindChildOptionEE@Base 5.0.1
 _Z24qGlobalPostedEventsCountv@Base 5.0.1
 _Z24qcoreStateMachineHandlerv@Base 5.0.1
 _Z24qt_linux_find_symbol_sysPKc@Base 5.0.1
 _Z25qEnvironmentVariableIsSetPKc@Base 5.0.1
 _Z27qEnvironmentVariableIsEmptyPKc@Base 5.0.1
 _Z29qRegisterStaticPluginFunction13QStaticPlugin@Base 5.0.1
 _Z29qt_applicationName_noFallbackv@Base 5.0.1
 _Z2wsR11QTextStream@Base 5.0.1
 _Z32qt_register_signal_spy_callbacksRK21QSignalSpyCallbackSet@Base 5.0.1
 _Z3binR11QTextStream@Base 5.0.1
 _Z3bomR11QTextStream@Base 5.0.1
 _Z3decR11QTextStream@Base 5.0.1
 _Z3hexR11QTextStream@Base 5.0.1
 _Z3octR11QTextStream@Base 5.0.1
 _Z4endlR11QTextStream@Base 5.0.1
 _Z4leftR11QTextStream@Base 5.0.1
 _Z4qInfv@Base 5.0.1
 _Z5fixedR11QTextStream@Base 5.0.1
 _Z5flushR11QTextStream@Base 5.0.1
 _Z5qFreePv@Base 5.0.1
 _Z5qHash13QLatin1Stringj@Base 5.0.1
 _Z5qHashRK10QByteArrayj@Base 5.0.1
 _Z5qHashRK10QStringRefj@Base 5.0.1
 _Z5qHashRK4QUrlj@Base 5.0.1
 _Z5qHashRK5QDatej@Base 5.0.1
 _Z5qHashRK5QTimej@Base 5.0.1
 _Z5qHashRK5QUuidj@Base 5.0.1
 _Z5qHashRK7QStringj@Base 5.0.1
 _Z5qHashRK9QBitArrayj@Base 5.0.1
 _Z5qHashRK9QDateTimej@Base 5.0.1
 _Z5qQNaNv@Base 5.0.1
 _Z5qSNaNv@Base 5.0.1
 _Z5qdtoadiiPiS_PPcS1_@Base 5.0.1
 _Z5qrandv@Base 5.0.1
 _Z5resetR11QTextStream@Base 5.0.1
 _Z5rightR11QTextStream@Base 5.0.1
 _Z6centerR11QTextStream@Base 5.0.1
 _Z6qIsInfd@Base 5.0.1
 _Z6qIsInff@Base 5.0.1
 _Z6qIsNaNd@Base 5.0.1
 _Z6qIsNaNf@Base 5.0.1
 _Z6qsrandj@Base 5.0.1
 _Z6qtTrIdPKci@Base 5.0.1
 _Z7qMallocm@Base 5.0.1
 _Z7qMemSetPvim@Base 5.0.1
 _Z7qgetenvPKc@Base 5.0.1
 _Z7qputenvPKcRK10QByteArray@Base 5.0.1
 _Z7qstrcmpPKcS0_@Base 5.0.1
 _Z7qstrcmpRK10QByteArrayPKc@Base 5.0.1
 _Z7qstrcmpRK10QByteArrayS1_@Base 5.0.1
 _Z7qstrcpyPcPKc@Base 5.0.1
 _Z7qstrdupPKc@Base 5.0.1
 _Z7qstrtodPKcPS0_Pb@Base 5.0.1
 _Z7qt_hashRK7QString@Base 5.0.1
 _Z8qAppNamev@Base 5.0.1
 _Z8qMemCopyPvPKvm@Base 5.0.1
 _Z8qReallocPvm@Base 5.0.1
 _Z8qstricmpPKcS0_@Base 5.0.1
 _Z8qstrncpyPcPKcj@Base 5.0.1
 _Z8showbaseR11QTextStream@Base 5.0.1
 _Z9forcesignR11QTextStream@Base 5.0.1
 _Z9qBadAllocv@Base 5.0.1
 _Z9qChecksumPKcj@Base 5.0.1
 _Z9qCompressPKhii@Base 5.0.1
 _Z9qIsFinited@Base 5.0.1
 _Z9qIsFinitef@Base 5.0.1
 _Z9qsnprintfPcmPKcz@Base 5.0.1
 _Z9qstrnicmpPKcS0_j@Base 5.0.1
 _Z9qt_assertPKcS0_i@Base 5.0.1
 _ZN10QArrayData10deallocateEPS_mm@Base 5.0.1
 _ZN10QArrayData11shared_nullE@Base 5.0.1
 _ZN10QArrayData8allocateEmmm6QFlagsINS_16AllocationOptionEE@Base 5.0.1
 _ZN10QByteArray10fromBase64ERKS_@Base 5.0.1
 _ZN10QByteArray10setRawDataEPKcj@Base 5.0.1
 _ZN10QByteArray11fromRawDataEPKci@Base 5.0.1
 _ZN10QByteArray11reallocDataEj6QFlagsIN10QArrayData16AllocationOptionEE@Base 5.0.1
 _ZN10QByteArray19fromPercentEncodingERKS_c@Base 5.0.1
 _ZN10QByteArray4chopEi@Base 5.0.1
 _ZN10QByteArray4fillEci@Base 5.0.1
 _ZN10QByteArray5clearEv@Base 5.0.1
 _ZN10QByteArray6appendEPKc@Base 5.0.1
 _ZN10QByteArray6appendEPKci@Base 5.0.1
 _ZN10QByteArray6appendERKS_@Base 5.0.1
 _ZN10QByteArray6appendEc@Base 5.0.1
 _ZN10QByteArray6expandEi@Base 5.0.1
 _ZN10QByteArray6insertEiPKc@Base 5.0.1
 _ZN10QByteArray6insertEiPKci@Base 5.0.1
 _ZN10QByteArray6insertEiRKS_@Base 5.0.1
 _ZN10QByteArray6insertEic@Base 5.0.1
 _ZN10QByteArray6numberEdci@Base 5.0.1
 _ZN10QByteArray6numberEii@Base 5.0.1
 _ZN10QByteArray6numberEji@Base 5.0.1
 _ZN10QByteArray6numberExi@Base 5.0.1
 _ZN10QByteArray6numberEyi@Base 5.0.1
 _ZN10QByteArray6removeEii@Base 5.0.1
 _ZN10QByteArray6resizeEi@Base 5.0.1
 _ZN10QByteArray6setNumEdci@Base 5.0.1
 _ZN10QByteArray6setNumExi@Base 5.0.1
 _ZN10QByteArray6setNumEyi@Base 5.0.1
 _ZN10QByteArray7fromHexERKS_@Base 5.0.1
 _ZN10QByteArray7prependEPKc@Base 5.0.1
 _ZN10QByteArray7prependEPKci@Base 5.0.1
 _ZN10QByteArray7prependERKS_@Base 5.0.1
 _ZN10QByteArray7prependEc@Base 5.0.1
 _ZN10QByteArray7replaceEPKcRKS_@Base 5.0.1
 _ZN10QByteArray7replaceEPKciS1_i@Base 5.0.1
 _ZN10QByteArray7replaceERKS_S1_@Base 5.0.1
 _ZN10QByteArray7replaceEcRKS_@Base 5.0.1
 _ZN10QByteArray7replaceEcc@Base 5.0.1
 _ZN10QByteArray7replaceEiiPKc@Base 5.0.1
 _ZN10QByteArray7replaceEiiPKci@Base 5.0.1
 _ZN10QByteArray7replaceEiiRKS_@Base 5.0.1
 _ZN10QByteArray8truncateEi@Base 5.0.1
 _ZN10QByteArrayC1EPKci@Base 5.0.1
 _ZN10QByteArrayC1EiN2Qt14InitializationE@Base 5.0.1
 _ZN10QByteArrayC1Eic@Base 5.0.1
 _ZN10QByteArrayC2EPKci@Base 5.0.1
 _ZN10QByteArrayC2EiN2Qt14InitializationE@Base 5.0.1
 _ZN10QByteArrayC2Eic@Base 5.0.1
 _ZN10QByteArrayaSEPKc@Base 5.0.1
 _ZN10QByteArrayaSERKS_@Base 5.0.1
 _ZN10QEventLoop11qt_metacallEN11QMetaObject4CallEiPPv@Base 5.0.1
 _ZN10QEventLoop11qt_metacastEPKc@Base 5.0.1
 _ZN10QEventLoop13processEventsE6QFlagsINS_17ProcessEventsFlagEE@Base 5.0.1
 _ZN10QEventLoop13processEventsE6QFlagsINS_17ProcessEventsFlagEEi@Base 5.0.1
 _ZN10QEventLoop16staticMetaObjectE@Base 5.0.1
 _ZN10QEventLoop4execE6QFlagsINS_17ProcessEventsFlagEE@Base 5.0.1
 _ZN10QEventLoop4exitEi@Base 5.0.1
 _ZN10QEventLoop4quitEv@Base 5.0.1
 _ZN10QEventLoop5eventEP6QEvent@Base 5.0.1
 _ZN10QEventLoop6wakeUpEv@Base 5.0.1
 _ZN10QEventLoopC1EP7QObject@Base 5.0.1
 _ZN10QEventLoopC2EP7QObject@Base 5.0.1
 _ZN10QEventLoopD0Ev@Base 5.0.1
 _ZN10QEventLoopD1Ev@Base 5.0.1
 _ZN10QEventLoopD2Ev@Base 5.0.1
 _ZN10QExceptionD0Ev@Base 5.0.1
 _ZN10QExceptionD1Ev@Base 5.0.1
 _ZN10QExceptionD2Ev@Base 5.0.1
 _ZN10QJsonArray14fromStringListERK11QStringList@Base 5.0.1
 _ZN10QJsonArray15fromVariantListERK5QListI8QVariantE@Base 5.0.1
 _ZN10QJsonArray6appendERK10QJsonValue@Base 5.0.1
 _ZN10QJsonArray6detachEj@Base 5.0.1
 _ZN10QJsonArray6insertEiRK10QJsonValue@Base 5.0.1
 _ZN10QJsonArray6takeAtEi@Base 5.0.1
 _ZN10QJsonArray7compactEv@Base 5.0.1
 _ZN10QJsonArray7prependERK10QJsonValue@Base 5.0.1
 _ZN10QJsonArray7replaceEiRK10QJsonValue@Base 5.0.1
 _ZN10QJsonArray8removeAtEi@Base 5.0.1
 _ZN10QJsonArrayC1EPN12QJsonPrivate4DataEPNS0_5ArrayE@Base 5.0.1
 _ZN10QJsonArrayC1ERKS_@Base 5.0.1
 _ZN10QJsonArrayC1Ev@Base 5.0.1
 _ZN10QJsonArrayC2EPN12QJsonPrivate4DataEPNS0_5ArrayE@Base 5.0.1
 _ZN10QJsonArrayC2ERKS_@Base 5.0.1
 _ZN10QJsonArrayC2Ev@Base 5.0.1
 _ZN10QJsonArrayD1Ev@Base 5.0.1
 _ZN10QJsonArrayD2Ev@Base 5.0.1
 _ZN10QJsonArrayaSERKS_@Base 5.0.1
 _ZN10QJsonArrayixEi@Base 5.0.1
 _ZN10QJsonValue11fromVariantERK8QVariant@Base 5.0.1
 _ZN10QJsonValue6detachEv@Base 5.0.1
 _ZN10QJsonValueC1E13QLatin1String@Base 5.0.1
 _ZN10QJsonValueC1ENS_4TypeE@Base 5.0.1
 _ZN10QJsonValueC1EPN12QJsonPrivate4DataEPNS0_4BaseERKNS0_5ValueE@Base 5.0.1
 _ZN10QJsonValueC1ERK10QJsonArray@Base 5.0.1
 _ZN10QJsonValueC1ERK11QJsonObject@Base 5.0.1
 _ZN10QJsonValueC1ERK7QString@Base 5.0.1
 _ZN10QJsonValueC1ERKS_@Base 5.0.1
 _ZN10QJsonValueC1Eb@Base 5.0.1
 _ZN10QJsonValueC1Ed@Base 5.0.1
 _ZN10QJsonValueC1Ei@Base 5.0.1
 _ZN10QJsonValueC2E13QLatin1String@Base 5.0.1
 _ZN10QJsonValueC2ENS_4TypeE@Base 5.0.1
 _ZN10QJsonValueC2EPN12QJsonPrivate4DataEPNS0_4BaseERKNS0_5ValueE@Base 5.0.1
 _ZN10QJsonValueC2ERK10QJsonArray@Base 5.0.1
 _ZN10QJsonValueC2ERK11QJsonObject@Base 5.0.1
 _ZN10QJsonValueC2ERK7QString@Base 5.0.1
 _ZN10QJsonValueC2ERKS_@Base 5.0.1
 _ZN10QJsonValueC2Eb@Base 5.0.1
 _ZN10QJsonValueC2Ed@Base 5.0.1
 _ZN10QJsonValueC2Ei@Base 5.0.1
 _ZN10QJsonValueD1Ev@Base 5.0.1
 _ZN10QJsonValueD2Ev@Base 5.0.1
 _ZN10QJsonValueaSERKS_@Base 5.0.1
 _ZN10QMutexPool11createMutexEi@Base 5.0.1
 _ZN10QMutexPool17globalInstanceGetEPKv@Base 5.0.1
 _ZN10QMutexPool8instanceEv@Base 5.0.1
 _ZN10QMutexPoolC1EN6QMutex13RecursionModeEi@Base 5.0.1
 _ZN10QMutexPoolC2EN6QMutex13RecursionModeEi@Base 5.0.1
 _ZN10QMutexPoolD1Ev@Base 5.0.1
 _ZN10QMutexPoolD2Ev@Base 5.0.1
 _ZN10QSemaphore10tryAcquireEi@Base 5.0.1
 _ZN10QSemaphore10tryAcquireEii@Base 5.0.1
 _ZN10QSemaphore7acquireEi@Base 5.0.1
 _ZN10QSemaphore7releaseEi@Base 5.0.1
 _ZN10QSemaphoreC1Ei@Base 5.0.1
 _ZN10QSemaphoreC2Ei@Base 5.0.1
 _ZN10QSemaphoreD1Ev@Base 5.0.1
 _ZN10QSemaphoreD2Ev@Base 5.0.1
 _ZN10QTextCodec11codecForMibEi@Base 5.0.1
 _ZN10QTextCodec12codecForHtmlERK10QByteArray@Base 5.0.1
 _ZN10QTextCodec12codecForHtmlERK10QByteArrayPS_@Base 5.0.1
 _ZN10QTextCodec12codecForNameERK10QByteArray@Base 5.0.1
 _ZN10QTextCodec13availableMibsEv@Base 5.0.1
 _ZN10QTextCodec14ConverterStateD1Ev@Base 5.0.1
 _ZN10QTextCodec14ConverterStateD2Ev@Base 5.0.1
 _ZN10QTextCodec14codecForLocaleEv@Base 5.0.1
 _ZN10QTextCodec15availableCodecsEv@Base 5.0.1
 _ZN10QTextCodec15codecForUtfTextERK10QByteArray@Base 5.0.1
 _ZN10QTextCodec15codecForUtfTextERK10QByteArrayPS_@Base 5.0.1
 _ZN10QTextCodec17setCodecForLocaleEPS_@Base 5.0.1
 _ZN10QTextCodecC1Ev@Base 5.0.1
 _ZN10QTextCodecC2Ev@Base 5.0.1
 _ZN10QTextCodecD0Ev@Base 5.0.1
 _ZN10QTextCodecD1Ev@Base 5.0.1
 _ZN10QTextCodecD2Ev@Base 5.0.1
 _ZN11QBasicMutex11isRecursiveEv@Base 5.0.1
 _ZN11QBasicMutex12lockInternalEi@Base 5.0.1
 _ZN11QBasicMutex12lockInternalEv@Base 5.0.1
 _ZN11QBasicMutex14unlockInternalEv@Base 5.0.1
 _ZN11QBasicTimer4stopEv@Base 5.0.1
 _ZN11QBasicTimer5startEiN2Qt9TimerTypeEP7QObject@Base 5.0.1
 _ZN11QBasicTimer5startEiP7QObject@Base 5.0.1
 _ZN11QChildEventC1EN6QEvent4TypeEP7QObject@Base 5.0.1
 _ZN11QChildEventC2EN6QEvent4TypeEP7QObject@Base 5.0.1
 _ZN11QChildEventD0Ev@Base 5.0.1
 _ZN11QChildEventD1Ev@Base 5.0.1
 _ZN11QChildEventD2Ev@Base 5.0.1
 _ZN11QDataStream10writeBytesEPKcj@Base 5.0.1
 _ZN11QDataStream11readRawDataEPci@Base 5.0.1
 _ZN11QDataStream11resetStatusEv@Base 5.0.1
 _ZN11QDataStream11skipRawDataEi@Base 5.0.1
 _ZN11QDataStream11unsetDeviceEv@Base 5.0.1
 _ZN11QDataStream12setByteOrderENS_9ByteOrderE@Base 5.0.1
 _ZN11QDataStream12writeRawDataEPKci@Base 5.0.1
 _ZN11QDataStream25setFloatingPointPrecisionENS_22FloatingPointPrecisionE@Base 5.0.1
 _ZN11QDataStream9readBytesERPcRj@Base 5.0.1
 _ZN11QDataStream9setDeviceEP9QIODevice@Base 5.0.1
 _ZN11QDataStream9setStatusENS_6StatusE@Base 5.0.1
 _ZN11QDataStreamC1EP10QByteArray6QFlagsIN9QIODevice12OpenModeFlagEE@Base 5.0.1
 _ZN11QDataStreamC1EP9QIODevice@Base 5.0.1
 _ZN11QDataStreamC1ERK10QByteArray@Base 5.0.1
 _ZN11QDataStreamC1Ev@Base 5.0.1
 _ZN11QDataStreamC2EP10QByteArray6QFlagsIN9QIODevice12OpenModeFlagEE@Base 5.0.1
 _ZN11QDataStreamC2EP9QIODevice@Base 5.0.1
 _ZN11QDataStreamC2ERK10QByteArray@Base 5.0.1
 _ZN11QDataStreamC2Ev@Base 5.0.1
 _ZN11QDataStreamD1Ev@Base 5.0.1
 _ZN11QDataStreamD2Ev@Base 5.0.1
 _ZN11QDataStreamlsEPKc@Base 5.0.1
 _ZN11QDataStreamlsEa@Base 5.0.1
 _ZN11QDataStreamlsEb@Base 5.0.1
 _ZN11QDataStreamlsEd@Base 5.0.1
 _ZN11QDataStreamlsEf@Base 5.0.1
 _ZN11QDataStreamlsEi@Base 5.0.1
 _ZN11QDataStreamlsEs@Base 5.0.1
 _ZN11QDataStreamlsEx@Base 5.0.1
 _ZN11QDataStreamrsERPc@Base 5.0.1
 _ZN11QDataStreamrsERa@Base 5.0.1
 _ZN11QDataStreamrsERb@Base 5.0.1
 _ZN11QDataStreamrsERd@Base 5.0.1
 _ZN11QDataStreamrsERf@Base 5.0.1
 _ZN11QDataStreamrsERi@Base 5.0.1
 _ZN11QDataStreamrsERs@Base 5.0.1
 _ZN11QDataStreamrsERx@Base 5.0.1
 _ZN11QFileDevice10unsetErrorEv@Base 5.0.1
 _ZN11QFileDevice11qt_metacallEN11QMetaObject4CallEiPPv@Base 5.0.1
 _ZN11QFileDevice11qt_metacastEPKc@Base 5.0.1
 _ZN11QFileDevice12readLineDataEPcx@Base 5.0.1
 _ZN11QFileDevice14setPermissionsE6QFlagsINS_10PermissionEE@Base 5.0.1
 _ZN11QFileDevice16staticMetaObjectE@Base 5.0.1
 _ZN11QFileDevice3mapExxNS_14MemoryMapFlagsE@Base 5.0.1
 _ZN11QFileDevice4seekEx@Base 5.0.1
 _ZN11QFileDevice5closeEv@Base 5.0.1
 _ZN11QFileDevice5flushEv@Base 5.0.1
 _ZN11QFileDevice5unmapEPh@Base 5.0.1
 _ZN11QFileDevice6resizeEx@Base 5.0.1
 _ZN11QFileDevice8readDataEPcx@Base 5.0.1
 _ZN11QFileDevice9writeDataEPKcx@Base 5.0.1
 _ZN11QFileDeviceC1EP7QObject@Base 5.0.1
 _ZN11QFileDeviceC1ER18QFileDevicePrivateP7QObject@Base 5.0.1
 _ZN11QFileDeviceC1Ev@Base 5.0.1
 _ZN11QFileDeviceC2EP7QObject@Base 5.0.1
 _ZN11QFileDeviceC2ER18QFileDevicePrivateP7QObject@Base 5.0.1
 _ZN11QFileDeviceC2Ev@Base 5.0.1
 _ZN11QFileDeviceD0Ev@Base 5.0.1
 _ZN11QFileDeviceD1Ev@Base 5.0.1
 _ZN11QFileDeviceD2Ev@Base 5.0.1
 _ZN11QFinalState11qt_metacallEN11QMetaObject4CallEiPPv@Base 5.0.1
 _ZN11QFinalState11qt_metacastEPKc@Base 5.0.1
 _ZN11QFinalState16staticMetaObjectE@Base 5.0.1
 _ZN11QFinalState5eventEP6QEvent@Base 5.0.1
 _ZN11QFinalState6onExitEP6QEvent@Base 5.0.1
 _ZN11QFinalState7onEntryEP6QEvent@Base 5.0.1
 _ZN11QFinalStateC1EP6QState@Base 5.0.1
 _ZN11QFinalStateC2EP6QState@Base 5.0.1
 _ZN11QFinalStateD0Ev@Base 5.0.1
 _ZN11QFinalStateD1Ev@Base 5.0.1
 _ZN11QFinalStateD2Ev@Base 5.0.1
 _ZN11QJsonObject10setValueAtEiRK10QJsonValue@Base 5.0.1
 _ZN11QJsonObject14fromVariantMapERK4QMapI7QString8QVariantE@Base 5.0.1
 _ZN11QJsonObject4findERK7QString@Base 5.0.1
 _ZN11QJsonObject4takeERK7QString@Base 5.0.1
 _ZN11QJsonObject5eraseENS_8iteratorE@Base 5.0.1
 _ZN11QJsonObject6detachEj@Base 5.0.1
 _ZN11QJsonObject6insertERK7QStringRK10QJsonValue@Base 5.0.1
 _ZN11QJsonObject6removeERK7QString@Base 5.0.1
 _ZN11QJsonObject7compactEv@Base 5.0.1
 _ZN11QJsonObjectC1EPN12QJsonPrivate4DataEPNS0_6ObjectE@Base 5.0.1
 _ZN11QJsonObjectC1ERKS_@Base 5.0.1
 _ZN11QJsonObjectC1Ev@Base 5.0.1
 _ZN11QJsonObjectC2EPN12QJsonPrivate4DataEPNS0_6ObjectE@Base 5.0.1
 _ZN11QJsonObjectC2ERKS_@Base 5.0.1
 _ZN11QJsonObjectC2Ev@Base 5.0.1
 _ZN11QJsonObjectD1Ev@Base 5.0.1
 _ZN11QJsonObjectD2Ev@Base 5.0.1
 _ZN11QJsonObjectaSERKS_@Base 5.0.1
 _ZN11QJsonObjectixERK7QString@Base 5.0.1
 _ZN11QMetaMethod10fromSignalIM9QIODeviceFvxEEES_T_@Base 5.0.1
 _ZN11QMetaMethod14fromSignalImplEPK11QMetaObjectPPv@Base 5.0.1
 _ZN11QMetaObject10ConnectionC1ERKS0_@Base 5.0.1
 _ZN11QMetaObject10ConnectionC1Ev@Base 5.0.1
 _ZN11QMetaObject10ConnectionC2ERKS0_@Base 5.0.1
 _ZN11QMetaObject10ConnectionC2Ev@Base 5.0.1
 _ZN11QMetaObject10ConnectionD1Ev@Base 5.0.1
 _ZN11QMetaObject10ConnectionD2Ev@Base 5.0.1
 _ZN11QMetaObject10ConnectionaSERKS0_@Base 5.0.1
 _ZN11QMetaObject10disconnectEPK7QObjectiS2_i@Base 5.0.1
 _ZN11QMetaObject12invokeMethodEP7QObjectPKcN2Qt14ConnectionTypeE22QGenericReturnArgument16QGenericArgumentS7_S7_S7_S7_S7_S7_S7_S7_S7_@Base 5.0.1
 _ZN11QMetaObject13disconnectOneEPK7QObjectiS2_i@Base 5.0.1
 _ZN11QMetaObject14normalizedTypeEPKc@Base 5.0.1
 _ZN11QMetaObject16checkConnectArgsEPKcS1_@Base 5.0.1
 _ZN11QMetaObject16checkConnectArgsERK11QMetaMethodS2_@Base 5.0.1
 _ZN11QMetaObject18connectSlotsByNameEP7QObject@Base 5.0.1
 _ZN11QMetaObject19normalizedSignatureEPKc@Base 5.0.1
 _ZN11QMetaObject7connectEPK7QObjectiS2_iiPi@Base 5.0.1
 _ZN11QMetaObject8activateEP7QObjectPKS_iPPv@Base 5.0.1
 _ZN11QMetaObject8activateEP7QObjectiPPv@Base 5.0.1
 _ZN11QMetaObject8activateEP7QObjectiiPPv@Base 5.0.1
 _ZN11QMetaObject8metacallEP7QObjectNS_4CallEiPPv@Base 5.0.1
 _ZN11QObjectDataD0Ev@Base 5.0.1
 _ZN11QObjectDataD1Ev@Base 5.0.1
 _ZN11QObjectDataD2Ev@Base 5.0.1
 _ZN11QTextStream10setPadCharE5QChar@Base 5.0.1
 _ZN11QTextStream11resetStatusEv@Base 5.0.1
 _ZN11QTextStream13setFieldWidthEi@Base 5.0.1
 _ZN11QTextStream14setIntegerBaseEi@Base 5.0.1
 _ZN11QTextStream14setNumberFlagsE6QFlagsINS_10NumberFlagEE@Base 5.0.1
 _ZN11QTextStream14skipWhiteSpaceEv@Base 5.0.1
 _ZN11QTextStream17setFieldAlignmentENS_14FieldAlignmentE@Base 5.0.1
 _ZN11QTextStream20setAutoDetectUnicodeEb@Base 5.0.1
 _ZN11QTextStream21setRealNumberNotationENS_18RealNumberNotationE@Base 5.0.1
 _ZN11QTextStream22setRealNumberPrecisionEi@Base 5.0.1
 _ZN11QTextStream24setGenerateByteOrderMarkEb@Base 5.0.1
 _ZN11QTextStream4readEx@Base 5.0.1
 _ZN11QTextStream4seekEx@Base 5.0.1
 _ZN11QTextStream5flushEv@Base 5.0.1
 _ZN11QTextStream5resetEv@Base 5.0.1
 _ZN11QTextStream7readAllEv@Base 5.0.1
 _ZN11QTextStream8readLineEx@Base 5.0.1
 _ZN11QTextStream8setCodecEP10QTextCodec@Base 5.0.1
 _ZN11QTextStream8setCodecEPKc@Base 5.0.1
 _ZN11QTextStream9setDeviceEP9QIODevice@Base 5.0.1
 _ZN11QTextStream9setLocaleERK7QLocale@Base 5.0.1
 _ZN11QTextStream9setStatusENS_6StatusE@Base 5.0.1
 _ZN11QTextStream9setStringEP7QString6QFlagsIN9QIODevice12OpenModeFlagEE@Base 5.0.1
 _ZN11QTextStreamC1EP10QByteArray6QFlagsIN9QIODevice12OpenModeFlagEE@Base 5.0.1
 _ZN11QTextStreamC1EP7QString6QFlagsIN9QIODevice12OpenModeFlagEE@Base 5.0.1
 _ZN11QTextStreamC1EP8_IO_FILE6QFlagsIN9QIODevice12OpenModeFlagEE@Base 5.0.1
 _ZN11QTextStreamC1EP9QIODevice@Base 5.0.1
 _ZN11QTextStreamC1ERK10QByteArray6QFlagsIN9QIODevice12OpenModeFlagEE@Base 5.0.1
 _ZN11QTextStreamC1Ev@Base 5.0.1
 _ZN11QTextStreamC2EP10QByteArray6QFlagsIN9QIODevice12OpenModeFlagEE@Base 5.0.1
 _ZN11QTextStreamC2EP7QString6QFlagsIN9QIODevice12OpenModeFlagEE@Base 5.0.1
 _ZN11QTextStreamC2EP8_IO_FILE6QFlagsIN9QIODevice12OpenModeFlagEE@Base 5.0.1
 _ZN11QTextStreamC2EP9QIODevice@Base 5.0.1
 _ZN11QTextStreamC2ERK10QByteArray6QFlagsIN9QIODevice12OpenModeFlagEE@Base 5.0.1
 _ZN11QTextStreamC2Ev@Base 5.0.1
 _ZN11QTextStreamD0Ev@Base 5.0.1
 _ZN11QTextStreamD1Ev@Base 5.0.1
 _ZN11QTextStreamD2Ev@Base 5.0.1
 _ZN11QTextStreamlsE13QLatin1String@Base 5.0.1
 _ZN11QTextStreamlsE5QChar@Base 5.0.1
 _ZN11QTextStreamlsEPKc@Base 5.0.1
 _ZN11QTextStreamlsEPKv@Base 5.0.1
 _ZN11QTextStreamlsERK10QByteArray@Base 5.0.1
 _ZN11QTextStreamlsERK7QString@Base 5.0.1
 _ZN11QTextStreamlsEc@Base 5.0.1
 _ZN11QTextStreamlsEd@Base 5.0.1
 _ZN11QTextStreamlsEf@Base 5.0.1
 _ZN11QTextStreamlsEi@Base 5.0.1
 _ZN11QTextStreamlsEj@Base 5.0.1
 _ZN11QTextStreamlsEl@Base 5.0.1
 _ZN11QTextStreamlsEm@Base 5.0.1
 _ZN11QTextStreamlsEs@Base 5.0.1
 _ZN11QTextStreamlsEt@Base 5.0.1
 _ZN11QTextStreamlsEx@Base 5.0.1
 _ZN11QTextStreamlsEy@Base 5.0.1
 _ZN11QTextStreamrsEPc@Base 5.0.1
 _ZN11QTextStreamrsER10QByteArray@Base 5.0.1
 _ZN11QTextStreamrsER5QChar@Base 5.0.1
 _ZN11QTextStreamrsER7QString@Base 5.0.1
 _ZN11QTextStreamrsERc@Base 5.0.1
 _ZN11QTextStreamrsERd@Base 5.0.1
 _ZN11QTextStreamrsERf@Base 5.0.1
 _ZN11QTextStreamrsERi@Base 5.0.1
 _ZN11QTextStreamrsERj@Base 5.0.1
 _ZN11QTextStreamrsERl@Base 5.0.1
 _ZN11QTextStreamrsERm@Base 5.0.1
 _ZN11QTextStreamrsERs@Base 5.0.1
 _ZN11QTextStreamrsERt@Base 5.0.1
 _ZN11QTextStreamrsERx@Base 5.0.1
 _ZN11QTextStreamrsERy@Base 5.0.1
 _ZN11QThreadPool11qt_metacallEN11QMetaObject4CallEiPPv@Base 5.0.1
 _ZN11QThreadPool11qt_metacastEPKc@Base 5.0.1
 _ZN11QThreadPool11waitForDoneEi@Base 5.0.1
 _ZN11QThreadPool13releaseThreadEv@Base 5.0.1
 _ZN11QThreadPool13reserveThreadEv@Base 5.0.1
 _ZN11QThreadPool14globalInstanceEv@Base 5.0.1
 _ZN11QThreadPool16setExpiryTimeoutEi@Base 5.0.1
 _ZN11QThreadPool16staticMetaObjectE@Base 5.0.1
 _ZN11QThreadPool17setMaxThreadCountEi@Base 5.0.1
 _ZN11QThreadPool5startEP9QRunnablei@Base 5.0.1
 _ZN11QThreadPool8tryStartEP9QRunnable@Base 5.0.1
 _ZN11QThreadPoolC1EP7QObject@Base 5.0.1
 _ZN11QThreadPoolC2EP7QObject@Base 5.0.1
 _ZN11QThreadPoolD0Ev@Base 5.0.1
 _ZN11QThreadPoolD1Ev@Base 5.0.1
 _ZN11QThreadPoolD2Ev@Base 5.0.1
 _ZN11QTimerEventC1Ei@Base 5.0.1
 _ZN11QTimerEventC2Ei@Base 5.0.1
 _ZN11QTimerEventD0Ev@Base 5.0.1
 _ZN11QTimerEventD1Ev@Base 5.0.1
 _ZN11QTimerEventD2Ev@Base 5.0.1
 _ZN11QTranslator11qt_metacallEN11QMetaObject4CallEiPPv@Base 5.0.1
 _ZN11QTranslator11qt_metacastEPKc@Base 5.0.1
 _ZN11QTranslator16staticMetaObjectE@Base 5.0.1
 _ZN11QTranslator4loadEPKhiRK7QString@Base 5.0.1
 _ZN11QTranslator4loadERK7QLocaleRK7QStringS5_S5_S5_@Base 5.0.1
 _ZN11QTranslator4loadERK7QStringS2_S2_S2_@Base 5.0.1
 _ZN11QTranslatorC1EP7QObject@Base 5.0.1
 _ZN11QTranslatorC2EP7QObject@Base 5.0.1
 _ZN11QTranslatorD0Ev@Base 5.0.1
 _ZN11QTranslatorD1Ev@Base 5.0.1
 _ZN11QTranslatorD2Ev@Base 5.0.1
 _ZN12QDirIterator4nextEv@Base 5.0.1
 _ZN12QDirIteratorC1ERK4QDir6QFlagsINS_12IteratorFlagEE@Base 5.0.1
 _ZN12QDirIteratorC1ERK7QString6QFlagsIN4QDir6FilterEES3_INS_12IteratorFlagEE@Base 5.0.1
 _ZN12QDirIteratorC1ERK7QString6QFlagsINS_12IteratorFlagEE@Base 5.0.1
 _ZN12QDirIteratorC1ERK7QStringRK11QStringList6QFlagsIN4QDir6FilterEES6_INS_12IteratorFlagEE@Base 5.0.1
 _ZN12QDirIteratorC2ERK4QDir6QFlagsINS_12IteratorFlagEE@Base 5.0.1
 _ZN12QDirIteratorC2ERK7QString6QFlagsIN4QDir6FilterEES3_INS_12IteratorFlagEE@Base 5.0.1
 _ZN12QDirIteratorC2ERK7QString6QFlagsINS_12IteratorFlagEE@Base 5.0.1
 _ZN12QDirIteratorC2ERK7QStringRK11QStringList6QFlagsIN4QDir6FilterEES6_INS_12IteratorFlagEE@Base 5.0.1
 _ZN12QDirIteratorD1Ev@Base 5.0.1
 _ZN12QDirIteratorD2Ev@Base 5.0.1
 _ZN12QEasingCurve12setAmplitudeEd@Base 5.0.1
 _ZN12QEasingCurve12setOvershootEd@Base 5.0.1
 _ZN12QEasingCurve13addTCBSegmentERK7QPointFddd@Base 5.0.1
 _ZN12QEasingCurve13setCustomTypeEPFddE@Base 5.0.1
 _ZN12QEasingCurve16staticMetaObjectE@Base 5.0.1
 _ZN12QEasingCurve21addCubicBezierSegmentERK7QPointFS2_S2_@Base 5.0.1
 _ZN12QEasingCurve7setTypeENS_4TypeE@Base 5.0.1
 _ZN12QEasingCurve9setPeriodEd@Base 5.0.1
 _ZN12QEasingCurveC1ENS_4TypeE@Base 5.0.1
 _ZN12QEasingCurveC1ERKS_@Base 5.0.1
 _ZN12QEasingCurveC2ENS_4TypeE@Base 5.0.1
 _ZN12QEasingCurveC2ERKS_@Base 5.0.1
 _ZN12QEasingCurveD1Ev@Base 5.0.1
 _ZN12QEasingCurveD2Ev@Base 5.0.1
 _ZN12QLibraryInfo12isDebugBuildEv@Base 5.0.1
 _ZN12QLibraryInfo16licensedProductsEv@Base 5.0.1
 _ZN12QLibraryInfo8licenseeEv@Base 5.0.1
 _ZN12QLibraryInfo8locationENS_15LibraryLocationE@Base 5.0.1
 _ZN12QLibraryInfo9buildDateEv@Base 5.0.1
 _ZN12QLibraryInfoC1Ev@Base 5.0.1
 _ZN12QLibraryInfoC2Ev@Base 5.0.1
 _ZN12QMapDataBase10createDataEv@Base 5.0.1
 _ZN12QMapDataBase10createNodeEiiP12QMapNodeBaseb@Base 5.0.1
 _ZN12QMapDataBase10rotateLeftEP12QMapNodeBase@Base 5.0.1
 _ZN12QMapDataBase11rotateRightEP12QMapNodeBase@Base 5.0.1
 _ZN12QMapDataBase11shared_nullE@Base 5.0.1
 _ZN12QMapDataBase18recalcMostLeftNodeEv@Base 5.0.1
 _ZN12QMapDataBase20freeNodeAndRebalanceEP12QMapNodeBase@Base 5.0.1
 _ZN12QMapDataBase8freeDataEPS_@Base 5.0.1
 _ZN12QMapDataBase8freeTreeEP12QMapNodeBasei@Base 5.0.1
 _ZN12QMapDataBase9rebalanceEP12QMapNodeBase@Base 5.0.1
 _ZN12QSystemError8toStringEv@Base 5.0.1
 _ZN12QTextDecoder9toUnicodeEP7QStringPKci@Base 5.0.1
 _ZN12QTextDecoder9toUnicodeEPKci@Base 5.0.1
 _ZN12QTextDecoder9toUnicodeERK10QByteArray@Base 5.0.1
 _ZN12QTextDecoderC1EPK10QTextCodec6QFlagsINS0_14ConversionFlagEE@Base 5.0.1
 _ZN12QTextDecoderC2EPK10QTextCodec6QFlagsINS0_14ConversionFlagEE@Base 5.0.1
 _ZN12QTextDecoderD1Ev@Base 5.0.1
 _ZN12QTextDecoderD2Ev@Base 5.0.1
 _ZN12QTextEncoder11fromUnicodeEPK5QChari@Base 5.0.1
 _ZN12QTextEncoder11fromUnicodeERK7QString@Base 5.0.1
 _ZN12QTextEncoderC1EPK10QTextCodec6QFlagsINS0_14ConversionFlagEE@Base 5.0.1
 _ZN12QTextEncoderC2EPK10QTextCodec6QFlagsINS0_14ConversionFlagEE@Base 5.0.1
 _ZN12QTextEncoderD1Ev@Base 5.0.1
 _ZN12QTextEncoderD2Ev@Base 5.0.1
 _ZN13QElapsedTimer10invalidateEv@Base 5.0.1
 _ZN13QElapsedTimer11isMonotonicEv@Base 5.0.1
 _ZN13QElapsedTimer5startEv@Base 5.0.1
 _ZN13QElapsedTimer7restartEv@Base 5.0.1
 _ZN13QElapsedTimer9clockTypeEv@Base 5.0.1
 _ZN13QHistoryState11qt_metacallEN11QMetaObject4CallEiPPv@Base 5.0.1
 _ZN13QHistoryState11qt_metacastEPKc@Base 5.0.1
 _ZN13QHistoryState14setHistoryTypeENS_11HistoryTypeE@Base 5.0.1
 _ZN13QHistoryState15setDefaultStateEP14QAbstractState@Base 5.0.1
 _ZN13QHistoryState16staticMetaObjectE@Base 5.0.1
 _ZN13QHistoryState5eventEP6QEvent@Base 5.0.1
 _ZN13QHistoryState6onExitEP6QEvent@Base 5.0.1
 _ZN13QHistoryState7onEntryEP6QEvent@Base 5.0.1
 _ZN13QHistoryStateC1ENS_11HistoryTypeEP6QState@Base 5.0.1
 _ZN13QHistoryStateC1EP6QState@Base 5.0.1
 _ZN13QHistoryStateC2ENS_11HistoryTypeEP6QState@Base 5.0.1
 _ZN13QHistoryStateC2EP6QState@Base 5.0.1
 _ZN13QHistoryStateD0Ev@Base 5.0.1
 _ZN13QHistoryStateD1Ev@Base 5.0.1
 _ZN13QHistoryStateD2Ev@Base 5.0.1
 _ZN13QJsonDocument11fromRawDataEPKciNS_14DataValidationE@Base 5.0.1
 _ZN13QJsonDocument11fromVariantERK8QVariant@Base 5.0.1
 _ZN13QJsonDocument14fromBinaryDataERK10QByteArrayNS_14DataValidationE@Base 5.0.1
 _ZN13QJsonDocument8fromJsonERK10QByteArrayP15QJsonParseError@Base 5.0.1
 _ZN13QJsonDocument8setArrayERK10QJsonArray@Base 5.0.1
 _ZN13QJsonDocument9setObjectERK11QJsonObject@Base 5.0.1
 _ZN13QJsonDocumentC1EPN12QJsonPrivate4DataE@Base 5.0.1
 _ZN13QJsonDocumentC1ERK10QJsonArray@Base 5.0.1
 _ZN13QJsonDocumentC1ERK11QJsonObject@Base 5.0.1
 _ZN13QJsonDocumentC1ERKS_@Base 5.0.1
 _ZN13QJsonDocumentC1Ev@Base 5.0.1
 _ZN13QJsonDocumentC2EPN12QJsonPrivate4DataE@Base 5.0.1
 _ZN13QJsonDocumentC2ERK10QJsonArray@Base 5.0.1
 _ZN13QJsonDocumentC2ERK11QJsonObject@Base 5.0.1
 _ZN13QJsonDocumentC2ERKS_@Base 5.0.1
 _ZN13QJsonDocumentC2Ev@Base 5.0.1
 _ZN13QJsonDocumentD1Ev@Base 5.0.1
 _ZN13QJsonDocumentD2Ev@Base 5.0.1
 _ZN13QJsonDocumentaSERKS_@Base 5.0.1
 _ZN13QJsonValueRefaSERK10QJsonValue@Base 5.0.1
 _ZN13QJsonValueRefaSERKS_@Base 5.0.1
 _ZN13QMetaPropertyC1Ev@Base 5.0.1
 _ZN13QMetaPropertyC2Ev@Base 5.0.1
 _ZN13QMimeDatabaseC1Ev@Base 5.0.1
 _ZN13QMimeDatabaseC2Ev@Base 5.0.1
 _ZN13QMimeDatabaseD1Ev@Base 5.0.1
 _ZN13QMimeDatabaseD2Ev@Base 5.0.1
 _ZN13QPluginLoader11qt_metacallEN11QMetaObject4CallEiPPv@Base 5.0.1
 _ZN13QPluginLoader11qt_metacastEPKc@Base 5.0.1
 _ZN13QPluginLoader11setFileNameERK7QString@Base 5.0.1
 _ZN13QPluginLoader12setLoadHintsE6QFlagsIN8QLibrary8LoadHintEE@Base 5.0.1
 _ZN13QPluginLoader15staticInstancesEv@Base 5.0.1
 _ZN13QPluginLoader16staticMetaObjectE@Base 5.0.1
 _ZN13QPluginLoader4loadEv@Base 5.0.1
 _ZN13QPluginLoader6unloadEv@Base 5.0.1
 _ZN13QPluginLoader8instanceEv@Base 5.0.1
 _ZN13QPluginLoaderC1EP7QObject@Base 5.0.1
 _ZN13QPluginLoaderC1ERK7QStringP7QObject@Base 5.0.1
 _ZN13QPluginLoaderC2EP7QObject@Base 5.0.1
 _ZN13QPluginLoaderC2ERK7QStringP7QObject@Base 5.0.1
 _ZN13QPluginLoaderD0Ev@Base 5.0.1
 _ZN13QPluginLoaderD1Ev@Base 5.0.1
 _ZN13QPluginLoaderD2Ev@Base 5.0.1
 _ZN13QSharedMemory11qt_metacallEN11QMetaObject4CallEiPPv@Base 5.0.1
 _ZN13QSharedMemory11qt_metacastEPKc@Base 5.0.1
 _ZN13QSharedMemory12setNativeKeyERK7QString@Base 5.0.1
 _ZN13QSharedMemory16staticMetaObjectE@Base 5.0.1
 _ZN13QSharedMemory4dataEv@Base 5.0.1
 _ZN13QSharedMemory4lockEv@Base 5.0.1
 _ZN13QSharedMemory6attachENS_10AccessModeE@Base 5.0.1
 _ZN13QSharedMemory6createEiNS_10AccessModeE@Base 5.0.1
 _ZN13QSharedMemory6detachEv@Base 5.0.1
 _ZN13QSharedMemory6setKeyERK7QString@Base 5.0.1
 _ZN13QSharedMemory6unlockEv@Base 5.0.1
 _ZN13QSharedMemoryC1EP7QObject@Base 5.0.1
 _ZN13QSharedMemoryC1ERK7QStringP7QObject@Base 5.0.1
 _ZN13QSharedMemoryC2EP7QObject@Base 5.0.1
 _ZN13QSharedMemoryC2ERK7QStringP7QObject@Base 5.0.1
 _ZN13QSharedMemoryD0Ev@Base 5.0.1
 _ZN13QSharedMemoryD1Ev@Base 5.0.1
 _ZN13QSharedMemoryD2Ev@Base 5.0.1
 _ZN13QSignalMapper10setMappingEP7QObjectP7QWidget@Base 5.0.1
 _ZN13QSignalMapper10setMappingEP7QObjectRK7QString@Base 5.0.1
 _ZN13QSignalMapper10setMappingEP7QObjectS1_@Base 5.0.1
 _ZN13QSignalMapper10setMappingEP7QObjecti@Base 5.0.1
 _ZN13QSignalMapper11qt_metacallEN11QMetaObject4CallEiPPv@Base 5.0.1
 _ZN13QSignalMapper11qt_metacastEPKc@Base 5.0.1
 _ZN13QSignalMapper14removeMappingsEP7QObject@Base 5.0.1
 _ZN13QSignalMapper16staticMetaObjectE@Base 5.0.1
 _ZN13QSignalMapper3mapEP7QObject@Base 5.0.1
 _ZN13QSignalMapper3mapEv@Base 5.0.1
 _ZN13QSignalMapper6mappedEP7QObject@Base 5.0.1
 _ZN13QSignalMapper6mappedEP7QWidget@Base 5.0.1
 _ZN13QSignalMapper6mappedERK7QString@Base 5.0.1
 _ZN13QSignalMapper6mappedEi@Base 5.0.1
 _ZN13QSignalMapperC1EP7QObject@Base 5.0.1
 _ZN13QSignalMapperC2EP7QObject@Base 5.0.1
 _ZN13QSignalMapperD0Ev@Base 5.0.1
 _ZN13QSignalMapperD1Ev@Base 5.0.1
 _ZN13QSignalMapperD2Ev@Base 5.0.1
 _ZN13QStateMachine10clearErrorEv@Base 5.0.1
 _ZN13QStateMachine11SignalEventC1EP7QObjectiRK5QListI8QVariantE@Base 5.0.1
 _ZN13QStateMachine11SignalEventC2EP7QObjectiRK5QListI8QVariantE@Base 5.0.1
 _ZN13QStateMachine11SignalEventD0Ev@Base 5.0.1
 _ZN13QStateMachine11SignalEventD1Ev@Base 5.0.1
 _ZN13QStateMachine11SignalEventD2Ev@Base 5.0.1
 _ZN13QStateMachine11eventFilterEP7QObjectP6QEvent@Base 5.0.1
 _ZN13QStateMachine11qt_metacallEN11QMetaObject4CallEiPPv@Base 5.0.1
 _ZN13QStateMachine11qt_metacastEPKc@Base 5.0.1
 _ZN13QStateMachine11removeStateEP14QAbstractState@Base 5.0.1
 _ZN13QStateMachine11setAnimatedEb@Base 5.0.1
 _ZN13QStateMachine12WrappedEventC1EP7QObjectP6QEvent@Base 5.0.1
 _ZN13QStateMachine12WrappedEventC2EP7QObjectP6QEvent@Base 5.0.1
 _ZN13QStateMachine12WrappedEventD0Ev@Base 5.0.1
 _ZN13QStateMachine12WrappedEventD1Ev@Base 5.0.1
 _ZN13QStateMachine12WrappedEventD2Ev@Base 5.0.1
 _ZN13QStateMachine12endMicrostepEP6QEvent@Base 5.0.1
 _ZN13QStateMachine14beginMicrostepEP6QEvent@Base 5.0.1
 _ZN13QStateMachine16postDelayedEventEP6QEventi@Base 5.0.1
 _ZN13QStateMachine16staticMetaObjectE@Base 5.0.1
 _ZN13QStateMachine18cancelDelayedEventEi@Base 5.0.1
 _ZN13QStateMachine19addDefaultAnimationEP18QAbstractAnimation@Base 5.0.1
 _ZN13QStateMachine20endSelectTransitionsEP6QEvent@Base 5.0.1
 _ZN13QStateMachine22beginSelectTransitionsEP6QEvent@Base 5.0.1
 _ZN13QStateMachine22removeDefaultAnimationEP18QAbstractAnimation@Base 5.0.1
 _ZN13QStateMachine22setGlobalRestorePolicyEN6QState13RestorePolicyE@Base 5.0.1
 _ZN13QStateMachine4stopEv@Base 5.0.1
 _ZN13QStateMachine5eventEP6QEvent@Base 5.0.1
 _ZN13QStateMachine5startEv@Base 5.0.1
 _ZN13QStateMachine6onExitEP6QEvent@Base 5.0.1
 _ZN13QStateMachine7onEntryEP6QEvent@Base 5.0.1
 _ZN13QStateMachine7startedENS_14QPrivateSignalE@Base 5.0.1
 _ZN13QStateMachine7stoppedENS_14QPrivateSignalE@Base 5.0.1
 _ZN13QStateMachine8addStateEP14QAbstractState@Base 5.0.1
 _ZN13QStateMachine9postEventEP6QEventNS_13EventPriorityE@Base 5.0.1
 _ZN13QStateMachineC1EN6QState9ChildModeEP7QObject@Base 5.0.1
 _ZN13QStateMachineC1EP7QObject@Base 5.0.1
 _ZN13QStateMachineC1ER20QStateMachinePrivateP7QObject@Base 5.0.1
 _ZN13QStateMachineC2EN6QState9ChildModeEP7QObject@Base 5.0.1
 _ZN13QStateMachineC2EP7QObject@Base 5.0.1
 _ZN13QStateMachineC2ER20QStateMachinePrivateP7QObject@Base 5.0.1
 _ZN13QStateMachineD0Ev@Base 5.0.1
 _ZN13QStateMachineD1Ev@Base 5.0.1
 _ZN13QStateMachineD2Ev@Base 5.0.1
 _ZN13QTemporaryDir13setAutoRemoveEb@Base 5.0.1
 _ZN13QTemporaryDir6removeEv@Base 5.0.1
 _ZN13QTemporaryDirC1ERK7QString@Base 5.0.1
 _ZN13QTemporaryDirC1Ev@Base 5.0.1
 _ZN13QTemporaryDirC2ERK7QString@Base 5.0.1
 _ZN13QTemporaryDirC2Ev@Base 5.0.1
 _ZN13QTemporaryDirD1Ev@Base 5.0.1
 _ZN13QTemporaryDirD2Ev@Base 5.0.1
 _ZN13QUnicodeTools18initCharAttributesEPKtiPKNS_10ScriptItemEiP15QCharAttributes6QFlagsINS_19CharAttributeOptionEE@Base 5.0.1
 _ZN13QUnifiedTimer10timerEventEP11QTimerEvent@Base 5.0.1
 _ZN13QUnifiedTimer11qt_metacallEN11QMetaObject4CallEiPPv@Base 5.0.1
 _ZN13QUnifiedTimer11qt_metacastEPKc@Base 5.0.1
 _ZN13QUnifiedTimer11startTimersEv@Base 5.0.1
 _ZN13QUnifiedTimer12localRestartEv@Base 5.0.1
 _ZN13QUnifiedTimer16staticMetaObjectE@Base 5.0.1
 _ZN13QUnifiedTimer17setTimingIntervalEi@Base 5.0.1
 _ZN13QUnifiedTimer18stopAnimationTimerEP23QAbstractAnimationTimer@Base 5.0.1
 _ZN13QUnifiedTimer19pauseAnimationTimerEP23QAbstractAnimationTimeri@Base 5.0.1
 _ZN13QUnifiedTimer19startAnimationTimerEP23QAbstractAnimationTimer@Base 5.0.1
 _ZN13QUnifiedTimer20resumeAnimationTimerEP23QAbstractAnimationTimer@Base 5.0.1
 _ZN13QUnifiedTimer21runningAnimationCountEv@Base 5.0.1
 _ZN13QUnifiedTimer21updateAnimationTimersEx@Base 5.0.1
 _ZN13QUnifiedTimer22installAnimationDriverEP16QAnimationDriver@Base 5.0.1
 _ZN13QUnifiedTimer24registerProfilerCallbackEPFvxE@Base 5.0.1
 _ZN13QUnifiedTimer24uninstallAnimationDriverEP16QAnimationDriver@Base 5.0.1
 _ZN13QUnifiedTimer27canUninstallAnimationDriverEP16QAnimationDriver@Base 5.0.1
 _ZN13QUnifiedTimer34maybeUpdateAnimationsToCurrentTimeEv@Base 5.0.1
 _ZN13QUnifiedTimer39closestPausedAnimationTimerTimeToFinishEv@Base 5.0.1
 _ZN13QUnifiedTimer7restartEv@Base 5.0.1
 _ZN13QUnifiedTimer8instanceEb@Base 5.0.1
 _ZN13QUnifiedTimer8instanceEv@Base 5.0.1
 _ZN13QUnifiedTimer9stopTimerEv@Base 5.0.1
 _ZN13QUnifiedTimerC1Ev@Base 5.0.1
 _ZN13QUnifiedTimerC2Ev@Base 5.0.1
 _ZN13QUnifiedTimerD0Ev@Base 5.0.1
 _ZN13QUnifiedTimerD1Ev@Base 5.0.1
 _ZN13QUnifiedTimerD2Ev@Base 5.0.1
 _ZN14QAbstractState11qt_metacallEN11QMetaObject4CallEiPPv@Base 5.0.1
 _ZN14QAbstractState11qt_metacastEPKc@Base 5.0.1
 _ZN14QAbstractState16staticMetaObjectE@Base 5.0.1
 _ZN14QAbstractState5eventEP6QEvent@Base 5.0.1
 _ZN14QAbstractState6exitedENS_14QPrivateSignalE@Base 5.0.1
 _ZN14QAbstractState7enteredENS_14QPrivateSignalE@Base 5.0.1
 _ZN14QAbstractStateC1EP6QState@Base 5.0.1
 _ZN14QAbstractStateC1ER21QAbstractStatePrivateP6QState@Base 5.0.1
 _ZN14QAbstractStateC2EP6QState@Base 5.0.1
 _ZN14QAbstractStateC2ER21QAbstractStatePrivateP6QState@Base 5.0.1
 _ZN14QAbstractStateD0Ev@Base 5.0.1
 _ZN14QAbstractStateD1Ev@Base 5.0.1
 _ZN14QAbstractStateD2Ev@Base 5.0.1
 _ZN14QFactoryLoader10refreshAllEv@Base 5.0.1
 _ZN14QFactoryLoader11qt_metacallEN11QMetaObject4CallEiPPv@Base 5.0.1
 _ZN14QFactoryLoader11qt_metacastEPKc@Base 5.0.1
 _ZN14QFactoryLoader16staticMetaObjectE@Base 5.0.1
 _ZN14QFactoryLoader6updateEv@Base 5.0.1
 _ZN14QFactoryLoaderC1EPKcRK7QStringN2Qt15CaseSensitivityE@Base 5.0.1
 _ZN14QFactoryLoaderC2EPKcRK7QStringN2Qt15CaseSensitivityE@Base 5.0.1
 _ZN14QFactoryLoaderD0Ev@Base 5.0.1
 _ZN14QFactoryLoaderD1Ev@Base 5.0.1
 _ZN14QFactoryLoaderD2Ev@Base 5.0.1
 _ZN14QItemSelection5mergeERKS_6QFlagsIN19QItemSelectionModel13SelectionFlagEE@Base 5.0.1
 _ZN14QItemSelection5splitERK19QItemSelectionRangeS2_PS_@Base 5.0.1
 _ZN14QItemSelection6selectERK11QModelIndexS2_@Base 5.0.1
 _ZN14QItemSelectionC1ERK11QModelIndexS2_@Base 5.0.1
 _ZN14QItemSelectionC2ERK11QModelIndexS2_@Base 5.0.1
 _ZN14QItemSelectionD1Ev@Base 5.0.1
 _ZN14QItemSelectionD2Ev@Base 5.0.1
 _ZN14QLocalePrivate12codeToScriptERK7QString@Base 5.0.1
 _ZN14QLocalePrivate13codeToCountryERK7QString@Base 5.0.1
 _ZN14QLocalePrivate14codeToLanguageERK7QString@Base 5.0.1
 _ZN14QLocalePrivate14doubleToStringE5QCharS0_S0_S0_S0_S0_diNS_10DoubleFormEij@Base 5.0.1
 _ZN14QLocalePrivate16longLongToStringE5QCharS0_S0_S0_xiiij@Base 5.0.1
 _ZN14QLocalePrivate17bytearrayToDoubleEPKcPbS2_@Base 5.0.1
 _ZN14QLocalePrivate17getLangAndCountryERK7QStringRN7QLocale8LanguageERNS3_6ScriptERNS3_7CountryE@Base 5.0.1
 _ZN14QLocalePrivate19bytearrayToLongLongEPKciPbS2_@Base 5.0.1
 _ZN14QLocalePrivate19dataPointerForIndexEt@Base 5.0.1
 _ZN14QLocalePrivate19unsLongLongToStringE5QCharS0_S0_yiiij@Base 5.0.1
 _ZN14QLocalePrivate19updateSystemPrivateEv@Base 5.0.1
 _ZN14QLocalePrivate22bytearrayToUnsLongLongEPKciPb@Base 5.0.1
 _ZN14QMetaCallEvent13placeMetaCallEP7QObject@Base 5.0.1
 _ZN14QMetaCallEventC1EPN9QtPrivate15QSlotObjectBaseEPK7QObjectiiPiPPvP10QSemaphore@Base 5.0.1
 _ZN14QMetaCallEventC1EttPFvP7QObjectN11QMetaObject4CallEiPPvEPKS0_iiPiS5_P10QSemaphore@Base 5.0.1
 _ZN14QMetaCallEventC2EPN9QtPrivate15QSlotObjectBaseEPK7QObjectiiPiPPvP10QSemaphore@Base 5.0.1
 _ZN14QMetaCallEventC2EttPFvP7QObjectN11QMetaObject4CallEiPPvEPKS0_iiPiS5_P10QSemaphore@Base 5.0.1
 _ZN14QMetaCallEventD0Ev@Base 5.0.1
 _ZN14QMetaCallEventD1Ev@Base 5.0.1
 _ZN14QMetaCallEventD2Ev@Base 5.0.1
 _ZN14QObjectPrivate10ConnectionD1Ev@Base 5.0.1
 _ZN14QObjectPrivate10ConnectionD2Ev@Base 5.0.1
 _ZN14QObjectPrivate13addConnectionEiPNS_10ConnectionE@Base 5.0.1
 _ZN14QObjectPrivate14deleteChildrenEv@Base 5.0.1
 _ZN14QObjectPrivate16setParent_helperEP7QObject@Base 5.0.1
 _ZN14QObjectPrivate19_q_reregisterTimersEPv@Base 5.0.1
 _ZN14QObjectPrivate19moveToThread_helperEv@Base 5.0.1
 _ZN14QObjectPrivate20cleanConnectionListsEv@Base 5.0.1
 _ZN14QObjectPrivate20setThreadData_helperEP11QThreadDataS1_@Base 5.0.1
 _ZN14QObjectPrivateC1Ei@Base 5.0.1
 _ZN14QObjectPrivateC2Ei@Base 5.0.1
 _ZN14QObjectPrivateD0Ev@Base 5.0.1
 _ZN14QObjectPrivateD1Ev@Base 5.0.1
 _ZN14QObjectPrivateD2Ev@Base 5.0.1
 _ZN14QReadWriteLock11lockForReadEv@Base 5.0.1
 _ZN14QReadWriteLock12lockForWriteEv@Base 5.0.1
 _ZN14QReadWriteLock14tryLockForReadEi@Base 5.0.1
 _ZN14QReadWriteLock14tryLockForReadEv@Base 5.0.1
 _ZN14QReadWriteLock15tryLockForWriteEi@Base 5.0.1
 _ZN14QReadWriteLock15tryLockForWriteEv@Base 5.0.1
 _ZN14QReadWriteLock6unlockEv@Base 5.0.1
 _ZN14QReadWriteLockC1ENS_13RecursionModeE@Base 5.0.1
 _ZN14QReadWriteLockC2ENS_13RecursionModeE@Base 5.0.1
 _ZN14QReadWriteLockD1Ev@Base 5.0.1
 _ZN14QReadWriteLockD2Ev@Base 5.0.1
 _ZN14QStandardPaths11displayNameENS_16StandardLocationE@Base 5.0.1
 _ZN14QStandardPaths14enableTestModeEb@Base 5.0.1
 _ZN14QStandardPaths14findExecutableERK7QStringRK11QStringList@Base 5.0.1
 _ZN14QStandardPaths16writableLocationENS_16StandardLocationE@Base 5.0.1
 _ZN14QStandardPaths17isTestModeEnabledEv@Base 5.0.1
 _ZN14QStandardPaths17standardLocationsENS_16StandardLocationE@Base 5.0.1
 _ZN14QStandardPaths6locateENS_16StandardLocationERK7QString6QFlagsINS_12LocateOptionEE@Base 5.0.1
 _ZN14QStandardPaths9locateAllENS_16StandardLocationERK7QString6QFlagsINS_12LocateOptionEE@Base 5.0.1
 _ZN14QStringMatcher10setPatternERK7QString@Base 5.0.1
 _ZN14QStringMatcher18setCaseSensitivityEN2Qt15CaseSensitivityE@Base 5.0.1
 _ZN14QStringMatcherC1EPK5QChariN2Qt15CaseSensitivityE@Base 5.0.1
 _ZN14QStringMatcherC1ERK7QStringN2Qt15CaseSensitivityE@Base 5.0.1
 _ZN14QStringMatcherC1ERKS_@Base 5.0.1
 _ZN14QStringMatcherC1Ev@Base 5.0.1
 _ZN14QStringMatcherC2EPK5QChariN2Qt15CaseSensitivityE@Base 5.0.1
 _ZN14QStringMatcherC2ERK7QStringN2Qt15CaseSensitivityE@Base 5.0.1
 _ZN14QStringMatcherC2ERKS_@Base 5.0.1
 _ZN14QStringMatcherC2Ev@Base 5.0.1
 _ZN14QStringMatcherD1Ev@Base 5.0.1
 _ZN14QStringMatcherD2Ev@Base 5.0.1
 _ZN14QStringMatcheraSERKS_@Base 5.0.1
 _ZN14QTemporaryFile11qt_metacallEN11QMetaObject4CallEiPPv@Base 5.0.1
 _ZN14QTemporaryFile11qt_metacastEPKc@Base 5.0.1
 _ZN14QTemporaryFile13setAutoRemoveEb@Base 5.0.1
 _ZN14QTemporaryFile15setFileTemplateERK7QString@Base 5.0.1
 _ZN14QTemporaryFile16createNativeFileER5QFile@Base 5.0.1
 _ZN14QTemporaryFile16staticMetaObjectE@Base 5.0.1
 _ZN14QTemporaryFile4openE6QFlagsIN9QIODevice12OpenModeFlagEE@Base 5.0.1
 _ZN14QTemporaryFileC1EP7QObject@Base 5.0.1
 _ZN14QTemporaryFileC1ERK7QString@Base 5.0.1
 _ZN14QTemporaryFileC1ERK7QStringP7QObject@Base 5.0.1
 _ZN14QTemporaryFileC1Ev@Base 5.0.1
 _ZN14QTemporaryFileC2EP7QObject@Base 5.0.1
 _ZN14QTemporaryFileC2ERK7QString@Base 5.0.1
 _ZN14QTemporaryFileC2ERK7QStringP7QObject@Base 5.0.1
 _ZN14QTemporaryFileC2Ev@Base 5.0.1
 _ZN14QTemporaryFileD0Ev@Base 5.0.1
 _ZN14QTemporaryFileD1Ev@Base 5.0.1
 _ZN14QTemporaryFileD2Ev@Base 5.0.1
 _ZN14QTimerInfoList11timeChangedEP7timeval@Base 5.0.1
 _ZN14QTimerInfoList11timerInsertEP10QTimerInfo@Base 5.0.1
 _ZN14QTimerInfoList11timerRepairERK7timeval@Base 5.0.1
 _ZN14QTimerInfoList13registerTimerEiiN2Qt9TimerTypeEP7QObject@Base 5.0.1
 _ZN14QTimerInfoList14activateTimersEv@Base 5.0.1
 _ZN14QTimerInfoList15unregisterTimerEi@Base 5.0.1
 _ZN14QTimerInfoList16unregisterTimersEP7QObject@Base 5.0.1
 _ZN14QTimerInfoList17updateCurrentTimeEv@Base 5.0.1
 _ZN14QTimerInfoList18timerRemainingTimeEi@Base 5.0.1
 _ZN14QTimerInfoList20repairTimersIfNeededEv@Base 5.0.1
 _ZN14QTimerInfoList9timerWaitER7timeval@Base 5.0.1
 _ZN14QTimerInfoListC1Ev@Base 5.0.1
 _ZN14QTimerInfoListC2Ev@Base 5.0.1
 _ZN14QUnicodeTables10propertiesEj@Base 5.0.1
 _ZN14QUnicodeTables10propertiesEt@Base 5.0.1
 _ZN14QUnicodeTables14lineBreakClassEj@Base 5.0.1
 _ZN14QUnicodeTables14wordBreakClassEj@Base 5.0.1
 _ZN14QUnicodeTables18graphemeBreakClassEj@Base 5.0.1
 _ZN14QUnicodeTables18sentenceBreakClassEj@Base 5.0.1
 _ZN14QUnicodeTables6scriptEj@Base 5.0.1
 _ZN14QWaitCondition4waitEP14QReadWriteLockm@Base 5.0.1
 _ZN14QWaitCondition4waitEP6QMutexm@Base 5.0.1
 _ZN14QWaitCondition7wakeAllEv@Base 5.0.1
 _ZN14QWaitCondition7wakeOneEv@Base 5.0.1
 _ZN14QWaitConditionC1Ev@Base 5.0.1
 _ZN14QWaitConditionC2Ev@Base 5.0.1
 _ZN14QWaitConditionD1Ev@Base 5.0.1
 _ZN14QWaitConditionD2Ev@Base 5.0.1
 _ZN15QAnimationGroup11qt_metacallEN11QMetaObject4CallEiPPv@Base 5.0.1
 _ZN15QAnimationGroup11qt_metacastEPKc@Base 5.0.1
 _ZN15QAnimationGroup12addAnimationEP18QAbstractAnimation@Base 5.0.1
 _ZN15QAnimationGroup13takeAnimationEi@Base 5.0.1
 _ZN15QAnimationGroup15insertAnimationEiP18QAbstractAnimation@Base 5.0.1
 _ZN15QAnimationGroup15removeAnimationEP18QAbstractAnimation@Base 5.0.1
 _ZN15QAnimationGroup16staticMetaObjectE@Base 5.0.1
 _ZN15QAnimationGroup5clearEv@Base 5.0.1
 _ZN15QAnimationGroup5eventEP6QEvent@Base 5.0.1
 _ZN15QAnimationGroupC1EP7QObject@Base 5.0.1
 _ZN15QAnimationGroupC1ER22QAnimationGroupPrivateP7QObject@Base 5.0.1
 _ZN15QAnimationGroupC2EP7QObject@Base 5.0.1
 _ZN15QAnimationGroupC2ER22QAnimationGroupPrivateP7QObject@Base 5.0.1
 _ZN15QAnimationGroupD0Ev@Base 5.0.1
 _ZN15QAnimationGroupD1Ev@Base 5.0.1
 _ZN15QAnimationGroupD2Ev@Base 5.0.1
 _ZN15QDateTimeParser11parseFormatERK7QString@Base 5.0.1
 _ZN15QDateTimeParser9StateNodeD1Ev@Base 5.0.1
 _ZN15QDateTimeParser9StateNodeD2Ev@Base 5.0.1
 _ZN15QIPAddressUtils8parseIp4ERjPK5QCharS3_@Base 5.0.1
 _ZN15QIPAddressUtils8parseIp6ERA16_hPK5QCharS4_@Base 5.0.1
 _ZN15QIPAddressUtils8toStringER7QStringPh@Base 5.0.1
 _ZN15QIPAddressUtils8toStringER7QStringj@Base 5.0.1
 _ZN15QLinkedListData11shared_nullE@Base 5.0.1
 _ZN15QObjectUserDataD0Ev@Base 5.0.1
 _ZN15QObjectUserDataD1Ev@Base 5.0.1
 _ZN15QObjectUserDataD2Ev@Base 5.0.1
 _ZN15QPauseAnimation11qt_metacallEN11QMetaObject4CallEiPPv@Base 5.0.1
 _ZN15QPauseAnimation11qt_metacastEPKc@Base 5.0.1
 _ZN15QPauseAnimation11setDurationEi@Base 5.0.1
 _ZN15QPauseAnimation16staticMetaObjectE@Base 5.0.1
 _ZN15QPauseAnimation17updateCurrentTimeEi@Base 5.0.1
 _ZN15QPauseAnimation5eventEP6QEvent@Base 5.0.1
 _ZN15QPauseAnimationC1EP7QObject@Base 5.0.1
 _ZN15QPauseAnimationC1EiP7QObject@Base 5.0.1
 _ZN15QPauseAnimationC2EP7QObject@Base 5.0.1
 _ZN15QPauseAnimationC2EiP7QObject@Base 5.0.1
 _ZN15QPauseAnimationD0Ev@Base 5.0.1
 _ZN15QPauseAnimationD1Ev@Base 5.0.1
 _ZN15QPauseAnimationD2Ev@Base 5.0.1
 _ZN15QSocketNotifier10setEnabledEb@Base 5.0.1
 _ZN15QSocketNotifier11qt_metacallEN11QMetaObject4CallEiPPv@Base 5.0.1
 _ZN15QSocketNotifier11qt_metacastEPKc@Base 5.0.1
 _ZN15QSocketNotifier16staticMetaObjectE@Base 5.0.1
 _ZN15QSocketNotifier5eventEP6QEvent@Base 5.0.1
 _ZN15QSocketNotifier9activatedEiNS_14QPrivateSignalE@Base 5.0.1
 _ZN15QSocketNotifierC1ExNS_4TypeEP7QObject@Base 5.0.1
 _ZN15QSocketNotifierC2ExNS_4TypeEP7QObject@Base 5.0.1
 _ZN15QSocketNotifierD0Ev@Base 5.0.1
 _ZN15QSocketNotifierD1Ev@Base 5.0.1
 _ZN15QSocketNotifierD2Ev@Base 5.0.1
 _ZN15QVariantPrivate15registerHandlerEiPKN8QVariant7HandlerE@Base 5.0.1
 _ZN15QtSharedPointer20ExternalRefCountData16setQObjectSharedEPK7QObjectb@Base 5.0.1
 _ZN15QtSharedPointer20ExternalRefCountData18checkQObjectSharedEPK7QObject@Base 5.0.1
 _ZN15QtSharedPointer20ExternalRefCountData9getAndRefEPK7QObject@Base 5.0.1
 _ZN15QtSharedPointer22internalSafetyCheckAddEPKvPVKv@Base 5.0.1
 _ZN15QtSharedPointer25internalSafetyCheckRemoveEPKv@Base 5.0.1
 _ZN15QtSharedPointer31weakPointerFromVariant_internalERK8QVariant@Base 5.0.1
 _ZN15QtSharedPointer33sharedPointerFromVariant_internalERK8QVariant@Base 5.0.1
 _ZN16QAnimationDriver11qt_metacallEN11QMetaObject4CallEiPPv@Base 5.0.1
 _ZN16QAnimationDriver11qt_metacastEPKc@Base 5.0.1
 _ZN16QAnimationDriver12setStartTimeEx@Base 5.0.1
 _ZN16QAnimationDriver16advanceAnimationEx@Base 5.0.1
 _ZN16QAnimationDriver16staticMetaObjectE@Base 5.0.1
 _ZN16QAnimationDriver4stopEv@Base 5.0.1
 _ZN16QAnimationDriver5startEv@Base 5.0.1
 _ZN16QAnimationDriver7advanceEv@Base 5.0.1
 _ZN16QAnimationDriver7installEv@Base 5.0.1
 _ZN16QAnimationDriver7startedEv@Base 5.0.1
 _ZN16QAnimationDriver7stoppedEv@Base 5.0.1
 _ZN16QAnimationDriver9uninstallEv@Base 5.0.1
 _ZN16QAnimationDriverC1EP7QObject@Base 5.0.1
 _ZN16QAnimationDriverC1ER23QAnimationDriverPrivateP7QObject@Base 5.0.1
 _ZN16QAnimationDriverC2EP7QObject@Base 5.0.1
 _ZN16QAnimationDriverC2ER23QAnimationDriverPrivateP7QObject@Base 5.0.1
 _ZN16QAnimationDriverD0Ev@Base 5.0.1
 _ZN16QAnimationDriverD1Ev@Base 5.0.1
 _ZN16QAnimationDriverD2Ev@Base 5.0.1
 _ZN16QCoreApplication10startingUpEv@Base 5.0.1
 _ZN16QCoreApplication11aboutToQuitENS_14QPrivateSignalE@Base 5.0.1
 _ZN16QCoreApplication11closingDownEv@Base 5.0.1
 _ZN16QCoreApplication11qt_metacallEN11QMetaObject4CallEiPPv@Base 5.0.1
 _ZN16QCoreApplication11qt_metacastEPKc@Base 5.0.1
 _ZN16QCoreApplication12libraryPathsEv@Base 5.0.1
 _ZN16QCoreApplication12setAttributeEN2Qt20ApplicationAttributeEb@Base 5.0.1
 _ZN16QCoreApplication13compressEventEP6QEventP7QObjectP14QPostEventList@Base 5.0.1
 _ZN16QCoreApplication13processEventsE6QFlagsIN10QEventLoop17ProcessEventsFlagEE@Base 5.0.1
 _ZN16QCoreApplication13processEventsE6QFlagsIN10QEventLoop17ProcessEventsFlagEEi@Base 5.0.1
 _ZN16QCoreApplication13testAttributeEN2Qt20ApplicationAttributeE@Base 5.0.1
 _ZN16QCoreApplication14addLibraryPathERK7QString@Base 5.0.1
 _ZN16QCoreApplication14applicationPidEv@Base 5.0.1
 _ZN16QCoreApplication14notifyInternalEP7QObjectP6QEvent@Base 5.0.1
 _ZN16QCoreApplication15applicationNameEv@Base 5.0.1
 _ZN16QCoreApplication15eventDispatcherEv@Base 5.0.1
 _ZN16QCoreApplication15setLibraryPathsERK11QStringList@Base 5.0.1
 _ZN16QCoreApplication16hasPendingEventsEv@Base 5.0.1
 _ZN16QCoreApplication16organizationNameEv@Base 5.0.1
 _ZN16QCoreApplication16removeTranslatorEP11QTranslator@Base 5.0.1
 _ZN16QCoreApplication16sendPostedEventsEP7QObjecti@Base 5.0.1
 _ZN16QCoreApplication16staticMetaObjectE@Base 5.0.1
 _ZN16QCoreApplication17installTranslatorEP11QTranslator@Base 5.0.1
 _ZN16QCoreApplication17isQuitLockEnabledEv@Base 5.0.1
 _ZN16QCoreApplication17removeLibraryPathERK7QString@Base 5.0.1
 _ZN16QCoreApplication18applicationDirPathEv@Base 5.0.1
 _ZN16QCoreApplication18applicationVersionEv@Base 5.0.1
 _ZN16QCoreApplication18organizationDomainEv@Base 5.0.1
 _ZN16QCoreApplication18removePostedEventsEP7QObjecti@Base 5.0.1
 _ZN16QCoreApplication18setApplicationNameERK7QString@Base 5.0.1
 _ZN16QCoreApplication18setEventDispatcherEP24QAbstractEventDispatcher@Base 5.0.1
 _ZN16QCoreApplication18setQuitLockEnabledEb@Base 5.0.1
 _ZN16QCoreApplication19applicationFilePathEv@Base 5.0.1
 _ZN16QCoreApplication19setOrganizationNameERK7QString@Base 5.0.1
 _ZN16QCoreApplication21setApplicationVersionERK7QString@Base 5.0.1
 _ZN16QCoreApplication21setOrganizationDomainERK7QString@Base 5.0.1
 _ZN16QCoreApplication23removeNativeEventFilterEP26QAbstractNativeEventFilter@Base 5.0.1
 _ZN16QCoreApplication24installNativeEventFilterEP26QAbstractNativeEventFilter@Base 5.0.1
 _ZN16QCoreApplication4execEv@Base 5.0.1
 _ZN16QCoreApplication4exitEi@Base 5.0.1
 _ZN16QCoreApplication4initEv@Base 5.0.1
 _ZN16QCoreApplication4quitEv@Base 5.0.1
 _ZN16QCoreApplication4selfE@Base 5.0.1
 _ZN16QCoreApplication5eventEP6QEvent@Base 5.0.1
 _ZN16QCoreApplication5flushEv@Base 5.0.1
 _ZN16QCoreApplication6notifyEP7QObjectP6QEvent@Base 5.0.1
 _ZN16QCoreApplication9argumentsEv@Base 5.0.1
 _ZN16QCoreApplication9postEventEP7QObjectP6QEventi@Base 5.0.1
 _ZN16QCoreApplication9translateEPKcS1_S1_i@Base 5.0.1
 _ZN16QCoreApplicationC1ER23QCoreApplicationPrivate@Base 5.0.1
 _ZN16QCoreApplicationC1ERiPPci@Base 5.0.1
 _ZN16QCoreApplicationC2ER23QCoreApplicationPrivate@Base 5.0.1
 _ZN16QCoreApplicationC2ERiPPci@Base 5.0.1
 _ZN16QCoreApplicationD0Ev@Base 5.0.1
 _ZN16QCoreApplicationD1Ev@Base 5.0.1
 _ZN16QCoreApplicationD2Ev@Base 5.0.1
 _ZN16QEventLoopLockerC1EP10QEventLoop@Base 5.0.1
 _ZN16QEventLoopLockerC1EP7QThread@Base 5.0.1
 _ZN16QEventLoopLockerC1Ev@Base 5.0.1
 _ZN16QEventLoopLockerC2EP10QEventLoop@Base 5.0.1
 _ZN16QEventLoopLockerC2EP7QThread@Base 5.0.1
 _ZN16QEventLoopLockerC2Ev@Base 5.0.1
 _ZN16QEventLoopLockerD1Ev@Base 5.0.1
 _ZN16QEventLoopLockerD2Ev@Base 5.0.1
 _ZN16QEventTransition11qt_metacallEN11QMetaObject4CallEiPPv@Base 5.0.1
 _ZN16QEventTransition11qt_metacastEPKc@Base 5.0.1
 _ZN16QEventTransition12onTransitionEP6QEvent@Base 5.0.1
 _ZN16QEventTransition12setEventTypeEN6QEvent4TypeE@Base 5.0.1
 _ZN16QEventTransition14setEventSourceEP7QObject@Base 5.0.1
 _ZN16QEventTransition16staticMetaObjectE@Base 5.0.1
 _ZN16QEventTransition5eventEP6QEvent@Base 5.0.1
 _ZN16QEventTransition9eventTestEP6QEvent@Base 5.0.1
 _ZN16QEventTransitionC1EP6QState@Base 5.0.1
 _ZN16QEventTransitionC1EP7QObjectN6QEvent4TypeEP6QState@Base 5.0.1
 _ZN16QEventTransitionC1ER23QEventTransitionPrivateP6QState@Base 5.0.1
 _ZN16QEventTransitionC1ER23QEventTransitionPrivateP7QObjectN6QEvent4TypeEP6QState@Base 5.0.1
 _ZN16QEventTransitionC2EP6QState@Base 5.0.1
 _ZN16QEventTransitionC2EP7QObjectN6QEvent4TypeEP6QState@Base 5.0.1
 _ZN16QEventTransitionC2ER23QEventTransitionPrivateP6QState@Base 5.0.1
 _ZN16QEventTransitionC2ER23QEventTransitionPrivateP7QObjectN6QEvent4TypeEP6QState@Base 5.0.1
 _ZN16QEventTransitionD0Ev@Base 5.0.1
 _ZN16QEventTransitionD1Ev@Base 5.0.1
 _ZN16QEventTransitionD2Ev@Base 5.0.1
 _ZN16QIODevicePrivate13putCharHelperEc@Base 5.0.1
 _ZN16QIODevicePrivate4peekEPcx@Base 5.0.1
 _ZN16QIODevicePrivate4peekEx@Base 5.0.1
 _ZN16QIODevicePrivateC1Ev@Base 5.0.1
 _ZN16QIODevicePrivateC2Ev@Base 5.0.1
 _ZN16QIODevicePrivateD0Ev@Base 5.0.1
 _ZN16QIODevicePrivateD1Ev@Base 5.0.1
 _ZN16QIODevicePrivateD2Ev@Base 5.0.1
 _ZN16QMetaEnumBuilder6addKeyERK10QByteArrayi@Base 5.0.1
 _ZN16QMetaEnumBuilder9removeKeyEi@Base 5.0.1
 _ZN16QMetaEnumBuilder9setIsFlagEb@Base 5.0.1
 _ZN16QMetaStringTable18preferredAlignmentEv@Base 5.0.1
 _ZN16QMetaStringTable5enterERK10QByteArray@Base 5.0.1
 _ZN16QMetaStringTable9writeBlobEPc@Base 5.0.1
 _ZN16QMetaStringTableC1Ev@Base 5.0.1
 _ZN16QMetaStringTableC2Ev@Base 5.0.1
 _ZN16QSegfaultHandler10initializeEPPci@Base 5.0.1
 _ZN16QSegfaultHandler8callbackE@Base 5.0.1
 _ZN16QStringListModel10insertRowsEiiRK11QModelIndex@Base 5.0.1
 _ZN16QStringListModel10removeRowsEiiRK11QModelIndex@Base 5.0.1
 _ZN16QStringListModel11qt_metacallEN11QMetaObject4CallEiPPv@Base 5.0.1
 _ZN16QStringListModel11qt_metacastEPKc@Base 5.0.1
 _ZN16QStringListModel13setStringListERK11QStringList@Base 5.0.1
 _ZN16QStringListModel16staticMetaObjectE@Base 5.0.1
 _ZN16QStringListModel4sortEiN2Qt9SortOrderE@Base 5.0.1
 _ZN16QStringListModel7setDataERK11QModelIndexRK8QVarianti@Base 5.0.1
 _ZN16QStringListModelC1EP7QObject@Base 5.0.1
 _ZN16QStringListModelC1ERK11QStringListP7QObject@Base 5.0.1
 _ZN16QStringListModelC2EP7QObject@Base 5.0.1
 _ZN16QStringListModelC2ERK11QStringListP7QObject@Base 5.0.1
 _ZN16QStringListModelD0Ev@Base 5.0.1
 _ZN16QStringListModelD1Ev@Base 5.0.1
 _ZN16QStringListModelD2Ev@Base 5.0.1
 _ZN16QSystemSemaphore6setKeyERK7QStringiNS_10AccessModeE@Base 5.0.1
 _ZN16QSystemSemaphore7acquireEv@Base 5.0.1
 _ZN16QSystemSemaphore7releaseEi@Base 5.0.1
 _ZN16QSystemSemaphoreC1ERK7QStringiNS_10AccessModeE@Base 5.0.1
 _ZN16QSystemSemaphoreC2ERK7QStringiNS_10AccessModeE@Base 5.0.1
 _ZN16QSystemSemaphoreD1Ev@Base 5.0.1
 _ZN16QSystemSemaphoreD2Ev@Base 5.0.1
 _ZN16QXmlStreamReader10raiseErrorERK7QString@Base 5.0.1
 _ZN16QXmlStreamReader15readElementTextENS_24ReadElementTextBehaviourE@Base 5.0.1
 _ZN16QXmlStreamReader17setEntityResolverEP24QXmlStreamEntityResolver@Base 5.0.1
 _ZN16QXmlStreamReader18skipCurrentElementEv@Base 5.0.1
 _ZN16QXmlStreamReader20readNextStartElementEv@Base 5.0.1
 _ZN16QXmlStreamReader22setNamespaceProcessingEb@Base 5.0.1
 _ZN16QXmlStreamReader28addExtraNamespaceDeclarationERK30QXmlStreamNamespaceDeclaration@Base 5.0.1
 _ZN16QXmlStreamReader29addExtraNamespaceDeclarationsERK7QVectorI30QXmlStreamNamespaceDeclarationE@Base 5.0.1
 _ZN16QXmlStreamReader5clearEv@Base 5.0.1
 _ZN16QXmlStreamReader7addDataEPKc@Base 5.0.1
 _ZN16QXmlStreamReader7addDataERK10QByteArray@Base 5.0.1
 _ZN16QXmlStreamReader7addDataERK7QString@Base 5.0.1
 _ZN16QXmlStreamReader8readNextEv@Base 5.0.1
 _ZN16QXmlStreamReader9setDeviceEP9QIODevice@Base 5.0.1
 _ZN16QXmlStreamReaderC1EP9QIODevice@Base 5.0.1
 _ZN16QXmlStreamReaderC1EPKc@Base 5.0.1
 _ZN16QXmlStreamReaderC1ERK10QByteArray@Base 5.0.1
 _ZN16QXmlStreamReaderC1ERK7QString@Base 5.0.1
 _ZN16QXmlStreamReaderC1Ev@Base 5.0.1
 _ZN16QXmlStreamReaderC2EP9QIODevice@Base 5.0.1
 _ZN16QXmlStreamReaderC2EPKc@Base 5.0.1
 _ZN16QXmlStreamReaderC2ERK10QByteArray@Base 5.0.1
 _ZN16QXmlStreamReaderC2ERK7QString@Base 5.0.1
 _ZN16QXmlStreamReaderC2Ev@Base 5.0.1
 _ZN16QXmlStreamReaderD1Ev@Base 5.0.1
 _ZN16QXmlStreamReaderD2Ev@Base 5.0.1
 _ZN16QXmlStreamWriter10writeCDATAERK7QString@Base 5.0.1
 _ZN16QXmlStreamWriter12writeCommentERK7QString@Base 5.0.1
 _ZN16QXmlStreamWriter14writeAttributeERK19QXmlStreamAttribute@Base 5.0.1
 _ZN16QXmlStreamWriter14writeAttributeERK7QStringS2_@Base 5.0.1
 _ZN16QXmlStreamWriter14writeAttributeERK7QStringS2_S2_@Base 5.0.1
 _ZN16QXmlStreamWriter14writeNamespaceERK7QStringS2_@Base 5.0.1
 _ZN16QXmlStreamWriter15writeAttributesERK20QXmlStreamAttributes@Base 5.0.1
 _ZN16QXmlStreamWriter15writeCharactersERK7QString@Base 5.0.1
 _ZN16QXmlStreamWriter15writeEndElementEv@Base 5.0.1
 _ZN16QXmlStreamWriter16writeEndDocumentEv@Base 5.0.1
 _ZN16QXmlStreamWriter16writeTextElementERK7QStringS2_@Base 5.0.1
 _ZN16QXmlStreamWriter16writeTextElementERK7QStringS2_S2_@Base 5.0.1
 _ZN16QXmlStreamWriter17setAutoFormattingEb@Base 5.0.1
 _ZN16QXmlStreamWriter17writeCurrentTokenERK16QXmlStreamReader@Base 5.0.1
 _ZN16QXmlStreamWriter17writeEmptyElementERK7QString@Base 5.0.1
 _ZN16QXmlStreamWriter17writeEmptyElementERK7QStringS2_@Base 5.0.1
 _ZN16QXmlStreamWriter17writeStartElementERK7QString@Base 5.0.1
 _ZN16QXmlStreamWriter17writeStartElementERK7QStringS2_@Base 5.0.1
 _ZN16QXmlStreamWriter18writeStartDocumentERK7QString@Base 5.0.1
 _ZN16QXmlStreamWriter18writeStartDocumentERK7QStringb@Base 5.0.1
 _ZN16QXmlStreamWriter18writeStartDocumentEv@Base 5.0.1
 _ZN16QXmlStreamWriter20writeEntityReferenceERK7QString@Base 5.0.1
 _ZN16QXmlStreamWriter21writeDefaultNamespaceERK7QString@Base 5.0.1
 _ZN16QXmlStreamWriter23setAutoFormattingIndentEi@Base 5.0.1
 _ZN16QXmlStreamWriter26writeProcessingInstructionERK7QStringS2_@Base 5.0.1
 _ZN16QXmlStreamWriter8setCodecEP10QTextCodec@Base 5.0.1
 _ZN16QXmlStreamWriter8setCodecEPKc@Base 5.0.1
 _ZN16QXmlStreamWriter8writeDTDERK7QString@Base 5.0.1
 _ZN16QXmlStreamWriter9setDeviceEP9QIODevice@Base 5.0.1
 _ZN16QXmlStreamWriterC1EP10QByteArray@Base 5.0.1
 _ZN16QXmlStreamWriterC1EP7QString@Base 5.0.1
 _ZN16QXmlStreamWriterC1EP9QIODevice@Base 5.0.1
 _ZN16QXmlStreamWriterC1Ev@Base 5.0.1
 _ZN16QXmlStreamWriterC2EP10QByteArray@Base 5.0.1
 _ZN16QXmlStreamWriterC2EP7QString@Base 5.0.1
 _ZN16QXmlStreamWriterC2EP9QIODevice@Base 5.0.1
 _ZN16QXmlStreamWriterC2Ev@Base 5.0.1
 _ZN16QXmlStreamWriterD1Ev@Base 5.0.1
 _ZN16QXmlStreamWriterD2Ev@Base 5.0.1
 _ZN17QByteArrayMatcher10setPatternERK10QByteArray@Base 5.0.1
 _ZN17QByteArrayMatcherC1EPKci@Base 5.0.1
 _ZN17QByteArrayMatcherC1ERK10QByteArray@Base 5.0.1
 _ZN17QByteArrayMatcherC1ERKS_@Base 5.0.1
 _ZN17QByteArrayMatcherC1Ev@Base 5.0.1
 _ZN17QByteArrayMatcherC2EPKci@Base 5.0.1
 _ZN17QByteArrayMatcherC2ERK10QByteArray@Base 5.0.1
 _ZN17QByteArrayMatcherC2ERKS_@Base 5.0.1
 _ZN17QByteArrayMatcherC2Ev@Base 5.0.1
 _ZN17QByteArrayMatcherD1Ev@Base 5.0.1
 _ZN17QByteArrayMatcherD2Ev@Base 5.0.1
 _ZN17QByteArrayMatcheraSERKS_@Base 5.0.1
 _ZN17QSignalTransition11qt_metacallEN11QMetaObject4CallEiPPv@Base 5.0.1
 _ZN17QSignalTransition11qt_metacastEPKc@Base 5.0.1
 _ZN17QSignalTransition12onTransitionEP6QEvent@Base 5.0.1
 _ZN17QSignalTransition15setSenderObjectEPK7QObject@Base 5.0.1
 _ZN17QSignalTransition16staticMetaObjectE@Base 5.0.1
 _ZN17QSignalTransition5eventEP6QEvent@Base 5.0.1
 _ZN17QSignalTransition9eventTestEP6QEvent@Base 5.0.1
 _ZN17QSignalTransition9setSignalERK10QByteArray@Base 5.0.1
 _ZN17QSignalTransitionC1EP6QState@Base 5.0.1
 _ZN17QSignalTransitionC1EPK7QObjectPKcP6QState@Base 5.0.1
 _ZN17QSignalTransitionC2EP6QState@Base 5.0.1
 _ZN17QSignalTransitionC2EPK7QObjectPKcP6QState@Base 5.0.1
 _ZN17QSignalTransitionD0Ev@Base 5.0.1
 _ZN17QSignalTransitionD1Ev@Base 5.0.1
 _ZN17QSignalTransitionD2Ev@Base 5.0.1
 _ZN17QVariantAnimation11qt_metacallEN11QMetaObject4CallEiPPv@Base 5.0.1
 _ZN17QVariantAnimation11qt_metacastEPKc@Base 5.0.1
 _ZN17QVariantAnimation11setDurationEi@Base 5.0.1
 _ZN17QVariantAnimation11setEndValueERK8QVariant@Base 5.0.1
 _ZN17QVariantAnimation11updateStateEN18QAbstractAnimation5StateES1_@Base 5.0.1
 _ZN17QVariantAnimation12setKeyValuesERK7QVectorI5QPairId8QVariantEE@Base 5.0.1
 _ZN17QVariantAnimation12valueChangedERK8QVariant@Base 5.0.1
 _ZN17QVariantAnimation13setKeyValueAtEdRK8QVariant@Base 5.0.1
 _ZN17QVariantAnimation13setStartValueERK8QVariant@Base 5.0.1
 _ZN17QVariantAnimation14setEasingCurveERK12QEasingCurve@Base 5.0.1
 _ZN17QVariantAnimation16staticMetaObjectE@Base 5.0.1
 _ZN17QVariantAnimation17updateCurrentTimeEi@Base 5.0.1
 _ZN17QVariantAnimation18updateCurrentValueERK8QVariant@Base 5.0.1
 _ZN17QVariantAnimation20registerInterpolatorEPF8QVariantPKvS2_dEi@Base 5.0.1
 _ZN17QVariantAnimation5eventEP6QEvent@Base 5.0.1
 _ZN17QVariantAnimationC1EP7QObject@Base 5.0.1
 _ZN17QVariantAnimationC1ER24QVariantAnimationPrivateP7QObject@Base 5.0.1
 _ZN17QVariantAnimationC2EP7QObject@Base 5.0.1
 _ZN17QVariantAnimationC2ER24QVariantAnimationPrivateP7QObject@Base 5.0.1
 _ZN17QVariantAnimationD0Ev@Base 5.0.1
 _ZN17QVariantAnimationD1Ev@Base 5.0.1
 _ZN17QVariantAnimationD2Ev@Base 5.0.1
 _ZN18QAbstractAnimation11qt_metacallEN11QMetaObject4CallEiPPv@Base 5.0.1
 _ZN18QAbstractAnimation11qt_metacastEPKc@Base 5.0.1
 _ZN18QAbstractAnimation11updateStateENS_5StateES0_@Base 5.0.1
 _ZN18QAbstractAnimation12setDirectionENS_9DirectionE@Base 5.0.1
 _ZN18QAbstractAnimation12setLoopCountEi@Base 5.0.1
 _ZN18QAbstractAnimation12stateChangedENS_5StateES0_@Base 5.0.1
 _ZN18QAbstractAnimation14setCurrentTimeEi@Base 5.0.1
 _ZN18QAbstractAnimation15updateDirectionENS_9DirectionE@Base 5.0.1
 _ZN18QAbstractAnimation16directionChangedENS_9DirectionE@Base 5.0.1
 _ZN18QAbstractAnimation16staticMetaObjectE@Base 5.0.1
 _ZN18QAbstractAnimation18currentLoopChangedEi@Base 5.0.1
 _ZN18QAbstractAnimation4stopEv@Base 5.0.1
 _ZN18QAbstractAnimation5eventEP6QEvent@Base 5.0.1
 _ZN18QAbstractAnimation5pauseEv@Base 5.0.1
 _ZN18QAbstractAnimation5startENS_14DeletionPolicyE@Base 5.0.1
 _ZN18QAbstractAnimation6resumeEv@Base 5.0.1
 _ZN18QAbstractAnimation8finishedEv@Base 5.0.1
 _ZN18QAbstractAnimation9setPausedEb@Base 5.0.1
 _ZN18QAbstractAnimationC1EP7QObject@Base 5.0.1
 _ZN18QAbstractAnimationC1ER25QAbstractAnimationPrivateP7QObject@Base 5.0.1
 _ZN18QAbstractAnimationC2EP7QObject@Base 5.0.1
 _ZN18QAbstractAnimationC2ER25QAbstractAnimationPrivateP7QObject@Base 5.0.1
 _ZN18QAbstractAnimationD0Ev@Base 5.0.1
 _ZN18QAbstractAnimationD1Ev@Base 5.0.1
 _ZN18QAbstractAnimationD2Ev@Base 5.0.1
 _ZN18QAbstractItemModel10decodeDataEiiRK11QModelIndexR11QDataStream@Base 5.0.1
 _ZN18QAbstractItemModel10insertRowsEiiRK11QModelIndex@Base 5.0.1
 _ZN18QAbstractItemModel10modelResetENS_14QPrivateSignalE@Base 5.0.1
 _ZN18QAbstractItemModel10removeRowsEiiRK11QModelIndex@Base 5.0.1
 _ZN18QAbstractItemModel11dataChangedERK11QModelIndexS2_RK7QVectorIiE@Base 5.0.1
 _ZN18QAbstractItemModel11endMoveRowsEv@Base 5.0.1
 _ZN18QAbstractItemModel11moveColumnsERK11QModelIndexiiS2_i@Base 5.0.1
 _ZN18QAbstractItemModel11qt_metacallEN11QMetaObject4CallEiPPv@Base 5.0.1
 _ZN18QAbstractItemModel11qt_metacastEPKc@Base 5.0.1
 _ZN18QAbstractItemModel11rowsRemovedERK11QModelIndexiiNS_14QPrivateSignalE@Base 5.0.1
 _ZN18QAbstractItemModel11setItemDataERK11QModelIndexRK4QMapIi8QVariantE@Base 5.0.1
 _ZN18QAbstractItemModel12columnsMovedERK11QModelIndexiiS2_iNS_14QPrivateSignalE@Base 5.0.1
 _ZN18QAbstractItemModel12dropMimeDataEPK9QMimeDataN2Qt10DropActionEiiRK11QModelIndex@Base 5.0.1
 _ZN18QAbstractItemModel12rowsInsertedERK11QModelIndexiiNS_14QPrivateSignalE@Base 5.0.1
 _ZN18QAbstractItemModel13beginMoveRowsERK11QModelIndexiiS2_i@Base 5.0.1
 _ZN18QAbstractItemModel13endInsertRowsEv@Base 5.0.1
 _ZN18QAbstractItemModel13endRemoveRowsEv@Base 5.0.1
 _ZN18QAbstractItemModel13endResetModelEv@Base 5.0.1
 _ZN18QAbstractItemModel13insertColumnsEiiRK11QModelIndex@Base 5.0.1
 _ZN18QAbstractItemModel13layoutChangedERK5QListI21QPersistentModelIndexENS_16LayoutChangeHintE@Base 5.0.1
 _ZN18QAbstractItemModel13removeColumnsEiiRK11QModelIndex@Base 5.0.1
 _ZN18QAbstractItemModel13setHeaderDataEiN2Qt11OrientationERK8QVarianti@Base 5.0.1
 _ZN18QAbstractItemModel14columnsRemovedERK11QModelIndexiiNS_14QPrivateSignalE@Base 5.0.1
 _ZN18QAbstractItemModel14doSetRoleNamesERK5QHashIi10QByteArrayE@Base 5.0.1
 _ZN18QAbstractItemModel14endMoveColumnsEv@Base 5.0.1
 _ZN18QAbstractItemModel15beginInsertRowsERK11QModelIndexii@Base 5.0.1
 _ZN18QAbstractItemModel15beginRemoveRowsERK11QModelIndexii@Base 5.0.1
 _ZN18QAbstractItemModel15beginResetModelEv@Base 5.0.1
 _ZN18QAbstractItemModel15columnsInsertedERK11QModelIndexiiNS_14QPrivateSignalE@Base 5.0.1
 _ZN18QAbstractItemModel16beginMoveColumnsERK11QModelIndexiiS2_i@Base 5.0.1
 _ZN18QAbstractItemModel16endInsertColumnsEv@Base 5.0.1
 _ZN18QAbstractItemModel16endRemoveColumnsEv@Base 5.0.1
 _ZN18QAbstractItemModel16staticMetaObjectE@Base 5.0.1
 _ZN18QAbstractItemModel17headerDataChangedEN2Qt11OrientationEii@Base 5.0.1
 _ZN18QAbstractItemModel18beginInsertColumnsERK11QModelIndexii@Base 5.0.1
 _ZN18QAbstractItemModel18beginRemoveColumnsERK11QModelIndexii@Base 5.0.1
 _ZN18QAbstractItemModel18rowsAboutToBeMovedERK11QModelIndexiiS2_iNS_14QPrivateSignalE@Base 5.0.1
 _ZN18QAbstractItemModel19modelAboutToBeResetENS_14QPrivateSignalE@Base 5.0.1
 _ZN18QAbstractItemModel20rowsAboutToBeRemovedERK11QModelIndexiiNS_14QPrivateSignalE@Base 5.0.1
 _ZN18QAbstractItemModel21changePersistentIndexERK11QModelIndexS2_@Base 5.0.1
 _ZN18QAbstractItemModel21columnsAboutToBeMovedERK11QModelIndexiiS2_iNS_14QPrivateSignalE@Base 5.0.1
 _ZN18QAbstractItemModel21rowsAboutToBeInsertedERK11QModelIndexiiNS_14QPrivateSignalE@Base 5.0.1
 _ZN18QAbstractItemModel22layoutAboutToBeChangedERK5QListI21QPersistentModelIndexENS_16LayoutChangeHintE@Base 5.0.1
 _ZN18QAbstractItemModel23columnsAboutToBeRemovedERK11QModelIndexiiNS_14QPrivateSignalE@Base 5.0.1
 _ZN18QAbstractItemModel24columnsAboutToBeInsertedERK11QModelIndexiiNS_14QPrivateSignalE@Base 5.0.1
 _ZN18QAbstractItemModel25changePersistentIndexListERK5QListI11QModelIndexES4_@Base 5.0.1
 _ZN18QAbstractItemModel25doSetSupportedDragActionsE6QFlagsIN2Qt10DropActionEE@Base 5.0.1
 _ZN18QAbstractItemModel4sortEiN2Qt9SortOrderE@Base 5.0.1
 _ZN18QAbstractItemModel6revertEv@Base 5.0.1
 _ZN18QAbstractItemModel6submitEv@Base 5.0.1
 _ZN18QAbstractItemModel7setDataERK11QModelIndexRK8QVarianti@Base 5.0.1
 _ZN18QAbstractItemModel8moveRowsERK11QModelIndexiiS2_i@Base 5.0.1
 _ZN18QAbstractItemModel9fetchMoreERK11QModelIndex@Base 5.0.1
 _ZN18QAbstractItemModel9rowsMovedERK11QModelIndexiiS2_iNS_14QPrivateSignalE@Base 5.0.1
 _ZN18QAbstractItemModelC1EP7QObject@Base 5.0.1
 _ZN18QAbstractItemModelC1ER25QAbstractItemModelPrivateP7QObject@Base 5.0.1
 _ZN18QAbstractItemModelC2EP7QObject@Base 5.0.1
 _ZN18QAbstractItemModelC2ER25QAbstractItemModelPrivateP7QObject@Base 5.0.1
 _ZN18QAbstractItemModelD0Ev@Base 5.0.1
 _ZN18QAbstractItemModelD1Ev@Base 5.0.1
 _ZN18QAbstractItemModelD2Ev@Base 5.0.1
 _ZN18QAbstractListModel11qt_metacallEN11QMetaObject4CallEiPPv@Base 5.0.1
 _ZN18QAbstractListModel11qt_metacastEPKc@Base 5.0.1
 _ZN18QAbstractListModel12dropMimeDataEPK9QMimeDataN2Qt10DropActionEiiRK11QModelIndex@Base 5.0.1
 _ZN18QAbstractListModel16staticMetaObjectE@Base 5.0.1
 _ZN18QAbstractListModelC1EP7QObject@Base 5.0.1
 _ZN18QAbstractListModelC1ER25QAbstractItemModelPrivateP7QObject@Base 5.0.1
 _ZN18QAbstractListModelC2EP7QObject@Base 5.0.1
 _ZN18QAbstractListModelC2ER25QAbstractItemModelPrivateP7QObject@Base 5.0.1
 _ZN18QAbstractListModelD0Ev@Base 5.0.1
 _ZN18QAbstractListModelD1Ev@Base 5.0.1
 _ZN18QAbstractListModelD2Ev@Base 5.0.1
 _ZN18QCryptographicHash4hashERK10QByteArrayNS_9AlgorithmE@Base 5.0.1
 _ZN18QCryptographicHash5resetEv@Base 5.0.1
 _ZN18QCryptographicHash7addDataEP9QIODevice@Base 5.0.1
 _ZN18QCryptographicHash7addDataEPKci@Base 5.0.1
 _ZN18QCryptographicHash7addDataERK10QByteArray@Base 5.0.1
 _ZN18QCryptographicHashC1ENS_9AlgorithmE@Base 5.0.1
 _ZN18QCryptographicHashC2ENS_9AlgorithmE@Base 5.0.1
 _ZN18QCryptographicHashD1Ev@Base 5.0.1
 _ZN18QCryptographicHashD2Ev@Base 5.0.1
 _ZN18QFileSystemWatcher10removePathERK7QString@Base 5.0.1
 _ZN18QFileSystemWatcher11fileChangedERK7QStringNS_14QPrivateSignalE@Base 5.0.1
 _ZN18QFileSystemWatcher11qt_metacallEN11QMetaObject4CallEiPPv@Base 5.0.1
 _ZN18QFileSystemWatcher11qt_metacastEPKc@Base 5.0.1
 _ZN18QFileSystemWatcher11removePathsERK11QStringList@Base 5.0.1
 _ZN18QFileSystemWatcher16directoryChangedERK7QStringNS_14QPrivateSignalE@Base 5.0.1
 _ZN18QFileSystemWatcher16staticMetaObjectE@Base 5.0.1
 _ZN18QFileSystemWatcher7addPathERK7QString@Base 5.0.1
 _ZN18QFileSystemWatcher8addPathsERK11QStringList@Base 5.0.1
 _ZN18QFileSystemWatcherC1EP7QObject@Base 5.0.1
 _ZN18QFileSystemWatcherC1ERK11QStringListP7QObject@Base 5.0.1
 _ZN18QFileSystemWatcherC2EP7QObject@Base 5.0.1
 _ZN18QFileSystemWatcherC2ERK11QStringListP7QObject@Base 5.0.1
 _ZN18QFileSystemWatcherD0Ev@Base 5.0.1
 _ZN18QFileSystemWatcherD1Ev@Base 5.0.1
 _ZN18QFileSystemWatcherD2Ev@Base 5.0.1
 _ZN18QFutureWatcherBase11qt_metacallEN11QMetaObject4CallEiPPv@Base 5.0.1
 _ZN18QFutureWatcherBase11qt_metacastEPKc@Base 5.0.1
 _ZN18QFutureWatcherBase12togglePausedEv@Base 5.0.1
 _ZN18QFutureWatcherBase13connectNotifyERK11QMetaMethod@Base 5.0.1
 _ZN18QFutureWatcherBase13resultReadyAtEi@Base 5.0.1
 _ZN18QFutureWatcherBase14resultsReadyAtEii@Base 5.0.1
 _ZN18QFutureWatcherBase15waitForFinishedEv@Base 5.0.1
 _ZN18QFutureWatcherBase16disconnectNotifyERK11QMetaMethod@Base 5.0.1
 _ZN18QFutureWatcherBase16staticMetaObjectE@Base 5.0.1
 _ZN18QFutureWatcherBase19progressTextChangedERK7QString@Base 5.0.1
 _ZN18QFutureWatcherBase20progressRangeChangedEii@Base 5.0.1
 _ZN18QFutureWatcherBase20progressValueChangedEi@Base 5.0.1
 _ZN18QFutureWatcherBase22connectOutputInterfaceEv@Base 5.0.1
 _ZN18QFutureWatcherBase22setPendingResultsLimitEi@Base 5.0.1
 _ZN18QFutureWatcherBase25disconnectOutputInterfaceEb@Base 5.0.1
 _ZN18QFutureWatcherBase5eventEP6QEvent@Base 5.0.1
 _ZN18QFutureWatcherBase5pauseEv@Base 5.0.1
 _ZN18QFutureWatcherBase6cancelEv@Base 5.0.1
 _ZN18QFutureWatcherBase6pausedEv@Base 5.0.1
 _ZN18QFutureWatcherBase6resumeEv@Base 5.0.1
 _ZN18QFutureWatcherBase7resumedEv@Base 5.0.1
 _ZN18QFutureWatcherBase7startedEv@Base 5.0.1
 _ZN18QFutureWatcherBase8canceledEv@Base 5.0.1
 _ZN18QFutureWatcherBase8finishedEv@Base 5.0.1
 _ZN18QFutureWatcherBase9setPausedEb@Base 5.0.1
 _ZN18QFutureWatcherBaseC1EP7QObject@Base 5.0.1
 _ZN18QFutureWatcherBaseC2EP7QObject@Base 5.0.1
 _ZN18QFutureWatcherBaseD0Ev@Base 5.0.1
 _ZN18QFutureWatcherBaseD1Ev@Base 5.0.1
 _ZN18QFutureWatcherBaseD2Ev@Base 5.0.1
 _ZN18QMetaMethodBuilder11setRevisionEi@Base 5.0.1
 _ZN18QMetaMethodBuilder13setAttributesEi@Base 5.0.1
 _ZN18QMetaMethodBuilder13setReturnTypeERK10QByteArray@Base 5.0.1
 _ZN18QMetaMethodBuilder17setParameterNamesERK5QListI10QByteArrayE@Base 5.0.1
 _ZN18QMetaMethodBuilder6setTagERK10QByteArray@Base 5.0.1
 _ZN18QMetaMethodBuilder9setAccessEN11QMetaMethod6AccessE@Base 5.0.1
 _ZN18QMetaObjectBuilder11addPropertyERK10QByteArrayS2_i@Base 5.0.1
 _ZN18QMetaObjectBuilder11addPropertyERK13QMetaProperty@Base 5.0.1
 _ZN18QMetaObjectBuilder11deserializeER11QDataStreamRK4QMapI10QByteArrayPK11QMetaObjectE@Base 5.0.1
 _ZN18QMetaObjectBuilder11indexOfSlotERK10QByteArray@Base 5.0.1
 _ZN18QMetaObjectBuilder12addClassInfoERK10QByteArrayS2_@Base 5.0.1
 _ZN18QMetaObjectBuilder12removeMethodEi@Base 5.0.1
 _ZN18QMetaObjectBuilder12setClassNameERK10QByteArray@Base 5.0.1
 _ZN18QMetaObjectBuilder13addEnumeratorERK10QByteArray@Base 5.0.1
 _ZN18QMetaObjectBuilder13addEnumeratorERK9QMetaEnum@Base 5.0.1
 _ZN18QMetaObjectBuilder13addMetaObjectEPK11QMetaObject6QFlagsINS_9AddMemberEE@Base 5.0.1
 _ZN18QMetaObjectBuilder13indexOfMethodERK10QByteArray@Base 5.0.1
 _ZN18QMetaObjectBuilder13indexOfSignalERK10QByteArray@Base 5.0.1
 _ZN18QMetaObjectBuilder13setSuperClassEPK11QMetaObject@Base 5.0.1
 _ZN18QMetaObjectBuilder14addConstructorERK10QByteArray@Base 5.0.1
 _ZN18QMetaObjectBuilder14addConstructorERK11QMetaMethod@Base 5.0.1
 _ZN18QMetaObjectBuilder14removePropertyEi@Base 5.0.1
 _ZN18QMetaObjectBuilder15indexOfPropertyERK10QByteArray@Base 5.0.1
 _ZN18QMetaObjectBuilder15removeClassInfoEi@Base 5.0.1
 _ZN18QMetaObjectBuilder16indexOfClassInfoERK10QByteArray@Base 5.0.1
 _ZN18QMetaObjectBuilder16removeEnumeratorEi@Base 5.0.1
 _ZN18QMetaObjectBuilder17indexOfEnumeratorERK10QByteArray@Base 5.0.1
 _ZN18QMetaObjectBuilder17removeConstructorEi@Base 5.0.1
 _ZN18QMetaObjectBuilder18indexOfConstructorERK10QByteArray@Base 5.0.1
 _ZN18QMetaObjectBuilder19fromRelocatableDataEP11QMetaObjectPKS0_RK10QByteArray@Base 5.0.1
 _ZN18QMetaObjectBuilder20addRelatedMetaObjectEPK11QMetaObject@Base 5.0.1
 _ZN18QMetaObjectBuilder23removeRelatedMetaObjectEi@Base 5.0.1
 _ZN18QMetaObjectBuilder25setStaticMetacallFunctionEPFvP7QObjectN11QMetaObject4CallEiPPvE@Base 5.0.1
 _ZN18QMetaObjectBuilder7addSlotERK10QByteArray@Base 5.0.1
 _ZN18QMetaObjectBuilder8setFlagsE6QFlagsINS_14MetaObjectFlagEE@Base 5.0.1
 _ZN18QMetaObjectBuilder9addMethodERK10QByteArray@Base 5.0.1
 _ZN18QMetaObjectBuilder9addMethodERK10QByteArrayS2_@Base 5.0.1
 _ZN18QMetaObjectBuilder9addMethodERK11QMetaMethod@Base 5.0.1
 _ZN18QMetaObjectBuilder9addSignalERK10QByteArray@Base 5.0.1
 _ZN18QMetaObjectBuilderC1EPK11QMetaObject6QFlagsINS_9AddMemberEE@Base 5.0.1
 _ZN18QMetaObjectBuilderC1Ev@Base 5.0.1
 _ZN18QMetaObjectBuilderC2EPK11QMetaObject6QFlagsINS_9AddMemberEE@Base 5.0.1
 _ZN18QMetaObjectBuilderC2Ev@Base 5.0.1
 _ZN18QMetaObjectBuilderD0Ev@Base 5.0.1
 _ZN18QMetaObjectBuilderD1Ev@Base 5.0.1
 _ZN18QMetaObjectBuilderD2Ev@Base 5.0.1
 _ZN18QMetaObjectPrivate11signalIndexERK11QMetaMethod@Base 5.0.1
 _ZN18QMetaObjectPrivate12signalOffsetEPK11QMetaObject@Base 5.0.1
 _ZN18QMetaObjectPrivate19absoluteSignalCountEPK11QMetaObject@Base 5.0.1
 _ZN18QMetaObjectPrivate6signalEPK11QMetaObjecti@Base 5.0.1
 _ZN18QPropertyAnimation11qt_metacallEN11QMetaObject4CallEiPPv@Base 5.0.1
 _ZN18QPropertyAnimation11qt_metacastEPKc@Base 5.0.1
 _ZN18QPropertyAnimation11updateStateEN18QAbstractAnimation5StateES1_@Base 5.0.1
 _ZN18QPropertyAnimation15setPropertyNameERK10QByteArray@Base 5.0.1
 _ZN18QPropertyAnimation15setTargetObjectEP7QObject@Base 5.0.1
 _ZN18QPropertyAnimation16staticMetaObjectE@Base 5.0.1
 _ZN18QPropertyAnimation18updateCurrentValueERK8QVariant@Base 5.0.1
 _ZN18QPropertyAnimation5eventEP6QEvent@Base 5.0.1
 _ZN18QPropertyAnimationC1EP7QObject@Base 5.0.1
 _ZN18QPropertyAnimationC1EP7QObjectRK10QByteArrayS1_@Base 5.0.1
 _ZN18QPropertyAnimationC2EP7QObject@Base 5.0.1
 _ZN18QPropertyAnimationC2EP7QObjectRK10QByteArrayS1_@Base 5.0.1
 _ZN18QPropertyAnimationD0Ev@Base 5.0.1
 _ZN18QPropertyAnimationD1Ev@Base 5.0.1
 _ZN18QPropertyAnimationD2Ev@Base 5.0.1
 _ZN18QRegularExpression10setPatternERK7QString@Base 5.0.1
 _ZN18QRegularExpression17setPatternOptionsE6QFlagsINS_13PatternOptionEE@Base 5.0.1
 _ZN18QRegularExpression6escapeERK7QString@Base 5.0.1
 _ZN18QRegularExpressionC1ER25QRegularExpressionPrivate@Base 5.0.1
 _ZN18QRegularExpressionC1ERK7QString6QFlagsINS_13PatternOptionEE@Base 5.0.1
 _ZN18QRegularExpressionC1ERKS_@Base 5.0.1
 _ZN18QRegularExpressionC1Ev@Base 5.0.1
 _ZN18QRegularExpressionC2ER25QRegularExpressionPrivate@Base 5.0.1
 _ZN18QRegularExpressionC2ERK7QString6QFlagsINS_13PatternOptionEE@Base 5.0.1
 _ZN18QRegularExpressionC2ERKS_@Base 5.0.1
 _ZN18QRegularExpressionC2Ev@Base 5.0.1
 _ZN18QRegularExpressionD1Ev@Base 5.0.1
 _ZN18QRegularExpressionD2Ev@Base 5.0.1
 _ZN18QRegularExpressionaSERKS_@Base 5.0.1
 _ZN18QThreadPoolPrivate11enqueueTaskEP9QRunnablei@Base 5.0.1
 _ZN18QThreadPoolPrivate11startThreadEP9QRunnable@Base 5.0.1
 _ZN18QThreadPoolPrivate11waitForDoneEi@Base 5.0.1
 _ZN18QThreadPoolPrivate13stealRunnableEP9QRunnable@Base 5.0.1
 _ZN18QThreadPoolPrivate21tryToStartMoreThreadsEv@Base 5.0.1
 _ZN18QThreadPoolPrivate5resetEv@Base 5.0.1
 _ZN18QThreadPoolPrivate8tryStartEP9QRunnable@Base 5.0.1
 _ZN18QThreadPoolPrivateC1Ev@Base 5.0.1
 _ZN18QThreadPoolPrivateC2Ev@Base 5.0.1
 _ZN18QThreadPoolPrivateD0Ev@Base 5.0.1
 _ZN18QThreadPoolPrivateD1Ev@Base 5.0.1
 _ZN18QThreadPoolPrivateD2Ev@Base 5.0.1
 _ZN18QThreadStorageData3setEPv@Base 5.0.1
 _ZN18QThreadStorageData6finishEPPv@Base 5.0.1
 _ZN18QThreadStorageDataC1EPFvPvE@Base 5.0.1
 _ZN18QThreadStorageDataC2EPFvPvE@Base 5.0.1
 _ZN18QThreadStorageDataD1Ev@Base 5.0.1
 _ZN18QThreadStorageDataD2Ev@Base 5.0.1
 _ZN19QAbstractProxyModel11qt_metacallEN11QMetaObject4CallEiPPv@Base 5.0.1
 _ZN19QAbstractProxyModel11qt_metacastEPKc@Base 5.0.1
 _ZN19QAbstractProxyModel11setItemDataERK11QModelIndexRK4QMapIi8QVariantE@Base 5.0.1
 _ZN19QAbstractProxyModel13setHeaderDataEiN2Qt11OrientationERK8QVarianti@Base 5.0.1
 _ZN19QAbstractProxyModel14setSourceModelEP18QAbstractItemModel@Base 5.0.1
 _ZN19QAbstractProxyModel16staticMetaObjectE@Base 5.0.1
 _ZN19QAbstractProxyModel18sourceModelChangedENS_14QPrivateSignalE@Base 5.0.1
 _ZN19QAbstractProxyModel4sortEiN2Qt9SortOrderE@Base 5.0.1
 _ZN19QAbstractProxyModel6revertEv@Base 5.0.1
 _ZN19QAbstractProxyModel6submitEv@Base 5.0.1
 _ZN19QAbstractProxyModel7setDataERK11QModelIndexRK8QVarianti@Base 5.0.1
 _ZN19QAbstractProxyModel9fetchMoreERK11QModelIndex@Base 5.0.1
 _ZN19QAbstractProxyModelC1EP7QObject@Base 5.0.1
 _ZN19QAbstractProxyModelC1ER26QAbstractProxyModelPrivateP7QObject@Base 5.0.1
 _ZN19QAbstractProxyModelC2EP7QObject@Base 5.0.1
 _ZN19QAbstractProxyModelC2ER26QAbstractProxyModelPrivateP7QObject@Base 5.0.1
 _ZN19QAbstractProxyModelD0Ev@Base 5.0.1
 _ZN19QAbstractProxyModelD1Ev@Base 5.0.1
 _ZN19QAbstractProxyModelD2Ev@Base 5.0.1
 _ZN19QAbstractTableModel11qt_metacallEN11QMetaObject4CallEiPPv@Base 5.0.1
 _ZN19QAbstractTableModel11qt_metacastEPKc@Base 5.0.1
 _ZN19QAbstractTableModel12dropMimeDataEPK9QMimeDataN2Qt10DropActionEiiRK11QModelIndex@Base 5.0.1
 _ZN19QAbstractTableModel16staticMetaObjectE@Base 5.0.1
 _ZN19QAbstractTableModelC1EP7QObject@Base 5.0.1
 _ZN19QAbstractTableModelC1ER25QAbstractItemModelPrivateP7QObject@Base 5.0.1
 _ZN19QAbstractTableModelC2EP7QObject@Base 5.0.1
 _ZN19QAbstractTableModelC2ER25QAbstractItemModelPrivateP7QObject@Base 5.0.1
 _ZN19QAbstractTableModelD0Ev@Base 5.0.1
 _ZN19QAbstractTableModelD1Ev@Base 5.0.1
 _ZN19QAbstractTableModelD2Ev@Base 5.0.1
 _ZN19QAbstractTransition11qt_metacallEN11QMetaObject4CallEiPPv@Base 5.0.1
 _ZN19QAbstractTransition11qt_metacastEPKc@Base 5.0.1
 _ZN19QAbstractTransition12addAnimationEP18QAbstractAnimation@Base 5.0.1
 _ZN19QAbstractTransition14setTargetStateEP14QAbstractState@Base 5.0.1
 _ZN19QAbstractTransition15removeAnimationEP18QAbstractAnimation@Base 5.0.1
 _ZN19QAbstractTransition15setTargetStatesERK5QListIP14QAbstractStateE@Base 5.0.1
 _ZN19QAbstractTransition16staticMetaObjectE@Base 5.0.1
 _ZN19QAbstractTransition5eventEP6QEvent@Base 5.0.1
 _ZN19QAbstractTransition9triggeredENS_14QPrivateSignalE@Base 5.0.1
 _ZN19QAbstractTransitionC1EP6QState@Base 5.0.1
 _ZN19QAbstractTransitionC1ER26QAbstractTransitionPrivateP6QState@Base 5.0.1
 _ZN19QAbstractTransitionC2EP6QState@Base 5.0.1
 _ZN19QAbstractTransitionC2ER26QAbstractTransitionPrivateP6QState@Base 5.0.1
 _ZN19QAbstractTransitionD0Ev@Base 5.0.1
 _ZN19QAbstractTransitionD1Ev@Base 5.0.1
 _ZN19QAbstractTransitionD2Ev@Base 5.0.1
 _ZN19QIdentityProxyModel10insertRowsEiiRK11QModelIndex@Base 5.0.1
 _ZN19QIdentityProxyModel10removeRowsEiiRK11QModelIndex@Base 5.0.1
 _ZN19QIdentityProxyModel11qt_metacallEN11QMetaObject4CallEiPPv@Base 5.0.1
 _ZN19QIdentityProxyModel11qt_metacastEPKc@Base 5.0.1
 _ZN19QIdentityProxyModel12dropMimeDataEPK9QMimeDataN2Qt10DropActionEiiRK11QModelIndex@Base 5.0.1
 _ZN19QIdentityProxyModel13insertColumnsEiiRK11QModelIndex@Base 5.0.1
 _ZN19QIdentityProxyModel13removeColumnsEiiRK11QModelIndex@Base 5.0.1
 _ZN19QIdentityProxyModel14setSourceModelEP18QAbstractItemModel@Base 5.0.1
 _ZN19QIdentityProxyModel16staticMetaObjectE@Base 5.0.1
 _ZN19QIdentityProxyModelC1EP7QObject@Base 5.0.1
 _ZN19QIdentityProxyModelC1ER26QIdentityProxyModelPrivateP7QObject@Base 5.0.1
 _ZN19QIdentityProxyModelC2EP7QObject@Base 5.0.1
 _ZN19QIdentityProxyModelC2ER26QIdentityProxyModelPrivateP7QObject@Base 5.0.1
 _ZN19QIdentityProxyModelD0Ev@Base 5.0.1
 _ZN19QIdentityProxyModelD1Ev@Base 5.0.1
 _ZN19QIdentityProxyModelD2Ev@Base 5.0.1
 _ZN19QItemSelectionModel11qt_metacallEN11QMetaObject4CallEiPPv@Base 5.0.1
 _ZN19QItemSelectionModel11qt_metacastEPKc@Base 5.0.1
 _ZN19QItemSelectionModel14clearSelectionEv@Base 5.0.1
 _ZN19QItemSelectionModel14currentChangedERK11QModelIndexS2_@Base 5.0.1
 _ZN19QItemSelectionModel15setCurrentIndexERK11QModelIndex6QFlagsINS_13SelectionFlagEE@Base 5.0.1
 _ZN19QItemSelectionModel16selectionChangedERK14QItemSelectionS2_@Base 5.0.1
 _ZN19QItemSelectionModel16staticMetaObjectE@Base 5.0.1
 _ZN19QItemSelectionModel17clearCurrentIndexEv@Base 5.0.1
 _ZN19QItemSelectionModel17currentRowChangedERK11QModelIndexS2_@Base 5.0.1
 _ZN19QItemSelectionModel20currentColumnChangedERK11QModelIndexS2_@Base 5.0.1
 _ZN19QItemSelectionModel20emitSelectionChangedERK14QItemSelectionS2_@Base 5.0.1
 _ZN19QItemSelectionModel5clearEv@Base 5.0.1
 _ZN19QItemSelectionModel5resetEv@Base 5.0.1
 _ZN19QItemSelectionModel6selectERK11QModelIndex6QFlagsINS_13SelectionFlagEE@Base 5.0.1
 _ZN19QItemSelectionModel6selectERK14QItemSelection6QFlagsINS_13SelectionFlagEE@Base 5.0.1
 _ZN19QItemSelectionModelC1EP18QAbstractItemModel@Base 5.0.1
 _ZN19QItemSelectionModelC1EP18QAbstractItemModelP7QObject@Base 5.0.1
 _ZN19QItemSelectionModelC1ER26QItemSelectionModelPrivateP18QAbstractItemModel@Base 5.0.1
 _ZN19QItemSelectionModelC2EP18QAbstractItemModel@Base 5.0.1
 _ZN19QItemSelectionModelC2EP18QAbstractItemModelP7QObject@Base 5.0.1
 _ZN19QItemSelectionModelC2ER26QItemSelectionModelPrivateP18QAbstractItemModel@Base 5.0.1
 _ZN19QItemSelectionModelD0Ev@Base 5.0.1
 _ZN19QItemSelectionModelD1Ev@Base 5.0.1
 _ZN19QItemSelectionModelD2Ev@Base 5.0.1
 _ZN19QItemSelectionRangeD1Ev@Base 5.0.1
 _ZN19QItemSelectionRangeD2Ev@Base 5.0.1
 _ZN19QProcessEnvironment17systemEnvironmentEv@Base 5.0.1
 _ZN19QProcessEnvironment5clearEv@Base 5.0.1
 _ZN19QProcessEnvironment6insertERK7QStringS2_@Base 5.0.1
 _ZN19QProcessEnvironment6insertERKS_@Base 5.0.1
 _ZN19QProcessEnvironment6removeERK7QString@Base 5.0.1
 _ZN19QProcessEnvironmentC1ERKS_@Base 5.0.1
 _ZN19QProcessEnvironmentC1Ev@Base 5.0.1
 _ZN19QProcessEnvironmentC2ERKS_@Base 5.0.1
 _ZN19QProcessEnvironmentC2Ev@Base 5.0.1
 _ZN19QProcessEnvironmentD1Ev@Base 5.0.1
 _ZN19QProcessEnvironmentD2Ev@Base 5.0.1
 _ZN19QProcessEnvironmentaSERKS_@Base 5.0.1
 _ZN19QTextBoundaryFinder11setPositionEi@Base 5.0.1
 _ZN19QTextBoundaryFinder14toNextBoundaryEv@Base 5.0.1
 _ZN19QTextBoundaryFinder18toPreviousBoundaryEv@Base 5.0.1
 _ZN19QTextBoundaryFinder5toEndEv@Base 5.0.1
 _ZN19QTextBoundaryFinder7toStartEv@Base 5.0.1
 _ZN19QTextBoundaryFinderC1ENS_12BoundaryTypeEPK5QChariPhi@Base 5.0.1
 _ZN19QTextBoundaryFinderC1ENS_12BoundaryTypeERK7QString@Base 5.0.1
 _ZN19QTextBoundaryFinderC1ERKS_@Base 5.0.1
 _ZN19QTextBoundaryFinderC1Ev@Base 5.0.1
 _ZN19QTextBoundaryFinderC2ENS_12BoundaryTypeEPK5QChariPhi@Base 5.0.1
 _ZN19QTextBoundaryFinderC2ENS_12BoundaryTypeERK7QString@Base 5.0.1
 _ZN19QTextBoundaryFinderC2ERKS_@Base 5.0.1
 _ZN19QTextBoundaryFinderC2Ev@Base 5.0.1
 _ZN19QTextBoundaryFinderD1Ev@Base 5.0.1
 _ZN19QTextBoundaryFinderD2Ev@Base 5.0.1
 _ZN19QTextBoundaryFinderaSERKS_@Base 5.0.1
 _ZN19QUnhandledExceptionD0Ev@Base 5.0.1
 _ZN19QUnhandledExceptionD1Ev@Base 5.0.1
 _ZN19QUnhandledExceptionD2Ev@Base 5.0.1
 _ZN19QXmlStreamAttributeC1ERK7QStringS2_@Base 5.0.1
 _ZN19QXmlStreamAttributeC1ERK7QStringS2_S2_@Base 5.0.1
 _ZN19QXmlStreamAttributeC1ERKS_@Base 5.0.1
 _ZN19QXmlStreamAttributeC1Ev@Base 5.0.1
 _ZN19QXmlStreamAttributeC2ERK7QStringS2_@Base 5.0.1
 _ZN19QXmlStreamAttributeC2ERK7QStringS2_S2_@Base 5.0.1
 _ZN19QXmlStreamAttributeC2ERKS_@Base 5.0.1
 _ZN19QXmlStreamAttributeC2Ev@Base 5.0.1
 _ZN19QXmlStreamAttributeD1Ev@Base 5.0.1
 _ZN19QXmlStreamAttributeD2Ev@Base 5.0.1
 _ZN19QXmlStreamAttributeaSERKS_@Base 5.0.1
 _ZN20QContiguousCacheData12allocateDataEii@Base 5.0.1
 _ZN20QContiguousCacheData8freeDataEPS_@Base 5.0.1
 _ZN20QDeferredDeleteEventC1Ev@Base 5.0.1
 _ZN20QDeferredDeleteEventC2Ev@Base 5.0.1
 _ZN20QDeferredDeleteEventD0Ev@Base 5.0.1
 _ZN20QDeferredDeleteEventD1Ev@Base 5.0.1
 _ZN20QDeferredDeleteEventD2Ev@Base 5.0.1
 _ZN20QEventDispatcherGlib11qt_metacallEN11QMetaObject4CallEiPPv@Base 5.0.1
 _ZN20QEventDispatcherGlib11qt_metacastEPKc@Base 5.0.1
 _ZN20QEventDispatcherGlib13processEventsE6QFlagsIN10QEventLoop17ProcessEventsFlagEE@Base 5.0.1
 _ZN20QEventDispatcherGlib13registerTimerEiiN2Qt9TimerTypeEP7QObject@Base 5.0.1
 _ZN20QEventDispatcherGlib13remainingTimeEi@Base 5.0.1
 _ZN20QEventDispatcherGlib15unregisterTimerEi@Base 5.0.1
 _ZN20QEventDispatcherGlib16hasPendingEventsEv@Base 5.0.1
 _ZN20QEventDispatcherGlib16staticMetaObjectE@Base 5.0.1
 _ZN20QEventDispatcherGlib16unregisterTimersEP7QObject@Base 5.0.1
 _ZN20QEventDispatcherGlib16versionSupportedEv@Base 5.0.1
 _ZN20QEventDispatcherGlib22registerSocketNotifierEP15QSocketNotifier@Base 5.0.1
 _ZN20QEventDispatcherGlib24unregisterSocketNotifierEP15QSocketNotifier@Base 5.0.1
 _ZN20QEventDispatcherGlib5flushEv@Base 5.0.1
 _ZN20QEventDispatcherGlib6wakeUpEv@Base 5.0.1
 _ZN20QEventDispatcherGlib9interruptEv@Base 5.0.1
 _ZN20QEventDispatcherGlibC1EP13_GMainContextP7QObject@Base 5.0.1
 _ZN20QEventDispatcherGlibC1EP7QObject@Base 5.0.1
 _ZN20QEventDispatcherGlibC1ER27QEventDispatcherGlibPrivateP7QObject@Base 5.0.1
 _ZN20QEventDispatcherGlibC2EP13_GMainContextP7QObject@Base 5.0.1
 _ZN20QEventDispatcherGlibC2EP7QObject@Base 5.0.1
 _ZN20QEventDispatcherGlibC2ER27QEventDispatcherGlibPrivateP7QObject@Base 5.0.1
 _ZN20QEventDispatcherGlibD0Ev@Base 5.0.1
 _ZN20QEventDispatcherGlibD1Ev@Base 5.0.1
 _ZN20QEventDispatcherGlibD2Ev@Base 5.0.1
 _ZN20QEventDispatcherUNIX11qt_metacallEN11QMetaObject4CallEiPPv@Base 5.0.1
 _ZN20QEventDispatcherUNIX11qt_metacastEPKc@Base 5.0.1
 _ZN20QEventDispatcherUNIX13processEventsE6QFlagsIN10QEventLoop17ProcessEventsFlagEE@Base 5.0.1
 _ZN20QEventDispatcherUNIX13registerTimerEiiN2Qt9TimerTypeEP7QObject@Base 5.0.1
 _ZN20QEventDispatcherUNIX13remainingTimeEi@Base 5.0.1
 _ZN20QEventDispatcherUNIX14activateTimersEv@Base 5.0.1
 _ZN20QEventDispatcherUNIX15unregisterTimerEi@Base 5.0.1
 _ZN20QEventDispatcherUNIX16hasPendingEventsEv@Base 5.0.1
 _ZN20QEventDispatcherUNIX16staticMetaObjectE@Base 5.0.1
 _ZN20QEventDispatcherUNIX16unregisterTimersEP7QObject@Base 5.0.1
 _ZN20QEventDispatcherUNIX22registerSocketNotifierEP15QSocketNotifier@Base 5.0.1
 _ZN20QEventDispatcherUNIX23activateSocketNotifiersEv@Base 5.0.1
 _ZN20QEventDispatcherUNIX24setSocketNotifierPendingEP15QSocketNotifier@Base 5.0.1
 _ZN20QEventDispatcherUNIX24unregisterSocketNotifierEP15QSocketNotifier@Base 5.0.1
 _ZN20QEventDispatcherUNIX5flushEv@Base 5.0.1
 _ZN20QEventDispatcherUNIX6selectEiP6fd_setS1_S1_P7timeval@Base 5.0.1
 _ZN20QEventDispatcherUNIX6wakeUpEv@Base 5.0.1
 _ZN20QEventDispatcherUNIX9interruptEv@Base 5.0.1
 _ZN20QEventDispatcherUNIXC1EP7QObject@Base 5.0.1
 _ZN20QEventDispatcherUNIXC1ER27QEventDispatcherUNIXPrivateP7QObject@Base 5.0.1
 _ZN20QEventDispatcherUNIXC2EP7QObject@Base 5.0.1
 _ZN20QEventDispatcherUNIXC2ER27QEventDispatcherUNIXPrivateP7QObject@Base 5.0.1
 _ZN20QEventDispatcherUNIXD0Ev@Base 5.0.1
 _ZN20QEventDispatcherUNIXD1Ev@Base 5.0.1
 _ZN20QEventDispatcherUNIXD2Ev@Base 5.0.1
 _ZN20QFutureInterfaceBase11setRunnableEP9QRunnable@Base 5.0.1
 _ZN20QFutureInterfaceBase12setThrottledEb@Base 5.0.1
 _ZN20QFutureInterfaceBase12togglePausedEv@Base 5.0.1
 _ZN20QFutureInterfaceBase13reportStartedEv@Base 5.0.1
 _ZN20QFutureInterfaceBase13setFilterModeEb@Base 5.0.1
 _ZN20QFutureInterfaceBase13waitForResultEi@Base 5.0.1
 _ZN20QFutureInterfaceBase13waitForResumeEv@Base 5.0.1
 _ZN20QFutureInterfaceBase14exceptionStoreEv@Base 5.0.1
 _ZN20QFutureInterfaceBase14reportCanceledEv@Base 5.0.1
 _ZN20QFutureInterfaceBase14reportFinishedEv@Base 5.0.1
 _ZN20QFutureInterfaceBase15reportExceptionERK10QException@Base 5.0.1
 _ZN20QFutureInterfaceBase15resultStoreBaseEv@Base 5.0.1
 _ZN20QFutureInterfaceBase15waitForFinishedEv@Base 5.0.1
 _ZN20QFutureInterfaceBase16setProgressRangeEii@Base 5.0.1
 _ZN20QFutureInterfaceBase16setProgressValueEi@Base 5.0.1
 _ZN20QFutureInterfaceBase17waitForNextResultEv@Base 5.0.1
 _ZN20QFutureInterfaceBase18reportResultsReadyEii@Base 5.0.1
 _ZN20QFutureInterfaceBase19expectedResultCountEv@Base 5.0.1
 _ZN20QFutureInterfaceBase22setExpectedResultCountEi@Base 5.0.1
 _ZN20QFutureInterfaceBase23setProgressValueAndTextEiRK7QString@Base 5.0.1
 _ZN20QFutureInterfaceBase6cancelEv@Base 5.0.1
 _ZN20QFutureInterfaceBase9setPausedEb@Base 5.0.1
 _ZN20QFutureInterfaceBaseC1ENS_5StateE@Base 5.0.1
 _ZN20QFutureInterfaceBaseC1ERKS_@Base 5.0.1
 _ZN20QFutureInterfaceBaseC2ENS_5StateE@Base 5.0.1
 _ZN20QFutureInterfaceBaseC2ERKS_@Base 5.0.1
 _ZN20QFutureInterfaceBaseD0Ev@Base 5.0.1
 _ZN20QFutureInterfaceBaseD1Ev@Base 5.0.1
 _ZN20QFutureInterfaceBaseD2Ev@Base 5.0.1
 _ZN20QFutureInterfaceBaseaSERKS_@Base 5.0.1
 _ZN20QMetaPropertyBuilder11setConstantEb@Base 5.0.1
 _ZN20QMetaPropertyBuilder11setEditableEb@Base 5.0.1
 _ZN20QMetaPropertyBuilder11setReadableEb@Base 5.0.1
 _ZN20QMetaPropertyBuilder11setRevisionEi@Base 5.0.1
 _ZN20QMetaPropertyBuilder11setWritableEb@Base 5.0.1
 _ZN20QMetaPropertyBuilder12setStdCppSetEb@Base 5.0.1
 _ZN20QMetaPropertyBuilder13setDesignableEb@Base 5.0.1
 _ZN20QMetaPropertyBuilder13setEnumOrFlagEb@Base 5.0.1
 _ZN20QMetaPropertyBuilder13setResettableEb@Base 5.0.1
 _ZN20QMetaPropertyBuilder13setScriptableEb@Base 5.0.1
 _ZN20QMetaPropertyBuilder15setNotifySignalERK18QMetaMethodBuilder@Base 5.0.1
 _ZN20QMetaPropertyBuilder18removeNotifySignalEv@Base 5.0.1
 _ZN20QMetaPropertyBuilder7setUserEb@Base 5.0.1
 _ZN20QMetaPropertyBuilder8setFinalEb@Base 5.0.1
 _ZN20QMetaPropertyBuilder9setStoredEb@Base 5.0.1
 _ZN20QStateMachinePrivate10_q_processEv@Base 5.0.1
 _ZN20QStateMachinePrivate10exitStatesEP6QEventRK5QListIP14QAbstractStateERK5QHashIS4_S2_I19QPropertyAssignmentEE@Base 5.0.1
 _ZN20QStateMachinePrivate10isParallelEPK14QAbstractState@Base 5.0.1
 _ZN20QStateMachinePrivate11enterStatesEP6QEventRK5QListIP14QAbstractStateES7_RK4QSetIS4_ER5QHashIS4_S2_I19QPropertyAssignmentEERKS2_IP18QAbstractAnimationE@Base 5.0.1
 _ZN20QStateMachinePrivate12clearHistoryEv@Base 5.0.1
 _ZN20QStateMachinePrivate12toFinalStateEP14QAbstractState@Base 5.0.1
 _ZN20QStateMachinePrivate13processEventsENS_19EventProcessingModeE@Base 5.0.1
 _ZN20QStateMachinePrivate14findErrorStateEP14QAbstractState@Base 5.0.1
 _ZN20QStateMachinePrivate14isDescendantOfEPK14QAbstractStateS2_@Base 5.0.1
 _ZN20QStateMachinePrivate14toHistoryStateEP14QAbstractState@Base 5.0.1
 _ZN20QStateMachinePrivate15properAncestorsEPK14QAbstractStatePK6QState@Base 5.0.1
 _ZN20QStateMachinePrivate15toStandardStateEP14QAbstractState@Base 5.0.1
 _ZN20QStateMachinePrivate15toStandardStateEPK14QAbstractState@Base 5.0.1
 _ZN20QStateMachinePrivate16addStatesToEnterEP14QAbstractStateP6QStateR4QSetIS1_ES6_@Base 5.0.1
 _ZN20QStateMachinePrivate17postExternalEventEP6QEvent@Base 5.0.1
 _ZN20QStateMachinePrivate17postInternalEventEP6QEvent@Base 5.0.1
 _ZN20QStateMachinePrivate17stateExitLessThanEP14QAbstractStateS1_@Base 5.0.1
 _ZN20QStateMachinePrivate18registerRestorableEP14QAbstractStateP7QObjectRK10QByteArrayRK8QVariant@Base 5.0.1
 _ZN20QStateMachinePrivate18registerTransitionEP19QAbstractTransition@Base 5.0.1
 _ZN20QStateMachinePrivate18stateEntryLessThanEP14QAbstractStateS1_@Base 5.0.1
 _ZN20QStateMachinePrivate19computeStatesToExitERK5QListIP19QAbstractTransitionE@Base 5.0.1
 _ZN20QStateMachinePrivate19handleFilteredEventEP7QObjectP6QEvent@Base 5.0.1
 _ZN20QStateMachinePrivate19initializeAnimationEP18QAbstractAnimationRK19QPropertyAssignment@Base 5.0.1
 _ZN20QStateMachinePrivate19registerTransitionsEP14QAbstractState@Base 5.0.1
 _ZN20QStateMachinePrivate20_q_animationFinishedEv@Base 5.0.1
 _ZN20QStateMachinePrivate20computeStatesToEnterERK5QListIP19QAbstractTransitionER4QSetIP14QAbstractStateE@Base 5.0.1
 _ZN20QStateMachinePrivate20dequeueExternalEventEv@Base 5.0.1
 _ZN20QStateMachinePrivate20dequeueInternalEventEv@Base 5.0.1
 _ZN20QStateMachinePrivate20initializeAnimationsEP14QAbstractStateRK5QListIP18QAbstractAnimationERKS2_IS1_ER5QHashIS1_S2_I19QPropertyAssignmentEE@Base 5.0.1
 _ZN20QStateMachinePrivate20unregisterTransitionEP19QAbstractTransition@Base 5.0.1
 _ZN20QStateMachinePrivate21unregisterRestorablesERK5QListIP14QAbstractStateEP7QObjectRK10QByteArray@Base 5.0.1
 _ZN20QStateMachinePrivate22cancelAllDelayedEventsEv@Base 5.0.1
 _ZN20QStateMachinePrivate22handleTransitionSignalEP7QObjectiPPv@Base 5.0.1
 _ZN20QStateMachinePrivate23maybeRegisterTransitionEP19QAbstractTransition@Base 5.0.1
 _ZN20QStateMachinePrivate23registerEventTransitionEP16QEventTransition@Base 5.0.1
 _ZN20QStateMachinePrivate24_q_killDelayedEventTimerEii@Base 5.0.1
 _ZN20QStateMachinePrivate24addAncestorStatesToEnterEP14QAbstractStateP6QStateR4QSetIS1_ES6_@Base 5.0.1
 _ZN20QStateMachinePrivate24executeTransitionContentEP6QEventRK5QListIP19QAbstractTransitionE@Base 5.0.1
 _ZN20QStateMachinePrivate24registerSignalTransitionEP17QSignalTransition@Base 5.0.1
 _ZN20QStateMachinePrivate24unregisterAllTransitionsEv@Base 5.0.1
 _ZN20QStateMachinePrivate25_q_startDelayedEventTimerEii@Base 5.0.1
 _ZN20QStateMachinePrivate25isExternalEventQueueEmptyEv@Base 5.0.1
 _ZN20QStateMachinePrivate25isInternalEventQueueEmptyEv@Base 5.0.1
 _ZN20QStateMachinePrivate25terminateActiveAnimationsEP14QAbstractStateRK5QHashIS1_5QListI19QPropertyAssignmentEE@Base 5.0.1
 _ZN20QStateMachinePrivate25unregisterEventTransitionEP16QEventTransition@Base 5.0.1
 _ZN20QStateMachinePrivate26unregisterSignalTransitionEP17QSignalTransition@Base 5.0.1
 _ZN20QStateMachinePrivate28maybeRegisterEventTransitionEP16QEventTransition@Base 5.0.1
 _ZN20QStateMachinePrivate29maybeRegisterSignalTransitionEP17QSignalTransition@Base 5.0.1
 _ZN20QStateMachinePrivate38registerMultiThreadedSignalTransitionsEv@Base 5.0.1
 _ZN20QStateMachinePrivate3getEP13QStateMachine@Base 5.0.1
 _ZN20QStateMachinePrivate7handlerE@Base 5.0.1
 _ZN20QStateMachinePrivate7isFinalEPK14QAbstractState@Base 5.0.1
 _ZN20QStateMachinePrivate8_q_startEv@Base 5.0.1
 _ZN20QStateMachinePrivate8setErrorEN13QStateMachine5ErrorEP14QAbstractState@Base 5.0.1
 _ZN20QStateMachinePrivate9goToStateEP14QAbstractState@Base 5.0.1
 _ZN20QStateMachinePrivate9microstepEP6QEventRK5QListIP19QAbstractTransitionE@Base 5.0.1
 _ZN20QStateMachinePrivateC1Ev@Base 5.0.1
 _ZN20QStateMachinePrivateC2Ev@Base 5.0.1
 _ZN20QStateMachinePrivateD0Ev@Base 5.0.1
 _ZN20QStateMachinePrivateD1Ev@Base 5.0.1
 _ZN20QStateMachinePrivateD2Ev@Base 5.0.1
 _ZN20QXmlStreamAttributes6appendERK7QStringS2_@Base 5.0.1
 _ZN20QXmlStreamAttributes6appendERK7QStringS2_S2_@Base 5.0.1
 _ZN21QAbstractConcatenable16convertFromAsciiEPKciRP5QChar@Base 5.0.1
 _ZN21QObjectCleanupHandler11qt_metacallEN11QMetaObject4CallEiPPv@Base 5.0.1
 _ZN21QObjectCleanupHandler11qt_metacastEPKc@Base 5.0.1
 _ZN21QObjectCleanupHandler15objectDestroyedEP7QObject@Base 5.0.1
 _ZN21QObjectCleanupHandler16staticMetaObjectE@Base 5.0.1
 _ZN21QObjectCleanupHandler3addEP7QObject@Base 5.0.1
 _ZN21QObjectCleanupHandler5clearEv@Base 5.0.1
 _ZN21QObjectCleanupHandler6removeEP7QObject@Base 5.0.1
 _ZN21QObjectCleanupHandlerC1Ev@Base 5.0.1
 _ZN21QObjectCleanupHandlerC2Ev@Base 5.0.1
 _ZN21QObjectCleanupHandlerD0Ev@Base 5.0.1
 _ZN21QObjectCleanupHandlerD1Ev@Base 5.0.1
 _ZN21QObjectCleanupHandlerD2Ev@Base 5.0.1
 _ZN21QPersistentModelIndexC1ERK11QModelIndex@Base 5.0.1
 _ZN21QPersistentModelIndexC1ERKS_@Base 5.0.1
 _ZN21QPersistentModelIndexC1Ev@Base 5.0.1
 _ZN21QPersistentModelIndexC2ERK11QModelIndex@Base 5.0.1
 _ZN21QPersistentModelIndexC2ERKS_@Base 5.0.1
 _ZN21QPersistentModelIndexC2Ev@Base 5.0.1
 _ZN21QPersistentModelIndexD1Ev@Base 5.0.1
 _ZN21QPersistentModelIndexD2Ev@Base 5.0.1
 _ZN21QPersistentModelIndexaSERK11QModelIndex@Base 5.0.1
 _ZN21QPersistentModelIndexaSERKS_@Base 5.0.1
 _ZN21QSortFilterProxyModel10insertRowsEiiRK11QModelIndex@Base 5.0.1
 _ZN21QSortFilterProxyModel10invalidateEv@Base 5.0.1
 _ZN21QSortFilterProxyModel10removeRowsEiiRK11QModelIndex@Base 5.0.1
 _ZN21QSortFilterProxyModel11qt_metacallEN11QMetaObject4CallEiPPv@Base 5.0.1
 _ZN21QSortFilterProxyModel11qt_metacastEPKc@Base 5.0.1
 _ZN21QSortFilterProxyModel11setSortRoleEi@Base 5.0.1
 _ZN21QSortFilterProxyModel12dropMimeDataEPK9QMimeDataN2Qt10DropActionEiiRK11QModelIndex@Base 5.0.1
 _ZN21QSortFilterProxyModel13filterChangedEv@Base 5.0.1
 _ZN21QSortFilterProxyModel13insertColumnsEiiRK11QModelIndex@Base 5.0.1
 _ZN21QSortFilterProxyModel13removeColumnsEiiRK11QModelIndex@Base 5.0.1
 _ZN21QSortFilterProxyModel13setFilterRoleEi@Base 5.0.1
 _ZN21QSortFilterProxyModel13setHeaderDataEiN2Qt11OrientationERK8QVarianti@Base 5.0.1
 _ZN21QSortFilterProxyModel14setSourceModelEP18QAbstractItemModel@Base 5.0.1
 _ZN21QSortFilterProxyModel15setFilterRegExpERK7QRegExp@Base 5.0.1
 _ZN21QSortFilterProxyModel15setFilterRegExpERK7QString@Base 5.0.1
 _ZN21QSortFilterProxyModel16invalidateFilterEv@Base 5.0.1
 _ZN21QSortFilterProxyModel16staticMetaObjectE@Base 5.0.1
 _ZN21QSortFilterProxyModel17setFilterWildcardERK7QString@Base 5.0.1
 _ZN21QSortFilterProxyModel18setFilterKeyColumnEi@Base 5.0.1
 _ZN21QSortFilterProxyModel18setSortLocaleAwareEb@Base 5.0.1
 _ZN21QSortFilterProxyModel20setDynamicSortFilterEb@Base 5.0.1
 _ZN21QSortFilterProxyModel20setFilterFixedStringERK7QString@Base 5.0.1
 _ZN21QSortFilterProxyModel22setSortCaseSensitivityEN2Qt15CaseSensitivityE@Base 5.0.1
 _ZN21QSortFilterProxyModel24setFilterCaseSensitivityEN2Qt15CaseSensitivityE@Base 5.0.1
 _ZN21QSortFilterProxyModel4sortEiN2Qt9SortOrderE@Base 5.0.1
 _ZN21QSortFilterProxyModel5clearEv@Base 5.0.1
 _ZN21QSortFilterProxyModel7setDataERK11QModelIndexRK8QVarianti@Base 5.0.1
 _ZN21QSortFilterProxyModel9fetchMoreERK11QModelIndex@Base 5.0.1
 _ZN21QSortFilterProxyModelC1EP7QObject@Base 5.0.1
 _ZN21QSortFilterProxyModelC2EP7QObject@Base 5.0.1
 _ZN21QSortFilterProxyModelD0Ev@Base 5.0.1
 _ZN21QSortFilterProxyModelD1Ev@Base 5.0.1
 _ZN21QSortFilterProxyModelD2Ev@Base 5.0.1
 _ZN23QAbstractAnimationTimer11qt_metacallEN11QMetaObject4CallEiPPv@Base 5.0.1
 _ZN23QAbstractAnimationTimer11qt_metacastEPKc@Base 5.0.1
 _ZN23QAbstractAnimationTimer16staticMetaObjectE@Base 5.0.1
 _ZN23QAbstractAnimationTimerD0Ev@Base 5.0.1
 _ZN23QAbstractAnimationTimerD1Ev@Base 5.0.1
 _ZN23QAbstractAnimationTimerD2Ev@Base 5.0.1
 _ZN23QAnimationDriverPrivateD0Ev@Base 5.0.1
 _ZN23QAnimationDriverPrivateD1Ev@Base 5.0.1
 _ZN23QAnimationDriverPrivateD2Ev@Base 5.0.1
 _ZN23QCoreApplicationPrivate10initLocaleEv@Base 5.0.1
 _ZN23QCoreApplicationPrivate10mainThreadEv@Base 5.0.1
 _ZN23QCoreApplicationPrivate13checkInstanceEPKc@Base 5.0.1
 _ZN23QCoreApplicationPrivate13notify_helperEP7QObjectP6QEvent@Base 5.0.1
 _ZN23QCoreApplicationPrivate13theMainThreadE@Base 5.0.1
 _ZN23QCoreApplicationPrivate14is_app_closingE@Base 5.0.1
 _ZN23QCoreApplicationPrivate14is_app_runningE@Base 5.0.1
 _ZN23QCoreApplicationPrivate15eventDispatcherE@Base 5.0.1
 _ZN23QCoreApplicationPrivate16sendPostedEventsEP7QObjectiP11QThreadData@Base 5.0.1
 _ZN23QCoreApplicationPrivate17cleanupThreadDataEv@Base 5.0.1
 _ZN23QCoreApplicationPrivate17removePostedEventEP6QEvent@Base 5.0.1
 _ZN23QCoreApplicationPrivate19app_compile_versionE@Base 5.0.1
 _ZN23QCoreApplicationPrivate21createEventDispatcherEv@Base 5.0.1
 _ZN23QCoreApplicationPrivate21isTranslatorInstalledEP11QTranslator@Base 5.0.1
 _ZN23QCoreApplicationPrivate27processCommandLineArgumentsEv@Base 5.0.1
 _ZN23QCoreApplicationPrivate29sendThroughObjectEventFiltersEP7QObjectP6QEvent@Base 5.0.1
 _ZN23QCoreApplicationPrivate34sendThroughApplicationEventFiltersEP7QObjectP6QEvent@Base 5.0.1
 _ZN23QCoreApplicationPrivate35appendApplicationPathToLibraryPathsEv@Base 5.0.1
 _ZN23QCoreApplicationPrivate3refEv@Base 5.0.1
 _ZN23QCoreApplicationPrivate5derefEv@Base 5.0.1
 _ZN23QCoreApplicationPrivate7attribsE@Base 5.0.1
 _ZN23QCoreApplicationPrivate9maybeQuitEv@Base 5.0.1
 _ZN23QCoreApplicationPrivateC1ERiPPcj@Base 5.0.1
 _ZN23QCoreApplicationPrivateC2ERiPPcj@Base 5.0.1
 _ZN23QCoreApplicationPrivateD0Ev@Base 5.0.1
 _ZN23QCoreApplicationPrivateD1Ev@Base 5.0.1
 _ZN23QCoreApplicationPrivateD2Ev@Base 5.0.1
 _ZN23QEventTransitionPrivate10unregisterEv@Base 5.0.1
 _ZN23QEventTransitionPrivate13maybeRegisterEv@Base 5.0.1
 _ZN23QEventTransitionPrivate3getEP16QEventTransition@Base 5.0.1
 _ZN23QEventTransitionPrivateC1Ev@Base 5.0.1
 _ZN23QEventTransitionPrivateC2Ev@Base 5.0.1
 _ZN23QEventTransitionPrivateD0Ev@Base 5.0.1
 _ZN23QEventTransitionPrivateD1Ev@Base 5.0.1
 _ZN23QEventTransitionPrivateD2Ev@Base 5.0.1
 _ZN23QParallelAnimationGroup11qt_metacallEN11QMetaObject4CallEiPPv@Base 5.0.1
 _ZN23QParallelAnimationGroup11qt_metacastEPKc@Base 5.0.1
 _ZN23QParallelAnimationGroup11updateStateEN18QAbstractAnimation5StateES1_@Base 5.0.1
 _ZN23QParallelAnimationGroup15updateDirectionEN18QAbstractAnimation9DirectionE@Base 5.0.1
 _ZN23QParallelAnimationGroup16staticMetaObjectE@Base 5.0.1
 _ZN23QParallelAnimationGroup17updateCurrentTimeEi@Base 5.0.1
 _ZN23QParallelAnimationGroup5eventEP6QEvent@Base 5.0.1
 _ZN23QParallelAnimationGroupC1EP7QObject@Base 5.0.1
 _ZN23QParallelAnimationGroupC1ER30QParallelAnimationGroupPrivateP7QObject@Base 5.0.1
 _ZN23QParallelAnimationGroupC2EP7QObject@Base 5.0.1
 _ZN23QParallelAnimationGroupC2ER30QParallelAnimationGroupPrivateP7QObject@Base 5.0.1
 _ZN23QParallelAnimationGroupD0Ev@Base 5.0.1
 _ZN23QParallelAnimationGroupD1Ev@Base 5.0.1
 _ZN23QParallelAnimationGroupD2Ev@Base 5.0.1
 _ZN23QRegularExpressionMatchC1ER30QRegularExpressionMatchPrivate@Base 5.0.1
 _ZN23QRegularExpressionMatchC1ERKS_@Base 5.0.1
 _ZN23QRegularExpressionMatchC2ER30QRegularExpressionMatchPrivate@Base 5.0.1
 _ZN23QRegularExpressionMatchC2ERKS_@Base 5.0.1
 _ZN23QRegularExpressionMatchD1Ev@Base 5.0.1
 _ZN23QRegularExpressionMatchD2Ev@Base 5.0.1
 _ZN23QRegularExpressionMatchaSERKS_@Base 5.0.1
 _ZN24QAbstractDeclarativeData13parentChangedE@Base 5.0.1
 _ZN24QAbstractDeclarativeData13signalEmittedE@Base 5.0.1
 _ZN24QAbstractDeclarativeData17isSignalConnectedE@Base 5.0.1
 _ZN24QAbstractDeclarativeData9destroyedE@Base 5.0.1
 _ZN24QAbstractDeclarativeData9receiversE@Base 5.0.1
 _ZN24QAbstractEventDispatcher10startingUpEv@Base 5.0.1
 _ZN24QAbstractEventDispatcher11closingDownEv@Base 5.0.1
 _ZN24QAbstractEventDispatcher11qt_metacallEN11QMetaObject4CallEiPPv@Base 5.0.1
 _ZN24QAbstractEventDispatcher11qt_metacastEPKc@Base 5.0.1
 _ZN24QAbstractEventDispatcher12aboutToBlockEv@Base 5.0.1
 _ZN24QAbstractEventDispatcher13registerTimerEiN2Qt9TimerTypeEP7QObject@Base 5.0.1
 _ZN24QAbstractEventDispatcher16staticMetaObjectE@Base 5.0.1
 _ZN24QAbstractEventDispatcher17filterNativeEventERK10QByteArrayPvPl@Base 5.0.1
 _ZN24QAbstractEventDispatcher23removeNativeEventFilterEP26QAbstractNativeEventFilter@Base 5.0.1
 _ZN24QAbstractEventDispatcher24installNativeEventFilterEP26QAbstractNativeEventFilter@Base 5.0.1
 _ZN24QAbstractEventDispatcher5awakeEv@Base 5.0.1
 _ZN24QAbstractEventDispatcher8instanceEP7QThread@Base 5.0.1
 _ZN24QAbstractEventDispatcherC1EP7QObject@Base 5.0.1
 _ZN24QAbstractEventDispatcherC1ER31QAbstractEventDispatcherPrivateP7QObject@Base 5.0.1
 _ZN24QAbstractEventDispatcherC2EP7QObject@Base 5.0.1
 _ZN24QAbstractEventDispatcherC2ER31QAbstractEventDispatcherPrivateP7QObject@Base 5.0.1
 _ZN24QAbstractEventDispatcherD0Ev@Base 5.0.1
 _ZN24QAbstractEventDispatcherD1Ev@Base 5.0.1
 _ZN24QAbstractEventDispatcherD2Ev@Base 5.0.1
 _ZN24QNonContiguousByteDevice11qt_metacallEN11QMetaObject4CallEiPPv@Base 5.0.1
 _ZN24QNonContiguousByteDevice11qt_metacastEPKc@Base 5.0.1
 _ZN24QNonContiguousByteDevice12disableResetEv@Base 5.0.1
 _ZN24QNonContiguousByteDevice12readProgressExx@Base 5.0.1
 _ZN24QNonContiguousByteDevice16staticMetaObjectE@Base 5.0.1
 _ZN24QNonContiguousByteDevice9readyReadEv@Base 5.0.1
 _ZN24QNonContiguousByteDeviceC1Ev@Base 5.0.1
 _ZN24QNonContiguousByteDeviceC2Ev@Base 5.0.1
 _ZN24QNonContiguousByteDeviceD0Ev@Base 5.0.1
 _ZN24QNonContiguousByteDeviceD1Ev@Base 5.0.1
 _ZN24QNonContiguousByteDeviceD2Ev@Base 5.0.1
 _ZN24QVariantAnimationPrivate15getInterpolatorEi@Base 5.0.1
 _ZN24QXmlStreamEntityResolver13resolveEntityERK7QStringS2_@Base 5.0.1
 _ZN24QXmlStreamEntityResolver23resolveUndeclaredEntityERK7QString@Base 5.0.1
 _ZN24QXmlStreamEntityResolverD0Ev@Base 5.0.1
 _ZN24QXmlStreamEntityResolverD1Ev@Base 5.0.1
 _ZN24QXmlStreamEntityResolverD2Ev@Base 5.0.1
 _ZN25QAbstractItemModelPrivate10Persistent16insertMultiAtEndERK11QModelIndexP25QPersistentModelIndexData@Base 5.0.1
 _ZN25QAbstractItemModelPrivate10PersistentD1Ev@Base 5.0.1
 _ZN25QAbstractItemModelPrivate10PersistentD2Ev@Base 5.0.1
 _ZN25QAbstractItemModelPrivate10itemsMovedERK11QModelIndexiiS2_iN2Qt11OrientationE@Base 5.0.1
 _ZN25QAbstractItemModelPrivate11rowsRemovedERK11QModelIndexii@Base 5.0.1
 _ZN25QAbstractItemModelPrivate12rowsInsertedERK11QModelIndexii@Base 5.0.1
 _ZN25QAbstractItemModelPrivate14columnsRemovedERK11QModelIndexii@Base 5.0.1
 _ZN25QAbstractItemModelPrivate15columnsInsertedERK11QModelIndexii@Base 5.0.1
 _ZN25QAbstractItemModelPrivate15variantLessThanERK8QVariantS2_@Base 5.0.1
 _ZN25QAbstractItemModelPrivate16defaultRoleNamesEv@Base 5.0.1
 _ZN25QAbstractItemModelPrivate16staticEmptyModelEv@Base 5.0.1
 _ZN25QAbstractItemModelPrivate19itemsAboutToBeMovedERK11QModelIndexiiS2_iN2Qt11OrientationE@Base 5.0.1
 _ZN25QAbstractItemModelPrivate20rowsAboutToBeRemovedERK11QModelIndexii@Base 5.0.1
 _ZN25QAbstractItemModelPrivate21movePersistentIndexesE7QVectorIP25QPersistentModelIndexDataEiRK11QModelIndexN2Qt11OrientationE@Base 5.0.1
 _ZN25QAbstractItemModelPrivate21rowsAboutToBeInsertedERK11QModelIndexii@Base 5.0.1
 _ZN25QAbstractItemModelPrivate23columnsAboutToBeRemovedERK11QModelIndexii@Base 5.0.1
 _ZN25QAbstractItemModelPrivate24columnsAboutToBeInsertedERK11QModelIndexii@Base 5.0.1
 _ZN25QAbstractItemModelPrivate25removePersistentIndexDataEP25QPersistentModelIndexData@Base 5.0.1
 _ZN25QAbstractItemModelPrivate9allowMoveERK11QModelIndexiiS2_iN2Qt11OrientationE@Base 5.0.1
 _ZN25QAbstractItemModelPrivateD0Ev@Base 5.0.1
 _ZN25QAbstractItemModelPrivateD1Ev@Base 5.0.1
 _ZN25QAbstractItemModelPrivateD2Ev@Base 5.0.1
 _ZN25QSequentialAnimationGroup11insertPauseEii@Base 5.0.1
 _ZN25QSequentialAnimationGroup11qt_metacallEN11QMetaObject4CallEiPPv@Base 5.0.1
 _ZN25QSequentialAnimationGroup11qt_metacastEPKc@Base 5.0.1
 _ZN25QSequentialAnimationGroup11updateStateEN18QAbstractAnimation5StateES1_@Base 5.0.1
 _ZN25QSequentialAnimationGroup15updateDirectionEN18QAbstractAnimation9DirectionE@Base 5.0.1
 _ZN25QSequentialAnimationGroup16staticMetaObjectE@Base 5.0.1
 _ZN25QSequentialAnimationGroup17updateCurrentTimeEi@Base 5.0.1
 _ZN25QSequentialAnimationGroup23currentAnimationChangedEP18QAbstractAnimation@Base 5.0.1
 _ZN25QSequentialAnimationGroup5eventEP6QEvent@Base 5.0.1
 _ZN25QSequentialAnimationGroup8addPauseEi@Base 5.0.1
 _ZN25QSequentialAnimationGroupC1EP7QObject@Base 5.0.1
 _ZN25QSequentialAnimationGroupC1ER32QSequentialAnimationGroupPrivateP7QObject@Base 5.0.1
 _ZN25QSequentialAnimationGroupC2EP7QObject@Base 5.0.1
 _ZN25QSequentialAnimationGroupC2ER32QSequentialAnimationGroupPrivateP7QObject@Base 5.0.1
 _ZN25QSequentialAnimationGroupD0Ev@Base 5.0.1
 _ZN25QSequentialAnimationGroupD1Ev@Base 5.0.1
 _ZN25QSequentialAnimationGroupD2Ev@Base 5.0.1
 _ZN26QAbstractNativeEventFilterC1Ev@Base 5.0.1
 _ZN26QAbstractNativeEventFilterC2Ev@Base 5.0.1
 _ZN26QAbstractNativeEventFilterD0Ev@Base 5.0.1
 _ZN26QAbstractNativeEventFilterD1Ev@Base 5.0.1
 _ZN26QAbstractNativeEventFilterD2Ev@Base 5.0.1
 _ZN26QAbstractProxyModelPrivate23_q_sourceModelDestroyedEv@Base 5.0.1
 _ZN26QAbstractProxyModelPrivateD0Ev@Base 5.0.1
 _ZN26QAbstractProxyModelPrivateD1Ev@Base 5.0.1
 _ZN26QAbstractProxyModelPrivateD2Ev@Base 5.0.1
 _ZN26QAbstractTransitionPrivate13callEventTestEP6QEvent@Base 5.0.1
 _ZN26QAbstractTransitionPrivate13emitTriggeredEv@Base 5.0.1
 _ZN26QAbstractTransitionPrivate16callOnTransitionEP6QEvent@Base 5.0.1
 _ZN26QAbstractTransitionPrivate3getEP19QAbstractTransition@Base 5.0.1
 _ZN26QAbstractTransitionPrivateC1Ev@Base 5.0.1
 _ZN26QAbstractTransitionPrivateC2Ev@Base 5.0.1
 _ZN26QAbstractTransitionPrivateD0Ev@Base 5.0.1
 _ZN26QAbstractTransitionPrivateD1Ev@Base 5.0.1
 _ZN26QAbstractTransitionPrivateD2Ev@Base 5.0.1
 _ZN27QDynamicPropertyChangeEventC1ERK10QByteArray@Base 5.0.1
 _ZN27QDynamicPropertyChangeEventC2ERK10QByteArray@Base 5.0.1
 _ZN27QDynamicPropertyChangeEventD0Ev@Base 5.0.1
 _ZN27QDynamicPropertyChangeEventD1Ev@Base 5.0.1
 _ZN27QDynamicPropertyChangeEventD2Ev@Base 5.0.1
 _ZN27QEventDispatcherGlibPrivate31runTimersOnceWithNormalPriorityEv@Base 5.0.1
 _ZN27QEventDispatcherGlibPrivateC1EP13_GMainContext@Base 5.0.1
 _ZN27QEventDispatcherGlibPrivateC2EP13_GMainContext@Base 5.0.1
 _ZN27QEventDispatcherGlibPrivateD0Ev@Base 5.0.1
 _ZN27QEventDispatcherGlibPrivateD1Ev@Base 5.0.1
 _ZN27QEventDispatcherGlibPrivateD2Ev@Base 5.0.1
 _ZN27QEventDispatcherUNIXPrivate16initThreadWakeUpEv@Base 5.0.1
 _ZN27QEventDispatcherUNIXPrivate19processThreadWakeUpEi@Base 5.0.1
 _ZN27QEventDispatcherUNIXPrivate8doSelectE6QFlagsIN10QEventLoop17ProcessEventsFlagEEP7timeval@Base 5.0.1
 _ZN27QEventDispatcherUNIXPrivateC1Ev@Base 5.0.1
 _ZN27QEventDispatcherUNIXPrivateC2Ev@Base 5.0.1
 _ZN27QEventDispatcherUNIXPrivateD0Ev@Base 5.0.1
 _ZN27QEventDispatcherUNIXPrivateD1Ev@Base 5.0.1
 _ZN27QEventDispatcherUNIXPrivateD2Ev@Base 5.0.1
 _ZN27QXmlStreamEntityDeclarationC1ERKS_@Base 5.0.1
 _ZN27QXmlStreamEntityDeclarationC1Ev@Base 5.0.1
 _ZN27QXmlStreamEntityDeclarationC2ERKS_@Base 5.0.1
 _ZN27QXmlStreamEntityDeclarationC2Ev@Base 5.0.1
 _ZN27QXmlStreamEntityDeclarationD1Ev@Base 5.0.1
 _ZN27QXmlStreamEntityDeclarationD2Ev@Base 5.0.1
 _ZN27QXmlStreamEntityDeclarationaSERKS_@Base 5.0.1
 _ZN29QXmlStreamNotationDeclarationC1ERKS_@Base 5.0.1
 _ZN29QXmlStreamNotationDeclarationC1Ev@Base 5.0.1
 _ZN29QXmlStreamNotationDeclarationC2ERKS_@Base 5.0.1
 _ZN29QXmlStreamNotationDeclarationC2Ev@Base 5.0.1
 _ZN29QXmlStreamNotationDeclarationD1Ev@Base 5.0.1
 _ZN29QXmlStreamNotationDeclarationD2Ev@Base 5.0.1
 _ZN29QXmlStreamNotationDeclarationaSERKS_@Base 5.0.1
 _ZN30QXmlStreamNamespaceDeclarationC1ERK7QStringS2_@Base 5.0.1
 _ZN30QXmlStreamNamespaceDeclarationC1ERKS_@Base 5.0.1
 _ZN30QXmlStreamNamespaceDeclarationC1Ev@Base 5.0.1
 _ZN30QXmlStreamNamespaceDeclarationC2ERK7QStringS2_@Base 5.0.1
 _ZN30QXmlStreamNamespaceDeclarationC2ERKS_@Base 5.0.1
 _ZN30QXmlStreamNamespaceDeclarationC2Ev@Base 5.0.1
 _ZN30QXmlStreamNamespaceDeclarationD1Ev@Base 5.0.1
 _ZN30QXmlStreamNamespaceDeclarationD2Ev@Base 5.0.1
 _ZN30QXmlStreamNamespaceDeclarationaSERKS_@Base 5.0.1
 _ZN31QAbstractEventDispatcherPrivate14releaseTimerIdEi@Base 5.0.1
 _ZN31QAbstractEventDispatcherPrivate15allocateTimerIdEv@Base 5.0.1
 _ZN31QAbstractEventDispatcherPrivateD0Ev@Base 5.0.1
 _ZN31QAbstractEventDispatcherPrivateD1Ev@Base 5.0.1
 _ZN31QAbstractEventDispatcherPrivateD2Ev@Base 5.0.1
 _ZN31QNonContiguousByteDeviceFactory4wrapEP24QNonContiguousByteDevice@Base 5.0.1
 _ZN31QNonContiguousByteDeviceFactory6createE14QSharedPointerI11QRingBufferE@Base 5.0.1
 _ZN31QNonContiguousByteDeviceFactory6createEP10QByteArray@Base 5.0.1
 _ZN31QNonContiguousByteDeviceFactory6createEP9QIODevice@Base 5.0.1
 _ZN31QRegularExpressionMatchIterator4nextEv@Base 5.0.1
 _ZN31QRegularExpressionMatchIteratorC1ER38QRegularExpressionMatchIteratorPrivate@Base 5.0.1
 _ZN31QRegularExpressionMatchIteratorC1ERKS_@Base 5.0.1
 _ZN31QRegularExpressionMatchIteratorC2ER38QRegularExpressionMatchIteratorPrivate@Base 5.0.1
 _ZN31QRegularExpressionMatchIteratorC2ERKS_@Base 5.0.1
 _ZN31QRegularExpressionMatchIteratorD1Ev@Base 5.0.1
 _ZN31QRegularExpressionMatchIteratorD2Ev@Base 5.0.1
 _ZN31QRegularExpressionMatchIteratoraSERKS_@Base 5.0.1
 _ZN4QDir10setCurrentERK7QString@Base 5.0.1
 _ZN4QDir10setSortingE6QFlagsINS_8SortFlagEE@Base 5.0.1
 _ZN4QDir11currentPathEv@Base 5.0.1
 _ZN4QDir11searchPathsERK7QString@Base 5.0.1
 _ZN4QDir12makeAbsoluteEv@Base 5.0.1
 _ZN4QDir13addSearchPathERK7QStringS2_@Base 5.0.1
 _ZN4QDir14isRelativePathERK7QString@Base 5.0.1
 _ZN4QDir14setNameFiltersERK11QStringList@Base 5.0.1
 _ZN4QDir14setSearchPathsERK7QStringRK11QStringList@Base 5.0.1
 _ZN4QDir17removeRecursivelyEv@Base 5.0.1
 _ZN4QDir18toNativeSeparatorsERK7QString@Base 5.0.1
 _ZN4QDir20fromNativeSeparatorsERK7QString@Base 5.0.1
 _ZN4QDir21addResourceSearchPathERK7QString@Base 5.0.1
 _ZN4QDir21nameFiltersFromStringERK7QString@Base 5.0.1
 _ZN4QDir2cdERK7QString@Base 5.0.1
 _ZN4QDir4cdUpEv@Base 5.0.1
 _ZN4QDir5matchERK11QStringListRK7QString@Base 5.0.1
 _ZN4QDir5matchERK7QStringS2_@Base 5.0.1
 _ZN4QDir6d_funcEv@Base 5.0.1
 _ZN4QDir6drivesEv@Base 5.0.1
 _ZN4QDir6removeERK7QString@Base 5.0.1
 _ZN4QDir6renameERK7QStringS2_@Base 5.0.1
 _ZN4QDir7setPathERK7QString@Base 5.0.1
 _ZN4QDir8homePathEv@Base 5.0.1
 _ZN4QDir8rootPathEv@Base 5.0.1
 _ZN4QDir8tempPathEv@Base 5.0.1
 _ZN4QDir9cleanPathERK7QString@Base 5.0.1
 _ZN4QDir9separatorEv@Base 5.0.1
 _ZN4QDir9setFilterE6QFlagsINS_6FilterEE@Base 5.0.1
 _ZN4QDirC1ER11QDirPrivate@Base 5.0.1
 _ZN4QDirC1ERK7QString@Base 5.0.1
 _ZN4QDirC1ERK7QStringS2_6QFlagsINS_8SortFlagEES3_INS_6FilterEE@Base 5.0.1
 _ZN4QDirC1ERKS_@Base 5.0.1
 _ZN4QDirC2ER11QDirPrivate@Base 5.0.1
 _ZN4QDirC2ERK7QString@Base 5.0.1
 _ZN4QDirC2ERK7QStringS2_6QFlagsINS_8SortFlagEES3_INS_6FilterEE@Base 5.0.1
 _ZN4QDirC2ERKS_@Base 5.0.1
 _ZN4QDirD1Ev@Base 5.0.1
 _ZN4QDirD2Ev@Base 5.0.1
 _ZN4QDiraSERK7QString@Base 5.0.1
 _ZN4QDiraSERKS_@Base 5.0.1
 _ZN4QUrl11fromEncodedERK10QByteArrayNS_11ParsingModeE@Base 5.0.1
 _ZN4QUrl11setFragmentERK7QStringNS_11ParsingModeE@Base 5.0.1
 _ZN4QUrl11setPasswordERK7QStringNS_11ParsingModeE@Base 5.0.1
 _ZN4QUrl11setUserInfoERK7QStringNS_11ParsingModeE@Base 5.0.1
 _ZN4QUrl11setUserNameERK7QStringNS_11ParsingModeE@Base 5.0.1
 _ZN4QUrl12idnWhitelistEv@Base 5.0.1
 _ZN4QUrl12setAuthorityERK7QStringNS_11ParsingModeE@Base 5.0.1
 _ZN4QUrl13fromLocalFileERK7QString@Base 5.0.1
 _ZN4QUrl13fromUserInputERK7QString@Base 5.0.1
 _ZN4QUrl15setIdnWhitelistERK11QStringList@Base 5.0.1
 _ZN4QUrl17toPercentEncodingERK7QStringRK10QByteArrayS5_@Base 5.0.1
 _ZN4QUrl19fromPercentEncodingERK10QByteArray@Base 5.0.1
 _ZN4QUrl27fromEncodedComponent_helperERK10QByteArray@Base 5.0.1
 _ZN4QUrl5clearEv@Base 5.0.1
 _ZN4QUrl5toAceERK7QString@Base 5.0.1
 _ZN4QUrl6detachEv@Base 5.0.1
 _ZN4QUrl6setUrlERK7QStringNS_11ParsingModeE@Base 5.0.1
 _ZN4QUrl7fromAceERK10QByteArray@Base 5.0.1
 _ZN4QUrl7setHostERK7QStringNS_11ParsingModeE@Base 5.0.1
 _ZN4QUrl7setPathERK7QStringNS_11ParsingModeE@Base 5.0.1
 _ZN4QUrl7setPortEi@Base 5.0.1
 _ZN4QUrl8setQueryERK7QStringNS_11ParsingModeE@Base 5.0.1
 _ZN4QUrl8setQueryERK9QUrlQuery@Base 5.0.1
 _ZN4QUrl9setSchemeERK7QString@Base 5.0.1
 _ZN4QUrlC1ERK7QStringNS_11ParsingModeE@Base 5.0.1
 _ZN4QUrlC1ERKS_@Base 5.0.1
 _ZN4QUrlC1Ev@Base 5.0.1
 _ZN4QUrlC2ERK7QStringNS_11ParsingModeE@Base 5.0.1
 _ZN4QUrlC2ERKS_@Base 5.0.1
 _ZN4QUrlC2Ev@Base 5.0.1
 _ZN4QUrlD1Ev@Base 5.0.1
 _ZN4QUrlD2Ev@Base 5.0.1
 _ZN4QUrlaSERK7QString@Base 5.0.1
 _ZN4QUrlaSERKS_@Base 5.0.1
 _ZN5QChar10digitValueEj@Base 5.0.1
 _ZN5QChar11hasMirroredEj@Base 5.0.1
 _ZN5QChar11toTitleCaseEj@Base 5.0.1
 _ZN5QChar12mirroredCharEj@Base 5.0.1
 _ZN5QChar12toCaseFoldedEj@Base 5.0.1
 _ZN5QChar13decompositionEj@Base 5.0.1
 _ZN5QChar14combiningClassEj@Base 5.0.1
 _ZN5QChar14isSpace_helperEj@Base 5.0.1
 _ZN5QChar14unicodeVersionEj@Base 5.0.1
 _ZN5QChar15isLetter_helperEj@Base 5.0.1
 _ZN5QChar15isNumber_helperEj@Base 5.0.1
 _ZN5QChar16decompositionTagEj@Base 5.0.1
 _ZN5QChar21currentUnicodeVersionEv@Base 5.0.1
 _ZN5QChar23isLetterOrNumber_helperEj@Base 5.0.1
 _ZN5QChar6isMarkEj@Base 5.0.1
 _ZN5QChar7isPrintEj@Base 5.0.1
 _ZN5QChar7isPunctEj@Base 5.0.1
 _ZN5QChar7joiningEj@Base 5.0.1
 _ZN5QChar7toLowerEj@Base 5.0.1
 _ZN5QChar7toUpperEj@Base 5.0.1
 _ZN5QChar8categoryEj@Base 5.0.1
 _ZN5QChar8isSymbolEj@Base 5.0.1
 _ZN5QChar9directionEj@Base 5.0.1
 _ZN5QDate10fromStringERK7QStringN2Qt10DateFormatE@Base 5.0.1
 _ZN5QDate10fromStringERK7QStringS2_@Base 5.0.1
 _ZN5QDate10isLeapYearEi@Base 5.0.1
 _ZN5QDate11currentDateEv@Base 5.0.1
 _ZN5QDate11longDayNameEiNS_13MonthNameTypeE@Base 5.0.1
 _ZN5QDate12shortDayNameEiNS_13MonthNameTypeE@Base 5.0.1
 _ZN5QDate13longMonthNameEiNS_13MonthNameTypeE@Base 5.0.1
 _ZN5QDate14shortMonthNameEiNS_13MonthNameTypeE@Base 5.0.1
 _ZN5QDate7getDateEPiS0_S0_@Base 5.0.1
 _ZN5QDate7isValidEiii@Base 5.0.1
 _ZN5QDate7setDateEiii@Base 5.0.1
 _ZN5QDateC1Eiii@Base 5.0.1
 _ZN5QDateC2Eiii@Base 5.0.1
 _ZN5QFile11permissionsERK7QString@Base 5.0.1
 _ZN5QFile11qt_metacallEN11QMetaObject4CallEiPPv@Base 5.0.1
 _ZN5QFile11qt_metacastEPKc@Base 5.0.1
 _ZN5QFile11setFileNameERK7QString@Base 5.0.1
 _ZN5QFile14setPermissionsE6QFlagsIN11QFileDevice10PermissionEE@Base 5.0.1
 _ZN5QFile14setPermissionsERK7QString6QFlagsIN11QFileDevice10PermissionEE@Base 5.0.1
 _ZN5QFile16staticMetaObjectE@Base 5.0.1
 _ZN5QFile4copyERK7QString@Base 5.0.1
 _ZN5QFile4copyERK7QStringS2_@Base 5.0.1
 _ZN5QFile4linkERK7QString@Base 5.0.1
 _ZN5QFile4linkERK7QStringS2_@Base 5.0.1
 _ZN5QFile4openE6QFlagsIN9QIODevice12OpenModeFlagEE@Base 5.0.1
 _ZN5QFile4openEP8_IO_FILE6QFlagsIN9QIODevice12OpenModeFlagEES2_IN11QFileDevice14FileHandleFlagEE@Base 5.0.1
 _ZN5QFile4openEi6QFlagsIN9QIODevice12OpenModeFlagEES0_IN11QFileDevice14FileHandleFlagEE@Base 5.0.1
 _ZN5QFile6existsERK7QString@Base 5.0.1
 _ZN5QFile6removeERK7QString@Base 5.0.1
 _ZN5QFile6removeEv@Base 5.0.1
 _ZN5QFile6renameERK7QString@Base 5.0.1
 _ZN5QFile6renameERK7QStringS2_@Base 5.0.1
 _ZN5QFile6resizeERK7QStringx@Base 5.0.1
 _ZN5QFile6resizeEx@Base 5.0.1
 _ZN5QFile8readLinkERK7QString@Base 5.0.1
 _ZN5QFileC1EP7QObject@Base 5.0.1
 _ZN5QFileC1ER12QFilePrivateP7QObject@Base 5.0.1
 _ZN5QFileC1ERK7QString@Base 5.0.1
 _ZN5QFileC1ERK7QStringP7QObject@Base 5.0.1
 _ZN5QFileC1Ev@Base 5.0.1
 _ZN5QFileC2EP7QObject@Base 5.0.1
 _ZN5QFileC2ER12QFilePrivateP7QObject@Base 5.0.1
 _ZN5QFileC2ERK7QString@Base 5.0.1
 _ZN5QFileC2ERK7QStringP7QObject@Base 5.0.1
 _ZN5QFileC2Ev@Base 5.0.1
 _ZN5QFileD0Ev@Base 5.0.1
 _ZN5QFileD1Ev@Base 5.0.1
 _ZN5QFileD2Ev@Base 5.0.1
 _ZN5QSize9transposeEv@Base 5.0.1
 _ZN5QTime10fromStringERK7QStringN2Qt10DateFormatE@Base 5.0.1
 _ZN5QTime10fromStringERK7QStringS2_@Base 5.0.1
 _ZN5QTime11currentTimeEv@Base 5.0.1
 _ZN5QTime5startEv@Base 5.0.1
 _ZN5QTime6setHMSEiiii@Base 5.0.1
 _ZN5QTime7isValidEiiii@Base 5.0.1
 _ZN5QTime7restartEv@Base 5.0.1
 _ZN5QTimeC1Eiiii@Base 5.0.1
 _ZN5QTimeC2Eiiii@Base 5.0.1
 _ZN5QUuid10createUuidEv@Base 5.0.1
 _ZN5QUuid11fromRfc4122ERK10QByteArray@Base 5.0.1
 _ZN5QUuid12createUuidV3ERKS_RK10QByteArray@Base 5.0.1
 _ZN5QUuid12createUuidV5ERKS_RK10QByteArray@Base 5.0.1
 _ZN5QUuidC1EPKc@Base 5.0.1
 _ZN5QUuidC1ERK10QByteArray@Base 5.0.1
 _ZN5QUuidC1ERK7QString@Base 5.0.1
 _ZN5QUuidC2EPKc@Base 5.0.1
 _ZN5QUuidC2ERK10QByteArray@Base 5.0.1
 _ZN5QUuidC2ERK7QString@Base 5.0.1
 _ZN6QDebug6StreamD1Ev@Base 5.0.1
 _ZN6QDebug6StreamD2Ev@Base 5.0.1
 _ZN6QEvent16staticMetaObjectE@Base 5.0.1
 _ZN6QEvent17registerEventTypeEi@Base 5.0.1
 _ZN6QEventC1ENS_4TypeE@Base 5.0.1
 _ZN6QEventC1ERKS_@Base 5.0.1
 _ZN6QEventC2ENS_4TypeE@Base 5.0.1
 _ZN6QEventC2ERKS_@Base 5.0.1
 _ZN6QEventD0Ev@Base 5.0.1
 _ZN6QEventD1Ev@Base 5.0.1
 _ZN6QEventD2Ev@Base 5.0.1
 _ZN6QEventaSERKS_@Base 5.0.1
 _ZN6QLineF8setAngleEd@Base 5.0.1
 _ZN6QLineF9fromPolarEdd@Base 5.0.1
 _ZN6QMutex4lockEv@Base 5.0.1
 _ZN6QMutex6unlockEv@Base 5.0.1
 _ZN6QMutex7tryLockEi@Base 5.0.1
 _ZN6QMutexC1ENS_13RecursionModeE@Base 5.0.1
 _ZN6QMutexC2ENS_13RecursionModeE@Base 5.0.1
 _ZN6QMutexD1Ev@Base 5.0.1
 _ZN6QMutexD2Ev@Base 5.0.1
 _ZN6QSizeF9transposeEv@Base 5.0.1
 _ZN6QState11qt_metacallEN11QMetaObject4CallEiPPv@Base 5.0.1
 _ZN6QState11qt_metacastEPKc@Base 5.0.1
 _ZN6QState12setChildModeENS_9ChildModeE@Base 5.0.1
 _ZN6QState13addTransitionEP14QAbstractState@Base 5.0.1
 _ZN6QState13addTransitionEP19QAbstractTransition@Base 5.0.1
 _ZN6QState13addTransitionEPK7QObjectPKcP14QAbstractState@Base 5.0.1
 _ZN6QState13setErrorStateEP14QAbstractState@Base 5.0.1
 _ZN6QState14assignPropertyEP7QObjectPKcRK8QVariant@Base 5.0.1
 _ZN6QState15setInitialStateEP14QAbstractState@Base 5.0.1
 _ZN6QState16removeTransitionEP19QAbstractTransition@Base 5.0.1
 _ZN6QState16staticMetaObjectE@Base 5.0.1
 _ZN6QState18propertiesAssignedENS_14QPrivateSignalE@Base 5.0.1
 _ZN6QState5eventEP6QEvent@Base 5.0.1
 _ZN6QState6onExitEP6QEvent@Base 5.0.1
 _ZN6QState7onEntryEP6QEvent@Base 5.0.1
 _ZN6QState8finishedENS_14QPrivateSignalE@Base 5.0.1
 _ZN6QStateC1ENS_9ChildModeEPS_@Base 5.0.1
 _ZN6QStateC1EPS_@Base 5.0.1
 _ZN6QStateC1ER13QStatePrivatePS_@Base 5.0.1
 _ZN6QStateC2ENS_9ChildModeEPS_@Base 5.0.1
 _ZN6QStateC2EPS_@Base 5.0.1
 _ZN6QStateC2ER13QStatePrivatePS_@Base 5.0.1
 _ZN6QStateD0Ev@Base 5.0.1
 _ZN6QStateD1Ev@Base 5.0.1
 _ZN6QStateD2Ev@Base 5.0.1
 _ZN6QTimer10singleShotEiN2Qt9TimerTypeEPK7QObjectPKc@Base 5.0.1
 _ZN6QTimer10singleShotEiPK7QObjectPKc@Base 5.0.1
 _ZN6QTimer10timerEventEP11QTimerEvent@Base 5.0.1
 _ZN6QTimer11qt_metacallEN11QMetaObject4CallEiPPv@Base 5.0.1
 _ZN6QTimer11qt_metacastEPKc@Base 5.0.1
 _ZN6QTimer11setIntervalEi@Base 5.0.1
 _ZN6QTimer16staticMetaObjectE@Base 5.0.1
 _ZN6QTimer4stopEv@Base 5.0.1
 _ZN6QTimer5startEi@Base 5.0.1
 _ZN6QTimer5startEv@Base 5.0.1
 _ZN6QTimer7timeoutENS_14QPrivateSignalE@Base 5.0.1
 _ZN6QTimerC1EP7QObject@Base 5.0.1
 _ZN6QTimerC2EP7QObject@Base 5.0.1
 _ZN6QTimerD0Ev@Base 5.0.1
 _ZN6QTimerD1Ev@Base 5.0.1
 _ZN6QTimerD2Ev@Base 5.0.1
 _ZN7QBuffer11qt_metacallEN11QMetaObject4CallEiPPv@Base 5.0.1
 _ZN7QBuffer11qt_metacastEPKc@Base 5.0.1
 _ZN7QBuffer13connectNotifyERK11QMetaMethod@Base 5.0.1
 _ZN7QBuffer16disconnectNotifyERK11QMetaMethod@Base 5.0.1
 _ZN7QBuffer16staticMetaObjectE@Base 5.0.1
 _ZN7QBuffer4openE6QFlagsIN9QIODevice12OpenModeFlagEE@Base 5.0.1
 _ZN7QBuffer4seekEx@Base 5.0.1
 _ZN7QBuffer5closeEv@Base 5.0.1
 _ZN7QBuffer6bufferEv@Base 5.0.1
 _ZN7QBuffer7setDataERK10QByteArray@Base 5.0.1
 _ZN7QBuffer8readDataEPcx@Base 5.0.1
 _ZN7QBuffer9setBufferEP10QByteArray@Base 5.0.1
 _ZN7QBuffer9writeDataEPKcx@Base 5.0.1
 _ZN7QBufferC1EP10QByteArrayP7QObject@Base 5.0.1
 _ZN7QBufferC1EP7QObject@Base 5.0.1
 _ZN7QBufferC2EP10QByteArrayP7QObject@Base 5.0.1
 _ZN7QBufferC2EP7QObject@Base 5.0.1
 _ZN7QBufferD0Ev@Base 5.0.1
 _ZN7QBufferD1Ev@Base 5.0.1
 _ZN7QBufferD2Ev@Base 5.0.1
 _ZN7QLocale10setDefaultERKS_@Base 5.0.1
 _ZN7QLocale14scriptToStringENS_6ScriptE@Base 5.0.1
 _ZN7QLocale15countryToStringENS_7CountryE@Base 5.0.1
 _ZN7QLocale15matchingLocalesENS_8LanguageENS_6ScriptENS_7CountryE@Base 5.0.1
 _ZN7QLocale16languageToStringENS_8LanguageE@Base 5.0.1
 _ZN7QLocale16setNumberOptionsE6QFlagsINS_12NumberOptionEE@Base 5.0.1
 _ZN7QLocale16staticMetaObjectE@Base 5.0.1
 _ZN7QLocale20countriesForLanguageENS_8LanguageE@Base 5.0.1
 _ZN7QLocale6systemEv@Base 5.0.1
 _ZN7QLocaleC1ENS_8LanguageENS_6ScriptENS_7CountryE@Base 5.0.1
 _ZN7QLocaleC1ENS_8LanguageENS_7CountryE@Base 5.0.1
 _ZN7QLocaleC1ER14QLocalePrivate@Base 5.0.1
 _ZN7QLocaleC1ERK7QString@Base 5.0.1
 _ZN7QLocaleC1ERKS_@Base 5.0.1
 _ZN7QLocaleC1Ev@Base 5.0.1
 _ZN7QLocaleC2ENS_8LanguageENS_6ScriptENS_7CountryE@Base 5.0.1
 _ZN7QLocaleC2ENS_8LanguageENS_7CountryE@Base 5.0.1
 _ZN7QLocaleC2ER14QLocalePrivate@Base 5.0.1
 _ZN7QLocaleC2ERK7QString@Base 5.0.1
 _ZN7QLocaleC2ERKS_@Base 5.0.1
 _ZN7QLocaleC2Ev@Base 5.0.1
 _ZN7QLocaleD1Ev@Base 5.0.1
 _ZN7QLocaleD2Ev@Base 5.0.1
 _ZN7QLocaleaSERKS_@Base 5.0.1
 _ZN7QObject10childEventEP11QChildEvent@Base 5.0.1
 _ZN7QObject10disconnectEPKS_PKcS1_S3_@Base 5.0.1
 _ZN7QObject10disconnectEPKS_RK11QMetaMethodS1_S4_@Base 5.0.1
 _ZN7QObject10disconnectERKN11QMetaObject10ConnectionE@Base 5.0.1
 _ZN7QObject10startTimerEiN2Qt9TimerTypeE@Base 5.0.1
 _ZN7QObject10timerEventEP11QTimerEvent@Base 5.0.1
 _ZN7QObject11connectImplEPKS_PPvS1_S3_PN9QtPrivate15QSlotObjectBaseEN2Qt14ConnectionTypeEPKiPK11QMetaObject@Base 5.0.1
 _ZN7QObject11customEventEP6QEvent@Base 5.0.1
 _ZN7QObject11deleteLaterEv@Base 5.0.1
 _ZN7QObject11eventFilterEPS_P6QEvent@Base 5.0.1
 _ZN7QObject11qt_metacallEN11QMetaObject4CallEiPPv@Base 5.0.1
 _ZN7QObject11qt_metacastEPKc@Base 5.0.1
 _ZN7QObject11setPropertyEPKcRK8QVariant@Base 5.0.1
 _ZN7QObject11setUserDataEjP15QObjectUserData@Base 5.0.1
 _ZN7QObject12blockSignalsEb@Base 5.0.1
 _ZN7QObject12moveToThreadEP7QThread@Base 5.0.1
 _ZN7QObject13connectNotifyERK11QMetaMethod@Base 5.0.1
 _ZN7QObject13setObjectNameERK7QString@Base 5.0.1
 _ZN7QObject14disconnectImplEPKS_PPvS1_S3_PK11QMetaObject@Base 5.0.1
 _ZN7QObject14dumpObjectInfoEv@Base 5.0.1
 _ZN7QObject14dumpObjectTreeEv@Base 5.0.1
 _ZN7QObject16disconnectNotifyERK11QMetaMethod@Base 5.0.1
 _ZN7QObject16registerUserDataEv@Base 5.0.1
 _ZN7QObject16staticMetaObjectE@Base 5.0.1
 _ZN7QObject17objectNameChangedERK7QStringNS_14QPrivateSignalE@Base 5.0.1
 _ZN7QObject17removeEventFilterEPS_@Base 5.0.1
 _ZN7QObject18installEventFilterEPS_@Base 5.0.1
 _ZN7QObject18staticQtMetaObjectE@Base 5.0.1
 _ZN7QObject5eventEP6QEvent@Base 5.0.1
 _ZN7QObject7connectEPKS_PKcS1_S3_N2Qt14ConnectionTypeE@Base 5.0.1
 _ZN7QObject7connectEPKS_RK11QMetaMethodS1_S4_N2Qt14ConnectionTypeE@Base 5.0.1
 _ZN7QObject9destroyedEPS_@Base 5.0.1
 _ZN7QObject9killTimerEi@Base 5.0.1
 _ZN7QObject9setParentEPS_@Base 5.0.1
 _ZN7QObjectC1EPS_@Base 5.0.1
 _ZN7QObjectC1ER14QObjectPrivatePS_@Base 5.0.1
 _ZN7QObjectC2EPS_@Base 5.0.1
 _ZN7QObjectC2ER14QObjectPrivatePS_@Base 5.0.1
 _ZN7QObjectD0Ev@Base 5.0.1
 _ZN7QObjectD1Ev@Base 5.0.1
 _ZN7QObjectD2Ev@Base 5.0.1
 _ZN7QRegExp10setMinimalEb@Base 5.0.1
 _ZN7QRegExp10setPatternERK7QString@Base 5.0.1
 _ZN7QRegExp11errorStringEv@Base 5.0.1
 _ZN7QRegExp13capturedTextsEv@Base 5.0.1
 _ZN7QRegExp16setPatternSyntaxENS_13PatternSyntaxE@Base 5.0.1
 _ZN7QRegExp18setCaseSensitivityEN2Qt15CaseSensitivityE@Base 5.0.1
 _ZN7QRegExp3capEi@Base 5.0.1
 _ZN7QRegExp3posEi@Base 5.0.1
 _ZN7QRegExp6escapeERK7QString@Base 5.0.1
 _ZN7QRegExpC1ERK7QStringN2Qt15CaseSensitivityENS_13PatternSyntaxE@Base 5.0.1
 _ZN7QRegExpC1ERKS_@Base 5.0.1
 _ZN7QRegExpC1Ev@Base 5.0.1
 _ZN7QRegExpC2ERK7QStringN2Qt15CaseSensitivityENS_13PatternSyntaxE@Base 5.0.1
 _ZN7QRegExpC2ERKS_@Base 5.0.1
 _ZN7QRegExpC2Ev@Base 5.0.1
 _ZN7QRegExpD1Ev@Base 5.0.1
 _ZN7QRegExpD2Ev@Base 5.0.1
 _ZN7QRegExpaSERKS_@Base 5.0.1
 _ZN7QString10setRawDataEPK5QChari@Base 5.0.1
 _ZN7QString10setUnicodeEPK5QChari@Base 5.0.1
 _ZN7QString11fromRawDataEPK5QChari@Base 5.0.1
 _ZN7QString11reallocDataEjb@Base 5.0.1
 _ZN7QString13toUcs4_helperEPKtiPj@Base 5.0.1
 _ZN7QString14compare_helperEPK5QChari13QLatin1StringN2Qt15CaseSensitivityE@Base 5.0.1
 _ZN7QString14compare_helperEPK5QChariPKciN2Qt15CaseSensitivityE@Base 5.0.1
 _ZN7QString14compare_helperEPK5QChariS2_iN2Qt15CaseSensitivityE@Base 5.0.1
 _ZN7QString14replace_helperEPjiiPK5QChari@Base 5.0.1
 _ZN7QString15fromUtf8_helperEPKci@Base 5.0.1
 _ZN7QString16fromAscii_helperEPKci@Base 5.0.1
 _ZN7QString17fromLatin1_helperEPKci@Base 5.0.1
 _ZN7QString20fromLocal8Bit_helperEPKci@Base 5.0.1
 _ZN7QString25localeAwareCompare_helperEPK5QChariS2_i@Base 5.0.1
 _ZN7QString4chopEi@Base 5.0.1
 _ZN7QString4fillE5QChari@Base 5.0.1
 _ZN7QString4nullE@Base 5.0.1
 _ZN7QString5clearEv@Base 5.0.1
 _ZN7QString6appendE13QLatin1String@Base 5.0.1
 _ZN7QString6appendE5QChar@Base 5.0.1
 _ZN7QString6appendEPK5QChari@Base 5.0.1
 _ZN7QString6appendERK10QStringRef@Base 5.0.1
 _ZN7QString6appendERKS_@Base 5.0.1
 _ZN7QString6expandEi@Base 5.0.1
 _ZN7QString6insertEi13QLatin1String@Base 5.0.1
 _ZN7QString6insertEi5QChar@Base 5.0.1
 _ZN7QString6insertEiPK5QChari@Base 5.0.1
 _ZN7QString6numberEdci@Base 5.0.1
 _ZN7QString6numberEii@Base 5.0.1
 _ZN7QString6numberEji@Base 5.0.1
 _ZN7QString6numberEli@Base 5.0.1
 _ZN7QString6numberEmi@Base 5.0.1
 _ZN7QString6numberExi@Base 5.0.1
 _ZN7QString6numberEyi@Base 5.0.1
 _ZN7QString6removeE5QCharN2Qt15CaseSensitivityE@Base 5.0.1
 _ZN7QString6removeERKS_N2Qt15CaseSensitivityE@Base 5.0.1
 _ZN7QString6removeEii@Base 5.0.1
 _ZN7QString6resizeEi@Base 5.0.1
 _ZN7QString6setNumEdci@Base 5.0.1
 _ZN7QString6setNumExi@Base 5.0.1
 _ZN7QString6setNumEyi@Base 5.0.1
 _ZN7QString7replaceE13QLatin1StringRKS_N2Qt15CaseSensitivityE@Base 5.0.1
 _ZN7QString7replaceE13QLatin1StringS0_N2Qt15CaseSensitivityE@Base 5.0.1
 _ZN7QString7replaceE5QChar13QLatin1StringN2Qt15CaseSensitivityE@Base 5.0.1
 _ZN7QString7replaceE5QCharRKS_N2Qt15CaseSensitivityE@Base 5.0.1
 _ZN7QString7replaceE5QCharS0_N2Qt15CaseSensitivityE@Base 5.0.1
 _ZN7QString7replaceEPK5QChariS2_iN2Qt15CaseSensitivityE@Base 5.0.1
 _ZN7QString7replaceERK18QRegularExpressionRKS_@Base 5.0.1
 _ZN7QString7replaceERK7QRegExpRKS_@Base 5.0.1
 _ZN7QString7replaceERKS_13QLatin1StringN2Qt15CaseSensitivityE@Base 5.0.1
 _ZN7QString7replaceERKS_S1_N2Qt15CaseSensitivityE@Base 5.0.1
 _ZN7QString7replaceEii5QChar@Base 5.0.1
 _ZN7QString7replaceEiiPK5QChari@Base 5.0.1
 _ZN7QString7replaceEiiRKS_@Base 5.0.1
 _ZN7QString7sprintfEPKcz@Base 5.0.1
 _ZN7QString8fromUcs4EPKji@Base 5.0.1
 _ZN7QString8truncateEi@Base 5.0.1
 _ZN7QString8vsprintfEPKcP13__va_list_tag@Base 5.0.1
 _ZN7QString9fromUtf16EPKti@Base 5.0.1
 _ZN7QStringC1E5QChar@Base 5.0.1
 _ZN7QStringC1EPK5QChari@Base 5.0.1
 _ZN7QStringC1Ei5QChar@Base 5.0.1
 _ZN7QStringC1EiN2Qt14InitializationE@Base 5.0.1
 _ZN7QStringC2E5QChar@Base 5.0.1
 _ZN7QStringC2EPK5QChari@Base 5.0.1
 _ZN7QStringC2Ei5QChar@Base 5.0.1
 _ZN7QStringC2EiN2Qt14InitializationE@Base 5.0.1
 _ZN7QStringaSE5QChar@Base 5.0.1
 _ZN7QStringaSERKS_@Base 5.0.1
 _ZN7QThread11qt_metacallEN11QMetaObject4CallEiPPv@Base 5.0.1
 _ZN7QThread11qt_metacastEPKc@Base 5.0.1
 _ZN7QThread11setPriorityENS_8PriorityE@Base 5.0.1
 _ZN7QThread12setStackSizeEj@Base 5.0.1
 _ZN7QThread13currentThreadEv@Base 5.0.1
 _ZN7QThread15currentThreadIdEv@Base 5.0.1
 _ZN7QThread16idealThreadCountEv@Base 5.0.1
 _ZN7QThread16staticMetaObjectE@Base 5.0.1
 _ZN7QThread18setEventDispatcherEP24QAbstractEventDispatcher@Base 5.0.1
 _ZN7QThread18yieldCurrentThreadEv@Base 5.0.1
 _ZN7QThread21setTerminationEnabledEb@Base 5.0.1
 _ZN7QThread3runEv@Base 5.0.1
 _ZN7QThread4execEv@Base 5.0.1
 _ZN7QThread4exitEi@Base 5.0.1
 _ZN7QThread4quitEv@Base 5.0.1
 _ZN7QThread4waitEm@Base 5.0.1
 _ZN7QThread5eventEP6QEvent@Base 5.0.1
 _ZN7QThread5sleepEm@Base 5.0.1
 _ZN7QThread5startENS_8PriorityE@Base 5.0.1
 _ZN7QThread6msleepEm@Base 5.0.1
 _ZN7QThread6usleepEm@Base 5.0.1
 _ZN7QThread7startedENS_14QPrivateSignalE@Base 5.0.1
 _ZN7QThread8finishedENS_14QPrivateSignalE@Base 5.0.1
 _ZN7QThread9terminateEv@Base 5.0.1
 _ZN7QThreadC1EP7QObject@Base 5.0.1
 _ZN7QThreadC1ER14QThreadPrivateP7QObject@Base 5.0.1
 _ZN7QThreadC2EP7QObject@Base 5.0.1
 _ZN7QThreadC2ER14QThreadPrivateP7QObject@Base 5.0.1
 _ZN7QThreadD0Ev@Base 5.0.1
 _ZN7QThreadD1Ev@Base 5.0.1
 _ZN7QThreadD2Ev@Base 5.0.1
 _ZN8QLibrary11qt_metacallEN11QMetaObject4CallEiPPv@Base 5.0.1
 _ZN8QLibrary11qt_metacastEPKc@Base 5.0.1
 _ZN8QLibrary11setFileNameERK7QString@Base 5.0.1
 _ZN8QLibrary12setLoadHintsE6QFlagsINS_8LoadHintEE@Base 5.0.1
 _ZN8QLibrary16staticMetaObjectE@Base 5.0.1
 _ZN8QLibrary21setFileNameAndVersionERK7QStringS2_@Base 5.0.1
 _ZN8QLibrary21setFileNameAndVersionERK7QStringi@Base 5.0.1
 _ZN8QLibrary4loadEv@Base 5.0.1
 _ZN8QLibrary6unloadEv@Base 5.0.1
 _ZN8QLibrary7resolveEPKc@Base 5.0.1
 _ZN8QLibrary7resolveERK7QStringPKc@Base 5.0.1
 _ZN8QLibrary7resolveERK7QStringS2_PKc@Base 5.0.1
 _ZN8QLibrary7resolveERK7QStringiPKc@Base 5.0.1
 _ZN8QLibrary9isLibraryERK7QString@Base 5.0.1
 _ZN8QLibraryC1EP7QObject@Base 5.0.1
 _ZN8QLibraryC1ERK7QStringP7QObject@Base 5.0.1
 _ZN8QLibraryC1ERK7QStringS2_P7QObject@Base 5.0.1
 _ZN8QLibraryC1ERK7QStringiP7QObject@Base 5.0.1
 _ZN8QLibraryC2EP7QObject@Base 5.0.1
 _ZN8QLibraryC2ERK7QStringP7QObject@Base 5.0.1
 _ZN8QLibraryC2ERK7QStringS2_P7QObject@Base 5.0.1
 _ZN8QLibraryC2ERK7QStringiP7QObject@Base 5.0.1
 _ZN8QLibraryD0Ev@Base 5.0.1
 _ZN8QLibraryD1Ev@Base 5.0.1
 _ZN8QLibraryD2Ev@Base 5.0.1
 _ZN8QProcess11qt_metacallEN11QMetaObject4CallEiPPv@Base 5.0.1
 _ZN8QProcess11qt_metacastEPKc@Base 5.0.1
 _ZN8QProcess12stateChangedENS_12ProcessStateENS_14QPrivateSignalE@Base 5.0.1
 _ZN8QProcess13startDetachedERK7QString@Base 5.0.1
 _ZN8QProcess13startDetachedERK7QStringRK11QStringList@Base 5.0.1
 _ZN8QProcess13startDetachedERK7QStringRK11QStringListS2_Px@Base 5.0.1
 _ZN8QProcess14setEnvironmentERK11QStringList@Base 5.0.1
 _ZN8QProcess14setReadChannelENS_14ProcessChannelE@Base 5.0.1
 _ZN8QProcess14waitForStartedEi@Base 5.0.1
 _ZN8QProcess15setProcessStateENS_12ProcessStateE@Base 5.0.1
 _ZN8QProcess15waitForFinishedEi@Base 5.0.1
 _ZN8QProcess16closeReadChannelENS_14ProcessChannelE@Base 5.0.1
 _ZN8QProcess16staticMetaObjectE@Base 5.0.1
 _ZN8QProcess16waitForReadyReadEi@Base 5.0.1
 _ZN8QProcess17closeWriteChannelEv@Base 5.0.1
 _ZN8QProcess17setupChildProcessEv@Base 5.0.1
 _ZN8QProcess17systemEnvironmentEv@Base 5.0.1
 _ZN8QProcess18setReadChannelModeENS_18ProcessChannelModeE@Base 5.0.1
 _ZN8QProcess19setWorkingDirectoryERK7QString@Base 5.0.1
 _ZN8QProcess19waitForBytesWrittenEi@Base 5.0.1
 _ZN8QProcess20readAllStandardErrorEv@Base 5.0.1
 _ZN8QProcess20setStandardErrorFileERK7QString6QFlagsIN9QIODevice12OpenModeFlagEE@Base 5.0.1
 _ZN8QProcess20setStandardInputFileERK7QString@Base 5.0.1
 _ZN8QProcess21readAllStandardOutputEv@Base 5.0.1
 _ZN8QProcess21setProcessChannelModeENS_18ProcessChannelModeE@Base 5.0.1
 _ZN8QProcess21setProcessEnvironmentERK19QProcessEnvironment@Base 5.0.1
 _ZN8QProcess21setStandardOutputFileERK7QString6QFlagsIN9QIODevice12OpenModeFlagEE@Base 5.0.1
 _ZN8QProcess22readyReadStandardErrorENS_14QPrivateSignalE@Base 5.0.1
 _ZN8QProcess23readyReadStandardOutputENS_14QPrivateSignalE@Base 5.0.1
 _ZN8QProcess24setStandardOutputProcessEPS_@Base 5.0.1
 _ZN8QProcess4killEv@Base 5.0.1
 _ZN8QProcess5closeEv@Base 5.0.1
 _ZN8QProcess5errorENS_12ProcessErrorE@Base 5.0.1
 _ZN8QProcess5startERK7QString6QFlagsIN9QIODevice12OpenModeFlagEE@Base 5.0.1
 _ZN8QProcess5startERK7QStringRK11QStringList6QFlagsIN9QIODevice12OpenModeFlagEE@Base 5.0.1
 _ZN8QProcess7executeERK7QString@Base 5.0.1
 _ZN8QProcess7executeERK7QStringRK11QStringList@Base 5.0.1
 _ZN8QProcess7startedENS_14QPrivateSignalE@Base 5.0.1
 _ZN8QProcess8finishedEi@Base 5.0.1
 _ZN8QProcess8finishedEiNS_10ExitStatusE@Base 5.0.1
 _ZN8QProcess8readDataEPcx@Base 5.0.1
 _ZN8QProcess9terminateEv@Base 5.0.1
 _ZN8QProcess9writeDataEPKcx@Base 5.0.1
 _ZN8QProcessC1EP7QObject@Base 5.0.1
 _ZN8QProcessC2EP7QObject@Base 5.0.1
 _ZN8QProcessD0Ev@Base 5.0.1
 _ZN8QProcessD1Ev@Base 5.0.1
 _ZN8QProcessD2Ev@Base 5.0.1
 _ZN8QVariant10nameToTypeEPKc@Base 5.0.1
 _ZN8QVariant10typeToNameEi@Base 5.0.1
 _ZN8QVariant4dataEv@Base 5.0.1
 _ZN8QVariant4loadER11QDataStream@Base 5.0.1
 _ZN8QVariant5clearEv@Base 5.0.1
 _ZN8QVariant6createEiPKv@Base 5.0.1
 _ZN8QVariant6detachEv@Base 5.0.1
 _ZN8QVariant7convertEi@Base 5.0.1
 _ZN8QVariantC1E13QLatin1String@Base 5.0.1
 _ZN8QVariantC1E5QChar@Base 5.0.1
 _ZN8QVariantC1ENS_4TypeE@Base 5.0.1
 _ZN8QVariantC1EPKc@Base 5.0.1
 _ZN8QVariantC1ER11QDataStream@Base 5.0.1
 _ZN8QVariantC1ERK10QByteArray@Base 5.0.1
 _ZN8QVariantC1ERK10QJsonArray@Base 5.0.1
 _ZN8QVariantC1ERK10QJsonValue@Base 5.0.1
 _ZN8QVariantC1ERK11QJsonObject@Base 5.0.1
 _ZN8QVariantC1ERK11QModelIndex@Base 5.0.1
 _ZN8QVariantC1ERK11QStringList@Base 5.0.1
 _ZN8QVariantC1ERK12QEasingCurve@Base 5.0.1
 _ZN8QVariantC1ERK13QJsonDocument@Base 5.0.1
 _ZN8QVariantC1ERK18QRegularExpression@Base 5.0.1
 _ZN8QVariantC1ERK4QMapI7QStringS_E@Base 5.0.1
 _ZN8QVariantC1ERK4QUrl@Base 5.0.1
 _ZN8QVariantC1ERK5QDate@Base 5.0.1
 _ZN8QVariantC1ERK5QHashI7QStringS_E@Base 5.0.1
 _ZN8QVariantC1ERK5QLine@Base 5.0.1
 _ZN8QVariantC1ERK5QListIS_E@Base 5.0.1
 _ZN8QVariantC1ERK5QRect@Base 5.0.1
 _ZN8QVariantC1ERK5QSize@Base 5.0.1
 _ZN8QVariantC1ERK5QTime@Base 5.0.1
 _ZN8QVariantC1ERK5QUuid@Base 5.0.1
 _ZN8QVariantC1ERK6QLineF@Base 5.0.1
 _ZN8QVariantC1ERK6QPoint@Base 5.0.1
 _ZN8QVariantC1ERK6QRectF@Base 5.0.1
 _ZN8QVariantC1ERK6QSizeF@Base 5.0.1
 _ZN8QVariantC1ERK7QLocale@Base 5.0.1
 _ZN8QVariantC1ERK7QPointF@Base 5.0.1
 _ZN8QVariantC1ERK7QRegExp@Base 5.0.1
 _ZN8QVariantC1ERK7QString@Base 5.0.1
 _ZN8QVariantC1ERK9QBitArray@Base 5.0.1
 _ZN8QVariantC1ERK9QDateTime@Base 5.0.1
 _ZN8QVariantC1ERKS_@Base 5.0.1
 _ZN8QVariantC1Eb@Base 5.0.1
 _ZN8QVariantC1Ed@Base 5.0.1
 _ZN8QVariantC1Ef@Base 5.0.1
 _ZN8QVariantC1Ei@Base 5.0.1
 _ZN8QVariantC1EiPKv@Base 5.0.1
 _ZN8QVariantC1EiPKvj@Base 5.0.1
 _ZN8QVariantC1Ej@Base 5.0.1
 _ZN8QVariantC1Ex@Base 5.0.1
 _ZN8QVariantC1Ey@Base 5.0.1
 _ZN8QVariantC2E13QLatin1String@Base 5.0.1
 _ZN8QVariantC2E5QChar@Base 5.0.1
 _ZN8QVariantC2ENS_4TypeE@Base 5.0.1
 _ZN8QVariantC2EPKc@Base 5.0.1
 _ZN8QVariantC2ER11QDataStream@Base 5.0.1
 _ZN8QVariantC2ERK10QByteArray@Base 5.0.1
 _ZN8QVariantC2ERK10QJsonArray@Base 5.0.1
 _ZN8QVariantC2ERK10QJsonValue@Base 5.0.1
 _ZN8QVariantC2ERK11QJsonObject@Base 5.0.1
 _ZN8QVariantC2ERK11QModelIndex@Base 5.0.1
 _ZN8QVariantC2ERK11QStringList@Base 5.0.1
 _ZN8QVariantC2ERK12QEasingCurve@Base 5.0.1
 _ZN8QVariantC2ERK13QJsonDocument@Base 5.0.1
 _ZN8QVariantC2ERK18QRegularExpression@Base 5.0.1
 _ZN8QVariantC2ERK4QMapI7QStringS_E@Base 5.0.1
 _ZN8QVariantC2ERK4QUrl@Base 5.0.1
 _ZN8QVariantC2ERK5QDate@Base 5.0.1
 _ZN8QVariantC2ERK5QHashI7QStringS_E@Base 5.0.1
 _ZN8QVariantC2ERK5QLine@Base 5.0.1
 _ZN8QVariantC2ERK5QListIS_E@Base 5.0.1
 _ZN8QVariantC2ERK5QRect@Base 5.0.1
 _ZN8QVariantC2ERK5QSize@Base 5.0.1
 _ZN8QVariantC2ERK5QTime@Base 5.0.1
 _ZN8QVariantC2ERK5QUuid@Base 5.0.1
 _ZN8QVariantC2ERK6QLineF@Base 5.0.1
 _ZN8QVariantC2ERK6QPoint@Base 5.0.1
 _ZN8QVariantC2ERK6QRectF@Base 5.0.1
 _ZN8QVariantC2ERK6QSizeF@Base 5.0.1
 _ZN8QVariantC2ERK7QLocale@Base 5.0.1
 _ZN8QVariantC2ERK7QPointF@Base 5.0.1
 _ZN8QVariantC2ERK7QRegExp@Base 5.0.1
 _ZN8QVariantC2ERK7QString@Base 5.0.1
 _ZN8QVariantC2ERK9QBitArray@Base 5.0.1
 _ZN8QVariantC2ERK9QDateTime@Base 5.0.1
 _ZN8QVariantC2ERKS_@Base 5.0.1
 _ZN8QVariantC2Eb@Base 5.0.1
 _ZN8QVariantC2Ed@Base 5.0.1
 _ZN8QVariantC2Ef@Base 5.0.1
 _ZN8QVariantC2Ei@Base 5.0.1
 _ZN8QVariantC2EiPKv@Base 5.0.1
 _ZN8QVariantC2EiPKvj@Base 5.0.1
 _ZN8QVariantC2Ej@Base 5.0.1
 _ZN8QVariantC2Ex@Base 5.0.1
 _ZN8QVariantC2Ey@Base 5.0.1
 _ZN8QVariantD1Ev@Base 5.0.1
 _ZN8QVariantD2Ev@Base 5.0.1
 _ZN8QVariantaSERKS_@Base 5.0.1
 _ZN9QBitArray4fillEbii@Base 5.0.1
 _ZN9QBitArray6resizeEi@Base 5.0.1
 _ZN9QBitArray8clearBitEi@Base 5.0.1
 _ZN9QBitArrayC1Eib@Base 5.0.1
 _ZN9QBitArrayC2Eib@Base 5.0.1
 _ZN9QBitArrayaNERKS_@Base 5.0.1
 _ZN9QBitArrayeOERKS_@Base 5.0.1
 _ZN9QBitArrayoRERKS_@Base 5.0.1
 _ZN9QCollator12setCollationENS_9CollationE@Base 5.0.1
 _ZN9QCollator14fromIdentifierERK7QString@Base 5.0.1
 _ZN9QCollator14setNumericModeEb@Base 5.0.1
 _ZN9QCollator17setCasePreferenceENS_14CasePreferenceE@Base 5.0.1
 _ZN9QCollator20setIgnorePunctuationEb@Base 5.0.1
 _ZN9QCollator4initEv@Base 5.0.1
 _ZN9QCollator6detachEv@Base 5.0.1
 _ZN9QCollator9setLocaleERK7QLocale@Base 5.0.1
 _ZN9QCollatorC1ERK7QLocaleNS_9CollationE@Base 5.0.1
 _ZN9QCollatorC1ERKS_@Base 5.0.1
 _ZN9QCollatorC2ERK7QLocaleNS_9CollationE@Base 5.0.1
 _ZN9QCollatorC2ERKS_@Base 5.0.1
 _ZN9QCollatorD1Ev@Base 5.0.1
 _ZN9QCollatorD2Ev@Base 5.0.1
 _ZN9QCollatoraSERKS_@Base 5.0.1
 _ZN9QDateTime10fromStringERK7QStringN2Qt10DateFormatE@Base 5.0.1
 _ZN9QDateTime10fromStringERK7QStringS2_@Base 5.0.1
 _ZN9QDateTime10fromTime_tEj@Base 5.0.1
 _ZN9QDateTime11setTimeSpecEN2Qt8TimeSpecE@Base 5.0.1
 _ZN9QDateTime12setUtcOffsetEi@Base 5.0.1
 _ZN9QDateTime15currentDateTimeEv@Base 5.0.1
 _ZN9QDateTime18currentDateTimeUtcEv@Base 5.0.1
 _ZN9QDateTime18setMSecsSinceEpochEx@Base 5.0.1
 _ZN9QDateTime19fromMSecsSinceEpochEx@Base 5.0.1
 _ZN9QDateTime22currentMSecsSinceEpochEv@Base 5.0.1
 _ZN9QDateTime6detachEv@Base 5.0.1
 _ZN9QDateTime7setDateERK5QDate@Base 5.0.1
 _ZN9QDateTime7setTimeERK5QTime@Base 5.0.1
 _ZN9QDateTime9setTime_tEj@Base 5.0.1
 _ZN9QDateTimeC1ERK5QDate@Base 5.0.1
 _ZN9QDateTimeC1ERK5QDateRK5QTimeN2Qt8TimeSpecE@Base 5.0.1
 _ZN9QDateTimeC1ERKS_@Base 5.0.1
 _ZN9QDateTimeC1Ev@Base 5.0.1
 _ZN9QDateTimeC2ERK5QDate@Base 5.0.1
 _ZN9QDateTimeC2ERK5QDateRK5QTimeN2Qt8TimeSpecE@Base 5.0.1
 _ZN9QDateTimeC2ERKS_@Base 5.0.1
 _ZN9QDateTimeC2Ev@Base 5.0.1
 _ZN9QDateTimeD1Ev@Base 5.0.1
 _ZN9QDateTimeD2Ev@Base 5.0.1
 _ZN9QDateTimeaSERKS_@Base 5.0.1
 _ZN9QFileInfo10setCachingEb@Base 5.0.1
 _ZN9QFileInfo12makeAbsoluteEv@Base 5.0.1
 _ZN9QFileInfo6d_funcEv@Base 5.0.1
 _ZN9QFileInfo7refreshEv@Base 5.0.1
 _ZN9QFileInfo7setFileERK4QDirRK7QString@Base 5.0.1
 _ZN9QFileInfo7setFileERK5QFile@Base 5.0.1
 _ZN9QFileInfo7setFileERK7QString@Base 5.0.1
 _ZN9QFileInfoC1EP16QFileInfoPrivate@Base 5.0.1
 _ZN9QFileInfoC1ERK4QDirRK7QString@Base 5.0.1
 _ZN9QFileInfoC1ERK5QFile@Base 5.0.1
 _ZN9QFileInfoC1ERK7QString@Base 5.0.1
 _ZN9QFileInfoC1ERKS_@Base 5.0.1
 _ZN9QFileInfoC1Ev@Base 5.0.1
 _ZN9QFileInfoC2EP16QFileInfoPrivate@Base 5.0.1
 _ZN9QFileInfoC2ERK4QDirRK7QString@Base 5.0.1
 _ZN9QFileInfoC2ERK5QFile@Base 5.0.1
 _ZN9QFileInfoC2ERK7QString@Base 5.0.1
 _ZN9QFileInfoC2ERKS_@Base 5.0.1
 _ZN9QFileInfoC2Ev@Base 5.0.1
 _ZN9QFileInfoD1Ev@Base 5.0.1
 _ZN9QFileInfoD2Ev@Base 5.0.1
 _ZN9QFileInfoaSERKS_@Base 5.0.1
 _ZN9QHashData11free_helperEPFvPNS_4NodeEE@Base 5.0.1
 _ZN9QHashData11shared_nullE@Base 5.0.1
 _ZN9QHashData12allocateNodeEi@Base 5.0.1
 _ZN9QHashData12previousNodeEPNS_4NodeE@Base 5.0.1
 _ZN9QHashData13detach_helperEPFvPNS_4NodeEPvEPFvS1_Eii@Base 5.0.1
 _ZN9QHashData6rehashEi@Base 5.0.1
 _ZN9QHashData8freeNodeEPv@Base 5.0.1
 _ZN9QHashData8nextNodeEPNS_4NodeE@Base 5.0.1
 _ZN9QHashData8willGrowEv@Base 5.0.1
 _ZN9QHashData9hasShrunkEv@Base 5.0.1
 _ZN9QIODevice11qt_metacallEN11QMetaObject4CallEiPPv@Base 5.0.1
 _ZN9QIODevice11qt_metacastEPKc@Base 5.0.1
 _ZN9QIODevice11setOpenModeE6QFlagsINS_12OpenModeFlagEE@Base 5.0.1
 _ZN9QIODevice12aboutToCloseEv@Base 5.0.1
 _ZN9QIODevice12bytesWrittenEx@Base 5.0.1
 _ZN9QIODevice12readLineDataEPcx@Base 5.0.1
 _ZN9QIODevice14setErrorStringERK7QString@Base 5.0.1
 _ZN9QIODevice16staticMetaObjectE@Base 5.0.1
 _ZN9QIODevice16waitForReadyReadEi@Base 5.0.1
 _ZN9QIODevice18setTextModeEnabledEb@Base 5.0.1
 _ZN9QIODevice19readChannelFinishedEv@Base 5.0.1
 _ZN9QIODevice19waitForBytesWrittenEi@Base 5.0.1
 _ZN9QIODevice4openE6QFlagsINS_12OpenModeFlagEE@Base 5.0.1
 _ZN9QIODevice4peekEPcx@Base 5.0.1
 _ZN9QIODevice4peekEx@Base 5.0.1
 _ZN9QIODevice4readEPcx@Base 5.0.1
 _ZN9QIODevice4readEx@Base 5.0.1
 _ZN9QIODevice4seekEx@Base 5.0.1
 _ZN9QIODevice5closeEv@Base 5.0.1
 _ZN9QIODevice5resetEv@Base 5.0.1
 _ZN9QIODevice5writeEPKc@Base 5.0.1
 _ZN9QIODevice5writeEPKcx@Base 5.0.1
 _ZN9QIODevice7getCharEPc@Base 5.0.1
 _ZN9QIODevice7putCharEc@Base 5.0.1
 _ZN9QIODevice7readAllEv@Base 5.0.1
 _ZN9QIODevice8readLineEPcx@Base 5.0.1
 _ZN9QIODevice8readLineEx@Base 5.0.1
 _ZN9QIODevice9readyReadEv@Base 5.0.1
 _ZN9QIODevice9ungetCharEc@Base 5.0.1
 _ZN9QIODeviceC1EP7QObject@Base 5.0.1
 _ZN9QIODeviceC1ER16QIODevicePrivateP7QObject@Base 5.0.1
 _ZN9QIODeviceC1Ev@Base 5.0.1
 _ZN9QIODeviceC2EP7QObject@Base 5.0.1
 _ZN9QIODeviceC2ER16QIODevicePrivateP7QObject@Base 5.0.1
 _ZN9QIODeviceC2Ev@Base 5.0.1
 _ZN9QIODeviceD0Ev@Base 5.0.1
 _ZN9QIODeviceD1Ev@Base 5.0.1
 _ZN9QIODeviceD2Ev@Base 5.0.1
 _ZN9QInternal16registerCallbackENS_8CallbackEPFbPPvE@Base 5.0.1
 _ZN9QInternal17activateCallbacksENS_8CallbackEPPv@Base 5.0.1
 _ZN9QInternal18unregisterCallbackENS_8CallbackEPFbPPvE@Base 5.0.1
 _ZN9QListData11detach_growEPii@Base 5.0.1
 _ZN9QListData11shared_nullE@Base 5.0.1
 _ZN9QListData4moveEii@Base 5.0.1
 _ZN9QListData5eraseEPPv@Base 5.0.1
 _ZN9QListData6appendERKS_@Base 5.0.1
 _ZN9QListData6appendEi@Base 5.0.1
 _ZN9QListData6appendEv@Base 5.0.1
 _ZN9QListData6detachEi@Base 5.0.1
 _ZN9QListData6insertEi@Base 5.0.1
 _ZN9QListData6removeEi@Base 5.0.1
 _ZN9QListData6removeEii@Base 5.0.1
 _ZN9QListData7disposeEPNS_4DataE@Base 5.0.1
 _ZN9QListData7prependEv@Base 5.0.1
 _ZN9QListData7reallocEi@Base 5.0.1
 _ZN9QMetaType12isRegisteredEi@Base 5.0.1
 _ZN9QMetaType12registerTypeEPKcPFvPvEPFS2_PKvE@Base 5.0.1
 _ZN9QMetaType12registerTypeEPKcPFvPvEPFS2_PKvES4_PFS2_S2_S6_Ei6QFlagsINS_8TypeFlagEEPK11QMetaObject@Base 5.0.1
 _ZN9QMetaType15registerTypedefEPKci@Base 5.0.1
 _ZN9QMetaType17metaObjectForTypeEi@Base 5.0.1
 _ZN9QMetaType22registerNormalizedTypeERK10QByteArrayPFvPvEPFS3_PKvES5_PFS3_S3_S7_Ei6QFlagsINS_8TypeFlagEEPK11QMetaObject@Base 5.0.1
 _ZN9QMetaType23registerStreamOperatorsEPKcPFvR11QDataStreamPKvEPFvS3_PvE@Base 5.0.1
 _ZN9QMetaType23registerStreamOperatorsEiPFvR11QDataStreamPKvEPFvS1_PvE@Base 5.0.1
 _ZN9QMetaType25registerNormalizedTypedefERK10QByteArrayi@Base 5.0.1
 _ZN9QMetaType4ctorEPK18QMetaTypeInterface@Base 5.0.1
 _ZN9QMetaType4dtorEv@Base 5.0.1
 _ZN9QMetaType4loadER11QDataStreamiPv@Base 5.0.1
 _ZN9QMetaType4saveER11QDataStreamiPKv@Base 5.0.1
 _ZN9QMetaType4typeEPKc@Base 5.0.1
 _ZN9QMetaType6createEiPKv@Base 5.0.1
 _ZN9QMetaType6sizeOfEi@Base 5.0.1
 _ZN9QMetaType7destroyEiPv@Base 5.0.1
 _ZN9QMetaType8destructEiPv@Base 5.0.1
 _ZN9QMetaType8typeInfoEi@Base 5.0.1
 _ZN9QMetaType8typeNameEi@Base 5.0.1
 _ZN9QMetaType9constructEiPvPKv@Base 5.0.1
 _ZN9QMetaType9typeFlagsEi@Base 5.0.1
 _ZN9QMetaTypeC1ERKS_@Base 5.0.1
 _ZN9QMetaTypeC1Ei@Base 5.0.1
 _ZN9QMetaTypeC2ERKS_@Base 5.0.1
 _ZN9QMetaTypeC2Ei@Base 5.0.1
 _ZN9QMetaTypeaSERKS_@Base 5.0.1
 _ZN9QMimeData11qt_metacallEN11QMetaObject4CallEiPPv@Base 5.0.1
 _ZN9QMimeData11qt_metacastEPKc@Base 5.0.1
 _ZN9QMimeData12removeFormatERK7QString@Base 5.0.1
 _ZN9QMimeData12setColorDataERK8QVariant@Base 5.0.1
 _ZN9QMimeData12setImageDataERK8QVariant@Base 5.0.1
 _ZN9QMimeData16staticMetaObjectE@Base 5.0.1
 _ZN9QMimeData5clearEv@Base 5.0.1
 _ZN9QMimeData7setDataERK7QStringRK10QByteArray@Base 5.0.1
 _ZN9QMimeData7setHtmlERK7QString@Base 5.0.1
 _ZN9QMimeData7setTextERK7QString@Base 5.0.1
 _ZN9QMimeData7setUrlsERK5QListI4QUrlE@Base 5.0.1
 _ZN9QMimeDataC1Ev@Base 5.0.1
 _ZN9QMimeDataC2Ev@Base 5.0.1
 _ZN9QMimeDataD0Ev@Base 5.0.1
 _ZN9QMimeDataD1Ev@Base 5.0.1
 _ZN9QMimeDataD2Ev@Base 5.0.1
 _ZN9QMimeTypeC1ERK16QMimeTypePrivate@Base 5.0.1
 _ZN9QMimeTypeC1ERKS_@Base 5.0.1
 _ZN9QMimeTypeC1Ev@Base 5.0.1
 _ZN9QMimeTypeC2ERK16QMimeTypePrivate@Base 5.0.1
 _ZN9QMimeTypeC2ERKS_@Base 5.0.1
 _ZN9QMimeTypeC2Ev@Base 5.0.1
 _ZN9QMimeTypeD1Ev@Base 5.0.1
 _ZN9QMimeTypeD2Ev@Base 5.0.1
 _ZN9QMimeTypeaSERKS_@Base 5.0.1
 _ZN9QResource11searchPathsEv@Base 5.0.1
 _ZN9QResource11setFileNameERK7QString@Base 5.0.1
 _ZN9QResource13addSearchPathERK7QString@Base 5.0.1
 _ZN9QResource16registerResourceEPKhRK7QString@Base 5.0.1
 _ZN9QResource16registerResourceERK7QStringS2_@Base 5.0.1
 _ZN9QResource18unregisterResourceEPKhRK7QString@Base 5.0.1
 _ZN9QResource18unregisterResourceERK7QStringS2_@Base 5.0.1
 _ZN9QResource9setLocaleERK7QLocale@Base 5.0.1
 _ZN9QResourceC1ERK7QStringRK7QLocale@Base 5.0.1
 _ZN9QResourceC2ERK7QStringRK7QLocale@Base 5.0.1
 _ZN9QResourceD1Ev@Base 5.0.1
 _ZN9QResourceD2Ev@Base 5.0.1
 _ZN9QSettings10beginGroupERK7QString@Base 5.0.1
 _ZN9QSettings11qt_metacallEN11QMetaObject4CallEiPPv@Base 5.0.1
 _ZN9QSettings11qt_metacastEPKc@Base 5.0.1
 _ZN9QSettings11setIniCodecEP10QTextCodec@Base 5.0.1
 _ZN9QSettings11setIniCodecEPKc@Base 5.0.1
 _ZN9QSettings13defaultFormatEv@Base 5.0.1
 _ZN9QSettings13setArrayIndexEi@Base 5.0.1
 _ZN9QSettings14beginReadArrayERK7QString@Base 5.0.1
 _ZN9QSettings14registerFormatERK7QStringPFbR9QIODeviceR4QMapIS0_8QVariantEEPFbS4_RKS7_EN2Qt15CaseSensitivityE@Base 5.0.1
 _ZN9QSettings14setUserIniPathERK7QString@Base 5.0.1
 _ZN9QSettings15beginWriteArrayERK7QStringi@Base 5.0.1
 _ZN9QSettings16setDefaultFormatENS_6FormatE@Base 5.0.1
 _ZN9QSettings16setSystemIniPathERK7QString@Base 5.0.1
 _ZN9QSettings16staticMetaObjectE@Base 5.0.1
 _ZN9QSettings19setFallbacksEnabledEb@Base 5.0.1
 _ZN9QSettings4syncEv@Base 5.0.1
 _ZN9QSettings5clearEv@Base 5.0.1
 _ZN9QSettings5eventEP6QEvent@Base 5.0.1
 _ZN9QSettings6removeERK7QString@Base 5.0.1
 _ZN9QSettings7setPathENS_6FormatENS_5ScopeERK7QString@Base 5.0.1
 _ZN9QSettings8endArrayEv@Base 5.0.1
 _ZN9QSettings8endGroupEv@Base 5.0.1
 _ZN9QSettings8setValueERK7QStringRK8QVariant@Base 5.0.1
 _ZN9QSettingsC1ENS_5ScopeERK7QStringS3_P7QObject@Base 5.0.1
 _ZN9QSettingsC1ENS_6FormatENS_5ScopeERK7QStringS4_P7QObject@Base 5.0.1
 _ZN9QSettingsC1EP7QObject@Base 5.0.1
 _ZN9QSettingsC1ERK7QStringNS_6FormatEP7QObject@Base 5.0.1
 _ZN9QSettingsC1ERK7QStringS2_P7QObject@Base 5.0.1
 _ZN9QSettingsC2ENS_5ScopeERK7QStringS3_P7QObject@Base 5.0.1
 _ZN9QSettingsC2ENS_6FormatENS_5ScopeERK7QStringS4_P7QObject@Base 5.0.1
 _ZN9QSettingsC2EP7QObject@Base 5.0.1
 _ZN9QSettingsC2ERK7QStringNS_6FormatEP7QObject@Base 5.0.1
 _ZN9QSettingsC2ERK7QStringS2_P7QObject@Base 5.0.1
 _ZN9QSettingsD0Ev@Base 5.0.1
 _ZN9QSettingsD1Ev@Base 5.0.1
 _ZN9QSettingsD2Ev@Base 5.0.1
 _ZN9QTimeLine10timerEventEP11QTimerEvent@Base 5.0.1
 _ZN9QTimeLine11qt_metacallEN11QMetaObject4CallEiPPv@Base 5.0.1
 _ZN9QTimeLine11qt_metacastEPKc@Base 5.0.1
 _ZN9QTimeLine11setDurationEi@Base 5.0.1
 _ZN9QTimeLine11setEndFrameEi@Base 5.0.1
 _ZN9QTimeLine12frameChangedEiNS_14QPrivateSignalE@Base 5.0.1
 _ZN9QTimeLine12setDirectionENS_9DirectionE@Base 5.0.1
 _ZN9QTimeLine12setLoopCountEi@Base 5.0.1
 _ZN9QTimeLine12stateChangedENS_5StateENS_14QPrivateSignalE@Base 5.0.1
 _ZN9QTimeLine12valueChangedEdNS_14QPrivateSignalE@Base 5.0.1
 _ZN9QTimeLine13setCurveShapeENS_10CurveShapeE@Base 5.0.1
 _ZN9QTimeLine13setFrameRangeEii@Base 5.0.1
 _ZN9QTimeLine13setStartFrameEi@Base 5.0.1
 _ZN9QTimeLine14setCurrentTimeEi@Base 5.0.1
 _ZN9QTimeLine14setEasingCurveERK12QEasingCurve@Base 5.0.1
 _ZN9QTimeLine15toggleDirectionEv@Base 5.0.1
 _ZN9QTimeLine16staticMetaObjectE@Base 5.0.1
 _ZN9QTimeLine17setUpdateIntervalEi@Base 5.0.1
 _ZN9QTimeLine4stopEv@Base 5.0.1
 _ZN9QTimeLine5startEv@Base 5.0.1
 _ZN9QTimeLine6resumeEv@Base 5.0.1
 _ZN9QTimeLine8finishedENS_14QPrivateSignalE@Base 5.0.1
 _ZN9QTimeLine9setPausedEb@Base 5.0.1
 _ZN9QTimeLineC1EiP7QObject@Base 5.0.1
 _ZN9QTimeLineC2EiP7QObject@Base 5.0.1
 _ZN9QTimeLineD0Ev@Base 5.0.1
 _ZN9QTimeLineD1Ev@Base 5.0.1
 _ZN9QTimeLineD2Ev@Base 5.0.1
 _ZN9QUrlQuery12addQueryItemERK7QStringS2_@Base 5.0.1
 _ZN9QUrlQuery13setQueryItemsERK5QListI5QPairI7QStringS2_EE@Base 5.0.1
 _ZN9QUrlQuery15removeQueryItemERK7QString@Base 5.0.1
 _ZN9QUrlQuery18setQueryDelimitersE5QCharS0_@Base 5.0.1
 _ZN9QUrlQuery19removeAllQueryItemsERK7QString@Base 5.0.1
 _ZN9QUrlQuery5clearEv@Base 5.0.1
 _ZN9QUrlQuery8setQueryERK7QString@Base 5.0.1
 _ZN9QUrlQueryC1ERK4QUrl@Base 5.0.1
 _ZN9QUrlQueryC1ERK7QString@Base 5.0.1
 _ZN9QUrlQueryC1ERKS_@Base 5.0.1
 _ZN9QUrlQueryC1Ev@Base 5.0.1
 _ZN9QUrlQueryC2ERK4QUrl@Base 5.0.1
 _ZN9QUrlQueryC2ERK7QString@Base 5.0.1
 _ZN9QUrlQueryC2ERKS_@Base 5.0.1
 _ZN9QUrlQueryC2Ev@Base 5.0.1
 _ZN9QUrlQueryD1Ev@Base 5.0.1
 _ZN9QUrlQueryD2Ev@Base 5.0.1
 _ZN9QUrlQueryaSERKS_@Base 5.0.1
 _ZN9QXmlUtils10isBaseCharE5QChar@Base 5.0.1
 _ZN9QXmlUtils10isExtenderE5QChar@Base 5.0.1
 _ZN9QXmlUtils10isNameCharE5QChar@Base 5.0.1
 _ZN9QXmlUtils10isPublicIDERK7QString@Base 5.0.1
 _ZN9QXmlUtils13isIdeographicE5QChar@Base 5.0.1
 _ZN9QXmlUtils13rangeContainsEPK13QXmlCharRangeS2_5QChar@Base 5.0.1
 _ZN9QXmlUtils15isCombiningCharE5QChar@Base 5.0.1
 _ZN9QXmlUtils6isCharE5QChar@Base 5.0.1
 _ZN9QXmlUtils7isDigitE5QChar@Base 5.0.1
 _ZN9QXmlUtils8isLetterE5QChar@Base 5.0.1
 _ZN9QXmlUtils8isNCNameERK10QStringRef@Base 5.0.1
 _ZN9QXmlUtils9isEncNameERK7QString@Base 5.0.1
 _ZN9QtPrivate13isBuiltinTypeERK10QByteArray@Base 5.0.1
 _ZN9QtPrivate14ExceptionStore12setExceptionERK10QException@Base 5.0.1
 _ZN9QtPrivate14ExceptionStore22throwPossibleExceptionEv@Base 5.0.1
 _ZN9QtPrivate14ExceptionStore9exceptionEv@Base 5.0.1
 _ZN9QtPrivate15ExceptionHolderC1EP10QException@Base 5.0.1
 _ZN9QtPrivate15ExceptionHolderC1ERKS0_@Base 5.0.1
 _ZN9QtPrivate15ExceptionHolderC2EP10QException@Base 5.0.1
 _ZN9QtPrivate15ExceptionHolderC2ERKS0_@Base 5.0.1
 _ZN9QtPrivate15ExceptionHolderD1Ev@Base 5.0.1
 _ZN9QtPrivate15ExceptionHolderD2Ev@Base 5.0.1
 _ZN9QtPrivate15ExceptionHolderaSERKS0_@Base 5.0.1
 _ZN9QtPrivate15ResultStoreBase10addResultsEiPKvii@Base 5.0.1
 _ZN9QtPrivate15ResultStoreBase13setFilterModeEb@Base 5.0.1
 _ZN9QtPrivate15ResultStoreBase15syncResultCountEv@Base 5.0.1
 _ZN9QtPrivate15ResultStoreBase16insertResultItemEiRNS_10ResultItemE@Base 5.0.1
 _ZN9QtPrivate15ResultStoreBase17updateInsertIndexEii@Base 5.0.1
 _ZN9QtPrivate15ResultStoreBase18syncPendingResultsEv@Base 5.0.1
 _ZN9QtPrivate15ResultStoreBase23insertResultItemIfValidEiRNS_10ResultItemE@Base 5.0.1
 _ZN9QtPrivate15ResultStoreBase9addResultEiPKv@Base 5.0.1
 _ZN9QtPrivate15ResultStoreBaseC1Ev@Base 5.0.1
 _ZN9QtPrivate15ResultStoreBaseC2Ev@Base 5.0.1
 _ZN9QtPrivate16QStringList_joinEPK11QStringListPK5QChari@Base 5.0.1
 _ZN9QtPrivate16QStringList_sortEP11QStringListN2Qt15CaseSensitivityE@Base 5.0.1
 _ZN9QtPrivate18QStringList_filterEPK11QStringListRK18QRegularExpression@Base 5.0.1
 _ZN9QtPrivate18QStringList_filterEPK11QStringListRK7QRegExp@Base 5.0.1
 _ZN9QtPrivate18QStringList_filterEPK11QStringListRK7QStringN2Qt15CaseSensitivityE@Base 5.0.1
 _ZN9QtPrivate18ResultIteratorBase14batchedAdvanceEv@Base 5.0.1
 _ZN9QtPrivate18ResultIteratorBaseC1EN4QMapIiNS_10ResultItemEE14const_iteratorEi@Base 5.0.1
 _ZN9QtPrivate18ResultIteratorBaseC1Ev@Base 5.0.1
 _ZN9QtPrivate18ResultIteratorBaseC2EN4QMapIiNS_10ResultItemEE14const_iteratorEi@Base 5.0.1
 _ZN9QtPrivate18ResultIteratorBaseC2Ev@Base 5.0.1
 _ZN9QtPrivate18ResultIteratorBaseppEv@Base 5.0.1
 _ZN9QtPrivate19QStringList_indexOfEPK11QStringListR7QRegExpi@Base 5.0.1
 _ZN9QtPrivate19QStringList_indexOfEPK11QStringListRK18QRegularExpressioni@Base 5.0.1
 _ZN9QtPrivate19QStringList_indexOfEPK11QStringListRK7QRegExpi@Base 5.0.1
 _ZN9QtPrivate20QStringList_containsEPK11QStringListRK7QStringN2Qt15CaseSensitivityE@Base 5.0.1
 _ZN9QtPrivate23QStringList_lastIndexOfEPK11QStringListR7QRegExpi@Base 5.0.1
 _ZN9QtPrivate23QStringList_lastIndexOfEPK11QStringListRK18QRegularExpressioni@Base 5.0.1
 _ZN9QtPrivate23QStringList_lastIndexOfEPK11QStringListRK7QRegExpi@Base 5.0.1
 _ZN9QtPrivate28QStringList_removeDuplicatesEP11QStringList@Base 5.0.1
 _ZN9QtPrivate28QStringList_replaceInStringsEP11QStringListRK18QRegularExpressionRK7QString@Base 5.0.1
 _ZN9QtPrivate28QStringList_replaceInStringsEP11QStringListRK7QRegExpRK7QString@Base 5.0.1
 _ZN9QtPrivate28QStringList_replaceInStringsEP11QStringListRK7QStringS4_N2Qt15CaseSensitivityE@Base 5.0.1
 _ZNK10QByteArray10simplifiedEv@Base 5.0.1
 _ZNK10QByteArray10startsWithEPKc@Base 5.0.1
 _ZNK10QByteArray10startsWithERKS_@Base 5.0.1
 _ZNK10QByteArray10startsWithEc@Base 5.0.1
 _ZNK10QByteArray10toLongLongEPbi@Base 5.0.1
 _ZNK10QByteArray11lastIndexOfEPKci@Base 5.0.1
 _ZNK10QByteArray11lastIndexOfERKS_i@Base 5.0.1
 _ZNK10QByteArray11lastIndexOfEci@Base 5.0.1
 _ZNK10QByteArray11toULongLongEPbi@Base 5.0.1
 _ZNK10QByteArray13leftJustifiedEicb@Base 5.0.1
 _ZNK10QByteArray13nulTerminatedEv@Base 5.0.1
 _ZNK10QByteArray14rightJustifiedEicb@Base 5.0.1
 _ZNK10QByteArray17toPercentEncodingERKS_S1_c@Base 5.0.1
 _ZNK10QByteArray3midEii@Base 5.0.1
 _ZNK10QByteArray4leftEi@Base 5.0.1
 _ZNK10QByteArray5countEPKc@Base 5.0.1
 _ZNK10QByteArray5countERKS_@Base 5.0.1
 _ZNK10QByteArray5countEc@Base 5.0.1
 _ZNK10QByteArray5rightEi@Base 5.0.1
 _ZNK10QByteArray5splitEc@Base 5.0.1
 _ZNK10QByteArray5toHexEv@Base 5.0.1
 _ZNK10QByteArray5toIntEPbi@Base 5.0.1
 _ZNK10QByteArray6isNullEv@Base 5.0.1
 _ZNK10QByteArray6toLongEPbi@Base 5.0.1
 _ZNK10QByteArray6toUIntEPbi@Base 5.0.1
 _ZNK10QByteArray7indexOfEPKci@Base 5.0.1
 _ZNK10QByteArray7indexOfERKS_i@Base 5.0.1
 _ZNK10QByteArray7indexOfEci@Base 5.0.1
 _ZNK10QByteArray7toFloatEPb@Base 5.0.1
 _ZNK10QByteArray7toLowerEv@Base 5.0.1
 _ZNK10QByteArray7toShortEPbi@Base 5.0.1
 _ZNK10QByteArray7toULongEPbi@Base 5.0.1
 _ZNK10QByteArray7toUpperEv@Base 5.0.1
 _ZNK10QByteArray7trimmedEv@Base 5.0.1
 _ZNK10QByteArray8endsWithEPKc@Base 5.0.1
 _ZNK10QByteArray8endsWithERKS_@Base 5.0.1
 _ZNK10QByteArray8endsWithEc@Base 5.0.1
 _ZNK10QByteArray8repeatedEi@Base 5.0.1
 _ZNK10QByteArray8toBase64Ev@Base 5.0.1
 _ZNK10QByteArray8toDoubleEPb@Base 5.0.1
 _ZNK10QByteArray8toUShortEPbi@Base 5.0.1
 _ZNK10QEventLoop10metaObjectEv@Base 5.0.1
 _ZNK10QEventLoop9isRunningEv@Base 5.0.1
 _ZNK10QException5cloneEv@Base 5.0.1
 _ZNK10QException5raiseEv@Base 5.0.1
 _ZNK10QJsonArray13toVariantListEv@Base 5.0.1
 _ZNK10QJsonArray2atEi@Base 5.0.1
 _ZNK10QJsonArray4lastEv@Base 5.0.1
 _ZNK10QJsonArray4sizeEv@Base 5.0.1
 _ZNK10QJsonArray5firstEv@Base 5.0.1
 _ZNK10QJsonArray7isEmptyEv@Base 5.0.1
 _ZNK10QJsonArray8containsERK10QJsonValue@Base 5.0.1
 _ZNK10QJsonArrayeqERKS_@Base 5.0.1
 _ZNK10QJsonArrayixEi@Base 5.0.1
 _ZNK10QJsonArrayneERKS_@Base 5.0.1
 _ZNK10QJsonValue4typeEv@Base 5.0.1
 _ZNK10QJsonValue6toBoolEb@Base 5.0.1
 _ZNK10QJsonValue7toArrayERK10QJsonArray@Base 5.0.1
 _ZNK10QJsonValue7toArrayEv@Base 5.0.1
 _ZNK10QJsonValue8toDoubleEd@Base 5.0.1
 _ZNK10QJsonValue8toObjectERK11QJsonObject@Base 5.0.1
 _ZNK10QJsonValue8toObjectEv@Base 5.0.1
 _ZNK10QJsonValue8toStringERK7QString@Base 5.0.1
 _ZNK10QJsonValue9toVariantEv@Base 5.0.1
 _ZNK10QJsonValueeqERKS_@Base 5.0.1
 _ZNK10QJsonValueneERKS_@Base 5.0.1
 _ZNK10QSemaphore9availableEv@Base 5.0.1
 _ZNK10QStringRef10startsWithE13QLatin1StringN2Qt15CaseSensitivityE@Base 5.0.1
 _ZNK10QStringRef10startsWithE5QCharN2Qt15CaseSensitivityE@Base 5.0.1
 _ZNK10QStringRef10startsWithERK7QStringN2Qt15CaseSensitivityE@Base 5.0.1
 _ZNK10QStringRef10startsWithERKS_N2Qt15CaseSensitivityE@Base 5.0.1
 _ZNK10QStringRef11lastIndexOfE13QLatin1StringiN2Qt15CaseSensitivityE@Base 5.0.1
 _ZNK10QStringRef11lastIndexOfE5QChariN2Qt15CaseSensitivityE@Base 5.0.1
 _ZNK10QStringRef11lastIndexOfERK7QStringiN2Qt15CaseSensitivityE@Base 5.0.1
 _ZNK10QStringRef11lastIndexOfERKS_iN2Qt15CaseSensitivityE@Base 5.0.1
 _ZNK10QStringRef11toLocal8BitEv@Base 5.0.1
 _ZNK10QStringRef5countE5QCharN2Qt15CaseSensitivityE@Base 5.0.1
 _ZNK10QStringRef5countERK7QStringN2Qt15CaseSensitivityE@Base 5.0.1
 _ZNK10QStringRef5countERKS_N2Qt15CaseSensitivityE@Base 5.0.1
 _ZNK10QStringRef6toUcs4Ev@Base 5.0.1
 _ZNK10QStringRef6toUtf8Ev@Base 5.0.1
 _ZNK10QStringRef7indexOfE13QLatin1StringiN2Qt15CaseSensitivityE@Base 5.0.1
 _ZNK10QStringRef7indexOfE5QChariN2Qt15CaseSensitivityE@Base 5.0.1
 _ZNK10QStringRef7indexOfERK7QStringiN2Qt15CaseSensitivityE@Base 5.0.1
 _ZNK10QStringRef7indexOfERKS_iN2Qt15CaseSensitivityE@Base 5.0.1
 _ZNK10QStringRef8appendToEP7QString@Base 5.0.1
 _ZNK10QStringRef8endsWithE13QLatin1StringN2Qt15CaseSensitivityE@Base 5.0.1
 _ZNK10QStringRef8endsWithE5QCharN2Qt15CaseSensitivityE@Base 5.0.1
 _ZNK10QStringRef8endsWithERK7QStringN2Qt15CaseSensitivityE@Base 5.0.1
 _ZNK10QStringRef8endsWithERKS_N2Qt15CaseSensitivityE@Base 5.0.1
 _ZNK10QStringRef8toLatin1Ev@Base 5.0.1
 _ZNK10QStringRef8toStringEv@Base 5.0.1
 _ZNK10QTextCodec11fromUnicodeERK7QString@Base 5.0.1
 _ZNK10QTextCodec11makeDecoderE6QFlagsINS_14ConversionFlagEE@Base 5.0.1
 _ZNK10QTextCodec11makeEncoderE6QFlagsINS_14ConversionFlagEE@Base 5.0.1
 _ZNK10QTextCodec7aliasesEv@Base 5.0.1
 _ZNK10QTextCodec9canEncodeE5QChar@Base 5.0.1
 _ZNK10QTextCodec9canEncodeERK7QString@Base 5.0.1
 _ZNK10QTextCodec9toUnicodeEPKc@Base 5.0.1
 _ZNK10QTextCodec9toUnicodeERK10QByteArray@Base 5.0.1
 _ZNK11QDataStream22floatingPointPrecisionEv@Base 5.0.1
 _ZNK11QDataStream5atEndEv@Base 5.0.1
 _ZNK11QDataStream6statusEv@Base 5.0.1
 _ZNK11QFileDevice10metaObjectEv@Base 5.0.1
 _ZNK11QFileDevice11permissionsEv@Base 5.0.1
 _ZNK11QFileDevice12isSequentialEv@Base 5.0.1
 _ZNK11QFileDevice3posEv@Base 5.0.1
 _ZNK11QFileDevice4sizeEv@Base 5.0.1
 _ZNK11QFileDevice5atEndEv@Base 5.0.1
 _ZNK11QFileDevice5errorEv@Base 5.0.1
 _ZNK11QFileDevice6handleEv@Base 5.0.1
 _ZNK11QFileDevice8fileNameEv@Base 5.0.1
 _ZNK11QFinalState10metaObjectEv@Base 5.0.1
 _ZNK11QJsonObject12toVariantMapEv@Base 5.0.1
 _ZNK11QJsonObject4keysEv@Base 5.0.1
 _ZNK11QJsonObject4sizeEv@Base 5.0.1
 _ZNK11QJsonObject5keyAtEi@Base 5.0.1
 _ZNK11QJsonObject5valueERK7QString@Base 5.0.1
 _ZNK11QJsonObject7isEmptyEv@Base 5.0.1
 _ZNK11QJsonObject7valueAtEi@Base 5.0.1
 _ZNK11QJsonObject8containsERK7QString@Base 5.0.1
 _ZNK11QJsonObject9constFindERK7QString@Base 5.0.1
 _ZNK11QJsonObjecteqERKS_@Base 5.0.1
 _ZNK11QJsonObjectixERK7QString@Base 5.0.1
 _ZNK11QJsonObjectneERKS_@Base 5.0.1
 _ZNK11QMetaMethod10attributesEv@Base 5.0.1
 _ZNK11QMetaMethod10methodTypeEv@Base 5.0.1
 _ZNK11QMetaMethod10returnTypeEv@Base 5.0.1
 _ZNK11QMetaMethod11methodIndexEv@Base 5.0.1
 _ZNK11QMetaMethod13parameterTypeEi@Base 5.0.1
 _ZNK11QMetaMethod14parameterCountEv@Base 5.0.1
 _ZNK11QMetaMethod14parameterNamesEv@Base 5.0.1
 _ZNK11QMetaMethod14parameterTypesEv@Base 5.0.1
 _ZNK11QMetaMethod15methodSignatureEv@Base 5.0.1
 _ZNK11QMetaMethod17getParameterTypesEPi@Base 5.0.1
 _ZNK11QMetaMethod3tagEv@Base 5.0.1
 _ZNK11QMetaMethod4nameEv@Base 5.0.1
 _ZNK11QMetaMethod6accessEv@Base 5.0.1
 _ZNK11QMetaMethod6invokeEP7QObjectN2Qt14ConnectionTypeE22QGenericReturnArgument16QGenericArgumentS5_S5_S5_S5_S5_S5_S5_S5_S5_@Base 5.0.1
 _ZNK11QMetaMethod8revisionEv@Base 5.0.1
 _ZNK11QMetaMethod8typeNameEv@Base 5.0.1
 _ZNK11QMetaObject10enumeratorEi@Base 5.0.1
 _ZNK11QMetaObject11constructorEi@Base 5.0.1
 _ZNK11QMetaObject11indexOfSlotEPKc@Base 5.0.1
 _ZNK11QMetaObject11methodCountEv@Base 5.0.1
 _ZNK11QMetaObject11newInstanceE16QGenericArgumentS0_S0_S0_S0_S0_S0_S0_S0_S0_@Base 5.0.1
 _ZNK11QMetaObject12methodOffsetEv@Base 5.0.1
 _ZNK11QMetaObject12userPropertyEv@Base 5.0.1
 _ZNK11QMetaObject13indexOfMethodEPKc@Base 5.0.1
 _ZNK11QMetaObject13indexOfSignalEPKc@Base 5.0.1
 _ZNK11QMetaObject13propertyCountEv@Base 5.0.1
 _ZNK11QMetaObject14classInfoCountEv@Base 5.0.1
 _ZNK11QMetaObject14propertyOffsetEv@Base 5.0.1
 _ZNK11QMetaObject15classInfoOffsetEv@Base 5.0.1
 _ZNK11QMetaObject15enumeratorCountEv@Base 5.0.1
 _ZNK11QMetaObject15indexOfPropertyEPKc@Base 5.0.1
 _ZNK11QMetaObject15static_metacallENS_4CallEiPPv@Base 5.0.1
 _ZNK11QMetaObject16constructorCountEv@Base 5.0.1
 _ZNK11QMetaObject16enumeratorOffsetEv@Base 5.0.1
 _ZNK11QMetaObject16indexOfClassInfoEPKc@Base 5.0.1
 _ZNK11QMetaObject17indexOfEnumeratorEPKc@Base 5.0.1
 _ZNK11QMetaObject18indexOfConstructorEPKc@Base 5.0.1
 _ZNK11QMetaObject2trEPKcS1_i@Base 5.0.1
 _ZNK11QMetaObject4castEP7QObject@Base 5.0.1
 _ZNK11QMetaObject4castEPK7QObject@Base 5.0.1
 _ZNK11QMetaObject6methodEi@Base 5.0.1
 _ZNK11QMetaObject8propertyEi@Base 5.0.1
 _ZNK11QMetaObject9classInfoEi@Base 5.0.1
 _ZNK11QMetaObject9classNameEv@Base 5.0.1
 _ZNK11QObjectData17dynamicMetaObjectEv@Base 5.0.1
 _ZNK11QTextStream10fieldWidthEv@Base 5.0.1
 _ZNK11QTextStream11integerBaseEv@Base 5.0.1
 _ZNK11QTextStream11numberFlagsEv@Base 5.0.1
 _ZNK11QTextStream14fieldAlignmentEv@Base 5.0.1
 _ZNK11QTextStream17autoDetectUnicodeEv@Base 5.0.1
 _ZNK11QTextStream18realNumberNotationEv@Base 5.0.1
 _ZNK11QTextStream19realNumberPrecisionEv@Base 5.0.1
 _ZNK11QTextStream21generateByteOrderMarkEv@Base 5.0.1
 _ZNK11QTextStream3posEv@Base 5.0.1
 _ZNK11QTextStream5atEndEv@Base 5.0.1
 _ZNK11QTextStream5codecEv@Base 5.0.1
 _ZNK11QTextStream6deviceEv@Base 5.0.1
 _ZNK11QTextStream6localeEv@Base 5.0.1
 _ZNK11QTextStream6statusEv@Base 5.0.1
 _ZNK11QTextStream6stringEv@Base 5.0.1
 _ZNK11QTextStream7padCharEv@Base 5.0.1
 _ZNK11QThreadPool10metaObjectEv@Base 5.0.1
 _ZNK11QThreadPool13expiryTimeoutEv@Base 5.0.1
 _ZNK11QThreadPool14maxThreadCountEv@Base 5.0.1
 _ZNK11QThreadPool17activeThreadCountEv@Base 5.0.1
 _ZNK11QTranslator10metaObjectEv@Base 5.0.1
 _ZNK11QTranslator7isEmptyEv@Base 5.0.1
 _ZNK11QTranslator9translateEPKcS1_S1_i@Base 5.0.1
 _ZNK12QDirIterator4pathEv@Base 5.0.1
 _ZNK12QDirIterator7hasNextEv@Base 5.0.1
 _ZNK12QDirIterator8fileInfoEv@Base 5.0.1
 _ZNK12QDirIterator8fileNameEv@Base 5.0.1
 _ZNK12QDirIterator8filePathEv@Base 5.0.1
 _ZNK12QEasingCurve10customTypeEv@Base 5.0.1
 _ZNK12QEasingCurve13toCubicSplineEv@Base 5.0.1
 _ZNK12QEasingCurve16valueForProgressEd@Base 5.0.1
 _ZNK12QEasingCurve4typeEv@Base 5.0.1
 _ZNK12QEasingCurve6periodEv@Base 5.0.1
 _ZNK12QEasingCurve9amplitudeEv@Base 5.0.1
 _ZNK12QEasingCurve9overshootEv@Base 5.0.1
 _ZNK12QEasingCurveeqERKS_@Base 5.0.1
 _ZNK12QMapNodeBase12previousNodeEv@Base 5.0.1
 _ZNK12QMapNodeBase8nextNodeEv@Base 5.0.1
 _ZNK12QTextDecoder10hasFailureEv@Base 5.0.1
 _ZNK12QTextEncoder10hasFailureEv@Base 5.0.1
 _ZNK13QElapsedTimer10hasExpiredEx@Base 5.0.1
 _ZNK13QElapsedTimer12nsecsElapsedEv@Base 5.0.1
 _ZNK13QElapsedTimer19msecsSinceReferenceEv@Base 5.0.1
 _ZNK13QElapsedTimer6secsToERKS_@Base 5.0.1
 _ZNK13QElapsedTimer7elapsedEv@Base 5.0.1
 _ZNK13QElapsedTimer7isValidEv@Base 5.0.1
 _ZNK13QElapsedTimer7msecsToERKS_@Base 5.0.1
 _ZNK13QHistoryState10metaObjectEv@Base 5.0.1
 _ZNK13QHistoryState11historyTypeEv@Base 5.0.1
 _ZNK13QHistoryState12defaultStateEv@Base 5.0.1
 _ZNK13QJsonDocument12toBinaryDataEv@Base 5.0.1
 _ZNK13QJsonDocument5arrayEv@Base 5.0.1
 _ZNK13QJsonDocument6isNullEv@Base 5.0.1
 _ZNK13QJsonDocument6objectEv@Base 5.0.1
 _ZNK13QJsonDocument6toJsonEv@Base 5.0.1
 _ZNK13QJsonDocument7isArrayEv@Base 5.0.1
 _ZNK13QJsonDocument7isEmptyEv@Base 5.0.1
 _ZNK13QJsonDocument7rawDataEPi@Base 5.0.1
 _ZNK13QJsonDocument8isObjectEv@Base 5.0.1
 _ZNK13QJsonDocument9toVariantEv@Base 5.0.1
 _ZNK13QJsonDocumenteqERKS_@Base 5.0.1
 _ZNK13QJsonValueRef7toArrayEv@Base 5.0.1
 _ZNK13QJsonValueRef7toValueEv@Base 5.0.1
 _ZNK13QJsonValueRef8toObjectEv@Base 5.0.1
 _ZNK13QMetaProperty10enumeratorEv@Base 5.0.1
 _ZNK13QMetaProperty10isConstantEv@Base 5.0.1
 _ZNK13QMetaProperty10isEditableEPK7QObject@Base 5.0.1
 _ZNK13QMetaProperty10isEnumTypeEv@Base 5.0.1
 _ZNK13QMetaProperty10isFlagTypeEv@Base 5.0.1
 _ZNK13QMetaProperty10isReadableEv@Base 5.0.1
 _ZNK13QMetaProperty10isWritableEv@Base 5.0.1
 _ZNK13QMetaProperty12hasStdCppSetEv@Base 5.0.1
 _ZNK13QMetaProperty12isDesignableEPK7QObject@Base 5.0.1
 _ZNK13QMetaProperty12isResettableEv@Base 5.0.1
 _ZNK13QMetaProperty12isScriptableEPK7QObject@Base 5.0.1
 _ZNK13QMetaProperty12notifySignalEv@Base 5.0.1
 _ZNK13QMetaProperty13propertyIndexEv@Base 5.0.1
 _ZNK13QMetaProperty15hasNotifySignalEv@Base 5.0.1
 _ZNK13QMetaProperty17notifySignalIndexEv@Base 5.0.1
 _ZNK13QMetaProperty4nameEv@Base 5.0.1
 _ZNK13QMetaProperty4readEPK7QObject@Base 5.0.1
 _ZNK13QMetaProperty4typeEv@Base 5.0.1
 _ZNK13QMetaProperty5resetEP7QObject@Base 5.0.1
 _ZNK13QMetaProperty5writeEP7QObjectRK8QVariant@Base 5.0.1
 _ZNK13QMetaProperty6isUserEPK7QObject@Base 5.0.1
 _ZNK13QMetaProperty7isFinalEv@Base 5.0.1
 _ZNK13QMetaProperty8isStoredEPK7QObject@Base 5.0.1
 _ZNK13QMetaProperty8revisionEv@Base 5.0.1
 _ZNK13QMetaProperty8typeNameEv@Base 5.0.1
 _ZNK13QMetaProperty8userTypeEv@Base 5.0.1
 _ZNK13QMimeDatabase12allMimeTypesEv@Base 5.0.1
 _ZNK13QMimeDatabase14mimeTypeForUrlERK4QUrl@Base 5.0.1
 _ZNK13QMimeDatabase15mimeTypeForDataEP9QIODevice@Base 5.0.1
 _ZNK13QMimeDatabase15mimeTypeForDataERK10QByteArray@Base 5.0.1
 _ZNK13QMimeDatabase15mimeTypeForFileERK7QStringNS_9MatchModeE@Base 5.0.1
 _ZNK13QMimeDatabase15mimeTypeForFileERK9QFileInfoNS_9MatchModeE@Base 5.0.1
 _ZNK13QMimeDatabase15mimeTypeForNameERK7QString@Base 5.0.1
 _ZNK13QMimeDatabase17suffixForFileNameERK7QString@Base 5.0.1
 _ZNK13QMimeDatabase20mimeTypesForFileNameERK7QString@Base 5.0.1
 _ZNK13QMimeDatabase26mimeTypeForFileNameAndDataERK7QStringP9QIODevice@Base 5.0.1
 _ZNK13QMimeDatabase26mimeTypeForFileNameAndDataERK7QStringRK10QByteArray@Base 5.0.1
 _ZNK13QPluginLoader10metaObjectEv@Base 5.0.1
 _ZNK13QPluginLoader11errorStringEv@Base 5.0.1
 _ZNK13QPluginLoader8fileNameEv@Base 5.0.1
 _ZNK13QPluginLoader8isLoadedEv@Base 5.0.1
 _ZNK13QPluginLoader8metaDataEv@Base 5.0.1
 _ZNK13QPluginLoader9loadHintsEv@Base 5.0.1
 _ZNK13QSharedMemory10isAttachedEv@Base 5.0.1
 _ZNK13QSharedMemory10metaObjectEv@Base 5.0.1
 _ZNK13QSharedMemory11errorStringEv@Base 5.0.1
 _ZNK13QSharedMemory3keyEv@Base 5.0.1
 _ZNK13QSharedMemory4dataEv@Base 5.0.1
 _ZNK13QSharedMemory4sizeEv@Base 5.0.1
 _ZNK13QSharedMemory5errorEv@Base 5.0.1
 _ZNK13QSharedMemory9constDataEv@Base 5.0.1
 _ZNK13QSharedMemory9nativeKeyEv@Base 5.0.1
 _ZNK13QSignalMapper10metaObjectEv@Base 5.0.1
 _ZNK13QSignalMapper7mappingEP7QObject@Base 5.0.1
 _ZNK13QSignalMapper7mappingEP7QWidget@Base 5.0.1
 _ZNK13QSignalMapper7mappingERK7QString@Base 5.0.1
 _ZNK13QSignalMapper7mappingEi@Base 5.0.1
 _ZNK13QStateMachine10isAnimatedEv@Base 5.0.1
 _ZNK13QStateMachine10metaObjectEv@Base 5.0.1
 _ZNK13QStateMachine11errorStringEv@Base 5.0.1
 _ZNK13QStateMachine13configurationEv@Base 5.0.1
 _ZNK13QStateMachine17defaultAnimationsEv@Base 5.0.1
 _ZNK13QStateMachine19globalRestorePolicyEv@Base 5.0.1
 _ZNK13QStateMachine5errorEv@Base 5.0.1
 _ZNK13QStateMachine9isRunningEv@Base 5.0.1
 _ZNK13QTemporaryDir10autoRemoveEv@Base 5.0.1
 _ZNK13QTemporaryDir4pathEv@Base 5.0.1
 _ZNK13QTemporaryDir7isValidEv@Base 5.0.1
 _ZNK13QUnifiedTimer10metaObjectEv@Base 5.0.1
 _ZNK14QAbstractState10metaObjectEv@Base 5.0.1
 _ZNK14QAbstractState11parentStateEv@Base 5.0.1
 _ZNK14QAbstractState7machineEv@Base 5.0.1
 _ZNK14QFactoryLoader10metaObjectEv@Base 5.0.1
 _ZNK14QFactoryLoader6keyMapEv@Base 5.0.1
 _ZNK14QFactoryLoader7indexOfERK7QString@Base 5.0.1
 _ZNK14QFactoryLoader7libraryERK7QString@Base 5.0.1
 _ZNK14QFactoryLoader8instanceEi@Base 5.0.1
 _ZNK14QFactoryLoader8metaDataEv@Base 5.0.1
 _ZNK14QItemSelection7indexesEv@Base 5.0.1
 _ZNK14QItemSelection8containsERK11QModelIndex@Base 5.0.1
 _ZNK14QLocalePrivate10scriptCodeEv@Base 5.0.1
 _ZNK14QLocalePrivate11countryCodeEv@Base 5.0.1
 _ZNK14QLocalePrivate12languageCodeEv@Base 5.0.1
 _ZNK14QLocalePrivate13validateCharsERK7QStringNS_10NumberModeEP10QByteArrayi@Base 5.0.1
 _ZNK14QLocalePrivate14doubleToStringEdiNS_10DoubleFormEij@Base 5.0.1
 _ZNK14QLocalePrivate14stringToDoubleERK7QStringPbNS_18GroupSeparatorModeE@Base 5.0.1
 _ZNK14QLocalePrivate15numberToCLocaleERK7QStringNS_18GroupSeparatorModeEP15QVarLengthArrayIcLi256EE@Base 5.0.1
 _ZNK14QLocalePrivate16dateTimeToStringERK7QStringPK5QDatePK5QTimePK7QLocale@Base 5.0.1
 _ZNK14QLocalePrivate16longLongToStringExiiij@Base 5.0.1
 _ZNK14QLocalePrivate16stringToLongLongERK7QStringiPbNS_18GroupSeparatorModeE@Base 5.0.1
 _ZNK14QLocalePrivate17measurementSystemEv@Base 5.0.1
 _ZNK14QLocalePrivate19stringToUnsLongLongERK7QStringiPbNS_18GroupSeparatorModeE@Base 5.0.1
 _ZNK14QLocalePrivate19unsLongLongToStringEyiiij@Base 5.0.1
 _ZNK14QLocalePrivate9bcp47NameEv@Base 5.0.1
 _ZNK14QMessageLogger5debugEPKcz@Base 5.0.1
 _ZNK14QMessageLogger5debugEv@Base 5.0.1
 _ZNK14QMessageLogger5fatalEPKcz@Base 5.0.1
 _ZNK14QMessageLogger7noDebugEv@Base 5.0.1
 _ZNK14QMessageLogger7warningEPKcz@Base 5.0.1
 _ZNK14QMessageLogger7warningEv@Base 5.0.1
 _ZNK14QMessageLogger8criticalEPKcz@Base 5.0.1
 _ZNK14QMessageLogger8criticalEv@Base 5.0.1
 _ZNK14QMetaClassInfo4nameEv@Base 5.0.1
 _ZNK14QMetaClassInfo5valueEv@Base 5.0.1
 _ZNK14QObjectPrivate10senderListEv@Base 5.0.1
 _ZNK14QObjectPrivate11signalIndexEPKcPPK11QMetaObject@Base 5.0.1
 _ZNK14QObjectPrivate12receiverListEPKc@Base 5.0.1
 _ZNK14QObjectPrivate17senderSignalIndexEv@Base 5.0.1
 _ZNK14QObjectPrivate8isSenderEPK7QObjectPKc@Base 5.0.1
 _ZNK14QStringMatcher7indexInEPK5QCharii@Base 5.0.1
 _ZNK14QStringMatcher7indexInERK7QStringi@Base 5.0.1
 _ZNK14QStringMatcher7patternEv@Base 5.0.1
 _ZNK14QTemporaryFile10autoRemoveEv@Base 5.0.1
 _ZNK14QTemporaryFile10metaObjectEv@Base 5.0.1
 _ZNK14QTemporaryFile12fileTemplateEv@Base 5.0.1
 _ZNK14QTemporaryFile8fileNameEv@Base 5.0.1
 _ZNK14QTimerInfoList16registeredTimersEP7QObject@Base 5.0.1
 _ZNK15QAnimationGroup10metaObjectEv@Base 5.0.1
 _ZNK15QAnimationGroup11animationAtEi@Base 5.0.1
 _ZNK15QAnimationGroup14animationCountEv@Base 5.0.1
 _ZNK15QAnimationGroup16indexOfAnimationEP18QAbstractAnimation@Base 5.0.1
 _ZNK15QDateTimeParser10fromStringERK7QStringP5QDateP5QTime@Base 5.0.1
 _ZNK15QDateTimeParser10getMaximumEv@Base 5.0.1
 _ZNK15QDateTimeParser10getMinimumEv@Base 5.0.1
 _ZNK15QDateTimeParser10sectionPosERKNS_11SectionNodeE@Base 5.0.1
 _ZNK15QDateTimeParser10sectionPosEi@Base 5.0.1
 _ZNK15QDateTimeParser11absoluteMaxEiRK9QDateTime@Base 5.0.1
 _ZNK15QDateTimeParser11absoluteMinEi@Base 5.0.1
 _ZNK15QDateTimeParser11getAmPmTextENS_4AmPmENS_4CaseE@Base 5.0.1
 _ZNK15QDateTimeParser11sectionNameEi@Base 5.0.1
 _ZNK15QDateTimeParser11sectionNodeEi@Base 5.0.1
 _ZNK15QDateTimeParser11sectionSizeEi@Base 5.0.1
 _ZNK15QDateTimeParser11sectionTextERK7QStringii@Base 5.0.1
 _ZNK15QDateTimeParser11sectionTextEi@Base 5.0.1
 _ZNK15QDateTimeParser11sectionTypeEi@Base 5.0.1
 _ZNK15QDateTimeParser12parseSectionERK9QDateTimeiR7QStringRiiRNS_5StateEPi@Base 5.0.1
 _ZNK15QDateTimeParser13sectionFormatENS_7SectionEi@Base 5.0.1
 _ZNK15QDateTimeParser13sectionFormatEi@Base 5.0.1
 _ZNK15QDateTimeParser14potentialValueERK7QStringiiiRK9QDateTimei@Base 5.0.1
 _ZNK15QDateTimeParser14sectionMaxSizeENS_7SectionEi@Base 5.0.1
 _ZNK15QDateTimeParser14sectionMaxSizeEi@Base 5.0.1
 _ZNK15QDateTimeParser17skipToNextSectionEiRK9QDateTimeRK7QString@Base 5.0.1
 _ZNK15QDateTimeParser5parseER7QStringRiRK9QDateTimeb@Base 5.0.1
 _ZNK15QDateTimeParser7findDayERK7QStringiiPS0_Pi@Base 5.0.1
 _ZNK15QDateTimeParser8findAmPmER7QStringiPi@Base 5.0.1
 _ZNK15QDateTimeParser8getDigitERK9QDateTimei@Base 5.0.1
 _ZNK15QDateTimeParser8setDigitER9QDateTimeii@Base 5.0.1
 _ZNK15QDateTimeParser9fieldInfoEi@Base 5.0.1
 _ZNK15QDateTimeParser9findMonthERK7QStringiiPS0_Pi@Base 5.0.1
 _ZNK15QDateTimeParser9maxChangeEi@Base 5.0.1
 _ZNK15QDateTimeParser9stateNameEi@Base 5.0.1
 _ZNK15QJsonParseError11errorStringEv@Base 5.0.1
 _ZNK15QPauseAnimation10metaObjectEv@Base 5.0.1
 _ZNK15QPauseAnimation8durationEv@Base 5.0.1
 _ZNK15QSocketNotifier10metaObjectEv@Base 5.0.1
 _ZNK15QSocketNotifier4typeEv@Base 5.0.1
 _ZNK15QSocketNotifier6socketEv@Base 5.0.1
 _ZNK15QSocketNotifier9isEnabledEv@Base 5.0.1
 _ZNK16QAnimationDriver10metaObjectEv@Base 5.0.1
 _ZNK16QAnimationDriver7elapsedEv@Base 5.0.1
 _ZNK16QAnimationDriver9isRunningEv@Base 5.0.1
 _ZNK16QAnimationDriver9startTimeEv@Base 5.0.1
 _ZNK16QCoreApplication10metaObjectEv@Base 5.0.1
 _ZNK16QEventTransition10metaObjectEv@Base 5.0.1
 _ZNK16QEventTransition11eventSourceEv@Base 5.0.1
 _ZNK16QEventTransition9eventTypeEv@Base 5.0.1
 _ZNK16QMetaEnumBuilder3keyEi@Base 5.0.1
 _ZNK16QMetaEnumBuilder4nameEv@Base 5.0.1
 _ZNK16QMetaEnumBuilder5valueEi@Base 5.0.1
 _ZNK16QMetaEnumBuilder6d_funcEv@Base 5.0.1
 _ZNK16QMetaEnumBuilder6isFlagEv@Base 5.0.1
 _ZNK16QMetaEnumBuilder8keyCountEv@Base 5.0.1
 _ZNK16QMetaStringTable8blobSizeEv@Base 5.0.1
 _ZNK16QStringListModel10metaObjectEv@Base 5.0.1
 _ZNK16QStringListModel10stringListEv@Base 5.0.1
 _ZNK16QStringListModel20supportedDropActionsEv@Base 5.0.1
 _ZNK16QStringListModel4dataERK11QModelIndexi@Base 5.0.1
 _ZNK16QStringListModel5flagsERK11QModelIndex@Base 5.0.1
 _ZNK16QStringListModel7siblingEiiRK11QModelIndex@Base 5.0.1
 _ZNK16QStringListModel8rowCountERK11QModelIndex@Base 5.0.1
 _ZNK16QSystemSemaphore11errorStringEv@Base 5.0.1
 _ZNK16QSystemSemaphore3keyEv@Base 5.0.1
 _ZNK16QSystemSemaphore5errorEv@Base 5.0.1
 _ZNK16QXmlStreamReader10attributesEv@Base 5.0.1
 _ZNK16QXmlStreamReader10lineNumberEv@Base 5.0.1
 _ZNK16QXmlStreamReader11dtdPublicIdEv@Base 5.0.1
 _ZNK16QXmlStreamReader11dtdSystemIdEv@Base 5.0.1
 _ZNK16QXmlStreamReader11errorStringEv@Base 5.0.1
 _ZNK16QXmlStreamReader11tokenStringEv@Base 5.0.1
 _ZNK16QXmlStreamReader12columnNumberEv@Base 5.0.1
 _ZNK16QXmlStreamReader12isWhitespaceEv@Base 5.0.1
 _ZNK16QXmlStreamReader12namespaceUriEv@Base 5.0.1
 _ZNK16QXmlStreamReader13qualifiedNameEv@Base 5.0.1
 _ZNK16QXmlStreamReader14entityResolverEv@Base 5.0.1
 _ZNK16QXmlStreamReader15characterOffsetEv@Base 5.0.1
 _ZNK16QXmlStreamReader15documentVersionEv@Base 5.0.1
 _ZNK16QXmlStreamReader16documentEncodingEv@Base 5.0.1
 _ZNK16QXmlStreamReader18entityDeclarationsEv@Base 5.0.1
 _ZNK16QXmlStreamReader19namespaceProcessingEv@Base 5.0.1
 _ZNK16QXmlStreamReader20isStandaloneDocumentEv@Base 5.0.1
 _ZNK16QXmlStreamReader20notationDeclarationsEv@Base 5.0.1
 _ZNK16QXmlStreamReader21namespaceDeclarationsEv@Base 5.0.1
 _ZNK16QXmlStreamReader25processingInstructionDataEv@Base 5.0.1
 _ZNK16QXmlStreamReader27processingInstructionTargetEv@Base 5.0.1
 _ZNK16QXmlStreamReader4nameEv@Base 5.0.1
 _ZNK16QXmlStreamReader4textEv@Base 5.0.1
 _ZNK16QXmlStreamReader5atEndEv@Base 5.0.1
 _ZNK16QXmlStreamReader5errorEv@Base 5.0.1
 _ZNK16QXmlStreamReader6deviceEv@Base 5.0.1
 _ZNK16QXmlStreamReader6prefixEv@Base 5.0.1
 _ZNK16QXmlStreamReader7dtdNameEv@Base 5.0.1
 _ZNK16QXmlStreamReader7isCDATAEv@Base 5.0.1
 _ZNK16QXmlStreamReader9tokenTypeEv@Base 5.0.1
 _ZNK16QXmlStreamWriter14autoFormattingEv@Base 5.0.1
 _ZNK16QXmlStreamWriter20autoFormattingIndentEv@Base 5.0.1
 _ZNK16QXmlStreamWriter5codecEv@Base 5.0.1
 _ZNK16QXmlStreamWriter6deviceEv@Base 5.0.1
 _ZNK16QXmlStreamWriter8hasErrorEv@Base 5.0.1
 _ZNK17QByteArrayMatcher7indexInEPKcii@Base 5.0.1
 _ZNK17QByteArrayMatcher7indexInERK10QByteArrayi@Base 5.0.1
 _ZNK17QSignalTransition10metaObjectEv@Base 5.0.1
 _ZNK17QSignalTransition12senderObjectEv@Base 5.0.1
 _ZNK17QSignalTransition6signalEv@Base 5.0.1
 _ZNK17QVariantAnimation10keyValueAtEd@Base 5.0.1
 _ZNK17QVariantAnimation10metaObjectEv@Base 5.0.1
 _ZNK17QVariantAnimation10startValueEv@Base 5.0.1
 _ZNK17QVariantAnimation11easingCurveEv@Base 5.0.1
 _ZNK17QVariantAnimation12currentValueEv@Base 5.0.1
 _ZNK17QVariantAnimation12interpolatedERK8QVariantS2_d@Base 5.0.1
 _ZNK17QVariantAnimation8durationEv@Base 5.0.1
 _ZNK17QVariantAnimation8endValueEv@Base 5.0.1
 _ZNK17QVariantAnimation9keyValuesEv@Base 5.0.1
 _ZNK18QAbstractAnimation10metaObjectEv@Base 5.0.1
 _ZNK18QAbstractAnimation11currentLoopEv@Base 5.0.1
 _ZNK18QAbstractAnimation11currentTimeEv@Base 5.0.1
 _ZNK18QAbstractAnimation13totalDurationEv@Base 5.0.1
 _ZNK18QAbstractAnimation15currentLoopTimeEv@Base 5.0.1
 _ZNK18QAbstractAnimation5groupEv@Base 5.0.1
 _ZNK18QAbstractAnimation5stateEv@Base 5.0.1
 _ZNK18QAbstractAnimation9directionEv@Base 5.0.1
 _ZNK18QAbstractAnimation9loopCountEv@Base 5.0.1
 _ZNK18QAbstractItemModel10encodeDataERK5QListI11QModelIndexER11QDataStream@Base 5.0.1
 _ZNK18QAbstractItemModel10headerDataEiN2Qt11OrientationEi@Base 5.0.1
 _ZNK18QAbstractItemModel10metaObjectEv@Base 5.0.1
 _ZNK18QAbstractItemModel11hasChildrenERK11QModelIndex@Base 5.0.1
 _ZNK18QAbstractItemModel12canFetchMoreERK11QModelIndex@Base 5.0.1
 _ZNK18QAbstractItemModel15canDropMimeDataEPK9QMimeDataN2Qt10DropActionEiiRK11QModelIndex@Base 5.0.1
 _ZNK18QAbstractItemModel19persistentIndexListEv@Base 5.0.1
 _ZNK18QAbstractItemModel20supportedDragActionsEv@Base 5.0.1
 _ZNK18QAbstractItemModel20supportedDropActionsEv@Base 5.0.1
 _ZNK18QAbstractItemModel4spanERK11QModelIndex@Base 5.0.1
 _ZNK18QAbstractItemModel5buddyERK11QModelIndex@Base 5.0.1
 _ZNK18QAbstractItemModel5flagsERK11QModelIndex@Base 5.0.1
 _ZNK18QAbstractItemModel5matchERK11QModelIndexiRK8QVarianti6QFlagsIN2Qt9MatchFlagEE@Base 5.0.1
 _ZNK18QAbstractItemModel7siblingEiiRK11QModelIndex@Base 5.0.1
 _ZNK18QAbstractItemModel8hasIndexEiiRK11QModelIndex@Base 5.0.1
 _ZNK18QAbstractItemModel8itemDataERK11QModelIndex@Base 5.0.1
 _ZNK18QAbstractItemModel8mimeDataERK5QListI11QModelIndexE@Base 5.0.1
 _ZNK18QAbstractItemModel9mimeTypesEv@Base 5.0.1
 _ZNK18QAbstractItemModel9roleNamesEv@Base 5.0.1
 _ZNK18QAbstractListModel10metaObjectEv@Base 5.0.1
 _ZNK18QAbstractListModel11columnCountERK11QModelIndex@Base 5.0.1
 _ZNK18QAbstractListModel11hasChildrenERK11QModelIndex@Base 5.0.1
 _ZNK18QAbstractListModel5indexEiiRK11QModelIndex@Base 5.0.1
 _ZNK18QAbstractListModel6parentERK11QModelIndex@Base 5.0.1
 _ZNK18QCryptographicHash6resultEv@Base 5.0.1
 _ZNK18QFileSystemWatcher10metaObjectEv@Base 5.0.1
 _ZNK18QFileSystemWatcher11directoriesEv@Base 5.0.1
 _ZNK18QFileSystemWatcher5filesEv@Base 5.0.1
 _ZNK18QFutureWatcherBase10isCanceledEv@Base 5.0.1
 _ZNK18QFutureWatcherBase10isFinishedEv@Base 5.0.1
 _ZNK18QFutureWatcherBase10metaObjectEv@Base 5.0.1
 _ZNK18QFutureWatcherBase12progressTextEv@Base 5.0.1
 _ZNK18QFutureWatcherBase13progressValueEv@Base 5.0.1
 _ZNK18QFutureWatcherBase15progressMaximumEv@Base 5.0.1
 _ZNK18QFutureWatcherBase15progressMinimumEv@Base 5.0.1
 _ZNK18QFutureWatcherBase8isPausedEv@Base 5.0.1
 _ZNK18QFutureWatcherBase9isRunningEv@Base 5.0.1
 _ZNK18QFutureWatcherBase9isStartedEv@Base 5.0.1
 _ZNK18QMetaMethodBuilder10attributesEv@Base 5.0.1
 _ZNK18QMetaMethodBuilder10methodTypeEv@Base 5.0.1
 _ZNK18QMetaMethodBuilder10returnTypeEv@Base 5.0.1
 _ZNK18QMetaMethodBuilder14parameterNamesEv@Base 5.0.1
 _ZNK18QMetaMethodBuilder14parameterTypesEv@Base 5.0.1
 _ZNK18QMetaMethodBuilder3tagEv@Base 5.0.1
 _ZNK18QMetaMethodBuilder5indexEv@Base 5.0.1
 _ZNK18QMetaMethodBuilder6accessEv@Base 5.0.1
 _ZNK18QMetaMethodBuilder6d_funcEv@Base 5.0.1
 _ZNK18QMetaMethodBuilder8revisionEv@Base 5.0.1
 _ZNK18QMetaMethodBuilder9signatureEv@Base 5.0.1
 _ZNK18QMetaObjectBuilder10enumeratorEi@Base 5.0.1
 _ZNK18QMetaObjectBuilder10superClassEv@Base 5.0.1
 _ZNK18QMetaObjectBuilder11constructorEi@Base 5.0.1
 _ZNK18QMetaObjectBuilder11methodCountEv@Base 5.0.1
 _ZNK18QMetaObjectBuilder12toMetaObjectEv@Base 5.0.1
 _ZNK18QMetaObjectBuilder13classInfoNameEi@Base 5.0.1
 _ZNK18QMetaObjectBuilder13propertyCountEv@Base 5.0.1
 _ZNK18QMetaObjectBuilder14classInfoCountEv@Base 5.0.1
 _ZNK18QMetaObjectBuilder14classInfoValueEi@Base 5.0.1
 _ZNK18QMetaObjectBuilder15enumeratorCountEv@Base 5.0.1
 _ZNK18QMetaObjectBuilder16constructorCountEv@Base 5.0.1
 _ZNK18QMetaObjectBuilder17relatedMetaObjectEi@Base 5.0.1
 _ZNK18QMetaObjectBuilder17toRelocatableDataEPb@Base 5.0.1
 _ZNK18QMetaObjectBuilder22relatedMetaObjectCountEv@Base 5.0.1
 _ZNK18QMetaObjectBuilder22staticMetacallFunctionEv@Base 5.0.1
 _ZNK18QMetaObjectBuilder5flagsEv@Base 5.0.1
 _ZNK18QMetaObjectBuilder6methodEi@Base 5.0.1
 _ZNK18QMetaObjectBuilder8propertyEi@Base 5.0.1
 _ZNK18QMetaObjectBuilder9classNameEv@Base 5.0.1
 _ZNK18QMetaObjectBuilder9serializeER11QDataStream@Base 5.0.1
 _ZNK18QPropertyAnimation10metaObjectEv@Base 5.0.1
 _ZNK18QPropertyAnimation12propertyNameEv@Base 5.0.1
 _ZNK18QPropertyAnimation12targetObjectEv@Base 5.0.1
 _ZNK18QRegularExpression11errorStringEv@Base 5.0.1
 _ZNK18QRegularExpression11globalMatchERK7QStringiNS_9MatchTypeE6QFlagsINS_11MatchOptionEE@Base 5.0.1
 _ZNK18QRegularExpression12captureCountEv@Base 5.0.1
 _ZNK18QRegularExpression14patternOptionsEv@Base 5.0.1
 _ZNK18QRegularExpression18patternErrorOffsetEv@Base 5.0.1
 _ZNK18QRegularExpression5matchERK7QStringiNS_9MatchTypeE6QFlagsINS_11MatchOptionEE@Base 5.0.1
 _ZNK18QRegularExpression7isValidEv@Base 5.0.1
 _ZNK18QRegularExpression7patternEv@Base 5.0.1
 _ZNK18QRegularExpressioneqERKS_@Base 5.0.1
 _ZNK18QThreadPoolPrivate17activeThreadCountEv@Base 5.0.1
 _ZNK18QThreadPoolPrivate20tooManyThreadsActiveEv@Base 5.0.1
 _ZNK18QThreadStorageData3getEv@Base 5.0.1
 _ZNK19QAbstractProxyModel10headerDataEiN2Qt11OrientationEi@Base 5.0.1
 _ZNK19QAbstractProxyModel10metaObjectEv@Base 5.0.1
 _ZNK19QAbstractProxyModel11hasChildrenERK11QModelIndex@Base 5.0.1
 _ZNK19QAbstractProxyModel11sourceModelEv@Base 5.0.1
 _ZNK19QAbstractProxyModel12canFetchMoreERK11QModelIndex@Base 5.0.1
 _ZNK19QAbstractProxyModel20mapSelectionToSourceERK14QItemSelection@Base 5.0.1
 _ZNK19QAbstractProxyModel20supportedDropActionsEv@Base 5.0.1
 _ZNK19QAbstractProxyModel22mapSelectionFromSourceERK14QItemSelection@Base 5.0.1
 _ZNK19QAbstractProxyModel4dataERK11QModelIndexi@Base 5.0.1
 _ZNK19QAbstractProxyModel4spanERK11QModelIndex@Base 5.0.1
 _ZNK19QAbstractProxyModel5buddyERK11QModelIndex@Base 5.0.1
 _ZNK19QAbstractProxyModel5flagsERK11QModelIndex@Base 5.0.1
 _ZNK19QAbstractProxyModel7siblingEiiRK11QModelIndex@Base 5.0.1
 _ZNK19QAbstractProxyModel8itemDataERK11QModelIndex@Base 5.0.1
 _ZNK19QAbstractProxyModel8mimeDataERK5QListI11QModelIndexE@Base 5.0.1
 _ZNK19QAbstractProxyModel9mimeTypesEv@Base 5.0.1
 _ZNK19QAbstractTableModel10metaObjectEv@Base 5.0.1
 _ZNK19QAbstractTableModel11hasChildrenERK11QModelIndex@Base 5.0.1
 _ZNK19QAbstractTableModel5indexEiiRK11QModelIndex@Base 5.0.1
 _ZNK19QAbstractTableModel6parentERK11QModelIndex@Base 5.0.1
 _ZNK19QAbstractTransition10animationsEv@Base 5.0.1
 _ZNK19QAbstractTransition10metaObjectEv@Base 5.0.1
 _ZNK19QAbstractTransition11sourceStateEv@Base 5.0.1
 _ZNK19QAbstractTransition11targetStateEv@Base 5.0.1
 _ZNK19QAbstractTransition12targetStatesEv@Base 5.0.1
 _ZNK19QAbstractTransition7machineEv@Base 5.0.1
 _ZNK19QIdentityProxyModel10headerDataEiN2Qt11OrientationEi@Base 5.0.1
 _ZNK19QIdentityProxyModel10metaObjectEv@Base 5.0.1
 _ZNK19QIdentityProxyModel11columnCountERK11QModelIndex@Base 5.0.1
 _ZNK19QIdentityProxyModel11mapToSourceERK11QModelIndex@Base 5.0.1
 _ZNK19QIdentityProxyModel13mapFromSourceERK11QModelIndex@Base 5.0.1
 _ZNK19QIdentityProxyModel20mapSelectionToSourceERK14QItemSelection@Base 5.0.1
 _ZNK19QIdentityProxyModel22mapSelectionFromSourceERK14QItemSelection@Base 5.0.1
 _ZNK19QIdentityProxyModel5indexEiiRK11QModelIndex@Base 5.0.1
 _ZNK19QIdentityProxyModel5matchERK11QModelIndexiRK8QVarianti6QFlagsIN2Qt9MatchFlagEE@Base 5.0.1
 _ZNK19QIdentityProxyModel6parentERK11QModelIndex@Base 5.0.1
 _ZNK19QIdentityProxyModel7siblingEiiRK11QModelIndex@Base 5.0.1
 _ZNK19QIdentityProxyModel8rowCountERK11QModelIndex@Base 5.0.1
 _ZNK19QItemSelectionModel10isSelectedERK11QModelIndex@Base 5.0.1
 _ZNK19QItemSelectionModel10metaObjectEv@Base 5.0.1
 _ZNK19QItemSelectionModel12currentIndexEv@Base 5.0.1
 _ZNK19QItemSelectionModel12hasSelectionEv@Base 5.0.1
 _ZNK19QItemSelectionModel12selectedRowsEi@Base 5.0.1
 _ZNK19QItemSelectionModel13isRowSelectedEiRK11QModelIndex@Base 5.0.1
 _ZNK19QItemSelectionModel15selectedColumnsEi@Base 5.0.1
 _ZNK19QItemSelectionModel15selectedIndexesEv@Base 5.0.1
 _ZNK19QItemSelectionModel16isColumnSelectedEiRK11QModelIndex@Base 5.0.1
 _ZNK19QItemSelectionModel22rowIntersectsSelectionEiRK11QModelIndex@Base 5.0.1
 _ZNK19QItemSelectionModel25columnIntersectsSelectionEiRK11QModelIndex@Base 5.0.1
 _ZNK19QItemSelectionModel5modelEv@Base 5.0.1
 _ZNK19QItemSelectionModel9selectionEv@Base 5.0.1
 _ZNK19QItemSelectionRange10intersectsERKS_@Base 5.0.1
 _ZNK19QItemSelectionRange11intersectedERKS_@Base 5.0.1
 _ZNK19QItemSelectionRange7indexesEv@Base 5.0.1
 _ZNK19QItemSelectionRange7isEmptyEv@Base 5.0.1
 _ZNK19QProcessEnvironment12toStringListEv@Base 5.0.1
 _ZNK19QProcessEnvironment4keysEv@Base 5.0.1
 _ZNK19QProcessEnvironment5valueERK7QStringS2_@Base 5.0.1
 _ZNK19QProcessEnvironment7isEmptyEv@Base 5.0.1
 _ZNK19QProcessEnvironment8containsERK7QString@Base 5.0.1
 _ZNK19QProcessEnvironmenteqERKS_@Base 5.0.1
 _ZNK19QTextBoundaryFinder12isAtBoundaryEv@Base 5.0.1
 _ZNK19QTextBoundaryFinder15boundaryReasonsEv@Base 5.0.1
 _ZNK19QTextBoundaryFinder6stringEv@Base 5.0.1
 _ZNK19QTextBoundaryFinder8positionEv@Base 5.0.1
 _ZNK19QUnhandledException5cloneEv@Base 5.0.1
 _ZNK19QUnhandledException5raiseEv@Base 5.0.1
 _ZNK20QEventDispatcherGlib10metaObjectEv@Base 5.0.1
 _ZNK20QEventDispatcherGlib16registeredTimersEP7QObject@Base 5.0.1
 _ZNK20QEventDispatcherUNIX10metaObjectEv@Base 5.0.1
 _ZNK20QEventDispatcherUNIX16registeredTimersEP7QObject@Base 5.0.1
 _ZNK20QFutureInterfaceBase10isCanceledEv@Base 5.0.1
 _ZNK20QFutureInterfaceBase10isFinishedEv@Base 5.0.1
 _ZNK20QFutureInterfaceBase10queryStateENS_5StateE@Base 5.0.1
 _ZNK20QFutureInterfaceBase11isThrottledEv@Base 5.0.1
 _ZNK20QFutureInterfaceBase11resultCountEv@Base 5.0.1
 _ZNK20QFutureInterfaceBase12progressTextEv@Base 5.0.1
 _ZNK20QFutureInterfaceBase13progressValueEv@Base 5.0.1
 _ZNK20QFutureInterfaceBase15isResultReadyAtEi@Base 5.0.1
 _ZNK20QFutureInterfaceBase15progressMaximumEv@Base 5.0.1
 _ZNK20QFutureInterfaceBase15progressMinimumEv@Base 5.0.1
 _ZNK20QFutureInterfaceBase15resultStoreBaseEv@Base 5.0.1
 _ZNK20QFutureInterfaceBase22isProgressUpdateNeededEv@Base 5.0.1
 _ZNK20QFutureInterfaceBase4refTEv@Base 5.0.1
 _ZNK20QFutureInterfaceBase5mutexEv@Base 5.0.1
 _ZNK20QFutureInterfaceBase6derefTEv@Base 5.0.1
 _ZNK20QFutureInterfaceBase8isPausedEv@Base 5.0.1
 _ZNK20QFutureInterfaceBase9isRunningEv@Base 5.0.1
 _ZNK20QFutureInterfaceBase9isStartedEv@Base 5.0.1
 _ZNK20QMetaPropertyBuilder10isConstantEv@Base 5.0.1
 _ZNK20QMetaPropertyBuilder10isEditableEv@Base 5.0.1
 _ZNK20QMetaPropertyBuilder10isReadableEv@Base 5.0.1
 _ZNK20QMetaPropertyBuilder10isWritableEv@Base 5.0.1
 _ZNK20QMetaPropertyBuilder12hasStdCppSetEv@Base 5.0.1
 _ZNK20QMetaPropertyBuilder12isDesignableEv@Base 5.0.1
 _ZNK20QMetaPropertyBuilder12isEnumOrFlagEv@Base 5.0.1
 _ZNK20QMetaPropertyBuilder12isResettableEv@Base 5.0.1
 _ZNK20QMetaPropertyBuilder12isScriptableEv@Base 5.0.1
 _ZNK20QMetaPropertyBuilder12notifySignalEv@Base 5.0.1
 _ZNK20QMetaPropertyBuilder15hasNotifySignalEv@Base 5.0.1
 _ZNK20QMetaPropertyBuilder4nameEv@Base 5.0.1
 _ZNK20QMetaPropertyBuilder4typeEv@Base 5.0.1
 _ZNK20QMetaPropertyBuilder6d_funcEv@Base 5.0.1
 _ZNK20QMetaPropertyBuilder6isUserEv@Base 5.0.1
 _ZNK20QMetaPropertyBuilder7isFinalEv@Base 5.0.1
 _ZNK20QMetaPropertyBuilder8isStoredEv@Base 5.0.1
 _ZNK20QMetaPropertyBuilder8revisionEv@Base 5.0.1
 _ZNK20QStateMachinePrivate10isCompoundEPK14QAbstractState@Base 5.0.1
 _ZNK20QStateMachinePrivate11isPreemptedEPK14QAbstractStateRK4QSetIP19QAbstractTransitionE@Base 5.0.1
 _ZNK20QStateMachinePrivate13hasRestorableEP14QAbstractStateP7QObjectRK10QByteArray@Base 5.0.1
 _ZNK20QStateMachinePrivate14isInFinalStateEP14QAbstractState@Base 5.0.1
 _ZNK20QStateMachinePrivate16selectAnimationsERK5QListIP19QAbstractTransitionE@Base 5.0.1
 _ZNK20QStateMachinePrivate17selectTransitionsEP6QEvent@Base 5.0.1
 _ZNK20QStateMachinePrivate23createInitialTransitionEv@Base 5.0.1
 _ZNK20QStateMachinePrivate23savedValueForRestorableERK5QListIP14QAbstractStateEP7QObjectRK10QByteArray@Base 5.0.1
 _ZNK20QStateMachinePrivate25computePendingRestorablesERK5QListIP14QAbstractStateE@Base 5.0.1
 _ZNK20QStateMachinePrivate25restorablesToPropertyListERK5QHashI5QPairI8QPointerI7QObjectE10QByteArrayE8QVariantE@Base 5.0.1
 _ZNK20QStateMachinePrivate26computePropertyAssignmentsERK5QListIP14QAbstractStateER5QHashI5QPairI8QPointerI7QObjectE10QByteArrayE8QVariantE@Base 5.0.1
 _ZNK20QStateMachinePrivate7findLCAERK5QListIP14QAbstractStateE@Base 5.0.1
 _ZNK20QStateMachinePrivate8isAtomicEPK14QAbstractState@Base 5.0.1
 _ZNK20QStateMachinePrivate9rootStateEv@Base 5.0.1
 _ZNK20QXmlStreamAttributes5valueE13QLatin1String@Base 5.0.1
 _ZNK20QXmlStreamAttributes5valueE13QLatin1StringS0_@Base 5.0.1
 _ZNK20QXmlStreamAttributes5valueERK7QString13QLatin1String@Base 5.0.1
 _ZNK20QXmlStreamAttributes5valueERK7QString@Base 5.0.1
 _ZNK20QXmlStreamAttributes5valueERK7QStringS2_@Base 5.0.1
 _ZNK21QObjectCleanupHandler10metaObjectEv@Base 5.0.1
 _ZNK21QObjectCleanupHandler7isEmptyEv@Base 5.0.1
 _ZNK21QPersistentModelIndex10internalIdEv@Base 5.0.1
 _ZNK21QPersistentModelIndex15internalPointerEv@Base 5.0.1
 _ZNK21QPersistentModelIndex3rowEv@Base 5.0.1
 _ZNK21QPersistentModelIndex4dataEi@Base 5.0.1
 _ZNK21QPersistentModelIndex5childEii@Base 5.0.1
 _ZNK21QPersistentModelIndex5flagsEv@Base 5.0.1
 _ZNK21QPersistentModelIndex5modelEv@Base 5.0.1
 _ZNK21QPersistentModelIndex6columnEv@Base 5.0.1
 _ZNK21QPersistentModelIndex6parentEv@Base 5.0.1
 _ZNK21QPersistentModelIndex7isValidEv@Base 5.0.1
 _ZNK21QPersistentModelIndex7siblingEii@Base 5.0.1
 _ZNK21QPersistentModelIndexcvRK11QModelIndexEv@Base 5.0.1
 _ZNK21QPersistentModelIndexeqERK11QModelIndex@Base 5.0.1
 _ZNK21QPersistentModelIndexeqERKS_@Base 5.0.1
 _ZNK21QPersistentModelIndexltERKS_@Base 5.0.1
 _ZNK21QPersistentModelIndexneERK11QModelIndex@Base 5.0.1
 _ZNK21QSortFilterProxyModel10filterRoleEv@Base 5.0.1
 _ZNK21QSortFilterProxyModel10headerDataEiN2Qt11OrientationEi@Base 5.0.1
 _ZNK21QSortFilterProxyModel10metaObjectEv@Base 5.0.1
 _ZNK21QSortFilterProxyModel10sortColumnEv@Base 5.0.1
 _ZNK21QSortFilterProxyModel11columnCountERK11QModelIndex@Base 5.0.1
 _ZNK21QSortFilterProxyModel11hasChildrenERK11QModelIndex@Base 5.0.1
 _ZNK21QSortFilterProxyModel11mapToSourceERK11QModelIndex@Base 5.0.1
 _ZNK21QSortFilterProxyModel12canFetchMoreERK11QModelIndex@Base 5.0.1
 _ZNK21QSortFilterProxyModel12filterRegExpEv@Base 5.0.1
 _ZNK21QSortFilterProxyModel13mapFromSourceERK11QModelIndex@Base 5.0.1
 _ZNK21QSortFilterProxyModel15filterKeyColumnEv@Base 5.0.1
 _ZNK21QSortFilterProxyModel16filterAcceptsRowEiRK11QModelIndex@Base 5.0.1
 _ZNK21QSortFilterProxyModel17dynamicSortFilterEv@Base 5.0.1
 _ZNK21QSortFilterProxyModel17isSortLocaleAwareEv@Base 5.0.1
 _ZNK21QSortFilterProxyModel19filterAcceptsColumnEiRK11QModelIndex@Base 5.0.1
 _ZNK21QSortFilterProxyModel19sortCaseSensitivityEv@Base 5.0.1
 _ZNK21QSortFilterProxyModel20mapSelectionToSourceERK14QItemSelection@Base 5.0.1
 _ZNK21QSortFilterProxyModel20supportedDropActionsEv@Base 5.0.1
 _ZNK21QSortFilterProxyModel21filterCaseSensitivityEv@Base 5.0.1
 _ZNK21QSortFilterProxyModel22mapSelectionFromSourceERK14QItemSelection@Base 5.0.1
 _ZNK21QSortFilterProxyModel4dataERK11QModelIndexi@Base 5.0.1
 _ZNK21QSortFilterProxyModel4spanERK11QModelIndex@Base 5.0.1
 _ZNK21QSortFilterProxyModel5buddyERK11QModelIndex@Base 5.0.1
 _ZNK21QSortFilterProxyModel5flagsERK11QModelIndex@Base 5.0.1
 _ZNK21QSortFilterProxyModel5indexEiiRK11QModelIndex@Base 5.0.1
 _ZNK21QSortFilterProxyModel5matchERK11QModelIndexiRK8QVarianti6QFlagsIN2Qt9MatchFlagEE@Base 5.0.1
 _ZNK21QSortFilterProxyModel6parentERK11QModelIndex@Base 5.0.1
 _ZNK21QSortFilterProxyModel7siblingEiiRK11QModelIndex@Base 5.0.1
 _ZNK21QSortFilterProxyModel8lessThanERK11QModelIndexS2_@Base 5.0.1
 _ZNK21QSortFilterProxyModel8mimeDataERK5QListI11QModelIndexE@Base 5.0.1
 _ZNK21QSortFilterProxyModel8rowCountERK11QModelIndex@Base 5.0.1
 _ZNK21QSortFilterProxyModel8sortRoleEv@Base 5.0.1
 _ZNK21QSortFilterProxyModel9mimeTypesEv@Base 5.0.1
 _ZNK21QSortFilterProxyModel9sortOrderEv@Base 5.0.1
 _ZNK23QAbstractAnimationTimer10metaObjectEv@Base 5.0.1
 _ZNK23QCoreApplicationPrivate7appNameEv@Base 5.0.1
 _ZNK23QParallelAnimationGroup10metaObjectEv@Base 5.0.1
 _ZNK23QParallelAnimationGroup8durationEv@Base 5.0.1
 _ZNK23QRegularExpressionMatch11capturedEndERK7QString@Base 5.0.1
 _ZNK23QRegularExpressionMatch11capturedEndEi@Base 5.0.1
 _ZNK23QRegularExpressionMatch11capturedRefERK7QString@Base 5.0.1
 _ZNK23QRegularExpressionMatch11capturedRefEi@Base 5.0.1
 _ZNK23QRegularExpressionMatch12matchOptionsEv@Base 5.0.1
 _ZNK23QRegularExpressionMatch13capturedStartERK7QString@Base 5.0.1
 _ZNK23QRegularExpressionMatch13capturedStartEi@Base 5.0.1
 _ZNK23QRegularExpressionMatch13capturedTextsEv@Base 5.0.1
 _ZNK23QRegularExpressionMatch14capturedLengthERK7QString@Base 5.0.1
 _ZNK23QRegularExpressionMatch14capturedLengthEi@Base 5.0.1
 _ZNK23QRegularExpressionMatch15hasPartialMatchEv@Base 5.0.1
 _ZNK23QRegularExpressionMatch17lastCapturedIndexEv@Base 5.0.1
 _ZNK23QRegularExpressionMatch17regularExpressionEv@Base 5.0.1
 _ZNK23QRegularExpressionMatch7isValidEv@Base 5.0.1
 _ZNK23QRegularExpressionMatch8capturedERK7QString@Base 5.0.1
 _ZNK23QRegularExpressionMatch8capturedEi@Base 5.0.1
 _ZNK23QRegularExpressionMatch8hasMatchEv@Base 5.0.1
 _ZNK23QRegularExpressionMatch9matchTypeEv@Base 5.0.1
 _ZNK24QAbstractEventDispatcher10metaObjectEv@Base 5.0.1
 _ZNK24QNonContiguousByteDevice10metaObjectEv@Base 5.0.1
 _ZNK25QSequentialAnimationGroup10metaObjectEv@Base 5.0.1
 _ZNK25QSequentialAnimationGroup16currentAnimationEv@Base 5.0.1
 _ZNK25QSequentialAnimationGroup8durationEv@Base 5.0.1
 _ZNK26QAbstractTransitionPrivate11sourceStateEv@Base 5.0.1
 _ZNK26QAbstractTransitionPrivate7machineEv@Base 5.0.1
 _ZNK31QRegularExpressionMatchIterator12matchOptionsEv@Base 5.0.1
 _ZNK31QRegularExpressionMatchIterator17regularExpressionEv@Base 5.0.1
 _ZNK31QRegularExpressionMatchIterator7hasNextEv@Base 5.0.1
 _ZNK31QRegularExpressionMatchIterator7isValidEv@Base 5.0.1
 _ZNK31QRegularExpressionMatchIterator8peekNextEv@Base 5.0.1
 _ZNK31QRegularExpressionMatchIterator9matchTypeEv@Base 5.0.1
 _ZNK4QDir10isReadableEv@Base 5.0.1
 _ZNK4QDir10isRelativeEv@Base 5.0.1
 _ZNK4QDir11nameFiltersEv@Base 5.0.1
 _ZNK4QDir12absolutePathEv@Base 5.0.1
 _ZNK4QDir13canonicalPathEv@Base 5.0.1
 _ZNK4QDir13entryInfoListE6QFlagsINS_6FilterEES0_INS_8SortFlagEE@Base 5.0.1
 _ZNK4QDir13entryInfoListERK11QStringList6QFlagsINS_6FilterEES3_INS_8SortFlagEE@Base 5.0.1
 _ZNK4QDir16absoluteFilePathERK7QString@Base 5.0.1
 _ZNK4QDir16relativeFilePathERK7QString@Base 5.0.1
 _ZNK4QDir4pathEv@Base 5.0.1
 _ZNK4QDir5countEv@Base 5.0.1
 _ZNK4QDir5mkdirERK7QString@Base 5.0.1
 _ZNK4QDir5rmdirERK7QString@Base 5.0.1
 _ZNK4QDir6existsERK7QString@Base 5.0.1
 _ZNK4QDir6existsEv@Base 5.0.1
 _ZNK4QDir6filterEv@Base 5.0.1
 _ZNK4QDir6isRootEv@Base 5.0.1
 _ZNK4QDir6mkpathERK7QString@Base 5.0.1
 _ZNK4QDir6rmpathERK7QString@Base 5.0.1
 _ZNK4QDir7dirNameEv@Base 5.0.1
 _ZNK4QDir7refreshEv@Base 5.0.1
 _ZNK4QDir7sortingEv@Base 5.0.1
 _ZNK4QDir8filePathERK7QString@Base 5.0.1
 _ZNK4QDir9entryListE6QFlagsINS_6FilterEES0_INS_8SortFlagEE@Base 5.0.1
 _ZNK4QDir9entryListERK11QStringList6QFlagsINS_6FilterEES3_INS_8SortFlagEE@Base 5.0.1
 _ZNK4QDireqERKS_@Base 5.0.1
 _ZNK4QDirixEi@Base 5.0.1
 _ZNK4QUrl10isDetachedEv@Base 5.0.1
 _ZNK4QUrl10isParentOfERKS_@Base 5.0.1
 _ZNK4QUrl10isRelativeEv@Base 5.0.1
 _ZNK4QUrl11errorStringEv@Base 5.0.1
 _ZNK4QUrl11hasFragmentEv@Base 5.0.1
 _ZNK4QUrl11isLocalFileEv@Base 5.0.1
 _ZNK4QUrl11toLocalFileEv@Base 5.0.1
 _ZNK4QUrl14topLevelDomainE6QFlagsINS_25ComponentFormattingOptionEE@Base 5.0.1
 _ZNK4QUrl15toDisplayStringE12QUrlTwoFlagsINS_19UrlFormattingOptionENS_25ComponentFormattingOptionEE@Base 5.0.1
 _ZNK4QUrl3urlE12QUrlTwoFlagsINS_19UrlFormattingOptionENS_25ComponentFormattingOptionEE@Base 5.0.1
 _ZNK4QUrl4hostE6QFlagsINS_25ComponentFormattingOptionEE@Base 5.0.1
 _ZNK4QUrl4pathE6QFlagsINS_25ComponentFormattingOptionEE@Base 5.0.1
 _ZNK4QUrl4portEi@Base 5.0.1
 _ZNK4QUrl5queryE6QFlagsINS_25ComponentFormattingOptionEE@Base 5.0.1
 _ZNK4QUrl6schemeEv@Base 5.0.1
 _ZNK4QUrl7isEmptyEv@Base 5.0.1
 _ZNK4QUrl7isValidEv@Base 5.0.1
 _ZNK4QUrl8fragmentE6QFlagsINS_25ComponentFormattingOptionEE@Base 5.0.1
 _ZNK4QUrl8hasQueryEv@Base 5.0.1
 _ZNK4QUrl8passwordE6QFlagsINS_25ComponentFormattingOptionEE@Base 5.0.1
 _ZNK4QUrl8resolvedERKS_@Base 5.0.1
 _ZNK4QUrl8toStringE12QUrlTwoFlagsINS_19UrlFormattingOptionENS_25ComponentFormattingOptionEE@Base 5.0.1
 _ZNK4QUrl8userInfoE6QFlagsINS_25ComponentFormattingOptionEE@Base 5.0.1
 _ZNK4QUrl8userNameE6QFlagsINS_25ComponentFormattingOptionEE@Base 5.0.1
 _ZNK4QUrl9authorityE6QFlagsINS_25ComponentFormattingOptionEE@Base 5.0.1
 _ZNK4QUrl9toEncodedE12QUrlTwoFlagsINS_19UrlFormattingOptionENS_25ComponentFormattingOptionEE@Base 5.0.1
 _ZNK4QUrleqERKS_@Base 5.0.1
 _ZNK4QUrlltERKS_@Base 5.0.1
 _ZNK4QUrlneERKS_@Base 5.0.1
 _ZNK5QChar13decompositionEv@Base 5.0.1
 _ZNK5QDate10daysInYearEv@Base 5.0.1
 _ZNK5QDate10weekNumberEPi@Base 5.0.1
 _ZNK5QDate11daysInMonthEv@Base 5.0.1
 _ZNK5QDate3dayEv@Base 5.0.1
 _ZNK5QDate4yearEv@Base 5.0.1
 _ZNK5QDate5monthEv@Base 5.0.1
 _ZNK5QDate6daysToERKS_@Base 5.0.1
 _ZNK5QDate7addDaysEx@Base 5.0.1
 _ZNK5QDate8addYearsEi@Base 5.0.1
 _ZNK5QDate8toStringEN2Qt10DateFormatE@Base 5.0.1
 _ZNK5QDate8toStringERK7QString@Base 5.0.1
 _ZNK5QDate9addMonthsEi@Base 5.0.1
 _ZNK5QDate9dayOfWeekEv@Base 5.0.1
 _ZNK5QDate9dayOfYearEv@Base 5.0.1
 _ZNK5QFile10metaObjectEv@Base 5.0.1
 _ZNK5QFile11permissionsEv@Base 5.0.1
 _ZNK5QFile4sizeEv@Base 5.0.1
 _ZNK5QFile6existsEv@Base 5.0.1
 _ZNK5QFile8fileNameEv@Base 5.0.1
 _ZNK5QFile8readLinkEv@Base 5.0.1
 _ZNK5QRect10intersectsERKS_@Base 5.0.1
 _ZNK5QRect10normalizedEv@Base 5.0.1
 _ZNK5QRect8containsERK6QPointb@Base 5.0.1
 _ZNK5QRect8containsERKS_b@Base 5.0.1
 _ZNK5QRectanERKS_@Base 5.0.1
 _ZNK5QRectorERKS_@Base 5.0.1
 _ZNK5QSize6scaledERKS_N2Qt15AspectRatioModeE@Base 5.0.1
 _ZNK5QTime4hourEv@Base 5.0.1
 _ZNK5QTime4msecEv@Base 5.0.1
 _ZNK5QTime6minuteEv@Base 5.0.1
 _ZNK5QTime6secondEv@Base 5.0.1
 _ZNK5QTime6secsToERKS_@Base 5.0.1
 _ZNK5QTime7addSecsEi@Base 5.0.1
 _ZNK5QTime7elapsedEv@Base 5.0.1
 _ZNK5QTime7isValidEv@Base 5.0.1
 _ZNK5QTime7msecsToERKS_@Base 5.0.1
 _ZNK5QTime8addMSecsEi@Base 5.0.1
 _ZNK5QTime8toStringEN2Qt10DateFormatE@Base 5.0.1
 _ZNK5QTime8toStringERK7QString@Base 5.0.1
 _ZNK5QUuid11toByteArrayEv@Base 5.0.1
 _ZNK5QUuid6isNullEv@Base 5.0.1
 _ZNK5QUuid7variantEv@Base 5.0.1
 _ZNK5QUuid7versionEv@Base 5.0.1
 _ZNK5QUuid8toStringEv@Base 5.0.1
 _ZNK5QUuid9toRfc4122Ev@Base 5.0.1
 _ZNK5QUuidgtERKS_@Base 5.0.1
 _ZNK5QUuidltERKS_@Base 5.0.1
 _ZNK6QLineF10unitVectorEv@Base 5.0.1
 _ZNK6QLineF5angleERKS_@Base 5.0.1
 _ZNK6QLineF5angleEv@Base 5.0.1
 _ZNK6QLineF6lengthEv@Base 5.0.1
 _ZNK6QLineF7angleToERKS_@Base 5.0.1
 _ZNK6QLineF9intersectERKS_P7QPointF@Base 5.0.1
 _ZNK6QRectF10intersectsERKS_@Base 5.0.1
 _ZNK6QRectF10normalizedEv@Base 5.0.1
 _ZNK6QRectF13toAlignedRectEv@Base 5.0.1
 _ZNK6QRectF8containsERK7QPointF@Base 5.0.1
 _ZNK6QRectF8containsERKS_@Base 5.0.1
 _ZNK6QRectFanERKS_@Base 5.0.1
 _ZNK6QRectForERKS_@Base 5.0.1
 _ZNK6QSizeF6scaledERKS_N2Qt15AspectRatioModeE@Base 5.0.1
 _ZNK6QState10errorStateEv@Base 5.0.1
 _ZNK6QState10metaObjectEv@Base 5.0.1
 _ZNK6QState11transitionsEv@Base 5.0.1
 _ZNK6QState12initialStateEv@Base 5.0.1
 _ZNK6QState9childModeEv@Base 5.0.1
 _ZNK6QTimer10metaObjectEv@Base 5.0.1
 _ZNK6QTimer13remainingTimeEv@Base 5.0.1
 _ZNK7QBuffer10metaObjectEv@Base 5.0.1
 _ZNK7QBuffer11canReadLineEv@Base 5.0.1
 _ZNK7QBuffer3posEv@Base 5.0.1
 _ZNK7QBuffer4dataEv@Base 5.0.1
 _ZNK7QBuffer4sizeEv@Base 5.0.1
 _ZNK7QBuffer5atEndEv@Base 5.0.1
 _ZNK7QBuffer6bufferEv@Base 5.0.1
 _ZNK7QLocale10dateFormatENS_10FormatTypeE@Base 5.0.1
 _ZNK7QLocale10timeFormatENS_10FormatTypeE@Base 5.0.1
 _ZNK7QLocale10toDateTimeERK7QStringNS_10FormatTypeE@Base 5.0.1
 _ZNK7QLocale10toDateTimeERK7QStringS2_@Base 5.0.1
 _ZNK7QLocale10toLongLongERK7QStringPb@Base 5.0.1
 _ZNK7QLocale11exponentialEv@Base 5.0.1
 _ZNK7QLocale11quoteStringERK10QStringRefNS_14QuotationStyleE@Base 5.0.1
 _ZNK7QLocale11quoteStringERK7QStringNS_14QuotationStyleE@Base 5.0.1
 _ZNK7QLocale11toULongLongERK7QStringPb@Base 5.0.1
 _ZNK7QLocale11uiLanguagesEv@Base 5.0.1
 _ZNK7QLocale12decimalPointEv@Base 5.0.1
 _ZNK7QLocale12negativeSignEv@Base 5.0.1
 _ZNK7QLocale12positiveSignEv@Base 5.0.1
 _ZNK7QLocale13numberOptionsEv@Base 5.0.1
 _ZNK7QLocale13textDirectionEv@Base 5.0.1
 _ZNK7QLocale14currencySymbolENS_20CurrencySymbolFormatE@Base 5.0.1
 _ZNK7QLocale14dateTimeFormatENS_10FormatTypeE@Base 5.0.1
 _ZNK7QLocale14firstDayOfWeekEv@Base 5.0.1
 _ZNK7QLocale14groupSeparatorEv@Base 5.0.1
 _ZNK7QLocale16toCurrencyStringEdRK7QString@Base 5.0.1
 _ZNK7QLocale16toCurrencyStringExRK7QString@Base 5.0.1
 _ZNK7QLocale16toCurrencyStringEyRK7QString@Base 5.0.1
 _ZNK7QLocale17measurementSystemEv@Base 5.0.1
 _ZNK7QLocale17nativeCountryNameEv@Base 5.0.1
 _ZNK7QLocale17standaloneDayNameEiNS_10FormatTypeE@Base 5.0.1
 _ZNK7QLocale18nativeLanguageNameEv@Base 5.0.1
 _ZNK7QLocale19createSeparatedListERK11QStringList@Base 5.0.1
 _ZNK7QLocale19standaloneMonthNameEiNS_10FormatTypeE@Base 5.0.1
 _ZNK7QLocale4nameEv@Base 5.0.1
 _ZNK7QLocale5toIntERK7QStringPb@Base 5.0.1
 _ZNK7QLocale6amTextEv@Base 5.0.1
 _ZNK7QLocale6pmTextEv@Base 5.0.1
 _ZNK7QLocale6scriptEv@Base 5.0.1
 _ZNK7QLocale6toDateERK7QStringNS_10FormatTypeE@Base 5.0.1
 _ZNK7QLocale6toDateERK7QStringS2_@Base 5.0.1
 _ZNK7QLocale6toTimeERK7QStringNS_10FormatTypeE@Base 5.0.1
 _ZNK7QLocale6toTimeERK7QStringS2_@Base 5.0.1
 _ZNK7QLocale6toUIntERK7QStringPb@Base 5.0.1
 _ZNK7QLocale7countryEv@Base 5.0.1
 _ZNK7QLocale7dayNameEiNS_10FormatTypeE@Base 5.0.1
 _ZNK7QLocale7percentEv@Base 5.0.1
 _ZNK7QLocale7toFloatERK7QStringPb@Base 5.0.1
 _ZNK7QLocale7toLowerERK7QString@Base 5.0.1
 _ZNK7QLocale7toShortERK7QStringPb@Base 5.0.1
 _ZNK7QLocale7toUpperERK7QString@Base 5.0.1
 _ZNK7QLocale8languageEv@Base 5.0.1
 _ZNK7QLocale8toDoubleERK7QStringPb@Base 5.0.1
 _ZNK7QLocale8toStringERK5QDateNS_10FormatTypeE@Base 5.0.1
 _ZNK7QLocale8toStringERK5QDateRK7QString@Base 5.0.1
 _ZNK7QLocale8toStringERK5QTimeNS_10FormatTypeE@Base 5.0.1
 _ZNK7QLocale8toStringERK5QTimeRK7QString@Base 5.0.1
 _ZNK7QLocale8toStringERK9QDateTimeNS_10FormatTypeE@Base 5.0.1
 _ZNK7QLocale8toStringERK9QDateTimeRK7QString@Base 5.0.1
 _ZNK7QLocale8toStringEdci@Base 5.0.1
 _ZNK7QLocale8toStringEx@Base 5.0.1
 _ZNK7QLocale8toStringEy@Base 5.0.1
 _ZNK7QLocale8toUShortERK7QStringPb@Base 5.0.1
 _ZNK7QLocale8weekdaysEv@Base 5.0.1
 _ZNK7QLocale9bcp47NameEv@Base 5.0.1
 _ZNK7QLocale9monthNameEiNS_10FormatTypeE@Base 5.0.1
 _ZNK7QLocale9zeroDigitEv@Base 5.0.1
 _ZNK7QLocaleeqERKS_@Base 5.0.1
 _ZNK7QLocaleneERKS_@Base 5.0.1
 _ZNK7QObject10metaObjectEv@Base 5.0.1
 _ZNK7QObject10objectNameEv@Base 5.0.1
 _ZNK7QObject17isSignalConnectedERK11QMetaMethod@Base 5.0.1
 _ZNK7QObject17senderSignalIndexEv@Base 5.0.1
 _ZNK7QObject20dynamicPropertyNamesEv@Base 5.0.1
 _ZNK7QObject6senderEv@Base 5.0.1
 _ZNK7QObject6threadEv@Base 5.0.1
 _ZNK7QObject8propertyEPKc@Base 5.0.1
 _ZNK7QObject8userDataEj@Base 5.0.1
 _ZNK7QObject9receiversEPKc@Base 5.0.1
 _ZNK7QRegExp10exactMatchERK7QString@Base 5.0.1
 _ZNK7QRegExp11errorStringEv@Base 5.0.1
 _ZNK7QRegExp11lastIndexInERK7QStringiNS_9CaretModeE@Base 5.0.1
 _ZNK7QRegExp12captureCountEv@Base 5.0.1
 _ZNK7QRegExp13capturedTextsEv@Base 5.0.1
 _ZNK7QRegExp13matchedLengthEv@Base 5.0.1
 _ZNK7QRegExp13patternSyntaxEv@Base 5.0.1
 _ZNK7QRegExp15caseSensitivityEv@Base 5.0.1
 _ZNK7QRegExp3capEi@Base 5.0.1
 _ZNK7QRegExp3posEi@Base 5.0.1
 _ZNK7QRegExp7indexInERK7QStringiNS_9CaretModeE@Base 5.0.1
 _ZNK7QRegExp7isEmptyEv@Base 5.0.1
 _ZNK7QRegExp7isValidEv@Base 5.0.1
 _ZNK7QRegExp7patternEv@Base 5.0.1
 _ZNK7QRegExp9isMinimalEv@Base 5.0.1
 _ZNK7QRegExpeqERKS_@Base 5.0.1
 _ZNK7QString10normalizedENS_17NormalizationFormEN5QChar14UnicodeVersionE@Base 5.0.1
 _ZNK7QString10simplifiedEv@Base 5.0.1
 _ZNK7QString10startsWithE13QLatin1StringN2Qt15CaseSensitivityE@Base 5.0.1
 _ZNK7QString10startsWithE5QCharN2Qt15CaseSensitivityE@Base 5.0.1
 _ZNK7QString10startsWithERK10QStringRefN2Qt15CaseSensitivityE@Base 5.0.1
 _ZNK7QString10startsWithERKS_N2Qt15CaseSensitivityE@Base 5.0.1
 _ZNK7QString10toLongLongEPbi@Base 5.0.1
 _ZNK7QString11lastIndexOfE13QLatin1StringiN2Qt15CaseSensitivityE@Base 5.0.1
 _ZNK7QString11lastIndexOfE5QChariN2Qt15CaseSensitivityE@Base 5.0.1
 _ZNK7QString11lastIndexOfER7QRegExpi@Base 5.0.1
 _ZNK7QString11lastIndexOfERK10QStringRefiN2Qt15CaseSensitivityE@Base 5.0.1
 _ZNK7QString11lastIndexOfERK18QRegularExpressioni@Base 5.0.1
 _ZNK7QString11lastIndexOfERK7QRegExpi@Base 5.0.1
 _ZNK7QString11lastIndexOfERKS_iN2Qt15CaseSensitivityE@Base 5.0.1
 _ZNK7QString11toLocal8BitEv@Base 5.0.1
 _ZNK7QString11toULongLongEPbi@Base 5.0.1
 _ZNK7QString12isSimpleTextEv@Base 5.0.1
 _ZNK7QString12toCaseFoldedEv@Base 5.0.1
 _ZNK7QString13isRightToLeftEv@Base 5.0.1
 _ZNK7QString13leftJustifiedEi5QCharb@Base 5.0.1
 _ZNK7QString13toHtmlEscapedEv@Base 5.0.1
 _ZNK7QString14rightJustifiedEi5QCharb@Base 5.0.1
 _ZNK7QString18localeAwareCompareERKS_@Base 5.0.1
 _ZNK7QString3argE5QChariS0_@Base 5.0.1
 _ZNK7QString3argERKS_i5QChar@Base 5.0.1
 _ZNK7QString3argEci5QChar@Base 5.0.1
 _ZNK7QString3argEdici5QChar@Base 5.0.1
 _ZNK7QString3argExii5QChar@Base 5.0.1
 _ZNK7QString3argEyii5QChar@Base 5.0.1
 _ZNK7QString3midEii@Base 5.0.1
 _ZNK7QString4leftEi@Base 5.0.1
 _ZNK7QString5countE5QCharN2Qt15CaseSensitivityE@Base 5.0.1
 _ZNK7QString5countERK10QStringRefN2Qt15CaseSensitivityE@Base 5.0.1
 _ZNK7QString5countERK18QRegularExpression@Base 5.0.1
 _ZNK7QString5countERK7QRegExp@Base 5.0.1
 _ZNK7QString5countERKS_N2Qt15CaseSensitivityE@Base 5.0.1
 _ZNK7QString5rightEi@Base 5.0.1
 _ZNK7QString5splitE5QCharNS_13SplitBehaviorEN2Qt15CaseSensitivityE@Base 5.0.1
 _ZNK7QString5splitERK18QRegularExpressionNS_13SplitBehaviorE@Base 5.0.1
 _ZNK7QString5splitERK7QRegExpNS_13SplitBehaviorE@Base 5.0.1
 _ZNK7QString5splitERKS_NS_13SplitBehaviorEN2Qt15CaseSensitivityE@Base 5.0.1
 _ZNK7QString5toIntEPbi@Base 5.0.1
 _ZNK7QString5utf16Ev@Base 5.0.1
 _ZNK7QString6midRefEii@Base 5.0.1
 _ZNK7QString6toLongEPbi@Base 5.0.1
 _ZNK7QString6toUIntEPbi@Base 5.0.1
 _ZNK7QString6toUcs4Ev@Base 5.0.1
 _ZNK7QString6toUtf8Ev@Base 5.0.1
 _ZNK7QString7compareE13QLatin1StringN2Qt15CaseSensitivityE@Base 5.0.1
 _ZNK7QString7compareERKS_N2Qt15CaseSensitivityE@Base 5.0.1
 _ZNK7QString7indexOfE13QLatin1StringiN2Qt15CaseSensitivityE@Base 5.0.1
 _ZNK7QString7indexOfE5QChariN2Qt15CaseSensitivityE@Base 5.0.1
 _ZNK7QString7indexOfER7QRegExpi@Base 5.0.1
 _ZNK7QString7indexOfERK10QStringRefiN2Qt15CaseSensitivityE@Base 5.0.1
 _ZNK7QString7indexOfERK18QRegularExpressioni@Base 5.0.1
 _ZNK7QString7indexOfERK7QRegExpi@Base 5.0.1
 _ZNK7QString7indexOfERKS_iN2Qt15CaseSensitivityE@Base 5.0.1
 _ZNK7QString7leftRefEi@Base 5.0.1
 _ZNK7QString7sectionERK18QRegularExpressionii6QFlagsINS_11SectionFlagEE@Base 5.0.1
 _ZNK7QString7sectionERK7QRegExpii6QFlagsINS_11SectionFlagEE@Base 5.0.1
 _ZNK7QString7sectionERKS_ii6QFlagsINS_11SectionFlagEE@Base 5.0.1
 _ZNK7QString7toFloatEPb@Base 5.0.1
 _ZNK7QString7toLowerEv@Base 5.0.1
 _ZNK7QString7toShortEPbi@Base 5.0.1
 _ZNK7QString7toULongEPbi@Base 5.0.1
 _ZNK7QString7toUpperEv@Base 5.0.1
 _ZNK7QString7trimmedEv@Base 5.0.1
 _ZNK7QString8containsERK18QRegularExpression@Base 5.0.1
 _ZNK7QString8endsWithE13QLatin1StringN2Qt15CaseSensitivityE@Base 5.0.1
 _ZNK7QString8endsWithE5QCharN2Qt15CaseSensitivityE@Base 5.0.1
 _ZNK7QString8endsWithERK10QStringRefN2Qt15CaseSensitivityE@Base 5.0.1
 _ZNK7QString8endsWithERKS_N2Qt15CaseSensitivityE@Base 5.0.1
 _ZNK7QString8multiArgEiPPKS_@Base 5.0.1
 _ZNK7QString8repeatedEi@Base 5.0.1
 _ZNK7QString8rightRefEi@Base 5.0.1
 _ZNK7QString8toDoubleEPb@Base 5.0.1
 _ZNK7QString8toLatin1Ev@Base 5.0.1
 _ZNK7QString8toUShortEPbi@Base 5.0.1
 _ZNK7QStringeqE13QLatin1String@Base 5.0.1
 _ZNK7QStringgtE13QLatin1String@Base 5.0.1
 _ZNK7QStringltE13QLatin1String@Base 5.0.1
 _ZNK7QThread10isFinishedEv@Base 5.0.1
 _ZNK7QThread10metaObjectEv@Base 5.0.1
 _ZNK7QThread15eventDispatcherEv@Base 5.0.1
 _ZNK7QThread8priorityEv@Base 5.0.1
 _ZNK7QThread9isRunningEv@Base 5.0.1
 _ZNK7QThread9stackSizeEv@Base 5.0.1
 _ZNK8QLibrary10metaObjectEv@Base 5.0.1
 _ZNK8QLibrary11errorStringEv@Base 5.0.1
 _ZNK8QLibrary8fileNameEv@Base 5.0.1
 _ZNK8QLibrary8isLoadedEv@Base 5.0.1
 _ZNK8QLibrary9loadHintsEv@Base 5.0.1
 _ZNK8QProcess10exitStatusEv@Base 5.0.1
 _ZNK8QProcess10metaObjectEv@Base 5.0.1
 _ZNK8QProcess11canReadLineEv@Base 5.0.1
 _ZNK8QProcess11environmentEv@Base 5.0.1
 _ZNK8QProcess11readChannelEv@Base 5.0.1
 _ZNK8QProcess12bytesToWriteEv@Base 5.0.1
 _ZNK8QProcess12isSequentialEv@Base 5.0.1
 _ZNK8QProcess14bytesAvailableEv@Base 5.0.1
 _ZNK8QProcess15readChannelModeEv@Base 5.0.1
 _ZNK8QProcess16workingDirectoryEv@Base 5.0.1
 _ZNK8QProcess18processChannelModeEv@Base 5.0.1
 _ZNK8QProcess18processEnvironmentEv@Base 5.0.1
 _ZNK8QProcess3pidEv@Base 5.0.1
 _ZNK8QProcess5atEndEv@Base 5.0.1
 _ZNK8QProcess5errorEv@Base 5.0.1
 _ZNK8QProcess5stateEv@Base 5.0.1
 _ZNK8QProcess7programEv@Base 5.0.1
 _ZNK8QProcess8exitCodeEv@Base 5.0.1
 _ZNK8QProcess9argumentsEv@Base 5.0.1
 _ZNK8QVariant10canConvertEi@Base 5.0.1
 _ZNK8QVariant10toBitArrayEv@Base 5.0.1
 _ZNK8QVariant10toDateTimeEv@Base 5.0.1
 _ZNK8QVariant10toLongLongEPb@Base 5.0.1
 _ZNK8QVariant11toByteArrayEv@Base 5.0.1
 _ZNK8QVariant11toJsonArrayEv@Base 5.0.1
 _ZNK8QVariant11toJsonValueEv@Base 5.0.1
 _ZNK8QVariant11toULongLongEPb@Base 5.0.1
 _ZNK8QVariant12toJsonObjectEv@Base 5.0.1
 _ZNK8QVariant12toModelIndexEv@Base 5.0.1
 _ZNK8QVariant12toStringListEv@Base 5.0.1
 _ZNK8QVariant13toEasingCurveEv@Base 5.0.1
 _ZNK8QVariant14toJsonDocumentEv@Base 5.0.1
 _ZNK8QVariant19toRegularExpressionEv@Base 5.0.1
 _ZNK8QVariant3cmpERKS_@Base 5.0.1
 _ZNK8QVariant4saveER11QDataStream@Base 5.0.1
 _ZNK8QVariant4typeEv@Base 5.0.1
 _ZNK8QVariant5toIntEPb@Base 5.0.1
 _ZNK8QVariant5toMapEv@Base 5.0.1
 _ZNK8QVariant5toUrlEv@Base 5.0.1
 _ZNK8QVariant6isNullEv@Base 5.0.1
 _ZNK8QVariant6toBoolEv@Base 5.0.1
 _ZNK8QVariant6toCharEv@Base 5.0.1
 _ZNK8QVariant6toDateEv@Base 5.0.1
 _ZNK8QVariant6toHashEv@Base 5.0.1
 _ZNK8QVariant6toLineEv@Base 5.0.1
 _ZNK8QVariant6toListEv@Base 5.0.1
 _ZNK8QVariant6toRealEPb@Base 5.0.1
 _ZNK8QVariant6toRectEv@Base 5.0.1
 _ZNK8QVariant6toSizeEv@Base 5.0.1
 _ZNK8QVariant6toTimeEv@Base 5.0.1
 _ZNK8QVariant6toUIntEPb@Base 5.0.1
 _ZNK8QVariant6toUuidEv@Base 5.0.1
 _ZNK8QVariant7convertEiPv@Base 5.0.1
 _ZNK8QVariant7toFloatEPb@Base 5.0.1
 _ZNK8QVariant7toLineFEv@Base 5.0.1
 _ZNK8QVariant7toPointEv@Base 5.0.1
 _ZNK8QVariant7toRectFEv@Base 5.0.1
 _ZNK8QVariant7toSizeFEv@Base 5.0.1
 _ZNK8QVariant8toDoubleEPb@Base 5.0.1
 _ZNK8QVariant8toLocaleEv@Base 5.0.1
 _ZNK8QVariant8toPointFEv@Base 5.0.1
 _ZNK8QVariant8toRegExpEv@Base 5.0.1
 _ZNK8QVariant8toStringEv@Base 5.0.1
 _ZNK8QVariant8typeNameEv@Base 5.0.1
 _ZNK8QVariant8userTypeEv@Base 5.0.1
 _ZNK8QVariant9constDataEv@Base 5.0.1
 _ZNK9QBitArray5countEb@Base 5.0.1
 _ZNK9QBitArraycoEv@Base 5.0.1
 _ZNK9QCollator10identifierEv@Base 5.0.1
 _ZNK9QCollator11numericModeEv@Base 5.0.1
 _ZNK9QCollator14casePreferenceEv@Base 5.0.1
 _ZNK9QCollator15indexCharactersEv@Base 5.0.1
 _ZNK9QCollator17ignorePunctuationEv@Base 5.0.1
 _ZNK9QCollator6localeEv@Base 5.0.1
 _ZNK9QCollator7compareEPK5QChariS2_i@Base 5.0.1
 _ZNK9QCollator7compareERK10QStringRefS2_@Base 5.0.1
 _ZNK9QCollator7compareERK7QStringS2_@Base 5.0.1
 _ZNK9QCollator7sortKeyERK7QString@Base 5.0.1
 _ZNK9QCollator9collationEv@Base 5.0.1
 _ZNK9QDateTime10toTimeSpecEN2Qt8TimeSpecE@Base 5.0.1
 _ZNK9QDateTime17toMSecsSinceEpochEv@Base 5.0.1
 _ZNK9QDateTime4dateEv@Base 5.0.1
 _ZNK9QDateTime4timeEv@Base 5.0.1
 _ZNK9QDateTime6daysToERKS_@Base 5.0.1
 _ZNK9QDateTime6isNullEv@Base 5.0.1
 _ZNK9QDateTime6secsToERKS_@Base 5.0.1
 _ZNK9QDateTime7addDaysEx@Base 5.0.1
 _ZNK9QDateTime7addSecsEx@Base 5.0.1
 _ZNK9QDateTime7isValidEv@Base 5.0.1
 _ZNK9QDateTime7msecsToERKS_@Base 5.0.1
 _ZNK9QDateTime8addMSecsEx@Base 5.0.1
 _ZNK9QDateTime8addYearsEi@Base 5.0.1
 _ZNK9QDateTime8timeSpecEv@Base 5.0.1
 _ZNK9QDateTime8toStringEN2Qt10DateFormatE@Base 5.0.1
 _ZNK9QDateTime8toStringERK7QString@Base 5.0.1
 _ZNK9QDateTime8toTime_tEv@Base 5.0.1
 _ZNK9QDateTime9addMonthsEi@Base 5.0.1
 _ZNK9QDateTime9utcOffsetEv@Base 5.0.1
 _ZNK9QDateTimeeqERKS_@Base 5.0.1
 _ZNK9QDateTimeltERKS_@Base 5.0.1
 _ZNK9QFileInfo10bundleNameEv@Base 5.0.1
 _ZNK9QFileInfo10isReadableEv@Base 5.0.1
 _ZNK9QFileInfo10isRelativeEv@Base 5.0.1
 _ZNK9QFileInfo10isWritableEv@Base 5.0.1
 _ZNK9QFileInfo10permissionE6QFlagsIN11QFileDevice10PermissionEE@Base 5.0.1
 _ZNK9QFileInfo11absoluteDirEv@Base 5.0.1
 _ZNK9QFileInfo11permissionsEv@Base 5.0.1
 _ZNK9QFileInfo12absolutePathEv@Base 5.0.1
 _ZNK9QFileInfo12isExecutableEv@Base 5.0.1
 _ZNK9QFileInfo12isNativePathEv@Base 5.0.1
 _ZNK9QFileInfo12lastModifiedEv@Base 5.0.1
 _ZNK9QFileInfo13canonicalPathEv@Base 5.0.1
 _ZNK9QFileInfo14completeSuffixEv@Base 5.0.1
 _ZNK9QFileInfo16absoluteFilePathEv@Base 5.0.1
 _ZNK9QFileInfo16completeBaseNameEv@Base 5.0.1
 _ZNK9QFileInfo17canonicalFilePathEv@Base 5.0.1
 _ZNK9QFileInfo3dirEv@Base 5.0.1
 _ZNK9QFileInfo4pathEv@Base 5.0.1
 _ZNK9QFileInfo4sizeEv@Base 5.0.1
 _ZNK9QFileInfo5groupEv@Base 5.0.1
 _ZNK9QFileInfo5isDirEv@Base 5.0.1
 _ZNK9QFileInfo5ownerEv@Base 5.0.1
 _ZNK9QFileInfo6existsEv@Base 5.0.1
 _ZNK9QFileInfo6isFileEv@Base 5.0.1
 _ZNK9QFileInfo6isRootEv@Base 5.0.1
 _ZNK9QFileInfo6suffixEv@Base 5.0.1
 _ZNK9QFileInfo7cachingEv@Base 5.0.1
 _ZNK9QFileInfo7createdEv@Base 5.0.1
 _ZNK9QFileInfo7groupIdEv@Base 5.0.1
 _ZNK9QFileInfo7ownerIdEv@Base 5.0.1
 _ZNK9QFileInfo8baseNameEv@Base 5.0.1
 _ZNK9QFileInfo8fileNameEv@Base 5.0.1
 _ZNK9QFileInfo8filePathEv@Base 5.0.1
 _ZNK9QFileInfo8isBundleEv@Base 5.0.1
 _ZNK9QFileInfo8isHiddenEv@Base 5.0.1
 _ZNK9QFileInfo8lastReadEv@Base 5.0.1
 _ZNK9QFileInfo8readLinkEv@Base 5.0.1
 _ZNK9QFileInfo9isSymLinkEv@Base 5.0.1
 _ZNK9QFileInfoeqERKS_@Base 5.0.1
 _ZNK9QIODevice10isReadableEv@Base 5.0.1
 _ZNK9QIODevice10isWritableEv@Base 5.0.1
 _ZNK9QIODevice10metaObjectEv@Base 5.0.1
 _ZNK9QIODevice11canReadLineEv@Base 5.0.1
 _ZNK9QIODevice11errorStringEv@Base 5.0.1
 _ZNK9QIODevice12bytesToWriteEv@Base 5.0.1
 _ZNK9QIODevice12isSequentialEv@Base 5.0.1
 _ZNK9QIODevice14bytesAvailableEv@Base 5.0.1
 _ZNK9QIODevice17isTextModeEnabledEv@Base 5.0.1
 _ZNK9QIODevice3posEv@Base 5.0.1
 _ZNK9QIODevice4sizeEv@Base 5.0.1
 _ZNK9QIODevice5atEndEv@Base 5.0.1
 _ZNK9QIODevice6isOpenEv@Base 5.0.1
 _ZNK9QIODevice8openModeEv@Base 5.0.1
 _ZNK9QMetaEnum10keyToValueEPKcPb@Base 5.0.1
 _ZNK9QMetaEnum10valueToKeyEi@Base 5.0.1
 _ZNK9QMetaEnum11keysToValueEPKcPb@Base 5.0.1
 _ZNK9QMetaEnum11valueToKeysEi@Base 5.0.1
 _ZNK9QMetaEnum3keyEi@Base 5.0.1
 _ZNK9QMetaEnum4nameEv@Base 5.0.1
 _ZNK9QMetaEnum5scopeEv@Base 5.0.1
 _ZNK9QMetaEnum5valueEi@Base 5.0.1
 _ZNK9QMetaEnum6isFlagEv@Base 5.0.1
 _ZNK9QMetaEnum8keyCountEv@Base 5.0.1
 _ZNK9QMetaType12sizeExtendedEv@Base 5.0.1
 _ZNK9QMetaType13flagsExtendedEv@Base 5.0.1
 _ZNK9QMetaType14createExtendedEPKv@Base 5.0.1
 _ZNK9QMetaType15destroyExtendedEPv@Base 5.0.1
 _ZNK9QMetaType16destructExtendedEPv@Base 5.0.1
 _ZNK9QMetaType17constructExtendedEPvPKv@Base 5.0.1
 _ZNK9QMetaType18metaObjectExtendedEv@Base 5.0.1
 _ZNK9QMimeData10metaObjectEv@Base 5.0.1
 _ZNK9QMimeData12retrieveDataERK7QStringN8QVariant4TypeE@Base 5.0.1
 _ZNK9QMimeData4dataERK7QString@Base 5.0.1
 _ZNK9QMimeData4htmlEv@Base 5.0.1
 _ZNK9QMimeData4textEv@Base 5.0.1
 _ZNK9QMimeData4urlsEv@Base 5.0.1
 _ZNK9QMimeData7formatsEv@Base 5.0.1
 _ZNK9QMimeData7hasHtmlEv@Base 5.0.1
 _ZNK9QMimeData7hasTextEv@Base 5.0.1
 _ZNK9QMimeData7hasUrlsEv@Base 5.0.1
 _ZNK9QMimeData8hasColorEv@Base 5.0.1
 _ZNK9QMimeData8hasImageEv@Base 5.0.1
 _ZNK9QMimeData9colorDataEv@Base 5.0.1
 _ZNK9QMimeData9hasFormatERK7QString@Base 5.0.1
 _ZNK9QMimeData9imageDataEv@Base 5.0.1
 _ZNK9QMimeType12allAncestorsEv@Base 5.0.1
 _ZNK9QMimeType12filterStringEv@Base 5.0.1
 _ZNK9QMimeType12globPatternsEv@Base 5.0.1
 _ZNK9QMimeType15genericIconNameEv@Base 5.0.1
 _ZNK9QMimeType15parentMimeTypesEv@Base 5.0.1
 _ZNK9QMimeType15preferredSuffixEv@Base 5.0.1
 _ZNK9QMimeType4nameEv@Base 5.0.1
 _ZNK9QMimeType7aliasesEv@Base 5.0.1
 _ZNK9QMimeType7commentEv@Base 5.0.1
 _ZNK9QMimeType7isValidEv@Base 5.0.1
 _ZNK9QMimeType8iconNameEv@Base 5.0.1
 _ZNK9QMimeType8inheritsERK7QString@Base 5.0.1
 _ZNK9QMimeType8suffixesEv@Base 5.0.1
 _ZNK9QMimeType9isDefaultEv@Base 5.0.1
 _ZNK9QMimeTypeeqERKS_@Base 5.0.1
 _ZNK9QResource12isCompressedEv@Base 5.0.1
 _ZNK9QResource16absoluteFilePathEv@Base 5.0.1
 _ZNK9QResource4dataEv@Base 5.0.1
 _ZNK9QResource4sizeEv@Base 5.0.1
 _ZNK9QResource5isDirEv@Base 5.0.1
 _ZNK9QResource6localeEv@Base 5.0.1
 _ZNK9QResource7isValidEv@Base 5.0.1
 _ZNK9QResource8childrenEv@Base 5.0.1
 _ZNK9QResource8fileNameEv@Base 5.0.1
 _ZNK9QSettings10isWritableEv@Base 5.0.1
 _ZNK9QSettings10metaObjectEv@Base 5.0.1
 _ZNK9QSettings11childGroupsEv@Base 5.0.1
 _ZNK9QSettings15applicationNameEv@Base 5.0.1
 _ZNK9QSettings16fallbacksEnabledEv@Base 5.0.1
 _ZNK9QSettings16organizationNameEv@Base 5.0.1
 _ZNK9QSettings5groupEv@Base 5.0.1
 _ZNK9QSettings5scopeEv@Base 5.0.1
 _ZNK9QSettings5valueERK7QStringRK8QVariant@Base 5.0.1
 _ZNK9QSettings6formatEv@Base 5.0.1
 _ZNK9QSettings6statusEv@Base 5.0.1
 _ZNK9QSettings7allKeysEv@Base 5.0.1
 _ZNK9QSettings8containsERK7QString@Base 5.0.1
 _ZNK9QSettings8fileNameEv@Base 5.0.1
 _ZNK9QSettings8iniCodecEv@Base 5.0.1
 _ZNK9QSettings9childKeysEv@Base 5.0.1
 _ZNK9QTimeLine10curveShapeEv@Base 5.0.1
 _ZNK9QTimeLine10metaObjectEv@Base 5.0.1
 _ZNK9QTimeLine10startFrameEv@Base 5.0.1
 _ZNK9QTimeLine11currentTimeEv@Base 5.0.1
 _ZNK9QTimeLine11easingCurveEv@Base 5.0.1
 _ZNK9QTimeLine12currentFrameEv@Base 5.0.1
 _ZNK9QTimeLine12currentValueEv@Base 5.0.1
 _ZNK9QTimeLine12frameForTimeEi@Base 5.0.1
 _ZNK9QTimeLine12valueForTimeEi@Base 5.0.1
 _ZNK9QTimeLine14updateIntervalEv@Base 5.0.1
 _ZNK9QTimeLine5stateEv@Base 5.0.1
 _ZNK9QTimeLine8durationEv@Base 5.0.1
 _ZNK9QTimeLine8endFrameEv@Base 5.0.1
 _ZNK9QTimeLine9directionEv@Base 5.0.1
 _ZNK9QTimeLine9loopCountEv@Base 5.0.1
 _ZNK9QUrlQuery10isDetachedEv@Base 5.0.1
 _ZNK9QUrlQuery10queryItemsE6QFlagsIN4QUrl25ComponentFormattingOptionEE@Base 5.0.1
 _ZNK9QUrlQuery12hasQueryItemERK7QString@Base 5.0.1
 _ZNK9QUrlQuery14queryItemValueERK7QString6QFlagsIN4QUrl25ComponentFormattingOptionEE@Base 5.0.1
 _ZNK9QUrlQuery18allQueryItemValuesERK7QString6QFlagsIN4QUrl25ComponentFormattingOptionEE@Base 5.0.1
 _ZNK9QUrlQuery18queryPairDelimiterEv@Base 5.0.1
 _ZNK9QUrlQuery19queryValueDelimiterEv@Base 5.0.1
 _ZNK9QUrlQuery5queryE6QFlagsIN4QUrl25ComponentFormattingOptionEE@Base 5.0.1
 _ZNK9QUrlQuery7isEmptyEv@Base 5.0.1
 _ZNK9QUrlQueryeqERKS_@Base 5.0.1
 _ZNK9QtPrivate14ExceptionStore12hasExceptionEv@Base 5.0.1
 _ZNK9QtPrivate14ExceptionStore9hasThrownEv@Base 5.0.1
 _ZNK9QtPrivate15ExceptionHolder9exceptionEv@Base 5.0.1
 _ZNK9QtPrivate15ResultStoreBase10filterModeEv@Base 5.0.1
 _ZNK9QtPrivate15ResultStoreBase13hasNextResultEv@Base 5.0.1
 _ZNK9QtPrivate15ResultStoreBase3endEv@Base 5.0.1
 _ZNK9QtPrivate15ResultStoreBase5beginEv@Base 5.0.1
 _ZNK9QtPrivate15ResultStoreBase5countEv@Base 5.0.1
 _ZNK9QtPrivate15ResultStoreBase8containsEi@Base 5.0.1
 _ZNK9QtPrivate15ResultStoreBase8resultAtEi@Base 5.0.1
 _ZNK9QtPrivate18ResultIteratorBase11resultIndexEv@Base 5.0.1
 _ZNK9QtPrivate18ResultIteratorBase11vectorIndexEv@Base 5.0.1
 _ZNK9QtPrivate18ResultIteratorBase23canIncrementVectorIndexEv@Base 5.0.1
 _ZNK9QtPrivate18ResultIteratorBase8isVectorEv@Base 5.0.1
 _ZNK9QtPrivate18ResultIteratorBase9batchSizeEv@Base 5.0.1
 _ZNK9QtPrivate18ResultIteratorBaseeqERKS0_@Base 5.0.1
 _ZNK9QtPrivate18ResultIteratorBaseneERKS0_@Base 5.0.1
 _ZNSt11__copy_moveILb1ELb0ESt26random_access_iterator_tagE8__copy_mIP21QPersistentModelIndexS4_EET0_T_S6_S5_@Base 5.0.1
 _ZNSt17_Temporary_bufferIPiiEC1ES0_S0_@Base 5.0.1
 _ZNSt17_Temporary_bufferIPiiEC2ES0_S0_@Base 5.0.1
 _ZNSt20__copy_move_backwardILb1ELb0ESt26random_access_iterator_tagE13__copy_move_bIP21QPersistentModelIndexS4_EET0_T_S6_S5_@Base 5.0.1
 _ZNSt38__uninitialized_construct_buf_dispatchILb0EE5__ucrIP21QPersistentModelIndexS2_EEvT_S4_RT0_@Base 5.0.1
 _ZSt11lower_boundIP21QPersistentModelIndexS0_ET_S2_S2_RKT0_@Base 5.0.1
 _ZSt11stable_sortIP21QPersistentModelIndexEvT_S2_@Base 5.0.1
 _ZSt11upper_boundIP21QPersistentModelIndexS0_ET_S2_S2_RKT0_@Base 5.0.1
 _ZSt12__move_mergeIP21QPersistentModelIndexS1_S1_ET1_T_S3_T0_S4_S2_@Base 5.0.1
 _ZSt12__move_mergeIPiS0_S0_ET1_T_S2_T0_S3_S1_@Base 5.0.1
 _ZSt13__adjust_heapIPiliEvT_T0_S2_T1_@Base 5.0.1
 _ZSt16__insertion_sortIP21QPersistentModelIndexEvT_S2_@Base 5.0.1
 _ZSt16__insertion_sortIPiEvT_S1_@Base 5.0.1
 _ZSt16__introsort_loopIPilEvT_S1_T0_@Base 5.0.1
 _ZSt16__merge_adaptiveIP21QPersistentModelIndexlS1_EvT_S2_S2_T0_S3_T1_S3_@Base 5.0.1
 _ZSt16__merge_adaptiveIPilS0_EvT_S1_S1_T0_S2_T1_S2_@Base 5.0.1
 _ZSt17__merge_sort_loopIP21QPersistentModelIndexS1_lEvT_S2_T0_T1_@Base 5.0.1
 _ZSt17__merge_sort_loopIPiS0_lEvT_S1_T0_T1_@Base 5.0.1
 _ZSt17__rotate_adaptiveIPiS0_lET_S1_S1_S1_T1_S2_T0_S2_@Base 5.0.1
 _ZSt20get_temporary_bufferI21QPersistentModelIndexESt4pairIPT_lEl@Base 5.0.1
 _ZSt21__inplace_stable_sortIP21QPersistentModelIndexEvT_S2_@Base 5.0.1
 _ZSt21__inplace_stable_sortIPiEvT_S1_@Base 5.0.1
 _ZSt21__move_merge_adaptiveIP21QPersistentModelIndexS1_S1_EvT_S2_T0_S3_T1_@Base 5.0.1
 _ZSt22__final_insertion_sortIPiEvT_S1_@Base 5.0.1
 _ZSt22__merge_without_bufferIP21QPersistentModelIndexlEvT_S2_S2_T0_S3_@Base 5.0.1
 _ZSt22__merge_without_bufferIPilEvT_S1_S1_T0_S2_@Base 5.0.1
 _ZSt22__stable_sort_adaptiveIP21QPersistentModelIndexS1_lEvT_S2_T0_T1_@Base 5.0.1
 _ZSt22__stable_sort_adaptiveIPiS0_lEvT_S1_T0_T1_@Base 5.0.1
 _ZSt24__merge_sort_with_bufferIP21QPersistentModelIndexS1_EvT_S2_T0_@Base 5.0.1
 _ZSt24__merge_sort_with_bufferIPiS0_EvT_S1_T0_@Base 5.0.1
 _ZSt30__move_merge_adaptive_backwardIP21QPersistentModelIndexS1_S1_EvT_S2_T0_S3_T1_@Base 5.0.1
 _ZSt30__move_merge_adaptive_backwardIPiS0_S0_EvT_S1_T0_S2_T1_@Base 5.0.1
 _ZSt8__rotateIP21QPersistentModelIndexEvT_S2_S2_St26random_access_iterator_tag@Base 5.0.1
 _ZSt8__rotateIPiEvT_S1_S1_St26random_access_iterator_tag@Base 5.0.1
 _ZTI10QEventLoop@Base 5.0.1
 _ZTI10QException@Base 5.0.1
 _ZTI10QTextCodec@Base 5.0.1
 _ZTI11QChildEvent@Base 5.0.1
 _ZTI11QFileDevice@Base 5.0.1
 _ZTI11QFinalState@Base 5.0.1
 _ZTI11QObjectData@Base 5.0.1
 _ZTI11QTextStream@Base 5.0.1
 _ZTI11QThreadPool@Base 5.0.1
 _ZTI11QTimerEvent@Base 5.0.1
 _ZTI11QTranslator@Base 5.0.1
 _ZTI13QHistoryState@Base 5.0.1
 _ZTI13QPluginLoader@Base 5.0.1
 _ZTI13QSharedMemory@Base 5.0.1
 _ZTI13QSignalMapper@Base 5.0.1
 _ZTI13QStateMachine@Base 5.0.1
 _ZTI13QUnifiedTimer@Base 5.0.1
 _ZTI14QAbstractState@Base 5.0.1
 _ZTI14QFactoryLoader@Base 5.0.1
 _ZTI14QMetaCallEvent@Base 5.0.1
 _ZTI14QObjectPrivate@Base 5.0.1
 _ZTI14QTemporaryFile@Base 5.0.1
 _ZTI15QAnimationGroup@Base 5.0.1
 _ZTI15QDateTimeParser@Base 5.0.1
 _ZTI15QObjectUserData@Base 5.0.1
 _ZTI15QPauseAnimation@Base 5.0.1
 _ZTI15QSocketNotifier@Base 5.0.1
 _ZTI16QAnimationDriver@Base 5.0.1
 _ZTI16QCoreApplication@Base 5.0.1
 _ZTI16QEventTransition@Base 5.0.1
 _ZTI16QIODevicePrivate@Base 5.0.1
 _ZTI16QStringListModel@Base 5.0.1
 _ZTI17QSignalTransition@Base 5.0.1
 _ZTI17QVariantAnimation@Base 5.0.1
 _ZTI18QAbstractAnimation@Base 5.0.1
 _ZTI18QAbstractItemModel@Base 5.0.1
 _ZTI18QAbstractListModel@Base 5.0.1
 _ZTI18QFileSystemWatcher@Base 5.0.1
 _ZTI18QFutureWatcherBase@Base 5.0.1
 _ZTI18QMetaObjectBuilder@Base 5.0.1
 _ZTI18QPropertyAnimation@Base 5.0.1
 _ZTI18QThreadPoolPrivate@Base 5.0.1
 _ZTI19QAbstractProxyModel@Base 5.0.1
 _ZTI19QAbstractTableModel@Base 5.0.1
 _ZTI19QAbstractTransition@Base 5.0.1
 _ZTI19QIdentityProxyModel@Base 5.0.1
 _ZTI19QItemSelectionModel@Base 5.0.1
 _ZTI19QUnhandledException@Base 5.0.1
 _ZTI20QDeferredDeleteEvent@Base 5.0.1
 _ZTI20QEventDispatcherGlib@Base 5.0.1
 _ZTI20QEventDispatcherUNIX@Base 5.0.1
 _ZTI20QFutureInterfaceBase@Base 5.0.1
 _ZTI20QStateMachinePrivate@Base 5.0.1
 _ZTI21QObjectCleanupHandler@Base 5.0.1
 _ZTI21QSortFilterProxyModel@Base 5.0.1
 _ZTI23QAbstractAnimationTimer@Base 5.0.1
 _ZTI23QAnimationDriverPrivate@Base 5.0.1
 _ZTI23QCoreApplicationPrivate@Base 5.0.1
 _ZTI23QEventTransitionPrivate@Base 5.0.1
 _ZTI23QParallelAnimationGroup@Base 5.0.1
 _ZTI24QAbstractEventDispatcher@Base 5.0.1
 _ZTI24QNonContiguousByteDevice@Base 5.0.1
 _ZTI24QXmlStreamEntityResolver@Base 5.0.1
 _ZTI25QAbstractItemModelPrivate@Base 5.0.1
 _ZTI25QSequentialAnimationGroup@Base 5.0.1
 _ZTI26QAbstractNativeEventFilter@Base 5.0.1
 _ZTI26QAbstractProxyModelPrivate@Base 5.0.1
 _ZTI26QAbstractTransitionPrivate@Base 5.0.1
 _ZTI27QDynamicPropertyChangeEvent@Base 5.0.1
 _ZTI27QEventDispatcherGlibPrivate@Base 5.0.1
 _ZTI27QEventDispatcherUNIXPrivate@Base 5.0.1
 _ZTI31QAbstractEventDispatcherPrivate@Base 5.0.1
 _ZTI5QFile@Base 5.0.1
 _ZTI6QEvent@Base 5.0.1
 _ZTI6QState@Base 5.0.1
 _ZTI6QTimer@Base 5.0.1
 _ZTI7QBuffer@Base 5.0.1
 _ZTI7QObject@Base 5.0.1
 _ZTI7QThread@Base 5.0.1
 _ZTI8QLibrary@Base 5.0.1
 _ZTI8QProcess@Base 5.0.1
 _ZTI9QIODevice@Base 5.0.1
 _ZTI9QMimeData@Base 5.0.1
 _ZTI9QSettings@Base 5.0.1
 _ZTI9QTimeLine@Base 5.0.1
 _ZTIN13QStateMachine11SignalEventE@Base 5.0.1
 _ZTIN13QStateMachine12WrappedEventE@Base 5.0.1
 _ZTIN9QtPrivate15ResultStoreBaseE@Base 5.0.1
 _ZTS10QEventLoop@Base 5.0.1
 _ZTS10QException@Base 5.0.1
 _ZTS10QTextCodec@Base 5.0.1
 _ZTS11QChildEvent@Base 5.0.1
 _ZTS11QFileDevice@Base 5.0.1
 _ZTS11QFinalState@Base 5.0.1
 _ZTS11QObjectData@Base 5.0.1
 _ZTS11QTextStream@Base 5.0.1
 _ZTS11QThreadPool@Base 5.0.1
 _ZTS11QTimerEvent@Base 5.0.1
 _ZTS11QTranslator@Base 5.0.1
 _ZTS13QHistoryState@Base 5.0.1
 _ZTS13QPluginLoader@Base 5.0.1
 _ZTS13QSharedMemory@Base 5.0.1
 _ZTS13QSignalMapper@Base 5.0.1
 _ZTS13QStateMachine@Base 5.0.1
 _ZTS13QUnifiedTimer@Base 5.0.1
 _ZTS14QAbstractState@Base 5.0.1
 _ZTS14QFactoryLoader@Base 5.0.1
 _ZTS14QMetaCallEvent@Base 5.0.1
 _ZTS14QObjectPrivate@Base 5.0.1
 _ZTS14QTemporaryFile@Base 5.0.1
 _ZTS15QAnimationGroup@Base 5.0.1
 _ZTS15QDateTimeParser@Base 5.0.1
 _ZTS15QObjectUserData@Base 5.0.1
 _ZTS15QPauseAnimation@Base 5.0.1
 _ZTS15QSocketNotifier@Base 5.0.1
 _ZTS16QAnimationDriver@Base 5.0.1
 _ZTS16QCoreApplication@Base 5.0.1
 _ZTS16QEventTransition@Base 5.0.1
 _ZTS16QIODevicePrivate@Base 5.0.1
 _ZTS16QStringListModel@Base 5.0.1
 _ZTS17QSignalTransition@Base 5.0.1
 _ZTS17QVariantAnimation@Base 5.0.1
 _ZTS18QAbstractAnimation@Base 5.0.1
 _ZTS18QAbstractItemModel@Base 5.0.1
 _ZTS18QAbstractListModel@Base 5.0.1
 _ZTS18QFileSystemWatcher@Base 5.0.1
 _ZTS18QFutureWatcherBase@Base 5.0.1
 _ZTS18QMetaObjectBuilder@Base 5.0.1
 _ZTS18QPropertyAnimation@Base 5.0.1
 _ZTS18QThreadPoolPrivate@Base 5.0.1
 _ZTS19QAbstractProxyModel@Base 5.0.1
 _ZTS19QAbstractTableModel@Base 5.0.1
 _ZTS19QAbstractTransition@Base 5.0.1
 _ZTS19QIdentityProxyModel@Base 5.0.1
 _ZTS19QItemSelectionModel@Base 5.0.1
 _ZTS19QUnhandledException@Base 5.0.1
 _ZTS20QDeferredDeleteEvent@Base 5.0.1
 _ZTS20QEventDispatcherGlib@Base 5.0.1
 _ZTS20QEventDispatcherUNIX@Base 5.0.1
 _ZTS20QFutureInterfaceBase@Base 5.0.1
 _ZTS20QStateMachinePrivate@Base 5.0.1
 _ZTS21QObjectCleanupHandler@Base 5.0.1
 _ZTS21QSortFilterProxyModel@Base 5.0.1
 _ZTS23QAbstractAnimationTimer@Base 5.0.1
 _ZTS23QAnimationDriverPrivate@Base 5.0.1
 _ZTS23QCoreApplicationPrivate@Base 5.0.1
 _ZTS23QEventTransitionPrivate@Base 5.0.1
 _ZTS23QParallelAnimationGroup@Base 5.0.1
 _ZTS24QAbstractEventDispatcher@Base 5.0.1
 _ZTS24QNonContiguousByteDevice@Base 5.0.1
 _ZTS24QXmlStreamEntityResolver@Base 5.0.1
 _ZTS25QAbstractItemModelPrivate@Base 5.0.1
 _ZTS25QSequentialAnimationGroup@Base 5.0.1
 _ZTS26QAbstractNativeEventFilter@Base 5.0.1
 _ZTS26QAbstractProxyModelPrivate@Base 5.0.1
 _ZTS26QAbstractTransitionPrivate@Base 5.0.1
 _ZTS27QDynamicPropertyChangeEvent@Base 5.0.1
 _ZTS27QEventDispatcherGlibPrivate@Base 5.0.1
 _ZTS27QEventDispatcherUNIXPrivate@Base 5.0.1
 _ZTS31QAbstractEventDispatcherPrivate@Base 5.0.1
 _ZTS5QFile@Base 5.0.1
 _ZTS6QEvent@Base 5.0.1
 _ZTS6QState@Base 5.0.1
 _ZTS6QTimer@Base 5.0.1
 _ZTS7QBuffer@Base 5.0.1
 _ZTS7QObject@Base 5.0.1
 _ZTS7QThread@Base 5.0.1
 _ZTS8QLibrary@Base 5.0.1
 _ZTS8QProcess@Base 5.0.1
 _ZTS9QIODevice@Base 5.0.1
 _ZTS9QMimeData@Base 5.0.1
 _ZTS9QSettings@Base 5.0.1
 _ZTS9QTimeLine@Base 5.0.1
 _ZTSN13QStateMachine11SignalEventE@Base 5.0.1
 _ZTSN13QStateMachine12WrappedEventE@Base 5.0.1
 _ZTSN9QtPrivate15ResultStoreBaseE@Base 5.0.1
 _ZTV10QEventLoop@Base 5.0.1
 _ZTV10QException@Base 5.0.1
 _ZTV10QTextCodec@Base 5.0.1
 _ZTV11QChildEvent@Base 5.0.1
 _ZTV11QFileDevice@Base 5.0.1
 _ZTV11QFinalState@Base 5.0.1
 _ZTV11QObjectData@Base 5.0.1
 _ZTV11QTextStream@Base 5.0.1
 _ZTV11QThreadPool@Base 5.0.1
 _ZTV11QTimerEvent@Base 5.0.1
 _ZTV11QTranslator@Base 5.0.1
 _ZTV13QHistoryState@Base 5.0.1
 _ZTV13QPluginLoader@Base 5.0.1
 _ZTV13QSharedMemory@Base 5.0.1
 _ZTV13QSignalMapper@Base 5.0.1
 _ZTV13QStateMachine@Base 5.0.1
 _ZTV13QUnifiedTimer@Base 5.0.1
 _ZTV14QAbstractState@Base 5.0.1
 _ZTV14QFactoryLoader@Base 5.0.1
 _ZTV14QMetaCallEvent@Base 5.0.1
 _ZTV14QObjectPrivate@Base 5.0.1
 _ZTV14QTemporaryFile@Base 5.0.1
 _ZTV15QAnimationGroup@Base 5.0.1
 _ZTV15QDateTimeParser@Base 5.0.1
 _ZTV15QObjectUserData@Base 5.0.1
 _ZTV15QPauseAnimation@Base 5.0.1
 _ZTV15QSocketNotifier@Base 5.0.1
 _ZTV16QAnimationDriver@Base 5.0.1
 _ZTV16QCoreApplication@Base 5.0.1
 _ZTV16QEventTransition@Base 5.0.1
 _ZTV16QIODevicePrivate@Base 5.0.1
 _ZTV16QStringListModel@Base 5.0.1
 _ZTV17QSignalTransition@Base 5.0.1
 _ZTV17QVariantAnimation@Base 5.0.1
 _ZTV18QAbstractAnimation@Base 5.0.1
 _ZTV18QAbstractItemModel@Base 5.0.1
 _ZTV18QAbstractListModel@Base 5.0.1
 _ZTV18QFileSystemWatcher@Base 5.0.1
 _ZTV18QFutureWatcherBase@Base 5.0.1
 _ZTV18QMetaObjectBuilder@Base 5.0.1
 _ZTV18QPropertyAnimation@Base 5.0.1
 _ZTV18QThreadPoolPrivate@Base 5.0.1
 _ZTV19QAbstractProxyModel@Base 5.0.1
 _ZTV19QAbstractTableModel@Base 5.0.1
 _ZTV19QAbstractTransition@Base 5.0.1
 _ZTV19QIdentityProxyModel@Base 5.0.1
 _ZTV19QItemSelectionModel@Base 5.0.1
 _ZTV19QUnhandledException@Base 5.0.1
 _ZTV20QDeferredDeleteEvent@Base 5.0.1
 _ZTV20QEventDispatcherGlib@Base 5.0.1
 _ZTV20QEventDispatcherUNIX@Base 5.0.1
 _ZTV20QFutureInterfaceBase@Base 5.0.1
 _ZTV20QStateMachinePrivate@Base 5.0.1
 _ZTV21QObjectCleanupHandler@Base 5.0.1
 _ZTV21QSortFilterProxyModel@Base 5.0.1
 _ZTV23QAbstractAnimationTimer@Base 5.0.1
 _ZTV23QAnimationDriverPrivate@Base 5.0.1
 _ZTV23QCoreApplicationPrivate@Base 5.0.1
 _ZTV23QEventTransitionPrivate@Base 5.0.1
 _ZTV23QParallelAnimationGroup@Base 5.0.1
 _ZTV24QAbstractEventDispatcher@Base 5.0.1
 _ZTV24QNonContiguousByteDevice@Base 5.0.1
 _ZTV24QXmlStreamEntityResolver@Base 5.0.1
 _ZTV25QAbstractItemModelPrivate@Base 5.0.1
 _ZTV25QSequentialAnimationGroup@Base 5.0.1
 _ZTV26QAbstractNativeEventFilter@Base 5.0.1
 _ZTV26QAbstractProxyModelPrivate@Base 5.0.1
 _ZTV26QAbstractTransitionPrivate@Base 5.0.1
 _ZTV27QDynamicPropertyChangeEvent@Base 5.0.1
 _ZTV27QEventDispatcherGlibPrivate@Base 5.0.1
 _ZTV27QEventDispatcherUNIXPrivate@Base 5.0.1
 _ZTV31QAbstractEventDispatcherPrivate@Base 5.0.1
 _ZTV5QFile@Base 5.0.1
 _ZTV6QEvent@Base 5.0.1
 _ZTV6QState@Base 5.0.1
 _ZTV6QTimer@Base 5.0.1
 _ZTV7QBuffer@Base 5.0.1
 _ZTV7QObject@Base 5.0.1
 _ZTV7QThread@Base 5.0.1
 _ZTV8QLibrary@Base 5.0.1
 _ZTV8QProcess@Base 5.0.1
 _ZTV9QIODevice@Base 5.0.1
 _ZTV9QMimeData@Base 5.0.1
 _ZTV9QSettings@Base 5.0.1
 _ZTV9QTimeLine@Base 5.0.1
 _ZTVN13QStateMachine11SignalEventE@Base 5.0.1
 _ZTVN13QStateMachine12WrappedEventE@Base 5.0.1
 _ZTVN9QtPrivate15ResultStoreBaseE@Base 5.0.1
 _ZanRK9QBitArrayS1_@Base 5.0.1
 _ZeoRK9QBitArrayS1_@Base 5.0.1
 _Zeq13QLatin1StringRK10QStringRef@Base 5.0.1
 _ZeqRK10QStringRefS1_@Base 5.0.1
 _ZeqRK7QStringRK10QStringRef@Base 5.0.1
 _ZeqRK7QStringS1_@Base 5.0.1
 _ZeqRKN15QDateTimeParser11SectionNodeES2_@Base 5.0.1
 _Zls6QDebug6QFlagsIN18QRegularExpression13PatternOptionEE@Base 5.0.1
 _Zls6QDebug6QFlagsIN4QDir6FilterEE@Base 5.0.1
 _Zls6QDebug6QFlagsIN9QIODevice12OpenModeFlagEE@Base 5.0.1
 _Zls6QDebugN8QVariant4TypeE@Base 5.0.1
 _Zls6QDebugPK7QObject@Base 5.0.1
 _Zls6QDebugRK10QJsonArray@Base 5.0.1
 _Zls6QDebugRK10QJsonValue@Base 5.0.1
 _Zls6QDebugRK11QJsonObject@Base 5.0.1
 _Zls6QDebugRK11QModelIndex@Base 5.0.1
 _Zls6QDebugRK12QEasingCurve@Base 5.0.1
 _Zls6QDebugRK13QJsonDocument@Base 5.0.1
 _Zls6QDebugRK18QRegularExpression@Base 5.0.1
 _Zls6QDebugRK19QItemSelectionRange@Base 5.0.1
 _Zls6QDebugRK21QPersistentModelIndex@Base 5.0.1
 _Zls6QDebugRK23QRegularExpressionMatch@Base 5.0.1
 _Zls6QDebugRK4QDir@Base 5.0.1
 _Zls6QDebugRK4QUrl@Base 5.0.1
 _Zls6QDebugRK5QDate@Base 5.0.1
 _Zls6QDebugRK5QLine@Base 5.0.1
 _Zls6QDebugRK5QRect@Base 5.0.1
 _Zls6QDebugRK5QSize@Base 5.0.1
 _Zls6QDebugRK5QTime@Base 5.0.1
 _Zls6QDebugRK5QUuid@Base 5.0.1
 _Zls6QDebugRK6QLineF@Base 5.0.1
 _Zls6QDebugRK6QPoint@Base 5.0.1
 _Zls6QDebugRK6QRectF@Base 5.0.1
 _Zls6QDebugRK6QSizeF@Base 5.0.1
 _Zls6QDebugRK7QLocale@Base 5.0.1
 _Zls6QDebugRK7QPointF@Base 5.0.1
 _Zls6QDebugRK7QRegExp@Base 5.0.1
 _Zls6QDebugRK8QMargins@Base 5.0.1
 _Zls6QDebugRK8QVariant@Base 5.0.1
 _Zls6QDebugRK9QBitArray@Base 5.0.1
 _Zls6QDebugRK9QDateTime@Base 5.0.1
 _ZlsR11QDataStream5QChar@Base 5.0.1
 _ZlsR11QDataStreamN8QVariant4TypeE@Base 5.0.1
 _ZlsR11QDataStreamRK10QByteArray@Base 5.0.1
 _ZlsR11QDataStreamRK12QEasingCurve@Base 5.0.1
 _ZlsR11QDataStreamRK18QRegularExpression@Base 5.0.1
 _ZlsR11QDataStreamRK4QUrl@Base 5.0.1
 _ZlsR11QDataStreamRK5QDate@Base 5.0.1
 _ZlsR11QDataStreamRK5QLine@Base 5.0.1
 _ZlsR11QDataStreamRK5QRect@Base 5.0.1
 _ZlsR11QDataStreamRK5QSize@Base 5.0.1
 _ZlsR11QDataStreamRK5QTime@Base 5.0.1
 _ZlsR11QDataStreamRK5QUuid@Base 5.0.1
 _ZlsR11QDataStreamRK6QLineF@Base 5.0.1
 _ZlsR11QDataStreamRK6QPoint@Base 5.0.1
 _ZlsR11QDataStreamRK6QRectF@Base 5.0.1
 _ZlsR11QDataStreamRK6QSizeF@Base 5.0.1
 _ZlsR11QDataStreamRK7QLocale@Base 5.0.1
 _ZlsR11QDataStreamRK7QPointF@Base 5.0.1
 _ZlsR11QDataStreamRK7QRegExp@Base 5.0.1
 _ZlsR11QDataStreamRK7QString@Base 5.0.1
 _ZlsR11QDataStreamRK8QMargins@Base 5.0.1
 _ZlsR11QDataStreamRK8QVariant@Base 5.0.1
 _ZlsR11QDataStreamRK9QBitArray@Base 5.0.1
 _ZlsR11QDataStreamRK9QDateTime@Base 5.0.1
 _ZltRK10QStringRefS1_@Base 5.0.1
 _ZltRK13QElapsedTimerS1_@Base 5.0.1
 _ZltRK7QStringS1_@Base 5.0.1
 _ZorRK9QBitArrayS1_@Base 5.0.1
 _ZrsR11QDataStreamR10QByteArray@Base 5.0.1
 _ZrsR11QDataStreamR12QEasingCurve@Base 5.0.1
 _ZrsR11QDataStreamR18QRegularExpression@Base 5.0.1
 _ZrsR11QDataStreamR4QUrl@Base 5.0.1
 _ZrsR11QDataStreamR5QChar@Base 5.0.1
 _ZrsR11QDataStreamR5QDate@Base 5.0.1
 _ZrsR11QDataStreamR5QLine@Base 5.0.1
 _ZrsR11QDataStreamR5QRect@Base 5.0.1
 _ZrsR11QDataStreamR5QSize@Base 5.0.1
 _ZrsR11QDataStreamR5QTime@Base 5.0.1
 _ZrsR11QDataStreamR5QUuid@Base 5.0.1
 _ZrsR11QDataStreamR6QLineF@Base 5.0.1
 _ZrsR11QDataStreamR6QPoint@Base 5.0.1
 _ZrsR11QDataStreamR6QRectF@Base 5.0.1
 _ZrsR11QDataStreamR6QSizeF@Base 5.0.1
 _ZrsR11QDataStreamR7QLocale@Base 5.0.1
 _ZrsR11QDataStreamR7QPointF@Base 5.0.1
 _ZrsR11QDataStreamR7QRegExp@Base 5.0.1
 _ZrsR11QDataStreamR7QString@Base 5.0.1
 _ZrsR11QDataStreamR8QMargins@Base 5.0.1
 _ZrsR11QDataStreamR8QVariant@Base 5.0.1
 _ZrsR11QDataStreamR9QBitArray@Base 5.0.1
 _ZrsR11QDataStreamR9QDateTime@Base 5.0.1
 _ZrsR11QDataStreamRN8QVariant4TypeE@Base 5.0.1
 qMetaObjectWidgetsHelper@Base 5.0.1
 qMetaTypeGuiHelper@Base 5.0.1
 qMetaTypeWidgetsHelper@Base 5.0.1
 qVersion@Base 5.0.1
 qmime_secondsBetweenChecks@Base 5.0.1
 qt_addObject@Base 5.0.1
 qt_cpu_features@Base 5.0.1
 qt_disable_lowpriority_timers@Base 5.0.1
 qt_qhash_seed@Base 5.0.1
 qt_removeObject@Base 5.0.1
 qt_signal_spy_callback_set@Base 5.0.1
 qt_sine_table@Base 5.0.1
 qt_startup_hook@Base 5.0.1
libQt5Multimedia.so.5 libqtcore5 #MINVER#
 _ZN10QRadioData11qt_metacallEN11QMetaObject4CallEiPPv@Base 5.0.1
 _ZN10QRadioData11qt_metacastEPKc@Base 5.0.1
 _ZN10QRadioData14setMediaObjectEP12QMediaObject@Base 5.0.1
 _ZN10QRadioData16radioTextChangedE7QString@Base 5.0.1
 _ZN10QRadioData16staticMetaObjectE@Base 5.0.1
 _ZN10QRadioData16stationIdChangedE7QString@Base 5.0.1
 _ZN10QRadioData18programTypeChangedENS_11ProgramTypeE@Base 5.0.1
 _ZN10QRadioData18stationNameChangedE7QString@Base 5.0.1
 _ZN10QRadioData22programTypeNameChangedE7QString@Base 5.0.1
 _ZN10QRadioData32setAlternativeFrequenciesEnabledEb@Base 5.0.1
 _ZN10QRadioData36alternativeFrequenciesEnabledChangedEb@Base 5.0.1
 _ZN10QRadioData5errorENS_5ErrorE@Base 5.0.1
 _ZN10QRadioDataC1EP12QMediaObjectP7QObject@Base 5.0.1
 _ZN10QRadioDataC2EP12QMediaObjectP7QObject@Base 5.0.1
 _ZN10QRadioDataD0Ev@Base 5.0.1
 _ZN10QRadioDataD1Ev@Base 5.0.1
 _ZN10QRadioDataD2Ev@Base 5.0.1
 _ZN11QAudioInput11qt_metacallEN11QMetaObject4CallEiPPv@Base 5.0.1
 _ZN11QAudioInput11qt_metacastEPKc@Base 5.0.1
 _ZN11QAudioInput12stateChangedEN6QAudio5StateE@Base 5.0.1
 _ZN11QAudioInput13setBufferSizeEi@Base 5.0.1
 _ZN11QAudioInput16staticMetaObjectE@Base 5.0.1
 _ZN11QAudioInput17setNotifyIntervalEi@Base 5.0.1
 _ZN11QAudioInput4stopEv@Base 5.0.1
 _ZN11QAudioInput5resetEv@Base 5.0.1
 _ZN11QAudioInput5startEP9QIODevice@Base 5.0.1
 _ZN11QAudioInput5startEv@Base 5.0.1
 _ZN11QAudioInput6notifyEv@Base 5.0.1
 _ZN11QAudioInput6resumeEv@Base 5.0.1
 _ZN11QAudioInput7suspendEv@Base 5.0.1
 _ZN11QAudioInput9setVolumeEd@Base 5.0.1
 _ZN11QAudioInputC1ERK12QAudioFormatP7QObject@Base 5.0.1
 _ZN11QAudioInputC1ERK16QAudioDeviceInfoRK12QAudioFormatP7QObject@Base 5.0.1
 _ZN11QAudioInputC2ERK12QAudioFormatP7QObject@Base 5.0.1
 _ZN11QAudioInputC2ERK16QAudioDeviceInfoRK12QAudioFormatP7QObject@Base 5.0.1
 _ZN11QAudioInputD0Ev@Base 5.0.1
 _ZN11QAudioInputD1Ev@Base 5.0.1
 _ZN11QAudioInputD2Ev@Base 5.0.1
 _ZN11QAudioProbe11qt_metacallEN11QMetaObject4CallEiPPv@Base 5.0.1
 _ZN11QAudioProbe11qt_metacastEPKc@Base 5.0.1
 _ZN11QAudioProbe16staticMetaObjectE@Base 5.0.1
 _ZN11QAudioProbe17audioBufferProbedERK12QAudioBuffer@Base 5.0.1
 _ZN11QAudioProbe5flushEv@Base 5.0.1
 _ZN11QAudioProbe9setSourceEP12QMediaObject@Base 5.0.1
 _ZN11QAudioProbe9setSourceEP14QMediaRecorder@Base 5.0.1
 _ZN11QAudioProbeC1EP7QObject@Base 5.0.1
 _ZN11QAudioProbeC2EP7QObject@Base 5.0.1
 _ZN11QAudioProbeD0Ev@Base 5.0.1
 _ZN11QAudioProbeD1Ev@Base 5.0.1
 _ZN11QAudioProbeD2Ev@Base 5.0.1
 _ZN11QRadioTuner11bandChangedENS_4BandE@Base 5.0.1
 _ZN11QRadioTuner11qt_metacallEN11QMetaObject4CallEiPPv@Base 5.0.1
 _ZN11QRadioTuner11qt_metacastEPKc@Base 5.0.1
 _ZN11QRadioTuner12cancelSearchEv@Base 5.0.1
 _ZN11QRadioTuner12mutedChangedEb@Base 5.0.1
 _ZN11QRadioTuner12setFrequencyEi@Base 5.0.1
 _ZN11QRadioTuner12stateChangedENS_5StateE@Base 5.0.1
 _ZN11QRadioTuner12stationFoundEi7QString@Base 5.0.1
 _ZN11QRadioTuner13searchForwardEv@Base 5.0.1
 _ZN11QRadioTuner13setStereoModeENS_10StereoModeE@Base 5.0.1
 _ZN11QRadioTuner13volumeChangedEi@Base 5.0.1
 _ZN11QRadioTuner14searchBackwardEv@Base 5.0.1
 _ZN11QRadioTuner16frequencyChangedEi@Base 5.0.1
 _ZN11QRadioTuner16searchingChangedEb@Base 5.0.1
 _ZN11QRadioTuner16staticMetaObjectE@Base 5.0.1
 _ZN11QRadioTuner17searchAllStationsENS_10SearchModeE@Base 5.0.1
 _ZN11QRadioTuner19stereoStatusChangedEb@Base 5.0.1
 _ZN11QRadioTuner21signalStrengthChangedEi@Base 5.0.1
 _ZN11QRadioTuner23antennaConnectedChangedEb@Base 5.0.1
 _ZN11QRadioTuner4stopEv@Base 5.0.1
 _ZN11QRadioTuner5errorENS_5ErrorE@Base 5.0.1
 _ZN11QRadioTuner5startEv@Base 5.0.1
 _ZN11QRadioTuner7setBandENS_4BandE@Base 5.0.1
 _ZN11QRadioTuner8setMutedEb@Base 5.0.1
 _ZN11QRadioTuner9setVolumeEi@Base 5.0.1
 _ZN11QRadioTunerC1EP7QObject@Base 5.0.1
 _ZN11QRadioTunerC2EP7QObject@Base 5.0.1
 _ZN11QRadioTunerD0Ev@Base 5.0.1
 _ZN11QRadioTunerD1Ev@Base 5.0.1
 _ZN11QRadioTunerD2Ev@Base 5.0.1
 _ZN11QVideoFrame10setEndTimeEx@Base 5.0.1
 _ZN11QVideoFrame11setMetaDataERK7QStringRK8QVariant@Base 5.0.1
 _ZN11QVideoFrame12setFieldTypeENS_9FieldTypeE@Base 5.0.1
 _ZN11QVideoFrame12setStartTimeEx@Base 5.0.1
 _ZN11QVideoFrame26imageFormatFromPixelFormatENS_11PixelFormatE@Base 5.0.1
 _ZN11QVideoFrame26pixelFormatFromImageFormatEN6QImage6FormatE@Base 5.0.1
 _ZN11QVideoFrame3mapEN20QAbstractVideoBuffer7MapModeE@Base 5.0.1
 _ZN11QVideoFrame4bitsEv@Base 5.0.1
 _ZN11QVideoFrame5unmapEv@Base 5.0.1
 _ZN11QVideoFrameC1EP20QAbstractVideoBufferRK5QSizeNS_11PixelFormatE@Base 5.0.1
 _ZN11QVideoFrameC1ERK6QImage@Base 5.0.1
 _ZN11QVideoFrameC1ERKS_@Base 5.0.1
 _ZN11QVideoFrameC1EiRK5QSizeiNS_11PixelFormatE@Base 5.0.1
 _ZN11QVideoFrameC1Ev@Base 5.0.1
 _ZN11QVideoFrameC2EP20QAbstractVideoBufferRK5QSizeNS_11PixelFormatE@Base 5.0.1
 _ZN11QVideoFrameC2ERK6QImage@Base 5.0.1
 _ZN11QVideoFrameC2ERKS_@Base 5.0.1
 _ZN11QVideoFrameC2EiRK5QSizeiNS_11PixelFormatE@Base 5.0.1
 _ZN11QVideoFrameC2Ev@Base 5.0.1
 _ZN11QVideoFrameD1Ev@Base 5.0.1
 _ZN11QVideoFrameD2Ev@Base 5.0.1
 _ZN11QVideoFrameaSERKS_@Base 5.0.1
 _ZN11QVideoProbe11qt_metacallEN11QMetaObject4CallEiPPv@Base 5.0.1
 _ZN11QVideoProbe11qt_metacastEPKc@Base 5.0.1
 _ZN11QVideoProbe16staticMetaObjectE@Base 5.0.1
 _ZN11QVideoProbe16videoFrameProbedERK11QVideoFrame@Base 5.0.1
 _ZN11QVideoProbe5flushEv@Base 5.0.1
 _ZN11QVideoProbe9setSourceEP12QMediaObject@Base 5.0.1
 _ZN11QVideoProbe9setSourceEP14QMediaRecorder@Base 5.0.1
 _ZN11QVideoProbeC1EP7QObject@Base 5.0.1
 _ZN11QVideoProbeC2EP7QObject@Base 5.0.1
 _ZN11QVideoProbeD0Ev@Base 5.0.1
 _ZN11QVideoProbeD1Ev@Base 5.0.1
 _ZN11QVideoProbeD2Ev@Base 5.0.1
 _ZN12QAudioBuffer4dataEv@Base 5.0.1
 _ZN12QAudioBufferC1EP20QAbstractAudioBuffer@Base 5.0.1
 _ZN12QAudioBufferC1ERK10QByteArrayRK12QAudioFormatx@Base 5.0.1
 _ZN12QAudioBufferC1ERKS_@Base 5.0.1
 _ZN12QAudioBufferC1EiRK12QAudioFormatx@Base 5.0.1
 _ZN12QAudioBufferC1Ev@Base 5.0.1
 _ZN12QAudioBufferC2EP20QAbstractAudioBuffer@Base 5.0.1
 _ZN12QAudioBufferC2ERK10QByteArrayRK12QAudioFormatx@Base 5.0.1
 _ZN12QAudioBufferC2ERKS_@Base 5.0.1
 _ZN12QAudioBufferC2EiRK12QAudioFormatx@Base 5.0.1
 _ZN12QAudioBufferC2Ev@Base 5.0.1
 _ZN12QAudioBufferD1Ev@Base 5.0.1
 _ZN12QAudioBufferD2Ev@Base 5.0.1
 _ZN12QAudioBufferaSERKS_@Base 5.0.1
 _ZN12QAudioFormat12setByteOrderENS_6EndianE@Base 5.0.1
 _ZN12QAudioFormat13setSampleRateEi@Base 5.0.1
 _ZN12QAudioFormat13setSampleSizeEi@Base 5.0.1
 _ZN12QAudioFormat13setSampleTypeENS_10SampleTypeE@Base 5.0.1
 _ZN12QAudioFormat15setChannelCountEi@Base 5.0.1
 _ZN12QAudioFormat8setCodecERK7QString@Base 5.0.1
 _ZN12QAudioFormatC1ERKS_@Base 5.0.1
 _ZN12QAudioFormatC1Ev@Base 5.0.1
 _ZN12QAudioFormatC2ERKS_@Base 5.0.1
 _ZN12QAudioFormatC2Ev@Base 5.0.1
 _ZN12QAudioFormatD1Ev@Base 5.0.1
 _ZN12QAudioFormatD2Ev@Base 5.0.1
 _ZN12QAudioFormataSERKS_@Base 5.0.1
 _ZN12QAudioOutput11qt_metacallEN11QMetaObject4CallEiPPv@Base 5.0.1
 _ZN12QAudioOutput11qt_metacastEPKc@Base 5.0.1
 _ZN12QAudioOutput11setCategoryERK7QString@Base 5.0.1
 _ZN12QAudioOutput12stateChangedEN6QAudio5StateE@Base 5.0.1
 _ZN12QAudioOutput13setBufferSizeEi@Base 5.0.1
 _ZN12QAudioOutput16staticMetaObjectE@Base 5.0.1
 _ZN12QAudioOutput17setNotifyIntervalEi@Base 5.0.1
 _ZN12QAudioOutput4stopEv@Base 5.0.1
 _ZN12QAudioOutput5resetEv@Base 5.0.1
 _ZN12QAudioOutput5startEP9QIODevice@Base 5.0.1
 _ZN12QAudioOutput5startEv@Base 5.0.1
 _ZN12QAudioOutput6notifyEv@Base 5.0.1
 _ZN12QAudioOutput6resumeEv@Base 5.0.1
 _ZN12QAudioOutput7suspendEv@Base 5.0.1
 _ZN12QAudioOutput9setVolumeEd@Base 5.0.1
 _ZN12QAudioOutputC1ERK12QAudioFormatP7QObject@Base 5.0.1
 _ZN12QAudioOutputC1ERK16QAudioDeviceInfoRK12QAudioFormatP7QObject@Base 5.0.1
 _ZN12QAudioOutputC2ERK12QAudioFormatP7QObject@Base 5.0.1
 _ZN12QAudioOutputC2ERK16QAudioDeviceInfoRK12QAudioFormatP7QObject@Base 5.0.1
 _ZN12QAudioOutputD0Ev@Base 5.0.1
 _ZN12QAudioOutputD1Ev@Base 5.0.1
 _ZN12QAudioOutputD2Ev@Base 5.0.1
 _ZN12QCameraFocus11qt_metacallEN11QMetaObject4CallEiPPv@Base 5.0.1
 _ZN12QCameraFocus11qt_metacastEPKc@Base 5.0.1
 _ZN12QCameraFocus12setFocusModeE6QFlagsINS_9FocusModeEE@Base 5.0.1
 _ZN12QCameraFocus16staticMetaObjectE@Base 5.0.1
 _ZN12QCameraFocus17focusZonesChangedEv@Base 5.0.1
 _ZN12QCameraFocus17setFocusPointModeENS_14FocusPointModeE@Base 5.0.1
 _ZN12QCameraFocus18digitalZoomChangedEd@Base 5.0.1
 _ZN12QCameraFocus18opticalZoomChangedEd@Base 5.0.1
 _ZN12QCameraFocus19setCustomFocusPointERK7QPointF@Base 5.0.1
 _ZN12QCameraFocus25maximumDigitalZoomChangedEd@Base 5.0.1
 _ZN12QCameraFocus25maximumOpticalZoomChangedEd@Base 5.0.1
 _ZN12QCameraFocus6zoomToEdd@Base 5.0.1
 _ZN12QCameraFocusC1EP7QCamera@Base 5.0.1
 _ZN12QCameraFocusC2EP7QCamera@Base 5.0.1
 _ZN12QCameraFocusD0Ev@Base 5.0.1
 _ZN12QCameraFocusD1Ev@Base 5.0.1
 _ZN12QCameraFocusD2Ev@Base 5.0.1
 _ZN12QMediaObject11qt_metacallEN11QMetaObject4CallEiPPv@Base 5.0.1
 _ZN12QMediaObject11qt_metacastEPKc@Base 5.0.1
 _ZN12QMediaObject13setupControlsEv@Base 5.0.1
 _ZN12QMediaObject15metaDataChangedERK7QStringRK8QVariant@Base 5.0.1
 _ZN12QMediaObject15metaDataChangedEv@Base 5.0.1
 _ZN12QMediaObject16addPropertyWatchERK10QByteArray@Base 5.0.1
 _ZN12QMediaObject16staticMetaObjectE@Base 5.0.1
 _ZN12QMediaObject17setNotifyIntervalEi@Base 5.0.1
 _ZN12QMediaObject19availabilityChangedEN11QMultimedia18AvailabilityStatusE@Base 5.0.1
 _ZN12QMediaObject19availabilityChangedEb@Base 5.0.1
 _ZN12QMediaObject19removePropertyWatchERK10QByteArray@Base 5.0.1
 _ZN12QMediaObject21notifyIntervalChangedEi@Base 5.0.1
 _ZN12QMediaObject24metaDataAvailableChangedEb@Base 5.0.1
 _ZN12QMediaObject4bindEP7QObject@Base 5.0.1
 _ZN12QMediaObject6unbindEP7QObject@Base 5.0.1
 _ZN12QMediaObjectC1EP7QObjectP13QMediaService@Base 5.0.1
 _ZN12QMediaObjectC1ER19QMediaObjectPrivateP7QObjectP13QMediaService@Base 5.0.1
 _ZN12QMediaObjectC2EP7QObjectP13QMediaService@Base 5.0.1
 _ZN12QMediaObjectC2ER19QMediaObjectPrivateP7QObjectP13QMediaService@Base 5.0.1
 _ZN12QMediaObjectD0Ev@Base 5.0.1
 _ZN12QMediaObjectD1Ev@Base 5.0.1
 _ZN12QMediaObjectD2Ev@Base 5.0.1
 _ZN12QMediaPlayer10hasSupportERK7QStringRK11QStringList6QFlagsINS_4FlagEE@Base 5.0.1
 _ZN12QMediaPlayer11qt_metacallEN11QMetaObject4CallEiPPv@Base 5.0.1
 _ZN12QMediaPlayer11qt_metacastEPKc@Base 5.0.1
 _ZN12QMediaPlayer11setPlaylistEP14QMediaPlaylist@Base 5.0.1
 _ZN12QMediaPlayer11setPositionEx@Base 5.0.1
 _ZN12QMediaPlayer12mediaChangedERK13QMediaContent@Base 5.0.1
 _ZN12QMediaPlayer12mutedChangedEb@Base 5.0.1
 _ZN12QMediaPlayer12stateChangedENS_5StateE@Base 5.0.1
 _ZN12QMediaPlayer13volumeChangedEi@Base 5.0.1
 _ZN12QMediaPlayer14setVideoOutputEP12QVideoWidget@Base 5.0.1
 _ZN12QMediaPlayer14setVideoOutputEP18QGraphicsVideoItem@Base 5.0.1
 _ZN12QMediaPlayer14setVideoOutputEP21QAbstractVideoSurface@Base 5.0.1
 _ZN12QMediaPlayer15durationChangedEx@Base 5.0.1
 _ZN12QMediaPlayer15positionChangedEx@Base 5.0.1
 _ZN12QMediaPlayer15seekableChangedEb@Base 5.0.1
 _ZN12QMediaPlayer15setPlaybackRateEd@Base 5.0.1
 _ZN12QMediaPlayer16staticMetaObjectE@Base 5.0.1
 _ZN12QMediaPlayer18mediaStatusChangedENS_11MediaStatusE@Base 5.0.1
 _ZN12QMediaPlayer18supportedMimeTypesE6QFlagsINS_4FlagEE@Base 5.0.1
 _ZN12QMediaPlayer19bufferStatusChangedEi@Base 5.0.1
 _ZN12QMediaPlayer19currentMediaChangedERK13QMediaContent@Base 5.0.1
 _ZN12QMediaPlayer19playbackRateChangedEd@Base 5.0.1
 _ZN12QMediaPlayer21audioAvailableChangedEb@Base 5.0.1
 _ZN12QMediaPlayer21videoAvailableChangedEb@Base 5.0.1
 _ZN12QMediaPlayer24setNetworkConfigurationsERK5QListI21QNetworkConfigurationE@Base 5.0.1
 _ZN12QMediaPlayer27networkConfigurationChangedERK21QNetworkConfiguration@Base 5.0.1
 _ZN12QMediaPlayer4bindEP7QObject@Base 5.0.1
 _ZN12QMediaPlayer4playEv@Base 5.0.1
 _ZN12QMediaPlayer4stopEv@Base 5.0.1
 _ZN12QMediaPlayer5errorENS_5ErrorE@Base 5.0.1
 _ZN12QMediaPlayer5pauseEv@Base 5.0.1
 _ZN12QMediaPlayer6unbindEP7QObject@Base 5.0.1
 _ZN12QMediaPlayer8setMediaERK13QMediaContentP9QIODevice@Base 5.0.1
 _ZN12QMediaPlayer8setMutedEb@Base 5.0.1
 _ZN12QMediaPlayer9setVolumeEi@Base 5.0.1
 _ZN12QMediaPlayerC1EP7QObject6QFlagsINS_4FlagEE@Base 5.0.1
 _ZN12QMediaPlayerC2EP7QObject6QFlagsINS_4FlagEE@Base 5.0.1
 _ZN12QMediaPlayerD0Ev@Base 5.0.1
 _ZN12QMediaPlayerD1Ev@Base 5.0.1
 _ZN12QMediaPlayerD2Ev@Base 5.0.1
 _ZN12QSampleCache11qt_metacallEN11QMetaObject4CallEiPPv@Base 5.0.1
 _ZN12QSampleCache11qt_metacastEPKc@Base 5.0.1
 _ZN12QSampleCache11setCapacityEx@Base 5.0.1
 _ZN12QSampleCache12unloadSampleEP7QSample@Base 5.0.1
 _ZN12QSampleCache13requestSampleERK4QUrl@Base 5.0.1
 _ZN12QSampleCache14loadingReleaseEv@Base 5.0.1
 _ZN12QSampleCache16isLoadingChangedEv@Base 5.0.1
 _ZN12QSampleCache16staticMetaObjectE@Base 5.0.1
 _ZN12QSampleCache20networkAccessManagerEv@Base 5.0.1
 _ZN12QSampleCache24notifyUnreferencedSampleEP7QSample@Base 5.0.1
 _ZN12QSampleCache24removeUnreferencedSampleEP7QSample@Base 5.0.1
 _ZN12QSampleCache7refreshEx@Base 5.0.1
 _ZN12QSampleCacheC1EP7QObject@Base 5.0.1
 _ZN12QSampleCacheC2EP7QObject@Base 5.0.1
 _ZN12QSampleCacheD0Ev@Base 5.0.1
 _ZN12QSampleCacheD1Ev@Base 5.0.1
 _ZN12QSampleCacheD2Ev@Base 5.0.1
 _ZN12QSoundEffect11qt_metacallEN11QMetaObject4CallEiPPv@Base 5.0.1
 _ZN12QSoundEffect11qt_metacastEPKc@Base 5.0.1
 _ZN12QSoundEffect11setCategoryERK7QString@Base 5.0.1
 _ZN12QSoundEffect12mutedChangedEv@Base 5.0.1
 _ZN12QSoundEffect12setLoopCountEi@Base 5.0.1
 _ZN12QSoundEffect13loadedChangedEv@Base 5.0.1
 _ZN12QSoundEffect13sourceChangedEv@Base 5.0.1
 _ZN12QSoundEffect13statusChangedEv@Base 5.0.1
 _ZN12QSoundEffect13volumeChangedEv@Base 5.0.1
 _ZN12QSoundEffect14playingChangedEv@Base 5.0.1
 _ZN12QSoundEffect15categoryChangedEv@Base 5.0.1
 _ZN12QSoundEffect16loopCountChangedEv@Base 5.0.1
 _ZN12QSoundEffect16staticMetaObjectE@Base 5.0.1
 _ZN12QSoundEffect18supportedMimeTypesEv@Base 5.0.1
 _ZN12QSoundEffect21loopsRemainingChangedEv@Base 5.0.1
 _ZN12QSoundEffect4playEv@Base 5.0.1
 _ZN12QSoundEffect4stopEv@Base 5.0.1
 _ZN12QSoundEffect8setMutedEb@Base 5.0.1
 _ZN12QSoundEffect9setSourceERK4QUrl@Base 5.0.1
 _ZN12QSoundEffect9setVolumeEd@Base 5.0.1
 _ZN12QSoundEffectC1EP7QObject@Base 5.0.1
 _ZN12QSoundEffectC2EP7QObject@Base 5.0.1
 _ZN12QSoundEffectD0Ev@Base 5.0.1
 _ZN12QSoundEffectD1Ev@Base 5.0.1
 _ZN12QSoundEffectD2Ev@Base 5.0.1
 _ZN13QAudioDecoder10hasSupportERK7QStringRK11QStringList@Base 5.0.1
 _ZN13QAudioDecoder11bufferReadyEv@Base 5.0.1
 _ZN13QAudioDecoder11qt_metacallEN11QMetaObject4CallEiPPv@Base 5.0.1
 _ZN13QAudioDecoder11qt_metacastEPKc@Base 5.0.1
 _ZN13QAudioDecoder12stateChangedENS_5StateE@Base 5.0.1
 _ZN13QAudioDecoder13formatChangedERK12QAudioFormat@Base 5.0.1
 _ZN13QAudioDecoder13sourceChangedEv@Base 5.0.1
 _ZN13QAudioDecoder14setAudioFormatERK12QAudioFormat@Base 5.0.1
 _ZN13QAudioDecoder15durationChangedEx@Base 5.0.1
 _ZN13QAudioDecoder15positionChangedEx@Base 5.0.1
 _ZN13QAudioDecoder15setSourceDeviceEP9QIODevice@Base 5.0.1
 _ZN13QAudioDecoder16staticMetaObjectE@Base 5.0.1
 _ZN13QAudioDecoder17setSourceFilenameERK7QString@Base 5.0.1
 _ZN13QAudioDecoder22bufferAvailableChangedEb@Base 5.0.1
 _ZN13QAudioDecoder4bindEP7QObject@Base 5.0.1
 _ZN13QAudioDecoder4stopEv@Base 5.0.1
 _ZN13QAudioDecoder5errorENS_5ErrorE@Base 5.0.1
 _ZN13QAudioDecoder5startEv@Base 5.0.1
 _ZN13QAudioDecoder6unbindEP7QObject@Base 5.0.1
 _ZN13QAudioDecoder8finishedEv@Base 5.0.1
 _ZN13QAudioDecoderC1EP7QObject@Base 5.0.1
 _ZN13QAudioDecoderC2EP7QObject@Base 5.0.1
 _ZN13QAudioDecoderD0Ev@Base 5.0.1
 _ZN13QAudioDecoderD1Ev@Base 5.0.1
 _ZN13QAudioDecoderD2Ev@Base 5.0.1
 _ZN13QMediaContentC1EP14QMediaPlaylistRK4QUrlb@Base 5.0.1
 _ZN13QMediaContentC1ERK14QMediaResource@Base 5.0.1
 _ZN13QMediaContentC1ERK15QNetworkRequest@Base 5.0.1
 _ZN13QMediaContentC1ERK4QUrl@Base 5.0.1
 _ZN13QMediaContentC1ERK5QListI14QMediaResourceE@Base 5.0.1
 _ZN13QMediaContentC1ERKS_@Base 5.0.1
 _ZN13QMediaContentC1Ev@Base 5.0.1
 _ZN13QMediaContentC2EP14QMediaPlaylistRK4QUrlb@Base 5.0.1
 _ZN13QMediaContentC2ERK14QMediaResource@Base 5.0.1
 _ZN13QMediaContentC2ERK15QNetworkRequest@Base 5.0.1
 _ZN13QMediaContentC2ERK4QUrl@Base 5.0.1
 _ZN13QMediaContentC2ERK5QListI14QMediaResourceE@Base 5.0.1
 _ZN13QMediaContentC2ERKS_@Base 5.0.1
 _ZN13QMediaContentC2Ev@Base 5.0.1
 _ZN13QMediaContentD1Ev@Base 5.0.1
 _ZN13QMediaContentD2Ev@Base 5.0.1
 _ZN13QMediaContentaSERKS_@Base 5.0.1
 _ZN13QMediaControl11qt_metacallEN11QMetaObject4CallEiPPv@Base 5.0.1
 _ZN13QMediaControl11qt_metacastEPKc@Base 5.0.1
 _ZN13QMediaControl16staticMetaObjectE@Base 5.0.1
 _ZN13QMediaControlC1EP7QObject@Base 5.0.1
 _ZN13QMediaControlC1ER20QMediaControlPrivateP7QObject@Base 5.0.1
 _ZN13QMediaControlC2EP7QObject@Base 5.0.1
 _ZN13QMediaControlC2ER20QMediaControlPrivateP7QObject@Base 5.0.1
 _ZN13QMediaControlD0Ev@Base 5.0.1
 _ZN13QMediaControlD1Ev@Base 5.0.1
 _ZN13QMediaControlD2Ev@Base 5.0.1
 _ZN13QMediaService11qt_metacallEN11QMetaObject4CallEiPPv@Base 5.0.1
 _ZN13QMediaService11qt_metacastEPKc@Base 5.0.1
 _ZN13QMediaService16staticMetaObjectE@Base 5.0.1
 _ZN13QMediaServiceC1EP7QObject@Base 5.0.1
 _ZN13QMediaServiceC1ER20QMediaServicePrivateP7QObject@Base 5.0.1
 _ZN13QMediaServiceC2EP7QObject@Base 5.0.1
 _ZN13QMediaServiceC2ER20QMediaServicePrivateP7QObject@Base 5.0.1
 _ZN13QMediaServiceD0Ev@Base 5.0.1
 _ZN13QMediaServiceD1Ev@Base 5.0.1
 _ZN13QMediaServiceD2Ev@Base 5.0.1
 _ZN14QAudioRecorder11qt_metacallEN11QMetaObject4CallEiPPv@Base 5.0.1
 _ZN14QAudioRecorder11qt_metacastEPKc@Base 5.0.1
 _ZN14QAudioRecorder13setAudioInputERK7QString@Base 5.0.1
 _ZN14QAudioRecorder16staticMetaObjectE@Base 5.0.1
 _ZN14QAudioRecorder17audioInputChangedERK7QString@Base 5.0.1
 _ZN14QAudioRecorder27availableAudioInputsChangedEv@Base 5.0.1
 _ZN14QAudioRecorderC1EP7QObject@Base 5.0.1
 _ZN14QAudioRecorderC2EP7QObject@Base 5.0.1
 _ZN14QAudioRecorderD0Ev@Base 5.0.1
 _ZN14QAudioRecorderD1Ev@Base 5.0.1
 _ZN14QAudioRecorderD2Ev@Base 5.0.1
 _ZN14QCameraControl11qt_metacallEN11QMetaObject4CallEiPPv@Base 5.0.1
 _ZN14QCameraControl11qt_metacastEPKc@Base 5.0.1
 _ZN14QCameraControl12stateChangedEN7QCamera5StateE@Base 5.0.1
 _ZN14QCameraControl13statusChangedEN7QCamera6StatusE@Base 5.0.1
 _ZN14QCameraControl16staticMetaObjectE@Base 5.0.1
 _ZN14QCameraControl18captureModeChangedE6QFlagsIN7QCamera11CaptureModeEE@Base 5.0.1
 _ZN14QCameraControl5errorEiRK7QString@Base 5.0.1
 _ZN14QCameraControlC1EP7QObject@Base 5.0.1
 _ZN14QCameraControlC2EP7QObject@Base 5.0.1
 _ZN14QCameraControlD0Ev@Base 5.0.1
 _ZN14QCameraControlD1Ev@Base 5.0.1
 _ZN14QCameraControlD2Ev@Base 5.0.1
 _ZN14QMediaMetaData10AlbumTitleE@Base 5.0.1
 _ZN14QMediaMetaData10AudioCodecE@Base 5.0.1
 _ZN14QMediaMetaData10ResolutionE@Base 5.0.1
 _ZN14QMediaMetaData10SampleRateE@Base 5.0.1
 _ZN14QMediaMetaData10SaturationE@Base 5.0.1
 _ZN14QMediaMetaData10TrackCountE@Base 5.0.1
 _ZN14QMediaMetaData10UserRatingE@Base 5.0.1
 _ZN14QMediaMetaData10VideoCodecE@Base 5.0.1
 _ZN14QMediaMetaData11AlbumArtistE@Base 5.0.1
 _ZN14QMediaMetaData11CameraModelE@Base 5.0.1
 _ZN14QMediaMetaData11DescriptionE@Base 5.0.1
 _ZN14QMediaMetaData11FocalLengthE@Base 5.0.1
 _ZN14QMediaMetaData11GPSAltitudeE@Base 5.0.1
 _ZN14QMediaMetaData11GPSLatitudeE@Base 5.0.1
 _ZN14QMediaMetaData11GPSMapDatumE@Base 5.0.1
 _ZN14QMediaMetaData11GPSTrackRefE@Base 5.0.1
 _ZN14QMediaMetaData11GainControlE@Base 5.0.1
 _ZN14QMediaMetaData11LightSourceE@Base 5.0.1
 _ZN14QMediaMetaData11OrientationE@Base 5.0.1
 _ZN14QMediaMetaData11PosterImageE@Base 5.0.1
 _ZN14QMediaMetaData11TrackNumberE@Base 5.0.1
 _ZN14QMediaMetaData12AudioBitRateE@Base 5.0.1
 _ZN14QMediaMetaData12AverageLevelE@Base 5.0.1
 _ZN14QMediaMetaData12ChannelCountE@Base 5.0.1
 _ZN14QMediaMetaData12ExposureModeE@Base 5.0.1
 _ZN14QMediaMetaData12ExposureTimeE@Base 5.0.1
 _ZN14QMediaMetaData12GPSLongitudeE@Base 5.0.1
 _ZN14QMediaMetaData12GPSTimeStampE@Base 5.0.1
 _ZN14QMediaMetaData12MeteringModeE@Base 5.0.1
 _ZN14QMediaMetaData12VideoBitRateE@Base 5.0.1
 _ZN14QMediaMetaData12WhiteBalanceE@Base 5.0.1
 _ZN14QMediaMetaData13ChapterNumberE@Base 5.0.1
 _ZN14QMediaMetaData13CoverArtImageE@Base 5.0.1
 _ZN14QMediaMetaData13GPSSatellitesE@Base 5.0.1
 _ZN14QMediaMetaData13LeadPerformerE@Base 5.0.1
 _ZN14QMediaMetaData14ParentalRatingE@Base 5.0.1
 _ZN14QMediaMetaData14ThumbnailImageE@Base 5.0.1
 _ZN14QMediaMetaData14VideoFrameRateE@Base 5.0.1
 _ZN14QMediaMetaData15ExposureProgramE@Base 5.0.1
 _ZN14QMediaMetaData15GPSImgDirectionE@Base 5.0.1
 _ZN14QMediaMetaData15ISOSpeedRatingsE@Base 5.0.1
 _ZN14QMediaMetaData15SubjectDistanceE@Base 5.0.1
 _ZN14QMediaMetaData16CoverArtUrlLargeE@Base 5.0.1
 _ZN14QMediaMetaData16CoverArtUrlSmallE@Base 5.0.1
 _ZN14QMediaMetaData16DateTimeOriginalE@Base 5.0.1
 _ZN14QMediaMetaData16DigitalZoomRatioE@Base 5.0.1
 _ZN14QMediaMetaData16PixelAspectRatioE@Base 5.0.1
 _ZN14QMediaMetaData16SceneCaptureTypeE@Base 5.0.1
 _ZN14QMediaMetaData17DateTimeDigitizedE@Base 5.0.1
 _ZN14QMediaMetaData17ExposureBiasValueE@Base 5.0.1
 _ZN14QMediaMetaData18CameraManufacturerE@Base 5.0.1
 _ZN14QMediaMetaData18ContributingArtistE@Base 5.0.1
 _ZN14QMediaMetaData18GPSAreaInformationE@Base 5.0.1
 _ZN14QMediaMetaData18GPSImgDirectionRefE@Base 5.0.1
 _ZN14QMediaMetaData18RatingOrganizationE@Base 5.0.1
 _ZN14QMediaMetaData19GPSProcessingMethodE@Base 5.0.1
 _ZN14QMediaMetaData21FocalLengthIn35mmFilmE@Base 5.0.1
 _ZN14QMediaMetaData24DeviceSettingDescriptionE@Base 5.0.1
 _ZN14QMediaMetaData4DateE@Base 5.0.1
 _ZN14QMediaMetaData4MoodE@Base 5.0.1
 _ZN14QMediaMetaData4SizeE@Base 5.0.1
 _ZN14QMediaMetaData4YearE@Base 5.0.1
 _ZN14QMediaMetaData5EventE@Base 5.0.1
 _ZN14QMediaMetaData5FlashE@Base 5.0.1
 _ZN14QMediaMetaData5GenreE@Base 5.0.1
 _ZN14QMediaMetaData5TitleE@Base 5.0.1
 _ZN14QMediaMetaData6AuthorE@Base 5.0.1
 _ZN14QMediaMetaData6GPSDOPE@Base 5.0.1
 _ZN14QMediaMetaData6LyricsE@Base 5.0.1
 _ZN14QMediaMetaData6WriterE@Base 5.0.1
 _ZN14QMediaMetaData7CommentE@Base 5.0.1
 _ZN14QMediaMetaData7FNumberE@Base 5.0.1
 _ZN14QMediaMetaData7SubjectE@Base 5.0.1
 _ZN14QMediaMetaData8CategoryE@Base 5.0.1
 _ZN14QMediaMetaData8ComposerE@Base 5.0.1
 _ZN14QMediaMetaData8ContrastE@Base 5.0.1
 _ZN14QMediaMetaData8DirectorE@Base 5.0.1
 _ZN14QMediaMetaData8DurationE@Base 5.0.1
 _ZN14QMediaMetaData8GPSSpeedE@Base 5.0.1
 _ZN14QMediaMetaData8GPSTrackE@Base 5.0.1
 _ZN14QMediaMetaData8KeywordsE@Base 5.0.1
 _ZN14QMediaMetaData8LanguageE@Base 5.0.1
 _ZN14QMediaMetaData8SubTitleE@Base 5.0.1
 _ZN14QMediaMetaData9ConductorE@Base 5.0.1
 _ZN14QMediaMetaData9CopyrightE@Base 5.0.1
 _ZN14QMediaMetaData9GPSStatusE@Base 5.0.1
 _ZN14QMediaMetaData9MediaTypeE@Base 5.0.1
 _ZN14QMediaMetaData9PeakValueE@Base 5.0.1
 _ZN14QMediaMetaData9PosterUrlE@Base 5.0.1
 _ZN14QMediaMetaData9PublisherE@Base 5.0.1
 _ZN14QMediaMetaData9SharpnessE@Base 5.0.1
 _ZN14QMediaPlaylist10loadFailedEv@Base 5.0.1
 _ZN14QMediaPlaylist11insertMediaEiRK13QMediaContent@Base 5.0.1
 _ZN14QMediaPlaylist11insertMediaEiRK5QListI13QMediaContentE@Base 5.0.1
 _ZN14QMediaPlaylist11qt_metacallEN11QMetaObject4CallEiPPv@Base 5.0.1
 _ZN14QMediaPlaylist11qt_metacastEPKc@Base 5.0.1
 _ZN14QMediaPlaylist11removeMediaEi@Base 5.0.1
 _ZN14QMediaPlaylist11removeMediaEii@Base 5.0.1
 _ZN14QMediaPlaylist12mediaChangedEii@Base 5.0.1
 _ZN14QMediaPlaylist12mediaRemovedEii@Base 5.0.1
 _ZN14QMediaPlaylist13mediaInsertedEii@Base 5.0.1
 _ZN14QMediaPlaylist14setMediaObjectEP12QMediaObject@Base 5.0.1
 _ZN14QMediaPlaylist15setCurrentIndexEi@Base 5.0.1
 _ZN14QMediaPlaylist15setPlaybackModeENS_12PlaybackModeE@Base 5.0.1
 _ZN14QMediaPlaylist16staticMetaObjectE@Base 5.0.1
 _ZN14QMediaPlaylist19currentIndexChangedEi@Base 5.0.1
 _ZN14QMediaPlaylist19currentMediaChangedERK13QMediaContent@Base 5.0.1
 _ZN14QMediaPlaylist19playbackModeChangedENS_12PlaybackModeE@Base 5.0.1
 _ZN14QMediaPlaylist21mediaAboutToBeRemovedEii@Base 5.0.1
 _ZN14QMediaPlaylist22mediaAboutToBeInsertedEii@Base 5.0.1
 _ZN14QMediaPlaylist4loadEP9QIODevicePKc@Base 5.0.1
 _ZN14QMediaPlaylist4loadERK15QNetworkRequestPKc@Base 5.0.1
 _ZN14QMediaPlaylist4loadERK4QUrlPKc@Base 5.0.1
 _ZN14QMediaPlaylist4nextEv@Base 5.0.1
 _ZN14QMediaPlaylist4saveEP9QIODevicePKc@Base 5.0.1
 _ZN14QMediaPlaylist4saveERK4QUrlPKc@Base 5.0.1
 _ZN14QMediaPlaylist5clearEv@Base 5.0.1
 _ZN14QMediaPlaylist6loadedEv@Base 5.0.1
 _ZN14QMediaPlaylist7shuffleEv@Base 5.0.1
 _ZN14QMediaPlaylist8addMediaERK13QMediaContent@Base 5.0.1
 _ZN14QMediaPlaylist8addMediaERK5QListI13QMediaContentE@Base 5.0.1
 _ZN14QMediaPlaylist8previousEv@Base 5.0.1
 _ZN14QMediaPlaylistC1EP7QObject@Base 5.0.1
 _ZN14QMediaPlaylistC2EP7QObject@Base 5.0.1
 _ZN14QMediaPlaylistD0Ev@Base 5.0.1
 _ZN14QMediaPlaylistD1Ev@Base 5.0.1
 _ZN14QMediaPlaylistD2Ev@Base 5.0.1
 _ZN14QMediaRecorder11qt_metacallEN11QMetaObject4CallEiPPv@Base 5.0.1
 _ZN14QMediaRecorder11qt_metacastEPKc@Base 5.0.1
 _ZN14QMediaRecorder11setMetaDataERK7QStringRK8QVariant@Base 5.0.1
 _ZN14QMediaRecorder12mutedChangedEb@Base 5.0.1
 _ZN14QMediaRecorder12stateChangedENS_5StateE@Base 5.0.1
 _ZN14QMediaRecorder13statusChangedENS_6StatusE@Base 5.0.1
 _ZN14QMediaRecorder13volumeChangedEd@Base 5.0.1
 _ZN14QMediaRecorder14setMediaObjectEP12QMediaObject@Base 5.0.1
 _ZN14QMediaRecorder15durationChangedEx@Base 5.0.1
 _ZN14QMediaRecorder15metaDataChangedERK7QStringRK8QVariant@Base 5.0.1
 _ZN14QMediaRecorder15metaDataChangedEv@Base 5.0.1
 _ZN14QMediaRecorder16setAudioSettingsERK21QAudioEncoderSettings@Base 5.0.1
 _ZN14QMediaRecorder16setVideoSettingsERK21QVideoEncoderSettings@Base 5.0.1
 _ZN14QMediaRecorder16staticMetaObjectE@Base 5.0.1
 _ZN14QMediaRecorder17setOutputLocationERK4QUrl@Base 5.0.1
 _ZN14QMediaRecorder18setContainerFormatERK7QString@Base 5.0.1
 _ZN14QMediaRecorder19availabilityChangedEN11QMultimedia18AvailabilityStatusE@Base 5.0.1
 _ZN14QMediaRecorder19availabilityChangedEb@Base 5.0.1
 _ZN14QMediaRecorder19setEncodingSettingsERK21QAudioEncoderSettingsRK21QVideoEncoderSettingsRK7QString@Base 5.0.1
 _ZN14QMediaRecorder21actualLocationChangedERK4QUrl@Base 5.0.1
 _ZN14QMediaRecorder23metaDataWritableChangedEb@Base 5.0.1
 _ZN14QMediaRecorder24metaDataAvailableChangedEb@Base 5.0.1
 _ZN14QMediaRecorder4stopEv@Base 5.0.1
 _ZN14QMediaRecorder5errorENS_5ErrorE@Base 5.0.1
 _ZN14QMediaRecorder5pauseEv@Base 5.0.1
 _ZN14QMediaRecorder6recordEv@Base 5.0.1
 _ZN14QMediaRecorder8setMutedEb@Base 5.0.1
 _ZN14QMediaRecorder9setVolumeEd@Base 5.0.1
 _ZN14QMediaRecorderC1EP12QMediaObjectP7QObject@Base 5.0.1
 _ZN14QMediaRecorderC1ER21QMediaRecorderPrivateP12QMediaObjectP7QObject@Base 5.0.1
 _ZN14QMediaRecorderC2EP12QMediaObjectP7QObject@Base 5.0.1
 _ZN14QMediaRecorderC2ER21QMediaRecorderPrivateP12QMediaObjectP7QObject@Base 5.0.1
 _ZN14QMediaRecorderD0Ev@Base 5.0.1
 _ZN14QMediaRecorderD1Ev@Base 5.0.1
 _ZN14QMediaRecorderD2Ev@Base 5.0.1
 _ZN14QMediaResource11setDataSizeEx@Base 5.0.1
 _ZN14QMediaResource11setLanguageERK7QString@Base 5.0.1
 _ZN14QMediaResource13setAudioCodecERK7QString@Base 5.0.1
 _ZN14QMediaResource13setResolutionERK5QSize@Base 5.0.1
 _ZN14QMediaResource13setResolutionEii@Base 5.0.1
 _ZN14QMediaResource13setSampleRateEi@Base 5.0.1
 _ZN14QMediaResource13setVideoCodecERK7QString@Base 5.0.1
 _ZN14QMediaResource15setAudioBitRateEi@Base 5.0.1
 _ZN14QMediaResource15setChannelCountEi@Base 5.0.1
 _ZN14QMediaResource15setVideoBitRateEi@Base 5.0.1
 _ZN14QMediaResourceC1ERK15QNetworkRequestRK7QString@Base 5.0.1
 _ZN14QMediaResourceC1ERK4QUrlRK7QString@Base 5.0.1
 _ZN14QMediaResourceC1ERKS_@Base 5.0.1
 _ZN14QMediaResourceC1Ev@Base 5.0.1
 _ZN14QMediaResourceC2ERK15QNetworkRequestRK7QString@Base 5.0.1
 _ZN14QMediaResourceC2ERK4QUrlRK7QString@Base 5.0.1
 _ZN14QMediaResourceC2ERKS_@Base 5.0.1
 _ZN14QMediaResourceC2Ev@Base 5.0.1
 _ZN14QMediaResourceD1Ev@Base 5.0.1
 _ZN14QMediaResourceD2Ev@Base 5.0.1
 _ZN14QMediaResourceaSERKS_@Base 5.0.1
 _ZN15QCameraExposure10flashReadyEb@Base 5.0.1
 _ZN15QCameraExposure11qt_metacallEN11QMetaObject4CallEiPPv@Base 5.0.1
 _ZN15QCameraExposure11qt_metacastEPKc@Base 5.0.1
 _ZN15QCameraExposure12setFlashModeE6QFlagsINS_9FlashModeEE@Base 5.0.1
 _ZN15QCameraExposure15apertureChangedEd@Base 5.0.1
 _ZN15QCameraExposure15setAutoApertureEv@Base 5.0.1
 _ZN15QCameraExposure15setExposureModeENS_12ExposureModeE@Base 5.0.1
 _ZN15QCameraExposure15setMeteringModeENS_12MeteringModeE@Base 5.0.1
 _ZN15QCameraExposure16staticMetaObjectE@Base 5.0.1
 _ZN15QCameraExposure17setManualApertureEd@Base 5.0.1
 _ZN15QCameraExposure19setAutoShutterSpeedEv@Base 5.0.1
 _ZN15QCameraExposure19shutterSpeedChangedEd@Base 5.0.1
 _ZN15QCameraExposure20apertureRangeChangedEv@Base 5.0.1
 _ZN15QCameraExposure20setSpotMeteringPointERK7QPointF@Base 5.0.1
 _ZN15QCameraExposure21isoSensitivityChangedEi@Base 5.0.1
 _ZN15QCameraExposure21setAutoIsoSensitivityEv@Base 5.0.1
 _ZN15QCameraExposure21setManualShutterSpeedEd@Base 5.0.1
 _ZN15QCameraExposure23setExposureCompensationEd@Base 5.0.1
 _ZN15QCameraExposure23setManualIsoSensitivityEi@Base 5.0.1
 _ZN15QCameraExposure24shutterSpeedRangeChangedEv@Base 5.0.1
 _ZN15QCameraExposure27exposureCompensationChangedEd@Base 5.0.1
 _ZN15QCameraExposureC1EP7QCamera@Base 5.0.1
 _ZN15QCameraExposureC2EP7QCamera@Base 5.0.1
 _ZN15QCameraExposureD0Ev@Base 5.0.1
 _ZN15QCameraExposureD1Ev@Base 5.0.1
 _ZN15QCameraExposureD2Ev@Base 5.0.1
 _ZN15QMediaTimeRange11addIntervalERK18QMediaTimeInterval@Base 5.0.1
 _ZN15QMediaTimeRange11addIntervalExx@Base 5.0.1
 _ZN15QMediaTimeRange12addTimeRangeERKS_@Base 5.0.1
 _ZN15QMediaTimeRange14removeIntervalERK18QMediaTimeInterval@Base 5.0.1
 _ZN15QMediaTimeRange14removeIntervalExx@Base 5.0.1
 _ZN15QMediaTimeRange15removeTimeRangeERKS_@Base 5.0.1
 _ZN15QMediaTimeRange5clearEv@Base 5.0.1
 _ZN15QMediaTimeRangeC1ERK18QMediaTimeInterval@Base 5.0.1
 _ZN15QMediaTimeRangeC1ERKS_@Base 5.0.1
 _ZN15QMediaTimeRangeC1Ev@Base 5.0.1
 _ZN15QMediaTimeRangeC1Exx@Base 5.0.1
 _ZN15QMediaTimeRangeC2ERK18QMediaTimeInterval@Base 5.0.1
 _ZN15QMediaTimeRangeC2ERKS_@Base 5.0.1
 _ZN15QMediaTimeRangeC2Ev@Base 5.0.1
 _ZN15QMediaTimeRangeC2Exx@Base 5.0.1
 _ZN15QMediaTimeRangeD1Ev@Base 5.0.1
 _ZN15QMediaTimeRangeD2Ev@Base 5.0.1
 _ZN15QMediaTimeRangeaSERK18QMediaTimeInterval@Base 5.0.1
 _ZN15QMediaTimeRangeaSERKS_@Base 5.0.1
 _ZN15QMediaTimeRangemIERK18QMediaTimeInterval@Base 5.0.1
 _ZN15QMediaTimeRangemIERKS_@Base 5.0.1
 _ZN15QMediaTimeRangepLERK18QMediaTimeInterval@Base 5.0.1
 _ZN15QMediaTimeRangepLERKS_@Base 5.0.1
 _ZN16QAudioDeviceInfo16availableDevicesEN6QAudio4ModeE@Base 5.0.1
 _ZN16QAudioDeviceInfo18defaultInputDeviceEv@Base 5.0.1
 _ZN16QAudioDeviceInfo19defaultOutputDeviceEv@Base 5.0.1
 _ZN16QAudioDeviceInfoC1ERK7QStringRK10QByteArrayN6QAudio4ModeE@Base 5.0.1
 _ZN16QAudioDeviceInfoC1ERKS_@Base 5.0.1
 _ZN16QAudioDeviceInfoC1Ev@Base 5.0.1
 _ZN16QAudioDeviceInfoC2ERK7QStringRK10QByteArrayN6QAudio4ModeE@Base 5.0.1
 _ZN16QAudioDeviceInfoC2ERKS_@Base 5.0.1
 _ZN16QAudioDeviceInfoC2Ev@Base 5.0.1
 _ZN16QAudioDeviceInfoD1Ev@Base 5.0.1
 _ZN16QAudioDeviceInfoD2Ev@Base 5.0.1
 _ZN16QAudioDeviceInfoaSERKS_@Base 5.0.1
 _ZN16QCameraFocusZone9setStatusENS_15FocusZoneStatusE@Base 5.0.1
 _ZN16QCameraFocusZoneC1ERK6QRectFNS_15FocusZoneStatusE@Base 5.0.1
 _ZN16QCameraFocusZoneC1ERKS_@Base 5.0.1
 _ZN16QCameraFocusZoneC1Ev@Base 5.0.1
 _ZN16QCameraFocusZoneC2ERK6QRectFNS_15FocusZoneStatusE@Base 5.0.1
 _ZN16QCameraFocusZoneC2ERKS_@Base 5.0.1
 _ZN16QCameraFocusZoneC2Ev@Base 5.0.1
 _ZN16QCameraFocusZoneD1Ev@Base 5.0.1
 _ZN16QCameraFocusZoneD2Ev@Base 5.0.1
 _ZN16QCameraFocusZoneaSERKS_@Base 5.0.1
 _ZN17QImageVideoBuffer3mapEN20QAbstractVideoBuffer7MapModeEPiS2_@Base 5.0.1
 _ZN17QImageVideoBuffer5unmapEv@Base 5.0.1
 _ZN17QImageVideoBufferC1ERK6QImage@Base 5.0.1
 _ZN17QImageVideoBufferC2ERK6QImage@Base 5.0.1
 _ZN17QImageVideoBufferD0Ev@Base 5.0.1
 _ZN17QImageVideoBufferD1Ev@Base 5.0.1
 _ZN17QImageVideoBufferD2Ev@Base 5.0.1
 _ZN17QRadioDataControl11qt_metacallEN11QMetaObject4CallEiPPv@Base 5.0.1
 _ZN17QRadioDataControl11qt_metacastEPKc@Base 5.0.1
 _ZN17QRadioDataControl16radioTextChangedE7QString@Base 5.0.1
 _ZN17QRadioDataControl16staticMetaObjectE@Base 5.0.1
 _ZN17QRadioDataControl16stationIdChangedE7QString@Base 5.0.1
 _ZN17QRadioDataControl18programTypeChangedEN10QRadioData11ProgramTypeE@Base 5.0.1
 _ZN17QRadioDataControl18stationNameChangedE7QString@Base 5.0.1
 _ZN17QRadioDataControl22programTypeNameChangedE7QString@Base 5.0.1
 _ZN17QRadioDataControl36alternativeFrequenciesEnabledChangedEb@Base 5.0.1
 _ZN17QRadioDataControl5errorEN10QRadioData5ErrorE@Base 5.0.1
 _ZN17QRadioDataControlC1EP7QObject@Base 5.0.1
 _ZN17QRadioDataControlC2EP7QObject@Base 5.0.1
 _ZN17QRadioDataControlD0Ev@Base 5.0.1
 _ZN17QRadioDataControlD1Ev@Base 5.0.1
 _ZN17QRadioDataControlD2Ev@Base 5.0.1
 _ZN18QAudioSystemPlugin11qt_metacallEN11QMetaObject4CallEiPPv@Base 5.0.1
 _ZN18QAudioSystemPlugin11qt_metacastEPKc@Base 5.0.1
 _ZN18QAudioSystemPlugin16staticMetaObjectE@Base 5.0.1
 _ZN18QAudioSystemPluginC1EP7QObject@Base 5.0.1
 _ZN18QAudioSystemPluginC2EP7QObject@Base 5.0.1
 _ZN18QAudioSystemPluginD0Ev@Base 5.0.1
 _ZN18QAudioSystemPluginD1Ev@Base 5.0.1
 _ZN18QAudioSystemPluginD2Ev@Base 5.0.1
 _ZN18QCameraZoomControl11qt_metacallEN11QMetaObject4CallEiPPv@Base 5.0.1
 _ZN18QCameraZoomControl11qt_metacastEPKc@Base 5.0.1
 _ZN18QCameraZoomControl16staticMetaObjectE@Base 5.0.1
 _ZN18QCameraZoomControl25currentDigitalZoomChangedEd@Base 5.0.1
 _ZN18QCameraZoomControl25currentOpticalZoomChangedEd@Base 5.0.1
 _ZN18QCameraZoomControl25maximumDigitalZoomChangedEd@Base 5.0.1
 _ZN18QCameraZoomControl25maximumOpticalZoomChangedEd@Base 5.0.1
 _ZN18QCameraZoomControl27requestedDigitalZoomChangedEd@Base 5.0.1
 _ZN18QCameraZoomControl27requestedOpticalZoomChangedEd@Base 5.0.1
 _ZN18QCameraZoomControlC1EP7QObject@Base 5.0.1
 _ZN18QCameraZoomControlC2EP7QObject@Base 5.0.1
 _ZN18QCameraZoomControlD0Ev@Base 5.0.1
 _ZN18QCameraZoomControlD1Ev@Base 5.0.1
 _ZN18QCameraZoomControlD2Ev@Base 5.0.1
 _ZN18QMediaPluginLoader12loadMetadataEv@Base 5.0.1
 _ZN18QMediaPluginLoader8instanceERK7QString@Base 5.0.1
 _ZN18QMediaPluginLoader9instancesERK7QString@Base 5.0.1
 _ZN18QMediaPluginLoaderC1EPKcRK7QStringN2Qt15CaseSensitivityE@Base 5.0.1
 _ZN18QMediaPluginLoaderC2EPKcRK7QStringN2Qt15CaseSensitivityE@Base 5.0.1
 _ZN18QMediaPluginLoaderD1Ev@Base 5.0.1
 _ZN18QMediaPluginLoaderD2Ev@Base 5.0.1
 _ZN18QMediaTimeIntervalC1ERKS_@Base 5.0.1
 _ZN18QMediaTimeIntervalC1Ev@Base 5.0.1
 _ZN18QMediaTimeIntervalC1Exx@Base 5.0.1
 _ZN18QMediaTimeIntervalC2ERKS_@Base 5.0.1
 _ZN18QMediaTimeIntervalC2Ev@Base 5.0.1
 _ZN18QMediaTimeIntervalC2Exx@Base 5.0.1
 _ZN18QMemoryVideoBuffer3mapEN20QAbstractVideoBuffer7MapModeEPiS2_@Base 5.0.1
 _ZN18QMemoryVideoBuffer5unmapEv@Base 5.0.1
 _ZN18QMemoryVideoBufferC1ERK10QByteArrayi@Base 5.0.1
 _ZN18QMemoryVideoBufferC2ERK10QByteArrayi@Base 5.0.1
 _ZN18QMemoryVideoBufferD0Ev@Base 5.0.1
 _ZN18QMemoryVideoBufferD1Ev@Base 5.0.1
 _ZN18QMemoryVideoBufferD2Ev@Base 5.0.1
 _ZN18QRadioTunerControl11bandChangedEN11QRadioTuner4BandE@Base 5.0.1
 _ZN18QRadioTunerControl11qt_metacallEN11QMetaObject4CallEiPPv@Base 5.0.1
 _ZN18QRadioTunerControl11qt_metacastEPKc@Base 5.0.1
 _ZN18QRadioTunerControl12mutedChangedEb@Base 5.0.1
 _ZN18QRadioTunerControl12stateChangedEN11QRadioTuner5StateE@Base 5.0.1
 _ZN18QRadioTunerControl12stationFoundEi7QString@Base 5.0.1
 _ZN18QRadioTunerControl13volumeChangedEi@Base 5.0.1
 _ZN18QRadioTunerControl16frequencyChangedEi@Base 5.0.1
 _ZN18QRadioTunerControl16searchingChangedEb@Base 5.0.1
 _ZN18QRadioTunerControl16staticMetaObjectE@Base 5.0.1
 _ZN18QRadioTunerControl19stereoStatusChangedEb@Base 5.0.1
 _ZN18QRadioTunerControl21signalStrengthChangedEi@Base 5.0.1
 _ZN18QRadioTunerControl23antennaConnectedChangedEb@Base 5.0.1
 _ZN18QRadioTunerControl5errorEN11QRadioTuner5ErrorE@Base 5.0.1
 _ZN18QRadioTunerControlC1EP7QObject@Base 5.0.1
 _ZN18QRadioTunerControlC2EP7QObject@Base 5.0.1
 _ZN18QRadioTunerControlD0Ev@Base 5.0.1
 _ZN18QRadioTunerControlD1Ev@Base 5.0.1
 _ZN18QRadioTunerControlD2Ev@Base 5.0.1
 _ZN19QAbstractAudioInput11qt_metacallEN11QMetaObject4CallEiPPv@Base 5.0.1
 _ZN19QAbstractAudioInput11qt_metacastEPKc@Base 5.0.1
 _ZN19QAbstractAudioInput12errorChangedEN6QAudio5ErrorE@Base 5.0.1
 _ZN19QAbstractAudioInput12stateChangedEN6QAudio5StateE@Base 5.0.1
 _ZN19QAbstractAudioInput16staticMetaObjectE@Base 5.0.1
 _ZN19QAbstractAudioInput6notifyEv@Base 5.0.1
 _ZN19QAbstractAudioInputD0Ev@Base 5.0.1
 _ZN19QAbstractAudioInputD1Ev@Base 5.0.1
 _ZN19QAbstractAudioInputD2Ev@Base 5.0.1
 _ZN19QCameraFlashControl10flashReadyEb@Base 5.0.1
 _ZN19QCameraFlashControl11qt_metacallEN11QMetaObject4CallEiPPv@Base 5.0.1
 _ZN19QCameraFlashControl11qt_metacastEPKc@Base 5.0.1
 _ZN19QCameraFlashControl16staticMetaObjectE@Base 5.0.1
 _ZN19QCameraFlashControlC1EP7QObject@Base 5.0.1
 _ZN19QCameraFlashControlC2EP7QObject@Base 5.0.1
 _ZN19QCameraFlashControlD0Ev@Base 5.0.1
 _ZN19QCameraFlashControlD1Ev@Base 5.0.1
 _ZN19QCameraFlashControlD2Ev@Base 5.0.1
 _ZN19QCameraFocusControl11qt_metacallEN11QMetaObject4CallEiPPv@Base 5.0.1
 _ZN19QCameraFocusControl11qt_metacastEPKc@Base 5.0.1
 _ZN19QCameraFocusControl16focusModeChangedE6QFlagsIN12QCameraFocus9FocusModeEE@Base 5.0.1
 _ZN19QCameraFocusControl16staticMetaObjectE@Base 5.0.1
 _ZN19QCameraFocusControl17focusZonesChangedEv@Base 5.0.1
 _ZN19QCameraFocusControl21focusPointModeChangedEN12QCameraFocus14FocusPointModeE@Base 5.0.1
 _ZN19QCameraFocusControl23customFocusPointChangedERK7QPointF@Base 5.0.1
 _ZN19QCameraFocusControlC1EP7QObject@Base 5.0.1
 _ZN19QCameraFocusControlC2EP7QObject@Base 5.0.1
 _ZN19QCameraFocusControlD0Ev@Base 5.0.1
 _ZN19QCameraFocusControlD1Ev@Base 5.0.1
 _ZN19QCameraFocusControlD2Ev@Base 5.0.1
 _ZN19QCameraImageCapture10imageSavedEiRK7QString@Base 5.0.1
 _ZN19QCameraImageCapture11qt_metacallEN11QMetaObject4CallEiPPv@Base 5.0.1
 _ZN19QCameraImageCapture11qt_metacastEPKc@Base 5.0.1
 _ZN19QCameraImageCapture12imageExposedEi@Base 5.0.1
 _ZN19QCameraImageCapture13cancelCaptureEv@Base 5.0.1
 _ZN19QCameraImageCapture13imageCapturedEiRK6QImage@Base 5.0.1
 _ZN19QCameraImageCapture14imageAvailableEiRK11QVideoFrame@Base 5.0.1
 _ZN19QCameraImageCapture14setMediaObjectEP12QMediaObject@Base 5.0.1
 _ZN19QCameraImageCapture15setBufferFormatEN11QVideoFrame11PixelFormatE@Base 5.0.1
 _ZN19QCameraImageCapture16staticMetaObjectE@Base 5.0.1
 _ZN19QCameraImageCapture19bufferFormatChangedEN11QVideoFrame11PixelFormatE@Base 5.0.1
 _ZN19QCameraImageCapture19setEncodingSettingsERK21QImageEncoderSettings@Base 5.0.1
 _ZN19QCameraImageCapture21setCaptureDestinationE6QFlagsINS_18CaptureDestinationEE@Base 5.0.1
 _ZN19QCameraImageCapture22imageMetadataAvailableEiRK7QStringRK8QVariant@Base 5.0.1
 _ZN19QCameraImageCapture22readyForCaptureChangedEb@Base 5.0.1
 _ZN19QCameraImageCapture25captureDestinationChangedE6QFlagsINS_18CaptureDestinationEE@Base 5.0.1
 _ZN19QCameraImageCapture5errorEiNS_5ErrorERK7QString@Base 5.0.1
 _ZN19QCameraImageCapture7captureERK7QString@Base 5.0.1
 _ZN19QCameraImageCaptureC1EP12QMediaObjectP7QObject@Base 5.0.1
 _ZN19QCameraImageCaptureC2EP12QMediaObjectP7QObject@Base 5.0.1
 _ZN19QCameraImageCaptureD0Ev@Base 5.0.1
 _ZN19QCameraImageCaptureD1Ev@Base 5.0.1
 _ZN19QCameraImageCaptureD2Ev@Base 5.0.1
 _ZN19QCameraLocksControl11qt_metacallEN11QMetaObject4CallEiPPv@Base 5.0.1
 _ZN19QCameraLocksControl11qt_metacastEPKc@Base 5.0.1
 _ZN19QCameraLocksControl16staticMetaObjectE@Base 5.0.1
 _ZN19QCameraLocksControl17lockStatusChangedEN7QCamera8LockTypeENS0_10LockStatusENS0_16LockChangeReasonE@Base 5.0.1
 _ZN19QCameraLocksControlC1EP7QObject@Base 5.0.1
 _ZN19QCameraLocksControlC2EP7QObject@Base 5.0.1
 _ZN19QCameraLocksControlD0Ev@Base 5.0.1
 _ZN19QCameraLocksControlD1Ev@Base 5.0.1
 _ZN19QCameraLocksControlD2Ev@Base 5.0.1
 _ZN19QMediaPlayerControl11qt_metacallEN11QMetaObject4CallEiPPv@Base 5.0.1
 _ZN19QMediaPlayerControl11qt_metacastEPKc@Base 5.0.1
 _ZN19QMediaPlayerControl12mediaChangedERK13QMediaContent@Base 5.0.1
 _ZN19QMediaPlayerControl12mutedChangedEb@Base 5.0.1
 _ZN19QMediaPlayerControl12stateChangedEN12QMediaPlayer5StateE@Base 5.0.1
 _ZN19QMediaPlayerControl13volumeChangedEi@Base 5.0.1
 _ZN19QMediaPlayerControl15durationChangedEx@Base 5.0.1
 _ZN19QMediaPlayerControl15positionChangedEx@Base 5.0.1
 _ZN19QMediaPlayerControl15seekableChangedEb@Base 5.0.1
 _ZN19QMediaPlayerControl16staticMetaObjectE@Base 5.0.1
 _ZN19QMediaPlayerControl18mediaStatusChangedEN12QMediaPlayer11MediaStatusE@Base 5.0.1
 _ZN19QMediaPlayerControl19bufferStatusChangedEi@Base 5.0.1
 _ZN19QMediaPlayerControl19playbackRateChangedEd@Base 5.0.1
 _ZN19QMediaPlayerControl21audioAvailableChangedEb@Base 5.0.1
 _ZN19QMediaPlayerControl21videoAvailableChangedEb@Base 5.0.1
 _ZN19QMediaPlayerControl30availablePlaybackRangesChangedERK15QMediaTimeRange@Base 5.0.1
 _ZN19QMediaPlayerControl5errorEiRK7QString@Base 5.0.1
 _ZN19QMediaPlayerControlC1EP7QObject@Base 5.0.1
 _ZN19QMediaPlayerControlC2EP7QObject@Base 5.0.1
 _ZN19QMediaPlayerControlD0Ev@Base 5.0.1
 _ZN19QMediaPlayerControlD1Ev@Base 5.0.1
 _ZN19QMediaPlayerControlD2Ev@Base 5.0.1
 _ZN19QPlaylistFileParser11qt_metacallEN11QMetaObject4CallEiPPv@Base 5.0.1
 _ZN19QPlaylistFileParser11qt_metacastEPKc@Base 5.0.1
 _ZN19QPlaylistFileParser16findPlaylistTypeERK7QStringS2_PKvj@Base 5.0.1
 _ZN19QPlaylistFileParser16staticMetaObjectE@Base 5.0.1
 _ZN19QPlaylistFileParser4stopEv@Base 5.0.1
 _ZN19QPlaylistFileParser5errorENS_11ParserErrorERK7QString@Base 5.0.1
 _ZN19QPlaylistFileParser5startERK15QNetworkRequestb@Base 5.0.1
 _ZN19QPlaylistFileParser7newItemERK8QVariant@Base 5.0.1
 _ZN19QPlaylistFileParser8finishedEv@Base 5.0.1
 _ZN19QPlaylistFileParserC1EP7QObject@Base 5.0.1
 _ZN19QPlaylistFileParserC2EP7QObject@Base 5.0.1
 _ZN19QPlaylistFileParserD0Ev@Base 5.0.1
 _ZN19QPlaylistFileParserD1Ev@Base 5.0.1
 _ZN19QPlaylistFileParserD2Ev@Base 5.0.1
 _ZN19QVideoSurfaceFormat11setPropertyEPKcRK8QVariant@Base 5.0.1
 _ZN19QVideoSurfaceFormat11setViewportERK5QRect@Base 5.0.1
 _ZN19QVideoSurfaceFormat12setFrameRateEd@Base 5.0.1
 _ZN19QVideoSurfaceFormat12setFrameSizeERK5QSize@Base 5.0.1
 _ZN19QVideoSurfaceFormat12setFrameSizeEii@Base 5.0.1
 _ZN19QVideoSurfaceFormat18setYCbCrColorSpaceENS_15YCbCrColorSpaceE@Base 5.0.1
 _ZN19QVideoSurfaceFormat19setPixelAspectRatioERK5QSize@Base 5.0.1
 _ZN19QVideoSurfaceFormat19setPixelAspectRatioEii@Base 5.0.1
 _ZN19QVideoSurfaceFormat20setScanLineDirectionENS_9DirectionE@Base 5.0.1
 _ZN19QVideoSurfaceFormatC1ERK5QSizeN11QVideoFrame11PixelFormatEN20QAbstractVideoBuffer10HandleTypeE@Base 5.0.1
 _ZN19QVideoSurfaceFormatC1ERKS_@Base 5.0.1
 _ZN19QVideoSurfaceFormatC1Ev@Base 5.0.1
 _ZN19QVideoSurfaceFormatC2ERK5QSizeN11QVideoFrame11PixelFormatEN20QAbstractVideoBuffer10HandleTypeE@Base 5.0.1
 _ZN19QVideoSurfaceFormatC2ERKS_@Base 5.0.1
 _ZN19QVideoSurfaceFormatC2Ev@Base 5.0.1
 _ZN19QVideoSurfaceFormatD1Ev@Base 5.0.1
 _ZN19QVideoSurfaceFormatD2Ev@Base 5.0.1
 _ZN19QVideoSurfaceFormataSERKS_@Base 5.0.1
 _ZN19QVideoWindowControl10hueChangedEi@Base 5.0.1
 _ZN19QVideoWindowControl11qt_metacallEN11QMetaObject4CallEiPPv@Base 5.0.1
 _ZN19QVideoWindowControl11qt_metacastEPKc@Base 5.0.1
 _ZN19QVideoWindowControl15contrastChangedEi@Base 5.0.1
 _ZN19QVideoWindowControl16staticMetaObjectE@Base 5.0.1
 _ZN19QVideoWindowControl17brightnessChangedEi@Base 5.0.1
 _ZN19QVideoWindowControl17fullScreenChangedEb@Base 5.0.1
 _ZN19QVideoWindowControl17nativeSizeChangedEv@Base 5.0.1
 _ZN19QVideoWindowControl17saturationChangedEi@Base 5.0.1
 _ZN19QVideoWindowControlC1EP7QObject@Base 5.0.1
 _ZN19QVideoWindowControlC2EP7QObject@Base 5.0.1
 _ZN19QVideoWindowControlD0Ev@Base 5.0.1
 _ZN19QVideoWindowControlD1Ev@Base 5.0.1
 _ZN19QVideoWindowControlD2Ev@Base 5.0.1
 _ZN20QAbstractAudioOutput11qt_metacallEN11QMetaObject4CallEiPPv@Base 5.0.1
 _ZN20QAbstractAudioOutput11qt_metacastEPKc@Base 5.0.1
 _ZN20QAbstractAudioOutput12errorChangedEN6QAudio5ErrorE@Base 5.0.1
 _ZN20QAbstractAudioOutput12stateChangedEN6QAudio5StateE@Base 5.0.1
 _ZN20QAbstractAudioOutput16staticMetaObjectE@Base 5.0.1
 _ZN20QAbstractAudioOutput6notifyEv@Base 5.0.1
 _ZN20QAbstractAudioOutputD0Ev@Base 5.0.1
 _ZN20QAbstractAudioOutputD1Ev@Base 5.0.1
 _ZN20QAbstractAudioOutputD2Ev@Base 5.0.1
 _ZN20QAbstractVideoBuffer7releaseEv@Base 5.0.1
 _ZN20QAbstractVideoBufferC1ENS_10HandleTypeE@Base 5.0.1
 _ZN20QAbstractVideoBufferC1ER27QAbstractVideoBufferPrivateNS_10HandleTypeE@Base 5.0.1
 _ZN20QAbstractVideoBufferC2ENS_10HandleTypeE@Base 5.0.1
 _ZN20QAbstractVideoBufferC2ER27QAbstractVideoBufferPrivateNS_10HandleTypeE@Base 5.0.1
 _ZN20QAbstractVideoBufferD0Ev@Base 5.0.1
 _ZN20QAbstractVideoBufferD1Ev@Base 5.0.1
 _ZN20QAbstractVideoBufferD2Ev@Base 5.0.1
 _ZN20QAudioDecoderControl11bufferReadyEv@Base 5.0.1
 _ZN20QAudioDecoderControl11qt_metacallEN11QMetaObject4CallEiPPv@Base 5.0.1
 _ZN20QAudioDecoderControl11qt_metacastEPKc@Base 5.0.1
 _ZN20QAudioDecoderControl12stateChangedEN13QAudioDecoder5StateE@Base 5.0.1
 _ZN20QAudioDecoderControl13formatChangedERK12QAudioFormat@Base 5.0.1
 _ZN20QAudioDecoderControl13sourceChangedEv@Base 5.0.1
 _ZN20QAudioDecoderControl15durationChangedEx@Base 5.0.1
 _ZN20QAudioDecoderControl15positionChangedEx@Base 5.0.1
 _ZN20QAudioDecoderControl16staticMetaObjectE@Base 5.0.1
 _ZN20QAudioDecoderControl22bufferAvailableChangedEb@Base 5.0.1
 _ZN20QAudioDecoderControl5errorEiRK7QString@Base 5.0.1
 _ZN20QAudioDecoderControl8finishedEv@Base 5.0.1
 _ZN20QAudioDecoderControlC1EP7QObject@Base 5.0.1
 _ZN20QAudioDecoderControlC2EP7QObject@Base 5.0.1
 _ZN20QAudioDecoderControlD0Ev@Base 5.0.1
 _ZN20QAudioDecoderControlD1Ev@Base 5.0.1
 _ZN20QAudioDecoderControlD2Ev@Base 5.0.1
 _ZN20QAudioHelperInternal16qMultiplySamplesEdRK12QAudioFormatPKvPvi@Base 5.0.1
 _ZN20QImageEncoderControl11qt_metacallEN11QMetaObject4CallEiPPv@Base 5.0.1
 _ZN20QImageEncoderControl11qt_metacastEPKc@Base 5.0.1
 _ZN20QImageEncoderControl16staticMetaObjectE@Base 5.0.1
 _ZN20QImageEncoderControlC1EP7QObject@Base 5.0.1
 _ZN20QImageEncoderControlC2EP7QObject@Base 5.0.1
 _ZN20QImageEncoderControlD0Ev@Base 5.0.1
 _ZN20QImageEncoderControlD1Ev@Base 5.0.1
 _ZN20QImageEncoderControlD2Ev@Base 5.0.1
 _ZN20QMediaPlaylistReaderD0Ev@Base 5.0.1
 _ZN20QMediaPlaylistReaderD1Ev@Base 5.0.1
 _ZN20QMediaPlaylistReaderD2Ev@Base 5.0.1
 _ZN20QMediaPlaylistWriterD0Ev@Base 5.0.1
 _ZN20QMediaPlaylistWriterD1Ev@Base 5.0.1
 _ZN20QMediaPlaylistWriterD2Ev@Base 5.0.1
 _ZN20QMediaResourcePolicy17createResourceSetERK7QString@Base 5.0.1
 _ZN20QMediaResourcePolicy18destroyResourceSetEP7QObject@Base 5.0.1
 _ZN20QMediaStreamsControl11qt_metacallEN11QMetaObject4CallEiPPv@Base 5.0.1
 _ZN20QMediaStreamsControl11qt_metacastEPKc@Base 5.0.1
 _ZN20QMediaStreamsControl14streamsChangedEv@Base 5.0.1
 _ZN20QMediaStreamsControl16staticMetaObjectE@Base 5.0.1
 _ZN20QMediaStreamsControl20activeStreamsChangedEv@Base 5.0.1
 _ZN20QMediaStreamsControlC1EP7QObject@Base 5.0.1
 _ZN20QMediaStreamsControlC2EP7QObject@Base 5.0.1
 _ZN20QMediaStreamsControlD0Ev@Base 5.0.1
 _ZN20QMediaStreamsControlD1Ev@Base 5.0.1
 _ZN20QMediaStreamsControlD2Ev@Base 5.0.1
 _ZN21QAbstractVideoSurface11qt_metacallEN11QMetaObject4CallEiPPv@Base 5.0.1
 _ZN21QAbstractVideoSurface11qt_metacastEPKc@Base 5.0.1
 _ZN21QAbstractVideoSurface13activeChangedEb@Base 5.0.1
 _ZN21QAbstractVideoSurface16staticMetaObjectE@Base 5.0.1
 _ZN21QAbstractVideoSurface19setNativeResolutionERK5QSize@Base 5.0.1
 _ZN21QAbstractVideoSurface20surfaceFormatChangedERK19QVideoSurfaceFormat@Base 5.0.1
 _ZN21QAbstractVideoSurface23nativeResolutionChangedERK5QSize@Base 5.0.1
 _ZN21QAbstractVideoSurface23supportedFormatsChangedEv@Base 5.0.1
 _ZN21QAbstractVideoSurface4stopEv@Base 5.0.1
 _ZN21QAbstractVideoSurface5startERK19QVideoSurfaceFormat@Base 5.0.1
 _ZN21QAbstractVideoSurface8setErrorENS_5ErrorE@Base 5.0.1
 _ZN21QAbstractVideoSurfaceC1EP7QObject@Base 5.0.1
 _ZN21QAbstractVideoSurfaceC2EP7QObject@Base 5.0.1
 _ZN21QAbstractVideoSurfaceD0Ev@Base 5.0.1
 _ZN21QAbstractVideoSurfaceD1Ev@Base 5.0.1
 _ZN21QAbstractVideoSurfaceD2Ev@Base 5.0.1
 _ZN21QAudioEncoderSettings10setBitRateEi@Base 5.0.1
 _ZN21QAudioEncoderSettings10setQualityEN11QMultimedia15EncodingQualityE@Base 5.0.1
 _ZN21QAudioEncoderSettings13setSampleRateEi@Base 5.0.1
 _ZN21QAudioEncoderSettings15setChannelCountEi@Base 5.0.1
 _ZN21QAudioEncoderSettings15setEncodingModeEN11QMultimedia12EncodingModeE@Base 5.0.1
 _ZN21QAudioEncoderSettings17setEncodingOptionERK7QStringRK8QVariant@Base 5.0.1
 _ZN21QAudioEncoderSettings18setEncodingOptionsERK4QMapI7QString8QVariantE@Base 5.0.1
 _ZN21QAudioEncoderSettings8setCodecERK7QString@Base 5.0.1
 _ZN21QAudioEncoderSettingsC1ERKS_@Base 5.0.1
 _ZN21QAudioEncoderSettingsC1Ev@Base 5.0.1
 _ZN21QAudioEncoderSettingsC2ERKS_@Base 5.0.1
 _ZN21QAudioEncoderSettingsC2Ev@Base 5.0.1
 _ZN21QAudioEncoderSettingsD1Ev@Base 5.0.1
 _ZN21QAudioEncoderSettingsD2Ev@Base 5.0.1
 _ZN21QAudioEncoderSettingsaSERKS_@Base 5.0.1
 _ZN21QImageEncoderSettings10setQualityEN11QMultimedia15EncodingQualityE@Base 5.0.1
 _ZN21QImageEncoderSettings13setResolutionERK5QSize@Base 5.0.1
 _ZN21QImageEncoderSettings13setResolutionEii@Base 5.0.1
 _ZN21QImageEncoderSettings17setEncodingOptionERK7QStringRK8QVariant@Base 5.0.1
 _ZN21QImageEncoderSettings18setEncodingOptionsERK4QMapI7QString8QVariantE@Base 5.0.1
 _ZN21QImageEncoderSettings8setCodecERK7QString@Base 5.0.1
 _ZN21QImageEncoderSettingsC1ERKS_@Base 5.0.1
 _ZN21QImageEncoderSettingsC1Ev@Base 5.0.1
 _ZN21QImageEncoderSettingsC2ERKS_@Base 5.0.1
 _ZN21QImageEncoderSettingsC2Ev@Base 5.0.1
 _ZN21QImageEncoderSettingsD1Ev@Base 5.0.1
 _ZN21QImageEncoderSettingsD2Ev@Base 5.0.1
 _ZN21QImageEncoderSettingsaSERKS_@Base 5.0.1
 _ZN21QMediaPlaylistControl11qt_metacallEN11QMetaObject4CallEiPPv@Base 5.0.1
 _ZN21QMediaPlaylistControl11qt_metacastEPKc@Base 5.0.1
 _ZN21QMediaPlaylistControl16staticMetaObjectE@Base 5.0.1
 _ZN21QMediaPlaylistControl19currentIndexChangedEi@Base 5.0.1
 _ZN21QMediaPlaylistControl19currentMediaChangedERK13QMediaContent@Base 5.0.1
 _ZN21QMediaPlaylistControl19playbackModeChangedEN14QMediaPlaylist12PlaybackModeE@Base 5.0.1
 _ZN21QMediaPlaylistControl23playlistProviderChangedEv@Base 5.0.1
 _ZN21QMediaPlaylistControlC1EP7QObject@Base 5.0.1
 _ZN21QMediaPlaylistControlC2EP7QObject@Base 5.0.1
 _ZN21QMediaPlaylistControlD0Ev@Base 5.0.1
 _ZN21QMediaPlaylistControlD1Ev@Base 5.0.1
 _ZN21QMediaPlaylistControlD2Ev@Base 5.0.1
 _ZN21QMediaRecorderControl11qt_metacallEN11QMetaObject4CallEiPPv@Base 5.0.1
 _ZN21QMediaRecorderControl11qt_metacastEPKc@Base 5.0.1
 _ZN21QMediaRecorderControl12mutedChangedEb@Base 5.0.1
 _ZN21QMediaRecorderControl12stateChangedEN14QMediaRecorder5StateE@Base 5.0.1
 _ZN21QMediaRecorderControl13statusChangedEN14QMediaRecorder6StatusE@Base 5.0.1
 _ZN21QMediaRecorderControl13volumeChangedEd@Base 5.0.1
 _ZN21QMediaRecorderControl15durationChangedEx@Base 5.0.1
 _ZN21QMediaRecorderControl16staticMetaObjectE@Base 5.0.1
 _ZN21QMediaRecorderControl21actualLocationChangedERK4QUrl@Base 5.0.1
 _ZN21QMediaRecorderControl5errorEiRK7QString@Base 5.0.1
 _ZN21QMediaRecorderControlC1EP7QObject@Base 5.0.1
 _ZN21QMediaRecorderControlC2EP7QObject@Base 5.0.1
 _ZN21QMediaRecorderControlD0Ev@Base 5.0.1
 _ZN21QMediaRecorderControlD1Ev@Base 5.0.1
 _ZN21QMediaRecorderControlD2Ev@Base 5.0.1
 _ZN21QMediaServiceProvider11qt_metacallEN11QMetaObject4CallEiPPv@Base 5.0.1
 _ZN21QMediaServiceProvider11qt_metacastEPKc@Base 5.0.1
 _ZN21QMediaServiceProvider16staticMetaObjectE@Base 5.0.1
 _ZN21QMediaServiceProvider17deviceDescriptionERK10QByteArrayS2_@Base 5.0.1
 _ZN21QMediaServiceProvider22defaultServiceProviderEv@Base 5.0.1
 _ZN21QMediaServiceProvider25setDefaultServiceProviderEPS_@Base 5.0.1
 _ZN21QMediaServiceProviderD0Ev@Base 5.0.1
 _ZN21QMediaServiceProviderD1Ev@Base 5.0.1
 _ZN21QMediaServiceProviderD2Ev@Base 5.0.1
 _ZN21QVideoEncoderSettings10setBitRateEi@Base 5.0.1
 _ZN21QVideoEncoderSettings10setQualityEN11QMultimedia15EncodingQualityE@Base 5.0.1
 _ZN21QVideoEncoderSettings12setFrameRateEd@Base 5.0.1
 _ZN21QVideoEncoderSettings13setResolutionERK5QSize@Base 5.0.1
 _ZN21QVideoEncoderSettings13setResolutionEii@Base 5.0.1
 _ZN21QVideoEncoderSettings15setEncodingModeEN11QMultimedia12EncodingModeE@Base 5.0.1
 _ZN21QVideoEncoderSettings17setEncodingOptionERK7QStringRK8QVariant@Base 5.0.1
 _ZN21QVideoEncoderSettings18setEncodingOptionsERK4QMapI7QString8QVariantE@Base 5.0.1
 _ZN21QVideoEncoderSettings8setCodecERK7QString@Base 5.0.1
 _ZN21QVideoEncoderSettingsC1ERKS_@Base 5.0.1
 _ZN21QVideoEncoderSettingsC1Ev@Base 5.0.1
 _ZN21QVideoEncoderSettingsC2ERKS_@Base 5.0.1
 _ZN21QVideoEncoderSettingsC2Ev@Base 5.0.1
 _ZN21QVideoEncoderSettingsD1Ev@Base 5.0.1
 _ZN21QVideoEncoderSettingsD2Ev@Base 5.0.1
 _ZN21QVideoEncoderSettingsaSERKS_@Base 5.0.1
 _ZN21QVideoRendererControl11qt_metacallEN11QMetaObject4CallEiPPv@Base 5.0.1
 _ZN21QVideoRendererControl11qt_metacastEPKc@Base 5.0.1
 _ZN21QVideoRendererControl16staticMetaObjectE@Base 5.0.1
 _ZN21QVideoRendererControlC1EP7QObject@Base 5.0.1
 _ZN21QVideoRendererControlC2EP7QObject@Base 5.0.1
 _ZN21QVideoRendererControlD0Ev@Base 5.0.1
 _ZN21QVideoRendererControlD1Ev@Base 5.0.1
 _ZN21QVideoRendererControlD2Ev@Base 5.0.1
 _ZN22QCameraExposureControl11qt_metacallEN11QMetaObject4CallEiPPv@Base 5.0.1
 _ZN22QCameraExposureControl11qt_metacastEPKc@Base 5.0.1
 _ZN22QCameraExposureControl16staticMetaObjectE@Base 5.0.1
 _ZN22QCameraExposureControl18actualValueChangedEi@Base 5.0.1
 _ZN22QCameraExposureControl21parameterRangeChangedEi@Base 5.0.1
 _ZN22QCameraExposureControl21requestedValueChangedEi@Base 5.0.1
 _ZN22QCameraExposureControlC1EP7QObject@Base 5.0.1
 _ZN22QCameraExposureControlC2EP7QObject@Base 5.0.1
 _ZN22QCameraExposureControlD0Ev@Base 5.0.1
 _ZN22QCameraExposureControlD1Ev@Base 5.0.1
 _ZN22QCameraExposureControlD2Ev@Base 5.0.1
 _ZN22QCameraFeedbackControl11qt_metacallEN11QMetaObject4CallEiPPv@Base 5.0.1
 _ZN22QCameraFeedbackControl11qt_metacastEPKc@Base 5.0.1
 _ZN22QCameraFeedbackControl16staticMetaObjectE@Base 5.0.1
 _ZN22QCameraFeedbackControlC1EP7QObject@Base 5.0.1
 _ZN22QCameraFeedbackControlC2EP7QObject@Base 5.0.1
 _ZN22QCameraFeedbackControlD0Ev@Base 5.0.1
 _ZN22QCameraFeedbackControlD1Ev@Base 5.0.1
 _ZN22QCameraFeedbackControlD2Ev@Base 5.0.1
 _ZN22QCameraImageProcessing11qt_metacallEN11QMetaObject4CallEiPPv@Base 5.0.1
 _ZN22QCameraImageProcessing11qt_metacastEPKc@Base 5.0.1
 _ZN22QCameraImageProcessing11setContrastEd@Base 5.0.1
 _ZN22QCameraImageProcessing13setSaturationEd@Base 5.0.1
 _ZN22QCameraImageProcessing16staticMetaObjectE@Base 5.0.1
 _ZN22QCameraImageProcessing17setDenoisingLevelEd@Base 5.0.1
 _ZN22QCameraImageProcessing18setSharpeningLevelEd@Base 5.0.1
 _ZN22QCameraImageProcessing19setWhiteBalanceModeENS_16WhiteBalanceModeE@Base 5.0.1
 _ZN22QCameraImageProcessing21setManualWhiteBalanceEd@Base 5.0.1
 _ZN22QCameraImageProcessingC1EP7QCamera@Base 5.0.1
 _ZN22QCameraImageProcessingC2EP7QCamera@Base 5.0.1
 _ZN22QCameraImageProcessingD0Ev@Base 5.0.1
 _ZN22QCameraImageProcessingD1Ev@Base 5.0.1
 _ZN22QCameraImageProcessingD2Ev@Base 5.0.1
 _ZN22QMediaContainerControl11qt_metacallEN11QMetaObject4CallEiPPv@Base 5.0.1
 _ZN22QMediaContainerControl11qt_metacastEPKc@Base 5.0.1
 _ZN22QMediaContainerControl16staticMetaObjectE@Base 5.0.1
 _ZN22QMediaContainerControlC1EP7QObject@Base 5.0.1
 _ZN22QMediaContainerControlC2EP7QObject@Base 5.0.1
 _ZN22QMediaContainerControlD0Ev@Base 5.0.1
 _ZN22QMediaContainerControlD1Ev@Base 5.0.1
 _ZN22QMediaContainerControlD2Ev@Base 5.0.1
 _ZN22QMediaPlaylistIOPlugin11qt_metacallEN11QMetaObject4CallEiPPv@Base 5.0.1
 _ZN22QMediaPlaylistIOPlugin11qt_metacastEPKc@Base 5.0.1
 _ZN22QMediaPlaylistIOPlugin16staticMetaObjectE@Base 5.0.1
 _ZN22QMediaPlaylistIOPluginC1EP7QObject@Base 5.0.1
 _ZN22QMediaPlaylistIOPluginC2EP7QObject@Base 5.0.1
 _ZN22QMediaPlaylistIOPluginD0Ev@Base 5.0.1
 _ZN22QMediaPlaylistIOPluginD1Ev@Base 5.0.1
 _ZN22QMediaPlaylistIOPluginD2Ev@Base 5.0.1
 _ZN22QMediaPlaylistProvider10loadFailedEN14QMediaPlaylist5ErrorERK7QString@Base 5.0.1
 _ZN22QMediaPlaylistProvider11insertMediaEiRK13QMediaContent@Base 5.0.1
 _ZN22QMediaPlaylistProvider11insertMediaEiRK5QListI13QMediaContentE@Base 5.0.1
 _ZN22QMediaPlaylistProvider11qt_metacallEN11QMetaObject4CallEiPPv@Base 5.0.1
 _ZN22QMediaPlaylistProvider11qt_metacastEPKc@Base 5.0.1
 _ZN22QMediaPlaylistProvider11removeMediaEi@Base 5.0.1
 _ZN22QMediaPlaylistProvider11removeMediaEii@Base 5.0.1
 _ZN22QMediaPlaylistProvider12mediaChangedEii@Base 5.0.1
 _ZN22QMediaPlaylistProvider12mediaRemovedEii@Base 5.0.1
 _ZN22QMediaPlaylistProvider13mediaInsertedEii@Base 5.0.1
 _ZN22QMediaPlaylistProvider16staticMetaObjectE@Base 5.0.1
 _ZN22QMediaPlaylistProvider21mediaAboutToBeRemovedEii@Base 5.0.1
 _ZN22QMediaPlaylistProvider22mediaAboutToBeInsertedEii@Base 5.0.1
 _ZN22QMediaPlaylistProvider4loadEP9QIODevicePKc@Base 5.0.1
 _ZN22QMediaPlaylistProvider4loadERK15QNetworkRequestPKc@Base 5.0.1
 _ZN22QMediaPlaylistProvider4saveEP9QIODevicePKc@Base 5.0.1
 _ZN22QMediaPlaylistProvider4saveERK4QUrlPKc@Base 5.0.1
 _ZN22QMediaPlaylistProvider5clearEv@Base 5.0.1
 _ZN22QMediaPlaylistProvider6loadedEv@Base 5.0.1
 _ZN22QMediaPlaylistProvider7shuffleEv@Base 5.0.1
 _ZN22QMediaPlaylistProvider8addMediaERK13QMediaContent@Base 5.0.1
 _ZN22QMediaPlaylistProvider8addMediaERK5QListI13QMediaContentE@Base 5.0.1
 _ZN22QMediaPlaylistProviderC1EP7QObject@Base 5.0.1
 _ZN22QMediaPlaylistProviderC1ER29QMediaPlaylistProviderPrivateP7QObject@Base 5.0.1
 _ZN22QMediaPlaylistProviderC2EP7QObject@Base 5.0.1
 _ZN22QMediaPlaylistProviderC2ER29QMediaPlaylistProviderPrivateP7QObject@Base 5.0.1
 _ZN22QMediaPlaylistProviderD0Ev@Base 5.0.1
 _ZN22QMediaPlaylistProviderD1Ev@Base 5.0.1
 _ZN22QMediaPlaylistProviderD2Ev@Base 5.0.1
 _ZN22QMetaDataReaderControl11qt_metacallEN11QMetaObject4CallEiPPv@Base 5.0.1
 _ZN22QMetaDataReaderControl11qt_metacastEPKc@Base 5.0.1
 _ZN22QMetaDataReaderControl15metaDataChangedERK7QStringRK8QVariant@Base 5.0.1
 _ZN22QMetaDataReaderControl15metaDataChangedEv@Base 5.0.1
 _ZN22QMetaDataReaderControl16staticMetaObjectE@Base 5.0.1
 _ZN22QMetaDataReaderControl24metaDataAvailableChangedEb@Base 5.0.1
 _ZN22QMetaDataReaderControlC1EP7QObject@Base 5.0.1
 _ZN22QMetaDataReaderControlC2EP7QObject@Base 5.0.1
 _ZN22QMetaDataReaderControlD0Ev@Base 5.0.1
 _ZN22QMetaDataReaderControlD1Ev@Base 5.0.1
 _ZN22QMetaDataReaderControlD2Ev@Base 5.0.1
 _ZN22QMetaDataWriterControl11qt_metacallEN11QMetaObject4CallEiPPv@Base 5.0.1
 _ZN22QMetaDataWriterControl11qt_metacastEPKc@Base 5.0.1
 _ZN22QMetaDataWriterControl15metaDataChangedERK7QStringRK8QVariant@Base 5.0.1
 _ZN22QMetaDataWriterControl15metaDataChangedEv@Base 5.0.1
 _ZN22QMetaDataWriterControl15writableChangedEb@Base 5.0.1
 _ZN22QMetaDataWriterControl16staticMetaObjectE@Base 5.0.1
 _ZN22QMetaDataWriterControl24metaDataAvailableChangedEb@Base 5.0.1
 _ZN22QMetaDataWriterControlC1EP7QObject@Base 5.0.1
 _ZN22QMetaDataWriterControlC2EP7QObject@Base 5.0.1
 _ZN22QMetaDataWriterControlD0Ev@Base 5.0.1
 _ZN22QMetaDataWriterControlD1Ev@Base 5.0.1
 _ZN22QMetaDataWriterControlD2Ev@Base 5.0.1
 _ZN23QMediaAudioProbeControl11qt_metacallEN11QMetaObject4CallEiPPv@Base 5.0.1
 _ZN23QMediaAudioProbeControl11qt_metacastEPKc@Base 5.0.1
 _ZN23QMediaAudioProbeControl16staticMetaObjectE@Base 5.0.1
 _ZN23QMediaAudioProbeControl17audioBufferProbedERK12QAudioBuffer@Base 5.0.1
 _ZN23QMediaAudioProbeControl5flushEv@Base 5.0.1
 _ZN23QMediaAudioProbeControlC1EP7QObject@Base 5.0.1
 _ZN23QMediaAudioProbeControlC2EP7QObject@Base 5.0.1
 _ZN23QMediaAudioProbeControlD0Ev@Base 5.0.1
 _ZN23QMediaAudioProbeControlD1Ev@Base 5.0.1
 _ZN23QMediaAudioProbeControlD2Ev@Base 5.0.1
 _ZN23QMediaBindableInterfaceD0Ev@Base 5.0.1
 _ZN23QMediaBindableInterfaceD1Ev@Base 5.0.1
 _ZN23QMediaBindableInterfaceD2Ev@Base 5.0.1
 _ZN23QMediaPlaylistNavigator11qt_metacallEN11QMetaObject4CallEiPPv@Base 5.0.1
 _ZN23QMediaPlaylistNavigator11qt_metacastEPKc@Base 5.0.1
 _ZN23QMediaPlaylistNavigator11setPlaylistEP22QMediaPlaylistProvider@Base 5.0.1
 _ZN23QMediaPlaylistNavigator15setPlaybackModeEN14QMediaPlaylist12PlaybackModeE@Base 5.0.1
 _ZN23QMediaPlaylistNavigator16staticMetaObjectE@Base 5.0.1
 _ZN23QMediaPlaylistNavigator19currentIndexChangedEi@Base 5.0.1
 _ZN23QMediaPlaylistNavigator19playbackModeChangedEN14QMediaPlaylist12PlaybackModeE@Base 5.0.1
 _ZN23QMediaPlaylistNavigator23surroundingItemsChangedEv@Base 5.0.1
 _ZN23QMediaPlaylistNavigator4jumpEi@Base 5.0.1
 _ZN23QMediaPlaylistNavigator4nextEv@Base 5.0.1
 _ZN23QMediaPlaylistNavigator8previousEv@Base 5.0.1
 _ZN23QMediaPlaylistNavigator9activatedERK13QMediaContent@Base 5.0.1
 _ZN23QMediaPlaylistNavigatorC1EP22QMediaPlaylistProviderP7QObject@Base 5.0.1
 _ZN23QMediaPlaylistNavigatorC2EP22QMediaPlaylistProviderP7QObject@Base 5.0.1
 _ZN23QMediaPlaylistNavigatorD0Ev@Base 5.0.1
 _ZN23QMediaPlaylistNavigatorD1Ev@Base 5.0.1
 _ZN23QMediaPlaylistNavigatorD2Ev@Base 5.0.1
 _ZN23QMediaVideoProbeControl11qt_metacallEN11QMetaObject4CallEiPPv@Base 5.0.1
 _ZN23QMediaVideoProbeControl11qt_metacastEPKc@Base 5.0.1
 _ZN23QMediaVideoProbeControl16staticMetaObjectE@Base 5.0.1
 _ZN23QMediaVideoProbeControl16videoFrameProbedERK11QVideoFrame@Base 5.0.1
 _ZN23QMediaVideoProbeControl5flushEv@Base 5.0.1
 _ZN23QMediaVideoProbeControlC1EP7QObject@Base 5.0.1
 _ZN23QMediaVideoProbeControlC2EP7QObject@Base 5.0.1
 _ZN23QMediaVideoProbeControlD0Ev@Base 5.0.1
 _ZN23QMediaVideoProbeControlD1Ev@Base 5.0.1
 _ZN23QMediaVideoProbeControlD2Ev@Base 5.0.1
 _ZN24QAbstractAudioDeviceInfo11qt_metacallEN11QMetaObject4CallEiPPv@Base 5.0.1
 _ZN24QAbstractAudioDeviceInfo11qt_metacastEPKc@Base 5.0.1
 _ZN24QAbstractAudioDeviceInfo16staticMetaObjectE@Base 5.0.1
 _ZN24QAbstractAudioDeviceInfoD0Ev@Base 5.0.1
 _ZN24QAbstractAudioDeviceInfoD1Ev@Base 5.0.1
 _ZN24QAbstractAudioDeviceInfoD2Ev@Base 5.0.1
 _ZN25QMediaAvailabilityControl11qt_metacallEN11QMetaObject4CallEiPPv@Base 5.0.1
 _ZN25QMediaAvailabilityControl11qt_metacastEPKc@Base 5.0.1
 _ZN25QMediaAvailabilityControl16staticMetaObjectE@Base 5.0.1
 _ZN25QMediaAvailabilityControl19availabilityChangedEN11QMultimedia18AvailabilityStatusE@Base 5.0.1
 _ZN25QMediaAvailabilityControlC1EP7QObject@Base 5.0.1
 _ZN25QMediaAvailabilityControlC2EP7QObject@Base 5.0.1
 _ZN25QMediaAvailabilityControlD0Ev@Base 5.0.1
 _ZN25QMediaAvailabilityControlD1Ev@Base 5.0.1
 _ZN25QMediaAvailabilityControlD2Ev@Base 5.0.1
 _ZN25QMediaServiceProviderHintC1E6QFlagsINS_7FeatureEE@Base 5.0.1
 _ZN25QMediaServiceProviderHintC1ERK10QByteArray@Base 5.0.1
 _ZN25QMediaServiceProviderHintC1ERK7QStringRK11QStringList@Base 5.0.1
 _ZN25QMediaServiceProviderHintC1ERKS_@Base 5.0.1
 _ZN25QMediaServiceProviderHintC1Ev@Base 5.0.1
 _ZN25QMediaServiceProviderHintC2E6QFlagsINS_7FeatureEE@Base 5.0.1
 _ZN25QMediaServiceProviderHintC2ERK10QByteArray@Base 5.0.1
 _ZN25QMediaServiceProviderHintC2ERK7QStringRK11QStringList@Base 5.0.1
 _ZN25QMediaServiceProviderHintC2ERKS_@Base 5.0.1
 _ZN25QMediaServiceProviderHintC2Ev@Base 5.0.1
 _ZN25QMediaServiceProviderHintD1Ev@Base 5.0.1
 _ZN25QMediaServiceProviderHintD2Ev@Base 5.0.1
 _ZN25QMediaServiceProviderHintaSERKS_@Base 5.0.1
 _ZN26QAudioInputSelectorControl11qt_metacallEN11QMetaObject4CallEiPPv@Base 5.0.1
 _ZN26QAudioInputSelectorControl11qt_metacastEPKc@Base 5.0.1
 _ZN26QAudioInputSelectorControl16staticMetaObjectE@Base 5.0.1
 _ZN26QAudioInputSelectorControl18activeInputChangedERK7QString@Base 5.0.1
 _ZN26QAudioInputSelectorControl22availableInputsChangedEv@Base 5.0.1
 _ZN26QAudioInputSelectorControlC1EP7QObject@Base 5.0.1
 _ZN26QAudioInputSelectorControlC2EP7QObject@Base 5.0.1
 _ZN26QAudioInputSelectorControlD0Ev@Base 5.0.1
 _ZN26QAudioInputSelectorControlD1Ev@Base 5.0.1
 _ZN26QAudioInputSelectorControlD2Ev@Base 5.0.1
 _ZN26QCameraImageCaptureControl10imageSavedEiRK7QString@Base 5.0.1
 _ZN26QCameraImageCaptureControl11qt_metacallEN11QMetaObject4CallEiPPv@Base 5.0.1
 _ZN26QCameraImageCaptureControl11qt_metacastEPKc@Base 5.0.1
 _ZN26QCameraImageCaptureControl12imageExposedEi@Base 5.0.1
 _ZN26QCameraImageCaptureControl13imageCapturedEiRK6QImage@Base 5.0.1
 _ZN26QCameraImageCaptureControl14imageAvailableEiRK11QVideoFrame@Base 5.0.1
 _ZN26QCameraImageCaptureControl16staticMetaObjectE@Base 5.0.1
 _ZN26QCameraImageCaptureControl22imageMetadataAvailableEiRK7QStringRK8QVariant@Base 5.0.1
 _ZN26QCameraImageCaptureControl22readyForCaptureChangedEb@Base 5.0.1
 _ZN26QCameraImageCaptureControl5errorEiiRK7QString@Base 5.0.1
 _ZN26QCameraImageCaptureControlC1EP7QObject@Base 5.0.1
 _ZN26QCameraImageCaptureControlC2EP7QObject@Base 5.0.1
 _ZN26QCameraImageCaptureControlD0Ev@Base 5.0.1
 _ZN26QCameraImageCaptureControlD1Ev@Base 5.0.1
 _ZN26QCameraImageCaptureControlD2Ev@Base 5.0.1
 _ZN26QMediaNetworkAccessControl11qt_metacallEN11QMetaObject4CallEiPPv@Base 5.0.1
 _ZN26QMediaNetworkAccessControl11qt_metacastEPKc@Base 5.0.1
 _ZN26QMediaNetworkAccessControl16staticMetaObjectE@Base 5.0.1
 _ZN26QMediaNetworkAccessControl20configurationChangedERK21QNetworkConfiguration@Base 5.0.1
 _ZN26QMediaNetworkAccessControlC1EP7QObject@Base 5.0.1
 _ZN26QMediaNetworkAccessControlC2EP7QObject@Base 5.0.1
 _ZN26QMediaNetworkAccessControlD0Ev@Base 5.0.1
 _ZN26QMediaNetworkAccessControlD1Ev@Base 5.0.1
 _ZN26QMediaNetworkAccessControlD2Ev@Base 5.0.1
 _ZN26QMediaResourcePolicyPlugin11qt_metacallEN11QMetaObject4CallEiPPv@Base 5.0.1
 _ZN26QMediaResourcePolicyPlugin11qt_metacastEPKc@Base 5.0.1
 _ZN26QMediaResourcePolicyPlugin16staticMetaObjectE@Base 5.0.1
 _ZN26QMediaResourcePolicyPluginC1EP7QObject@Base 5.0.1
 _ZN26QMediaResourcePolicyPluginC2EP7QObject@Base 5.0.1
 _ZN26QMediaResourcePolicyPluginD0Ev@Base 5.0.1
 _ZN26QMediaResourcePolicyPluginD1Ev@Base 5.0.1
 _ZN26QMediaResourcePolicyPluginD2Ev@Base 5.0.1
 _ZN27QAudioOutputSelectorControl11qt_metacallEN11QMetaObject4CallEiPPv@Base 5.0.1
 _ZN27QAudioOutputSelectorControl11qt_metacastEPKc@Base 5.0.1
 _ZN27QAudioOutputSelectorControl16staticMetaObjectE@Base 5.0.1
 _ZN27QAudioOutputSelectorControl19activeOutputChangedERK7QString@Base 5.0.1
 _ZN27QAudioOutputSelectorControl23availableOutputsChangedEv@Base 5.0.1
 _ZN27QAudioOutputSelectorControlC1EP7QObject@Base 5.0.1
 _ZN27QAudioOutputSelectorControlC2EP7QObject@Base 5.0.1
 _ZN27QAudioOutputSelectorControlD0Ev@Base 5.0.1
 _ZN27QAudioOutputSelectorControlD1Ev@Base 5.0.1
 _ZN27QAudioOutputSelectorControlD2Ev@Base 5.0.1
 _ZN27QMediaPlaylistSourceControl11qt_metacallEN11QMetaObject4CallEiPPv@Base 5.0.1
 _ZN27QMediaPlaylistSourceControl11qt_metacastEPKc@Base 5.0.1
 _ZN27QMediaPlaylistSourceControl15playlistChangedEP14QMediaPlaylist@Base 5.0.1
 _ZN27QMediaPlaylistSourceControl16staticMetaObjectE@Base 5.0.1
 _ZN27QMediaPlaylistSourceControlC1EP7QObject@Base 5.0.1
 _ZN27QMediaPlaylistSourceControlC2EP7QObject@Base 5.0.1
 _ZN27QMediaPlaylistSourceControlD0Ev@Base 5.0.1
 _ZN27QMediaPlaylistSourceControlD1Ev@Base 5.0.1
 _ZN27QMediaPlaylistSourceControlD2Ev@Base 5.0.1
 _ZN27QMediaServiceProviderPlugin11qt_metacallEN11QMetaObject4CallEiPPv@Base 5.0.1
 _ZN27QMediaServiceProviderPlugin11qt_metacastEPKc@Base 5.0.1
 _ZN27QMediaServiceProviderPlugin16staticMetaObjectE@Base 5.0.1
 _ZN27QMediaServiceProviderPluginD0Ev@Base 5.0.1
 _ZN27QMediaServiceProviderPluginD1Ev@Base 5.0.1
 _ZN27QMediaServiceProviderPluginD2Ev@Base 5.0.1
 _ZN27QVideoDeviceSelectorControl11qt_metacallEN11QMetaObject4CallEiPPv@Base 5.0.1
 _ZN27QVideoDeviceSelectorControl11qt_metacastEPKc@Base 5.0.1
 _ZN27QVideoDeviceSelectorControl14devicesChangedEv@Base 5.0.1
 _ZN27QVideoDeviceSelectorControl16staticMetaObjectE@Base 5.0.1
 _ZN27QVideoDeviceSelectorControl21selectedDeviceChangedERK7QString@Base 5.0.1
 _ZN27QVideoDeviceSelectorControl21selectedDeviceChangedEi@Base 5.0.1
 _ZN27QVideoDeviceSelectorControlC1EP7QObject@Base 5.0.1
 _ZN27QVideoDeviceSelectorControlC2EP7QObject@Base 5.0.1
 _ZN27QVideoDeviceSelectorControlD0Ev@Base 5.0.1
 _ZN27QVideoDeviceSelectorControlD1Ev@Base 5.0.1
 _ZN27QVideoDeviceSelectorControlD2Ev@Base 5.0.1
 _ZN28QAudioEncoderSettingsControl11qt_metacallEN11QMetaObject4CallEiPPv@Base 5.0.1
 _ZN28QAudioEncoderSettingsControl11qt_metacastEPKc@Base 5.0.1
 _ZN28QAudioEncoderSettingsControl16staticMetaObjectE@Base 5.0.1
 _ZN28QAudioEncoderSettingsControlC1EP7QObject@Base 5.0.1
 _ZN28QAudioEncoderSettingsControlC2EP7QObject@Base 5.0.1
 _ZN28QAudioEncoderSettingsControlD0Ev@Base 5.0.1
 _ZN28QAudioEncoderSettingsControlD1Ev@Base 5.0.1
 _ZN28QAudioEncoderSettingsControlD2Ev@Base 5.0.1
 _ZN28QAudioSystemFactoryInterfaceD0Ev@Base 5.0.1
 _ZN28QAudioSystemFactoryInterfaceD1Ev@Base 5.0.1
 _ZN28QAudioSystemFactoryInterfaceD2Ev@Base 5.0.1
 _ZN28QMediaGaplessPlaybackControl11qt_metacallEN11QMetaObject4CallEiPPv@Base 5.0.1
 _ZN28QMediaGaplessPlaybackControl11qt_metacastEPKc@Base 5.0.1
 _ZN28QMediaGaplessPlaybackControl16nextMediaChangedERK13QMediaContent@Base 5.0.1
 _ZN28QMediaGaplessPlaybackControl16staticMetaObjectE@Base 5.0.1
 _ZN28QMediaGaplessPlaybackControl19advancedToNextMediaEv@Base 5.0.1
 _ZN28QMediaGaplessPlaybackControl20crossfadeTimeChangedEd@Base 5.0.1
 _ZN28QMediaGaplessPlaybackControlC1EP7QObject@Base 5.0.1
 _ZN28QMediaGaplessPlaybackControlC2EP7QObject@Base 5.0.1
 _ZN28QMediaGaplessPlaybackControlD0Ev@Base 5.0.1
 _ZN28QMediaGaplessPlaybackControlD1Ev@Base 5.0.1
 _ZN28QMediaGaplessPlaybackControlD2Ev@Base 5.0.1
 _ZN28QVideoEncoderSettingsControl11qt_metacallEN11QMetaObject4CallEiPPv@Base 5.0.1
 _ZN28QVideoEncoderSettingsControl11qt_metacastEPKc@Base 5.0.1
 _ZN28QVideoEncoderSettingsControl16staticMetaObjectE@Base 5.0.1
 _ZN28QVideoEncoderSettingsControlC1EP7QObject@Base 5.0.1
 _ZN28QVideoEncoderSettingsControlC2EP7QObject@Base 5.0.1
 _ZN28QVideoEncoderSettingsControlD0Ev@Base 5.0.1
 _ZN28QVideoEncoderSettingsControlD1Ev@Base 5.0.1
 _ZN28QVideoEncoderSettingsControlD2Ev@Base 5.0.1
 _ZN29QCameraImageProcessingControl11qt_metacallEN11QMetaObject4CallEiPPv@Base 5.0.1
 _ZN29QCameraImageProcessingControl11qt_metacastEPKc@Base 5.0.1
 _ZN29QCameraImageProcessingControl16staticMetaObjectE@Base 5.0.1
 _ZN29QCameraImageProcessingControlC1EP7QObject@Base 5.0.1
 _ZN29QCameraImageProcessingControlC2EP7QObject@Base 5.0.1
 _ZN29QCameraImageProcessingControlD0Ev@Base 5.0.1
 _ZN29QCameraImageProcessingControlD1Ev@Base 5.0.1
 _ZN29QCameraImageProcessingControlD2Ev@Base 5.0.1
 _ZN29QMediaNetworkPlaylistProvider11insertMediaEiRK13QMediaContent@Base 5.0.1
 _ZN29QMediaNetworkPlaylistProvider11insertMediaEiRK5QListI13QMediaContentE@Base 5.0.1
 _ZN29QMediaNetworkPlaylistProvider11qt_metacallEN11QMetaObject4CallEiPPv@Base 5.0.1
 _ZN29QMediaNetworkPlaylistProvider11qt_metacastEPKc@Base 5.0.1
 _ZN29QMediaNetworkPlaylistProvider11removeMediaEi@Base 5.0.1
 _ZN29QMediaNetworkPlaylistProvider11removeMediaEii@Base 5.0.1
 _ZN29QMediaNetworkPlaylistProvider16staticMetaObjectE@Base 5.0.1
 _ZN29QMediaNetworkPlaylistProvider4loadERK15QNetworkRequestPKc@Base 5.0.1
 _ZN29QMediaNetworkPlaylistProvider5clearEv@Base 5.0.1
 _ZN29QMediaNetworkPlaylistProvider7shuffleEv@Base 5.0.1
 _ZN29QMediaNetworkPlaylistProvider8addMediaERK13QMediaContent@Base 5.0.1
 _ZN29QMediaNetworkPlaylistProvider8addMediaERK5QListI13QMediaContentE@Base 5.0.1
 _ZN29QMediaNetworkPlaylistProviderC1EP7QObject@Base 5.0.1
 _ZN29QMediaNetworkPlaylistProviderC2EP7QObject@Base 5.0.1
 _ZN29QMediaNetworkPlaylistProviderD0Ev@Base 5.0.1
 _ZN29QMediaNetworkPlaylistProviderD1Ev@Base 5.0.1
 _ZN29QMediaNetworkPlaylistProviderD2Ev@Base 5.0.1
 _ZN32QCameraCaptureDestinationControl11qt_metacallEN11QMetaObject4CallEiPPv@Base 5.0.1
 _ZN32QCameraCaptureDestinationControl11qt_metacastEPKc@Base 5.0.1
 _ZN32QCameraCaptureDestinationControl16staticMetaObjectE@Base 5.0.1
 _ZN32QCameraCaptureDestinationControl25captureDestinationChangedE6QFlagsIN19QCameraImageCapture18CaptureDestinationEE@Base 5.0.1
 _ZN32QCameraCaptureDestinationControlC1EP7QObject@Base 5.0.1
 _ZN32QCameraCaptureDestinationControlC2EP7QObject@Base 5.0.1
 _ZN32QCameraCaptureDestinationControlD0Ev@Base 5.0.1
 _ZN32QCameraCaptureDestinationControlD1Ev@Base 5.0.1
 _ZN32QCameraCaptureDestinationControlD2Ev@Base 5.0.1
 _ZN32QCameraViewfinderSettingsControl11qt_metacallEN11QMetaObject4CallEiPPv@Base 5.0.1
 _ZN32QCameraViewfinderSettingsControl11qt_metacastEPKc@Base 5.0.1
 _ZN32QCameraViewfinderSettingsControl16staticMetaObjectE@Base 5.0.1
 _ZN32QCameraViewfinderSettingsControlC1EP7QObject@Base 5.0.1
 _ZN32QCameraViewfinderSettingsControlC2EP7QObject@Base 5.0.1
 _ZN32QCameraViewfinderSettingsControlD0Ev@Base 5.0.1
 _ZN32QCameraViewfinderSettingsControlD1Ev@Base 5.0.1
 _ZN32QCameraViewfinderSettingsControlD2Ev@Base 5.0.1
 _ZN32QMediaPlayerResourceSetInterface11qt_metacallEN11QMetaObject4CallEiPPv@Base 5.0.1
 _ZN32QMediaPlayerResourceSetInterface11qt_metacastEPKc@Base 5.0.1
 _ZN32QMediaPlayerResourceSetInterface13resourcesLostEv@Base 5.0.1
 _ZN32QMediaPlayerResourceSetInterface15resourcesDeniedEv@Base 5.0.1
 _ZN32QMediaPlayerResourceSetInterface16resourcesGrantedEv@Base 5.0.1
 _ZN32QMediaPlayerResourceSetInterface16staticMetaObjectE@Base 5.0.1
 _ZN32QMediaPlayerResourceSetInterface17resourcesReleasedEv@Base 5.0.1
 _ZN32QMediaPlayerResourceSetInterface19availabilityChangedEb@Base 5.0.1
 _ZN32QMediaPlayerResourceSetInterface3iidEv@Base 5.0.1
 _ZN32QMediaPlayerResourceSetInterfaceC1EP7QObject@Base 5.0.1
 _ZN32QMediaPlayerResourceSetInterfaceC2EP7QObject@Base 5.0.1
 _ZN32QMediaPlayerResourceSetInterfaceD0Ev@Base 5.0.1
 _ZN32QMediaPlayerResourceSetInterfaceD1Ev@Base 5.0.1
 _ZN32QMediaPlayerResourceSetInterfaceD2Ev@Base 5.0.1
 _ZN33QCameraCaptureBufferFormatControl11qt_metacallEN11QMetaObject4CallEiPPv@Base 5.0.1
 _ZN33QCameraCaptureBufferFormatControl11qt_metacastEPKc@Base 5.0.1
 _ZN33QCameraCaptureBufferFormatControl16staticMetaObjectE@Base 5.0.1
 _ZN33QCameraCaptureBufferFormatControl19bufferFormatChangedEN11QVideoFrame11PixelFormatE@Base 5.0.1
 _ZN33QCameraCaptureBufferFormatControlC1EP7QObject@Base 5.0.1
 _ZN33QCameraCaptureBufferFormatControlC2EP7QObject@Base 5.0.1
 _ZN33QCameraCaptureBufferFormatControlD0Ev@Base 5.0.1
 _ZN33QCameraCaptureBufferFormatControlD1Ev@Base 5.0.1
 _ZN33QCameraCaptureBufferFormatControlD2Ev@Base 5.0.1
 _ZN37QMediaServiceProviderFactoryInterfaceD0Ev@Base 5.0.1
 _ZN37QMediaServiceProviderFactoryInterfaceD1Ev@Base 5.0.1
 _ZN37QMediaServiceProviderFactoryInterfaceD2Ev@Base 5.0.1
 _ZN6QSound11qt_metacallEN11QMetaObject4CallEiPPv@Base 5.0.1
 _ZN6QSound11qt_metacastEPKc@Base 5.0.1
 _ZN6QSound16deleteOnCompleteEv@Base 5.0.1
 _ZN6QSound16staticMetaObjectE@Base 5.0.1
 _ZN6QSound4playERK7QString@Base 5.0.1
 _ZN6QSound4playEv@Base 5.0.1
 _ZN6QSound4stopEv@Base 5.0.1
 _ZN6QSound8setLoopsEi@Base 5.0.1
 _ZN6QSoundC1ERK7QStringP7QObject@Base 5.0.1
 _ZN6QSoundC2ERK7QStringP7QObject@Base 5.0.1
 _ZN6QSoundD0Ev@Base 5.0.1
 _ZN6QSoundD1Ev@Base 5.0.1
 _ZN6QSoundD2Ev@Base 5.0.1
 _ZN7QCamera10lockFailedEv@Base 5.0.1
 _ZN7QCamera11qt_metacallEN11QMetaObject4CallEiPPv@Base 5.0.1
 _ZN7QCamera11qt_metacastEPKc@Base 5.0.1
 _ZN7QCamera12stateChangedENS_5StateE@Base 5.0.1
 _ZN7QCamera13searchAndLockE6QFlagsINS_8LockTypeEE@Base 5.0.1
 _ZN7QCamera13searchAndLockEv@Base 5.0.1
 _ZN7QCamera13setViewfinderEP12QVideoWidget@Base 5.0.1
 _ZN7QCamera13setViewfinderEP18QGraphicsVideoItem@Base 5.0.1
 _ZN7QCamera13setViewfinderEP21QAbstractVideoSurface@Base 5.0.1
 _ZN7QCamera13statusChangedENS_6StatusE@Base 5.0.1
 _ZN7QCamera14setCaptureModeE6QFlagsINS_11CaptureModeEE@Base 5.0.1
 _ZN7QCamera16availableDevicesEv@Base 5.0.1
 _ZN7QCamera16staticMetaObjectE@Base 5.0.1
 _ZN7QCamera17deviceDescriptionERK10QByteArray@Base 5.0.1
 _ZN7QCamera17lockStatusChangedENS_10LockStatusENS_16LockChangeReasonE@Base 5.0.1
 _ZN7QCamera17lockStatusChangedENS_8LockTypeENS_10LockStatusENS_16LockChangeReasonE@Base 5.0.1
 _ZN7QCamera18captureModeChangedE6QFlagsINS_11CaptureModeEE@Base 5.0.1
 _ZN7QCamera4loadEv@Base 5.0.1
 _ZN7QCamera4stopEv@Base 5.0.1
 _ZN7QCamera5errorENS_5ErrorE@Base 5.0.1
 _ZN7QCamera5startEv@Base 5.0.1
 _ZN7QCamera6lockedEv@Base 5.0.1
 _ZN7QCamera6unloadEv@Base 5.0.1
 _ZN7QCamera6unlockE6QFlagsINS_8LockTypeEE@Base 5.0.1
 _ZN7QCamera6unlockEv@Base 5.0.1
 _ZN7QCameraC1EP7QObject@Base 5.0.1
 _ZN7QCameraC1ERK10QByteArrayP7QObject@Base 5.0.1
 _ZN7QCameraC2EP7QObject@Base 5.0.1
 _ZN7QCameraC2ERK10QByteArrayP7QObject@Base 5.0.1
 _ZN7QCameraD0Ev@Base 5.0.1
 _ZN7QCameraD1Ev@Base 5.0.1
 _ZN7QCameraD2Ev@Base 5.0.1
 _ZN7QSample10readSampleEv@Base 5.0.1
 _ZN7QSample11qt_metacallEN11QMetaObject4CallEiPPv@Base 5.0.1
 _ZN7QSample11qt_metacastEPKc@Base 5.0.1
 _ZN7QSample12decoderErrorEv@Base 5.0.1
 _ZN7QSample12decoderReadyEv@Base 5.0.1
 _ZN7QSample15loadIfNecessaryEv@Base 5.0.1
 _ZN7QSample16staticMetaObjectE@Base 5.0.1
 _ZN7QSample4loadEv@Base 5.0.1
 _ZN7QSample5errorEv@Base 5.0.1
 _ZN7QSample5readyEv@Base 5.0.1
 _ZN7QSample6addRefEv@Base 5.0.1
 _ZN7QSample7cleanupEv@Base 5.0.1
 _ZN7QSample7onReadyEv@Base 5.0.1
 _ZN7QSample7releaseEv@Base 5.0.1
 _ZN7QSampleC1ERK4QUrlP12QSampleCache@Base 5.0.1
 _ZN7QSampleC2ERK4QUrlP12QSampleCache@Base 5.0.1
 _ZN7QSampleD0Ev@Base 5.0.1
 _ZN7QSampleD1Ev@Base 5.0.1
 _ZN7QSampleD2Ev@Base 5.0.1
 _ZNK10QRadioData10metaObjectEv@Base 5.0.1
 _ZNK10QRadioData11errorStringEv@Base 5.0.1
 _ZNK10QRadioData11mediaObjectEv@Base 5.0.1
 _ZNK10QRadioData11programTypeEv@Base 5.0.1
 _ZNK10QRadioData11stationNameEv@Base 5.0.1
 _ZNK10QRadioData12availabilityEv@Base 5.0.1
 _ZNK10QRadioData15programTypeNameEv@Base 5.0.1
 _ZNK10QRadioData31isAlternativeFrequenciesEnabledEv@Base 5.0.1
 _ZNK10QRadioData5errorEv@Base 5.0.1
 _ZNK10QRadioData9radioTextEv@Base 5.0.1
 _ZNK10QRadioData9stationIdEv@Base 5.0.1
 _ZNK11QAudioInput10bufferSizeEv@Base 5.0.1
 _ZNK11QAudioInput10bytesReadyEv@Base 5.0.1
 _ZNK11QAudioInput10metaObjectEv@Base 5.0.1
 _ZNK11QAudioInput10periodSizeEv@Base 5.0.1
 _ZNK11QAudioInput12elapsedUSecsEv@Base 5.0.1
 _ZNK11QAudioInput14notifyIntervalEv@Base 5.0.1
 _ZNK11QAudioInput14processedUSecsEv@Base 5.0.1
 _ZNK11QAudioInput5errorEv@Base 5.0.1
 _ZNK11QAudioInput5stateEv@Base 5.0.1
 _ZNK11QAudioInput6formatEv@Base 5.0.1
 _ZNK11QAudioInput6volumeEv@Base 5.0.1
 _ZNK11QAudioProbe10metaObjectEv@Base 5.0.1
 _ZNK11QAudioProbe8isActiveEv@Base 5.0.1
 _ZNK11QRadioTuner10metaObjectEv@Base 5.0.1
 _ZNK11QRadioTuner10stereoModeEv@Base 5.0.1
 _ZNK11QRadioTuner11errorStringEv@Base 5.0.1
 _ZNK11QRadioTuner11isSearchingEv@Base 5.0.1
 _ZNK11QRadioTuner12availabilityEv@Base 5.0.1
 _ZNK11QRadioTuner13frequencyStepENS_4BandE@Base 5.0.1
 _ZNK11QRadioTuner14frequencyRangeENS_4BandE@Base 5.0.1
 _ZNK11QRadioTuner14signalStrengthEv@Base 5.0.1
 _ZNK11QRadioTuner15isBandSupportedENS_4BandE@Base 5.0.1
 _ZNK11QRadioTuner18isAntennaConnectedEv@Base 5.0.1
 _ZNK11QRadioTuner4bandEv@Base 5.0.1
 _ZNK11QRadioTuner5errorEv@Base 5.0.1
 _ZNK11QRadioTuner5stateEv@Base 5.0.1
 _ZNK11QRadioTuner6volumeEv@Base 5.0.1
 _ZNK11QRadioTuner7isMutedEv@Base 5.0.1
 _ZNK11QRadioTuner8isStereoEv@Base 5.0.1
 _ZNK11QRadioTuner9frequencyEv@Base 5.0.1
 _ZNK11QRadioTuner9radioDataEv@Base 5.0.1
 _ZNK11QVideoFrame10handleTypeEv@Base 5.0.1
 _ZNK11QVideoFrame10isReadableEv@Base 5.0.1
 _ZNK11QVideoFrame10isWritableEv@Base 5.0.1
 _ZNK11QVideoFrame11mappedBytesEv@Base 5.0.1
 _ZNK11QVideoFrame11pixelFormatEv@Base 5.0.1
 _ZNK11QVideoFrame12bytesPerLineEv@Base 5.0.1
 _ZNK11QVideoFrame17availableMetaDataEv@Base 5.0.1
 _ZNK11QVideoFrame4bitsEv@Base 5.0.1
 _ZNK11QVideoFrame4sizeEv@Base 5.0.1
 _ZNK11QVideoFrame5widthEv@Base 5.0.1
 _ZNK11QVideoFrame6handleEv@Base 5.0.1
 _ZNK11QVideoFrame6heightEv@Base 5.0.1
 _ZNK11QVideoFrame7endTimeEv@Base 5.0.1
 _ZNK11QVideoFrame7isValidEv@Base 5.0.1
 _ZNK11QVideoFrame7mapModeEv@Base 5.0.1
 _ZNK11QVideoFrame8isMappedEv@Base 5.0.1
 _ZNK11QVideoFrame8metaDataERK7QString@Base 5.0.1
 _ZNK11QVideoFrame9fieldTypeEv@Base 5.0.1
 _ZNK11QVideoFrame9startTimeEv@Base 5.0.1
 _ZNK11QVideoProbe10metaObjectEv@Base 5.0.1
 _ZNK11QVideoProbe8isActiveEv@Base 5.0.1
 _ZNK12QAudioBuffer10frameCountEv@Base 5.0.1
 _ZNK12QAudioBuffer11sampleCountEv@Base 5.0.1
 _ZNK12QAudioBuffer4dataEv@Base 5.0.1
 _ZNK12QAudioBuffer6formatEv@Base 5.0.1
 _ZNK12QAudioBuffer7isValidEv@Base 5.0.1
 _ZNK12QAudioBuffer8durationEv@Base 5.0.1
 _ZNK12QAudioBuffer9byteCountEv@Base 5.0.1
 _ZNK12QAudioBuffer9constDataEv@Base 5.0.1
 _ZNK12QAudioBuffer9startTimeEv@Base 5.0.1
 _ZNK12QAudioFormat10sampleRateEv@Base 5.0.1
 _ZNK12QAudioFormat10sampleSizeEv@Base 5.0.1
 _ZNK12QAudioFormat10sampleTypeEv@Base 5.0.1
 _ZNK12QAudioFormat12channelCountEv@Base 5.0.1
 _ZNK12QAudioFormat13bytesPerFrameEv@Base 5.0.1
 _ZNK12QAudioFormat14bytesForFramesEi@Base 5.0.1
 _ZNK12QAudioFormat14framesForBytesEi@Base 5.0.1
 _ZNK12QAudioFormat16bytesForDurationEx@Base 5.0.1
 _ZNK12QAudioFormat16durationForBytesEi@Base 5.0.1
 _ZNK12QAudioFormat17durationForFramesEi@Base 5.0.1
 _ZNK12QAudioFormat17framesForDurationEx@Base 5.0.1
 _ZNK12QAudioFormat5codecEv@Base 5.0.1
 _ZNK12QAudioFormat7isValidEv@Base 5.0.1
 _ZNK12QAudioFormat9byteOrderEv@Base 5.0.1
 _ZNK12QAudioFormateqERKS_@Base 5.0.1
 _ZNK12QAudioFormatneERKS_@Base 5.0.1
 _ZNK12QAudioOutput10bufferSizeEv@Base 5.0.1
 _ZNK12QAudioOutput10metaObjectEv@Base 5.0.1
 _ZNK12QAudioOutput10periodSizeEv@Base 5.0.1
 _ZNK12QAudioOutput12elapsedUSecsEv@Base 5.0.1
 _ZNK12QAudioOutput14notifyIntervalEv@Base 5.0.1
 _ZNK12QAudioOutput14processedUSecsEv@Base 5.0.1
 _ZNK12QAudioOutput5errorEv@Base 5.0.1
 _ZNK12QAudioOutput5stateEv@Base 5.0.1
 _ZNK12QAudioOutput6formatEv@Base 5.0.1
 _ZNK12QAudioOutput6volumeEv@Base 5.0.1
 _ZNK12QAudioOutput8categoryEv@Base 5.0.1
 _ZNK12QAudioOutput9bytesFreeEv@Base 5.0.1
 _ZNK12QCameraFocus10focusZonesEv@Base 5.0.1
 _ZNK12QCameraFocus10metaObjectEv@Base 5.0.1
 _ZNK12QCameraFocus11digitalZoomEv@Base 5.0.1
 _ZNK12QCameraFocus11isAvailableEv@Base 5.0.1
 _ZNK12QCameraFocus11opticalZoomEv@Base 5.0.1
 _ZNK12QCameraFocus14focusPointModeEv@Base 5.0.1
 _ZNK12QCameraFocus16customFocusPointEv@Base 5.0.1
 _ZNK12QCameraFocus18maximumDigitalZoomEv@Base 5.0.1
 _ZNK12QCameraFocus18maximumOpticalZoomEv@Base 5.0.1
 _ZNK12QCameraFocus20isFocusModeSupportedE6QFlagsINS_9FocusModeEE@Base 5.0.1
 _ZNK12QCameraFocus25isFocusPointModeSupportedENS_14FocusPointModeE@Base 5.0.1
 _ZNK12QCameraFocus9focusModeEv@Base 5.0.1
 _ZNK12QMediaObject10metaObjectEv@Base 5.0.1
 _ZNK12QMediaObject11isAvailableEv@Base 5.0.1
 _ZNK12QMediaObject12availabilityEv@Base 5.0.1
 _ZNK12QMediaObject14notifyIntervalEv@Base 5.0.1
 _ZNK12QMediaObject17availableMetaDataEv@Base 5.0.1
 _ZNK12QMediaObject19isMetaDataAvailableEv@Base 5.0.1
 _ZNK12QMediaObject7serviceEv@Base 5.0.1
 _ZNK12QMediaObject8metaDataERK7QString@Base 5.0.1
 _ZNK12QMediaPlayer10isSeekableEv@Base 5.0.1
 _ZNK12QMediaPlayer10metaObjectEv@Base 5.0.1
 _ZNK12QMediaPlayer11errorStringEv@Base 5.0.1
 _ZNK12QMediaPlayer11mediaStatusEv@Base 5.0.1
 _ZNK12QMediaPlayer11mediaStreamEv@Base 5.0.1
 _ZNK12QMediaPlayer12availabilityEv@Base 5.0.1
 _ZNK12QMediaPlayer12bufferStatusEv@Base 5.0.1
 _ZNK12QMediaPlayer12currentMediaEv@Base 5.0.1
 _ZNK12QMediaPlayer12playbackRateEv@Base 5.0.1
 _ZNK12QMediaPlayer16isAudioAvailableEv@Base 5.0.1
 _ZNK12QMediaPlayer16isVideoAvailableEv@Base 5.0.1
 _ZNK12QMediaPlayer27currentNetworkConfigurationEv@Base 5.0.1
 _ZNK12QMediaPlayer5errorEv@Base 5.0.1
 _ZNK12QMediaPlayer5mediaEv@Base 5.0.1
 _ZNK12QMediaPlayer5stateEv@Base 5.0.1
 _ZNK12QMediaPlayer6volumeEv@Base 5.0.1
 _ZNK12QMediaPlayer7isMutedEv@Base 5.0.1
 _ZNK12QMediaPlayer8durationEv@Base 5.0.1
 _ZNK12QMediaPlayer8playlistEv@Base 5.0.1
 _ZNK12QMediaPlayer8positionEv@Base 5.0.1
 _ZNK12QSampleCache10metaObjectEv@Base 5.0.1
 _ZNK12QSampleCache8isCachedERK4QUrl@Base 5.0.1
 _ZNK12QSampleCache9isLoadingEv@Base 5.0.1
 _ZNK12QSoundEffect10metaObjectEv@Base 5.0.1
 _ZNK12QSoundEffect14loopsRemainingEv@Base 5.0.1
 _ZNK12QSoundEffect6sourceEv@Base 5.0.1
 _ZNK12QSoundEffect6statusEv@Base 5.0.1
 _ZNK12QSoundEffect6volumeEv@Base 5.0.1
 _ZNK12QSoundEffect7isMutedEv@Base 5.0.1
 _ZNK12QSoundEffect8categoryEv@Base 5.0.1
 _ZNK12QSoundEffect8isLoadedEv@Base 5.0.1
 _ZNK12QSoundEffect9isPlayingEv@Base 5.0.1
 _ZNK12QSoundEffect9loopCountEv@Base 5.0.1
 _ZNK13QAudioDecoder10metaObjectEv@Base 5.0.1
 _ZNK13QAudioDecoder11audioFormatEv@Base 5.0.1
 _ZNK13QAudioDecoder11errorStringEv@Base 5.0.1
 _ZNK13QAudioDecoder12sourceDeviceEv@Base 5.0.1
 _ZNK13QAudioDecoder14sourceFilenameEv@Base 5.0.1
 _ZNK13QAudioDecoder15bufferAvailableEv@Base 5.0.1
 _ZNK13QAudioDecoder4readEv@Base 5.0.1
 _ZNK13QAudioDecoder5errorEv@Base 5.0.1
 _ZNK13QAudioDecoder5stateEv@Base 5.0.1
 _ZNK13QAudioDecoder8durationEv@Base 5.0.1
 _ZNK13QAudioDecoder8positionEv@Base 5.0.1
 _ZNK13QMediaContent12canonicalUrlEv@Base 5.0.1
 _ZNK13QMediaContent16canonicalRequestEv@Base 5.0.1
 _ZNK13QMediaContent17canonicalResourceEv@Base 5.0.1
 _ZNK13QMediaContent6isNullEv@Base 5.0.1
 _ZNK13QMediaContent8playlistEv@Base 5.0.1
 _ZNK13QMediaContent9resourcesEv@Base 5.0.1
 _ZNK13QMediaContenteqERKS_@Base 5.0.1
 _ZNK13QMediaContentneERKS_@Base 5.0.1
 _ZNK13QMediaControl10metaObjectEv@Base 5.0.1
 _ZNK13QMediaService10metaObjectEv@Base 5.0.1
 _ZNK14QAudioRecorder10audioInputEv@Base 5.0.1
 _ZNK14QAudioRecorder10metaObjectEv@Base 5.0.1
 _ZNK14QAudioRecorder11audioInputsEv@Base 5.0.1
 _ZNK14QAudioRecorder17defaultAudioInputEv@Base 5.0.1
 _ZNK14QAudioRecorder21audioInputDescriptionERK7QString@Base 5.0.1
 _ZNK14QCameraControl10metaObjectEv@Base 5.0.1
 _ZNK14QMediaPlaylist10isReadOnlyEv@Base 5.0.1
 _ZNK14QMediaPlaylist10mediaCountEv@Base 5.0.1
 _ZNK14QMediaPlaylist10metaObjectEv@Base 5.0.1
 _ZNK14QMediaPlaylist11errorStringEv@Base 5.0.1
 _ZNK14QMediaPlaylist11mediaObjectEv@Base 5.0.1
 _ZNK14QMediaPlaylist12currentIndexEv@Base 5.0.1
 _ZNK14QMediaPlaylist12currentMediaEv@Base 5.0.1
 _ZNK14QMediaPlaylist12playbackModeEv@Base 5.0.1
 _ZNK14QMediaPlaylist13previousIndexEi@Base 5.0.1
 _ZNK14QMediaPlaylist5errorEv@Base 5.0.1
 _ZNK14QMediaPlaylist5mediaEi@Base 5.0.1
 _ZNK14QMediaPlaylist7isEmptyEv@Base 5.0.1
 _ZNK14QMediaPlaylist9nextIndexEi@Base 5.0.1
 _ZNK14QMediaRecorder10metaObjectEv@Base 5.0.1
 _ZNK14QMediaRecorder11errorStringEv@Base 5.0.1
 _ZNK14QMediaRecorder11isAvailableEv@Base 5.0.1
 _ZNK14QMediaRecorder11mediaObjectEv@Base 5.0.1
 _ZNK14QMediaRecorder12availabilityEv@Base 5.0.1
 _ZNK14QMediaRecorder13audioSettingsEv@Base 5.0.1
 _ZNK14QMediaRecorder13videoSettingsEv@Base 5.0.1
 _ZNK14QMediaRecorder14actualLocationEv@Base 5.0.1
 _ZNK14QMediaRecorder14outputLocationEv@Base 5.0.1
 _ZNK14QMediaRecorder15containerFormatEv@Base 5.0.1
 _ZNK14QMediaRecorder17availableMetaDataEv@Base 5.0.1
 _ZNK14QMediaRecorder18isMetaDataWritableEv@Base 5.0.1
 _ZNK14QMediaRecorder19isMetaDataAvailableEv@Base 5.0.1
 _ZNK14QMediaRecorder19supportedContainersEv@Base 5.0.1
 _ZNK14QMediaRecorder19supportedFrameRatesERK21QVideoEncoderSettingsPb@Base 5.0.1
 _ZNK14QMediaRecorder20containerDescriptionERK7QString@Base 5.0.1
 _ZNK14QMediaRecorder20supportedAudioCodecsEv@Base 5.0.1
 _ZNK14QMediaRecorder20supportedResolutionsERK21QVideoEncoderSettingsPb@Base 5.0.1
 _ZNK14QMediaRecorder20supportedVideoCodecsEv@Base 5.0.1
 _ZNK14QMediaRecorder21audioCodecDescriptionERK7QString@Base 5.0.1
 _ZNK14QMediaRecorder21videoCodecDescriptionERK7QString@Base 5.0.1
 _ZNK14QMediaRecorder25supportedAudioSampleRatesERK21QAudioEncoderSettingsPb@Base 5.0.1
 _ZNK14QMediaRecorder5errorEv@Base 5.0.1
 _ZNK14QMediaRecorder5stateEv@Base 5.0.1
 _ZNK14QMediaRecorder6statusEv@Base 5.0.1
 _ZNK14QMediaRecorder6volumeEv@Base 5.0.1
 _ZNK14QMediaRecorder7isMutedEv@Base 5.0.1
 _ZNK14QMediaRecorder8durationEv@Base 5.0.1
 _ZNK14QMediaRecorder8metaDataERK7QString@Base 5.0.1
 _ZNK14QMediaResource10audioCodecEv@Base 5.0.1
 _ZNK14QMediaResource10resolutionEv@Base 5.0.1
 _ZNK14QMediaResource10sampleRateEv@Base 5.0.1
 _ZNK14QMediaResource10videoCodecEv@Base 5.0.1
 _ZNK14QMediaResource12audioBitRateEv@Base 5.0.1
 _ZNK14QMediaResource12channelCountEv@Base 5.0.1
 _ZNK14QMediaResource12videoBitRateEv@Base 5.0.1
 _ZNK14QMediaResource3urlEv@Base 5.0.1
 _ZNK14QMediaResource6isNullEv@Base 5.0.1
 _ZNK14QMediaResource7requestEv@Base 5.0.1
 _ZNK14QMediaResource8dataSizeEv@Base 5.0.1
 _ZNK14QMediaResource8languageEv@Base 5.0.1
 _ZNK14QMediaResource8mimeTypeEv@Base 5.0.1
 _ZNK14QMediaResourceeqERKS_@Base 5.0.1
 _ZNK14QMediaResourceneERKS_@Base 5.0.1
 _ZNK15QCameraExposure10metaObjectEv@Base 5.0.1
 _ZNK15QCameraExposure11isAvailableEv@Base 5.0.1
 _ZNK15QCameraExposure12exposureModeEv@Base 5.0.1
 _ZNK15QCameraExposure12isFlashReadyEv@Base 5.0.1
 _ZNK15QCameraExposure12meteringModeEv@Base 5.0.1
 _ZNK15QCameraExposure12shutterSpeedEv@Base 5.0.1
 _ZNK15QCameraExposure14isoSensitivityEv@Base 5.0.1
 _ZNK15QCameraExposure17requestedApertureEv@Base 5.0.1
 _ZNK15QCameraExposure17spotMeteringPointEv@Base 5.0.1
 _ZNK15QCameraExposure18supportedAperturesEPb@Base 5.0.1
 _ZNK15QCameraExposure20exposureCompensationEv@Base 5.0.1
 _ZNK15QCameraExposure20isFlashModeSupportedE6QFlagsINS_9FlashModeEE@Base 5.0.1
 _ZNK15QCameraExposure21requestedShutterSpeedEv@Base 5.0.1
 _ZNK15QCameraExposure22supportedShutterSpeedsEPb@Base 5.0.1
 _ZNK15QCameraExposure23isExposureModeSupportedENS_12ExposureModeE@Base 5.0.1
 _ZNK15QCameraExposure23isMeteringModeSupportedENS_12MeteringModeE@Base 5.0.1
 _ZNK15QCameraExposure23requestedIsoSensitivityEv@Base 5.0.1
 _ZNK15QCameraExposure25supportedIsoSensitivitiesEPb@Base 5.0.1
 _ZNK15QCameraExposure8apertureEv@Base 5.0.1
 _ZNK15QCameraExposure9flashModeEv@Base 5.0.1
 _ZNK15QMediaTimeRange10latestTimeEv@Base 5.0.1
 _ZNK15QMediaTimeRange12earliestTimeEv@Base 5.0.1
 _ZNK15QMediaTimeRange12isContinuousEv@Base 5.0.1
 _ZNK15QMediaTimeRange7isEmptyEv@Base 5.0.1
 _ZNK15QMediaTimeRange8containsEx@Base 5.0.1
 _ZNK15QMediaTimeRange9intervalsEv@Base 5.0.1
 _ZNK16QAudioDeviceInfo10deviceNameEv@Base 5.0.1
 _ZNK16QAudioDeviceInfo13nearestFormatERK12QAudioFormat@Base 5.0.1
 _ZNK16QAudioDeviceInfo15preferredFormatEv@Base 5.0.1
 _ZNK16QAudioDeviceInfo15supportedCodecsEv@Base 5.0.1
 _ZNK16QAudioDeviceInfo17isFormatSupportedERK12QAudioFormat@Base 5.0.1
 _ZNK16QAudioDeviceInfo19supportedByteOrdersEv@Base 5.0.1
 _ZNK16QAudioDeviceInfo20supportedSampleRatesEv@Base 5.0.1
 _ZNK16QAudioDeviceInfo20supportedSampleSizesEv@Base 5.0.1
 _ZNK16QAudioDeviceInfo20supportedSampleTypesEv@Base 5.0.1
 _ZNK16QAudioDeviceInfo22supportedChannelCountsEv@Base 5.0.1
 _ZNK16QAudioDeviceInfo4modeEv@Base 5.0.1
 _ZNK16QAudioDeviceInfo5realmEv@Base 5.0.1
 _ZNK16QAudioDeviceInfo6handleEv@Base 5.0.1
 _ZNK16QAudioDeviceInfo6isNullEv@Base 5.0.1
 _ZNK16QAudioDeviceInfoeqERKS_@Base 5.0.1
 _ZNK16QAudioDeviceInfoneERKS_@Base 5.0.1
 _ZNK16QCameraFocusZone4areaEv@Base 5.0.1
 _ZNK16QCameraFocusZone6statusEv@Base 5.0.1
 _ZNK16QCameraFocusZone7isValidEv@Base 5.0.1
 _ZNK16QCameraFocusZoneeqERKS_@Base 5.0.1
 _ZNK16QCameraFocusZoneneERKS_@Base 5.0.1
 _ZNK17QImageVideoBuffer7mapModeEv@Base 5.0.1
 _ZNK17QRadioDataControl10metaObjectEv@Base 5.0.1
 _ZNK18QAudioSystemPlugin10metaObjectEv@Base 5.0.1
 _ZNK18QCameraZoomControl10metaObjectEv@Base 5.0.1
 _ZNK18QMediaPluginLoader4keysEv@Base 5.0.1
 _ZNK18QMediaTimeInterval10normalizedEv@Base 5.0.1
 _ZNK18QMediaTimeInterval10translatedEx@Base 5.0.1
 _ZNK18QMediaTimeInterval3endEv@Base 5.0.1
 _ZNK18QMediaTimeInterval5startEv@Base 5.0.1
 _ZNK18QMediaTimeInterval8containsEx@Base 5.0.1
 _ZNK18QMediaTimeInterval8isNormalEv@Base 5.0.1
 _ZNK18QMemoryVideoBuffer7mapModeEv@Base 5.0.1
 _ZNK18QRadioTunerControl10metaObjectEv@Base 5.0.1
 _ZNK19QAbstractAudioInput10metaObjectEv@Base 5.0.1
 _ZNK19QCameraFlashControl10metaObjectEv@Base 5.0.1
 _ZNK19QCameraFocusControl10metaObjectEv@Base 5.0.1
 _ZNK19QCameraImageCapture10metaObjectEv@Base 5.0.1
 _ZNK19QCameraImageCapture11errorStringEv@Base 5.0.1
 _ZNK19QCameraImageCapture11isAvailableEv@Base 5.0.1
 _ZNK19QCameraImageCapture11mediaObjectEv@Base 5.0.1
 _ZNK19QCameraImageCapture12availabilityEv@Base 5.0.1
 _ZNK19QCameraImageCapture12bufferFormatEv@Base 5.0.1
 _ZNK19QCameraImageCapture16encodingSettingsEv@Base 5.0.1
 _ZNK19QCameraImageCapture17isReadyForCaptureEv@Base 5.0.1
 _ZNK19QCameraImageCapture18captureDestinationEv@Base 5.0.1
 _ZNK19QCameraImageCapture20supportedImageCodecsEv@Base 5.0.1
 _ZNK19QCameraImageCapture20supportedResolutionsERK21QImageEncoderSettingsPb@Base 5.0.1
 _ZNK19QCameraImageCapture21imageCodecDescriptionERK7QString@Base 5.0.1
 _ZNK19QCameraImageCapture22supportedBufferFormatsEv@Base 5.0.1
 _ZNK19QCameraImageCapture29isCaptureDestinationSupportedE6QFlagsINS_18CaptureDestinationEE@Base 5.0.1
 _ZNK19QCameraImageCapture5errorEv@Base 5.0.1
 _ZNK19QCameraLocksControl10metaObjectEv@Base 5.0.1
 _ZNK19QMediaPlayerControl10metaObjectEv@Base 5.0.1
 _ZNK19QPlaylistFileParser10metaObjectEv@Base 5.0.1
 _ZNK19QVideoSurfaceFormat10frameWidthEv@Base 5.0.1
 _ZNK19QVideoSurfaceFormat10handleTypeEv@Base 5.0.1
 _ZNK19QVideoSurfaceFormat11frameHeightEv@Base 5.0.1
 _ZNK19QVideoSurfaceFormat11pixelFormatEv@Base 5.0.1
 _ZNK19QVideoSurfaceFormat13propertyNamesEv@Base 5.0.1
 _ZNK19QVideoSurfaceFormat15yCbCrColorSpaceEv@Base 5.0.1
 _ZNK19QVideoSurfaceFormat16pixelAspectRatioEv@Base 5.0.1
 _ZNK19QVideoSurfaceFormat17scanLineDirectionEv@Base 5.0.1
 _ZNK19QVideoSurfaceFormat7isValidEv@Base 5.0.1
 _ZNK19QVideoSurfaceFormat8propertyEPKc@Base 5.0.1
 _ZNK19QVideoSurfaceFormat8sizeHintEv@Base 5.0.1
 _ZNK19QVideoSurfaceFormat8viewportEv@Base 5.0.1
 _ZNK19QVideoSurfaceFormat9frameRateEv@Base 5.0.1
 _ZNK19QVideoSurfaceFormat9frameSizeEv@Base 5.0.1
 _ZNK19QVideoSurfaceFormateqERKS_@Base 5.0.1
 _ZNK19QVideoSurfaceFormatneERKS_@Base 5.0.1
 _ZNK19QVideoWindowControl10metaObjectEv@Base 5.0.1
 _ZNK20QAbstractAudioOutput10metaObjectEv@Base 5.0.1
 _ZNK20QAbstractVideoBuffer10handleTypeEv@Base 5.0.1
 _ZNK20QAbstractVideoBuffer6handleEv@Base 5.0.1
 _ZNK20QAudioDecoderControl10metaObjectEv@Base 5.0.1
 _ZNK20QImageEncoderControl10metaObjectEv@Base 5.0.1
 _ZNK20QMediaStreamsControl10metaObjectEv@Base 5.0.1
 _ZNK21QAbstractVideoSurface10metaObjectEv@Base 5.0.1
 _ZNK21QAbstractVideoSurface13nearestFormatERK19QVideoSurfaceFormat@Base 5.0.1
 _ZNK21QAbstractVideoSurface13surfaceFormatEv@Base 5.0.1
 _ZNK21QAbstractVideoSurface16nativeResolutionEv@Base 5.0.1
 _ZNK21QAbstractVideoSurface17isFormatSupportedERK19QVideoSurfaceFormat@Base 5.0.1
 _ZNK21QAbstractVideoSurface5errorEv@Base 5.0.1
 _ZNK21QAbstractVideoSurface8isActiveEv@Base 5.0.1
 _ZNK21QAudioEncoderSettings10sampleRateEv@Base 5.0.1
 _ZNK21QAudioEncoderSettings12channelCountEv@Base 5.0.1
 _ZNK21QAudioEncoderSettings12encodingModeEv@Base 5.0.1
 _ZNK21QAudioEncoderSettings14encodingOptionERK7QString@Base 5.0.1
 _ZNK21QAudioEncoderSettings15encodingOptionsEv@Base 5.0.1
 _ZNK21QAudioEncoderSettings5codecEv@Base 5.0.1
 _ZNK21QAudioEncoderSettings6isNullEv@Base 5.0.1
 _ZNK21QAudioEncoderSettings7bitRateEv@Base 5.0.1
 _ZNK21QAudioEncoderSettings7qualityEv@Base 5.0.1
 _ZNK21QAudioEncoderSettingseqERKS_@Base 5.0.1
 _ZNK21QAudioEncoderSettingsneERKS_@Base 5.0.1
 _ZNK21QImageEncoderSettings10resolutionEv@Base 5.0.1
 _ZNK21QImageEncoderSettings14encodingOptionERK7QString@Base 5.0.1
 _ZNK21QImageEncoderSettings15encodingOptionsEv@Base 5.0.1
 _ZNK21QImageEncoderSettings5codecEv@Base 5.0.1
 _ZNK21QImageEncoderSettings6isNullEv@Base 5.0.1
 _ZNK21QImageEncoderSettings7qualityEv@Base 5.0.1
 _ZNK21QImageEncoderSettingseqERKS_@Base 5.0.1
 _ZNK21QImageEncoderSettingsneERKS_@Base 5.0.1
 _ZNK21QMediaPlaylistControl10metaObjectEv@Base 5.0.1
 _ZNK21QMediaRecorderControl10metaObjectEv@Base 5.0.1
 _ZNK21QMediaServiceProvider10hasSupportERK10QByteArrayRK7QStringRK11QStringListi@Base 5.0.1
 _ZNK21QMediaServiceProvider10metaObjectEv@Base 5.0.1
 _ZNK21QMediaServiceProvider18supportedMimeTypesERK10QByteArrayi@Base 5.0.1
 _ZNK21QMediaServiceProvider7devicesERK10QByteArray@Base 5.0.1
 _ZNK21QVideoEncoderSettings10resolutionEv@Base 5.0.1
 _ZNK21QVideoEncoderSettings12encodingModeEv@Base 5.0.1
 _ZNK21QVideoEncoderSettings14encodingOptionERK7QString@Base 5.0.1
 _ZNK21QVideoEncoderSettings15encodingOptionsEv@Base 5.0.1
 _ZNK21QVideoEncoderSettings5codecEv@Base 5.0.1
 _ZNK21QVideoEncoderSettings6isNullEv@Base 5.0.1
 _ZNK21QVideoEncoderSettings7bitRateEv@Base 5.0.1
 _ZNK21QVideoEncoderSettings7qualityEv@Base 5.0.1
 _ZNK21QVideoEncoderSettings9frameRateEv@Base 5.0.1
 _ZNK21QVideoEncoderSettingseqERKS_@Base 5.0.1
 _ZNK21QVideoEncoderSettingsneERKS_@Base 5.0.1
 _ZNK21QVideoRendererControl10metaObjectEv@Base 5.0.1
 _ZNK22QCameraExposureControl10metaObjectEv@Base 5.0.1
 _ZNK22QCameraFeedbackControl10metaObjectEv@Base 5.0.1
 _ZNK22QCameraImageProcessing10metaObjectEv@Base 5.0.1
 _ZNK22QCameraImageProcessing10saturationEv@Base 5.0.1
 _ZNK22QCameraImageProcessing11isAvailableEv@Base 5.0.1
 _ZNK22QCameraImageProcessing14denoisingLevelEv@Base 5.0.1
 _ZNK22QCameraImageProcessing15sharpeningLevelEv@Base 5.0.1
 _ZNK22QCameraImageProcessing16whiteBalanceModeEv@Base 5.0.1
 _ZNK22QCameraImageProcessing18manualWhiteBalanceEv@Base 5.0.1
 _ZNK22QCameraImageProcessing27isWhiteBalanceModeSupportedENS_16WhiteBalanceModeE@Base 5.0.1
 _ZNK22QCameraImageProcessing8contrastEv@Base 5.0.1
 _ZNK22QMediaContainerControl10metaObjectEv@Base 5.0.1
 _ZNK22QMediaPlaylistIOPlugin10metaObjectEv@Base 5.0.1
 _ZNK22QMediaPlaylistProvider10isReadOnlyEv@Base 5.0.1
 _ZNK22QMediaPlaylistProvider10metaObjectEv@Base 5.0.1
 _ZNK22QMetaDataReaderControl10metaObjectEv@Base 5.0.1
 _ZNK22QMetaDataWriterControl10metaObjectEv@Base 5.0.1
 _ZNK23QMediaAudioProbeControl10metaObjectEv@Base 5.0.1
 _ZNK23QMediaPlaylistNavigator10metaObjectEv@Base 5.0.1
 _ZNK23QMediaPlaylistNavigator11currentItemEv@Base 5.0.1
 _ZNK23QMediaPlaylistNavigator12currentIndexEv@Base 5.0.1
 _ZNK23QMediaPlaylistNavigator12playbackModeEv@Base 5.0.1
 _ZNK23QMediaPlaylistNavigator12previousItemEi@Base 5.0.1
 _ZNK23QMediaPlaylistNavigator13previousIndexEi@Base 5.0.1
 _ZNK23QMediaPlaylistNavigator6itemAtEi@Base 5.0.1
 _ZNK23QMediaPlaylistNavigator8nextItemEi@Base 5.0.1
 _ZNK23QMediaPlaylistNavigator8playlistEv@Base 5.0.1
 _ZNK23QMediaPlaylistNavigator9nextIndexEi@Base 5.0.1
 _ZNK23QMediaVideoProbeControl10metaObjectEv@Base 5.0.1
 _ZNK24QAbstractAudioDeviceInfo10metaObjectEv@Base 5.0.1
 _ZNK25QMediaAvailabilityControl10metaObjectEv@Base 5.0.1
 _ZNK25QMediaServiceProviderHint4typeEv@Base 5.0.1
 _ZNK25QMediaServiceProviderHint6codecsEv@Base 5.0.1
 _ZNK25QMediaServiceProviderHint6deviceEv@Base 5.0.1
 _ZNK25QMediaServiceProviderHint6isNullEv@Base 5.0.1
 _ZNK25QMediaServiceProviderHint8featuresEv@Base 5.0.1
 _ZNK25QMediaServiceProviderHint8mimeTypeEv@Base 5.0.1
 _ZNK25QMediaServiceProviderHinteqERKS_@Base 5.0.1
 _ZNK25QMediaServiceProviderHintneERKS_@Base 5.0.1
 _ZNK26QAudioInputSelectorControl10metaObjectEv@Base 5.0.1
 _ZNK26QCameraImageCaptureControl10metaObjectEv@Base 5.0.1
 _ZNK26QMediaNetworkAccessControl10metaObjectEv@Base 5.0.1
 _ZNK26QMediaResourcePolicyPlugin10metaObjectEv@Base 5.0.1
 _ZNK27QAudioOutputSelectorControl10metaObjectEv@Base 5.0.1
 _ZNK27QMediaPlaylistSourceControl10metaObjectEv@Base 5.0.1
 _ZNK27QMediaServiceProviderPlugin10metaObjectEv@Base 5.0.1
 _ZNK27QVideoDeviceSelectorControl10metaObjectEv@Base 5.0.1
 _ZNK28QAudioEncoderSettingsControl10metaObjectEv@Base 5.0.1
 _ZNK28QMediaGaplessPlaybackControl10metaObjectEv@Base 5.0.1
 _ZNK28QVideoEncoderSettingsControl10metaObjectEv@Base 5.0.1
 _ZNK29QCameraImageProcessingControl10metaObjectEv@Base 5.0.1
 _ZNK29QMediaNetworkPlaylistProvider10isReadOnlyEv@Base 5.0.1
 _ZNK29QMediaNetworkPlaylistProvider10mediaCountEv@Base 5.0.1
 _ZNK29QMediaNetworkPlaylistProvider10metaObjectEv@Base 5.0.1
 _ZNK29QMediaNetworkPlaylistProvider5mediaEi@Base 5.0.1
 _ZNK32QCameraCaptureDestinationControl10metaObjectEv@Base 5.0.1
 _ZNK32QCameraViewfinderSettingsControl10metaObjectEv@Base 5.0.1
 _ZNK32QMediaPlayerResourceSetInterface10metaObjectEv@Base 5.0.1
 _ZNK33QCameraCaptureBufferFormatControl10metaObjectEv@Base 5.0.1
 _ZNK6QSound10isFinishedEv@Base 5.0.1
 _ZNK6QSound10metaObjectEv@Base 5.0.1
 _ZNK6QSound14loopsRemainingEv@Base 5.0.1
 _ZNK6QSound5loopsEv@Base 5.0.1
 _ZNK6QSound8fileNameEv@Base 5.0.1
 _ZNK7QCamera10lockStatusENS_8LockTypeE@Base 5.0.1
 _ZNK7QCamera10lockStatusEv@Base 5.0.1
 _ZNK7QCamera10metaObjectEv@Base 5.0.1
 _ZNK7QCamera11captureModeEv@Base 5.0.1
 _ZNK7QCamera11errorStringEv@Base 5.0.1
 _ZNK7QCamera12availabilityEv@Base 5.0.1
 _ZNK7QCamera14requestedLocksEv@Base 5.0.1
 _ZNK7QCamera14supportedLocksEv@Base 5.0.1
 _ZNK7QCamera15imageProcessingEv@Base 5.0.1
 _ZNK7QCamera22isCaptureModeSupportedE6QFlagsINS_11CaptureModeEE@Base 5.0.1
 _ZNK7QCamera5errorEv@Base 5.0.1
 _ZNK7QCamera5focusEv@Base 5.0.1
 _ZNK7QCamera5stateEv@Base 5.0.1
 _ZNK7QCamera6statusEv@Base 5.0.1
 _ZNK7QCamera8exposureEv@Base 5.0.1
 _ZNK7QSample10metaObjectEv@Base 5.0.1
 _ZNK7QSample5stateEv@Base 5.0.1
 _ZTI10QRadioData@Base 5.0.1
 _ZTI11QAudioInput@Base 5.0.1
 _ZTI11QAudioProbe@Base 5.0.1
 _ZTI11QRadioTuner@Base 5.0.1
 _ZTI11QVideoProbe@Base 5.0.1
 _ZTI12QAudioOutput@Base 5.0.1
 _ZTI12QCameraFocus@Base 5.0.1
 _ZTI12QMediaObject@Base 5.0.1
 _ZTI12QMediaPlayer@Base 5.0.1
 _ZTI12QSampleCache@Base 5.0.1
 _ZTI12QSoundEffect@Base 5.0.1
 _ZTI13QAudioDecoder@Base 5.0.1
 _ZTI13QMediaControl@Base 5.0.1
 _ZTI13QMediaService@Base 5.0.1
 _ZTI14QAudioRecorder@Base 5.0.1
 _ZTI14QCameraControl@Base 5.0.1
 _ZTI14QMediaPlaylist@Base 5.0.1
 _ZTI14QMediaRecorder@Base 5.0.1
 _ZTI15QCameraExposure@Base 5.0.1
 _ZTI17QImageVideoBuffer@Base 5.0.1
 _ZTI17QRadioDataControl@Base 5.0.1
 _ZTI18QAudioSystemPlugin@Base 5.0.1
 _ZTI18QCameraZoomControl@Base 5.0.1
 _ZTI18QMemoryVideoBuffer@Base 5.0.1
 _ZTI18QRadioTunerControl@Base 5.0.1
 _ZTI19QAbstractAudioInput@Base 5.0.1
 _ZTI19QCameraFlashControl@Base 5.0.1
 _ZTI19QCameraFocusControl@Base 5.0.1
 _ZTI19QCameraImageCapture@Base 5.0.1
 _ZTI19QCameraLocksControl@Base 5.0.1
 _ZTI19QMediaPlayerControl@Base 5.0.1
 _ZTI19QPlaylistFileParser@Base 5.0.1
 _ZTI19QVideoWindowControl@Base 5.0.1
 _ZTI20QAbstractAudioBuffer@Base 5.0.1
 _ZTI20QAbstractAudioOutput@Base 5.0.1
 _ZTI20QAbstractVideoBuffer@Base 5.0.1
 _ZTI20QAudioDecoderControl@Base 5.0.1
 _ZTI20QImageEncoderControl@Base 5.0.1
 _ZTI20QMediaPlaylistReader@Base 5.0.1
 _ZTI20QMediaPlaylistWriter@Base 5.0.1
 _ZTI20QMediaStreamsControl@Base 5.0.1
 _ZTI21QAbstractVideoSurface@Base 5.0.1
 _ZTI21QMediaPlaylistControl@Base 5.0.1
 _ZTI21QMediaRecorderControl@Base 5.0.1
 _ZTI21QMediaServiceProvider@Base 5.0.1
 _ZTI21QVideoRendererControl@Base 5.0.1
 _ZTI22QCameraExposureControl@Base 5.0.1
 _ZTI22QCameraFeedbackControl@Base 5.0.1
 _ZTI22QCameraImageProcessing@Base 5.0.1
 _ZTI22QMediaContainerControl@Base 5.0.1
 _ZTI22QMediaPlaylistIOPlugin@Base 5.0.1
 _ZTI22QMediaPlaylistProvider@Base 5.0.1
 _ZTI22QMetaDataReaderControl@Base 5.0.1
 _ZTI22QMetaDataWriterControl@Base 5.0.1
 _ZTI23QMediaAudioProbeControl@Base 5.0.1
 _ZTI23QMediaBindableInterface@Base 5.0.1
 _ZTI23QMediaPlaylistNavigator@Base 5.0.1
 _ZTI23QMediaVideoProbeControl@Base 5.0.1
 _ZTI24QAbstractAudioDeviceInfo@Base 5.0.1
 _ZTI25QMediaAvailabilityControl@Base 5.0.1
 _ZTI25QMediaPlaylistIOInterface@Base 5.0.1
 _ZTI26QAudioInputSelectorControl@Base 5.0.1
 _ZTI26QCameraImageCaptureControl@Base 5.0.1
 _ZTI26QMediaNetworkAccessControl@Base 5.0.1
 _ZTI26QMediaResourcePolicyPlugin@Base 5.0.1
 _ZTI27QAudioOutputSelectorControl@Base 5.0.1
 _ZTI27QMediaPlaylistSourceControl@Base 5.0.1
 _ZTI27QMediaServiceProviderPlugin@Base 5.0.1
 _ZTI27QVideoDeviceSelectorControl@Base 5.0.1
 _ZTI28QAudioEncoderSettingsControl@Base 5.0.1
 _ZTI28QAudioSystemFactoryInterface@Base 5.0.1
 _ZTI28QMediaGaplessPlaybackControl@Base 5.0.1
 _ZTI28QVideoEncoderSettingsControl@Base 5.0.1
 _ZTI29QCameraImageProcessingControl@Base 5.0.1
 _ZTI29QMediaNetworkPlaylistProvider@Base 5.0.1
 _ZTI32QCameraCaptureDestinationControl@Base 5.0.1
 _ZTI32QCameraViewfinderSettingsControl@Base 5.0.1
 _ZTI32QMediaPlayerResourceSetInterface@Base 5.0.1
 _ZTI33QCameraCaptureBufferFormatControl@Base 5.0.1
 _ZTI33QMediaResourceSetFactoryInterface@Base 5.0.1
 _ZTI37QMediaServiceProviderFactoryInterface@Base 5.0.1
 _ZTI6QSound@Base 5.0.1
 _ZTI7QCamera@Base 5.0.1
 _ZTI7QSample@Base 5.0.1
 _ZTS10QRadioData@Base 5.0.1
 _ZTS11QAudioInput@Base 5.0.1
 _ZTS11QAudioProbe@Base 5.0.1
 _ZTS11QRadioTuner@Base 5.0.1
 _ZTS11QVideoProbe@Base 5.0.1
 _ZTS12QAudioOutput@Base 5.0.1
 _ZTS12QCameraFocus@Base 5.0.1
 _ZTS12QMediaObject@Base 5.0.1
 _ZTS12QMediaPlayer@Base 5.0.1
 _ZTS12QSampleCache@Base 5.0.1
 _ZTS12QSoundEffect@Base 5.0.1
 _ZTS13QAudioDecoder@Base 5.0.1
 _ZTS13QMediaControl@Base 5.0.1
 _ZTS13QMediaService@Base 5.0.1
 _ZTS14QAudioRecorder@Base 5.0.1
 _ZTS14QCameraControl@Base 5.0.1
 _ZTS14QMediaPlaylist@Base 5.0.1
 _ZTS14QMediaRecorder@Base 5.0.1
 _ZTS15QCameraExposure@Base 5.0.1
 _ZTS17QImageVideoBuffer@Base 5.0.1
 _ZTS17QRadioDataControl@Base 5.0.1
 _ZTS18QAudioSystemPlugin@Base 5.0.1
 _ZTS18QCameraZoomControl@Base 5.0.1
 _ZTS18QMemoryVideoBuffer@Base 5.0.1
 _ZTS18QRadioTunerControl@Base 5.0.1
 _ZTS19QAbstractAudioInput@Base 5.0.1
 _ZTS19QCameraFlashControl@Base 5.0.1
 _ZTS19QCameraFocusControl@Base 5.0.1
 _ZTS19QCameraImageCapture@Base 5.0.1
 _ZTS19QCameraLocksControl@Base 5.0.1
 _ZTS19QMediaPlayerControl@Base 5.0.1
 _ZTS19QPlaylistFileParser@Base 5.0.1
 _ZTS19QVideoWindowControl@Base 5.0.1
 _ZTS20QAbstractAudioBuffer@Base 5.0.1
 _ZTS20QAbstractAudioOutput@Base 5.0.1
 _ZTS20QAbstractVideoBuffer@Base 5.0.1
 _ZTS20QAudioDecoderControl@Base 5.0.1
 _ZTS20QImageEncoderControl@Base 5.0.1
 _ZTS20QMediaPlaylistReader@Base 5.0.1
 _ZTS20QMediaPlaylistWriter@Base 5.0.1
 _ZTS20QMediaStreamsControl@Base 5.0.1
 _ZTS21QAbstractVideoSurface@Base 5.0.1
 _ZTS21QMediaPlaylistControl@Base 5.0.1
 _ZTS21QMediaRecorderControl@Base 5.0.1
 _ZTS21QMediaServiceProvider@Base 5.0.1
 _ZTS21QVideoRendererControl@Base 5.0.1
 _ZTS22QCameraExposureControl@Base 5.0.1
 _ZTS22QCameraFeedbackControl@Base 5.0.1
 _ZTS22QCameraImageProcessing@Base 5.0.1
 _ZTS22QMediaContainerControl@Base 5.0.1
 _ZTS22QMediaPlaylistIOPlugin@Base 5.0.1
 _ZTS22QMediaPlaylistProvider@Base 5.0.1
 _ZTS22QMetaDataReaderControl@Base 5.0.1
 _ZTS22QMetaDataWriterControl@Base 5.0.1
 _ZTS23QMediaAudioProbeControl@Base 5.0.1
 _ZTS23QMediaBindableInterface@Base 5.0.1
 _ZTS23QMediaPlaylistNavigator@Base 5.0.1
 _ZTS23QMediaVideoProbeControl@Base 5.0.1
 _ZTS24QAbstractAudioDeviceInfo@Base 5.0.1
 _ZTS25QMediaAvailabilityControl@Base 5.0.1
 _ZTS25QMediaPlaylistIOInterface@Base 5.0.1
 _ZTS26QAudioInputSelectorControl@Base 5.0.1
 _ZTS26QCameraImageCaptureControl@Base 5.0.1
 _ZTS26QMediaNetworkAccessControl@Base 5.0.1
 _ZTS26QMediaResourcePolicyPlugin@Base 5.0.1
 _ZTS27QAudioOutputSelectorControl@Base 5.0.1
 _ZTS27QMediaPlaylistSourceControl@Base 5.0.1
 _ZTS27QMediaServiceProviderPlugin@Base 5.0.1
 _ZTS27QVideoDeviceSelectorControl@Base 5.0.1
 _ZTS28QAudioEncoderSettingsControl@Base 5.0.1
 _ZTS28QAudioSystemFactoryInterface@Base 5.0.1
 _ZTS28QMediaGaplessPlaybackControl@Base 5.0.1
 _ZTS28QVideoEncoderSettingsControl@Base 5.0.1
 _ZTS29QCameraImageProcessingControl@Base 5.0.1
 _ZTS29QMediaNetworkPlaylistProvider@Base 5.0.1
 _ZTS32QCameraCaptureDestinationControl@Base 5.0.1
 _ZTS32QCameraViewfinderSettingsControl@Base 5.0.1
 _ZTS32QMediaPlayerResourceSetInterface@Base 5.0.1
 _ZTS33QCameraCaptureBufferFormatControl@Base 5.0.1
 _ZTS33QMediaResourceSetFactoryInterface@Base 5.0.1
 _ZTS37QMediaServiceProviderFactoryInterface@Base 5.0.1
 _ZTS6QSound@Base 5.0.1
 _ZTS7QCamera@Base 5.0.1
 _ZTS7QSample@Base 5.0.1
 _ZTV10QRadioData@Base 5.0.1
 _ZTV11QAudioInput@Base 5.0.1
 _ZTV11QAudioProbe@Base 5.0.1
 _ZTV11QRadioTuner@Base 5.0.1
 _ZTV11QVideoProbe@Base 5.0.1
 _ZTV12QAudioOutput@Base 5.0.1
 _ZTV12QCameraFocus@Base 5.0.1
 _ZTV12QMediaObject@Base 5.0.1
 _ZTV12QMediaPlayer@Base 5.0.1
 _ZTV12QSampleCache@Base 5.0.1
 _ZTV12QSoundEffect@Base 5.0.1
 _ZTV13QAudioDecoder@Base 5.0.1
 _ZTV13QMediaControl@Base 5.0.1
 _ZTV13QMediaService@Base 5.0.1
 _ZTV14QAudioRecorder@Base 5.0.1
 _ZTV14QCameraControl@Base 5.0.1
 _ZTV14QMediaPlaylist@Base 5.0.1
 _ZTV14QMediaRecorder@Base 5.0.1
 _ZTV15QCameraExposure@Base 5.0.1
 _ZTV17QImageVideoBuffer@Base 5.0.1
 _ZTV17QRadioDataControl@Base 5.0.1
 _ZTV18QAudioSystemPlugin@Base 5.0.1
 _ZTV18QCameraZoomControl@Base 5.0.1
 _ZTV18QMemoryVideoBuffer@Base 5.0.1
 _ZTV18QRadioTunerControl@Base 5.0.1
 _ZTV19QAbstractAudioInput@Base 5.0.1
 _ZTV19QCameraFlashControl@Base 5.0.1
 _ZTV19QCameraFocusControl@Base 5.0.1
 _ZTV19QCameraImageCapture@Base 5.0.1
 _ZTV19QCameraLocksControl@Base 5.0.1
 _ZTV19QMediaPlayerControl@Base 5.0.1
 _ZTV19QPlaylistFileParser@Base 5.0.1
 _ZTV19QVideoWindowControl@Base 5.0.1
 _ZTV20QAbstractAudioBuffer@Base 5.0.1
 _ZTV20QAbstractAudioOutput@Base 5.0.1
 _ZTV20QAbstractVideoBuffer@Base 5.0.1
 _ZTV20QAudioDecoderControl@Base 5.0.1
 _ZTV20QImageEncoderControl@Base 5.0.1
 _ZTV20QMediaPlaylistReader@Base 5.0.1
 _ZTV20QMediaPlaylistWriter@Base 5.0.1
 _ZTV20QMediaStreamsControl@Base 5.0.1
 _ZTV21QAbstractVideoSurface@Base 5.0.1
 _ZTV21QMediaPlaylistControl@Base 5.0.1
 _ZTV21QMediaRecorderControl@Base 5.0.1
 _ZTV21QMediaServiceProvider@Base 5.0.1
 _ZTV21QVideoRendererControl@Base 5.0.1
 _ZTV22QCameraExposureControl@Base 5.0.1
 _ZTV22QCameraFeedbackControl@Base 5.0.1
 _ZTV22QCameraImageProcessing@Base 5.0.1
 _ZTV22QMediaContainerControl@Base 5.0.1
 _ZTV22QMediaPlaylistIOPlugin@Base 5.0.1
 _ZTV22QMediaPlaylistProvider@Base 5.0.1
 _ZTV22QMetaDataReaderControl@Base 5.0.1
 _ZTV22QMetaDataWriterControl@Base 5.0.1
 _ZTV23QMediaAudioProbeControl@Base 5.0.1
 _ZTV23QMediaBindableInterface@Base 5.0.1
 _ZTV23QMediaPlaylistNavigator@Base 5.0.1
 _ZTV23QMediaVideoProbeControl@Base 5.0.1
 _ZTV24QAbstractAudioDeviceInfo@Base 5.0.1
 _ZTV25QMediaAvailabilityControl@Base 5.0.1
 _ZTV25QMediaPlaylistIOInterface@Base 5.0.1
 _ZTV26QAudioInputSelectorControl@Base 5.0.1
 _ZTV26QCameraImageCaptureControl@Base 5.0.1
 _ZTV26QMediaNetworkAccessControl@Base 5.0.1
 _ZTV26QMediaResourcePolicyPlugin@Base 5.0.1
 _ZTV27QAudioOutputSelectorControl@Base 5.0.1
 _ZTV27QMediaPlaylistSourceControl@Base 5.0.1
 _ZTV27QMediaServiceProviderPlugin@Base 5.0.1
 _ZTV27QVideoDeviceSelectorControl@Base 5.0.1
 _ZTV28QAudioEncoderSettingsControl@Base 5.0.1
 _ZTV28QAudioSystemFactoryInterface@Base 5.0.1
 _ZTV28QMediaGaplessPlaybackControl@Base 5.0.1
 _ZTV28QVideoEncoderSettingsControl@Base 5.0.1
 _ZTV29QCameraImageProcessingControl@Base 5.0.1
 _ZTV29QMediaNetworkPlaylistProvider@Base 5.0.1
 _ZTV32QCameraCaptureDestinationControl@Base 5.0.1
 _ZTV32QCameraViewfinderSettingsControl@Base 5.0.1
 _ZTV32QMediaPlayerResourceSetInterface@Base 5.0.1
 _ZTV33QCameraCaptureBufferFormatControl@Base 5.0.1
 _ZTV33QMediaResourceSetFactoryInterface@Base 5.0.1
 _ZTV37QMediaServiceProviderFactoryInterface@Base 5.0.1
 _ZTV6QSound@Base 5.0.1
 _ZTV7QCamera@Base 5.0.1
 _ZTV7QSample@Base 5.0.1
 _ZThn16_N10QRadioData14setMediaObjectEP12QMediaObject@Base 5.0.1
 _ZThn16_N10QRadioDataD0Ev@Base 5.0.1
 _ZThn16_N10QRadioDataD1Ev@Base 5.0.1
 _ZThn16_N14QAudioRecorderD0Ev@Base 5.0.1
 _ZThn16_N14QAudioRecorderD1Ev@Base 5.0.1
 _ZThn16_N14QMediaPlaylist14setMediaObjectEP12QMediaObject@Base 5.0.1
 _ZThn16_N14QMediaPlaylistD0Ev@Base 5.0.1
 _ZThn16_N14QMediaPlaylistD1Ev@Base 5.0.1
 _ZThn16_N14QMediaRecorder14setMediaObjectEP12QMediaObject@Base 5.0.1
 _ZThn16_N14QMediaRecorderD0Ev@Base 5.0.1
 _ZThn16_N14QMediaRecorderD1Ev@Base 5.0.1
 _ZThn16_N18QAudioSystemPluginD0Ev@Base 5.0.1
 _ZThn16_N18QAudioSystemPluginD1Ev@Base 5.0.1
 _ZThn16_N19QCameraImageCapture14setMediaObjectEP12QMediaObject@Base 5.0.1
 _ZThn16_N19QCameraImageCaptureD0Ev@Base 5.0.1
 _ZThn16_N19QCameraImageCaptureD1Ev@Base 5.0.1
 _ZThn16_N27QMediaServiceProviderPluginD0Ev@Base 5.0.1
 _ZThn16_N27QMediaServiceProviderPluginD1Ev@Base 5.0.1
 _ZThn16_NK10QRadioData11mediaObjectEv@Base 5.0.1
 _ZThn16_NK14QMediaPlaylist11mediaObjectEv@Base 5.0.1
 _ZThn16_NK14QMediaRecorder11mediaObjectEv@Base 5.0.1
 _ZThn16_NK19QCameraImageCapture11mediaObjectEv@Base 5.0.1
 _ZeqRK15QMediaTimeRangeS1_@Base 5.0.1
 _ZeqRK18QMediaTimeIntervalS1_@Base 5.0.1
 _Zls6QDebugN11QVideoFrame11PixelFormatE@Base 5.0.1
 _Zls6QDebugN11QVideoFrame9FieldTypeE@Base 5.0.1
 _Zls6QDebugN12QAudioFormat10SampleTypeE@Base 5.0.1
 _Zls6QDebugN12QAudioFormat6EndianE@Base 5.0.1
 _Zls6QDebugN19QVideoSurfaceFormat15YCbCrColorSpaceE@Base 5.0.1
 _Zls6QDebugN19QVideoSurfaceFormat9DirectionE@Base 5.0.1
 _Zls6QDebugN20QAbstractVideoBuffer10HandleTypeE@Base 5.0.1
 _Zls6QDebugN20QAbstractVideoBuffer7MapModeE@Base 5.0.1
 _Zls6QDebugN6QAudio4ModeE@Base 5.0.1
 _Zls6QDebugN6QAudio5ErrorE@Base 5.0.1
 _Zls6QDebugN6QAudio5StateE@Base 5.0.1
 _Zls6QDebugRK11QVideoFrame@Base 5.0.1
 _Zls6QDebugRK12QAudioFormat@Base 5.0.1
 _Zls6QDebugRK15QMediaTimeRange@Base 5.0.1
 _Zls6QDebugRK19QVideoSurfaceFormat@Base 5.0.1
 _Zls6QDebugRKN21QAbstractVideoSurface5ErrorE@Base 5.0.1
 _ZmiRK15QMediaTimeRangeS1_@Base 5.0.1
 _ZneRK15QMediaTimeRangeS1_@Base 5.0.1
 _ZneRK18QMediaTimeIntervalS1_@Base 5.0.1
 _ZplRK15QMediaTimeRangeS1_@Base 5.0.1
libQt5MultimediaWidgets.so.5 libqtcore5 #MINVER#
 _ZN12QVideoWidget10hueChangedEi@Base 5.0.1
 _ZN12QVideoWidget10paintEventEP11QPaintEvent@Base 5.0.1
 _ZN12QVideoWidget11qt_metacallEN11QMetaObject4CallEiPPv@Base 5.0.1
 _ZN12QVideoWidget11qt_metacastEPKc@Base 5.0.1
 _ZN12QVideoWidget11resizeEventEP12QResizeEvent@Base 5.0.1
 _ZN12QVideoWidget11setContrastEi@Base 5.0.1
 _ZN12QVideoWidget13setBrightnessEi@Base 5.0.1
 _ZN12QVideoWidget13setFullScreenEb@Base 5.0.1
 _ZN12QVideoWidget13setSaturationEi@Base 5.0.1
 _ZN12QVideoWidget14setMediaObjectEP12QMediaObject@Base 5.0.1
 _ZN12QVideoWidget15contrastChangedEi@Base 5.0.1
 _ZN12QVideoWidget16staticMetaObjectE@Base 5.0.1
 _ZN12QVideoWidget17brightnessChangedEi@Base 5.0.1
 _ZN12QVideoWidget17fullScreenChangedEb@Base 5.0.1
 _ZN12QVideoWidget17saturationChangedEi@Base 5.0.1
 _ZN12QVideoWidget18setAspectRatioModeEN2Qt15AspectRatioModeE@Base 5.0.1
 _ZN12QVideoWidget5eventEP6QEvent@Base 5.0.1
 _ZN12QVideoWidget6setHueEi@Base 5.0.1
 _ZN12QVideoWidget9hideEventEP10QHideEvent@Base 5.0.1
 _ZN12QVideoWidget9moveEventEP10QMoveEvent@Base 5.0.1
 _ZN12QVideoWidget9showEventEP10QShowEvent@Base 5.0.1
 _ZN12QVideoWidgetC1EP7QWidget@Base 5.0.1
 _ZN12QVideoWidgetC1ER19QVideoWidgetPrivateP7QWidget@Base 5.0.1
 _ZN12QVideoWidgetC2EP7QWidget@Base 5.0.1
 _ZN12QVideoWidgetC2ER19QVideoWidgetPrivateP7QWidget@Base 5.0.1
 _ZN12QVideoWidgetD0Ev@Base 5.0.1
 _ZN12QVideoWidgetD1Ev@Base 5.0.1
 _ZN12QVideoWidgetD2Ev@Base 5.0.1
 _ZN17QCameraViewfinder11qt_metacallEN11QMetaObject4CallEiPPv@Base 5.0.1
 _ZN17QCameraViewfinder11qt_metacastEPKc@Base 5.0.1
 _ZN17QCameraViewfinder14setMediaObjectEP12QMediaObject@Base 5.0.1
 _ZN17QCameraViewfinder16staticMetaObjectE@Base 5.0.1
 _ZN17QCameraViewfinderC1EP7QWidget@Base 5.0.1
 _ZN17QCameraViewfinderC2EP7QWidget@Base 5.0.1
 _ZN17QCameraViewfinderD0Ev@Base 5.0.1
 _ZN17QCameraViewfinderD1Ev@Base 5.0.1
 _ZN17QCameraViewfinderD2Ev@Base 5.0.1
 _ZN18QGraphicsVideoItem10itemChangeEN13QGraphicsItem18GraphicsItemChangeERK8QVariant@Base 5.0.1
 _ZN18QGraphicsVideoItem10timerEventEP11QTimerEvent@Base 5.0.1
 _ZN18QGraphicsVideoItem11qt_metacallEN11QMetaObject4CallEiPPv@Base 5.0.1
 _ZN18QGraphicsVideoItem11qt_metacastEPKc@Base 5.0.1
 _ZN18QGraphicsVideoItem14setMediaObjectEP12QMediaObject@Base 5.0.1
 _ZN18QGraphicsVideoItem16staticMetaObjectE@Base 5.0.1
 _ZN18QGraphicsVideoItem17nativeSizeChangedERK6QSizeF@Base 5.0.1
 _ZN18QGraphicsVideoItem18setAspectRatioModeEN2Qt15AspectRatioModeE@Base 5.0.1
 _ZN18QGraphicsVideoItem5paintEP8QPainterPK24QStyleOptionGraphicsItemP7QWidget@Base 5.0.1
 _ZN18QGraphicsVideoItem7setSizeERK6QSizeF@Base 5.0.1
 _ZN18QGraphicsVideoItem9setOffsetERK7QPointF@Base 5.0.1
 _ZN18QGraphicsVideoItemC1EP13QGraphicsItem@Base 5.0.1
 _ZN18QGraphicsVideoItemC2EP13QGraphicsItem@Base 5.0.1
 _ZN18QGraphicsVideoItemD0Ev@Base 5.0.1
 _ZN18QGraphicsVideoItemD1Ev@Base 5.0.1
 _ZN18QGraphicsVideoItemD2Ev@Base 5.0.1
 _ZN19QVideoWidgetControl10hueChangedEi@Base 5.0.1
 _ZN19QVideoWidgetControl11qt_metacallEN11QMetaObject4CallEiPPv@Base 5.0.1
 _ZN19QVideoWidgetControl11qt_metacastEPKc@Base 5.0.1
 _ZN19QVideoWidgetControl15contrastChangedEi@Base 5.0.1
 _ZN19QVideoWidgetControl16staticMetaObjectE@Base 5.0.1
 _ZN19QVideoWidgetControl17brightnessChangedEi@Base 5.0.1
 _ZN19QVideoWidgetControl17fullScreenChangedEb@Base 5.0.1
 _ZN19QVideoWidgetControl17saturationChangedEi@Base 5.0.1
 _ZN19QVideoWidgetControlC1EP7QObject@Base 5.0.1
 _ZN19QVideoWidgetControlC2EP7QObject@Base 5.0.1
 _ZN19QVideoWidgetControlD0Ev@Base 5.0.1
 _ZN19QVideoWidgetControlD1Ev@Base 5.0.1
 _ZN19QVideoWidgetControlD2Ev@Base 5.0.1
 _ZNK12QVideoWidget10brightnessEv@Base 5.0.1
 _ZNK12QVideoWidget10metaObjectEv@Base 5.0.1
 _ZNK12QVideoWidget10saturationEv@Base 5.0.1
 _ZNK12QVideoWidget11mediaObjectEv@Base 5.0.1
 _ZNK12QVideoWidget15aspectRatioModeEv@Base 5.0.1
 _ZNK12QVideoWidget3hueEv@Base 5.0.1
 _ZNK12QVideoWidget8contrastEv@Base 5.0.1
 _ZNK12QVideoWidget8sizeHintEv@Base 5.0.1
 _ZNK17QCameraViewfinder10metaObjectEv@Base 5.0.1
 _ZNK17QCameraViewfinder11mediaObjectEv@Base 5.0.1
 _ZNK18QGraphicsVideoItem10metaObjectEv@Base 5.0.1
 _ZNK18QGraphicsVideoItem10nativeSizeEv@Base 5.0.1
 _ZNK18QGraphicsVideoItem11mediaObjectEv@Base 5.0.1
 _ZNK18QGraphicsVideoItem12boundingRectEv@Base 5.0.1
 _ZNK18QGraphicsVideoItem15aspectRatioModeEv@Base 5.0.1
 _ZNK18QGraphicsVideoItem4sizeEv@Base 5.0.1
 _ZNK18QGraphicsVideoItem6offsetEv@Base 5.0.1
 _ZNK19QVideoWidgetControl10metaObjectEv@Base 5.0.1
 _ZTI12QVideoWidget@Base 5.0.1
 _ZTI17QCameraViewfinder@Base 5.0.1
 _ZTI18QGraphicsVideoItem@Base 5.0.1
 _ZTI19QVideoWidgetControl@Base 5.0.1
 _ZTS12QVideoWidget@Base 5.0.1
 _ZTS17QCameraViewfinder@Base 5.0.1
 _ZTS18QGraphicsVideoItem@Base 5.0.1
 _ZTS19QVideoWidgetControl@Base 5.0.1
 _ZTV12QVideoWidget@Base 5.0.1
 _ZTV17QCameraViewfinder@Base 5.0.1
 _ZTV18QGraphicsVideoItem@Base 5.0.1
 _ZTV19QVideoWidgetControl@Base 5.0.1
 _ZThn16_N12QVideoWidgetD0Ev@Base 5.0.1
 _ZThn16_N12QVideoWidgetD1Ev@Base 5.0.1
 _ZThn16_N17QCameraViewfinderD0Ev@Base 5.0.1
 _ZThn16_N17QCameraViewfinderD1Ev@Base 5.0.1
 _ZThn16_N18QGraphicsVideoItem10itemChangeEN13QGraphicsItem18GraphicsItemChangeERK8QVariant@Base 5.0.1
 _ZThn16_N18QGraphicsVideoItem5paintEP8QPainterPK24QStyleOptionGraphicsItemP7QWidget@Base 5.0.1
 _ZThn16_N18QGraphicsVideoItemD0Ev@Base 5.0.1
 _ZThn16_N18QGraphicsVideoItemD1Ev@Base 5.0.1
 _ZThn16_NK18QGraphicsVideoItem12boundingRectEv@Base 5.0.1
 _ZThn32_N18QGraphicsVideoItem14setMediaObjectEP12QMediaObject@Base 5.0.1
 _ZThn32_N18QGraphicsVideoItemD0Ev@Base 5.0.1
 _ZThn32_N18QGraphicsVideoItemD1Ev@Base 5.0.1
 _ZThn32_NK18QGraphicsVideoItem11mediaObjectEv@Base 5.0.1
 _ZThn48_N12QVideoWidget14setMediaObjectEP12QMediaObject@Base 5.0.1
 _ZThn48_N12QVideoWidgetD0Ev@Base 5.0.1
 _ZThn48_N12QVideoWidgetD1Ev@Base 5.0.1
 _ZThn48_N17QCameraViewfinder14setMediaObjectEP12QMediaObject@Base 5.0.1
 _ZThn48_N17QCameraViewfinderD0Ev@Base 5.0.1
 _ZThn48_N17QCameraViewfinderD1Ev@Base 5.0.1
 _ZThn48_NK12QVideoWidget11mediaObjectEv@Base 5.0.1
 _ZThn48_NK17QCameraViewfinder11mediaObjectEv@Base 5.0.1
libQt5PrintSupport.so.5 libqtcore5 #MINVER#
 _Z19qt_printerPaperSizeN8QPrinter11OrientationEN17QPagedPaintDevice8PageSizeENS_4UnitEi@Base 5.0.1
 _Z20qt_multiplierForUnitN8QPrinter4UnitEi@Base 5.0.1
 _ZN12QCUPSSupport10markOptionEPKcS1_@Base 5.0.1
 _ZN12QCUPSSupport11isAvailableEv@Base 5.0.1
 _ZN12QCUPSSupport11saveOptionsE5QListIPK12ppd_option_sES0_IPKcE@Base 5.0.1
 _ZN12QCUPSSupport13printerHasPPDEPKc@Base 5.0.1
 _ZN12QCUPSSupport13unicodeStringEPKc@Base 5.0.1
 _ZN12QCUPSSupport17setCurrentPrinterEi@Base 5.0.1
 _ZN12QCUPSSupport21availableUnixPrintersEv@Base 5.0.1
 _ZN12QCUPSSupport24getCupsPrinterPaperSizesEi@Base 5.0.1
 _ZN12QCUPSSupport6tempFdEv@Base 5.0.1
 _ZN12QCUPSSupport7PrinterC1ERK7QString@Base 5.0.1
 _ZN12QCUPSSupport7PrinterC2ERK7QString@Base 5.0.1
 _ZN12QCUPSSupport9printFileEPKcS1_S1_iP13cups_option_s@Base 5.0.1
 _ZN12QCUPSSupportC1Ev@Base 5.0.1
 _ZN12QCUPSSupportC2Ev@Base 5.0.1
 _ZN12QCUPSSupportD1Ev@Base 5.0.1
 _ZN12QCUPSSupportD2Ev@Base 5.0.1
 _ZN12QPrintDialog10setOptionsE6QFlagsIN20QAbstractPrintDialog17PrintDialogOptionEE@Base 5.0.1
 _ZN12QPrintDialog10setVisibleEb@Base 5.0.1
 _ZN12QPrintDialog11qt_metacallEN11QMetaObject4CallEiPPv@Base 5.0.1
 _ZN12QPrintDialog11qt_metacastEPKc@Base 5.0.1
 _ZN12QPrintDialog16staticMetaObjectE@Base 5.0.1
 _ZN12QPrintDialog4doneEi@Base 5.0.1
 _ZN12QPrintDialog4execEv@Base 5.0.1
 _ZN12QPrintDialog4openEP7QObjectPKc@Base 5.0.1
 _ZN12QPrintDialog6acceptEv@Base 5.0.1
 _ZN12QPrintDialog8acceptedEP8QPrinter@Base 5.0.1
 _ZN12QPrintDialog9setOptionEN20QAbstractPrintDialog17PrintDialogOptionEb@Base 5.0.1
 _ZN12QPrintDialogC1EP7QWidget@Base 5.0.1
 _ZN12QPrintDialogC1EP8QPrinterP7QWidget@Base 5.0.1
 _ZN12QPrintDialogC2EP7QWidget@Base 5.0.1
 _ZN12QPrintDialogC2EP8QPrinterP7QWidget@Base 5.0.1
 _ZN12QPrintDialogD0Ev@Base 5.0.1
 _ZN12QPrintDialogD1Ev@Base 5.0.1
 _ZN12QPrintDialogD2Ev@Base 5.0.1
 _ZN12QPrinterInfo11printerInfoERK7QString@Base 5.0.1
 _ZN12QPrinterInfo14defaultPrinterEv@Base 5.0.1
 _ZN12QPrinterInfo17availablePrintersEv@Base 5.0.1
 _ZN12QPrinterInfoC1ERK7QString@Base 5.0.1
 _ZN12QPrinterInfoC1ERK8QPrinter@Base 5.0.1
 _ZN12QPrinterInfoC1ERKS_@Base 5.0.1
 _ZN12QPrinterInfoC1Ev@Base 5.0.1
 _ZN12QPrinterInfoC2ERK7QString@Base 5.0.1
 _ZN12QPrinterInfoC2ERK8QPrinter@Base 5.0.1
 _ZN12QPrinterInfoC2ERKS_@Base 5.0.1
 _ZN12QPrinterInfoC2Ev@Base 5.0.1
 _ZN12QPrinterInfoD1Ev@Base 5.0.1
 _ZN12QPrinterInfoD2Ev@Base 5.0.1
 _ZN12QPrinterInfoaSERKS_@Base 5.0.1
 _ZN15QPdfPrintEngine11setPropertyEN12QPrintEngine22PrintEnginePropertyKeyERK8QVariant@Base 5.0.1
 _ZN15QPdfPrintEngine3endEv@Base 5.0.1
 _ZN15QPdfPrintEngine5beginEP12QPaintDevice@Base 5.0.1
 _ZN15QPdfPrintEngine7newPageEv@Base 5.0.1
 _ZN15QPdfPrintEngineC1EN8QPrinter11PrinterModeE@Base 5.0.1
 _ZN15QPdfPrintEngineC1ER22QPdfPrintEnginePrivate@Base 5.0.1
 _ZN15QPdfPrintEngineC2EN8QPrinter11PrinterModeE@Base 5.0.1
 _ZN15QPdfPrintEngineC2ER22QPdfPrintEnginePrivate@Base 5.0.1
 _ZN15QPdfPrintEngineD0Ev@Base 5.0.1
 _ZN15QPdfPrintEngineD1Ev@Base 5.0.1
 _ZN15QPdfPrintEngineD2Ev@Base 5.0.1
 _ZN15QPrinterPrivate14setPreviewModeEb@Base 5.0.1
 _ZN15QPrinterPrivate18addToManualSetListEN12QPrintEngine22PrintEnginePropertyKeyE@Base 5.0.1
 _ZN15QPrinterPrivate20createDefaultEnginesEv@Base 5.0.1
 _ZN15QPrinterPrivate4initEN8QPrinter11PrinterModeE@Base 5.0.1
 _ZN16QPageSetupDialog11qt_metacallEN11QMetaObject4CallEiPPv@Base 5.0.1
 _ZN16QPageSetupDialog11qt_metacastEPKc@Base 5.0.1
 _ZN16QPageSetupDialog16staticMetaObjectE@Base 5.0.1
 _ZN16QPageSetupDialog4doneEi@Base 5.0.1
 _ZN16QPageSetupDialog4execEv@Base 5.0.1
 _ZN16QPageSetupDialog4openEP7QObjectPKc@Base 5.0.1
 _ZN16QPageSetupDialog7printerEv@Base 5.0.1
 _ZN16QPageSetupDialogC1EP7QWidget@Base 5.0.1
 _ZN16QPageSetupDialogC1EP8QPrinterP7QWidget@Base 5.0.1
 _ZN16QPageSetupDialogC2EP7QWidget@Base 5.0.1
 _ZN16QPageSetupDialogC2EP8QPrinterP7QWidget@Base 5.0.1
 _ZN16QPageSetupDialogD0Ev@Base 5.0.1
 _ZN16QPageSetupDialogD1Ev@Base 5.0.1
 _ZN16QPageSetupDialogD2Ev@Base 5.0.1
 _ZN17QAlphaPaintEngine10drawPixmapERK6QRectFRK7QPixmapS2_@Base 5.0.1
 _ZN17QAlphaPaintEngine11drawPolygonEPK7QPointFiN12QPaintEngine15PolygonDrawModeE@Base 5.0.1
 _ZN17QAlphaPaintEngine11updateStateERK17QPaintEngineState@Base 5.0.1
 _ZN17QAlphaPaintEngine12drawTextItemERK7QPointFRK9QTextItem@Base 5.0.1
 _ZN17QAlphaPaintEngine12flushAndInitEb@Base 5.0.1
 _ZN17QAlphaPaintEngine15drawTiledPixmapERK6QRectFRK7QPixmapRK7QPointF@Base 5.0.1
 _ZN17QAlphaPaintEngine3endEv@Base 5.0.1
 _ZN17QAlphaPaintEngine5beginEP12QPaintDevice@Base 5.0.1
 _ZN17QAlphaPaintEngine7cleanUpEv@Base 5.0.1
 _ZN17QAlphaPaintEngine8drawPathERK12QPainterPath@Base 5.0.1
 _ZN17QAlphaPaintEngineC1ER24QAlphaPaintEnginePrivate6QFlagsIN12QPaintEngine18PaintEngineFeatureEE@Base 5.0.1
 _ZN17QAlphaPaintEngineC2ER24QAlphaPaintEnginePrivate6QFlagsIN12QPaintEngine18PaintEngineFeatureEE@Base 5.0.1
 _ZN17QAlphaPaintEngineD0Ev@Base 5.0.1
 _ZN17QAlphaPaintEngineD1Ev@Base 5.0.1
 _ZN17QAlphaPaintEngineD2Ev@Base 5.0.1
 _ZN19QPrintPreviewDialog10setVisibleEb@Base 5.0.1
 _ZN19QPrintPreviewDialog11qt_metacallEN11QMetaObject4CallEiPPv@Base 5.0.1
 _ZN19QPrintPreviewDialog11qt_metacastEPKc@Base 5.0.1
 _ZN19QPrintPreviewDialog14paintRequestedEP8QPrinter@Base 5.0.1
 _ZN19QPrintPreviewDialog16staticMetaObjectE@Base 5.0.1
 _ZN19QPrintPreviewDialog4doneEi@Base 5.0.1
 _ZN19QPrintPreviewDialog4openEP7QObjectPKc@Base 5.0.1
 _ZN19QPrintPreviewDialog7printerEv@Base 5.0.1
 _ZN19QPrintPreviewDialogC1EP7QWidget6QFlagsIN2Qt10WindowTypeEE@Base 5.0.1
 _ZN19QPrintPreviewDialogC1EP8QPrinterP7QWidget6QFlagsIN2Qt10WindowTypeEE@Base 5.0.1
 _ZN19QPrintPreviewDialogC2EP7QWidget6QFlagsIN2Qt10WindowTypeEE@Base 5.0.1
 _ZN19QPrintPreviewDialogC2EP8QPrinterP7QWidget6QFlagsIN2Qt10WindowTypeEE@Base 5.0.1
 _ZN19QPrintPreviewDialogD0Ev@Base 5.0.1
 _ZN19QPrintPreviewDialogD1Ev@Base 5.0.1
 _ZN19QPrintPreviewDialogD2Ev@Base 5.0.1
 _ZN19QPrintPreviewWidget10fitToWidthEv@Base 5.0.1
 _ZN19QPrintPreviewWidget10setVisibleEb@Base 5.0.1
 _ZN19QPrintPreviewWidget11qt_metacallEN11QMetaObject4CallEiPPv@Base 5.0.1
 _ZN19QPrintPreviewWidget11qt_metacastEPKc@Base 5.0.1
 _ZN19QPrintPreviewWidget11setViewModeENS_8ViewModeE@Base 5.0.1
 _ZN19QPrintPreviewWidget11setZoomModeENS_8ZoomModeE@Base 5.0.1
 _ZN19QPrintPreviewWidget13setZoomFactorEd@Base 5.0.1
 _ZN19QPrintPreviewWidget13updatePreviewEv@Base 5.0.1
 _ZN19QPrintPreviewWidget14paintRequestedEP8QPrinter@Base 5.0.1
 _ZN19QPrintPreviewWidget14previewChangedEv@Base 5.0.1
 _ZN19QPrintPreviewWidget14setCurrentPageEi@Base 5.0.1
 _ZN19QPrintPreviewWidget14setOrientationEN8QPrinter11OrientationE@Base 5.0.1
 _ZN19QPrintPreviewWidget16staticMetaObjectE@Base 5.0.1
 _ZN19QPrintPreviewWidget19setAllPagesViewModeEv@Base 5.0.1
 _ZN19QPrintPreviewWidget21setSinglePageViewModeEv@Base 5.0.1
 _ZN19QPrintPreviewWidget22setFacingPagesViewModeEv@Base 5.0.1
 _ZN19QPrintPreviewWidget22setPortraitOrientationEv@Base 5.0.1
 _ZN19QPrintPreviewWidget23setLandscapeOrientationEv@Base 5.0.1
 _ZN19QPrintPreviewWidget5printEv@Base 5.0.1
 _ZN19QPrintPreviewWidget6zoomInEd@Base 5.0.1
 _ZN19QPrintPreviewWidget7zoomOutEd@Base 5.0.1
 _ZN19QPrintPreviewWidget9fitInViewEv@Base 5.0.1
 _ZN19QPrintPreviewWidgetC1EP7QWidget6QFlagsIN2Qt10WindowTypeEE@Base 5.0.1
 _ZN19QPrintPreviewWidgetC1EP8QPrinterP7QWidget6QFlagsIN2Qt10WindowTypeEE@Base 5.0.1
 _ZN19QPrintPreviewWidgetC2EP7QWidget6QFlagsIN2Qt10WindowTypeEE@Base 5.0.1
 _ZN19QPrintPreviewWidgetC2EP8QPrinterP7QWidget6QFlagsIN2Qt10WindowTypeEE@Base 5.0.1
 _ZN19QPrintPreviewWidgetD0Ev@Base 5.0.1
 _ZN19QPrintPreviewWidgetD1Ev@Base 5.0.1
 _ZN19QPrintPreviewWidgetD2Ev@Base 5.0.1
 _ZN20QAbstractPrintDialog11qt_metacallEN11QMetaObject4CallEiPPv@Base 5.0.1
 _ZN20QAbstractPrintDialog11qt_metacastEPKc@Base 5.0.1
 _ZN20QAbstractPrintDialog13setOptionTabsERK5QListIP7QWidgetE@Base 5.0.1
 _ZN20QAbstractPrintDialog13setPrintRangeENS_10PrintRangeE@Base 5.0.1
 _ZN20QAbstractPrintDialog16addEnabledOptionENS_17PrintDialogOptionE@Base 5.0.1
 _ZN20QAbstractPrintDialog16staticMetaObjectE@Base 5.0.1
 _ZN20QAbstractPrintDialog17setEnabledOptionsE6QFlagsINS_17PrintDialogOptionEE@Base 5.0.1
 _ZN20QAbstractPrintDialog9setFromToEii@Base 5.0.1
 _ZN20QAbstractPrintDialog9setMinMaxEii@Base 5.0.1
 _ZN20QAbstractPrintDialogC1EP8QPrinterP7QWidget@Base 5.0.1
 _ZN20QAbstractPrintDialogC1ER27QAbstractPrintDialogPrivateP8QPrinterP7QWidget@Base 5.0.1
 _ZN20QAbstractPrintDialogC2EP8QPrinterP7QWidget@Base 5.0.1
 _ZN20QAbstractPrintDialogC2ER27QAbstractPrintDialogPrivateP8QPrinterP7QWidget@Base 5.0.1
 _ZN20QAbstractPrintDialogD0Ev@Base 5.0.1
 _ZN20QAbstractPrintDialogD1Ev@Base 5.0.1
 _ZN20QAbstractPrintDialogD2Ev@Base 5.0.1
 _ZN22QPdfPrintEnginePrivate15openPrintDeviceEv@Base 5.0.1
 _ZN22QPdfPrintEnginePrivate15updatePaperSizeEv@Base 5.0.1
 _ZN22QPdfPrintEnginePrivate16closePrintDeviceEv@Base 5.0.1
 _ZN22QPdfPrintEnginePrivateC1EN8QPrinter11PrinterModeE@Base 5.0.1
 _ZN22QPdfPrintEnginePrivateC2EN8QPrinter11PrinterModeE@Base 5.0.1
 _ZN22QPdfPrintEnginePrivateD0Ev@Base 5.0.1
 _ZN22QPdfPrintEnginePrivateD1Ev@Base 5.0.1
 _ZN22QPdfPrintEnginePrivateD2Ev@Base 5.0.1
 _ZN23QPlatformPrinterSupport11printerInfoERK7QString@Base 5.0.1
 _ZN23QPlatformPrinterSupport12printerIndexERK12QPrinterInfo@Base 5.0.1
 _ZN23QPlatformPrinterSupport14defaultPrinterEv@Base 5.0.1
 _ZN23QPlatformPrinterSupport17availablePrintersEv@Base 5.0.1
 _ZN23QPlatformPrinterSupport17createPaintEngineEP12QPrintEngineN8QPrinter11PrinterModeE@Base 5.0.1
 _ZN23QPlatformPrinterSupport17createPrinterInfoERK7QStringS2_S2_S2_bi@Base 5.0.1
 _ZN23QPlatformPrinterSupport23createNativePrintEngineEN8QPrinter11PrinterModeE@Base 5.0.1
 _ZN23QPlatformPrinterSupport24convertPaperSizeToQSizeFEN17QPagedPaintDevice8PageSizeE@Base 5.0.1
 _ZN23QPlatformPrinterSupport24convertQSizeFToPaperSizeERK6QSizeF@Base 5.0.1
 _ZN23QPlatformPrinterSupportC1Ev@Base 5.0.1
 _ZN23QPlatformPrinterSupportC2Ev@Base 5.0.1
 _ZN23QPlatformPrinterSupportD0Ev@Base 5.0.1
 _ZN23QPlatformPrinterSupportD1Ev@Base 5.0.1
 _ZN23QPlatformPrinterSupportD2Ev@Base 5.0.1
 _ZN29QPlatformPrinterSupportPlugin11qt_metacallEN11QMetaObject4CallEiPPv@Base 5.0.1
 _ZN29QPlatformPrinterSupportPlugin11qt_metacastEPKc@Base 5.0.1
 _ZN29QPlatformPrinterSupportPlugin16staticMetaObjectE@Base 5.0.1
 _ZN29QPlatformPrinterSupportPlugin3getEv@Base 5.0.1
 _ZN29QPlatformPrinterSupportPluginC1EP7QObject@Base 5.0.1
 _ZN29QPlatformPrinterSupportPluginC2EP7QObject@Base 5.0.1
 _ZN29QPlatformPrinterSupportPluginD0Ev@Base 5.0.1
 _ZN29QPlatformPrinterSupportPluginD1Ev@Base 5.0.1
 _ZN29QPlatformPrinterSupportPluginD2Ev@Base 5.0.1
 _ZN4QPdf17paperSizeToStringEN17QPagedPaintDevice8PageSizeE@Base 5.0.1
 _ZN4QPdf9paperSizeEN17QPagedPaintDevice8PageSizeE@Base 5.0.1
 _ZN8QPrinter10setCreatorERK7QString@Base 5.0.1
 _ZN8QPrinter10setDocNameERK7QString@Base 5.0.1
 _ZN8QPrinter10setEnginesEP12QPrintEngineP12QPaintEngine@Base 5.0.1
 _ZN8QPrinter10setMarginsERKN17QPagedPaintDevice7MarginsE@Base 5.0.1
 _ZN8QPrinter11setFullPageEb@Base 5.0.1
 _ZN8QPrinter11setPageSizeEN17QPagedPaintDevice8PageSizeE@Base 5.0.1
 _ZN8QPrinter12setColorModeENS_9ColorModeE@Base 5.0.1
 _ZN8QPrinter12setCopyCountEi@Base 5.0.1
 _ZN8QPrinter12setNumCopiesEi@Base 5.0.1
 _ZN8QPrinter12setPageOrderENS_9PageOrderE@Base 5.0.1
 _ZN8QPrinter12setPaperSizeEN17QPagedPaintDevice8PageSizeE@Base 5.0.1
 _ZN8QPrinter12setPaperSizeERK6QSizeFNS_4UnitE@Base 5.0.1
 _ZN8QPrinter13setPageSizeMMERK6QSizeF@Base 5.0.1
 _ZN8QPrinter13setPrintRangeENS_10PrintRangeE@Base 5.0.1
 _ZN8QPrinter13setResolutionEi@Base 5.0.1
 _ZN8QPrinter14setOrientationENS_11OrientationE@Base 5.0.1
 _ZN8QPrinter14setPageMarginsEddddNS_4UnitE@Base 5.0.1
 _ZN8QPrinter14setPaperSourceENS_11PaperSourceE@Base 5.0.1
 _ZN8QPrinter14setPrinterNameERK7QString@Base 5.0.1
 _ZN8QPrinter15setOutputFormatENS_12OutputFormatE@Base 5.0.1
 _ZN8QPrinter15setPrintProgramERK7QString@Base 5.0.1
 _ZN8QPrinter16setCollateCopiesEb@Base 5.0.1
 _ZN8QPrinter17setOutputFileNameERK7QString@Base 5.0.1
 _ZN8QPrinter22setDoubleSidedPrintingEb@Base 5.0.1
 _ZN8QPrinter23setFontEmbeddingEnabledEb@Base 5.0.1
 _ZN8QPrinter25setPrinterSelectionOptionERK7QString@Base 5.0.1
 _ZN8QPrinter5abortEv@Base 5.0.1
 _ZN8QPrinter7newPageEv@Base 5.0.1
 _ZN8QPrinter9setDuplexENS_10DuplexModeE@Base 5.0.1
 _ZN8QPrinter9setFromToEii@Base 5.0.1
 _ZN8QPrinterC1ENS_11PrinterModeE@Base 5.0.1
 _ZN8QPrinterC1ERK12QPrinterInfoNS_11PrinterModeE@Base 5.0.1
 _ZN8QPrinterC2ENS_11PrinterModeE@Base 5.0.1
 _ZN8QPrinterC2ERK12QPrinterInfoNS_11PrinterModeE@Base 5.0.1
 _ZN8QPrinterD0Ev@Base 5.0.1
 _ZN8QPrinterD1Ev@Base 5.0.1
 _ZN8QPrinterD2Ev@Base 5.0.1
 _ZNK12QCUPSSupport10currentPPDEv@Base 5.0.1
 _ZNK12QCUPSSupport13printerOptionERK7QString@Base 5.0.1
 _ZNK12QCUPSSupport17availablePrintersEv@Base 5.0.1
 _ZNK12QCUPSSupport19currentPrinterIndexEv@Base 5.0.1
 _ZNK12QCUPSSupport20collectMarkedOptionsER11QStringListPK11ppd_group_s@Base 5.0.1
 _ZNK12QCUPSSupport22availablePrintersCountEv@Base 5.0.1
 _ZNK12QCUPSSupport26collectMarkedOptionsHelperER11QStringListPK11ppd_group_s@Base 5.0.1
 _ZNK12QCUPSSupport7optionsEv@Base 5.0.1
 _ZNK12QCUPSSupport8pageRectEPKc@Base 5.0.1
 _ZNK12QCUPSSupport9pageSizesEv@Base 5.0.1
 _ZNK12QCUPSSupport9paperRectEPKc@Base 5.0.1
 _ZNK12QCUPSSupport9ppdOptionEPKc@Base 5.0.1
 _ZNK12QPrintDialog10metaObjectEv@Base 5.0.1
 _ZNK12QPrintDialog10testOptionEN20QAbstractPrintDialog17PrintDialogOptionE@Base 5.0.1
 _ZNK12QPrintDialog7optionsEv@Base 5.0.1
 _ZNK12QPrinterInfo11descriptionEv@Base 5.0.1
 _ZNK12QPrinterInfo11printerNameEv@Base 5.0.1
 _ZNK12QPrinterInfo12makeAndModelEv@Base 5.0.1
 _ZNK12QPrinterInfo19supportedPaperSizesEv@Base 5.0.1
 _ZNK12QPrinterInfo6isNullEv@Base 5.0.1
 _ZNK12QPrinterInfo8locationEv@Base 5.0.1
 _ZNK12QPrinterInfo9isDefaultEv@Base 5.0.1
 _ZNK15QPdfPrintEngine6metricEN12QPaintDevice17PaintDeviceMetricE@Base 5.0.1
 _ZNK15QPdfPrintEngine8propertyEN12QPrintEngine22PrintEnginePropertyKeyE@Base 5.0.1
 _ZNK15QPrinterPrivate12previewPagesEv@Base 5.0.1
 _ZNK16QPageSetupDialog10metaObjectEv@Base 5.0.1
 _ZNK17QAlphaPaintEngine12continueCallEv@Base 5.0.1
 _ZNK17QAlphaPaintEngine13alphaClippingEv@Base 5.0.1
 _ZNK19QPrintPreviewDialog10metaObjectEv@Base 5.0.1
 _ZNK19QPrintPreviewWidget10metaObjectEv@Base 5.0.1
 _ZNK19QPrintPreviewWidget10zoomFactorEv@Base 5.0.1
 _ZNK19QPrintPreviewWidget11currentPageEv@Base 5.0.1
 _ZNK19QPrintPreviewWidget11orientationEv@Base 5.0.1
 _ZNK19QPrintPreviewWidget8viewModeEv@Base 5.0.1
 _ZNK19QPrintPreviewWidget8zoomModeEv@Base 5.0.1
 _ZNK19QPrintPreviewWidget9pageCountEv@Base 5.0.1
 _ZNK20QAbstractPrintDialog10metaObjectEv@Base 5.0.1
 _ZNK20QAbstractPrintDialog10printRangeEv@Base 5.0.1
 _ZNK20QAbstractPrintDialog14enabledOptionsEv@Base 5.0.1
 _ZNK20QAbstractPrintDialog15isOptionEnabledENS_17PrintDialogOptionE@Base 5.0.1
 _ZNK20QAbstractPrintDialog6toPageEv@Base 5.0.1
 _ZNK20QAbstractPrintDialog7maxPageEv@Base 5.0.1
 _ZNK20QAbstractPrintDialog7minPageEv@Base 5.0.1
 _ZNK20QAbstractPrintDialog7printerEv@Base 5.0.1
 _ZNK20QAbstractPrintDialog8fromPageEv@Base 5.0.1
 _ZNK23QPlatformPrinterSupport13printerOptionERK12QPrinterInfoRK7QString@Base 5.0.1
 _ZNK23QPlatformPrinterSupport14printerOptionsERK12QPrinterInfo@Base 5.0.1
 _ZNK23QPlatformPrinterSupport19supportedPaperSizesERK12QPrinterInfo@Base 5.0.1
 _ZNK29QPlatformPrinterSupportPlugin10metaObjectEv@Base 5.0.1
 _ZNK8QPrinter10printRangeEv@Base 5.0.1
 _ZNK8QPrinter10resolutionEv@Base 5.0.1
 _ZNK8QPrinter11orientationEv@Base 5.0.1
 _ZNK8QPrinter11paintEngineEv@Base 5.0.1
 _ZNK8QPrinter11paperSourceEv@Base 5.0.1
 _ZNK8QPrinter11printEngineEv@Base 5.0.1
 _ZNK8QPrinter11printerNameEv@Base 5.0.1
 _ZNK8QPrinter12outputFormatEv@Base 5.0.1
 _ZNK8QPrinter12printProgramEv@Base 5.0.1
 _ZNK8QPrinter12printerStateEv@Base 5.0.1
 _ZNK8QPrinter13collateCopiesEv@Base 5.0.1
 _ZNK8QPrinter14getPageMarginsEPdS0_S0_S0_NS_4UnitE@Base 5.0.1
 _ZNK8QPrinter14outputFileNameEv@Base 5.0.1
 _ZNK8QPrinter15actualNumCopiesEv@Base 5.0.1
 _ZNK8QPrinter19doubleSidedPrintingEv@Base 5.0.1
 _ZNK8QPrinter20fontEmbeddingEnabledEv@Base 5.0.1
 _ZNK8QPrinter20supportedResolutionsEv@Base 5.0.1
 _ZNK8QPrinter22printerSelectionOptionEv@Base 5.0.1
 _ZNK8QPrinter22supportsMultipleCopiesEv@Base 5.0.1
 _ZNK8QPrinter6duplexEv@Base 5.0.1
 _ZNK8QPrinter6metricEN12QPaintDevice17PaintDeviceMetricE@Base 5.0.1
 _ZNK8QPrinter6toPageEv@Base 5.0.1
 _ZNK8QPrinter7creatorEv@Base 5.0.1
 _ZNK8QPrinter7devTypeEv@Base 5.0.1
 _ZNK8QPrinter7docNameEv@Base 5.0.1
 _ZNK8QPrinter7isValidEv@Base 5.0.1
 _ZNK8QPrinter8fromPageEv@Base 5.0.1
 _ZNK8QPrinter8fullPageEv@Base 5.0.1
 _ZNK8QPrinter8pageRectENS_4UnitE@Base 5.0.1
 _ZNK8QPrinter8pageRectEv@Base 5.0.1
 _ZNK8QPrinter8pageSizeEv@Base 5.0.1
 _ZNK8QPrinter9colorModeEv@Base 5.0.1
 _ZNK8QPrinter9copyCountEv@Base 5.0.1
 _ZNK8QPrinter9numCopiesEv@Base 5.0.1
 _ZNK8QPrinter9pageOrderEv@Base 5.0.1
 _ZNK8QPrinter9paperRectENS_4UnitE@Base 5.0.1
 _ZNK8QPrinter9paperRectEv@Base 5.0.1
 _ZNK8QPrinter9paperSizeENS_4UnitE@Base 5.0.1
 _ZNK8QPrinter9paperSizeEv@Base 5.0.1
 _ZTI12QPrintDialog@Base 5.0.1
 _ZTI12QPrintEngine@Base 5.0.1
 _ZTI15QPdfPrintEngine@Base 5.0.1
 _ZTI16QPageSetupDialog@Base 5.0.1
 _ZTI17QAlphaPaintEngine@Base 5.0.1
 _ZTI19QPaintEnginePrivate@Base 5.0.1
 _ZTI19QPrintPreviewDialog@Base 5.0.1
 _ZTI19QPrintPreviewWidget@Base 5.0.1
 _ZTI20QAbstractPrintDialog@Base 5.0.1
 _ZTI22QPdfPrintEnginePrivate@Base 5.0.1
 _ZTI23QPlatformPrinterSupport@Base 5.0.1
 _ZTI29QPlatformPrinterSupportPlugin@Base 5.0.1
 _ZTI8QPrinter@Base 5.0.1
 _ZTS12QPrintDialog@Base 5.0.1
 _ZTS12QPrintEngine@Base 5.0.1
 _ZTS15QPdfPrintEngine@Base 5.0.1
 _ZTS16QPageSetupDialog@Base 5.0.1
 _ZTS17QAlphaPaintEngine@Base 5.0.1
 _ZTS19QPaintEnginePrivate@Base 5.0.1
 _ZTS19QPrintPreviewDialog@Base 5.0.1
 _ZTS19QPrintPreviewWidget@Base 5.0.1
 _ZTS20QAbstractPrintDialog@Base 5.0.1
 _ZTS22QPdfPrintEnginePrivate@Base 5.0.1
 _ZTS23QPlatformPrinterSupport@Base 5.0.1
 _ZTS29QPlatformPrinterSupportPlugin@Base 5.0.1
 _ZTS8QPrinter@Base 5.0.1
 _ZTV12QPrintDialog@Base 5.0.1
 _ZTV12QPrintEngine@Base 5.0.1
 _ZTV15QPdfPrintEngine@Base 5.0.1
 _ZTV16QPageSetupDialog@Base 5.0.1
 _ZTV17QAlphaPaintEngine@Base 5.0.1
 _ZTV19QPaintEnginePrivate@Base 5.0.1
 _ZTV19QPrintPreviewDialog@Base 5.0.1
 _ZTV19QPrintPreviewWidget@Base 5.0.1
 _ZTV20QAbstractPrintDialog@Base 5.0.1
 _ZTV22QPdfPrintEnginePrivate@Base 5.0.1
 _ZTV23QPlatformPrinterSupport@Base 5.0.1
 _ZTV29QPlatformPrinterSupportPlugin@Base 5.0.1
 _ZTV8QPrinter@Base 5.0.1
 _ZThn16_N12QPrintDialogD0Ev@Base 5.0.1
 _ZThn16_N12QPrintDialogD1Ev@Base 5.0.1
 _ZThn16_N16QPageSetupDialogD0Ev@Base 5.0.1
 _ZThn16_N16QPageSetupDialogD1Ev@Base 5.0.1
 _ZThn16_N19QPrintPreviewDialogD0Ev@Base 5.0.1
 _ZThn16_N19QPrintPreviewDialogD1Ev@Base 5.0.1
 _ZThn16_N19QPrintPreviewWidgetD0Ev@Base 5.0.1
 _ZThn16_N19QPrintPreviewWidgetD1Ev@Base 5.0.1
 _ZThn16_N20QAbstractPrintDialogD0Ev@Base 5.0.1
 _ZThn16_N20QAbstractPrintDialogD1Ev@Base 5.0.1
 _ZThn32_N15QPdfPrintEngine11setPropertyEN12QPrintEngine22PrintEnginePropertyKeyERK8QVariant@Base 5.0.1
 _ZThn32_N15QPdfPrintEngine7newPageEv@Base 5.0.1
 _ZThn32_N15QPdfPrintEngineD0Ev@Base 5.0.1
 _ZThn32_N15QPdfPrintEngineD1Ev@Base 5.0.1
 _ZThn32_NK15QPdfPrintEngine6metricEN12QPaintDevice17PaintDeviceMetricE@Base 5.0.1
 _ZThn32_NK15QPdfPrintEngine8propertyEN12QPrintEngine22PrintEnginePropertyKeyE@Base 5.0.1
libQt5Qml.so.5 libqtcore5 #MINVER#
 _Z10qmlContextPK7QObject@Base 5.0.1
 _Z18QQml_colorProviderv@Base 5.0.1
 _Z18qmlExecuteDeferredP7QObject@Base 5.0.1
 _Z18qt_QJSValueV8ValueRK8QJSValue@Base 5.0.1
 _Z19QQml_setGuiProviderP15QQmlGuiProvider@Base 5.0.1
 _Z20qmlRegisterBaseTypesPKcii@Base 5.0.1
 _Z21QQml_setColorProviderP17QQmlColorProvider@Base 5.0.1
 _Z21qt_QJSEngineV8ContextP9QJSEngine@Base 5.0.1
 _Z25QQml_addValueTypeProviderP21QQmlValueTypeProvider@Base 5.0.1
 _Z27qmlAttachedPropertiesObjectPiPK7QObjectPK11QMetaObjectb@Base 5.0.1
 _Z27qmlRegisterTypeNotAvailablePKciiS0_RK7QString@Base 5.0.1
 _Z31qmlAttachedPropertiesObjectByIdiPK7QObjectb@Base 5.0.1
 _Z7qmlInfoPK7QObject@Base 5.0.1
 _Z7qmlInfoPK7QObjectRK5QListI9QQmlErrorE@Base 5.0.1
 _Z7qmlInfoPK7QObjectRK9QQmlError@Base 5.0.1
 _Z9qmlEnginePK7QObject@Base 5.0.1
 _ZN10QByteArray4dataEv@Base 5.0.1
 _ZN10QQmlBundle11addMetaLinkERK7QStringS2_RK10QByteArray@Base 5.0.1
 _ZN10QQmlBundle14isBundleHeaderEPKci@Base 5.0.1
 _ZN10QQmlBundle15findInsertPointEjPi@Base 5.0.1
 _ZN10QQmlBundle18bundleHeaderLengthEv@Base 5.0.1
 _ZN10QQmlBundle3addERK7QString@Base 5.0.1
 _ZN10QQmlBundle3addERK7QStringS2_@Base 5.0.1
 _ZN10QQmlBundle4openE6QFlagsIN9QIODevice12OpenModeFlagEE@Base 5.0.1
 _ZN10QQmlBundle5closeEv@Base 5.0.1
 _ZN10QQmlBundle6removeEPKNS_9FileEntryE@Base 5.0.1
 _ZN10QQmlBundleC1ERK7QString@Base 5.0.1
 _ZN10QQmlBundleC2ERK7QString@Base 5.0.1
 _ZN10QQmlBundleD1Ev@Base 5.0.1
 _ZN10QQmlBundleD2Ev@Base 5.0.1
 _ZN10QQmlEngine10setBaseUrlERK4QUrl@Base 5.0.1
 _ZN10QQmlEngine11qt_metacallEN11QMetaObject4CallEiPPv@Base 5.0.1
 _ZN10QQmlEngine11qt_metacastEPKc@Base 5.0.1
 _ZN10QQmlEngine12importPluginERK7QStringS2_P5QListI9QQmlErrorE@Base 5.0.1
 _ZN10QQmlEngine13addImportPathERK7QString@Base 5.0.1
 _ZN10QQmlEngine13addPluginPathERK7QString@Base 5.0.1
 _ZN10QQmlEngine14addNamedBundleERK7QStringS2_@Base 5.0.1
 _ZN10QQmlEngine15objectOwnershipEP7QObject@Base 5.0.1
 _ZN10QQmlEngine16addImageProviderERK7QStringP21QQmlImageProviderBase@Base 5.0.1
 _ZN10QQmlEngine16contextForObjectEPK7QObject@Base 5.0.1
 _ZN10QQmlEngine16staticMetaObjectE@Base 5.0.1
 _ZN10QQmlEngine17setImportPathListERK11QStringList@Base 5.0.1
 _ZN10QQmlEngine17setPluginPathListERK11QStringList@Base 5.0.1
 _ZN10QQmlEngine18setObjectOwnershipEP7QObjectNS_15ObjectOwnershipE@Base 5.0.1
 _ZN10QQmlEngine18trimComponentCacheEv@Base 5.0.1
 _ZN10QQmlEngine19clearComponentCacheEv@Base 5.0.1
 _ZN10QQmlEngine19removeImageProviderERK7QString@Base 5.0.1
 _ZN10QQmlEngine19setContextForObjectEP7QObjectP11QQmlContext@Base 5.0.1
 _ZN10QQmlEngine21setOfflineStoragePathERK7QString@Base 5.0.1
 _ZN10QQmlEngine23setIncubationControllerEP24QQmlIncubationController@Base 5.0.1
 _ZN10QQmlEngine30setNetworkAccessManagerFactoryEP31QQmlNetworkAccessManagerFactory@Base 5.0.1
 _ZN10QQmlEngine32setOutputWarningsToStandardErrorEb@Base 5.0.1
 _ZN10QQmlEngine4quitEv@Base 5.0.1
 _ZN10QQmlEngine5eventEP6QEvent@Base 5.0.1
 _ZN10QQmlEngine8warningsERK5QListI9QQmlErrorE@Base 5.0.1
 _ZN10QQmlEngineC1EP7QObject@Base 5.0.1
 _ZN10QQmlEngineC2EP7QObject@Base 5.0.1
 _ZN10QQmlEngineD0Ev@Base 5.0.1
 _ZN10QQmlEngineD1Ev@Base 5.0.1
 _ZN10QQmlEngineD2Ev@Base 5.0.1
 _ZN10QQmlScript6Parser14extractPragmasER7QString@Base 5.0.1
 _ZN10QQmlScript6Parser15extractMetaDataER7QStringP9QQmlError@Base 5.0.1
 _ZN10QQmlScript6Parser18findOrCreateTypeIdERK7QStringPNS_6ObjectE@Base 5.0.1
 _ZN10QQmlScript6Parser5clearEv@Base 5.0.1
 _ZN10QQmlScript6Parser5parseERK7QStringRK10QByteArrayRK4QUrlS3_@Base 5.0.1
 _ZN10QQmlScript6Parser7setTreeEPNS_6ObjectE@Base 5.0.1
 _ZN10QQmlScript6ParserC1Ev@Base 5.0.1
 _ZN10QQmlScript6ParserC2Ev@Base 5.0.1
 _ZN10QQmlScript6ParserD1Ev@Base 5.0.1
 _ZN10QQmlScript6ParserD2Ev@Base 5.0.1
 _ZN10QQmlScript7VariantC1EPN6QQmlJS3AST13StringLiteralE@Base 5.0.1
 _ZN10QQmlScript7VariantC1ERK10QStringRefPN6QQmlJS3AST4NodeE@Base 5.0.1
 _ZN10QQmlScript7VariantC1ERKS0_@Base 5.0.1
 _ZN10QQmlScript7VariantC1Eb@Base 5.0.1
 _ZN10QQmlScript7VariantC1EdRK10QStringRef@Base 5.0.1
 _ZN10QQmlScript7VariantC1Ev@Base 5.0.1
 _ZN10QQmlScript7VariantC2EPN6QQmlJS3AST13StringLiteralE@Base 5.0.1
 _ZN10QQmlScript7VariantC2ERK10QStringRefPN6QQmlJS3AST4NodeE@Base 5.0.1
 _ZN10QQmlScript7VariantC2ERKS0_@Base 5.0.1
 _ZN10QQmlScript7VariantC2Eb@Base 5.0.1
 _ZN10QQmlScript7VariantC2EdRK10QStringRef@Base 5.0.1
 _ZN10QQmlScript7VariantC2Ev@Base 5.0.1
 _ZN10QQmlScript7VariantaSERKS0_@Base 5.0.1
 _ZN11QMetaMethod10fromSignalIM13QNetworkReplyFvxxEEES_T_@Base 5.0.1
 _ZN11QQmlBinding10expressionEPK19QQmlAbstractBinding@Base 5.0.1
 _ZN11QQmlBinding10setEnabledEP19QQmlAbstractBindingb6QFlagsIN19QQmlPropertyPrivate9WriteFlagEE@Base 5.0.1
 _ZN11QQmlBinding10setEnabledEb6QFlagsIN19QQmlPropertyPrivate9WriteFlagEE@Base 5.0.1
 _ZN11QQmlBinding13createBindingEiP7QObjectP11QQmlContextRK7QStringt@Base 5.0.1
 _ZN11QQmlBinding13propertyIndexEPK19QQmlAbstractBinding@Base 5.0.1
 _ZN11QQmlBinding15retargetBindingEP19QQmlAbstractBindingP7QObjecti@Base 5.0.1
 _ZN11QQmlBinding15retargetBindingEP7QObjecti@Base 5.0.1
 _ZN11QQmlBinding16setEvaluateFlagsE6QFlagsINS_12EvaluateFlagEE@Base 5.0.1
 _ZN11QQmlBinding17expressionChangedEP24QQmlJavaScriptExpression@Base 5.0.1
 _ZN11QQmlBinding20expressionIdentifierEP24QQmlJavaScriptExpression@Base 5.0.1
 _ZN11QQmlBinding23setNotifyOnValueChangedEb@Base 5.0.1
 _ZN11QQmlBinding6objectEPK19QQmlAbstractBinding@Base 5.0.1
 _ZN11QQmlBinding6updateE6QFlagsIN19QQmlPropertyPrivate9WriteFlagEE@Base 5.0.1
 _ZN11QQmlBinding6updateEP19QQmlAbstractBinding6QFlagsIN19QQmlPropertyPrivate9WriteFlagEE@Base 5.0.1
 _ZN11QQmlBinding7InvalidE@Base 5.0.1
 _ZN11QQmlBinding7refreshEv@Base 5.0.1
 _ZN11QQmlBinding8evaluateEv@Base 5.0.1
 _ZN11QQmlBinding9setTargetEP7QObjectRK16QQmlPropertyDataP15QQmlContextData@Base 5.0.1
 _ZN11QQmlBinding9setTargetERK12QQmlProperty@Base 5.0.1
 _ZN11QQmlBindingC1EPvP7QObjectP15QQmlContextDataRK7QStringtt@Base 5.0.1
 _ZN11QQmlBindingC1ERK16QQmlScriptStringP7QObjectP11QQmlContext@Base 5.0.1
 _ZN11QQmlBindingC1ERK7QStringP7QObjectP11QQmlContext@Base 5.0.1
 _ZN11QQmlBindingC1ERK7QStringP7QObjectP15QQmlContextData@Base 5.0.1
 _ZN11QQmlBindingC1ERK7QStringbP7QObjectP15QQmlContextDataS2_tt@Base 5.0.1
 _ZN11QQmlBindingC2EPvP7QObjectP15QQmlContextDataRK7QStringtt@Base 5.0.1
 _ZN11QQmlBindingC2ERK16QQmlScriptStringP7QObjectP11QQmlContext@Base 5.0.1
 _ZN11QQmlBindingC2ERK7QStringP7QObjectP11QQmlContext@Base 5.0.1
 _ZN11QQmlBindingC2ERK7QStringP7QObjectP15QQmlContextData@Base 5.0.1
 _ZN11QQmlBindingC2ERK7QStringbP7QObjectP15QQmlContextDataS2_tt@Base 5.0.1
 _ZN11QQmlBindingD0Ev@Base 5.0.1
 _ZN11QQmlBindingD1Ev@Base 5.0.1
 _ZN11QQmlBindingD2Ev@Base 5.0.1
 _ZN11QQmlCleanup11addToEngineEP10QQmlEngine@Base 5.0.1
 _ZN11QQmlCleanupC1EP10QQmlEngine@Base 5.0.1
 _ZN11QQmlCleanupC1Ev@Base 5.0.1
 _ZN11QQmlCleanupC2EP10QQmlEngine@Base 5.0.1
 _ZN11QQmlCleanupC2Ev@Base 5.0.1
 _ZN11QQmlCleanupD0Ev@Base 5.0.1
 _ZN11QQmlCleanupD1Ev@Base 5.0.1
 _ZN11QQmlCleanupD2Ev@Base 5.0.1
 _ZN11QQmlContext10setBaseUrlERK4QUrl@Base 5.0.1
 _ZN11QQmlContext11qt_metacallEN11QMetaObject4CallEiPPv@Base 5.0.1
 _ZN11QQmlContext11qt_metacastEPKc@Base 5.0.1
 _ZN11QQmlContext11resolvedUrlERK4QUrl@Base 5.0.1
 _ZN11QQmlContext16setContextObjectEP7QObject@Base 5.0.1
 _ZN11QQmlContext16staticMetaObjectE@Base 5.0.1
 _ZN11QQmlContext18setContextPropertyERK7QStringP7QObject@Base 5.0.1
 _ZN11QQmlContext18setContextPropertyERK7QStringRK8QVariant@Base 5.0.1
 _ZN11QQmlContextC1EP10QQmlEngineP7QObject@Base 5.0.1
 _ZN11QQmlContextC1EP10QQmlEngineb@Base 5.0.1
 _ZN11QQmlContextC1EP15QQmlContextData@Base 5.0.1
 _ZN11QQmlContextC1EPS_P7QObject@Base 5.0.1
 _ZN11QQmlContextC2EP10QQmlEngineP7QObject@Base 5.0.1
 _ZN11QQmlContextC2EP10QQmlEngineb@Base 5.0.1
 _ZN11QQmlContextC2EP15QQmlContextData@Base 5.0.1
 _ZN11QQmlContextC2EPS_P7QObject@Base 5.0.1
 _ZN11QQmlContextD0Ev@Base 5.0.1
 _ZN11QQmlContextD1Ev@Base 5.0.1
 _ZN11QQmlContextD2Ev@Base 5.0.1
 _ZN11QQmlImports10setBaseUrlERK4QUrlRK7QString@Base 5.0.1
 _ZN11QQmlImports12locateQmldirEP18QQmlImportDatabaseRK7QStringiiPS2_S5_@Base 5.0.1
 _ZN11QQmlImports13addFileImportEP18QQmlImportDatabaseRK7QStringS4_iibP5QListI9QQmlErrorE@Base 5.0.1
 _ZN11QQmlImports15ScriptReferenceC1ERKS0_@Base 5.0.1
 _ZN11QQmlImports15ScriptReferenceC2ERKS0_@Base 5.0.1
 _ZN11QQmlImports16addLibraryImportEP18QQmlImportDatabaseRK7QStringS4_iiS4_S4_bP5QListI9QQmlErrorE@Base 5.0.1
 _ZN11QQmlImports17addImplicitImportEP18QQmlImportDatabaseP5QListI9QQmlErrorE@Base 5.0.1
 _ZN11QQmlImports18completeQmldirPathERK7QStringS2_iiNS_13ImportVersionE@Base 5.0.1
 _ZN11QQmlImports19updateQmldirContentEP18QQmlImportDatabaseRK7QStringS4_S4_S4_P5QListI9QQmlErrorE@Base 5.0.1
 _ZN11QQmlImports7isLocalERK4QUrl@Base 5.0.1
 _ZN11QQmlImports7isLocalERK7QString@Base 5.0.1
 _ZN11QQmlImportsC1EP14QQmlTypeLoader@Base 5.0.1
 _ZN11QQmlImportsC1ERKS_@Base 5.0.1
 _ZN11QQmlImportsC2EP14QQmlTypeLoader@Base 5.0.1
 _ZN11QQmlImportsC2ERKS_@Base 5.0.1
 _ZN11QQmlImportsD1Ev@Base 5.0.1
 _ZN11QQmlImportsD2Ev@Base 5.0.1
 _ZN11QQmlImportsaSERKS_@Base 5.0.1
 _ZN11QQmlPrivate11qmlregisterENS_16RegistrationTypeEPv@Base 5.0.1
 _ZN11QQmlPrivate30qdeclarativeelement_destructorEP7QObject@Base 5.0.1
 _ZN12QQmlDataBlob12networkErrorEN13QNetworkReply12NetworkErrorE@Base 5.0.1
 _ZN12QQmlDataBlob13addDependencyEPS_@Base 5.0.1
 _ZN12QQmlDataBlob14notifyCompleteEPS_@Base 5.0.1
 _ZN12QQmlDataBlob15dependencyErrorEPS_@Base 5.0.1
 _ZN12QQmlDataBlob18dependencyCompleteEPS_@Base 5.0.1
 _ZN12QQmlDataBlob19allDependenciesDoneEv@Base 5.0.1
 _ZN12QQmlDataBlob19cancelAllWaitingForEv@Base 5.0.1
 _ZN12QQmlDataBlob20notifyAllWaitingOnMeEv@Base 5.0.1
 _ZN12QQmlDataBlob23downloadProgressChangedEd@Base 5.0.1
 _ZN12QQmlDataBlob4doneEv@Base 5.0.1
 _ZN12QQmlDataBlob7tryDoneEv@Base 5.0.1
 _ZN12QQmlDataBlob8setErrorERK5QListI9QQmlErrorE@Base 5.0.1
 _ZN12QQmlDataBlob8setErrorERK9QQmlError@Base 5.0.1
 _ZN12QQmlDataBlob9completedEv@Base 5.0.1
 _ZN12QQmlDataBlobC1ERK4QUrlNS_4TypeE@Base 5.0.1
 _ZN12QQmlDataBlobC2ERK4QUrlNS_4TypeE@Base 5.0.1
 _ZN12QQmlDataBlobD0Ev@Base 5.0.1
 _ZN12QQmlDataBlobD1Ev@Base 5.0.1
 _ZN12QQmlDataBlobD2Ev@Base 5.0.1
 _ZN12QQmlMetaType10typeModuleERK7QStringi@Base 5.0.1
 _ZN12QQmlMetaType11isAnyModuleERK7QString@Base 5.0.1
 _ZN12QQmlMetaType11isInterfaceEi@Base 5.0.1
 _ZN12QQmlMetaType12interfaceIIdEi@Base 5.0.1
 _ZN12QQmlMetaType12qmlTypeNamesEv@Base 5.0.1
 _ZN12QQmlMetaType12typeCategoryEi@Base 5.0.1
 _ZN12QQmlMetaType13defaultMethodEP7QObject@Base 5.0.1
 _ZN12QQmlMetaType13defaultMethodEPK11QMetaObject@Base 5.0.1
 _ZN12QQmlMetaType15defaultPropertyEP7QObject@Base 5.0.1
 _ZN12QQmlMetaType15defaultPropertyEPK11QMetaObject@Base 5.0.1
 _ZN12QQmlMetaType15parentFunctionsEv@Base 5.0.1
 _ZN12QQmlMetaType16protectNamespaceERK7QString@Base 5.0.1
 _ZN12QQmlMetaType17qmlSingletonTypesEv@Base 5.0.1
 _ZN12QQmlMetaType20typeRegistrationLockEv@Base 5.0.1
 _ZN12QQmlMetaType21customStringConverterEi@Base 5.0.1
 _ZN12QQmlMetaType23QQuickAnchorLineCompareEPKvS1_@Base 5.0.1
 _ZN12QQmlMetaType24attachedPropertiesFuncIdEPK11QMetaObject@Base 5.0.1
 _ZN12QQmlMetaType24typeRegistrationFailuresEv@Base 5.0.1
 _ZN12QQmlMetaType25anchorLineCompareFunctionE@Base 5.0.1
 _ZN12QQmlMetaType26QQuickAnchorLineMetaTypeIdEv@Base 5.0.1
 _ZN12QQmlMetaType26attachedPropertiesFuncByIdEi@Base 5.0.1
 _ZN12QQmlMetaType28setTypeRegistrationNamespaceERK7QString@Base 5.0.1
 _ZN12QQmlMetaType29registerCustomStringConverterEiPF8QVariantRK7QStringE@Base 5.0.1
 _ZN12QQmlMetaType30namespaceContainsRegistrationsERK7QString@Base 5.0.1
 _ZN12QQmlMetaType34setQQuickAnchorLineCompareFunctionEPFbPKvS1_E@Base 5.0.1
 _ZN12QQmlMetaType6isListEi@Base 5.0.1
 _ZN12QQmlMetaType7qmlTypeEPK11QMetaObject@Base 5.0.1
 _ZN12QQmlMetaType7qmlTypeEPK11QMetaObjectRK16QHashedStringRefii@Base 5.0.1
 _ZN12QQmlMetaType7qmlTypeERK16QHashedStringRefS2_ii@Base 5.0.1
 _ZN12QQmlMetaType7qmlTypeERK7QStringii@Base 5.0.1
 _ZN12QQmlMetaType7qmlTypeEi@Base 5.0.1
 _ZN12QQmlMetaType8isModuleERK7QStringii@Base 5.0.1
 _ZN12QQmlMetaType8listTypeEi@Base 5.0.1
 _ZN12QQmlMetaType8qmlTypesEv@Base 5.0.1
 _ZN12QQmlMetaType9isQObjectEi@Base 5.0.1
 _ZN12QQmlMetaType9toQObjectERK8QVariantPb@Base 5.0.1
 _ZN12QQmlNotifier10emitNotifyEP20QQmlNotifierEndpointPPv@Base 5.0.1
 _ZN12QQmlProperty4readEPK7QObjectRK7QString@Base 5.0.1
 _ZN12QQmlProperty4readEPK7QObjectRK7QStringP10QQmlEngine@Base 5.0.1
 _ZN12QQmlProperty4readEPK7QObjectRK7QStringP11QQmlContext@Base 5.0.1
 _ZN12QQmlProperty5writeEP7QObjectRK7QStringRK8QVariant@Base 5.0.1
 _ZN12QQmlProperty5writeEP7QObjectRK7QStringRK8QVariantP10QQmlEngine@Base 5.0.1
 _ZN12QQmlProperty5writeEP7QObjectRK7QStringRK8QVariantP11QQmlContext@Base 5.0.1
 _ZN12QQmlPropertyC1EP7QObject@Base 5.0.1
 _ZN12QQmlPropertyC1EP7QObjectP10QQmlEngine@Base 5.0.1
 _ZN12QQmlPropertyC1EP7QObjectP11QQmlContext@Base 5.0.1
 _ZN12QQmlPropertyC1EP7QObjectRK7QString@Base 5.0.1
 _ZN12QQmlPropertyC1EP7QObjectRK7QStringP10QQmlEngine@Base 5.0.1
 _ZN12QQmlPropertyC1EP7QObjectRK7QStringP11QQmlContext@Base 5.0.1
 _ZN12QQmlPropertyC1ERKS_@Base 5.0.1
 _ZN12QQmlPropertyC1Ev@Base 5.0.1
 _ZN12QQmlPropertyC2EP7QObject@Base 5.0.1
 _ZN12QQmlPropertyC2EP7QObjectP10QQmlEngine@Base 5.0.1
 _ZN12QQmlPropertyC2EP7QObjectP11QQmlContext@Base 5.0.1
 _ZN12QQmlPropertyC2EP7QObjectRK7QString@Base 5.0.1
 _ZN12QQmlPropertyC2EP7QObjectRK7QStringP10QQmlEngine@Base 5.0.1
 _ZN12QQmlPropertyC2EP7QObjectRK7QStringP11QQmlContext@Base 5.0.1
 _ZN12QQmlPropertyC2ERKS_@Base 5.0.1
 _ZN12QQmlPropertyC2Ev@Base 5.0.1
 _ZN12QQmlPropertyD1Ev@Base 5.0.1
 _ZN12QQmlPropertyD2Ev@Base 5.0.1
 _ZN12QQmlPropertyaSERKS_@Base 5.0.1
 _ZN13QQmlComponent11beginCreateEP11QQmlContext@Base 5.0.1
 _ZN13QQmlComponent11qt_metacallEN11QMetaObject4CallEiPPv@Base 5.0.1
 _ZN13QQmlComponent11qt_metacastEPKc@Base 5.0.1
 _ZN13QQmlComponent12createObjectEP14QQmlV8Function@Base 5.0.1
 _ZN13QQmlComponent13statusChangedENS_6StatusE@Base 5.0.1
 _ZN13QQmlComponent14completeCreateEv@Base 5.0.1
 _ZN13QQmlComponent14incubateObjectEP14QQmlV8Function@Base 5.0.1
 _ZN13QQmlComponent15progressChangedEd@Base 5.0.1
 _ZN13QQmlComponent16staticMetaObjectE@Base 5.0.1
 _ZN13QQmlComponent21qmlAttachedPropertiesEP7QObject@Base 5.0.1
 _ZN13QQmlComponent6createEP11QQmlContext@Base 5.0.1
 _ZN13QQmlComponent6createER13QQmlIncubatorP11QQmlContextS3_@Base 5.0.1
 _ZN13QQmlComponent7loadUrlERK4QUrl@Base 5.0.1
 _ZN13QQmlComponent7loadUrlERK4QUrlNS_15CompilationModeE@Base 5.0.1
 _ZN13QQmlComponent7setDataERK10QByteArrayRK4QUrl@Base 5.0.1
 _ZN13QQmlComponentC1EP10QQmlEngineP16QQmlCompiledDataiP7QObject@Base 5.0.1
 _ZN13QQmlComponentC1EP10QQmlEngineP7QObject@Base 5.0.1
 _ZN13QQmlComponentC1EP10QQmlEngineRK4QUrlNS_15CompilationModeEP7QObject@Base 5.0.1
 _ZN13QQmlComponentC1EP10QQmlEngineRK4QUrlP7QObject@Base 5.0.1
 _ZN13QQmlComponentC1EP10QQmlEngineRK7QStringNS_15CompilationModeEP7QObject@Base 5.0.1
 _ZN13QQmlComponentC1EP10QQmlEngineRK7QStringP7QObject@Base 5.0.1
 _ZN13QQmlComponentC1EP7QObject@Base 5.0.1
 _ZN13QQmlComponentC1ER20QQmlComponentPrivateP7QObject@Base 5.0.1
 _ZN13QQmlComponentC2EP10QQmlEngineP16QQmlCompiledDataiP7QObject@Base 5.0.1
 _ZN13QQmlComponentC2EP10QQmlEngineP7QObject@Base 5.0.1
 _ZN13QQmlComponentC2EP10QQmlEngineRK4QUrlNS_15CompilationModeEP7QObject@Base 5.0.1
 _ZN13QQmlComponentC2EP10QQmlEngineRK4QUrlP7QObject@Base 5.0.1
 _ZN13QQmlComponentC2EP10QQmlEngineRK7QStringNS_15CompilationModeEP7QObject@Base 5.0.1
 _ZN13QQmlComponentC2EP10QQmlEngineRK7QStringP7QObject@Base 5.0.1
 _ZN13QQmlComponentC2EP7QObject@Base 5.0.1
 _ZN13QQmlComponentC2ER20QQmlComponentPrivateP7QObject@Base 5.0.1
 _ZN13QQmlComponentD0Ev@Base 5.0.1
 _ZN13QQmlComponentD1Ev@Base 5.0.1
 _ZN13QQmlComponentD2Ev@Base 5.0.1
 _ZN13QQmlIncubator13statusChangedENS_6StatusE@Base 5.0.1
 _ZN13QQmlIncubator15forceCompletionEv@Base 5.0.1
 _ZN13QQmlIncubator15setInitialStateEP7QObject@Base 5.0.1
 _ZN13QQmlIncubator5clearEv@Base 5.0.1
 _ZN13QQmlIncubatorC1ENS_14IncubationModeE@Base 5.0.1
 _ZN13QQmlIncubatorC2ENS_14IncubationModeE@Base 5.0.1
 _ZN13QQmlIncubatorD0Ev@Base 5.0.1
 _ZN13QQmlIncubatorD1Ev@Base 5.0.1
 _ZN13QQmlIncubatorD2Ev@Base 5.0.1
 _ZN13QQmlValueType11qt_metacallEN11QMetaObject4CallEiPPv@Base 5.0.1
 _ZN13QQmlValueType11qt_metacastEPKc@Base 5.0.1
 _ZN13QQmlValueType16staticMetaObjectE@Base 5.0.1
 _ZN13QQmlValueTypeC1EiP7QObject@Base 5.0.1
 _ZN13QQmlValueTypeC2EiP7QObject@Base 5.0.1
 _ZN13QQmlValueTypeD0Ev@Base 5.0.1
 _ZN13QQmlValueTypeD1Ev@Base 5.0.1
 _ZN13QQmlValueTypeD2Ev@Base 5.0.1
 _ZN14QQmlExpression10clearErrorEv@Base 5.0.1
 _ZN14QQmlExpression11qt_metacallEN11QMetaObject4CallEiPPv@Base 5.0.1
 _ZN14QQmlExpression11qt_metacastEPKc@Base 5.0.1
 _ZN14QQmlExpression12valueChangedEv@Base 5.0.1
 _ZN14QQmlExpression13setExpressionERK7QString@Base 5.0.1
 _ZN14QQmlExpression16staticMetaObjectE@Base 5.0.1
 _ZN14QQmlExpression17setSourceLocationERK7QStringii@Base 5.0.1
 _ZN14QQmlExpression23setNotifyOnValueChangedEb@Base 5.0.1
 _ZN14QQmlExpression8evaluateEPb@Base 5.0.1
 _ZN14QQmlExpressionC1EP11QQmlContextP7QObjectRK7QStringS3_@Base 5.0.1
 _ZN14QQmlExpressionC1EP15QQmlContextDataP7QObjectRK10QByteArraybRK7QStringiiR21QQmlExpressionPrivate@Base 5.0.1
 _ZN14QQmlExpressionC1EP15QQmlContextDataP7QObjectRK7QString@Base 5.0.1
 _ZN14QQmlExpressionC1EP15QQmlContextDataP7QObjectRK7QStringR21QQmlExpressionPrivate@Base 5.0.1
 _ZN14QQmlExpressionC1EP15QQmlContextDataP7QObjectRK7QStringbS6_iiR21QQmlExpressionPrivate@Base 5.0.1
 _ZN14QQmlExpressionC1ERK16QQmlScriptStringP11QQmlContextP7QObjectS6_@Base 5.0.1
 _ZN14QQmlExpressionC1Ev@Base 5.0.1
 _ZN14QQmlExpressionC2EP11QQmlContextP7QObjectRK7QStringS3_@Base 5.0.1
 _ZN14QQmlExpressionC2EP15QQmlContextDataP7QObjectRK10QByteArraybRK7QStringiiR21QQmlExpressionPrivate@Base 5.0.1
 _ZN14QQmlExpressionC2EP15QQmlContextDataP7QObjectRK7QString@Base 5.0.1
 _ZN14QQmlExpressionC2EP15QQmlContextDataP7QObjectRK7QStringR21QQmlExpressionPrivate@Base 5.0.1
 _ZN14QQmlExpressionC2EP15QQmlContextDataP7QObjectRK7QStringbS6_iiR21QQmlExpressionPrivate@Base 5.0.1
 _ZN14QQmlExpressionC2ERK16QQmlScriptStringP11QQmlContextP7QObjectS6_@Base 5.0.1
 _ZN14QQmlExpressionC2Ev@Base 5.0.1
 _ZN14QQmlExpressionD0Ev@Base 5.0.1
 _ZN14QQmlExpressionD1Ev@Base 5.0.1
 _ZN14QQmlExpressionD2Ev@Base 5.0.1
 _ZN14QQmlMetaObject10canConvertERKS_S1_@Base 5.0.1
 _ZN14QQmlTypeLoader4Blob11fetchQmldirERK4QUrlPKN10QQmlScript6ImportEiP5QListI9QQmlErrorE@Base 5.0.1
 _ZN14QQmlTypeLoader4Blob12updateQmldirEP14QQmlQmldirDataPKN10QQmlScript6ImportEP5QListI9QQmlErrorE@Base 5.0.1
 _ZN14QQmlTypeLoader4Blob15dependencyErrorEP12QQmlDataBlob@Base 5.0.1
 _ZN14QQmlTypeLoader4Blob18dependencyCompleteEP12QQmlDataBlob@Base 5.0.1
 _ZN14QQmlTypeLoader4Blob19qmldirDataAvailableEP14QQmlQmldirDataP5QListI9QQmlErrorE@Base 5.0.1
 _ZN14QQmlTypeLoader4Blob9addImportERKN10QQmlScript6ImportEP5QListI9QQmlErrorE@Base 5.0.1
 _ZN14QQmlTypeLoader4BlobC1ERK4QUrlN12QQmlDataBlob4TypeEPS_@Base 5.0.1
 _ZN14QQmlTypeLoader4BlobC2ERK4QUrlN12QQmlDataBlob4TypeEPS_@Base 5.0.1
 _ZN14QQmlTypeLoader4BlobD0Ev@Base 5.0.1
 _ZN14QQmlTypeLoader4BlobD1Ev@Base 5.0.1
 _ZN14QQmlTypeLoader4BlobD2Ev@Base 5.0.1
 _ZN15QQmlBoundSignal13setExpressionEP25QQmlBoundSignalExpression@Base 5.0.1
 _ZN15QQmlBoundSignal14takeExpressionEP25QQmlBoundSignalExpression@Base 5.0.1
 _ZN15QQmlBoundSignalC1EP7QObjectiS1_P10QQmlEngine@Base 5.0.1
 _ZN15QQmlBoundSignalC2EP7QObjectiS1_P10QQmlEngine@Base 5.0.1
 _ZN15QQmlBoundSignalD0Ev@Base 5.0.1
 _ZN15QQmlBoundSignalD1Ev@Base 5.0.1
 _ZN15QQmlBoundSignalD2Ev@Base 5.0.1
 _ZN15QQmlContextData10invalidateEv@Base 5.0.1
 _ZN15QQmlContextData11resolvedUrlERK4QUrl@Base 5.0.1
 _ZN15QQmlContextData12ContextGuardD0Ev@Base 5.0.1
 _ZN15QQmlContextData12ContextGuardD1Ev@Base 5.0.1
 _ZN15QQmlContextData12ContextGuardD2Ev@Base 5.0.1
 _ZN15QQmlContextData12clearContextEv@Base 5.0.1
 _ZN15QQmlContextData13asQQmlContextEv@Base 5.0.1
 _ZN15QQmlContextData13setIdPropertyEiP7QObject@Base 5.0.1
 _ZN15QQmlContextData15emitDestructionEv@Base 5.0.1
 _ZN15QQmlContextData17setIdPropertyDataEP16QQmlIntegerCache@Base 5.0.1
 _ZN15QQmlContextData18refreshExpressionsEv@Base 5.0.1
 _ZN15QQmlContextData20asQQmlContextPrivateEv@Base 5.0.1
 _ZN15QQmlContextData27refreshExpressionsRecursiveEP22QQmlAbstractExpression@Base 5.0.1
 _ZN15QQmlContextData27refreshExpressionsRecursiveEb@Base 5.0.1
 _ZN15QQmlContextData7destroyEv@Base 5.0.1
 _ZN15QQmlContextData9addObjectEP7QObject@Base 5.0.1
 _ZN15QQmlContextData9setParentEPS_b@Base 5.0.1
 _ZN15QQmlContextDataC1EP11QQmlContext@Base 5.0.1
 _ZN15QQmlContextDataC1Ev@Base 5.0.1
 _ZN15QQmlContextDataC2EP11QQmlContext@Base 5.0.1
 _ZN15QQmlContextDataC2Ev@Base 5.0.1
 _ZN15QQmlDebugServer10addServiceEP16QQmlDebugService@Base 5.0.1
 _ZN15QQmlDebugServer11qt_metacallEN11QMetaObject4CallEiPPv@Base 5.0.1
 _ZN15QQmlDebugServer11qt_metacastEPKc@Base 5.0.1
 _ZN15QQmlDebugServer12sendMessagesEP16QQmlDebugServiceRK5QListI10QByteArrayE@Base 5.0.1
 _ZN15QQmlDebugServer13removeServiceEP16QQmlDebugService@Base 5.0.1
 _ZN15QQmlDebugServer14receiveMessageERK10QByteArray@Base 5.0.1
 _ZN15QQmlDebugServer16staticMetaObjectE@Base 5.0.1
 _ZN15QQmlDebugServer19s_dataStreamVersionE@Base 5.0.1
 _ZN15QQmlDebugServer8instanceEv@Base 5.0.1
 _ZN15QQmlDebugServerC1Ev@Base 5.0.1
 _ZN15QQmlDebugServerC2Ev@Base 5.0.1
 _ZN15QQmlDebugServerD0Ev@Base 5.0.1
 _ZN15QQmlDebugServerD1Ev@Base 5.0.1
 _ZN15QQmlDebugServerD2Ev@Base 5.0.1
 _ZN15QQmlDebugStreamC1EP10QByteArray6QFlagsIN9QIODevice12OpenModeFlagEE@Base 5.0.1
 _ZN15QQmlDebugStreamC1EP9QIODevice@Base 5.0.1
 _ZN15QQmlDebugStreamC1ERK10QByteArray@Base 5.0.1
 _ZN15QQmlDebugStreamC1Ev@Base 5.0.1
 _ZN15QQmlDebugStreamC2EP10QByteArray6QFlagsIN9QIODevice12OpenModeFlagEE@Base 5.0.1
 _ZN15QQmlDebugStreamC2EP9QIODevice@Base 5.0.1
 _ZN15QQmlDebugStreamC2ERK10QByteArray@Base 5.0.1
 _ZN15QQmlDebugStreamC2Ev@Base 5.0.1
 _ZN15QQmlGuiProvider11applicationEP7QObject@Base 5.0.1
 _ZN15QQmlGuiProvider11inputMethodEv@Base 5.0.1
 _ZN15QQmlGuiProvider12fontFamiliesEv@Base 5.0.1
 _ZN15QQmlGuiProvider17openUrlExternallyER4QUrl@Base 5.0.1
 _ZN15QQmlGuiProviderD0Ev@Base 5.0.1
 _ZN15QQmlGuiProviderD1Ev@Base 5.0.1
 _ZN15QQmlGuiProviderD2Ev@Base 5.0.1
 _ZN15QQmlMemoryScopeC1EPKc@Base 5.0.1
 _ZN15QQmlMemoryScopeC1ERK4QUrl@Base 5.0.1
 _ZN15QQmlMemoryScopeC2EPKc@Base 5.0.1
 _ZN15QQmlMemoryScopeC2ERK4QUrl@Base 5.0.1
 _ZN15QQmlMemoryScopeD1Ev@Base 5.0.1
 _ZN15QQmlMemoryScopeD2Ev@Base 5.0.1
 _ZN15QQmlPropertyMap11qt_metacallEN11QMetaObject4CallEiPPv@Base 5.0.1
 _ZN15QQmlPropertyMap11qt_metacastEPKc@Base 5.0.1
 _ZN15QQmlPropertyMap11updateValueERK7QStringRK8QVariant@Base 5.0.1
 _ZN15QQmlPropertyMap12valueChangedERK7QStringRK8QVariant@Base 5.0.1
 _ZN15QQmlPropertyMap15allocatePrivateEv@Base 5.0.1
 _ZN15QQmlPropertyMap16staticMetaObjectE@Base 5.0.1
 _ZN15QQmlPropertyMap4initEPK11QMetaObject@Base 5.0.1
 _ZN15QQmlPropertyMap5clearERK7QString@Base 5.0.1
 _ZN15QQmlPropertyMap6insertERK7QStringRK8QVariant@Base 5.0.1
 _ZN15QQmlPropertyMapC1EP7QObject@Base 5.0.1
 _ZN15QQmlPropertyMapC2EP7QObject@Base 5.0.1
 _ZN15QQmlPropertyMapD0Ev@Base 5.0.1
 _ZN15QQmlPropertyMapD1Ev@Base 5.0.1
 _ZN15QQmlPropertyMapD2Ev@Base 5.0.1
 _ZN15QQmlPropertyMapixERK7QString@Base 5.0.1
 _ZN15QQuickListModel11qt_metacallEN11QMetaObject4CallEiPPv@Base 5.0.1
 _ZN15QQuickListModel11qt_metacastEPKc@Base 5.0.1
 _ZN15QQuickListModel11setPropertyEiRK7QStringRK8QVariant@Base 5.0.1
 _ZN15QQuickListModel12countChangedEv@Base 5.0.1
 _ZN15QQuickListModel14emitItemsMovedEiii@Base 5.0.1
 _ZN15QQuickListModel15createWithOwnerEPS_@Base 5.0.1
 _ZN15QQuickListModel15setDynamicRolesEb@Base 5.0.1
 _ZN15QQuickListModel16emitItemsChangedEiiRK7QVectorIiE@Base 5.0.1
 _ZN15QQuickListModel16emitItemsRemovedEii@Base 5.0.1
 _ZN15QQuickListModel16staticMetaObjectE@Base 5.0.1
 _ZN15QQuickListModel17emitItemsInsertedEii@Base 5.0.1
 _ZN15QQuickListModel3setEiRK12QQmlV8Handle@Base 5.0.1
 _ZN15QQuickListModel4moveEiii@Base 5.0.1
 _ZN15QQuickListModel4syncEPS_S0_P5QHashIiS0_E@Base 5.0.1
 _ZN15QQuickListModel4syncEv@Base 5.0.1
 _ZN15QQuickListModel5agentEv@Base 5.0.1
 _ZN15QQuickListModel5clearEv@Base 5.0.1
 _ZN15QQuickListModel6appendEP14QQmlV8Function@Base 5.0.1
 _ZN15QQuickListModel6insertEP14QQmlV8Function@Base 5.0.1
 _ZN15QQuickListModel6removeEP14QQmlV8Function@Base 5.0.1
 _ZN15QQuickListModelC1EP7QObject@Base 5.0.1
 _ZN15QQuickListModelC1EPKS_P9ListModelP9QV8EngineP7QObject@Base 5.0.1
 _ZN15QQuickListModelC1EPS_P26QQuickListModelWorkerAgent@Base 5.0.1
 _ZN15QQuickListModelC2EP7QObject@Base 5.0.1
 _ZN15QQuickListModelC2EPKS_P9ListModelP9QV8EngineP7QObject@Base 5.0.1
 _ZN15QQuickListModelC2EPS_P26QQuickListModelWorkerAgent@Base 5.0.1
 _ZN15QQuickListModelD0Ev@Base 5.0.1
 _ZN15QQuickListModelD1Ev@Base 5.0.1
 _ZN15QQuickListModelD2Ev@Base 5.0.1
 _ZN16QJSValueIterator4nextEv@Base 5.0.1
 _ZN16QJSValueIteratorC1ERK8QJSValue@Base 5.0.1
 _ZN16QJSValueIteratorC2ERK8QJSValue@Base 5.0.1
 _ZN16QJSValueIteratorD1Ev@Base 5.0.1
 _ZN16QJSValueIteratorD2Ev@Base 5.0.1
 _ZN16QJSValueIteratoraSER8QJSValue@Base 5.0.1
 _ZN16QQmlCustomParser11clearErrorsEv@Base 5.0.1
 _ZN16QQmlCustomParser14rewriteBindingERKN10QQmlScript7VariantERK7QString@Base 5.0.1
 _ZN16QQmlCustomParser20rewriteSignalHandlerERKN10QQmlScript7VariantERK7QString@Base 5.0.1
 _ZN16QQmlCustomParser5errorERK20QQmlCustomParserNodeRK7QString@Base 5.0.1
 _ZN16QQmlCustomParser5errorERK24QQmlCustomParserPropertyRK7QString@Base 5.0.1
 _ZN16QQmlCustomParser5errorERK7QString@Base 5.0.1
 _ZN16QQmlDebugService11idForObjectEP7QObject@Base 5.0.1
 _ZN16QQmlDebugService11objectForIdEi@Base 5.0.1
 _ZN16QQmlDebugService11qt_metacallEN11QMetaObject4CallEiPPv@Base 5.0.1
 _ZN16QQmlDebugService11qt_metacastEPKc@Base 5.0.1
 _ZN16QQmlDebugService11sendMessageERK10QByteArray@Base 5.0.1
 _ZN16QQmlDebugService12blockingModeEv@Base 5.0.1
 _ZN16QQmlDebugService12sendMessagesERK5QListI10QByteArrayE@Base 5.0.1
 _ZN16QQmlDebugService12stateChangedENS_5StateE@Base 5.0.1
 _ZN16QQmlDebugService14objectToStringEP7QObject@Base 5.0.1
 _ZN16QQmlDebugService15messageReceivedERK10QByteArray@Base 5.0.1
 _ZN16QQmlDebugService15registerServiceEv@Base 5.0.1
 _ZN16QQmlDebugService16staticMetaObjectE@Base 5.0.1
 _ZN16QQmlDebugService18hasDebuggingClientEv@Base 5.0.1
 _ZN16QQmlDebugService18isDebuggingEnabledEv@Base 5.0.1
 _ZN16QQmlDebugService20clearObjectsFromHashEv@Base 5.0.1
 _ZN16QQmlDebugService21objectForLocationInfoERK7QStringii@Base 5.0.1
 _ZN16QQmlDebugService21stateAboutToBeChangedENS_5StateE@Base 5.0.1
 _ZN16QQmlDebugService28removeInvalidObjectsFromHashEv@Base 5.0.1
 _ZN16QQmlDebugServiceC1ER23QQmlDebugServicePrivateRK7QStringfP7QObject@Base 5.0.1
 _ZN16QQmlDebugServiceC1ERK7QStringfP7QObject@Base 5.0.1
 _ZN16QQmlDebugServiceC2ER23QQmlDebugServicePrivateRK7QStringfP7QObject@Base 5.0.1
 _ZN16QQmlDebugServiceC2ERK7QStringfP7QObject@Base 5.0.1
 _ZN16QQmlDebugServiceD0Ev@Base 5.0.1
 _ZN16QQmlDebugServiceD1Ev@Base 5.0.1
 _ZN16QQmlDebugServiceD2Ev@Base 5.0.1
 _ZN16QQmlParserStatusC1Ev@Base 5.0.1
 _ZN16QQmlParserStatusC2Ev@Base 5.0.1
 _ZN16QQmlParserStatusD0Ev@Base 5.0.1
 _ZN16QQmlParserStatusD1Ev@Base 5.0.1
 _ZN16QQmlParserStatusD2Ev@Base 5.0.1
 _ZN16QQmlScriptStringC1ERK7QStringP11QQmlContextP7QObject@Base 5.0.1
 _ZN16QQmlScriptStringC1ERKS_@Base 5.0.1
 _ZN16QQmlScriptStringC1Ev@Base 5.0.1
 _ZN16QQmlScriptStringC2ERK7QStringP11QQmlContextP7QObject@Base 5.0.1
 _ZN16QQmlScriptStringC2ERKS_@Base 5.0.1
 _ZN16QQmlScriptStringC2Ev@Base 5.0.1
 _ZN16QQmlScriptStringD1Ev@Base 5.0.1
 _ZN16QQmlScriptStringD2Ev@Base 5.0.1
 _ZN16QQmlScriptStringaSERKS_@Base 5.0.1
 _ZN16QV8StringWrapper4initEv@Base 5.0.1
 _ZN16QV8StringWrapper7destroyEv@Base 5.0.1
 _ZN16QV8StringWrapper8toStringEN2v86HandleINS0_6StringEEE@Base 5.0.1
 _ZN16QV8StringWrapper8toStringERK7QString@Base 5.0.1
 _ZN16QV8StringWrapperC1Ev@Base 5.0.1
 _ZN16QV8StringWrapperC2Ev@Base 5.0.1
 _ZN16QV8StringWrapperD1Ev@Base 5.0.1
 _ZN16QV8StringWrapperD2Ev@Base 5.0.1
 _ZN17QQmlColorProvider14rgbaFromStringERK7QStringPb@Base 5.0.1
 _ZN17QQmlColorProvider15colorFromStringERK7QStringPb@Base 5.0.1
 _ZN17QQmlColorProvider4tintERK8QVariantS2_@Base 5.0.1
 _ZN17QQmlColorProvider6darkerERK8QVariantd@Base 5.0.1
 _ZN17QQmlColorProvider7lighterERK8QVariantd@Base 5.0.1
 _ZN17QQmlColorProvider8fromHslFEdddd@Base 5.0.1
 _ZN17QQmlColorProvider8fromRgbFEdddd@Base 5.0.1
 _ZN17QQmlColorProviderD0Ev@Base 5.0.1
 _ZN17QQmlColorProviderD1Ev@Base 5.0.1
 _ZN17QQmlColorProviderD2Ev@Base 5.0.1
 _ZN17QQmlEnginePrivate11createCacheEP8QQmlTypeiR9QQmlError@Base 5.0.1
 _ZN17QQmlEnginePrivate11createCacheEPK11QMetaObject@Base 5.0.1
 _ZN17QQmlEnginePrivate12designerModeEv@Base 5.0.1
 _ZN17QQmlEnginePrivate14s_designerModeE@Base 5.0.1
 _ZN17QQmlEnginePrivate17registerBaseTypesEPKcii@Base 5.0.1
 _ZN17QQmlEnginePrivate20activateDesignerModeEv@Base 5.0.1
 _ZN17QQmlEnginePrivate20defineQtQuick2ModuleEv@Base 5.0.1
 _ZN17QQmlEnginePrivate20propertyCacheForTypeEi@Base 5.0.1
 _ZN17QQmlEnginePrivate21getWorkerScriptEngineEv@Base 5.0.1
 _ZN17QQmlEnginePrivate21qml_debugging_enabledE@Base 5.0.1
 _ZN17QQmlEnginePrivate21registerCompositeTypeEP16QQmlCompiledData@Base 5.0.1
 _ZN17QQmlEnginePrivate21registerQtQuick2TypesEPKcii@Base 5.0.1
 _ZN17QQmlEnginePrivate22doDeleteInEngineThreadEv@Base 5.0.1
 _ZN17QQmlEnginePrivate23rawPropertyCacheForTypeEi@Base 5.0.1
 _ZN17QQmlEnginePrivate23unregisterCompositeTypeEP16QQmlCompiledData@Base 5.0.1
 _ZN17QQmlEnginePrivate24referenceScarceResourcesEv@Base 5.0.1
 _ZN17QQmlEnginePrivate24registerFinalizeCallbackEP7QObjecti@Base 5.0.1
 _ZN17QQmlEnginePrivate26dereferenceScarceResourcesEv@Base 5.0.1
 _ZN17QQmlEnginePrivate4initEv@Base 5.0.1
 _ZN17QQmlEnginePrivate7warningEP10QQmlEngineP16QQmlDelayedError@Base 5.0.1
 _ZN17QQmlEnginePrivate7warningEP10QQmlEngineRK5QListI9QQmlErrorE@Base 5.0.1
 _ZN17QQmlEnginePrivate7warningEP10QQmlEngineRK9QQmlError@Base 5.0.1
 _ZN17QQmlEnginePrivate7warningEP16QQmlDelayedError@Base 5.0.1
 _ZN17QQmlEnginePrivate7warningEPS_RK5QListI9QQmlErrorE@Base 5.0.1
 _ZN17QQmlEnginePrivate7warningEPS_RK9QQmlError@Base 5.0.1
 _ZN17QQmlEnginePrivate7warningERK5QListI9QQmlErrorE@Base 5.0.1
 _ZN17QQmlEnginePrivate7warningERK9QQmlError@Base 5.0.1
 _ZN17QQmlEnginePrivate8incubateER13QQmlIncubatorP15QQmlContextData@Base 5.0.1
 _ZN17QQmlEnginePrivate8sendQuitEv@Base 5.0.1
 _ZN17QQmlEnginePrivate9isQObjectEi@Base 5.0.1
 _ZN17QQmlEnginePrivateC1EP10QQmlEngine@Base 5.0.1
 _ZN17QQmlEnginePrivateC2EP10QQmlEngine@Base 5.0.1
 _ZN17QQmlEnginePrivateD0Ev@Base 5.0.1
 _ZN17QQmlEnginePrivateD1Ev@Base 5.0.1
 _ZN17QQmlEnginePrivateD2Ev@Base 5.0.1
 _ZN17QQmlListReferenceC1EP7QObjectPKcP10QQmlEngine@Base 5.0.1
 _ZN17QQmlListReferenceC1ERKS_@Base 5.0.1
 _ZN17QQmlListReferenceC1Ev@Base 5.0.1
 _ZN17QQmlListReferenceC2EP7QObjectPKcP10QQmlEngine@Base 5.0.1
 _ZN17QQmlListReferenceC2ERKS_@Base 5.0.1
 _ZN17QQmlListReferenceC2Ev@Base 5.0.1
 _ZN17QQmlListReferenceD1Ev@Base 5.0.1
 _ZN17QQmlListReferenceD2Ev@Base 5.0.1
 _ZN17QQmlListReferenceaSERKS_@Base 5.0.1
 _ZN17QQmlPropertyCache10invalidateEP10QQmlEnginePK11QMetaObject@Base 5.0.1
 _ZN17QQmlPropertyCache10newQObjectEP7QObjectP9QV8Engine@Base 5.0.1
 _ZN17QQmlPropertyCache11updateRecurEP10QQmlEnginePK11QMetaObject@Base 5.0.1
 _ZN17QQmlPropertyCache12appendMethodERK17QHashedCStringRefjiRK5QListI10QByteArrayE@Base 5.0.1
 _ZN17QQmlPropertyCache12appendMethodERK7QStringjiRK5QListI10QByteArrayE@Base 5.0.1
 _ZN17QQmlPropertyCache12appendSignalERK17QHashedCStringRefjiPKiRK5QListI10QByteArrayE@Base 5.0.1
 _ZN17QQmlPropertyCache12appendSignalERK7QStringjiPKiRK5QListI10QByteArrayE@Base 5.0.1
 _ZN17QQmlPropertyCache13copyAndAppendEP10QQmlEnginePK11QMetaObjectN19QQmlPropertyRawData4FlagES6_S6_@Base 5.0.1
 _ZN17QQmlPropertyCache13copyAndAppendEP10QQmlEnginePK11QMetaObjectiN19QQmlPropertyRawData4FlagES6_S6_@Base 5.0.1
 _ZN17QQmlPropertyCache13originalCloneEP7QObjecti@Base 5.0.1
 _ZN17QQmlPropertyCache13originalCloneEi@Base 5.0.1
 _ZN17QQmlPropertyCache14appendPropertyERK17QHashedCStringRefjiii@Base 5.0.1
 _ZN17QQmlPropertyCache14appendPropertyERK7QStringjiii@Base 5.0.1
 _ZN17QQmlPropertyCache14copyAndReserveEP10QQmlEngineiii@Base 5.0.1
 _ZN17QQmlPropertyCache16createMetaObjectEv@Base 5.0.1
 _ZN17QQmlPropertyCache16methodReturnTypeEP7QObjectRK16QQmlPropertyDataP10QByteArray@Base 5.0.1
 _ZN17QQmlPropertyCache19isDynamicMetaObjectEPK11QMetaObject@Base 5.0.1
 _ZN17QQmlPropertyCache19toMetaObjectBuilderER18QMetaObjectBuilder@Base 5.0.1
 _ZN17QQmlPropertyCache20methodParameterTypesEP7QObjectiR15QVarLengthArrayIiLi9EEP10QByteArray@Base 5.0.1
 _ZN17QQmlPropertyCache21createArgumentsObjectEiRK5QListI10QByteArrayE@Base 5.0.1
 _ZN17QQmlPropertyCache26signalParameterStringForJSEiPiP7QString@Base 5.0.1
 _ZN17QQmlPropertyCache4copyEv@Base 5.0.1
 _ZN17QQmlPropertyCache5clearEv@Base 5.0.1
 _ZN17QQmlPropertyCache6appendEP10QQmlEnginePK11QMetaObjectiN19QQmlPropertyRawData4FlagES6_S6_@Base 5.0.1
 _ZN17QQmlPropertyCache6updateEP10QQmlEnginePK11QMetaObject@Base 5.0.1
 _ZN17QQmlPropertyCache7destroyEv@Base 5.0.1
 _ZN17QQmlPropertyCache8propertyEP10QQmlEngineP7QObjectRK15QHashedV8StringP15QQmlContextDataR16QQmlPropertyData@Base 5.0.1
 _ZN17QQmlPropertyCache8propertyEP10QQmlEngineP7QObjectRK7QStringP15QQmlContextDataR16QQmlPropertyData@Base 5.0.1
 _ZN17QQmlPropertyCache9setParentEPS_@Base 5.0.1
 _ZN17QQmlPropertyCacheC1EP10QQmlEngine@Base 5.0.1
 _ZN17QQmlPropertyCacheC1EP10QQmlEnginePK11QMetaObject@Base 5.0.1
 _ZN17QQmlPropertyCacheC2EP10QQmlEngine@Base 5.0.1
 _ZN17QQmlPropertyCacheC2EP10QQmlEnginePK11QMetaObject@Base 5.0.1
 _ZN17QQmlPropertyCacheD0Ev@Base 5.0.1
 _ZN17QQmlPropertyCacheD1Ev@Base 5.0.1
 _ZN17QQmlPropertyCacheD2Ev@Base 5.0.1
 _ZN17QQmlRectValueType11qt_metacallEN11QMetaObject4CallEiPPv@Base 5.0.1
 _ZN17QQmlRectValueType11qt_metacastEPKc@Base 5.0.1
 _ZN17QQmlRectValueType16staticMetaObjectE@Base 5.0.1
 _ZN17QQmlRectValueType4setXEi@Base 5.0.1
 _ZN17QQmlRectValueType4setYEi@Base 5.0.1
 _ZN17QQmlRectValueType8setWidthEi@Base 5.0.1
 _ZN17QQmlRectValueType9setHeightEi@Base 5.0.1
 _ZN17QQmlRectValueTypeC1EP7QObject@Base 5.0.1
 _ZN17QQmlRectValueTypeC2EP7QObject@Base 5.0.1
 _ZN17QQmlRectValueTypeD0Ev@Base 5.0.1
 _ZN17QQmlRectValueTypeD1Ev@Base 5.0.1
 _ZN17QQmlRectValueTypeD2Ev@Base 5.0.1
 _ZN17QQmlSizeValueType11qt_metacallEN11QMetaObject4CallEiPPv@Base 5.0.1
 _ZN17QQmlSizeValueType11qt_metacastEPKc@Base 5.0.1
 _ZN17QQmlSizeValueType16staticMetaObjectE@Base 5.0.1
 _ZN17QQmlSizeValueType8setWidthEi@Base 5.0.1
 _ZN17QQmlSizeValueType9setHeightEi@Base 5.0.1
 _ZN17QQmlSizeValueTypeC1EP7QObject@Base 5.0.1
 _ZN17QQmlSizeValueTypeC2EP7QObject@Base 5.0.1
 _ZN17QQmlSizeValueTypeD0Ev@Base 5.0.1
 _ZN17QQmlSizeValueTypeD1Ev@Base 5.0.1
 _ZN17QQmlSizeValueTypeD2Ev@Base 5.0.1
 _ZN17QQmlVMEMetaObject10list_clearEP16QQmlListPropertyI7QObjectE@Base 5.0.1
 _ZN17QQmlVMEMetaObject10list_countEP16QQmlListPropertyI7QObjectE@Base 5.0.1
 _ZN17QQmlVMEMetaObject11listChangedEi@Base 5.0.1
 _ZN17QQmlVMEMetaObject11list_appendEP16QQmlListPropertyI7QObjectEPS1_@Base 5.0.1
 _ZN17QQmlVMEMetaObject11vmePropertyEi@Base 5.0.1
 _ZN17QQmlVMEMetaObject12connectAliasEi@Base 5.0.1
 _ZN17QQmlVMEMetaObject12getForMethodEP7QObjecti@Base 5.0.1
 _ZN17QQmlVMEMetaObject12getForSignalEP7QObjecti@Base 5.0.1
 _ZN17QQmlVMEMetaObject12setVmeMethodEiN2v810PersistentINS0_8FunctionEEE@Base 5.0.1
 _ZN17QQmlVMEMetaObject13writePropertyEiRK8QVariant@Base 5.0.1
 _ZN17QQmlVMEMetaObject14getForPropertyEP7QObjecti@Base 5.0.1
 _ZN17QQmlVMEMetaObject14setVMEPropertyEiN2v86HandleINS0_5ValueEEE@Base 5.0.1
 _ZN17QQmlVMEMetaObject15readVarPropertyEi@Base 5.0.1
 _ZN17QQmlVMEMetaObject16writeVarPropertyEiN2v86HandleINS0_5ValueEEE@Base 5.0.1
 _ZN17QQmlVMEMetaObject18GcPrologueCallbackEPN13QV8GCCallback4NodeE@Base 5.0.1
 _ZN17QQmlVMEMetaObject18connectAliasSignalEib@Base 5.0.1
 _ZN17QQmlVMEMetaObject19registerInterceptorEiiP28QQmlPropertyValueInterceptor@Base 5.0.1
 _ZN17QQmlVMEMetaObject19toDynamicMetaObjectEP7QObject@Base 5.0.1
 _ZN17QQmlVMEMetaObject19vmeMethodLineNumberEi@Base 5.0.1
 _ZN17QQmlVMEMetaObject21readPropertyAsVariantEi@Base 5.0.1
 _ZN17QQmlVMEMetaObject34VarPropertiesWeakReferenceCallbackEN2v810PersistentINS0_5ValueEEEPv@Base 5.0.1
 _ZN17QQmlVMEMetaObject6methodEi@Base 5.0.1
 _ZN17QQmlVMEMetaObject7list_atEP16QQmlListPropertyI7QObjectEi@Base 5.0.1
 _ZN17QQmlVMEMetaObject8activateEP7QObjectiPPv@Base 5.0.1
 _ZN17QQmlVMEMetaObject8metaCallEN11QMetaObject4CallEiPPv@Base 5.0.1
 _ZN17QQmlVMEMetaObject9vmeMethodEi@Base 5.0.1
 _ZN17QQmlVMEMetaObjectC1EP7QObjectP17QQmlPropertyCachePK15QQmlVMEMetaData@Base 5.0.1
 _ZN17QQmlVMEMetaObjectC2EP7QObjectP17QQmlPropertyCachePK15QQmlVMEMetaData@Base 5.0.1
 _ZN17QQmlVMEMetaObjectD0Ev@Base 5.0.1
 _ZN17QQmlVMEMetaObjectD1Ev@Base 5.0.1
 _ZN17QQmlVMEMetaObjectD2Ev@Base 5.0.1
 _ZN17QV8ContextWrapper10NullGetterEN2v85LocalINS0_6StringEEERKNS0_12AccessorInfoE@Base 5.0.1
 _ZN17QV8ContextWrapper10NullSetterEN2v85LocalINS0_6StringEEENS1_INS0_5ValueEEERKNS0_12AccessorInfoE@Base 5.0.1
 _ZN17QV8ContextWrapper11setReadOnlyEN2v86HandleINS0_6ObjectEEEb@Base 5.0.1
 _ZN17QV8ContextWrapper13addSubContextEN2v86HandleINS0_6ObjectEEENS1_INS0_6ScriptEEEP15QQmlContextData@Base 5.0.1
 _ZN17QV8ContextWrapper14callingContextEv@Base 5.0.1
 _ZN17QV8ContextWrapper20takeContextOwnershipEN2v86HandleINS0_6ObjectEEE@Base 5.0.1
 _ZN17QV8ContextWrapper4initEP9QV8Engine@Base 5.0.1
 _ZN17QV8ContextWrapper6GetterEN2v85LocalINS0_6StringEEERKNS0_12AccessorInfoE@Base 5.0.1
 _ZN17QV8ContextWrapper6SetterEN2v85LocalINS0_6StringEEENS1_INS0_5ValueEEERKNS0_12AccessorInfoE@Base 5.0.1
 _ZN17QV8ContextWrapper7contextEN2v86HandleINS0_5ValueEEE@Base 5.0.1
 _ZN17QV8ContextWrapper7destroyEv@Base 5.0.1
 _ZN17QV8ContextWrapper8qmlScopeEP15QQmlContextDataP7QObject@Base 5.0.1
 _ZN17QV8ContextWrapper8urlScopeERK4QUrl@Base 5.0.1
 _ZN17QV8ContextWrapperC1Ev@Base 5.0.1
 _ZN17QV8ContextWrapperC2Ev@Base 5.0.1
 _ZN17QV8ContextWrapperD1Ev@Base 5.0.1
 _ZN17QV8ContextWrapperD2Ev@Base 5.0.1
 _ZN17QV8QObjectWrapper10DisconnectERKN2v89ArgumentsE@Base 5.0.1
 _ZN17QV8QObjectWrapper10EnumeratorERKN2v812AccessorInfoE@Base 5.0.1
 _ZN17QV8QObjectWrapper10newQObjectEP7QObject@Base 5.0.1
 _ZN17QV8QObjectWrapper10newQObjectEP7QObjectP8QQmlDataP9QV8Engine@Base 5.0.1
 _ZN17QV8QObjectWrapper11GetPropertyEP9QV8EngineP7QObjectPN2v86HandleINS4_5ValueEEERK15QHashedV8StringP15QQmlContextDataNS_12RevisionModeE@Base 5.0.1
 _ZN17QV8QObjectWrapper11SetPropertyEP9QV8EngineP7QObjectRK15QHashedV8StringP15QQmlContextDataN2v86HandleINS9_5ValueEEENS_12RevisionModeE@Base 5.0.1
 _ZN17QV8QObjectWrapper15ExtractQtMethodEP9QV8EngineN2v86HandleINS2_8FunctionEEE@Base 5.0.1
 _ZN17QV8QObjectWrapper15ExtractQtSignalEP9QV8EngineN2v86HandleINS2_6ObjectEEE@Base 5.0.1
 _ZN17QV8QObjectWrapper17deleteWeakQObjectEP18QV8QObjectResourceb@Base 5.0.1
 _ZN17QV8QObjectWrapper28WeakQObjectReferenceCallbackEN2v810PersistentINS0_5ValueEEEPv@Base 5.0.1
 _ZN17QV8QObjectWrapper4initEP9QV8Engine@Base 5.0.1
 _ZN17QV8QObjectWrapper5QueryEN2v85LocalINS0_6StringEEERKNS0_12AccessorInfoE@Base 5.0.1
 _ZN17QV8QObjectWrapper6GetterEN2v85LocalINS0_6StringEEERKNS0_12AccessorInfoE@Base 5.0.1
 _ZN17QV8QObjectWrapper6InvokeERKN2v89ArgumentsE@Base 5.0.1
 _ZN17QV8QObjectWrapper6SetterEN2v85LocalINS0_6StringEEENS1_INS0_5ValueEEERKNS0_12AccessorInfoE@Base 5.0.1
 _ZN17QV8QObjectWrapper7ConnectERKN2v89ArgumentsE@Base 5.0.1
 _ZN17QV8QObjectWrapper7destroyEv@Base 5.0.1
 _ZN17QV8QObjectWrapper9isQObjectEN2v86HandleINS0_6ObjectEEE@Base 5.0.1
 _ZN17QV8QObjectWrapper9toQObjectEN2v86HandleINS0_6ObjectEEE@Base 5.0.1
 _ZN17QV8QObjectWrapper9toQObjectEP17QV8ObjectResource@Base 5.0.1
 _ZN17QV8QObjectWrapperC1Ev@Base 5.0.1
 _ZN17QV8QObjectWrapperC2Ev@Base 5.0.1
 _ZN17QV8QObjectWrapperD1Ev@Base 5.0.1
 _ZN17QV8QObjectWrapperD2Ev@Base 5.0.1
 _ZN18QAnimationGroupJob15appendAnimationEP21QAbstractAnimationJob@Base 5.0.1
 _ZN18QAnimationGroupJob15removeAnimationEP21QAbstractAnimationJob@Base 5.0.1
 _ZN18QAnimationGroupJob16animationRemovedEP21QAbstractAnimationJobS1_S1_@Base 5.0.1
 _ZN18QAnimationGroupJob16prependAnimationEP21QAbstractAnimationJob@Base 5.0.1
 _ZN18QAnimationGroupJob28topLevelAnimationLoopChangedEv@Base 5.0.1
 _ZN18QAnimationGroupJob29uncontrolledAnimationFinishedEP21QAbstractAnimationJob@Base 5.0.1
 _ZN18QAnimationGroupJob34setUncontrolledAnimationFinishTimeEP21QAbstractAnimationJobi@Base 5.0.1
 _ZN18QAnimationGroupJob36resetUncontrolledAnimationFinishTimeEP21QAbstractAnimationJob@Base 5.0.1
 _ZN18QAnimationGroupJob37resetUncontrolledAnimationsFinishTimeEv@Base 5.0.1
 _ZN18QAnimationGroupJob5clearEv@Base 5.0.1
 _ZN18QAnimationGroupJobC1Ev@Base 5.0.1
 _ZN18QAnimationGroupJobC2Ev@Base 5.0.1
 _ZN18QAnimationGroupJobD0Ev@Base 5.0.1
 _ZN18QAnimationGroupJobD1Ev@Base 5.0.1
 _ZN18QAnimationGroupJobD2Ev@Base 5.0.1
 _ZN18QPauseAnimationJob11setDurationEi@Base 5.0.1
 _ZN18QPauseAnimationJob17updateCurrentTimeEi@Base 5.0.1
 _ZN18QPauseAnimationJobC1Ei@Base 5.0.1
 _ZN18QPauseAnimationJobC2Ei@Base 5.0.1
 _ZN18QPauseAnimationJobD0Ev@Base 5.0.1
 _ZN18QPauseAnimationJobD1Ev@Base 5.0.1
 _ZN18QPauseAnimationJobD2Ev@Base 5.0.1
 _ZN18QQmlAnimationTimer11qt_metacallEN11QMetaObject4CallEiPPv@Base 5.0.1
 _ZN18QQmlAnimationTimer11qt_metacastEPKc@Base 5.0.1
 _ZN18QQmlAnimationTimer15startAnimationsEv@Base 5.0.1
 _ZN18QQmlAnimationTimer16staticMetaObjectE@Base 5.0.1
 _ZN18QQmlAnimationTimer17ensureTimerUpdateEv@Base 5.0.1
 _ZN18QQmlAnimationTimer17registerAnimationEP21QAbstractAnimationJobb@Base 5.0.1
 _ZN18QQmlAnimationTimer19unregisterAnimationEP21QAbstractAnimationJob@Base 5.0.1
 _ZN18QQmlAnimationTimer20updateAnimationTimerEv@Base 5.0.1
 _ZN18QQmlAnimationTimer20updateAnimationsTimeEx@Base 5.0.1
 _ZN18QQmlAnimationTimer21restartAnimationTimerEv@Base 5.0.1
 _ZN18QQmlAnimationTimer24registerRunningAnimationEP21QAbstractAnimationJob@Base 5.0.1
 _ZN18QQmlAnimationTimer26unregisterRunningAnimationEP21QAbstractAnimationJob@Base 5.0.1
 _ZN18QQmlAnimationTimer33closestPauseAnimationTimeToFinishEv@Base 5.0.1
 _ZN18QQmlAnimationTimer8instanceEb@Base 5.0.1
 _ZN18QQmlAnimationTimer8instanceEv@Base 5.0.1
 _ZN18QQmlAnimationTimer9stopTimerEv@Base 5.0.1
 _ZN18QQmlAnimationTimerC1Ev@Base 5.0.1
 _ZN18QQmlAnimationTimerC2Ev@Base 5.0.1
 _ZN18QQmlAnimationTimerD0Ev@Base 5.0.1
 _ZN18QQmlAnimationTimerD1Ev@Base 5.0.1
 _ZN18QQmlAnimationTimerD2Ev@Base 5.0.1
 _ZN18QQmlMemoryProfiler4saveEPKc@Base 5.0.1
 _ZN18QQmlMemoryProfiler5clearEv@Base 5.0.1
 _ZN18QQmlMemoryProfiler5statsEPiS0_@Base 5.0.1
 _ZN18QQmlMemoryProfiler6enableEv@Base 5.0.1
 _ZN18QQmlMemoryProfiler7disableEv@Base 5.0.1
 _ZN18QQmlMemoryProfiler9isEnabledEv@Base 5.0.1
 _ZN18QQmlOpenMetaObject12initialValueEi@Base 5.0.1
 _ZN18QQmlOpenMetaObject12propertyReadEi@Base 5.0.1
 _ZN18QQmlOpenMetaObject13propertyWriteEi@Base 5.0.1
 _ZN18QQmlOpenMetaObject14createPropertyEPKcS1_@Base 5.0.1
 _ZN18QQmlOpenMetaObject15propertyCreatedEiR20QMetaPropertyBuilder@Base 5.0.1
 _ZN18QQmlOpenMetaObject15propertyWrittenEi@Base 5.0.1
 _ZN18QQmlOpenMetaObject18propertyWriteValueEiRK8QVariant@Base 5.0.1
 _ZN18QQmlOpenMetaObject8metaCallEN11QMetaObject4CallEiPPv@Base 5.0.1
 _ZN18QQmlOpenMetaObject8setValueERK10QByteArrayRK8QVariant@Base 5.0.1
 _ZN18QQmlOpenMetaObject8setValueEiRK8QVariant@Base 5.0.1
 _ZN18QQmlOpenMetaObject9setCachedEb@Base 5.0.1
 _ZN18QQmlOpenMetaObjectC1EP7QObjectP22QQmlOpenMetaObjectTypeb@Base 5.0.1
 _ZN18QQmlOpenMetaObjectC1EP7QObjectPK11QMetaObjectb@Base 5.0.1
 _ZN18QQmlOpenMetaObjectC2EP7QObjectP22QQmlOpenMetaObjectTypeb@Base 5.0.1
 _ZN18QQmlOpenMetaObjectC2EP7QObjectPK11QMetaObjectb@Base 5.0.1
 _ZN18QQmlOpenMetaObjectD0Ev@Base 5.0.1
 _ZN18QQmlOpenMetaObjectD1Ev@Base 5.0.1
 _ZN18QQmlOpenMetaObjectD2Ev@Base 5.0.1
 _ZN18QQmlOpenMetaObjectixERK10QByteArray@Base 5.0.1
 _ZN18QQmlOpenMetaObjectixEi@Base 5.0.1
 _ZN18QQmlPointValueType11qt_metacallEN11QMetaObject4CallEiPPv@Base 5.0.1
 _ZN18QQmlPointValueType11qt_metacastEPKc@Base 5.0.1
 _ZN18QQmlPointValueType16staticMetaObjectE@Base 5.0.1
 _ZN18QQmlPointValueType4setXEi@Base 5.0.1
 _ZN18QQmlPointValueType4setYEi@Base 5.0.1
 _ZN18QQmlPointValueTypeC1EP7QObject@Base 5.0.1
 _ZN18QQmlPointValueTypeC2EP7QObject@Base 5.0.1
 _ZN18QQmlPointValueTypeD0Ev@Base 5.0.1
 _ZN18QQmlPointValueTypeD1Ev@Base 5.0.1
 _ZN18QQmlPointValueTypeD2Ev@Base 5.0.1
 _ZN18QQmlRectFValueType11qt_metacallEN11QMetaObject4CallEiPPv@Base 5.0.1
 _ZN18QQmlRectFValueType11qt_metacastEPKc@Base 5.0.1
 _ZN18QQmlRectFValueType16staticMetaObjectE@Base 5.0.1
 _ZN18QQmlRectFValueType4setXEd@Base 5.0.1
 _ZN18QQmlRectFValueType4setYEd@Base 5.0.1
 _ZN18QQmlRectFValueType8setWidthEd@Base 5.0.1
 _ZN18QQmlRectFValueType9setHeightEd@Base 5.0.1
 _ZN18QQmlRectFValueTypeC1EP7QObject@Base 5.0.1
 _ZN18QQmlRectFValueTypeC2EP7QObject@Base 5.0.1
 _ZN18QQmlRectFValueTypeD0Ev@Base 5.0.1
 _ZN18QQmlRectFValueTypeD1Ev@Base 5.0.1
 _ZN18QQmlRectFValueTypeD2Ev@Base 5.0.1
 _ZN18QQmlSizeFValueType11qt_metacallEN11QMetaObject4CallEiPPv@Base 5.0.1
 _ZN18QQmlSizeFValueType11qt_metacastEPKc@Base 5.0.1
 _ZN18QQmlSizeFValueType16staticMetaObjectE@Base 5.0.1
 _ZN18QQmlSizeFValueType8setWidthEd@Base 5.0.1
 _ZN18QQmlSizeFValueType9setHeightEd@Base 5.0.1
 _ZN18QQmlSizeFValueTypeC1EP7QObject@Base 5.0.1
 _ZN18QQmlSizeFValueTypeC2EP7QObject@Base 5.0.1
 _ZN18QQmlSizeFValueTypeD0Ev@Base 5.0.1
 _ZN18QQmlSizeFValueTypeD1Ev@Base 5.0.1
 _ZN18QQmlSizeFValueTypeD2Ev@Base 5.0.1
 _ZN19QQmlAbstractBinding11addToObjectEv@Base 5.0.1
 _ZN19QQmlAbstractBinding11weakPointerEv@Base 5.0.1
 _ZN19QQmlAbstractBinding15default_destroyI11QQmlBindingEEvPS_NS_11DestroyModeE@Base 5.0.1
 _ZN19QQmlAbstractBinding15default_destroyI25QQmlValueTypeProxyBindingEEvPS_NS_11DestroyModeE@Base 5.0.1
 _ZN19QQmlAbstractBinding16removeFromObjectEv@Base 5.0.1
 _ZN19QQmlAbstractBinding18default_expressionEPKS_@Base 5.0.1
 _ZN19QQmlAbstractBinding21printBindingLoopErrorER12QQmlProperty@Base 5.0.1
 _ZN19QQmlAbstractBinding23default_retargetBindingEPS_P7QObjecti@Base 5.0.1
 _ZN19QQmlAbstractBinding5clearEv@Base 5.0.1
 _ZN19QQmlAbstractBinding7vTablesE@Base 5.0.1
 _ZN19QQmlAbstractBindingC1ENS_11BindingTypeE@Base 5.0.1
 _ZN19QQmlAbstractBindingC2ENS_11BindingTypeE@Base 5.0.1
 _ZN19QQmlAbstractBindingD1Ev@Base 5.0.1
 _ZN19QQmlAbstractBindingD2Ev@Base 5.0.1
 _ZN19QQmlEasingValueType11qt_metacallEN11QMetaObject4CallEiPPv@Base 5.0.1
 _ZN19QQmlEasingValueType11qt_metacastEPKc@Base 5.0.1
 _ZN19QQmlEasingValueType12setAmplitudeEd@Base 5.0.1
 _ZN19QQmlEasingValueType12setOvershootEd@Base 5.0.1
 _ZN19QQmlEasingValueType14setBezierCurveERK5QListI8QVariantE@Base 5.0.1
 _ZN19QQmlEasingValueType16staticMetaObjectE@Base 5.0.1
 _ZN19QQmlEasingValueType7setTypeENS_4TypeE@Base 5.0.1
 _ZN19QQmlEasingValueType9setPeriodEd@Base 5.0.1
 _ZN19QQmlEasingValueTypeC1EP7QObject@Base 5.0.1
 _ZN19QQmlEasingValueTypeC2EP7QObject@Base 5.0.1
 _ZN19QQmlEasingValueTypeD0Ev@Base 5.0.1
 _ZN19QQmlEasingValueTypeD1Ev@Base 5.0.1
 _ZN19QQmlEasingValueTypeD2Ev@Base 5.0.1
 _ZN19QQmlExtensionPlugin11qt_metacallEN11QMetaObject4CallEiPPv@Base 5.0.1
 _ZN19QQmlExtensionPlugin11qt_metacastEPKc@Base 5.0.1
 _ZN19QQmlExtensionPlugin16initializeEngineEP10QQmlEnginePKc@Base 5.0.1
 _ZN19QQmlExtensionPlugin16staticMetaObjectE@Base 5.0.1
 _ZN19QQmlExtensionPluginC1EP7QObject@Base 5.0.1
 _ZN19QQmlExtensionPluginC2EP7QObject@Base 5.0.1
 _ZN19QQmlExtensionPluginD0Ev@Base 5.0.1
 _ZN19QQmlExtensionPluginD1Ev@Base 5.0.1
 _ZN19QQmlExtensionPluginD2Ev@Base 5.0.1
 _ZN19QQmlPointFValueType11qt_metacallEN11QMetaObject4CallEiPPv@Base 5.0.1
 _ZN19QQmlPointFValueType11qt_metacastEPKc@Base 5.0.1
 _ZN19QQmlPointFValueType16staticMetaObjectE@Base 5.0.1
 _ZN19QQmlPointFValueType4setXEd@Base 5.0.1
 _ZN19QQmlPointFValueType4setYEd@Base 5.0.1
 _ZN19QQmlPointFValueTypeC1EP7QObject@Base 5.0.1
 _ZN19QQmlPointFValueTypeC2EP7QObject@Base 5.0.1
 _ZN19QQmlPointFValueTypeD0Ev@Base 5.0.1
 _ZN19QQmlPointFValueTypeD1Ev@Base 5.0.1
 _ZN19QQmlPointFValueTypeD2Ev@Base 5.0.1
 _ZN19QQmlProfilerService10initializeEv@Base 5.0.1
 _ZN19QQmlProfilerService10startRangeENS_9RangeTypeENS_11BindingTypeE@Base 5.0.1
 _ZN19QQmlProfilerService12addEventImplENS_9EventTypeE@Base 5.0.1
 _ZN19QQmlProfilerService12sendMessagesEv@Base 5.0.1
 _ZN19QQmlProfilerService13rangeLocationENS_9RangeTypeERK4QUrlii@Base 5.0.1
 _ZN19QQmlProfilerService13rangeLocationENS_9RangeTypeERK7QStringii@Base 5.0.1
 _ZN19QQmlProfilerService13stopProfilingEv@Base 5.0.1
 _ZN19QQmlProfilerService14animationFrameEx@Base 5.0.1
 _ZN19QQmlProfilerService14processMessageERK16QQmlProfilerData@Base 5.0.1
 _ZN19QQmlProfilerService14startProfilingEv@Base 5.0.1
 _ZN19QQmlProfilerService15messageReceivedERK10QByteArray@Base 5.0.1
 _ZN19QQmlProfilerService16profilingEnabledEv@Base 5.0.1
 _ZN19QQmlProfilerService17sendProfilingDataEv@Base 5.0.1
 _ZN19QQmlProfilerService17stopProfilingImplEv@Base 5.0.1
 _ZN19QQmlProfilerService18animationFrameImplEx@Base 5.0.1
 _ZN19QQmlProfilerService18startProfilingImplEv@Base 5.0.1
 _ZN19QQmlProfilerService19setProfilingEnabledEb@Base 5.0.1
 _ZN19QQmlProfilerService21stateAboutToBeChangedEN16QQmlDebugService5StateE@Base 5.0.1
 _ZN19QQmlProfilerService27sendStartedProfilingMessageEv@Base 5.0.1
 _ZN19QQmlProfilerService31sendStartedProfilingMessageImplEv@Base 5.0.1
 _ZN19QQmlProfilerService8addEventENS_9EventTypeE@Base 5.0.1
 _ZN19QQmlProfilerService8endRangeENS_9RangeTypeE@Base 5.0.1
 _ZN19QQmlProfilerService8instanceE@Base 5.0.1
 _ZN19QQmlProfilerService9rangeDataENS_9RangeTypeERK4QUrl@Base 5.0.1
 _ZN19QQmlProfilerService9rangeDataENS_9RangeTypeERK7QString@Base 5.0.1
 _ZN19QQmlProfilerServiceC1Ev@Base 5.0.1
 _ZN19QQmlProfilerServiceC2Ev@Base 5.0.1
 _ZN19QQmlProfilerServiceD0Ev@Base 5.0.1
 _ZN19QQmlProfilerServiceD1Ev@Base 5.0.1
 _ZN19QQmlProfilerServiceD2Ev@Base 5.0.1
 _ZN19QQmlPropertyPrivate10setBindingEP7QObjectiiP19QQmlAbstractBinding6QFlagsINS_9WriteFlagEE@Base 5.0.1
 _ZN19QQmlPropertyPrivate10setBindingERK12QQmlPropertyP19QQmlAbstractBinding6QFlagsINS_9WriteFlagEE@Base 5.0.1
 _ZN19QQmlPropertyPrivate11flushSignalEPK7QObjecti@Base 5.0.1
 _ZN19QQmlPropertyPrivate11initDefaultEP7QObject@Base 5.0.1
 _ZN19QQmlPropertyPrivate12bindingIndexERK12QQmlProperty@Base 5.0.1
 _ZN19QQmlPropertyPrivate12bindingIndexERK16QQmlPropertyData@Base 5.0.1
 _ZN19QQmlPropertyPrivate12initPropertyEP7QObjectRK7QString@Base 5.0.1
 _ZN19QQmlPropertyPrivate12writeBindingEP7QObjectRK16QQmlPropertyDataP15QQmlContextDataP24QQmlJavaScriptExpressionN2v86HandleINS9_5ValueEEEb6QFlagsINS_9WriteFlagEE@Base 5.0.1
 _ZN19QQmlPropertyPrivate13saveValueTypeERK16QQmlPropertyDataPK11QMetaObjectiP10QQmlEngine@Base 5.0.1
 _ZN19QQmlPropertyPrivate15findAliasTargetEP7QObjectiPS1_Pi@Base 5.0.1
 _ZN19QQmlPropertyPrivate16findSignalByNameEPK11QMetaObjectRK10QByteArray@Base 5.0.1
 _ZN19QQmlPropertyPrivate16signalExpressionERK12QQmlProperty@Base 5.0.1
 _ZN19QQmlPropertyPrivate17readValuePropertyEv@Base 5.0.1
 _ZN19QQmlPropertyPrivate17writeEnumPropertyERK13QMetaPropertyiP7QObjectRK8QVarianti@Base 5.0.1
 _ZN19QQmlPropertyPrivate18setBindingNoEnableEP7QObjectiiP19QQmlAbstractBinding@Base 5.0.1
 _ZN19QQmlPropertyPrivate18valueTypeCoreIndexERK12QQmlProperty@Base 5.0.1
 _ZN19QQmlPropertyPrivate18writeValuePropertyEP7QObjectRK16QQmlPropertyDataRK8QVariantP15QQmlContextData6QFlagsINS_9WriteFlagEE@Base 5.0.1
 _ZN19QQmlPropertyPrivate18writeValuePropertyERK8QVariant6QFlagsINS_9WriteFlagEE@Base 5.0.1
 _ZN19QQmlPropertyPrivate19setSignalExpressionERK12QQmlPropertyP25QQmlBoundSignalExpression@Base 5.0.1
 _ZN19QQmlPropertyPrivate20rawMetaObjectForTypeEP17QQmlEnginePrivatei@Base 5.0.1
 _ZN19QQmlPropertyPrivate20takeSignalExpressionERK12QQmlPropertyP25QQmlBoundSignalExpression@Base 5.0.1
 _ZN19QQmlPropertyPrivate21activateSharedBindingEP15QQmlContextDatai6QFlagsINS_9WriteFlagEE@Base 5.0.1
 _ZN19QQmlPropertyPrivate5writeEP7QObjectRK16QQmlPropertyDataRK8QVariantP15QQmlContextData6QFlagsINS_9WriteFlagEE@Base 5.0.1
 _ZN19QQmlPropertyPrivate5writeERK12QQmlPropertyRK8QVariant6QFlagsINS_9WriteFlagEE@Base 5.0.1
 _ZN19QQmlPropertyPrivate7bindingEP7QObjectii@Base 5.0.1
 _ZN19QQmlPropertyPrivate7bindingERK12QQmlProperty@Base 5.0.1
 _ZN19QQmlPropertyPrivate7connectEPK7QObjectiS2_iiPi@Base 5.0.1
 _ZN19QQmlPropertyPrivate7restoreEP7QObjectRK16QQmlPropertyDataP15QQmlContextData@Base 5.0.1
 _ZN19QQmlPropertyPrivateC1Ev@Base 5.0.1
 _ZN19QQmlPropertyPrivateC2Ev@Base 5.0.1
 _ZN19QQmlPropertyPrivateD0Ev@Base 5.0.1
 _ZN19QQmlPropertyPrivateD1Ev@Base 5.0.1
 _ZN19QQmlPropertyPrivateD2Ev@Base 5.0.1
 _ZN19QV8ValueTypeWrapper12newValueTypeEP7QObjectiP13QQmlValueType@Base 5.0.1
 _ZN19QV8ValueTypeWrapper12newValueTypeERK8QVariantP13QQmlValueType@Base 5.0.1
 _ZN19QV8ValueTypeWrapper14ToStringGetterEN2v85LocalINS0_6StringEEERKNS0_12AccessorInfoE@Base 5.0.1
 _ZN19QV8ValueTypeWrapper4initEP9QV8Engine@Base 5.0.1
 _ZN19QV8ValueTypeWrapper6GetterEN2v85LocalINS0_6StringEEERKNS0_12AccessorInfoE@Base 5.0.1
 _ZN19QV8ValueTypeWrapper6SetterEN2v85LocalINS0_6StringEEENS1_INS0_5ValueEEERKNS0_12AccessorInfoE@Base 5.0.1
 _ZN19QV8ValueTypeWrapper7destroyEv@Base 5.0.1
 _ZN19QV8ValueTypeWrapper7isEqualEP17QV8ObjectResourceRK8QVariant@Base 5.0.1
 _ZN19QV8ValueTypeWrapper8ToStringERKN2v89ArgumentsE@Base 5.0.1
 _ZN19QV8ValueTypeWrapper9toVariantEN2v86HandleINS0_6ObjectEEE@Base 5.0.1
 _ZN19QV8ValueTypeWrapper9toVariantEN2v86HandleINS0_6ObjectEEEiPb@Base 5.0.1
 _ZN19QV8ValueTypeWrapper9toVariantEP17QV8ObjectResource@Base 5.0.1
 _ZN19QV8ValueTypeWrapperC1Ev@Base 5.0.1
 _ZN19QV8ValueTypeWrapperC2Ev@Base 5.0.1
 _ZN19QV8ValueTypeWrapperD1Ev@Base 5.0.1
 _ZN19QV8ValueTypeWrapperD2Ev@Base 5.0.1
 _ZN20QQmlComponentPrivate11beginCreateEP15QQmlContextData@Base 5.0.1
 _ZN20QQmlComponentPrivate12fromTypeDataEP12QQmlTypeData@Base 5.0.1
 _ZN20QQmlComponentPrivate13beginDeferredEP17QQmlEnginePrivateP7QObjectPNS_17ConstructionStateE@Base 5.0.1
 _ZN20QQmlComponentPrivate13typeDataReadyEP12QQmlTypeData@Base 5.0.1
 _ZN20QQmlComponentPrivate14completeCreateEv@Base 5.0.1
 _ZN20QQmlComponentPrivate16typeDataProgressEP12QQmlTypeDatad@Base 5.0.1
 _ZN20QQmlComponentPrivate37initializeObjectWithInitialPropertiesEN2v86HandleINS0_6ObjectEEES3_P7QObject@Base 5.0.1
 _ZN20QQmlComponentPrivate5clearEv@Base 5.0.1
 _ZN20QQmlComponentPrivate7loadUrlERK4QUrlN13QQmlComponent15CompilationModeE@Base 5.0.1
 _ZN20QQmlComponentPrivate8completeEP17QQmlEnginePrivatePNS_17ConstructionStateE@Base 5.0.1
 _ZN20QQmlComponentPrivateD0Ev@Base 5.0.1
 _ZN20QQmlComponentPrivateD1Ev@Base 5.0.1
 _ZN20QQmlComponentPrivateD2Ev@Base 5.0.1
 _ZN20QQmlCustomParserNodeC1ERKS_@Base 5.0.1
 _ZN20QQmlCustomParserNodeC1Ev@Base 5.0.1
 _ZN20QQmlCustomParserNodeC2ERKS_@Base 5.0.1
 _ZN20QQmlCustomParserNodeC2Ev@Base 5.0.1
 _ZN20QQmlCustomParserNodeD1Ev@Base 5.0.1
 _ZN20QQmlCustomParserNodeD2Ev@Base 5.0.1
 _ZN20QQmlCustomParserNodeaSERKS_@Base 5.0.1
 _ZN20QQmlDebuggingEnablerC1Eb@Base 5.0.1
 _ZN20QQmlDebuggingEnablerC2Eb@Base 5.0.1
 _ZN20QQmlInspectorService10removeViewEP7QObject@Base 5.0.1
 _ZN20QQmlInspectorService11qt_metacallEN11QMetaObject4CallEiPPv@Base 5.0.1
 _ZN20QQmlInspectorService11qt_metacastEPKc@Base 5.0.1
 _ZN20QQmlInspectorService11sendMessageERK10QByteArray@Base 5.0.1
 _ZN20QQmlInspectorService11updateStateEv@Base 5.0.1
 _ZN20QQmlInspectorService12stateChangedEN16QQmlDebugService5StateE@Base 5.0.1
 _ZN20QQmlInspectorService14processMessageERK10QByteArray@Base 5.0.1
 _ZN20QQmlInspectorService15messageReceivedERK10QByteArray@Base 5.0.1
 _ZN20QQmlInspectorService16staticMetaObjectE@Base 5.0.1
 _ZN20QQmlInspectorService20loadInspectorPluginsEv@Base 5.0.1
 _ZN20QQmlInspectorService7addViewEP7QObject@Base 5.0.1
 _ZN20QQmlInspectorService8instanceEv@Base 5.0.1
 _ZN20QQmlInspectorServiceC1Ev@Base 5.0.1
 _ZN20QQmlInspectorServiceC2Ev@Base 5.0.1
 _ZN20QQmlInspectorServiceD0Ev@Base 5.0.1
 _ZN20QQmlInspectorServiceD1Ev@Base 5.0.1
 _ZN20QQmlInspectorServiceD2Ev@Base 5.0.1
 _ZN20QQmlStringConverters14dateFromStringERK7QStringPb@Base 5.0.1
 _ZN20QQmlStringConverters14rgbaFromStringERK7QStringPb@Base 5.0.1
 _ZN20QQmlStringConverters14timeFromStringERK7QStringPb@Base 5.0.1
 _ZN20QQmlStringConverters15colorFromStringERK7QStringPb@Base 5.0.1
 _ZN20QQmlStringConverters15rectFFromStringERK7QStringPb@Base 5.0.1
 _ZN20QQmlStringConverters15sizeFFromStringERK7QStringPb@Base 5.0.1
 _ZN20QQmlStringConverters16createFromStringEiRK7QStringPvm@Base 5.0.1
 _ZN20QQmlStringConverters16pointFFromStringERK7QStringPb@Base 5.0.1
 _ZN20QQmlStringConverters17variantFromStringERK7QString@Base 5.0.1
 _ZN20QQmlStringConverters17variantFromStringERK7QStringiPb@Base 5.0.1
 _ZN20QQmlStringConverters18dateTimeFromStringERK7QStringPb@Base 5.0.1
 _ZN20QQmlValueTypeFactory11isValueTypeEi@Base 5.0.1
 _ZN20QQmlValueTypeFactory18registerValueTypesEPKcii@Base 5.0.1
 _ZN20QQmlValueTypeFactory9valueTypeEi@Base 5.0.1
 _ZN21QAbstractAnimationJob11updateStateENS_5StateES0_@Base 5.0.1
 _ZN21QAbstractAnimationJob12setDirectionENS_9DirectionE@Base 5.0.1
 _ZN21QAbstractAnimationJob12setLoopCountEi@Base 5.0.1
 _ZN21QAbstractAnimationJob12stateChangedENS_5StateES0_@Base 5.0.1
 _ZN21QAbstractAnimationJob14setCurrentTimeEi@Base 5.0.1
 _ZN21QAbstractAnimationJob15updateDirectionENS_9DirectionE@Base 5.0.1
 _ZN21QAbstractAnimationJob18currentLoopChangedEv@Base 5.0.1
 _ZN21QAbstractAnimationJob18currentTimeChangedEi@Base 5.0.1
 _ZN21QAbstractAnimationJob20setEnableUserControlEv@Base 5.0.1
 _ZN21QAbstractAnimationJob21setDisableUserControlEv@Base 5.0.1
 _ZN21QAbstractAnimationJob26addAnimationChangeListenerEP27QAnimationJobChangeListener6QFlagsINS_10ChangeTypeEE@Base 5.0.1
 _ZN21QAbstractAnimationJob29removeAnimationChangeListenerEP27QAnimationJobChangeListener6QFlagsINS_10ChangeTypeEE@Base 5.0.1
 _ZN21QAbstractAnimationJob4stopEv@Base 5.0.1
 _ZN21QAbstractAnimationJob5pauseEv@Base 5.0.1
 _ZN21QAbstractAnimationJob5startEv@Base 5.0.1
 _ZN21QAbstractAnimationJob6resumeEv@Base 5.0.1
 _ZN21QAbstractAnimationJob8finishedEv@Base 5.0.1
 _ZN21QAbstractAnimationJob8setStateENS_5StateE@Base 5.0.1
 _ZN21QAbstractAnimationJobC1Ev@Base 5.0.1
 _ZN21QAbstractAnimationJobC2Ev@Base 5.0.1
 _ZN21QAbstractAnimationJobD0Ev@Base 5.0.1
 _ZN21QAbstractAnimationJobD1Ev@Base 5.0.1
 _ZN21QAbstractAnimationJobD2Ev@Base 5.0.1
 _ZN21QQmlImageProviderBaseC1Ev@Base 5.0.1
 _ZN21QQmlImageProviderBaseC2Ev@Base 5.0.1
 _ZN21QQmlImageProviderBaseD0Ev@Base 5.0.1
 _ZN21QQmlImageProviderBaseD1Ev@Base 5.0.1
 _ZN21QQmlImageProviderBaseD2Ev@Base 5.0.1
 _ZN21QQmlValueTypeProvider13copyValueTypeEiPKvPvm@Base 5.0.1
 _ZN21QQmlValueTypeProvider13initValueTypeEiPvm@Base 5.0.1
 _ZN21QQmlValueTypeProvider13readValueTypeEiPKvmiPv@Base 5.0.1
 _ZN21QQmlValueTypeProvider14equalValueTypeEiPKvS1_m@Base 5.0.1
 _ZN21QQmlValueTypeProvider14storeValueTypeEiPKvPvm@Base 5.0.1
 _ZN21QQmlValueTypeProvider14writeValueTypeEiPKvPvm@Base 5.0.1
 _ZN21QQmlValueTypeProvider15createValueTypeEi@Base 5.0.1
 _ZN21QQmlValueTypeProvider15createValueTypeEiiPPKv@Base 5.0.1
 _ZN21QQmlValueTypeProvider16createFromStringEiRK7QStringPvm@Base 5.0.1
 _ZN21QQmlValueTypeProvider16createStringFromEiPKvP7QString@Base 5.0.1
 _ZN21QQmlValueTypeProvider16destroyValueTypeEiPvm@Base 5.0.1
 _ZN21QQmlValueTypeProvider17variantFromStringERK7QStringP8QVariant@Base 5.0.1
 _ZN21QQmlValueTypeProvider17variantFromStringEiRK7QStringP8QVariant@Base 5.0.1
 _ZN21QQmlValueTypeProvider19variantFromJsObjectEi12QQmlV8HandleP9QV8EngineP8QVariant@Base 5.0.1
 _ZN21QQmlValueTypeProvider21createStringFromValueEiPKvP7QString@Base 5.0.1
 _ZN21QQmlValueTypeProvider21createValueFromStringEiRK7QStringPvm@Base 5.0.1
 _ZN21QQmlValueTypeProvider23createVariantFromStringERK7QString@Base 5.0.1
 _ZN21QQmlValueTypeProvider23createVariantFromStringEiRK7QStringPb@Base 5.0.1
 _ZN21QQmlValueTypeProvider25createVariantFromJsObjectEi12QQmlV8HandleP9QV8EnginePb@Base 5.0.1
 _ZN21QQmlValueTypeProvider4copyEiPKvPvm@Base 5.0.1
 _ZN21QQmlValueTypeProvider4initEiPvm@Base 5.0.1
 _ZN21QQmlValueTypeProvider4readEiPKvmiPv@Base 5.0.1
 _ZN21QQmlValueTypeProvider5equalEiPKvS1_m@Base 5.0.1
 _ZN21QQmlValueTypeProvider5storeEiPKvPvm@Base 5.0.1
 _ZN21QQmlValueTypeProvider5writeEiPKvPvm@Base 5.0.1
 _ZN21QQmlValueTypeProvider6createEiRP13QQmlValueType@Base 5.0.1
 _ZN21QQmlValueTypeProvider6createEiiPPKvP8QVariant@Base 5.0.1
 _ZN21QQmlValueTypeProvider7destroyEiPvm@Base 5.0.1
 _ZN21QQmlValueTypeProviderC1Ev@Base 5.0.1
 _ZN21QQmlValueTypeProviderC2Ev@Base 5.0.1
 _ZN21QQmlValueTypeProviderD0Ev@Base 5.0.1
 _ZN21QQmlValueTypeProviderD1Ev@Base 5.0.1
 _ZN21QQmlValueTypeProviderD2Ev@Base 5.0.1
 _ZN22QQmlAbstractExpression10setContextEP15QQmlContextData@Base 5.0.1
 _ZN22QQmlAbstractExpression7refreshEv@Base 5.0.1
 _ZN22QQmlAbstractExpressionC1Ev@Base 5.0.1
 _ZN22QQmlAbstractExpressionC2Ev@Base 5.0.1
 _ZN22QQmlAbstractExpressionD0Ev@Base 5.0.1
 _ZN22QQmlAbstractExpressionD1Ev@Base 5.0.1
 _ZN22QQmlAbstractExpressionD2Ev@Base 5.0.1
 _ZN22QQmlAccessorProperties18registerPropertiesEPK11QMetaObjectiPNS_8PropertyE@Base 5.0.1
 _ZN22QQmlEngineDebugService10objectDataEP7QObject@Base 5.0.1
 _ZN22QQmlEngineDebugService10setBindingEiRK7QStringRK8QVariantbS0_ii@Base 5.0.1
 _ZN22QQmlEngineDebugService11qt_metacallEN11QMetaObject4CallEiPPv@Base 5.0.1
 _ZN22QQmlEngineDebugService11qt_metacastEPKc@Base 5.0.1
 _ZN22QQmlEngineDebugService12propertyDataEP7QObjecti@Base 5.0.1
 _ZN22QQmlEngineDebugService12resetBindingEiRK7QString@Base 5.0.1
 _ZN22QQmlEngineDebugService13objectCreatedEP10QQmlEngineP7QObject@Base 5.0.1
 _ZN22QQmlEngineDebugService13setMethodBodyEiRK7QStringS2_@Base 5.0.1
 _ZN22QQmlEngineDebugService14processMessageERK10QByteArray@Base 5.0.1
 _ZN22QQmlEngineDebugService14storeObjectIdsEP7QObject@Base 5.0.1
 _ZN22QQmlEngineDebugService15buildObjectDumpER11QDataStreamP7QObjectbb@Base 5.0.1
 _ZN22QQmlEngineDebugService15buildObjectListER11QDataStreamP11QQmlContextRK5QListI8QPointerI7QObjectEE@Base 5.0.1
 _ZN22QQmlEngineDebugService15buildStatesListEbRK5QListI8QPointerI7QObjectEE@Base 5.0.1
 _ZN22QQmlEngineDebugService15messageReceivedERK10QByteArray@Base 5.0.1
 _ZN22QQmlEngineDebugService15propertyChangedEiiRK13QMetaPropertyRK8QVariant@Base 5.0.1
 _ZN22QQmlEngineDebugService16staticMetaObjectE@Base 5.0.1
 _ZN22QQmlEngineDebugService17setStatesDelegateEP23QQmlDebugStatesDelegate@Base 5.0.1
 _ZN22QQmlEngineDebugService22prepareDeferredObjectsEP7QObject@Base 5.0.1
 _ZN22QQmlEngineDebugService8instanceEv@Base 5.0.1
 _ZN22QQmlEngineDebugService9addEngineEP10QQmlEngine@Base 5.0.1
 _ZN22QQmlEngineDebugService9remEngineEP10QQmlEngine@Base 5.0.1
 _ZN22QQmlEngineDebugServiceC1EP7QObject@Base 5.0.1
 _ZN22QQmlEngineDebugServiceC2EP7QObject@Base 5.0.1
 _ZN22QQmlEngineDebugServiceD0Ev@Base 5.0.1
 _ZN22QQmlEngineDebugServiceD1Ev@Base 5.0.1
 _ZN22QQmlEngineDebugServiceD2Ev@Base 5.0.1
 _ZN22QQmlOpenMetaObjectType14createPropertyERK10QByteArray@Base 5.0.1
 _ZN22QQmlOpenMetaObjectType15propertyCreatedEiR20QMetaPropertyBuilder@Base 5.0.1
 _ZN22QQmlOpenMetaObjectType5clearEv@Base 5.0.1
 _ZN22QQmlOpenMetaObjectTypeC1EPK11QMetaObjectP10QQmlEngine@Base 5.0.1
 _ZN22QQmlOpenMetaObjectTypeC2EPK11QMetaObjectP10QQmlEngine@Base 5.0.1
 _ZN22QQmlOpenMetaObjectTypeD0Ev@Base 5.0.1
 _ZN22QQmlOpenMetaObjectTypeD1Ev@Base 5.0.1
 _ZN22QQmlOpenMetaObjectTypeD2Ev@Base 5.0.1
 _ZN23QQmlAbstractBoundSignal11addToObjectEP7QObject@Base 5.0.1
 _ZN23QQmlAbstractBoundSignal16removeFromObjectEv@Base 5.0.1
 _ZN23QQmlAbstractBoundSignalC1Ev@Base 5.0.1
 _ZN23QQmlAbstractBoundSignalC2Ev@Base 5.0.1
 _ZN23QQmlAbstractBoundSignalD0Ev@Base 5.0.1
 _ZN23QQmlAbstractBoundSignalD1Ev@Base 5.0.1
 _ZN23QQmlAbstractBoundSignalD2Ev@Base 5.0.1
 _ZN23QQmlPropertyValueSourceC1Ev@Base 5.0.1
 _ZN23QQmlPropertyValueSourceC2Ev@Base 5.0.1
 _ZN23QQmlPropertyValueSourceD0Ev@Base 5.0.1
 _ZN23QQmlPropertyValueSourceD1Ev@Base 5.0.1
 _ZN23QQmlPropertyValueSourceD2Ev@Base 5.0.1
 _ZN24QQmlCustomParserPropertyC1ERKS_@Base 5.0.1
 _ZN24QQmlCustomParserPropertyC1Ev@Base 5.0.1
 _ZN24QQmlCustomParserPropertyC2ERKS_@Base 5.0.1
 _ZN24QQmlCustomParserPropertyC2Ev@Base 5.0.1
 _ZN24QQmlCustomParserPropertyD1Ev@Base 5.0.1
 _ZN24QQmlCustomParserPropertyD2Ev@Base 5.0.1
 _ZN24QQmlCustomParserPropertyaSERKS_@Base 5.0.1
 _ZN24QQmlIncubationController11incubateForEi@Base 5.0.1
 _ZN24QQmlIncubationController13incubateWhileEPVbi@Base 5.0.1
 _ZN24QQmlIncubationController28incubatingObjectCountChangedEi@Base 5.0.1
 _ZN24QQmlIncubationControllerC1Ev@Base 5.0.1
 _ZN24QQmlIncubationControllerC2Ev@Base 5.0.1
 _ZN24QQmlIncubationControllerD0Ev@Base 5.0.1
 _ZN24QQmlIncubationControllerD1Ev@Base 5.0.1
 _ZN24QQmlIncubationControllerD2Ev@Base 5.0.1
 _ZN25QQmlBoundSignalExpression17expressionChangedEP24QQmlJavaScriptExpression@Base 5.0.1
 _ZN25QQmlBoundSignalExpression20expressionIdentifierEP24QQmlJavaScriptExpression@Base 5.0.1
 _ZN25QQmlBoundSignalExpression4initEP15QQmlContextDataP7QObject@Base 5.0.1
 _ZN25QQmlBoundSignalExpression8evaluateEPPv@Base 5.0.1
 _ZN25QQmlBoundSignalExpressionC1EP7QObjectiP15QQmlContextDataS1_RK10QByteArraybRK7QStringtt@Base 5.0.1
 _ZN25QQmlBoundSignalExpressionC1EP7QObjectiP15QQmlContextDataS1_RK7QStringbS6_tt@Base 5.0.1
 _ZN25QQmlBoundSignalExpressionC2EP7QObjectiP15QQmlContextDataS1_RK10QByteArraybRK7QStringtt@Base 5.0.1
 _ZN25QQmlBoundSignalExpressionC2EP7QObjectiP15QQmlContextDataS1_RK7QStringbS6_tt@Base 5.0.1
 _ZN25QQmlBoundSignalExpressionD0Ev@Base 5.0.1
 _ZN25QQmlBoundSignalExpressionD1Ev@Base 5.0.1
 _ZN25QQmlBoundSignalExpressionD2Ev@Base 5.0.1
 _ZN26QAbstractDynamicMetaObjectD0Ev@Base 5.0.1
 _ZN26QAbstractDynamicMetaObjectD1Ev@Base 5.0.1
 _ZN26QAbstractDynamicMetaObjectD2Ev@Base 5.0.1
 _ZN26QParallelAnimationGroupJob11updateStateEN21QAbstractAnimationJob5StateES1_@Base 5.0.1
 _ZN26QParallelAnimationGroupJob15applyGroupStateEP21QAbstractAnimationJob@Base 5.0.1
 _ZN26QParallelAnimationGroupJob15updateDirectionEN21QAbstractAnimationJob9DirectionE@Base 5.0.1
 _ZN26QParallelAnimationGroupJob17updateCurrentTimeEi@Base 5.0.1
 _ZN26QParallelAnimationGroupJob29uncontrolledAnimationFinishedEP21QAbstractAnimationJob@Base 5.0.1
 _ZN26QParallelAnimationGroupJobC1Ev@Base 5.0.1
 _ZN26QParallelAnimationGroupJobC2Ev@Base 5.0.1
 _ZN26QParallelAnimationGroupJobD0Ev@Base 5.0.1
 _ZN26QParallelAnimationGroupJobD1Ev@Base 5.0.1
 _ZN26QParallelAnimationGroupJobD2Ev@Base 5.0.1
 _ZN27QAnimationJobChangeListenerD0Ev@Base 5.0.1
 _ZN27QAnimationJobChangeListenerD1Ev@Base 5.0.1
 _ZN27QAnimationJobChangeListenerD2Ev@Base 5.0.1
 _ZN28QQmlPropertyValueInterceptorC1Ev@Base 5.0.1
 _ZN28QQmlPropertyValueInterceptorC2Ev@Base 5.0.1
 _ZN28QQmlPropertyValueInterceptorD0Ev@Base 5.0.1
 _ZN28QQmlPropertyValueInterceptorD1Ev@Base 5.0.1
 _ZN28QQmlPropertyValueInterceptorD2Ev@Base 5.0.1
 _ZN28QSequentialAnimationGroupJob11updateStateEN21QAbstractAnimationJob5StateES1_@Base 5.0.1
 _ZN28QSequentialAnimationGroupJob14rewindForwardsERKNS_14AnimationIndexE@Base 5.0.1
 _ZN28QSequentialAnimationGroupJob15advanceForwardsERKNS_14AnimationIndexE@Base 5.0.1
 _ZN28QSequentialAnimationGroupJob15updateDirectionEN21QAbstractAnimationJob9DirectionE@Base 5.0.1
 _ZN28QSequentialAnimationGroupJob16animationRemovedEP21QAbstractAnimationJobS1_S1_@Base 5.0.1
 _ZN28QSequentialAnimationGroupJob17animationInsertedEP21QAbstractAnimationJob@Base 5.0.1
 _ZN28QSequentialAnimationGroupJob17updateCurrentTimeEi@Base 5.0.1
 _ZN28QSequentialAnimationGroupJob19setCurrentAnimationEP21QAbstractAnimationJobb@Base 5.0.1
 _ZN28QSequentialAnimationGroupJob24activateCurrentAnimationEb@Base 5.0.1
 _ZN28QSequentialAnimationGroupJob29uncontrolledAnimationFinishedEP21QAbstractAnimationJob@Base 5.0.1
 _ZN28QSequentialAnimationGroupJob7restartEv@Base 5.0.1
 _ZN28QSequentialAnimationGroupJobC1Ev@Base 5.0.1
 _ZN28QSequentialAnimationGroupJobC2Ev@Base 5.0.1
 _ZN28QSequentialAnimationGroupJobD0Ev@Base 5.0.1
 _ZN28QSequentialAnimationGroupJobD1Ev@Base 5.0.1
 _ZN28QSequentialAnimationGroupJobD2Ev@Base 5.0.1
 _ZN31QQmlNetworkAccessManagerFactoryD0Ev@Base 5.0.1
 _ZN31QQmlNetworkAccessManagerFactoryD1Ev@Base 5.0.1
 _ZN31QQmlNetworkAccessManagerFactoryD2Ev@Base 5.0.1
 _ZN32QQmlBoundSignalExpressionPointer4takeEP25QQmlBoundSignalExpression@Base 5.0.1
 _ZN32QQmlBoundSignalExpressionPointerC1EP25QQmlBoundSignalExpression@Base 5.0.1
 _ZN32QQmlBoundSignalExpressionPointerC1ERKS_@Base 5.0.1
 _ZN32QQmlBoundSignalExpressionPointerC2EP25QQmlBoundSignalExpression@Base 5.0.1
 _ZN32QQmlBoundSignalExpressionPointerC2ERKS_@Base 5.0.1
 _ZN32QQmlBoundSignalExpressionPointerD1Ev@Base 5.0.1
 _ZN32QQmlBoundSignalExpressionPointerD2Ev@Base 5.0.1
 _ZN32QQmlBoundSignalExpressionPointeraSEP25QQmlBoundSignalExpression@Base 5.0.1
 _ZN32QQmlBoundSignalExpressionPointeraSERKS_@Base 5.0.1
 _ZN7QQmlVME12initDeferredEP7QObject@Base 5.0.1
 _ZN7QQmlVME20instructionJumpTableEv@Base 5.0.1
 _ZN7QQmlVME3runEP15QQmlContextDataP14QQmlScriptData@Base 5.0.1
 _ZN7QQmlVME3runEP5QListI9QQmlErrorERKNS_9InterruptEPPKPv@Base 5.0.1
 _ZN7QQmlVME4initEP15QQmlContextDataP16QQmlCompiledDataiS1_@Base 5.0.1
 _ZN7QQmlVME5blankER12QFiniteStackIP16QQmlParserStatusE@Base 5.0.1
 _ZN7QQmlVME5blankER12QFiniteStackIP19QQmlAbstractBindingE@Base 5.0.1
 _ZN7QQmlVME5resetEv@Base 5.0.1
 _ZN7QQmlVME7executeEP5QListI9QQmlErrorERKNS_9InterruptE@Base 5.0.1
 _ZN7QQmlVME8completeERKNS_9InterruptE@Base 5.0.1
 _ZN7QQmlVMED1Ev@Base 5.0.1
 _ZN7QQmlVMED2Ev@Base 5.0.1
 _ZN7QString5clearEv@Base 5.0.1
 _ZN8QJSValue11setPropertyERK7QStringRKS_@Base 5.0.1
 _ZN8QJSValue11setPropertyEjRKS_@Base 5.0.1
 _ZN8QJSValue12setPrototypeERKS_@Base 5.0.1
 _ZN8QJSValue14deletePropertyERK7QString@Base 5.0.1
 _ZN8QJSValue16callWithInstanceERKS_RK5QListIS_E@Base 5.0.1
 _ZN8QJSValue17callAsConstructorERK5QListIS_E@Base 5.0.1
 _ZN8QJSValue4callERK5QListIS_E@Base 5.0.1
 _ZN8QJSValueC1E18QScriptPassPointerI15QJSValuePrivateE@Base 5.0.1
 _ZN8QJSValueC1ENS_12SpecialValueE@Base 5.0.1
 _ZN8QJSValueC1EP15QJSValuePrivate@Base 5.0.1
 _ZN8QJSValueC1EPKc@Base 5.0.1
 _ZN8QJSValueC1ERK13QLatin1String@Base 5.0.1
 _ZN8QJSValueC1ERK7QString@Base 5.0.1
 _ZN8QJSValueC1ERKS_@Base 5.0.1
 _ZN8QJSValueC1Eb@Base 5.0.1
 _ZN8QJSValueC1Ed@Base 5.0.1
 _ZN8QJSValueC1Ei@Base 5.0.1
 _ZN8QJSValueC1Ej@Base 5.0.1
 _ZN8QJSValueC2E18QScriptPassPointerI15QJSValuePrivateE@Base 5.0.1
 _ZN8QJSValueC2ENS_12SpecialValueE@Base 5.0.1
 _ZN8QJSValueC2EP15QJSValuePrivate@Base 5.0.1
 _ZN8QJSValueC2EPKc@Base 5.0.1
 _ZN8QJSValueC2ERK13QLatin1String@Base 5.0.1
 _ZN8QJSValueC2ERK7QString@Base 5.0.1
 _ZN8QJSValueC2ERKS_@Base 5.0.1
 _ZN8QJSValueC2Eb@Base 5.0.1
 _ZN8QJSValueC2Ed@Base 5.0.1
 _ZN8QJSValueC2Ei@Base 5.0.1
 _ZN8QJSValueC2Ej@Base 5.0.1
 _ZN8QJSValueD1Ev@Base 5.0.1
 _ZN8QJSValueD2Ev@Base 5.0.1
 _ZN8QJSValueaSERKS_@Base 5.0.1
 _ZN8QQmlData10NotifyList6layoutEP20QQmlNotifierEndpoint@Base 5.0.1
 _ZN8QQmlData10NotifyList6layoutEv@Base 5.0.1
 _ZN8QQmlData13endpointCountEi@Base 5.0.1
 _ZN8QQmlData13markAsDeletedEP7QObject@Base 5.0.1
 _ZN8QQmlData13parentChangedEP24QAbstractDeclarativeDataP7QObjectS3_@Base 5.0.1
 _ZN8QQmlData13parentChangedEP7QObjectS1_@Base 5.0.1
 _ZN8QQmlData13setBindingBitEP7QObjecti@Base 5.0.1
 _ZN8QQmlData13signalEmittedEP24QAbstractDeclarativeDataP7QObjectiPPv@Base 5.0.1
 _ZN8QQmlData15clearBindingBitEi@Base 5.0.1
 _ZN8QQmlData17isSignalConnectedEP24QAbstractDeclarativeDataPK7QObjecti@Base 5.0.1
 _ZN8QQmlData17signalHasEndpointEi@Base 5.0.1
 _ZN8QQmlData19disconnectNotifiersEv@Base 5.0.1
 _ZN8QQmlData20setPendingBindingBitEP7QObjecti@Base 5.0.1
 _ZN8QQmlData20setQueuedForDeletionEP7QObject@Base 5.0.1
 _ZN8QQmlData22clearPendingBindingBitEi@Base 5.0.1
 _ZN8QQmlData23flushPendingBindingImplEi@Base 5.0.1
 _ZN8QQmlData9addNotifyEiP20QQmlNotifierEndpoint@Base 5.0.1
 _ZN8QQmlData9destroyedEP24QAbstractDeclarativeDataP7QObject@Base 5.0.1
 _ZN8QQmlData9destroyedEP7QObject@Base 5.0.1
 _ZN8QQmlData9receiversEP24QAbstractDeclarativeDataPK7QObjecti@Base 5.0.1
 _ZN8QQmlFile11isLocalFileERK4QUrl@Base 5.0.1
 _ZN8QQmlFile11isLocalFileERK7QString@Base 5.0.1
 _ZN8QQmlFile13isSynchronousERK4QUrl@Base 5.0.1
 _ZN8QQmlFile13isSynchronousERK7QString@Base 5.0.1
 _ZN8QQmlFile14bundleFileNameERK4QUrlP10QQmlEngine@Base 5.0.1
 _ZN8QQmlFile14bundleFileNameERK7QStringP10QQmlEngine@Base 5.0.1
 _ZN8QQmlFile15connectFinishedEP7QObjectPKc@Base 5.0.1
 _ZN8QQmlFile15connectFinishedEP7QObjecti@Base 5.0.1
 _ZN8QQmlFile16bundleFileExistsERK4QUrlP10QQmlEngine@Base 5.0.1
 _ZN8QQmlFile16bundleFileExistsERK7QStringP10QQmlEngine@Base 5.0.1
 _ZN8QQmlFile19urlToLocalFileOrQrcERK4QUrl@Base 5.0.1
 _ZN8QQmlFile19urlToLocalFileOrQrcERK7QString@Base 5.0.1
 _ZN8QQmlFile21bundleDirectoryExistsERK4QUrlP10QQmlEngine@Base 5.0.1
 _ZN8QQmlFile21bundleDirectoryExistsERK7QStringP10QQmlEngine@Base 5.0.1
 _ZN8QQmlFile23connectDownloadProgressEP7QObjectPKc@Base 5.0.1
 _ZN8QQmlFile23connectDownloadProgressEP7QObjecti@Base 5.0.1
 _ZN8QQmlFile4loadEP10QQmlEngineRK4QUrl@Base 5.0.1
 _ZN8QQmlFile4loadEP10QQmlEngineRK7QString@Base 5.0.1
 _ZN8QQmlFile5clearEP7QObject@Base 5.0.1
 _ZN8QQmlFile5clearEv@Base 5.0.1
 _ZN8QQmlFile8isBundleERK4QUrl@Base 5.0.1
 _ZN8QQmlFile8isBundleERK7QString@Base 5.0.1
 _ZN8QQmlFileC1EP10QQmlEngineRK4QUrl@Base 5.0.1
 _ZN8QQmlFileC1EP10QQmlEngineRK7QString@Base 5.0.1
 _ZN8QQmlFileC1Ev@Base 5.0.1
 _ZN8QQmlFileC2EP10QQmlEngineRK4QUrl@Base 5.0.1
 _ZN8QQmlFileC2EP10QQmlEngineRK7QString@Base 5.0.1
 _ZN8QQmlFileC2Ev@Base 5.0.1
 _ZN8QQmlFileD1Ev@Base 5.0.1
 _ZN8QQmlFileD2Ev@Base 5.0.1
 _ZN8QQmlInfoC1EP15QQmlInfoPrivate@Base 5.0.1
 _ZN8QQmlInfoC1ERKS_@Base 5.0.1
 _ZN8QQmlInfoC2EP15QQmlInfoPrivate@Base 5.0.1
 _ZN8QQmlInfoC2ERKS_@Base 5.0.1
 _ZN8QQmlInfoD1Ev@Base 5.0.1
 _ZN8QQmlInfoD2Ev@Base 5.0.1
 _ZN8QQmlPool5clearEv@Base 5.0.1
 _ZN8QQmlPool7destroyIN10QQmlScript13TypeReferenceEEEvPNS_5ClassE@Base 5.0.1
 _ZN8QQmlPool7destroyIN10QQmlScript6Object11DynamicSlotEEEvPNS_5ClassE@Base 5.0.1
 _ZN8QQmlPool7destroyIN10QQmlScript6ObjectEEEvPNS_5ClassE@Base 5.0.1
 _ZN8QQmlPool7destroyIN12QQmlCompiler14ComponentStatsEEEvPNS_5ClassE@Base 5.0.1
 _ZN8QQmlPool7destroyIN17QQmlCompilerTypes18JSBindingReferenceEEEvPNS_5ClassE@Base 5.0.1
 _ZN8QQmlPool7destroyIN17QQmlCompilerTypes21ComponentCompileStateEEEvPNS_5ClassE@Base 5.0.1
 _ZN8QQmlPool7destroyINS_11StringClassEEEvPNS_5ClassE@Base 5.0.1
 _ZN8QQmlPool7newpageEv@Base 5.0.1
 _ZN8QQmlType21SingletonInstanceInfo12setScriptApiEP10QQmlEngine8QJSValue@Base 5.0.1
 _ZN8QQmlType21SingletonInstanceInfo13setQObjectApiEP10QQmlEngineP7QObject@Base 5.0.1
 _ZN8QQmlType21SingletonInstanceInfo4initEP10QQmlEngine@Base 5.0.1
 _ZN8QQmlType21SingletonInstanceInfo7destroyEP10QQmlEngine@Base 5.0.1
 _ZN8QQmlTypeC1EiRK7QStringRKN11QQmlPrivate12RegisterTypeE@Base 5.0.1
 _ZN8QQmlTypeC1EiRK7QStringRKN11QQmlPrivate21RegisterSingletonTypeE@Base 5.0.1
 _ZN8QQmlTypeC1EiRKN11QQmlPrivate17RegisterInterfaceE@Base 5.0.1
 _ZN8QQmlTypeC2EiRK7QStringRKN11QQmlPrivate12RegisterTypeE@Base 5.0.1
 _ZN8QQmlTypeC2EiRK7QStringRKN11QQmlPrivate21RegisterSingletonTypeE@Base 5.0.1
 _ZN8QQmlTypeC2EiRKN11QQmlPrivate17RegisterInterfaceE@Base 5.0.1
 _ZN8QQmlTypeD1Ev@Base 5.0.1
 _ZN8QQmlTypeD2Ev@Base 5.0.1
 _ZN9QBitArray8clearBitEi@Base 5.0.1
 _ZN9QJSEngine10newQObjectEP7QObject@Base 5.0.1
 _ZN9QJSEngine11qt_metacallEN11QMetaObject4CallEiPPv@Base 5.0.1
 _ZN9QJSEngine11qt_metacastEPKc@Base 5.0.1
 _ZN9QJSEngine14collectGarbageEv@Base 5.0.1
 _ZN9QJSEngine16staticMetaObjectE@Base 5.0.1
 _ZN9QJSEngine6createEiPKv@Base 5.0.1
 _ZN9QJSEngine8evaluateERK7QStringS2_i@Base 5.0.1
 _ZN9QJSEngine8newArrayEj@Base 5.0.1
 _ZN9QJSEngine9convertV2ERK8QJSValueiPv@Base 5.0.1
 _ZN9QJSEngine9newObjectEv@Base 5.0.1
 _ZN9QJSEngineC1EP7QObject@Base 5.0.1
 _ZN9QJSEngineC1ER16QJSEnginePrivateP7QObject@Base 5.0.1
 _ZN9QJSEngineC1Ev@Base 5.0.1
 _ZN9QJSEngineC2EP7QObject@Base 5.0.1
 _ZN9QJSEngineC2ER16QJSEnginePrivateP7QObject@Base 5.0.1
 _ZN9QJSEngineC2Ev@Base 5.0.1
 _ZN9QJSEngineD0Ev@Base 5.0.1
 _ZN9QJSEngineD1Ev@Base 5.0.1
 _ZN9QJSEngineD2Ev@Base 5.0.1
 _ZN9QQmlError14setDescriptionERK7QString@Base 5.0.1
 _ZN9QQmlError6setUrlERK4QUrl@Base 5.0.1
 _ZN9QQmlError7setLineEi@Base 5.0.1
 _ZN9QQmlError9setColumnEi@Base 5.0.1
 _ZN9QQmlErrorC1ERKS_@Base 5.0.1
 _ZN9QQmlErrorC1Ev@Base 5.0.1
 _ZN9QQmlErrorC2ERKS_@Base 5.0.1
 _ZN9QQmlErrorC2Ev@Base 5.0.1
 _ZN9QQmlErrorD1Ev@Base 5.0.1
 _ZN9QQmlErrorD2Ev@Base 5.0.1
 _ZN9QQmlErroraSERKS_@Base 5.0.1
 _ZN9QQmlTimer10classBeginEv@Base 5.0.1
 _ZN9QQmlTimer10setRunningEb@Base 5.0.1
 _ZN9QQmlTimer11qt_metacallEN11QMetaObject4CallEiPPv@Base 5.0.1
 _ZN9QQmlTimer11qt_metacastEPKc@Base 5.0.1
 _ZN9QQmlTimer11setIntervalEi@Base 5.0.1
 _ZN9QQmlTimer12setRepeatingEb@Base 5.0.1
 _ZN9QQmlTimer13repeatChangedEv@Base 5.0.1
 _ZN9QQmlTimer14runningChangedEv@Base 5.0.1
 _ZN9QQmlTimer15intervalChangedEv@Base 5.0.1
 _ZN9QQmlTimer16staticMetaObjectE@Base 5.0.1
 _ZN9QQmlTimer17componentCompleteEv@Base 5.0.1
 _ZN9QQmlTimer19setTriggeredOnStartEb@Base 5.0.1
 _ZN9QQmlTimer23triggeredOnStartChangedEv@Base 5.0.1
 _ZN9QQmlTimer4stopEv@Base 5.0.1
 _ZN9QQmlTimer5startEv@Base 5.0.1
 _ZN9QQmlTimer6tickedEv@Base 5.0.1
 _ZN9QQmlTimer6updateEv@Base 5.0.1
 _ZN9QQmlTimer7restartEv@Base 5.0.1
 _ZN9QQmlTimer9triggeredEv@Base 5.0.1
 _ZN9QQmlTimerC1EP7QObject@Base 5.0.1
 _ZN9QQmlTimerC2EP7QObject@Base 5.0.1
 _ZN9QQmlTimerD0Ev@Base 5.0.1
 _ZN9QQmlTimerD1Ev@Base 5.0.1
 _ZN9QQmlTimerD2Ev@Base 5.0.1
 _ZN9QV8Engine10ThreadDataC1Ev@Base 5.0.1
 _ZN9QV8Engine10ThreadDataC2Ev@Base 5.0.1
 _ZN9QV8Engine10ThreadDataD1Ev@Base 5.0.1
 _ZN9QV8Engine10ThreadDataD2Ev@Base 5.0.1
 _ZN9QV8Engine10newVariantERK8QVariant@Base 5.0.1
 _ZN9QV8Engine10startTimerERK7QString@Base 5.0.1
 _ZN9QV8Engine10threadDataEv@Base 5.0.1
 _ZN9QV8Engine11fromVariantERK8QVariant@Base 5.0.1
 _ZN9QV8Engine11variantToJSERK8QVariant@Base 5.0.1
 _ZN9QV8Engine12freezeObjectEN2v86HandleINS0_5ValueEEE@Base 5.0.1
 _ZN9QV8Engine12metaTypeToJSEiPKv@Base 5.0.1
 _ZN9QV8Engine12variantValueEN2v86HandleINS0_5ValueEEE@Base 5.0.1
 _ZN9QV8Engine13hasThreadDataEv@Base 5.0.1
 _ZN9QV8Engine13jsonArrayToJSERK10QJsonArray@Base 5.0.1
 _ZN9QV8Engine13jsonValueToJSERK10QJsonValue@Base 5.0.1
 _ZN9QV8Engine13variantFromJSEN2v86HandleINS0_5ValueEEER4QSetINS1_INS0_6ObjectEEEE@Base 5.0.1
 _ZN9QV8Engine14callingContextEv@Base 5.0.1
 _ZN9QV8Engine14getApplicationEN2v85LocalINS0_6StringEEERKNS0_12AccessorInfoE@Base 5.0.1
 _ZN9QV8Engine14getInputMethodEN2v85LocalINS0_6StringEEERKNS0_12AccessorInfoE@Base 5.0.1
 _ZN9QV8Engine14jsonObjectToJSERK11QJsonObject@Base 5.0.1
 _ZN9QV8Engine14metaTypeFromJSEN2v86HandleINS0_5ValueEEEiPv@Base 5.0.1
 _ZN9QV8Engine14qmlModeCompileEPKciRK7QStringt@Base 5.0.1
 _ZN9QV8Engine14qmlModeCompileERK7QStringS2_t@Base 5.0.1
 _ZN9QV8Engine14qtObjectFromJSEN2v86HandleINS0_5ValueEEE@Base 5.0.1
 _ZN9QV8Engine14throwExceptionEN2v86HandleINS0_5ValueEEE@Base 5.0.1
 _ZN9QV8Engine14toBasicVariantEN2v86HandleINS0_5ValueEEE@Base 5.0.1
 _ZN9QV8Engine14toStringStaticEN2v86HandleINS0_5ValueEEE@Base 5.0.1
 _ZN9QV8Engine14toStringStaticEN2v86HandleINS0_6StringEEE@Base 5.0.1
 _ZN9QV8Engine14variantMapToJSERK4QMapI7QString8QVariantE@Base 5.0.1
 _ZN9QV8Engine15jsonArrayFromJSEN2v86HandleINS0_5ValueEEE@Base 5.0.1
 _ZN9QV8Engine15jsonValueFromJSEN2v86HandleINS0_5ValueEEE@Base 5.0.1
 _ZN9QV8Engine15variantListToJSERK5QListI8QVariantE@Base 5.0.1
 _ZN9QV8Engine16initializeGlobalEN2v86HandleINS0_6ObjectEEE@Base 5.0.1
 _ZN9QV8Engine16jsonObjectFromJSEN2v86HandleINS0_5ValueEEE@Base 5.0.1
 _ZN9QV8Engine16setExtensionDataEiPNS_9DeletableE@Base 5.0.1
 _ZN9QV8Engine16variantMapFromJSEN2v86HandleINS0_6ObjectEEER4QSetIS3_E@Base 5.0.1
 _ZN9QV8Engine17registerExtensionEv@Base 5.0.1
 _ZN9QV8Engine17registrationMutexEv@Base 5.0.1
 _ZN9QV8Engine17variantListFromJSEN2v86HandleINS0_5ArrayEEER4QSetINS1_INS0_6ObjectEEEE@Base 5.0.1
 _ZN9QV8Engine18consoleCountHelperERK7QStringtt@Base 5.0.1
 _ZN9QV8Engine18qtDateTimeToJsDateERK9QDateTime@Base 5.0.1
 _ZN9QV8Engine19getOwnPropertyNamesEN2v86HandleINS0_6ObjectEEE@Base 5.0.1
 _ZN9QV8Engine19initQmlGlobalObjectEv@Base 5.0.1
 _ZN9QV8Engine20addRelationshipForGCEP7QObjectN2v810PersistentINS2_5ValueEEE@Base 5.0.1
 _ZN9QV8Engine20addRelationshipForGCEP7QObjectS1_@Base 5.0.1
 _ZN9QV8Engine20findOwnerAndStrengthEP7QObjectPb@Base 5.0.1
 _ZN9QV8Engine20networkAccessManagerEv@Base 5.0.1
 _ZN9QV8Engine20qtDateTimeFromJsDateEd@Base 5.0.1
 _ZN9QV8Engine22convertToNativeQObjectEN2v86HandleINS0_5ValueEEERK10QByteArrayPPv@Base 5.0.1
 _ZN9QV8Engine22ensurePerThreadIsolateEv@Base 5.0.1
 _ZN9QV8Engine2gcEv@Base 5.0.1
 _ZN9QV8Engine8evaluateEN2v86HandleINS0_6ScriptEEERNS0_8TryCatchE@Base 5.0.1
 _ZN9QV8Engine8newArrayEj@Base 5.0.1
 _ZN9QV8Engine9setEngineEP10QQmlEngine@Base 5.0.1
 _ZN9QV8Engine9stopTimerERK7QStringPb@Base 5.0.1
 _ZN9QV8Engine9toVariantEN2v86HandleINS0_5ValueEEEi@Base 5.0.1
 _ZN9QV8EngineC1EP9QJSEngineNS_16ContextOwnershipE@Base 5.0.1
 _ZN9QV8EngineC2EP9QJSEngineNS_16ContextOwnershipE@Base 5.0.1
 _ZN9QV8EngineD0Ev@Base 5.0.1
 _ZN9QV8EngineD1Ev@Base 5.0.1
 _ZN9QV8EngineD2Ev@Base 5.0.1
 _ZNK10QQmlBundle4findEPK5QChari@Base 5.0.1
 _ZNK10QQmlBundle4findERK7QString@Base 5.0.1
 _ZNK10QQmlBundle4linkEPKNS_9FileEntryERK7QString@Base 5.0.1
 _ZNK10QQmlBundle5filesEv@Base 5.0.1
 _ZNK10QQmlBundle9FileEntry10isFileNameERK7QString@Base 5.0.1
 _ZNK10QQmlBundle9FileEntry8contentsEv@Base 5.0.1
 _ZNK10QQmlBundle9FileEntry8fileNameEv@Base 5.0.1
 _ZNK10QQmlBundle9FileEntry8fileSizeEv@Base 5.0.1
 _ZNK10QQmlEngine10metaObjectEv@Base 5.0.1
 _ZNK10QQmlEngine11rootContextEv@Base 5.0.1
 _ZNK10QQmlEngine13imageProviderERK7QString@Base 5.0.1
 _ZNK10QQmlEngine14importPathListEv@Base 5.0.1
 _ZNK10QQmlEngine14pluginPathListEv@Base 5.0.1
 _ZNK10QQmlEngine18offlineStoragePathEv@Base 5.0.1
 _ZNK10QQmlEngine20incubationControllerEv@Base 5.0.1
 _ZNK10QQmlEngine20networkAccessManagerEv@Base 5.0.1
 _ZNK10QQmlEngine27networkAccessManagerFactoryEv@Base 5.0.1
 _ZNK10QQmlEngine29outputWarningsToStandardErrorEv@Base 5.0.1
 _ZNK10QQmlEngine7baseUrlEv@Base 5.0.1
 _ZNK10QQmlScript6Parser12preparseDataEv@Base 5.0.1
 _ZNK10QQmlScript6Parser15referencedTypesEv@Base 5.0.1
 _ZNK10QQmlScript6Parser4treeEv@Base 5.0.1
 _ZNK10QQmlScript6Parser6errorsEv@Base 5.0.1
 _ZNK10QQmlScript6Parser7importsEv@Base 5.0.1
 _ZNK10QQmlScript7Variant12asStringListEv@Base 5.0.1
 _ZNK10QQmlScript7Variant12isStringListEv@Base 5.0.1
 _ZNK10QQmlScript7Variant4typeEv@Base 5.0.1
 _ZNK10QQmlScript7Variant5asASTEv@Base 5.0.1
 _ZNK10QQmlScript7Variant8asNumberEv@Base 5.0.1
 _ZNK10QQmlScript7Variant8asScriptEv@Base 5.0.1
 _ZNK10QQmlScript7Variant8asStringEv@Base 5.0.1
 _ZNK10QQmlScript7Variant9asBooleanEv@Base 5.0.1
 _ZNK11QQmlBinding10expressionEv@Base 5.0.1
 _ZNK11QQmlBinding13evaluateFlagsEv@Base 5.0.1
 _ZNK11QQmlBinding13propertyIndexEv@Base 5.0.1
 _ZNK11QQmlBinding6objectEv@Base 5.0.1
 _ZNK11QQmlBinding8propertyEv@Base 5.0.1
 _ZNK11QQmlContext10metaObjectEv@Base 5.0.1
 _ZNK11QQmlContext13contextObjectEv@Base 5.0.1
 _ZNK11QQmlContext13nameForObjectEP7QObject@Base 5.0.1
 _ZNK11QQmlContext13parentContextEv@Base 5.0.1
 _ZNK11QQmlContext15contextPropertyERK7QString@Base 5.0.1
 _ZNK11QQmlContext6engineEv@Base 5.0.1
 _ZNK11QQmlContext7baseUrlEv@Base 5.0.1
 _ZNK11QQmlContext7isValidEv@Base 5.0.1
 _ZNK11QQmlImports11resolveTypeEP19QQmlImportNamespaceRK16QHashedStringRefPP8QQmlTypeP7QStringPiSA_@Base 5.0.1
 _ZNK11QQmlImports11resolveTypeERK16QHashedStringRefPP8QQmlTypeP7QStringPiS8_PP19QQmlImportNamespaceP5QListI9QQmlErrorE@Base 5.0.1
 _ZNK11QQmlImports13populateCacheEP17QQmlTypeNameCache@Base 5.0.1
 _ZNK11QQmlImports15resolvedScriptsEv@Base 5.0.1
 _ZNK11QQmlImports7baseUrlEv@Base 5.0.1
 _ZNK12QQmlDataBlob10isCompleteEv@Base 5.0.1
 _ZNK12QQmlDataBlob14finalUrlStringEv@Base 5.0.1
 _ZNK12QQmlDataBlob17isCompleteOrErrorEv@Base 5.0.1
 _ZNK12QQmlDataBlob3urlEv@Base 5.0.1
 _ZNK12QQmlDataBlob4typeEv@Base 5.0.1
 _ZNK12QQmlDataBlob6errorsEv@Base 5.0.1
 _ZNK12QQmlDataBlob6isNullEv@Base 5.0.1
 _ZNK12QQmlDataBlob6statusEv@Base 5.0.1
 _ZNK12QQmlDataBlob7isErrorEv@Base 5.0.1
 _ZNK12QQmlDataBlob8finalUrlEv@Base 5.0.1
 _ZNK12QQmlDataBlob8progressEv@Base 5.0.1
 _ZNK12QQmlDataBlob9isLoadingEv@Base 5.0.1
 _ZNK12QQmlDataBlob9isWaitingEv@Base 5.0.1
 _ZNK12QQmlProperty10isPropertyEv@Base 5.0.1
 _ZNK12QQmlProperty10isWritableEv@Base 5.0.1
 _ZNK12QQmlProperty12isDesignableEv@Base 5.0.1
 _ZNK12QQmlProperty12isResettableEv@Base 5.0.1
 _ZNK12QQmlProperty12propertyTypeEv@Base 5.0.1
 _ZNK12QQmlProperty15hasNotifySignalEv@Base 5.0.1
 _ZNK12QQmlProperty16isSignalPropertyEv@Base 5.0.1
 _ZNK12QQmlProperty16propertyTypeNameEv@Base 5.0.1
 _ZNK12QQmlProperty17needsNotifySignalEv@Base 5.0.1
 _ZNK12QQmlProperty19connectNotifySignalEP7QObjectPKc@Base 5.0.1
 _ZNK12QQmlProperty19connectNotifySignalEP7QObjecti@Base 5.0.1
 _ZNK12QQmlProperty20propertyTypeCategoryEv@Base 5.0.1
 _ZNK12QQmlProperty4nameEv@Base 5.0.1
 _ZNK12QQmlProperty4readEv@Base 5.0.1
 _ZNK12QQmlProperty4typeEv@Base 5.0.1
 _ZNK12QQmlProperty5indexEv@Base 5.0.1
 _ZNK12QQmlProperty5resetEv@Base 5.0.1
 _ZNK12QQmlProperty5writeERK8QVariant@Base 5.0.1
 _ZNK12QQmlProperty6methodEv@Base 5.0.1
 _ZNK12QQmlProperty6objectEv@Base 5.0.1
 _ZNK12QQmlProperty7isValidEv@Base 5.0.1
 _ZNK12QQmlProperty8propertyEv@Base 5.0.1
 _ZNK12QQmlPropertyeqERKS_@Base 5.0.1
 _ZNK13QQmlComponent10metaObjectEv@Base 5.0.1
 _ZNK13QQmlComponent11errorStringEv@Base 5.0.1
 _ZNK13QQmlComponent15creationContextEv@Base 5.0.1
 _ZNK13QQmlComponent3urlEv@Base 5.0.1
 _ZNK13QQmlComponent6errorsEv@Base 5.0.1
 _ZNK13QQmlComponent6isNullEv@Base 5.0.1
 _ZNK13QQmlComponent6statusEv@Base 5.0.1
 _ZNK13QQmlComponent7isErrorEv@Base 5.0.1
 _ZNK13QQmlComponent7isReadyEv@Base 5.0.1
 _ZNK13QQmlComponent8progressEv@Base 5.0.1
 _ZNK13QQmlComponent9isLoadingEv@Base 5.0.1
 _ZNK13QQmlIncubator14incubationModeEv@Base 5.0.1
 _ZNK13QQmlIncubator6errorsEv@Base 5.0.1
 _ZNK13QQmlIncubator6isNullEv@Base 5.0.1
 _ZNK13QQmlIncubator6objectEv@Base 5.0.1
 _ZNK13QQmlIncubator6statusEv@Base 5.0.1
 _ZNK13QQmlIncubator7isErrorEv@Base 5.0.1
 _ZNK13QQmlIncubator7isReadyEv@Base 5.0.1
 _ZNK13QQmlIncubator9isLoadingEv@Base 5.0.1
 _ZNK13QQmlValueType10metaObjectEv@Base 5.0.1
 _ZNK14QQmlExpression10expressionEv@Base 5.0.1
 _ZNK14QQmlExpression10lineNumberEv@Base 5.0.1
 _ZNK14QQmlExpression10metaObjectEv@Base 5.0.1
 _ZNK14QQmlExpression10sourceFileEv@Base 5.0.1
 _ZNK14QQmlExpression11scopeObjectEv@Base 5.0.1
 _ZNK14QQmlExpression12columnNumberEv@Base 5.0.1
 _ZNK14QQmlExpression20notifyOnValueChangedEv@Base 5.0.1
 _ZNK14QQmlExpression5errorEv@Base 5.0.1
 _ZNK14QQmlExpression6engineEv@Base 5.0.1
 _ZNK14QQmlExpression7contextEv@Base 5.0.1
 _ZNK14QQmlExpression8hasErrorEv@Base 5.0.1
 _ZNK14QQmlMetaObject13propertyCacheEP17QQmlEnginePrivate@Base 5.0.1
 _ZNK15QQmlBoundSignal10expressionEv@Base 5.0.1
 _ZNK15QQmlBoundSignal5indexEv@Base 5.0.1
 _ZNK15QQmlContextData12findObjectIdEPK7QObject@Base 5.0.1
 _ZNK15QQmlDebugServer10metaObjectEv@Base 5.0.1
 _ZNK15QQmlDebugServer12blockingModeEv@Base 5.0.1
 _ZNK15QQmlDebugServer12serviceNamesEv@Base 5.0.1
 _ZNK15QQmlDebugServer18hasDebuggingClientEv@Base 5.0.1
 _ZNK15QQmlDebugServer8servicesEv@Base 5.0.1
 _ZNK15QQmlPropertyMap10metaObjectEv@Base 5.0.1
 _ZNK15QQmlPropertyMap4keysEv@Base 5.0.1
 _ZNK15QQmlPropertyMap4sizeEv@Base 5.0.1
 _ZNK15QQmlPropertyMap5countEv@Base 5.0.1
 _ZNK15QQmlPropertyMap5valueERK7QString@Base 5.0.1
 _ZNK15QQmlPropertyMap7isEmptyEv@Base 5.0.1
 _ZNK15QQmlPropertyMap8containsERK7QString@Base 5.0.1
 _ZNK15QQmlPropertyMapixERK7QString@Base 5.0.1
 _ZNK15QQuickListModel10metaObjectEv@Base 5.0.1
 _ZNK15QQuickListModel3getEi@Base 5.0.1
 _ZNK15QQuickListModel4dataERK11QModelIndexi@Base 5.0.1
 _ZNK15QQuickListModel4dataEii@Base 5.0.1
 _ZNK15QQuickListModel5countEv@Base 5.0.1
 _ZNK15QQuickListModel5indexEiiRK11QModelIndex@Base 5.0.1
 _ZNK15QQuickListModel6engineEv@Base 5.0.1
 _ZNK15QQuickListModel8rowCountERK11QModelIndex@Base 5.0.1
 _ZNK15QQuickListModel9roleNamesEv@Base 5.0.1
 _ZNK16QJSValueIterator4nameEv@Base 5.0.1
 _ZNK16QJSValueIterator5valueEv@Base 5.0.1
 _ZNK16QJSValueIterator7hasNextEv@Base 5.0.1
 _ZNK16QQmlCustomParser11resolveTypeERK7QString@Base 5.0.1
 _ZNK16QQmlCustomParser12evaluateEnumERK10QByteArrayPb@Base 5.0.1
 _ZNK16QQmlDebugService10metaObjectEv@Base 5.0.1
 _ZNK16QQmlDebugService4nameEv@Base 5.0.1
 _ZNK16QQmlDebugService5stateEv@Base 5.0.1
 _ZNK16QQmlDebugService7versionEv@Base 5.0.1
 _ZNK16QQmlScriptString13isNullLiteralEv@Base 5.0.1
 _ZNK16QQmlScriptString13numberLiteralEPb@Base 5.0.1
 _ZNK16QQmlScriptString13stringLiteralEv@Base 5.0.1
 _ZNK16QQmlScriptString14booleanLiteralEPb@Base 5.0.1
 _ZNK16QQmlScriptString18isUndefinedLiteralEv@Base 5.0.1
 _ZNK16QQmlScriptString7isEmptyEv@Base 5.0.1
 _ZNK17QQmlEnginePrivate12isTypeLoadedERK4QUrl@Base 5.0.1
 _ZNK17QQmlEnginePrivate12typeCategoryEi@Base 5.0.1
 _ZNK17QQmlEnginePrivate14isScriptLoadedERK4QUrl@Base 5.0.1
 _ZNK17QQmlEnginePrivate17metaObjectForTypeEi@Base 5.0.1
 _ZNK17QQmlEnginePrivate20rawMetaObjectForTypeEi@Base 5.0.1
 _ZNK17QQmlEnginePrivate23getNetworkAccessManagerEv@Base 5.0.1
 _ZNK17QQmlEnginePrivate26createNetworkAccessManagerEP7QObject@Base 5.0.1
 _ZNK17QQmlEnginePrivate6isListEi@Base 5.0.1
 _ZNK17QQmlEnginePrivate8listTypeEi@Base 5.0.1
 _ZNK17QQmlEnginePrivate9toQObjectERK8QVariantPb@Base 5.0.1
 _ZNK17QQmlListReference10isReadableEv@Base 5.0.1
 _ZNK17QQmlListReference13isManipulableEv@Base 5.0.1
 _ZNK17QQmlListReference15listElementTypeEv@Base 5.0.1
 _ZNK17QQmlListReference2atEi@Base 5.0.1
 _ZNK17QQmlListReference5canAtEv@Base 5.0.1
 _ZNK17QQmlListReference5clearEv@Base 5.0.1
 _ZNK17QQmlListReference5countEv@Base 5.0.1
 _ZNK17QQmlListReference6appendEP7QObject@Base 5.0.1
 _ZNK17QQmlListReference6objectEv@Base 5.0.1
 _ZNK17QQmlListReference7isValidEv@Base 5.0.1
 _ZNK17QQmlListReference8canClearEv@Base 5.0.1
 _ZNK17QQmlListReference8canCountEv@Base 5.0.1
 _ZNK17QQmlListReference9canAppendEv@Base 5.0.1
 _ZNK17QQmlPropertyCache10metaObjectEv@Base 5.0.1
 _ZNK17QQmlPropertyCache12findPropertyEN11QStringHashI5QPairIiP16QQmlPropertyDataEE13ConstIteratorEP7QObjectP15QQmlContextData@Base 5.0.1
 _ZNK17QQmlPropertyCache12findPropertyEN11QStringHashI5QPairIiP16QQmlPropertyDataEE13ConstIteratorEPK17QQmlVMEMetaObjectP15QQmlContextData@Base 5.0.1
 _ZNK17QQmlPropertyCache13propertyNamesEv@Base 5.0.1
 _ZNK17QQmlPropertyCache14ensureResolvedEP16QQmlPropertyData@Base 5.0.1
 _ZNK17QQmlPropertyCache15defaultPropertyEv@Base 5.0.1
 _ZNK17QQmlPropertyCache18firstCppMetaObjectEv@Base 5.0.1
 _ZNK17QQmlPropertyCache19defaultPropertyNameEv@Base 5.0.1
 _ZNK17QQmlPropertyCache20signalParameterNamesEi@Base 5.0.1
 _ZNK17QQmlPropertyCache24methodIndexToSignalIndexEi@Base 5.0.1
 _ZNK17QQmlPropertyCache6methodEi@Base 5.0.1
 _ZNK17QQmlPropertyCache6parentEv@Base 5.0.1
 _ZNK17QQmlPropertyCache6signalEiPPS_@Base 5.0.1
 _ZNK17QQmlPropertyCache7resolveEP16QQmlPropertyData@Base 5.0.1
 _ZNK17QQmlPropertyCache8propertyEi@Base 5.0.1
 _ZNK17QQmlPropertyCache8propertyI7QStringEEP16QQmlPropertyDataRKT_P7QObjectP15QQmlContextData@Base 5.0.1
 _ZNK17QQmlPropertyCache9classNameEv@Base 5.0.1
 _ZNK17QQmlRectValueType10metaObjectEv@Base 5.0.1
 _ZNK17QQmlRectValueType1xEv@Base 5.0.1
 _ZNK17QQmlRectValueType1yEv@Base 5.0.1
 _ZNK17QQmlRectValueType5widthEv@Base 5.0.1
 _ZNK17QQmlRectValueType6heightEv@Base 5.0.1
 _ZNK17QQmlRectValueType8toStringEv@Base 5.0.1
 _ZNK17QQmlSizeValueType10metaObjectEv@Base 5.0.1
 _ZNK17QQmlSizeValueType5widthEv@Base 5.0.1
 _ZNK17QQmlSizeValueType6heightEv@Base 5.0.1
 _ZNK17QQmlSizeValueType8toStringEv@Base 5.0.1
 _ZNK17QQmlVMEMetaObject11aliasTargetEiPP7QObjectPiS3_@Base 5.0.1
 _ZNK17QQmlVMEMetaObject26getQObjectGuardForPropertyEi@Base 5.0.1
 _ZNK18QPauseAnimationJob8durationEv@Base 5.0.1
 _ZNK18QQmlAnimationTimer10metaObjectEv@Base 5.0.1
 _ZNK18QQmlOpenMetaObject4nameEi@Base 5.0.1
 _ZNK18QQmlOpenMetaObject4typeEv@Base 5.0.1
 _ZNK18QQmlOpenMetaObject5countEv@Base 5.0.1
 _ZNK18QQmlOpenMetaObject5valueERK10QByteArray@Base 5.0.1
 _ZNK18QQmlOpenMetaObject5valueEi@Base 5.0.1
 _ZNK18QQmlOpenMetaObject6objectEv@Base 5.0.1
 _ZNK18QQmlOpenMetaObject6parentEv@Base 5.0.1
 _ZNK18QQmlOpenMetaObject8hasValueEi@Base 5.0.1
 _ZNK18QQmlPointValueType10metaObjectEv@Base 5.0.1
 _ZNK18QQmlPointValueType1xEv@Base 5.0.1
 _ZNK18QQmlPointValueType1yEv@Base 5.0.1
 _ZNK18QQmlPointValueType8toStringEv@Base 5.0.1
 _ZNK18QQmlRectFValueType10metaObjectEv@Base 5.0.1
 _ZNK18QQmlRectFValueType1xEv@Base 5.0.1
 _ZNK18QQmlRectFValueType1yEv@Base 5.0.1
 _ZNK18QQmlRectFValueType5widthEv@Base 5.0.1
 _ZNK18QQmlRectFValueType6heightEv@Base 5.0.1
 _ZNK18QQmlRectFValueType8toStringEv@Base 5.0.1
 _ZNK18QQmlSizeFValueType10metaObjectEv@Base 5.0.1
 _ZNK18QQmlSizeFValueType5widthEv@Base 5.0.1
 _ZNK18QQmlSizeFValueType6heightEv@Base 5.0.1
 _ZNK18QQmlSizeFValueType8toStringEv@Base 5.0.1
 _ZNK19QQmlEasingValueType10metaObjectEv@Base 5.0.1
 _ZNK19QQmlEasingValueType11bezierCurveEv@Base 5.0.1
 _ZNK19QQmlEasingValueType4typeEv@Base 5.0.1
 _ZNK19QQmlEasingValueType6periodEv@Base 5.0.1
 _ZNK19QQmlEasingValueType8toStringEv@Base 5.0.1
 _ZNK19QQmlEasingValueType9amplitudeEv@Base 5.0.1
 _ZNK19QQmlEasingValueType9overshootEv@Base 5.0.1
 _ZNK19QQmlExtensionPlugin10metaObjectEv@Base 5.0.1
 _ZNK19QQmlPointFValueType10metaObjectEv@Base 5.0.1
 _ZNK19QQmlPointFValueType1xEv@Base 5.0.1
 _ZNK19QQmlPointFValueType1yEv@Base 5.0.1
 _ZNK19QQmlPointFValueType8toStringEv@Base 5.0.1
 _ZNK19QQmlPropertyPrivate11isValueTypeEv@Base 5.0.1
 _ZNK19QQmlPropertyPrivate11signalIndexEv@Base 5.0.1
 _ZNK19QQmlPropertyPrivate12propertyTypeEv@Base 5.0.1
 _ZNK19QQmlPropertyPrivate20propertyTypeCategoryEv@Base 5.0.1
 _ZNK19QQmlPropertyPrivate4typeEv@Base 5.0.1
 _ZNK19QV8ValueTypeWrapper11isValueTypeEN2v86HandleINS0_6ObjectEEE@Base 5.0.1
 _ZNK20QQmlCustomParserNode10propertiesEv@Base 5.0.1
 _ZNK20QQmlCustomParserNode4nameEv@Base 5.0.1
 _ZNK20QQmlCustomParserNode8locationEv@Base 5.0.1
 _ZNK20QQmlInspectorService10metaObjectEv@Base 5.0.1
 _ZNK21QAbstractAnimationJob13totalDurationEv@Base 5.0.1
 _ZNK21QAbstractAnimationJob19userControlDisabledEv@Base 5.0.1
 _ZNK22QQmlAbstractExpression7contextEv@Base 5.0.1
 _ZNK22QQmlAbstractExpression7isValidEv@Base 5.0.1
 _ZNK22QQmlEngineDebugService10metaObjectEv@Base 5.0.1
 _ZNK22QQmlEngineDebugService13valueContentsERK8QVariant@Base 5.0.1
 _ZNK22QQmlOpenMetaObjectType10metaObjectEv@Base 5.0.1
 _ZNK22QQmlOpenMetaObjectType12propertyNameEi@Base 5.0.1
 _ZNK22QQmlOpenMetaObjectType12signalOffsetEv@Base 5.0.1
 _ZNK22QQmlOpenMetaObjectType13propertyCountEv@Base 5.0.1
 _ZNK22QQmlOpenMetaObjectType14propertyOffsetEv@Base 5.0.1
 _ZNK24QQmlCustomParserProperty14assignedValuesEv@Base 5.0.1
 _ZNK24QQmlCustomParserProperty4nameEv@Base 5.0.1
 _ZNK24QQmlCustomParserProperty6isListEv@Base 5.0.1
 _ZNK24QQmlCustomParserProperty8locationEv@Base 5.0.1
 _ZNK24QQmlIncubationController21incubatingObjectCountEv@Base 5.0.1
 _ZNK24QQmlIncubationController6engineEv@Base 5.0.1
 _ZNK25QQmlBoundSignalExpression10expressionEv@Base 5.0.1
 _ZNK26QParallelAnimationGroupJob20shouldAnimationStartEP21QAbstractAnimationJobb@Base 5.0.1
 _ZNK26QParallelAnimationGroupJob8durationEv@Base 5.0.1
 _ZNK28QSequentialAnimationGroupJob19indexForCurrentTimeEv@Base 5.0.1
 _ZNK28QSequentialAnimationGroupJob28animationActualTotalDurationEP21QAbstractAnimationJob@Base 5.0.1
 _ZNK28QSequentialAnimationGroupJob5atEndEv@Base 5.0.1
 _ZNK28QSequentialAnimationGroupJob8durationEv@Base 5.0.1
 _ZNK8QJSValue10isCallableEv@Base 5.0.1
 _ZNK8QJSValue10toDateTimeEv@Base 5.0.1
 _ZNK8QJSValue11hasPropertyERK7QString@Base 5.0.1
 _ZNK8QJSValue11isUndefinedEv@Base 5.0.1
 _ZNK8QJSValue14hasOwnPropertyERK7QString@Base 5.0.1
 _ZNK8QJSValue14strictlyEqualsERKS_@Base 5.0.1
 _ZNK8QJSValue5toIntEv@Base 5.0.1
 _ZNK8QJSValue6engineEv@Base 5.0.1
 _ZNK8QJSValue6equalsERKS_@Base 5.0.1
 _ZNK8QJSValue6isBoolEv@Base 5.0.1
 _ZNK8QJSValue6isDateEv@Base 5.0.1
 _ZNK8QJSValue6isNullEv@Base 5.0.1
 _ZNK8QJSValue6toBoolEv@Base 5.0.1
 _ZNK8QJSValue6toUIntEv@Base 5.0.1
 _ZNK8QJSValue7isArrayEv@Base 5.0.1
 _ZNK8QJSValue7isErrorEv@Base 5.0.1
 _ZNK8QJSValue8isNumberEv@Base 5.0.1
 _ZNK8QJSValue8isObjectEv@Base 5.0.1
 _ZNK8QJSValue8isRegExpEv@Base 5.0.1
 _ZNK8QJSValue8isStringEv@Base 5.0.1
 _ZNK8QJSValue8propertyERK7QString@Base 5.0.1
 _ZNK8QJSValue8propertyEj@Base 5.0.1
 _ZNK8QJSValue8toNumberEv@Base 5.0.1
 _ZNK8QJSValue8toStringEv@Base 5.0.1
 _ZNK8QJSValue9isQObjectEv@Base 5.0.1
 _ZNK8QJSValue9isVariantEv@Base 5.0.1
 _ZNK8QJSValue9prototypeEv@Base 5.0.1
 _ZNK8QJSValue9toQObjectEv@Base 5.0.1
 _ZNK8QJSValue9toVariantEv@Base 5.0.1
 _ZNK8QQmlData18attachedPropertiesEv@Base 5.0.1
 _ZNK8QQmlFile13dataByteArrayEv@Base 5.0.1
 _ZNK8QQmlFile3urlEv@Base 5.0.1
 _ZNK8QQmlFile4dataEv@Base 5.0.1
 _ZNK8QQmlFile4sizeEv@Base 5.0.1
 _ZNK8QQmlFile5errorEv@Base 5.0.1
 _ZNK8QQmlFile6isNullEv@Base 5.0.1
 _ZNK8QQmlFile6statusEv@Base 5.0.1
 _ZNK8QQmlFile7isErrorEv@Base 5.0.1
 _ZNK8QQmlFile7isReadyEv@Base 5.0.1
 _ZNK8QQmlFile8metaDataERK7QString@Base 5.0.1
 _ZNK8QQmlFile9isLoadingEv@Base 5.0.1
 _ZNK8QQmlType10createSizeEv@Base 5.0.1
 _ZNK8QQmlType10metaObjectEv@Base 5.0.1
 _ZNK8QQmlType11elementNameEv@Base 5.0.1
 _ZNK8QQmlType11isCreatableEv@Base 5.0.1
 _ZNK8QQmlType11isInterfaceEv@Base 5.0.1
 _ZNK8QQmlType11isSingletonEv@Base 5.0.1
 _ZNK8QQmlType11qListTypeIdEv@Base 5.0.1
 _ZNK8QQmlType11qmlTypeNameEv@Base 5.0.1
 _ZNK8QQmlType12customParserEv@Base 5.0.1
 _ZNK8QQmlType12interfaceIIdEv@Base 5.0.1
 _ZNK8QQmlType12majorVersionEv@Base 5.0.1
 _ZNK8QQmlType12minorVersionEv@Base 5.0.1
 _ZNK8QQmlType14baseMetaObjectEv@Base 5.0.1
 _ZNK8QQmlType14createFunctionEv@Base 5.0.1
 _ZNK8QQmlType14isExtendedTypeEv@Base 5.0.1
 _ZNK8QQmlType16noCreationReasonEv@Base 5.0.1
 _ZNK8QQmlType16parserStatusCastEv@Base 5.0.1
 _ZNK8QQmlType18availableInVersionERK16QHashedStringRefii@Base 5.0.1
 _ZNK8QQmlType18availableInVersionEii@Base 5.0.1
 _ZNK8QQmlType18metaObjectRevisionEv@Base 5.0.1
 _ZNK8QQmlType20attachedPropertiesIdEv@Base 5.0.1
 _ZNK8QQmlType21SingletonInstanceInfo10qobjectApiEP10QQmlEngine@Base 5.0.1
 _ZNK8QQmlType21SingletonInstanceInfo9scriptApiEP10QQmlEngine@Base 5.0.1
 _ZNK8QQmlType21singletonInstanceInfoEv@Base 5.0.1
 _ZNK8QQmlType22attachedPropertiesTypeEv@Base 5.0.1
 _ZNK8QQmlType23propertyValueSourceCastEv@Base 5.0.1
 _ZNK8QQmlType26attachedPropertiesFunctionEv@Base 5.0.1
 _ZNK8QQmlType28containsRevisionedAttributesEv@Base 5.0.1
 _ZNK8QQmlType28propertyValueInterceptorCastEv@Base 5.0.1
 _ZNK8QQmlType5indexEv@Base 5.0.1
 _ZNK8QQmlType6createEPP7QObjectPPvm@Base 5.0.1
 _ZNK8QQmlType6createEv@Base 5.0.1
 _ZNK8QQmlType6moduleEv@Base 5.0.1
 _ZNK8QQmlType6typeIdEv@Base 5.0.1
 _ZNK8QQmlType8typeNameEv@Base 5.0.1
 _ZNK8QQmlType9enumValueERK15QHashedV8StringPb@Base 5.0.1
 _ZNK8QQmlType9enumValueERK16QHashedStringRefPb@Base 5.0.1
 _ZNK8QQmlType9enumValueERK17QHashedCStringRefPb@Base 5.0.1
 _ZNK8QQmlType9superTypeEv@Base 5.0.1
 _ZNK9QJSEngine10metaObjectEv@Base 5.0.1
 _ZNK9QJSEngine12globalObjectEv@Base 5.0.1
 _ZNK9QQmlError11descriptionEv@Base 5.0.1
 _ZNK9QQmlError3urlEv@Base 5.0.1
 _ZNK9QQmlError4lineEv@Base 5.0.1
 _ZNK9QQmlError6columnEv@Base 5.0.1
 _ZNK9QQmlError7isValidEv@Base 5.0.1
 _ZNK9QQmlError8toStringEv@Base 5.0.1
 _ZNK9QQmlTimer10metaObjectEv@Base 5.0.1
 _ZNK9QQmlTimer11isRepeatingEv@Base 5.0.1
 _ZNK9QQmlTimer16triggeredOnStartEv@Base 5.0.1
 _ZNK9QQmlTimer8intervalEv@Base 5.0.1
 _ZNK9QQmlTimer9isRunningEv@Base 5.0.1
 _ZNK9QV8Engine12illegalNamesEv@Base 5.0.1
 _ZNK9QV8Engine23scriptValueFromInternalEN2v86HandleINS0_5ValueEEE@Base 5.0.1
 _ZTI10QQmlBundle@Base 5.0.1
 _ZTI10QQmlEngine@Base 5.0.1
 _ZTI11QMetaObject@Base 5.0.1
 _ZTI11QQmlBinding@Base 5.0.1
 _ZTI11QQmlCleanup@Base 5.0.1
 _ZTI11QQmlContext@Base 5.0.1
 _ZTI12QQmlDataBlob@Base 5.0.1
 _ZTI13QQmlComponent@Base 5.0.1
 _ZTI13QQmlIncubator@Base 5.0.1
 _ZTI13QQmlValueType@Base 5.0.1
 _ZTI14QQmlExpression@Base 5.0.1
 _ZTI15QQmlBoundSignal@Base 5.0.1
 _ZTI15QQmlDebugServer@Base 5.0.1
 _ZTI15QQmlGuiProvider@Base 5.0.1
 _ZTI15QQmlPropertyMap@Base 5.0.1
 _ZTI15QQuickListModel@Base 5.0.1
 _ZTI16QQmlCustomParser@Base 5.0.1
 _ZTI16QQmlDebugService@Base 5.0.1
 _ZTI16QQmlParserStatus@Base 5.0.1
 _ZTI17QQmlColorProvider@Base 5.0.1
 _ZTI17QQmlEnginePrivate@Base 5.0.1
 _ZTI17QQmlPropertyCache@Base 5.0.1
 _ZTI17QQmlRectValueType@Base 5.0.1
 _ZTI17QQmlSizeValueType@Base 5.0.1
 _ZTI17QQmlVMEMetaObject@Base 5.0.1
 _ZTI18QAnimationGroupJob@Base 5.0.1
 _ZTI18QPauseAnimationJob@Base 5.0.1
 _ZTI18QQmlAnimationTimer@Base 5.0.1
 _ZTI18QQmlOpenMetaObject@Base 5.0.1
 _ZTI18QQmlPointValueType@Base 5.0.1
 _ZTI18QQmlRectFValueType@Base 5.0.1
 _ZTI18QQmlSizeFValueType@Base 5.0.1
 _ZTI19QQmlAbstractBinding@Base 5.0.1
 _ZTI19QQmlEasingValueType@Base 5.0.1
 _ZTI19QQmlExtensionPlugin@Base 5.0.1
 _ZTI19QQmlPointFValueType@Base 5.0.1
 _ZTI19QQmlProfilerService@Base 5.0.1
 _ZTI19QQmlPropertyPrivate@Base 5.0.1
 _ZTI20QQmlComponentPrivate@Base 5.0.1
 _ZTI20QQmlInspectorService@Base 5.0.1
 _ZTI21QAbstractAnimationJob@Base 5.0.1
 _ZTI21QQmlImageProviderBase@Base 5.0.1
 _ZTI21QQmlValueTypeProvider@Base 5.0.1
 _ZTI22QDynamicMetaObjectData@Base 5.0.1
 _ZTI22QQmlAbstractExpression@Base 5.0.1
 _ZTI22QQmlEngineDebugService@Base 5.0.1
 _ZTI22QQmlExtensionInterface@Base 5.0.1
 _ZTI22QQmlOpenMetaObjectType@Base 5.0.1
 _ZTI23QQmlAbstractBoundSignal@Base 5.0.1
 _ZTI23QQmlPropertyValueSource@Base 5.0.1
 _ZTI24QQmlIncubationController@Base 5.0.1
 _ZTI25QQmlBoundSignalExpression@Base 5.0.1
 _ZTI26QAbstractDynamicMetaObject@Base 5.0.1
