# SymbolsHelper-Confirmed: 4:4.8.2 s390
libQtScript.so.4 libqt4-script #MINVER#
* Build-Depends-Package: libqt4-dev
 _Z14qScriptConnectP7QObjectPKcRK12QScriptValueS5_@Base 4:4.5.3
 _Z17qScriptDisconnectP7QObjectPKcRK12QScriptValueS5_@Base 4:4.5.3
 _Z5qHashRK13QScriptString@Base 4:4.6.1
 _ZN11QScriptableC1Ev@Base 4:4.5.3
 _ZN11QScriptableC2Ev@Base 4:4.5.3
 _ZN11QScriptableD1Ev@Base 4:4.5.3
 _ZN11QScriptableD2Ev@Base 4:4.5.3
 _ZN12QScriptClass11newIteratorERK12QScriptValue@Base 4:4.5.3
 _ZN12QScriptClass11setPropertyER12QScriptValueRK13QScriptStringjRKS0_@Base 4:4.5.3
 _ZN12QScriptClass13propertyFlagsERK12QScriptValueRK13QScriptStringj@Base 4:4.5.3
 _ZN12QScriptClass13queryPropertyERK12QScriptValueRK13QScriptString6QFlagsINS_9QueryFlagEEPj@Base 4:4.5.3
 _ZN12QScriptClass8propertyERK12QScriptValueRK13QScriptStringj@Base 4:4.5.3
 _ZN12QScriptClass9extensionENS_9ExtensionERK8QVariant@Base 4:4.5.3
 _ZN12QScriptClassC1EP13QScriptEngine@Base 4:4.5.3
 _ZN12QScriptClassC1EP13QScriptEngineR19QScriptClassPrivate@Base 4:4.5.3
 _ZN12QScriptClassC2EP13QScriptEngine@Base 4:4.5.3
 _ZN12QScriptClassC2EP13QScriptEngineR19QScriptClassPrivate@Base 4:4.5.3
 _ZN12QScriptClassD0Ev@Base 4:4.5.3
 _ZN12QScriptClassD1Ev@Base 4:4.5.3
 _ZN12QScriptClassD2Ev@Base 4:4.5.3
 _ZN12QScriptValue11setPropertyERK13QScriptStringRKS_RK6QFlagsINS_12PropertyFlagEE@Base 4:4.5.3
 _ZN12QScriptValue11setPropertyERK7QStringRKS_RK6QFlagsINS_12PropertyFlagEE@Base 4:4.5.3
 _ZN12QScriptValue11setPropertyEjRKS_RK6QFlagsINS_12PropertyFlagEE@Base 4:4.5.3
 _ZN12QScriptValue12setPrototypeERKS_@Base 4:4.5.3
 _ZN12QScriptValue14setScriptClassEP12QScriptClass@Base 4:4.5.3
 _ZN12QScriptValue4callERKS_RK5QListIS_E@Base 4:4.5.3
 _ZN12QScriptValue4callERKS_S1_@Base 4:4.5.3
 _ZN12QScriptValue7setDataERKS_@Base 4:4.5.3
 _ZN12QScriptValue8setScopeERKS_@Base 4:4.5.3
 _ZN12QScriptValue9constructERK5QListIS_E@Base 4:4.5.3
 _ZN12QScriptValue9constructERKS_@Base 4:4.5.3
 _ZN12QScriptValueC1ENS_12SpecialValueE@Base 4:4.5.3
 _ZN12QScriptValueC1EP13QScriptEngineNS_12SpecialValueE@Base 4:4.5.3
 _ZN12QScriptValueC1EP13QScriptEnginePKc@Base 4:4.5.3
 _ZN12QScriptValueC1EP13QScriptEngineRK7QString@Base 4:4.5.3
 _ZN12QScriptValueC1EP13QScriptEngineb@Base 4:4.5.3
 _ZN12QScriptValueC1EP13QScriptEngined@Base 4:4.5.3
 _ZN12QScriptValueC1EP13QScriptEnginei@Base 4:4.5.3
 _ZN12QScriptValueC1EP13QScriptEnginej@Base 4:4.5.3
 _ZN12QScriptValueC1EP19QScriptValuePrivate@Base 4:4.6.1
 _ZN12QScriptValueC1EPKc@Base 4:4.5.3
 _ZN12QScriptValueC1ERK13QLatin1String@Base 4:4.5.3
 _ZN12QScriptValueC1ERK7QString@Base 4:4.5.3
 _ZN12QScriptValueC1ERKS_@Base 4:4.5.3
 _ZN12QScriptValueC1Eb@Base 4:4.5.3
 _ZN12QScriptValueC1Ed@Base 4:4.5.3
 _ZN12QScriptValueC1Ei@Base 4:4.5.3
 _ZN12QScriptValueC1Ej@Base 4:4.5.3
 _ZN12QScriptValueC1Ev@Base 4:4.5.3
 _ZN12QScriptValueC2ENS_12SpecialValueE@Base 4:4.5.3
 _ZN12QScriptValueC2EP13QScriptEngineNS_12SpecialValueE@Base 4:4.5.3
 _ZN12QScriptValueC2EP13QScriptEnginePKc@Base 4:4.5.3
 _ZN12QScriptValueC2EP13QScriptEngineRK7QString@Base 4:4.5.3
 _ZN12QScriptValueC2EP13QScriptEngineb@Base 4:4.5.3
 _ZN12QScriptValueC2EP13QScriptEngined@Base 4:4.5.3
 _ZN12QScriptValueC2EP13QScriptEnginei@Base 4:4.5.3
 _ZN12QScriptValueC2EP13QScriptEnginej@Base 4:4.5.3
 _ZN12QScriptValueC2EP19QScriptValuePrivate@Base 4:4.6.1
 _ZN12QScriptValueC2EPKc@Base 4:4.5.3
 _ZN12QScriptValueC2ERK13QLatin1String@Base 4:4.5.3
 _ZN12QScriptValueC2ERK7QString@Base 4:4.5.3
 _ZN12QScriptValueC2ERKS_@Base 4:4.5.3
 _ZN12QScriptValueC2Eb@Base 4:4.5.3
 _ZN12QScriptValueC2Ed@Base 4:4.5.3
 _ZN12QScriptValueC2Ei@Base 4:4.5.3
 _ZN12QScriptValueC2Ej@Base 4:4.5.3
 _ZN12QScriptValueC2Ev@Base 4:4.5.3
 _ZN12QScriptValueD1Ev@Base 4:4.5.3
 _ZN12QScriptValueD2Ev@Base 4:4.5.3
 _ZN12QScriptValueaSERKS_@Base 4:4.5.3
 _ZN13QScriptEngine10newQObjectEP7QObjectNS_14ValueOwnershipERK6QFlagsINS_17QObjectWrapOptionEE@Base 4:4.5.3
 _ZN13QScriptEngine10newQObjectERK12QScriptValueP7QObjectNS_14ValueOwnershipERK6QFlagsINS_17QObjectWrapOptionEE@Base 4:4.5.3
 _ZN13QScriptEngine10newVariantERK12QScriptValueRK8QVariant@Base 4:4.5.3
 _ZN13QScriptEngine10newVariantERK8QVariant@Base 4:4.5.3
 _ZN13QScriptEngine10popContextEv@Base 4:4.5.3
 _ZN13QScriptEngine11checkSyntaxERK7QString@Base 4:4.5.3
 _ZN13QScriptEngine11newFunctionEPF12QScriptValueP14QScriptContextPS_ERKS0_i@Base 4:4.5.3
 _ZN13QScriptEngine11newFunctionEPF12QScriptValueP14QScriptContextPS_Ei@Base 4:4.5.3
 _ZN13QScriptEngine11newFunctionEPF12QScriptValueP14QScriptContextPS_PvES4_@Base 4:4.5.3
 _ZN13QScriptEngine11pushContextEv@Base 4:4.5.3
 _ZN13QScriptEngine11qt_metacallEN11QMetaObject4CallEiPPv@Base 4:4.5.3
 _ZN13QScriptEngine11qt_metacastEPKc@Base 4:4.5.3
 _ZN13QScriptEngine14collectGarbageEv@Base 4:4.5.3
 _ZN13QScriptEngine14newQMetaObjectEPK11QMetaObjectRK12QScriptValue@Base 4:4.5.3
 _ZN13QScriptEngine14toStringHandleERK7QString@Base 4:4.5.3
 _ZN13QScriptEngine14undefinedValueEv@Base 4:4.5.3
 _ZN13QScriptEngine15abortEvaluationERK12QScriptValue@Base 4:4.5.3
 _ZN13QScriptEngine15clearExceptionsEv@Base 4:4.5.3
 _ZN13QScriptEngine15importExtensionERK7QString@Base 4:4.5.3
 _ZN13QScriptEngine15setGlobalObjectERK12QScriptValue@Base 4:4.5.3
 _ZN13QScriptEngine16staticMetaObjectE@Base 4:4.5.3
 _ZN13QScriptEngine18registerCustomTypeEiPF12QScriptValuePS_PKvEPFvRKS0_PvES7_@Base 4:4.5.3
 _ZN13QScriptEngine19newActivationObjectEv@Base 4:4.5.3
 _ZN13QScriptEngine19setDefaultPrototypeEiRK12QScriptValue@Base 4:4.5.3
 _ZN13QScriptEngine22signalHandlerExceptionERK12QScriptValue@Base 4:4.5.3
 _ZN13QScriptEngine24setProcessEventsIntervalEi@Base 4:4.5.3
 _ZN13QScriptEngine26installTranslatorFunctionsERK12QScriptValue@Base 4:4.5.3
 _ZN13QScriptEngine26reportAdditionalMemoryCostEi@Base 4:4.7.0~beta1
 _ZN13QScriptEngine6createEiPKv@Base 4:4.5.3
 _ZN13QScriptEngine7convertERK12QScriptValueiPv@Base 4:4.5.3
 _ZN13QScriptEngine7newDateERK9QDateTime@Base 4:4.5.3
 _ZN13QScriptEngine7newDateEd@Base 4:4.5.3
 _ZN13QScriptEngine8evaluateERK14QScriptProgram@Base 4:4.6.1
 _ZN13QScriptEngine8evaluateERK7QStringS2_i@Base 4:4.5.3
 _ZN13QScriptEngine8newArrayEj@Base 4:4.5.3
 _ZN13QScriptEngine8setAgentEP18QScriptEngineAgent@Base 4:4.5.3
 _ZN13QScriptEngine8toObjectERK12QScriptValue@Base 4:4.5.3
 _ZN13QScriptEngine9convertV2ERK12QScriptValueiPv@Base 4:4.5.3
 _ZN13QScriptEngine9newObjectEP12QScriptClassRK12QScriptValue@Base 4:4.5.3
 _ZN13QScriptEngine9newObjectEv@Base 4:4.5.3
 _ZN13QScriptEngine9newRegExpERK7QRegExp@Base 4:4.5.3
 _ZN13QScriptEngine9newRegExpERK7QStringS2_@Base 4:4.5.3
 _ZN13QScriptEngine9nullValueEv@Base 4:4.5.3
 _ZN13QScriptEngineC1EP7QObject@Base 4:4.5.3
 _ZN13QScriptEngineC1ER20QScriptEnginePrivateP7QObject@Base 4:4.5.3
 _ZN13QScriptEngineC1Ev@Base 4:4.5.3
 _ZN13QScriptEngineC2EP7QObject@Base 4:4.5.3
 _ZN13QScriptEngineC2ER20QScriptEnginePrivateP7QObject@Base 4:4.5.3
 _ZN13QScriptEngineC2Ev@Base 4:4.5.3
 _ZN13QScriptEngineD0Ev@Base 4:4.5.3
 _ZN13QScriptEngineD1Ev@Base 4:4.5.3
 _ZN13QScriptEngineD2Ev@Base 4:4.5.3
 _ZN13QScriptStringC1ERKS_@Base 4:4.5.3
 _ZN13QScriptStringC1Ev@Base 4:4.5.3
 _ZN13QScriptStringC2ERKS_@Base 4:4.5.3
 _ZN13QScriptStringC2Ev@Base 4:4.5.3
 _ZN13QScriptStringD1Ev@Base 4:4.5.3
 _ZN13QScriptStringD2Ev@Base 4:4.5.3
 _ZN13QScriptStringaSERKS_@Base 4:4.5.3
 _ZN14QScriptContext10throwErrorENS_5ErrorERK7QString@Base 4:4.5.3
 _ZN14QScriptContext10throwErrorERK7QString@Base 4:4.5.3
 _ZN14QScriptContext10throwValueERK12QScriptValue@Base 4:4.5.3
 _ZN14QScriptContext13setThisObjectERK12QScriptValue@Base 4:4.5.3
 _ZN14QScriptContext14setReturnValueERK12QScriptValue@Base 4:4.5.3
 _ZN14QScriptContext19setActivationObjectERK12QScriptValue@Base 4:4.5.3
 _ZN14QScriptContext8popScopeEv@Base 4:4.5.3
 _ZN14QScriptContext9pushScopeERK12QScriptValue@Base 4:4.5.3
 _ZN14QScriptContextC1Ev@Base 4:4.5.3
 _ZN14QScriptContextC2Ev@Base 4:4.5.3
 _ZN14QScriptContextD1Ev@Base 4:4.5.3
 _ZN14QScriptContextD2Ev@Base 4:4.5.3
 _ZN14QScriptProgramC1ERK7QStringS0_i@Base 4:4.6.1
 _ZN14QScriptProgramC1ERKS_@Base 4:4.6.1
 _ZN14QScriptProgramC1Ev@Base 4:4.6.1
 _ZN14QScriptProgramC2ERK7QStringS0_i@Base 4:4.6.1
 _ZN14QScriptProgramC2ERKS_@Base 4:4.6.1
 _ZN14QScriptProgramC2Ev@Base 4:4.6.1
 _ZN14QScriptProgramD1Ev@Base 4:4.6.1
 _ZN14QScriptProgramD2Ev@Base 4:4.6.1
 _ZN14QScriptProgramaSERKS_@Base 4:4.6.1
 (optional=external|arch=sparc)_ZN15QBasicAtomicInt3refEv@Base 4:4.5.3
 (optional=external|arch=sparc)_ZN15QBasicAtomicInt5derefEv@Base 4:4.5.3
 _ZN18QScriptContextInfoC1EPK14QScriptContext@Base 4:4.5.3
 _ZN18QScriptContextInfoC1ERKS_@Base 4:4.5.3
 _ZN18QScriptContextInfoC1Ev@Base 4:4.5.3
 _ZN18QScriptContextInfoC2EPK14QScriptContext@Base 4:4.5.3
 _ZN18QScriptContextInfoC2ERKS_@Base 4:4.5.3
 _ZN18QScriptContextInfoC2Ev@Base 4:4.5.3
 _ZN18QScriptContextInfoD1Ev@Base 4:4.5.3
 _ZN18QScriptContextInfoD2Ev@Base 4:4.5.3
 _ZN18QScriptContextInfoaSERKS_@Base 4:4.5.3
 _ZN18QScriptEngineAgent10contextPopEv@Base 4:4.5.3
 _ZN18QScriptEngineAgent10scriptLoadExRK7QStringS2_i@Base 4:4.5.3
 _ZN18QScriptEngineAgent11contextPushEv@Base 4:4.5.3
 _ZN18QScriptEngineAgent12functionExitExRK12QScriptValue@Base 4:4.5.3
 _ZN18QScriptEngineAgent12scriptUnloadEx@Base 4:4.5.3
 _ZN18QScriptEngineAgent13functionEntryEx@Base 4:4.5.3
 _ZN18QScriptEngineAgent14exceptionCatchExRK12QScriptValue@Base 4:4.5.3
 _ZN18QScriptEngineAgent14exceptionThrowExRK12QScriptValueb@Base 4:4.5.3
 _ZN18QScriptEngineAgent14positionChangeExii@Base 4:4.5.3
 _ZN18QScriptEngineAgent9extensionENS_9ExtensionERK8QVariant@Base 4:4.5.3
 _ZN18QScriptEngineAgentC1EP13QScriptEngine@Base 4:4.5.3
 _ZN18QScriptEngineAgentC1ER25QScriptEngineAgentPrivateP13QScriptEngine@Base 4:4.5.3
 _ZN18QScriptEngineAgentC2EP13QScriptEngine@Base 4:4.5.3
 _ZN18QScriptEngineAgentC2ER25QScriptEngineAgentPrivateP13QScriptEngine@Base 4:4.5.3
 _ZN18QScriptEngineAgentD0Ev@Base 4:4.5.3
 _ZN18QScriptEngineAgentD1Ev@Base 4:4.5.3
 _ZN18QScriptEngineAgentD2Ev@Base 4:4.5.3
 _ZN20QScriptValueIterator4nextEv@Base 4:4.5.3
 _ZN20QScriptValueIterator6removeEv@Base 4:4.5.3
 _ZN20QScriptValueIterator6toBackEv@Base 4:4.5.3
 _ZN20QScriptValueIterator7toFrontEv@Base 4:4.5.3
 _ZN20QScriptValueIterator8previousEv@Base 4:4.5.3
 _ZN20QScriptValueIterator8setValueERK12QScriptValue@Base 4:4.5.3
 _ZN20QScriptValueIteratorC1ERK12QScriptValue@Base 4:4.5.3
 _ZN20QScriptValueIteratorC2ERK12QScriptValue@Base 4:4.5.3
 _ZN20QScriptValueIteratorD1Ev@Base 4:4.5.3
 _ZN20QScriptValueIteratorD2Ev@Base 4:4.5.3
 _ZN20QScriptValueIteratoraSER12QScriptValue@Base 4:4.5.3
 _ZN22QScriptExtensionPlugin11qt_metacallEN11QMetaObject4CallEiPPv@Base 4:4.5.3
 _ZN22QScriptExtensionPlugin11qt_metacastEPKc@Base 4:4.5.3
 _ZN22QScriptExtensionPlugin16staticMetaObjectE@Base 4:4.5.3
 _ZN22QScriptExtensionPluginC1EP7QObject@Base 4:4.5.3
 _ZN22QScriptExtensionPluginC2EP7QObject@Base 4:4.5.3
 _ZN22QScriptExtensionPluginD0Ev@Base 4:4.5.3
 _ZN22QScriptExtensionPluginD1Ev@Base 4:4.5.3
 _ZN22QScriptExtensionPluginD2Ev@Base 4:4.5.3
 _ZN23QScriptDeclarativeClass11scriptClassERK12QScriptValue@Base 4:4.6.1
 _ZN23QScriptDeclarativeClass11setPropertyEPNS_6ObjectERKPvRK12QScriptValue@Base 4:4.6.1
 _ZN23QScriptDeclarativeClass12toArrayIndexERKPvPb@Base 4:4.6.1
 _ZN23QScriptDeclarativeClass13functionValueERK12QScriptValueRKPv@Base 4:4.7.0~beta1
 _ZN23QScriptDeclarativeClass13propertyFlagsEPNS_6ObjectERKPv@Base 4:4.6.1
 _ZN23QScriptDeclarativeClass13propertyNamesEPNS_6ObjectE@Base 4:4.6.1
 _ZN23QScriptDeclarativeClass13propertyValueERK12QScriptValueRKPv@Base 4:4.7.0~beta1
 _ZN23QScriptDeclarativeClass13queryPropertyEPNS_6ObjectERKPv6QFlagsIN12QScriptClass9QueryFlagEE@Base 4:4.6.1
 _ZN23QScriptDeclarativeClass14newObjectValueEP13QScriptEnginePS_PNS_6ObjectE@Base 4:4.7.0~beta1
 _ZN23QScriptDeclarativeClass15scopeChainValueEP14QScriptContexti@Base 4:4.6.1
 _ZN23QScriptDeclarativeClass15setSupportsCallEb@Base 4:4.7.0~beta1
 _ZN23QScriptDeclarativeClass15startsWithUpperERKPv@Base 4:4.7.4
 _ZN23QScriptDeclarativeClass16pushCleanContextEP13QScriptEngine@Base 4:4.6.1
 _ZN23QScriptDeclarativeClass20PersistentIdentifierC1ERKS0_@Base 4:4.6.1
 _ZN23QScriptDeclarativeClass20PersistentIdentifierC1Ev@Base 4:4.6.1
 _ZN23QScriptDeclarativeClass20PersistentIdentifierC2ERKS0_@Base 4:4.6.1
 _ZN23QScriptDeclarativeClass20PersistentIdentifierC2Ev@Base 4:4.6.1
 _ZN23QScriptDeclarativeClass20PersistentIdentifierD1Ev@Base 4:4.6.1
 _ZN23QScriptDeclarativeClass20PersistentIdentifierD2Ev@Base 4:4.6.1
 _ZN23QScriptDeclarativeClass20PersistentIdentifieraSERKS0_@Base 4:4.6.1
 _ZN23QScriptDeclarativeClass20newStaticScopeObjectEP13QScriptEngine@Base 4:4.7.0~rc1
 _ZN23QScriptDeclarativeClass20newStaticScopeObjectEP13QScriptEngineiPK7QStringPK12QScriptValuePK6QFlagsINS5_12PropertyFlagEE@Base 4:4.7.0~rc1
 _ZN23QScriptDeclarativeClass26createPersistentIdentifierERK7QString@Base 4:4.6.1
 _ZN23QScriptDeclarativeClass26createPersistentIdentifierERKPv@Base 4:4.6.1
 _ZN23QScriptDeclarativeClass4callEPNS_6ObjectEP14QScriptContext@Base 4:4.7.0~beta1
 _ZN23QScriptDeclarativeClass5ValueC1EP13QScriptEngineRK12QScriptValue@Base 4:4.7.0~beta1
 _ZN23QScriptDeclarativeClass5ValueC1EP13QScriptEngineRK7QString@Base 4:4.7.0~beta1
 _ZN23QScriptDeclarativeClass5ValueC1EP13QScriptEngineb@Base 4:4.7.0~beta1
 _ZN23QScriptDeclarativeClass5ValueC1EP13QScriptEngined@Base 4:4.7.0~beta1
 _ZN23QScriptDeclarativeClass5ValueC1EP13QScriptEnginef@Base 4:4.7.0~beta1
 _ZN23QScriptDeclarativeClass5ValueC1EP13QScriptEnginei@Base 4:4.7.0~beta1
 _ZN23QScriptDeclarativeClass5ValueC1EP13QScriptEnginej@Base 4:4.7.0~beta1
 _ZN23QScriptDeclarativeClass5ValueC1EP14QScriptContextRK12QScriptValue@Base 4:4.7.0~beta1
 _ZN23QScriptDeclarativeClass5ValueC1EP14QScriptContextRK7QString@Base 4:4.7.0~beta1
 _ZN23QScriptDeclarativeClass5ValueC1EP14QScriptContextb@Base 4:4.7.0~beta1
 _ZN23QScriptDeclarativeClass5ValueC1EP14QScriptContextd@Base 4:4.7.0~beta1
 _ZN23QScriptDeclarativeClass5ValueC1EP14QScriptContextf@Base 4:4.7.0~beta1
 _ZN23QScriptDeclarativeClass5ValueC1EP14QScriptContexti@Base 4:4.7.0~beta1
 _ZN23QScriptDeclarativeClass5ValueC1EP14QScriptContextj@Base 4:4.7.0~beta1
 _ZN23QScriptDeclarativeClass5ValueC1ERKS0_@Base 4:4.7.0~beta1
 _ZN23QScriptDeclarativeClass5ValueC1Ev@Base 4:4.7.0~beta1
 _ZN23QScriptDeclarativeClass5ValueC2EP13QScriptEngineRK12QScriptValue@Base 4:4.7.0~beta1
 _ZN23QScriptDeclarativeClass5ValueC2EP13QScriptEngineRK7QString@Base 4:4.7.0~beta1
 _ZN23QScriptDeclarativeClass5ValueC2EP13QScriptEngineb@Base 4:4.7.0~beta1
 _ZN23QScriptDeclarativeClass5ValueC2EP13QScriptEngined@Base 4:4.7.0~beta1
 _ZN23QScriptDeclarativeClass5ValueC2EP13QScriptEnginef@Base 4:4.7.0~beta1
 _ZN23QScriptDeclarativeClass5ValueC2EP13QScriptEnginei@Base 4:4.7.0~beta1
 _ZN23QScriptDeclarativeClass5ValueC2EP13QScriptEnginej@Base 4:4.7.0~beta1
 _ZN23QScriptDeclarativeClass5ValueC2EP14QScriptContextRK12QScriptValue@Base 4:4.7.0~beta1
 _ZN23QScriptDeclarativeClass5ValueC2EP14QScriptContextRK7QString@Base 4:4.7.0~beta1
 _ZN23QScriptDeclarativeClass5ValueC2EP14QScriptContextb@Base 4:4.7.0~beta1
 _ZN23QScriptDeclarativeClass5ValueC2EP14QScriptContextd@Base 4:4.7.0~beta1
 _ZN23QScriptDeclarativeClass5ValueC2EP14QScriptContextf@Base 4:4.7.0~beta1
 _ZN23QScriptDeclarativeClass5ValueC2EP14QScriptContexti@Base 4:4.7.0~beta1
 _ZN23QScriptDeclarativeClass5ValueC2EP14QScriptContextj@Base 4:4.7.0~beta1
 _ZN23QScriptDeclarativeClass5ValueC2ERKS0_@Base 4:4.7.0~beta1
 _ZN23QScriptDeclarativeClass5ValueC2Ev@Base 4:4.7.0~beta1
 _ZN23QScriptDeclarativeClass5ValueD1Ev@Base 4:4.7.0~beta1
 _ZN23QScriptDeclarativeClass5ValueD2Ev@Base 4:4.7.0~beta1
 _ZN23QScriptDeclarativeClass6objectERK12QScriptValue@Base 4:4.6.1
 _ZN23QScriptDeclarativeClass7compareEPNS_6ObjectES1_@Base 4:4.7.0~beta1
 _ZN23QScriptDeclarativeClass8functionERK12QScriptValueRKPv@Base 4:4.6.1
 _ZN23QScriptDeclarativeClass8propertyEPNS_6ObjectERKPv@Base 4:4.6.1
 _ZN23QScriptDeclarativeClass8propertyERK12QScriptValueRKPv@Base 4:4.6.1
 _ZN23QScriptDeclarativeClass8toStringERKPv@Base 4:4.6.1
 _ZN23QScriptDeclarativeClass9newObjectEP13QScriptEnginePS_PNS_6ObjectE@Base 4:4.6.1
 _ZN23QScriptDeclarativeClass9toQObjectEPNS_6ObjectEPb@Base 4:4.6.1
 _ZN23QScriptDeclarativeClass9toVariantEPNS_6ObjectEPb@Base 4:4.6.1
 _ZN23QScriptDeclarativeClassC1EP13QScriptEngine@Base 4:4.6.1
 _ZN23QScriptDeclarativeClassC2EP13QScriptEngine@Base 4:4.6.1
 _ZN23QScriptDeclarativeClassD0Ev@Base 4:4.6.1
 _ZN23QScriptDeclarativeClassD1Ev@Base 4:4.6.1
 _ZN23QScriptDeclarativeClassD2Ev@Base 4:4.6.1
 _ZN24QScriptSyntaxCheckResultC1EP31QScriptSyntaxCheckResultPrivate@Base 4:4.5.3
 _ZN24QScriptSyntaxCheckResultC1ERKS_@Base 4:4.5.3
 _ZN24QScriptSyntaxCheckResultC1Ev@Base 4:4.5.3
 _ZN24QScriptSyntaxCheckResultC2EP31QScriptSyntaxCheckResultPrivate@Base 4:4.5.3
 _ZN24QScriptSyntaxCheckResultC2ERKS_@Base 4:4.5.3
 _ZN24QScriptSyntaxCheckResultC2Ev@Base 4:4.5.3
 _ZN24QScriptSyntaxCheckResultD1Ev@Base 4:4.5.3
 _ZN24QScriptSyntaxCheckResultD2Ev@Base 4:4.5.3
 _ZN24QScriptSyntaxCheckResultaSERKS_@Base 4:4.5.3
 (optional=private|subst)_ZN25QScriptEngineAgentPrivate11atStatementERKN5QTJSC17DebuggerCallFrameE{ssize_t}i@Base 4:4.7.0~beta1
 (optional=private|arch=!alpha !amd64 !ia64 !kfreebsd-amd64 !s390x)_ZN25QScriptEngineAgentPrivate11returnEventERKN5QTJSC17DebuggerCallFrameEii@Base 4:4.6.1
 (optional=private|arch=alpha amd64 ia64 kfreebsd-amd64 s390x)_ZN25QScriptEngineAgentPrivate11returnEventERKN5QTJSC17DebuggerCallFrameEli@Base 4:4.6.1
 (optional=private|arch=!alpha !amd64 !ia64 !kfreebsd-amd64 !s390x)_ZN25QScriptEngineAgentPrivate12evaluateStopERKN5QTJSC7JSValueEi@Base 4:4.6.1
 (optional=private|arch=alpha amd64 ia64 kfreebsd-amd64 s390x)_ZN25QScriptEngineAgentPrivate12evaluateStopERKN5QTJSC7JSValueEl@Base 4:4.6.1
 (optional=private|arch=!alpha !amd64 !ia64 !kfreebsd-amd64 !s390x)_ZN25QScriptEngineAgentPrivate12functionExitERKN5QTJSC7JSValueEi@Base 4:4.6.1
 (optional=private|arch=alpha amd64 ia64 kfreebsd-amd64 s390x)_ZN25QScriptEngineAgentPrivate12functionExitERKN5QTJSC7JSValueEl@Base 4:4.6.1
 (optional=private|arch=!alpha !amd64 !ia64 !kfreebsd-amd64 !s390x)_ZN25QScriptEngineAgentPrivate14exceptionCatchERKN5QTJSC17DebuggerCallFrameEi@Base 4:4.6.1
 (optional=private|arch=alpha amd64 ia64 kfreebsd-amd64 s390x)_ZN25QScriptEngineAgentPrivate14exceptionCatchERKN5QTJSC17DebuggerCallFrameEl@Base 4:4.6.1
 (optional=private|arch=!alpha !amd64 !ia64 !kfreebsd-amd64 !s390x)_ZN25QScriptEngineAgentPrivate14exceptionThrowERKN5QTJSC17DebuggerCallFrameEib@Base 4:4.6.1
 (optional=private|arch=alpha amd64 ia64 kfreebsd-amd64 s390x)_ZN25QScriptEngineAgentPrivate14exceptionThrowERKN5QTJSC17DebuggerCallFrameElb@Base 4:4.6.1
 (optional=private|subst)_ZN25QScriptEngineAgentPrivate18didReachBreakpointERKN5QTJSC17DebuggerCallFrameE{ssize_t}i@Base 4:4.7.0~beta1
 (optional=private)_ZN25QScriptEngineAgentPrivate6attachEv@Base 4:4.6.1
 (optional=private)_ZN25QScriptEngineAgentPrivate6detachEv@Base 4:4.6.1
 _ZN25QScriptExtensionInterfaceD0Ev@Base 4:4.7.4
 _ZN25QScriptExtensionInterfaceD1Ev@Base 4:4.7.4
 _ZN25QScriptExtensionInterfaceD2Ev@Base 4:4.7.4
 _ZN28QScriptClassPropertyIteratorC1ERK12QScriptValue@Base 4:4.5.3
 _ZN28QScriptClassPropertyIteratorC1ERK12QScriptValueR35QScriptClassPropertyIteratorPrivate@Base 4:4.5.3
 _ZN28QScriptClassPropertyIteratorC2ERK12QScriptValue@Base 4:4.5.3
 _ZN28QScriptClassPropertyIteratorC2ERK12QScriptValueR35QScriptClassPropertyIteratorPrivate@Base 4:4.5.3
 _ZN28QScriptClassPropertyIteratorD0Ev@Base 4:4.5.3
 _ZN28QScriptClassPropertyIteratorD1Ev@Base 4:4.5.3
 _ZN28QScriptClassPropertyIteratorD2Ev@Base 4:4.5.3
 (optional=external|arch=amd64 hurd-i386 i386 kfreebsd-amd64 kfreebsd-i386)_ZN9QHashData9hasShrunkEv@Base 4:4.8.1
 _ZNK11QScriptable10thisObjectEv@Base 4:4.5.3
 _ZNK11QScriptable13argumentCountEv@Base 4:4.5.3
 _ZNK11QScriptable6engineEv@Base 4:4.5.3
 _ZNK11QScriptable7contextEv@Base 4:4.5.3
 _ZNK11QScriptable8argumentEi@Base 4:4.5.3
 _ZNK12QScriptClass17supportsExtensionENS_9ExtensionE@Base 4:4.5.3
 _ZNK12QScriptClass4nameEv@Base 4:4.5.3
 _ZNK12QScriptClass6engineEv@Base 4:4.5.3
 _ZNK12QScriptClass9prototypeEv@Base 4:4.5.3
 _ZNK12QScriptValue10instanceOfERKS_@Base 4:4.5.3
 _ZNK12QScriptValue10isFunctionEv@Base 4:4.5.3
 _ZNK12QScriptValue10toDateTimeEv@Base 4:4.5.3
 _ZNK12QScriptValue11isUndefinedEv@Base 4:4.5.3
 _ZNK12QScriptValue11scriptClassEv@Base 4:4.5.3
 _ZNK12QScriptValue13isQMetaObjectEv@Base 4:4.5.3
 _ZNK12QScriptValue13propertyFlagsERK13QScriptStringRK6QFlagsINS_11ResolveFlagEE@Base 4:4.5.3
 _ZNK12QScriptValue13propertyFlagsERK7QStringRK6QFlagsINS_11ResolveFlagEE@Base 4:4.5.3
 _ZNK12QScriptValue13toQMetaObjectEv@Base 4:4.5.3
 _ZNK12QScriptValue14strictlyEqualsERKS_@Base 4:4.5.3
 _ZNK12QScriptValue4dataEv@Base 4:4.5.3
 _ZNK12QScriptValue5scopeEv@Base 4:4.5.3
 _ZNK12QScriptValue6engineEv@Base 4:4.5.3
 _ZNK12QScriptValue6equalsERKS_@Base 4:4.5.3
 _ZNK12QScriptValue6isBoolEv@Base 4:4.5.3
 _ZNK12QScriptValue6isDateEv@Base 4:4.5.3
 _ZNK12QScriptValue6isNullEv@Base 4:4.5.3
 _ZNK12QScriptValue6toBoolEv@Base 4:4.5.3
 _ZNK12QScriptValue7isArrayEv@Base 4:4.5.3
 _ZNK12QScriptValue7isErrorEv@Base 4:4.5.3
 _ZNK12QScriptValue7isValidEv@Base 4:4.5.3
 _ZNK12QScriptValue7toInt32Ev@Base 4:4.5.3
 _ZNK12QScriptValue8isNumberEv@Base 4:4.5.3
 _ZNK12QScriptValue8isObjectEv@Base 4:4.5.3
 _ZNK12QScriptValue8isRegExpEv@Base 4:4.5.3
 _ZNK12QScriptValue8isStringEv@Base 4:4.5.3
 _ZNK12QScriptValue8lessThanERKS_@Base 4:4.5.3
 _ZNK12QScriptValue8objectIdEv@Base 4:4.5.3
 _ZNK12QScriptValue8propertyERK13QScriptStringRK6QFlagsINS_11ResolveFlagEE@Base 4:4.5.3
 _ZNK12QScriptValue8propertyERK7QStringRK6QFlagsINS_11ResolveFlagEE@Base 4:4.5.3
 _ZNK12QScriptValue8propertyEjRK6QFlagsINS_11ResolveFlagEE@Base 4:4.5.3
 _ZNK12QScriptValue8toNumberEv@Base 4:4.5.3
 _ZNK12QScriptValue8toObjectEv@Base 4:4.5.3
 _ZNK12QScriptValue8toRegExpEv@Base 4:4.5.3
 _ZNK12QScriptValue8toStringEv@Base 4:4.5.3
 _ZNK12QScriptValue8toUInt16Ev@Base 4:4.5.3
 _ZNK12QScriptValue8toUInt32Ev@Base 4:4.5.3
 _ZNK12QScriptValue9isBooleanEv@Base 4:4.5.3
 _ZNK12QScriptValue9isQObjectEv@Base 4:4.5.3
 _ZNK12QScriptValue9isVariantEv@Base 4:4.5.3
 _ZNK12QScriptValue9prototypeEv@Base 4:4.5.3
 _ZNK12QScriptValue9toBooleanEv@Base 4:4.5.3
 _ZNK12QScriptValue9toIntegerEv@Base 4:4.5.3
 _ZNK12QScriptValue9toQObjectEv@Base 4:4.5.3
 _ZNK12QScriptValue9toVariantEv@Base 4:4.5.3
 _ZNK13QScriptEngine10metaObjectEv@Base 4:4.5.3
 _ZNK13QScriptEngine10objectByIdEx@Base 4:4.5.3
 _ZNK13QScriptEngine11canEvaluateERK7QString@Base 4:4.5.3
 _ZNK13QScriptEngine12globalObjectEv@Base 4:4.5.3
 _ZNK13QScriptEngine12isEvaluatingEv@Base 4:4.5.3
 _ZNK13QScriptEngine14currentContextEv@Base 4:4.5.3
 _ZNK13QScriptEngine16defaultPrototypeEi@Base 4:4.5.3
 _ZNK13QScriptEngine17uncaughtExceptionEv@Base 4:4.5.3
 _ZNK13QScriptEngine18importedExtensionsEv@Base 4:4.5.3
 _ZNK13QScriptEngine19availableExtensionsEv@Base 4:4.5.3
 _ZNK13QScriptEngine20hasUncaughtExceptionEv@Base 4:4.5.3
 _ZNK13QScriptEngine21processEventsIntervalEv@Base 4:4.5.3
 _ZNK13QScriptEngine26uncaughtExceptionBacktraceEv@Base 4:4.5.3
 _ZNK13QScriptEngine27uncaughtExceptionLineNumberEv@Base 4:4.5.3
 _ZNK13QScriptEngine5agentEv@Base 4:4.5.3
 _ZNK13QScriptString12toArrayIndexEPb@Base 4:4.6.1
 _ZNK13QScriptString7isValidEv@Base 4:4.5.3
 _ZNK13QScriptString8toStringEv@Base 4:4.5.3
 _ZNK13QScriptStringcv7QStringEv@Base 4:4.5.3
 _ZNK13QScriptStringeqERKS_@Base 4:4.5.3
 _ZNK13QScriptStringneERKS_@Base 4:4.5.3
 _ZNK14QScriptContext10scopeChainEv@Base 4:4.5.3
 _ZNK14QScriptContext10thisObjectEv@Base 4:4.5.3
 _ZNK14QScriptContext11returnValueEv@Base 4:4.5.3
 _ZNK14QScriptContext13argumentCountEv@Base 4:4.5.3
 _ZNK14QScriptContext13parentContextEv@Base 4:4.5.3
 _ZNK14QScriptContext15argumentsObjectEv@Base 4:4.5.3
 _ZNK14QScriptContext16activationObjectEv@Base 4:4.5.3
 _ZNK14QScriptContext21isCalledAsConstructorEv@Base 4:4.5.3
 _ZNK14QScriptContext5stateEv@Base 4:4.5.3
 _ZNK14QScriptContext6calleeEv@Base 4:4.5.3
 _ZNK14QScriptContext6engineEv@Base 4:4.5.3
 _ZNK14QScriptContext8argumentEi@Base 4:4.5.3
 _ZNK14QScriptContext8toStringEv@Base 4:4.5.3
 _ZNK14QScriptContext9backtraceEv@Base 4:4.5.3
 _ZNK14QScriptProgram10sourceCodeEv@Base 4:4.6.1
 _ZNK14QScriptProgram15firstLineNumberEv@Base 4:4.6.1
 _ZNK14QScriptProgram6isNullEv@Base 4:4.6.1
 _ZNK14QScriptProgram8fileNameEv@Base 4:4.6.1
 _ZNK14QScriptProgrameqERKS_@Base 4:4.6.1
 _ZNK14QScriptProgramneERKS_@Base 4:4.6.1
 _ZNK18QScriptContextInfo10lineNumberEv@Base 4:4.5.3
 _ZNK18QScriptContextInfo12columnNumberEv@Base 4:4.5.3
 _ZNK18QScriptContextInfo12functionNameEv@Base 4:4.5.3
 _ZNK18QScriptContextInfo12functionTypeEv@Base 4:4.5.3
 _ZNK18QScriptContextInfo17functionMetaIndexEv@Base 4:4.5.3
 _ZNK18QScriptContextInfo21functionEndLineNumberEv@Base 4:4.5.3
 _ZNK18QScriptContextInfo22functionParameterNamesEv@Base 4:4.5.3
 _ZNK18QScriptContextInfo23functionStartLineNumberEv@Base 4:4.5.3
 _ZNK18QScriptContextInfo6isNullEv@Base 4:4.5.3
 _ZNK18QScriptContextInfo8fileNameEv@Base 4:4.5.3
 _ZNK18QScriptContextInfo8scriptIdEv@Base 4:4.5.3
 _ZNK18QScriptContextInfoeqERKS_@Base 4:4.5.3
 _ZNK18QScriptContextInfoneERKS_@Base 4:4.5.3
 _ZNK18QScriptEngineAgent17supportsExtensionENS_9ExtensionE@Base 4:4.5.3
 _ZNK18QScriptEngineAgent6engineEv@Base 4:4.5.3
 _ZNK20QScriptValueIterator10scriptNameEv@Base 4:4.5.3
 _ZNK20QScriptValueIterator11hasPreviousEv@Base 4:4.5.3
 _ZNK20QScriptValueIterator4nameEv@Base 4:4.5.3
 _ZNK20QScriptValueIterator5flagsEv@Base 4:4.5.3
 _ZNK20QScriptValueIterator5valueEv@Base 4:4.5.3
 _ZNK20QScriptValueIterator7hasNextEv@Base 4:4.5.3
 _ZNK22QScriptExtensionPlugin10metaObjectEv@Base 4:4.5.3
 _ZNK22QScriptExtensionPlugin12setupPackageERK7QStringP13QScriptEngine@Base 4:4.5.3
 _ZNK23QScriptDeclarativeClass12supportsCallEv@Base 4:4.7.0~beta1
 _ZNK23QScriptDeclarativeClass20PersistentIdentifier8toStringEv@Base 4:4.7.4
 _ZNK23QScriptDeclarativeClass5Value13toScriptValueEP13QScriptEngine@Base 4:4.7.0~beta1
 _ZNK23QScriptDeclarativeClass6engineEv@Base 4:4.6.1
 _ZNK23QScriptDeclarativeClass7contextEv@Base 4:4.6.1
 _ZNK23QScriptDeclarativeClass9isQObjectEv@Base 4:4.6.1
 _ZNK24QScriptSyntaxCheckResult12errorMessageEv@Base 4:4.5.3
 _ZNK24QScriptSyntaxCheckResult15errorLineNumberEv@Base 4:4.5.3
 _ZNK24QScriptSyntaxCheckResult17errorColumnNumberEv@Base 4:4.5.3
 _ZNK24QScriptSyntaxCheckResult5stateEv@Base 4:4.5.3
 _ZNK28QScriptClassPropertyIterator2idEv@Base 4:4.5.3
 _ZNK28QScriptClassPropertyIterator5flagsEv@Base 4:4.5.3
 _ZNK28QScriptClassPropertyIterator6objectEv@Base 4:4.5.3
 (optional=templinst|arch=armel)_ZNK7QObject12findChildrenIPS_EE5QListIT_ERK7QString@Base 4:4.8.0
 _ZTI12QScriptClass@Base 4:4.5.3
 _ZTI13QScriptEngine@Base 4:4.5.3
 _ZTI17QFactoryInterface@Base 4:4.5.3
 _ZTI18QScriptEngineAgent@Base 4:4.5.3
 _ZTI22QScriptExtensionPlugin@Base 4:4.5.3
 _ZTI23QScriptDeclarativeClass@Base 4:4.6.1
 _ZTI25QScriptEngineAgentPrivate@Base 4:4.5.3
 _ZTI25QScriptExtensionInterface@Base 4:4.5.3
 _ZTI28QScriptClassPropertyIterator@Base 4:4.5.3
 _ZTS12QScriptClass@Base 4:4.5.3
 _ZTS13QScriptEngine@Base 4:4.5.3
 _ZTS17QFactoryInterface@Base 4:4.5.3
 _ZTS18QScriptEngineAgent@Base 4:4.5.3
 _ZTS22QScriptExtensionPlugin@Base 4:4.5.3
 _ZTS23QScriptDeclarativeClass@Base 4:4.6.1
 _ZTS25QScriptEngineAgentPrivate@Base 4:4.5.3
 _ZTS25QScriptExtensionInterface@Base 4:4.5.3
 _ZTS28QScriptClassPropertyIterator@Base 4:4.5.3
 _ZTV12QScriptClass@Base 4:4.5.3
 _ZTV13QScriptEngine@Base 4:4.5.3
 _ZTV17QFactoryInterface@Base 4:4.5.3
 _ZTV18QScriptEngineAgent@Base 4:4.5.3
 _ZTV22QScriptExtensionPlugin@Base 4:4.5.3
 _ZTV23QScriptDeclarativeClass@Base 4:4.6.1
 _ZTV25QScriptEngineAgentPrivate@Base 4:4.5.3
 _ZTV25QScriptExtensionInterface@Base 4:4.5.3
 _ZTV28QScriptClassPropertyIterator@Base 4:4.5.3
 _ZlsR11QDataStreamRK18QScriptContextInfo@Base 4:4.5.3
 _ZrsR11QDataStreamR18QScriptContextInfo@Base 4:4.5.3
 (c++)"non-virtual thunk to QScriptExtensionPlugin::~QScriptExtensionPlugin()@Base" 4:4.5.3
