# SymbolsHelper-Confirmed: 1.9.2 amd64
libbluedevil.so.1 libbluedevil1 #MINVER#
* Build-Depends-Package: libbluedevil-dev
 _ZN9BlueDevil11classToTypeEj@Base 1.7
 _ZN9BlueDevil12stringToTypeERK7QString@Base 1.7
 _ZN9BlueDevil6Device10disconnectEv@Base 1.7
 _ZN9BlueDevil6Device10registeredEPS0_@Base 1.9
 _ZN9BlueDevil6Device10setBlockedEb@Base 1.7
 _ZN9BlueDevil6Device10setTrustedEb@Base 1.7
 _ZN9BlueDevil6Device11UUIDsResultEPS0_RK11QStringList@Base 1.7
 _ZN9BlueDevil6Device11isConnectedEv@Base 1.7
 _ZN9BlueDevil6Device11nameChangedERK7QString@Base 1.7
 _ZN9BlueDevil6Device11qt_metacallEN11QMetaObject4CallEiPPv@Base 1.7
 _ZN9BlueDevil6Device11qt_metacastEPKc@Base 1.7
 _ZN9BlueDevil6Device12UUIDsChangedERK11QStringList@Base 1.7
 _ZN9BlueDevil6Device12aliasChangedERK7QString@Base 1.7
 _ZN9BlueDevil6Device13pairedChangedEb@Base 1.7
 _ZN9BlueDevil6Device14blockedChangedEb@Base 1.7
 _ZN9BlueDevil6Device14registerDeviceEv@Base 1.7
 _ZN9BlueDevil6Device14trustedChangedEb@Base 1.7
 _ZN9BlueDevil6Device15cancelDiscoveryEv@Base 1.7
 _ZN9BlueDevil6Device15isBlockedResultEPS0_b@Base 1.7
 _ZN9BlueDevil6Device15isTrustedResultEPS0_b@Base 1.7
 _ZN9BlueDevil6Device15propertyChangedERK7QStringRK8QVariant@Base 1.7
 _ZN9BlueDevil6Device16connectedChangedEb@Base 1.7
 _ZN9BlueDevil6Device16discoverServicesERK7QString@Base 1.7
 _ZN9BlueDevil6Device16staticMetaObjectE@Base 1.7
 _ZN9BlueDevil6Device17isConnectedResultEPS0_b@Base 1.7
 _ZN9BlueDevil6Device19disconnectRequestedEv@Base 1.7
 _ZN9BlueDevil6Device19registerDeviceAsyncEv@Base 1.9
 _ZN9BlueDevil6Device20registerDeviceResultEPS0_b@Base 1.7
 _ZN9BlueDevil6Device22discoverServicesResultEPS0_RK4QMapIj7QStringE@Base 1.7
 _ZN9BlueDevil6Device3UBIEv@Base 1.7
 _ZN9BlueDevil6Device5UUIDsEv@Base 1.7
 _ZN9BlueDevil6Device7Private15fetchPropertiesEv@Base 1.7
 _ZN9BlueDevil6Device7Private18_k_propertyChangedERK7QStringRK12QDBusVariant@Base 1.7
 _ZN9BlueDevil6Device7Private19_k_deviceRegisteredERK7QString@Base 1.9
 _ZN9BlueDevil6Device7Private22_k_ensureDeviceCreatedERK7QString@Base 1.7
 _ZN9BlueDevil6Device7PrivateC1EPS0_@Base 1.7
 _ZN9BlueDevil6Device7PrivateC1ERK7QStringS4_jS4_bS4_bPS0_@Base 1.7
 _ZN9BlueDevil6Device7PrivateC2EPS0_@Base 1.7
 _ZN9BlueDevil6Device7PrivateC2ERK7QStringS4_jS4_bS4_bPS0_@Base 1.7
 _ZN9BlueDevil6Device7PrivateD1Ev@Base 1.7
 _ZN9BlueDevil6Device7PrivateD2Ev@Base 1.7
 _ZN9BlueDevil6Device8setAliasERK7QString@Base 1.7
 _ZN9BlueDevil6Device9UBIResultEPS0_RK7QString@Base 1.7
 _ZN9BlueDevil6Device9isBlockedEv@Base 1.7
 _ZN9BlueDevil6Device9isTrustedEv@Base 1.7
 _ZN9BlueDevil6DeviceC1ERK7QStringNS0_4TypeEPNS_7AdapterE@Base 1.7
 _ZN9BlueDevil6DeviceC1ERK7QStringS3_jS3_bS3_bPNS_7AdapterE@Base 1.7
 _ZN9BlueDevil6DeviceC2ERK7QStringNS0_4TypeEPNS_7AdapterE@Base 1.7
 _ZN9BlueDevil6DeviceC2ERK7QStringS3_jS3_bS3_bPNS_7AdapterE@Base 1.7
 _ZN9BlueDevil6DeviceD0Ev@Base 1.7
 _ZN9BlueDevil6DeviceD1Ev@Base 1.7
 _ZN9BlueDevil6DeviceD2Ev@Base 1.7
 _ZN9BlueDevil7Adapter10setPoweredEb@Base 1.7
 _ZN9BlueDevil7Adapter11deviceFoundEPNS_6DeviceE@Base 1.7
 _ZN9BlueDevil7Adapter11deviceFoundERK4QMapI7QString8QVariantE@Base 1.8.1
 _ZN9BlueDevil7Adapter11nameChangedERK7QString@Base 1.7
 _ZN9BlueDevil7Adapter11qt_metacallEN11QMetaObject4CallEiPPv@Base 1.7
 _ZN9BlueDevil7Adapter11qt_metacastEPKc@Base 1.7
 _ZN9BlueDevil7Adapter11setPairableEb@Base 1.7
 _ZN9BlueDevil7Adapter12deviceForUBIERK7QString@Base 1.7
 _ZN9BlueDevil7Adapter12removeDeviceEPNS_6DeviceE@Base 1.7
 _ZN9BlueDevil7Adapter13deviceCreatedEPNS_6DeviceE@Base 1.7
 _ZN9BlueDevil7Adapter13deviceCreatedERK7QString@Base 1.9
 _ZN9BlueDevil7Adapter13deviceRemovedEPNS_6DeviceE@Base 1.7
 _ZN9BlueDevil7Adapter13registerAgentERK7QStringNS0_18RegisterCapabilityE@Base 1.7
 _ZN9BlueDevil7Adapter14devicesChangedERK5QListIPNS_6DeviceEE@Base 1.7
 _ZN9BlueDevil7Adapter14poweredChangedEb@Base 1.7
 _ZN9BlueDevil7Adapter15pairableChangedEb@Base 1.7
 _ZN9BlueDevil7Adapter15propertyChangedERK7QStringRK8QVariant@Base 1.7
 _ZN9BlueDevil7Adapter15setDiscoverableEb@Base 1.7
 _ZN9BlueDevil7Adapter15unregisterAgentERK7QString@Base 1.7
 _ZN9BlueDevil7Adapter16addDeviceWithUBIERK7QStringPNS_6DeviceE@Base 1.7
 _ZN9BlueDevil7Adapter16deviceForAddressERK7QString@Base 1.7
 _ZN9BlueDevil7Adapter16staticMetaObjectE@Base 1.7
 _ZN9BlueDevil7Adapter17deviceDisappearedEPNS_6DeviceE@Base 1.7
 _ZN9BlueDevil7Adapter18discoveringChangedEb@Base 1.9
 _ZN9BlueDevil7Adapter19discoverableChangedEb@Base 1.7
 _ZN9BlueDevil7Adapter19pairedDeviceCreatedERK7QString@Base 1.7
 _ZN9BlueDevil7Adapter19setPaireableTimeoutEj@Base 1.7
 _ZN9BlueDevil7Adapter22pairableTimeoutChangedEj@Base 1.7
 _ZN9BlueDevil7Adapter22setDiscoverableTimeoutEj@Base 1.7
 _ZN9BlueDevil7Adapter26discoverableTimeoutChangedEj@Base 1.7
 _ZN9BlueDevil7Adapter5UUIDsEv@Base 1.7
 _ZN9BlueDevil7Adapter7Private14_k_deviceFoundERK7QStringRK4QMapIS2_8QVariantE@Base 1.7
 _ZN9BlueDevil7Adapter7Private14startDiscoveryEv@Base 1.9
 _ZN9BlueDevil7Adapter7Private15fetchPropertiesEv@Base 1.7
 _ZN9BlueDevil7Adapter7Private16_k_deviceCreatedERK15QDBusObjectPath@Base 1.7
 _ZN9BlueDevil7Adapter7Private16_k_deviceRemovedERK15QDBusObjectPath@Base 1.7
 _ZN9BlueDevil7Adapter7Private18_k_propertyChangedERK7QStringRK12QDBusVariant@Base 1.7
 _ZN9BlueDevil7Adapter7Private20_k_createDeviceReplyEP23QDBusPendingCallWatcher@Base 1.9
 _ZN9BlueDevil7Adapter7Private20_k_deviceDisappearedERK7QString@Base 1.7
 _ZN9BlueDevil7Adapter7Private20setDefaultPropertiesEv@Base 1.9.2
 _ZN9BlueDevil7Adapter7Private26_k_createPairedDeviceReplyEP23QDBusPendingCallWatcher@Base 1.7
 _ZN9BlueDevil7Adapter7PrivateC1EPS0_@Base 1.7
 _ZN9BlueDevil7Adapter7PrivateC2EPS0_@Base 1.7
 _ZN9BlueDevil7Adapter7PrivateD1Ev@Base 1.7
 _ZN9BlueDevil7Adapter7PrivateD2Ev@Base 1.7
 _ZN9BlueDevil7Adapter7devicesEv@Base 1.7
 _ZN9BlueDevil7Adapter7setNameERK7QString@Base 1.7
 _ZN9BlueDevil7AdapterC1ERK7QStringP7QObject@Base 1.7
 _ZN9BlueDevil7AdapterC2ERK7QStringP7QObject@Base 1.7
 _ZN9BlueDevil7AdapterD0Ev@Base 1.7
 _ZN9BlueDevil7AdapterD1Ev@Base 1.7
 _ZN9BlueDevil7AdapterD2Ev@Base 1.7
 _ZN9BlueDevil7Manager11qt_metacallEN11QMetaObject4CallEiPPv@Base 1.7
 _ZN9BlueDevil7Manager11qt_metacastEPKc@Base 1.7
 _ZN9BlueDevil7Manager12adapterAddedEPNS_7AdapterE@Base 1.7
 _ZN9BlueDevil7Manager14adapterRemovedEPNS_7AdapterE@Base 1.7
 _ZN9BlueDevil7Manager14defaultAdapterEv@Base 1.7
 _ZN9BlueDevil7Manager16staticMetaObjectE@Base 1.7
 _ZN9BlueDevil7Manager18allAdaptersRemovedEv@Base 1.7
 _ZN9BlueDevil7Manager20usableAdapterChangedEPNS_7AdapterE@Base 1.9
 _ZN9BlueDevil7Manager21defaultAdapterChangedEPNS_7AdapterE@Base 1.7
 _ZN9BlueDevil7Manager4selfEv@Base 1.7
 _ZN9BlueDevil7Manager7Private10initializeEv@Base 1.9
 _ZN9BlueDevil7Manager7Private15_k_adapterAddedERK15QDBusObjectPath@Base 1.7
 _ZN9BlueDevil7Manager7Private17_k_adapterRemovedERK15QDBusObjectPath@Base 1.7
 _ZN9BlueDevil7Manager7Private17findUsableAdapterEv@Base 1.9
 _ZN9BlueDevil7Manager7Private18_k_propertyChangedERK7QStringRK12QDBusVariant@Base 1.7
 _ZN9BlueDevil7Manager7Private24_k_defaultAdapterChangedERK15QDBusObjectPath@Base 1.7
 _ZN9BlueDevil7Manager7Private25_k_bluezServiceRegisteredEv@Base 1.8.1
 _ZN9BlueDevil7Manager7Private27_k_bluezServiceUnregisteredEv@Base 1.8.1
 _ZN9BlueDevil7Manager7PrivateC1EPS0_@Base 1.7
 _ZN9BlueDevil7Manager7PrivateC2EPS0_@Base 1.7
 _ZN9BlueDevil7Manager7PrivateD1Ev@Base 1.7
 _ZN9BlueDevil7Manager7PrivateD2Ev@Base 1.7
 _ZN9BlueDevil7Manager7releaseEv@Base 1.7
 _ZN9BlueDevil7ManagerC1EP7QObject@Base 1.7
 _ZN9BlueDevil7ManagerC2EP7QObject@Base 1.7
 _ZN9BlueDevil7ManagerD0Ev@Base 1.7
 _ZN9BlueDevil7ManagerD1Ev@Base 1.7
 _ZN9BlueDevil7ManagerD2Ev@Base 1.7
 _ZN9BlueDevil9asyncCallEPNS_6DeviceEPKc@Base 1.7
 _ZNK9BlueDevil6Device10metaObjectEv@Base 1.7
 _ZNK9BlueDevil6Device11deviceClassEv@Base 1.7
 _ZNK9BlueDevil6Device12friendlyNameEv@Base 1.7
 _ZNK9BlueDevil6Device12isRegisteredEv@Base 1.7
 _ZNK9BlueDevil6Device16hasLegacyPairingEv@Base 1.7
 _ZNK9BlueDevil6Device4iconEv@Base 1.7
 _ZNK9BlueDevil6Device4nameEv@Base 1.7
 _ZNK9BlueDevil6Device4pairERK7QStringNS_7Adapter18RegisterCapabilityE@Base 1.7
 _ZNK9BlueDevil6Device5aliasEv@Base 1.7
 _ZNK9BlueDevil6Device7adapterEv@Base 1.7
 _ZNK9BlueDevil6Device7addressEv@Base 1.7
 _ZNK9BlueDevil6Device8isPairedEv@Base 1.7
 _ZNK9BlueDevil7Adapter10findDeviceERK7QString@Base 1.7
 _ZNK9BlueDevil7Adapter10isPairableEv@Base 1.7
 _ZNK9BlueDevil7Adapter10metaObjectEv@Base 1.7
 _ZNK9BlueDevil7Adapter12adapterClassEv@Base 1.7
 _ZNK9BlueDevil7Adapter12createDeviceERK7QString@Base 1.7
 _ZNK9BlueDevil7Adapter12foundDevicesEv@Base 1.7
 _ZNK9BlueDevil7Adapter13isDiscoveringEv@Base 1.7
 _ZNK9BlueDevil7Adapter13stopDiscoveryEv@Base 1.7
 _ZNK9BlueDevil7Adapter14isDiscoverableEv@Base 1.7
 _ZNK9BlueDevil7Adapter14startDiscoveryEv@Base 1.7
 _ZNK9BlueDevil7Adapter16paireableTimeoutEv@Base 1.7
 _ZNK9BlueDevil7Adapter17createDeviceAsyncERK7QString@Base 1.9
 _ZNK9BlueDevil7Adapter18createPairedDeviceERK7QStringS3_S3_@Base 1.7
 _ZNK9BlueDevil7Adapter19discoverableTimeoutEv@Base 1.7
 _ZNK9BlueDevil7Adapter20startStableDiscoveryEv@Base 1.9
 _ZNK9BlueDevil7Adapter4nameEv@Base 1.7
 _ZNK9BlueDevil7Adapter7addressEv@Base 1.7
 _ZNK9BlueDevil7Adapter9isPoweredEv@Base 1.7
 _ZNK9BlueDevil7Manager10metaObjectEv@Base 1.7
 _ZNK9BlueDevil7Manager13usableAdapterEv@Base 1.9
 _ZNK9BlueDevil7Manager22isBluetoothOperationalEv@Base 1.7
 _ZNK9BlueDevil7Manager8adaptersEv@Base 1.7
 _ZTIN9BlueDevil6DeviceE@Base 1.7
 _ZTIN9BlueDevil7AdapterE@Base 1.7
 _ZTIN9BlueDevil7ManagerE@Base 1.7
 _ZTSN9BlueDevil6DeviceE@Base 1.7
 _ZTSN9BlueDevil7AdapterE@Base 1.7
 _ZTSN9BlueDevil7ManagerE@Base 1.7
 _ZTVN9BlueDevil6DeviceE@Base 1.7
 _ZTVN9BlueDevil7AdapterE@Base 1.7
 _ZTVN9BlueDevil7ManagerE@Base 1.7
