# SymbolsHelper-Confirmed: 4:4.8.1 amd64 armel armhf hurd-i386 i386 ia64 kfreebsd-amd64 kfreebsd-i386 mips mipsel powerpc s390 s390x sparc
libQtXmlPatterns.so.4 libqt4-xmlpatterns #MINVER#
* Build-Depends-Package: libqt4-dev
 _Z5qHashRK15QSourceLocation@Base 4:4.5.3
 _Z5qHashRK18QXmlNodeModelIndex@Base 4:4.5.3
 _Z5qHashRK8QXmlName@Base 4:4.5.3
 (optional=external|arch=armel hppa)_Z6qDebugv@Base 4:4.6.2
 _ZN10QXmlSchema14setUriResolverEPK20QAbstractUriResolver@Base 4:4.6.1
 _ZN10QXmlSchema17setMessageHandlerEP23QAbstractMessageHandler@Base 4:4.6.1
 _ZN10QXmlSchema23setNetworkAccessManagerEP21QNetworkAccessManager@Base 4:4.6.1
 _ZN10QXmlSchema4loadEP9QIODeviceRK4QUrl@Base 4:4.6.1
 _ZN10QXmlSchema4loadERK10QByteArrayRK4QUrl@Base 4:4.6.1
 _ZN10QXmlSchema4loadERK4QUrl@Base 4:4.6.1
 _ZN10QXmlSchemaC1ERKS_@Base 4:4.6.1
 _ZN10QXmlSchemaC1Ev@Base 4:4.6.1
 _ZN10QXmlSchemaC2ERKS_@Base 4:4.6.1
 _ZN10QXmlSchemaC2Ev@Base 4:4.6.1
 _ZN10QXmlSchemaD1Ev@Base 4:4.6.1
 _ZN10QXmlSchemaD2Ev@Base 4:4.6.1
 _ZN12QXmlNamePoolC1EPN11QPatternist8NamePoolE@Base 4:4.6.1
 _ZN12QXmlNamePoolC1ERKS_@Base 4:4.5.3
 _ZN12QXmlNamePoolC1Ev@Base 4:4.5.3
 _ZN12QXmlNamePoolC2EPN11QPatternist8NamePoolE@Base 4:4.6.1
 _ZN12QXmlNamePoolC2ERKS_@Base 4:4.5.3
 _ZN12QXmlNamePoolC2Ev@Base 4:4.5.3
 _ZN12QXmlNamePoolD1Ev@Base 4:4.5.3
 _ZN12QXmlNamePoolD2Ev@Base 4:4.5.3
 _ZN12QXmlNamePoolaSERKS_@Base 4:4.5.3
 _ZN13QXmlFormatter10charactersERK10QStringRef@Base 4:4.5.3
 _ZN13QXmlFormatter10endElementEv@Base 4:4.5.3
 _ZN13QXmlFormatter11atomicValueERK8QVariant@Base 4:4.5.3
 _ZN13QXmlFormatter11endDocumentEv@Base 4:4.5.3
 _ZN13QXmlFormatter12startElementERK8QXmlName@Base 4:4.5.3
 _ZN13QXmlFormatter13endOfSequenceEv@Base 4:4.5.3
 _ZN13QXmlFormatter13startDocumentEv@Base 4:4.5.3
 _ZN13QXmlFormatter15startOfSequenceEv@Base 4:4.5.3
 _ZN13QXmlFormatter19setIndentationDepthEi@Base 4:4.5.3
 _ZN13QXmlFormatter21processingInstructionERK8QXmlNameRK7QString@Base 4:4.5.3
 _ZN13QXmlFormatter4itemERKN11QPatternist4ItemE@Base 4:4.5.3
 _ZN13QXmlFormatter7commentERK7QString@Base 4:4.5.3
 _ZN13QXmlFormatter9attributeERK8QXmlNameRK10QStringRef@Base 4:4.5.3
 _ZN13QXmlFormatterC1ERK9QXmlQueryP9QIODevice@Base 4:4.5.3
 _ZN13QXmlFormatterC2ERK9QXmlQueryP9QIODevice@Base 4:4.5.3
 _ZN13QXmlFormatterD0Ev@Base 4:4.7.4
 _ZN13QXmlFormatterD1Ev@Base 4:4.7.4
 _ZN13QXmlFormatterD2Ev@Base 4:4.7.4
 _ZN14QXmlSerializer10charactersERK10QStringRef@Base 4:4.5.3
 _ZN14QXmlSerializer10endElementEv@Base 4:4.5.3
 _ZN14QXmlSerializer11atomicValueERK8QVariant@Base 4:4.5.3
 _ZN14QXmlSerializer11endDocumentEv@Base 4:4.5.3
 _ZN14QXmlSerializer12startElementERK8QXmlName@Base 4:4.5.3
 _ZN14QXmlSerializer12writeEscapedERK7QString@Base 4:4.5.3
 _ZN14QXmlSerializer13endOfSequenceEv@Base 4:4.5.3
 _ZN14QXmlSerializer13startDocumentEv@Base 4:4.5.3
 _ZN14QXmlSerializer15startOfSequenceEv@Base 4:4.5.3
 _ZN14QXmlSerializer16namespaceBindingERK8QXmlName@Base 4:4.5.3
 _ZN14QXmlSerializer21processingInstructionERK8QXmlNameRK7QString@Base 4:4.5.3
 _ZN14QXmlSerializer4itemERKN11QPatternist4ItemE@Base 4:4.5.3
 _ZN14QXmlSerializer7commentERK7QString@Base 4:4.5.3
 _ZN14QXmlSerializer8setCodecEPK10QTextCodec@Base 4:4.5.3
 _ZN14QXmlSerializer9attributeERK8QXmlNameRK10QStringRef@Base 4:4.5.3
 _ZN14QXmlSerializerC1EP27QAbstractXmlReceiverPrivate@Base 4:4.5.3
 _ZN14QXmlSerializerC1ERK9QXmlQueryP9QIODevice@Base 4:4.5.3
 _ZN14QXmlSerializerC2EP27QAbstractXmlReceiverPrivate@Base 4:4.5.3
 _ZN14QXmlSerializerC2ERK9QXmlQueryP9QIODevice@Base 4:4.5.3
 _ZN14QXmlSerializerD0Ev@Base 4:4.7.4
 _ZN14QXmlSerializerD1Ev@Base 4:4.7.4
 _ZN14QXmlSerializerD2Ev@Base 4:4.7.4
 (optional=external|arch=hppa sparc)_ZN15QBasicAtomicInt3refEv@Base 4:4.5.3
 (optional=external|arch=hppa sparc)_ZN15QBasicAtomicInt5derefEv@Base 4:4.5.3
 _ZN15QSourceLocation6setUriERK4QUrl@Base 4:4.5.3
 _ZN15QSourceLocation7setLineEx@Base 4:4.5.3
 _ZN15QSourceLocation9setColumnEx@Base 4:4.5.3
 _ZN15QSourceLocationC1ERK4QUrlii@Base 4:4.5.3
 _ZN15QSourceLocationC1ERKS_@Base 4:4.5.3
 _ZN15QSourceLocationC1Ev@Base 4:4.5.3
 _ZN15QSourceLocationC2ERK4QUrlii@Base 4:4.5.3
 _ZN15QSourceLocationC2ERKS_@Base 4:4.5.3
 _ZN15QSourceLocationC2Ev@Base 4:4.5.3
 _ZN15QSourceLocationD1Ev@Base 4:4.5.3
 _ZN15QSourceLocationD2Ev@Base 4:4.5.3
 _ZN15QSourceLocationaSERKS_@Base 4:4.5.3
 _ZN15QXmlResultItems4nextEv@Base 4:4.5.3
 _ZN15QXmlResultItemsC1Ev@Base 4:4.5.3
 _ZN15QXmlResultItemsC2Ev@Base 4:4.5.3
 _ZN15QXmlResultItemsD0Ev@Base 4:4.5.3
 _ZN15QXmlResultItemsD1Ev@Base 4:4.5.3
 _ZN15QXmlResultItemsD2Ev@Base 4:4.5.3
 _ZN19QSimpleXmlNodeModelC1ERK12QXmlNamePool@Base 4:4.5.3
 _ZN19QSimpleXmlNodeModelC2ERK12QXmlNamePool@Base 4:4.5.3
 _ZN19QSimpleXmlNodeModelD0Ev@Base 4:4.5.3
 _ZN19QSimpleXmlNodeModelD1Ev@Base 4:4.5.3
 _ZN19QSimpleXmlNodeModelD2Ev@Base 4:4.5.3
 _ZN19QXmlSchemaValidator14setUriResolverEPK20QAbstractUriResolver@Base 4:4.6.1
 _ZN19QXmlSchemaValidator17setMessageHandlerEP23QAbstractMessageHandler@Base 4:4.6.1
 _ZN19QXmlSchemaValidator23setNetworkAccessManagerEP21QNetworkAccessManager@Base 4:4.6.1
 _ZN19QXmlSchemaValidator9setSchemaERK10QXmlSchema@Base 4:4.6.1
 _ZN19QXmlSchemaValidatorC1ERK10QXmlSchema@Base 4:4.6.1
 _ZN19QXmlSchemaValidatorC1Ev@Base 4:4.6.1
 _ZN19QXmlSchemaValidatorC2ERK10QXmlSchema@Base 4:4.6.1
 _ZN19QXmlSchemaValidatorC2Ev@Base 4:4.6.1
 _ZN19QXmlSchemaValidatorD1Ev@Base 4:4.6.1
 _ZN19QXmlSchemaValidatorD2Ev@Base 4:4.6.1
 _ZN20QAbstractUriResolver11qt_metacallEN11QMetaObject4CallEiPPv@Base 4:4.5.3
 _ZN20QAbstractUriResolver11qt_metacastEPKc@Base 4:4.5.3
 _ZN20QAbstractUriResolver16staticMetaObjectE@Base 4:4.5.3
 _ZN20QAbstractUriResolverC1EP7QObject@Base 4:4.5.3
 _ZN20QAbstractUriResolverC2EP7QObject@Base 4:4.5.3
 _ZN20QAbstractUriResolverD0Ev@Base 4:4.5.3
 _ZN20QAbstractUriResolverD1Ev@Base 4:4.5.3
 _ZN20QAbstractUriResolverD2Ev@Base 4:4.5.3
 _ZN20QAbstractXmlReceiver10sendAsNodeERKN11QPatternist4ItemE@Base 4:4.5.3
 (optional=templinst)_ZN20QAbstractXmlReceiver12sendFromAxisILN18QXmlNodeModelIndex4AxisE8193EEEvRKS1_@Base 4:4.5.3
 (optional=templinst)_ZN20QAbstractXmlReceiver12sendFromAxisILN18QXmlNodeModelIndex4AxisE8196EEEvRKS1_@Base 4:4.5.3
 _ZN20QAbstractXmlReceiver14whitespaceOnlyERK10QStringRef@Base 4:4.5.3
 _ZN20QAbstractXmlReceiver4itemERKN11QPatternist4ItemE@Base 4:4.5.3
 _ZN20QAbstractXmlReceiverC1EP27QAbstractXmlReceiverPrivate@Base 4:4.5.3
 _ZN20QAbstractXmlReceiverC1Ev@Base 4:4.5.3
 _ZN20QAbstractXmlReceiverC2EP27QAbstractXmlReceiverPrivate@Base 4:4.5.3
 _ZN20QAbstractXmlReceiverC2Ev@Base 4:4.5.3
 _ZN20QAbstractXmlReceiverD0Ev@Base 4:4.5.3
 _ZN20QAbstractXmlReceiverD1Ev@Base 4:4.5.3
 _ZN20QAbstractXmlReceiverD2Ev@Base 4:4.5.3
 (optional=gcc47|arch=amd64 armel hurd-i386 i386 kfreebsd-amd64 kfreebsd-i386)_ZN20QXmlStreamAttributesC1ERKS_@Base 4:4.8.1
 (optional=gcc47|arch=amd64 armel hurd-i386 i386 kfreebsd-amd64 kfreebsd-i386)_ZN20QXmlStreamAttributesC2ERKS_@Base 4:4.8.1
 _ZN20QXmlStreamAttributesD1Ev@Base 4:4.7.4
 _ZN20QXmlStreamAttributesD2Ev@Base 4:4.7.4
 _ZN21QAbstractXmlNodeModelC1EP28QAbstractXmlNodeModelPrivate@Base 4:4.5.3
 _ZN21QAbstractXmlNodeModelC1Ev@Base 4:4.5.3
 _ZN21QAbstractXmlNodeModelC2EP28QAbstractXmlNodeModelPrivate@Base 4:4.5.3
 _ZN21QAbstractXmlNodeModelC2Ev@Base 4:4.5.3
 _ZN21QAbstractXmlNodeModelD0Ev@Base 4:4.5.3
 _ZN21QAbstractXmlNodeModelD1Ev@Base 4:4.5.3
 _ZN21QAbstractXmlNodeModelD2Ev@Base 4:4.5.3
 _ZN23QAbstractMessageHandler11qt_metacallEN11QMetaObject4CallEiPPv@Base 4:4.5.3
 _ZN23QAbstractMessageHandler11qt_metacastEPKc@Base 4:4.5.3
 _ZN23QAbstractMessageHandler16staticMetaObjectE@Base 4:4.5.3
 _ZN23QAbstractMessageHandler7messageE9QtMsgTypeRK7QStringRK4QUrlRK15QSourceLocation@Base 4:4.5.3
 _ZN23QAbstractMessageHandlerC1EP7QObject@Base 4:4.5.3
 _ZN23QAbstractMessageHandlerC2EP7QObject@Base 4:4.5.3
 _ZN23QAbstractMessageHandlerD0Ev@Base 4:4.5.3
 _ZN23QAbstractMessageHandlerD1Ev@Base 4:4.5.3
 _ZN23QAbstractMessageHandlerD2Ev@Base 4:4.5.3
 (optional=external|arch=amd64 hurd-i386 i386 kfreebsd-amd64 kfreebsd-i386)_ZN7QString5clearEv@Base 4:4.8.1
 _ZN8QXmlItemC1ERK18QXmlNodeModelIndex@Base 4:4.5.3
 _ZN8QXmlItemC1ERK8QVariant@Base 4:4.5.3
 _ZN8QXmlItemC1ERKS_@Base 4:4.5.3
 _ZN8QXmlItemC1Ev@Base 4:4.5.3
 _ZN8QXmlItemC2ERK18QXmlNodeModelIndex@Base 4:4.5.3
 _ZN8QXmlItemC2ERK8QVariant@Base 4:4.5.3
 _ZN8QXmlItemC2ERKS_@Base 4:4.5.3
 _ZN8QXmlItemC2Ev@Base 4:4.5.3
 _ZN8QXmlItemD1Ev@Base 4:4.5.3
 _ZN8QXmlItemD2Ev@Base 4:4.5.3
 _ZN8QXmlItemaSERKS_@Base 4:4.5.3
 _ZN8QXmlName13fromClarkNameERK7QStringRK12QXmlNamePool@Base 4:4.5.3
 _ZN8QXmlName8isNCNameERK7QString@Base 4:4.5.3
 _ZN8QXmlNameC1ER12QXmlNamePoolRK7QStringS4_S4_@Base 4:4.5.3
 _ZN8QXmlNameC1Ev@Base 4:4.5.3
 _ZN8QXmlNameC2ER12QXmlNamePoolRK7QStringS4_S4_@Base 4:4.5.3
 _ZN8QXmlNameC2Ev@Base 4:4.5.3
 _ZN8QXmlNameaSERKS_@Base 4:4.5.3
 (optional=gcc47|arch=amd64 hurd-i386 i386 kfreebsd-amd64 kfreebsd-i386)_ZN9QHashData8willGrowEv@Base 4:4.8.1
 (optional=gcc47|arch=amd64 hurd-i386 i386 kfreebsd-amd64 kfreebsd-i386)_ZN9QHashData9hasShrunkEv@Base 4:4.8.1
 _ZN9QXmlQuery12bindVariableERK7QStringP9QIODevice@Base 4:4.5.3
 _ZN9QXmlQuery12bindVariableERK7QStringRK8QXmlItem@Base 4:4.5.3
 _ZN9QXmlQuery12bindVariableERK7QStringRKS_@Base 4:4.5.3
 _ZN9QXmlQuery12bindVariableERK8QXmlNameP9QIODevice@Base 4:4.5.3
 _ZN9QXmlQuery12bindVariableERK8QXmlNameRK8QXmlItem@Base 4:4.5.3
 _ZN9QXmlQuery12bindVariableERK8QXmlNameRKS_@Base 4:4.5.3
 _ZN9QXmlQuery14setUriResolverEPK20QAbstractUriResolver@Base 4:4.5.3
 _ZN9QXmlQuery17setMessageHandlerEP23QAbstractMessageHandler@Base 4:4.5.3
 _ZN9QXmlQuery22setInitialTemplateNameERK7QString@Base 4:4.5.3
 _ZN9QXmlQuery22setInitialTemplateNameERK8QXmlName@Base 4:4.5.3
 _ZN9QXmlQuery23setNetworkAccessManagerEP21QNetworkAccessManager@Base 4:4.5.3
 _ZN9QXmlQuery8setFocusEP9QIODevice@Base 4:4.5.3
 _ZN9QXmlQuery8setFocusERK4QUrl@Base 4:4.5.3
 _ZN9QXmlQuery8setFocusERK7QString@Base 4:4.6.1
 _ZN9QXmlQuery8setFocusERK8QXmlItem@Base 4:4.5.3
 _ZN9QXmlQuery8setQueryEP9QIODeviceRK4QUrl@Base 4:4.5.3
 _ZN9QXmlQuery8setQueryERK4QUrlS2_@Base 4:4.5.3
 _ZN9QXmlQuery8setQueryERK7QStringRK4QUrl@Base 4:4.5.3
 _ZN9QXmlQueryC1ENS_13QueryLanguageERK12QXmlNamePool@Base 4:4.5.3
 _ZN9QXmlQueryC1ERK12QXmlNamePool@Base 4:4.5.3
 _ZN9QXmlQueryC1ERKS_@Base 4:4.5.3
 _ZN9QXmlQueryC1Ev@Base 4:4.5.3
 _ZN9QXmlQueryC2ENS_13QueryLanguageERK12QXmlNamePool@Base 4:4.5.3
 _ZN9QXmlQueryC2ERK12QXmlNamePool@Base 4:4.5.3
 _ZN9QXmlQueryC2ERKS_@Base 4:4.5.3
 _ZN9QXmlQueryC2Ev@Base 4:4.5.3
 _ZN9QXmlQueryD1Ev@Base 4:4.5.3
 _ZN9QXmlQueryD2Ev@Base 4:4.5.3
 _ZN9QXmlQueryaSERKS_@Base 4:4.5.3
 _ZNK10QXmlSchema11documentUriEv@Base 4:4.6.1
 _ZNK10QXmlSchema11uriResolverEv@Base 4:4.6.1
 _ZNK10QXmlSchema14messageHandlerEv@Base 4:4.6.1
 _ZNK10QXmlSchema20networkAccessManagerEv@Base 4:4.6.1
 _ZNK10QXmlSchema7isValidEv@Base 4:4.6.1
 _ZNK10QXmlSchema8namePoolEv@Base 4:4.6.1
 _ZNK13QXmlFormatter16indentationDepthEv@Base 4:4.5.3
 _ZNK14QXmlSerializer12outputDeviceEv@Base 4:4.5.3
 _ZNK14QXmlSerializer5codecEv@Base 4:4.5.3
 _ZNK15QSourceLocation3uriEv@Base 4:4.5.3
 _ZNK15QSourceLocation4lineEv@Base 4:4.5.3
 _ZNK15QSourceLocation6columnEv@Base 4:4.5.3
 _ZNK15QSourceLocation6isNullEv@Base 4:4.5.3
 _ZNK15QSourceLocationeqERKS_@Base 4:4.5.3
 _ZNK15QSourceLocationneERKS_@Base 4:4.5.3
 _ZNK15QXmlResultItems7currentEv@Base 4:4.5.3
 _ZNK15QXmlResultItems8hasErrorEv@Base 4:4.5.3
 _ZNK18QXmlNodeModelIndexeqERKS_@Base 4:4.5.3
 _ZNK18QXmlNodeModelIndexneERKS_@Base 4:4.5.3
 _ZNK19QSimpleXmlNodeModel11elementByIdERK8QXmlName@Base 4:4.5.3
 _ZNK19QSimpleXmlNodeModel11stringValueERK18QXmlNodeModelIndex@Base 4:4.5.3
 _ZNK19QSimpleXmlNodeModel12nodesByIdrefERK8QXmlName@Base 4:4.5.3
 _ZNK19QSimpleXmlNodeModel17namespaceBindingsERK18QXmlNodeModelIndex@Base 4:4.5.3
 _ZNK19QSimpleXmlNodeModel7baseUriERK18QXmlNodeModelIndex@Base 4:4.5.3
 _ZNK19QSimpleXmlNodeModel8namePoolEv@Base 4:4.5.3
 _ZNK19QXmlSchemaValidator11uriResolverEv@Base 4:4.6.1
 _ZNK19QXmlSchemaValidator14messageHandlerEv@Base 4:4.6.1
 _ZNK19QXmlSchemaValidator20networkAccessManagerEv@Base 4:4.6.1
 _ZNK19QXmlSchemaValidator6schemaEv@Base 4:4.6.1
 _ZNK19QXmlSchemaValidator8namePoolEv@Base 4:4.6.1
 _ZNK19QXmlSchemaValidator8validateEP9QIODeviceRK4QUrl@Base 4:4.6.1
 _ZNK19QXmlSchemaValidator8validateERK10QByteArrayRK4QUrl@Base 4:4.6.1
 _ZNK19QXmlSchemaValidator8validateERK4QUrl@Base 4:4.6.1
 _ZNK20QAbstractUriResolver10metaObjectEv@Base 4:4.5.3
 _ZNK21QAbstractXmlNodeModel10copyNodeToERK18QXmlNodeModelIndexP20QAbstractXmlReceiverRK6QFlagsINS_15NodeCopySettingEE@Base 4:4.5.3
 _ZNK21QAbstractXmlNodeModel11isDeepEqualERK18QXmlNodeModelIndexS2_@Base 4:4.5.3
 _ZNK21QAbstractXmlNodeModel14sendNamespacesERK18QXmlNodeModelIndexP20QAbstractXmlReceiver@Base 4:4.5.3
 _ZNK21QAbstractXmlNodeModel14sourceLocationERK18QXmlNodeModelIndex@Base 4:4.6.1
 _ZNK21QAbstractXmlNodeModel18namespaceForPrefixERK18QXmlNodeModelIndexs@Base 4:4.5.3
 _ZNK21QAbstractXmlNodeModel19sequencedTypedValueERK18QXmlNodeModelIndex@Base 4:4.5.3
 _ZNK21QAbstractXmlNodeModel4typeERK18QXmlNodeModelIndex@Base 4:4.5.3
 _ZNK21QAbstractXmlNodeModel7iterateERK18QXmlNodeModelIndexNS0_4AxisE@Base 4:4.5.3
 _ZNK23QAbstractMessageHandler10metaObjectEv@Base 4:4.5.3
 _ZNK8QXmlItem13isAtomicValueEv@Base 4:4.5.3
 _ZNK8QXmlItem13toAtomicValueEv@Base 4:4.5.3
 _ZNK8QXmlItem16toNodeModelIndexEv@Base 4:4.5.3
 _ZNK8QXmlItem6isNodeEv@Base 4:4.5.3
 _ZNK8QXmlItem6isNullEv@Base 4:4.5.3
 _ZNK8QXmlName11toClarkNameERK12QXmlNamePool@Base 4:4.5.3
 _ZNK8QXmlName12namespaceUriERK12QXmlNamePool@Base 4:4.5.3
 _ZNK8QXmlName6isNullEv@Base 4:4.5.3
 _ZNK8QXmlName6prefixERK12QXmlNamePool@Base 4:4.5.3
 _ZNK8QXmlName9localNameERK12QXmlNamePool@Base 4:4.5.3
 _ZNK8QXmlNameeqERKS_@Base 4:4.5.3
 _ZNK8QXmlNameneERKS_@Base 4:4.5.3
 _ZNK9QXmlQuery10evaluateToEP11QStringList@Base 4:4.5.3
 _ZNK9QXmlQuery10evaluateToEP15QXmlResultItems@Base 4:4.5.3
 _ZNK9QXmlQuery10evaluateToEP20QAbstractXmlReceiver@Base 4:4.5.3
 _ZNK9QXmlQuery10evaluateToEP7QString@Base 4:4.5.3
 _ZNK9QXmlQuery10evaluateToEP9QIODevice@Base 4:4.5.3
 _ZNK9QXmlQuery11uriResolverEv@Base 4:4.5.3
 _ZNK9QXmlQuery13queryLanguageEv@Base 4:4.5.3
 _ZNK9QXmlQuery14messageHandlerEv@Base 4:4.5.3
 _ZNK9QXmlQuery19initialTemplateNameEv@Base 4:4.5.3
 _ZNK9QXmlQuery20networkAccessManagerEv@Base 4:4.5.3
 _ZNK9QXmlQuery7isValidEv@Base 4:4.5.3
 _ZNK9QXmlQuery8namePoolEv@Base 4:4.5.3
 _ZTI11QSharedData@Base 4:4.5.3
 _ZTI13QXmlFormatter@Base 4:4.5.3
 _ZTI14QXmlSerializer@Base 4:4.5.3
 _ZTI15QXmlResultItems@Base 4:4.5.3
 _ZTI16QXmlStreamReader@Base 4:4.5.3
 _ZTI19QSimpleXmlNodeModel@Base 4:4.5.3
 _ZTI20QAbstractUriResolver@Base 4:4.5.3
 _ZTI20QAbstractXmlReceiver@Base 4:4.5.3
 _ZTI21QAbstractXmlNodeModel@Base 4:4.5.3
 _ZTI23QAbstractMessageHandler@Base 4:4.5.3
 _ZTS11QSharedData@Base 4:4.5.3
 _ZTS13QXmlFormatter@Base 4:4.5.3
 _ZTS14QXmlSerializer@Base 4:4.5.3
 _ZTS15QXmlResultItems@Base 4:4.5.3
 _ZTS16QXmlStreamReader@Base 4:4.5.3
 _ZTS19QSimpleXmlNodeModel@Base 4:4.5.3
 _ZTS20QAbstractUriResolver@Base 4:4.5.3
 _ZTS20QAbstractXmlReceiver@Base 4:4.5.3
 _ZTS21QAbstractXmlNodeModel@Base 4:4.5.3
 _ZTS23QAbstractMessageHandler@Base 4:4.5.3
 _ZTV13QXmlFormatter@Base 4:4.5.3
 _ZTV14QXmlSerializer@Base 4:4.5.3
 _ZTV15QXmlResultItems@Base 4:4.5.3
 _ZTV19QSimpleXmlNodeModel@Base 4:4.5.3
 _ZTV20QAbstractUriResolver@Base 4:4.5.3
 _ZTV20QAbstractXmlReceiver@Base 4:4.5.3
 _ZTV21QAbstractXmlNodeModel@Base 4:4.5.3
 _ZTV23QAbstractMessageHandler@Base 4:4.5.3
 _Zls6QDebugRK15QSourceLocation@Base 4:4.5.3
