# SymbolsHelper-Confirmed: 4:4.8.1 amd64 armel armhf hurd-i386 i386 ia64 kfreebsd-amd64 kfreebsd-i386 mips mipsel powerpc s390 s390x sparc
libQtScriptTools.so.4 libqt4-scripttools #MINVER#
* Build-Depends-Package: libqt4-dev
 (optional=external|arch=hppa sparc)_ZN15QBasicAtomicInt3refEv@Base 4:4.5.3
 (optional=external|arch=!amd64 !hurd-i386 !i386 !kfreebsd-amd64 !kfreebsd-i386)_ZN15QLinearGradientD1Ev@Base 4:4.8.1
 (optional=external|arch=!amd64 !hurd-i386 !i386 !kfreebsd-amd64 !kfreebsd-i386)_ZN15QLinearGradientD2Ev@Base 4:4.8.1
 (optional=external|arch=!amd64 !hurd-i386 !i386 !kfreebsd-amd64 !kfreebsd-i386 !mips !mipsel)_ZN20QXmlStreamAttributesD1Ev@Base 4:4.7.4
 (optional=external|arch=!amd64 !hurd-i386 !i386 !kfreebsd-amd64 !kfreebsd-i386 !mips !mipsel)_ZN20QXmlStreamAttributesD2Ev@Base 4:4.7.4
 _ZN21QScriptEngineDebugger11qt_metacallEN11QMetaObject4CallEiPPv@Base 4:4.5.3
 _ZN21QScriptEngineDebugger11qt_metacastEPKc@Base 4:4.5.3
 _ZN21QScriptEngineDebugger16staticMetaObjectE@Base 4:4.5.3
 _ZN21QScriptEngineDebugger17evaluationResumedEv@Base 4:4.5.3
 _ZN21QScriptEngineDebugger18createStandardMenuEP7QWidget@Base 4:4.5.3
 _ZN21QScriptEngineDebugger19evaluationSuspendedEv@Base 4:4.5.3
 _ZN21QScriptEngineDebugger21createStandardToolBarEP7QWidget@Base 4:4.5.3
 _ZN21QScriptEngineDebugger25setAutoShowStandardWindowEb@Base 4:4.5.3
 _ZN21QScriptEngineDebugger6detachEv@Base 4:4.5.3
 _ZN21QScriptEngineDebugger8attachToEP13QScriptEngine@Base 4:4.5.3
 _ZN21QScriptEngineDebuggerC1EP7QObject@Base 4:4.5.3
 _ZN21QScriptEngineDebuggerC2EP7QObject@Base 4:4.5.3
 _ZN21QScriptEngineDebuggerD0Ev@Base 4:4.5.3
 _ZN21QScriptEngineDebuggerD1Ev@Base 4:4.5.3
 _ZN21QScriptEngineDebuggerD2Ev@Base 4:4.5.3
 _ZN25QAbstractItemModelPrivate10PersistentD1Ev@Base 4:4.7.4
 _ZN25QAbstractItemModelPrivate10PersistentD2Ev@Base 4:4.7.4
 _ZN25QAbstractItemModelPrivateD0Ev@Base 4:4.7.4
 _ZN25QAbstractItemModelPrivateD1Ev@Base 4:4.7.4
 _ZN25QAbstractItemModelPrivateD2Ev@Base 4:4.7.4
 (optional=templinst|arch=!amd64 !hurd-i386 !i386 !kfreebsd-amd64 !kfreebsd-i386)_ZN8QVariant9fromValueI5QPairI5QListIxES3_EEES_RKT_@Base 4:4.8.0
 _ZN9QTextEdit14ExtraSelectionD1Ev@Base 4:4.7.4
 _ZN9QTextEdit14ExtraSelectionD2Ev@Base 4:4.7.4
 _ZNK21QScriptEngineDebugger10metaObjectEv@Base 4:4.5.3
 _ZNK21QScriptEngineDebugger14standardWindowEv@Base 4:4.5.3
 _ZNK21QScriptEngineDebugger22autoShowStandardWindowEv@Base 4:4.5.3
 _ZNK21QScriptEngineDebugger5stateEv@Base 4:4.6.1
 _ZNK21QScriptEngineDebugger6actionENS_14DebuggerActionE@Base 4:4.5.3
 _ZNK21QScriptEngineDebugger6widgetENS_14DebuggerWidgetE@Base 4:4.5.3
 _ZTI21QScriptEngineDebugger@Base 4:4.5.3
 _ZTI25QAbstractItemModelPrivate@Base 4:4.5.3
 _ZTS21QScriptEngineDebugger@Base 4:4.5.3
 _ZTS25QAbstractItemModelPrivate@Base 4:4.5.3
 _ZTV21QScriptEngineDebugger@Base 4:4.5.3
 _ZTV25QAbstractItemModelPrivate@Base 4:4.5.3
