# SymbolsHelper-Confirmed: 4:4.8.1 amd64 armel armhf hurd-i386 i386 ia64 kfreebsd-amd64 kfreebsd-i386 mips mipsel powerpc s390 s390x sparc
libQt3Support.so.4 libqt4-qt3support #MINVER#
* Build-Depends-Package: libqt4-dev
 _Z16qt_tryAccelEventP7QWidgetP9QKeyEvent@Base 4:4.5.3
 _Z20qImageFromMimeSourceRK7QString@Base 4:4.5.3
 _Z20qt_tryComposeUnicodeP7QWidgetP9QKeyEvent@Base 4:4.5.3
 _Z21qPixmapFromMimeSourceRK7QString@Base 4:4.5.3
 _Z21qt_dispatchAccelEventP7QWidgetP9QKeyEvent@Base 4:4.5.3
 _Z22q3InitNetworkProtocolsv@Base 4:4.5.3
 _Z27qt_set_accel_auto_shortcutsb@Base 4:4.5.3
 _Z28qt_set_table_clipper_enabledb@Base 4:4.5.3
 _Z2wsR12Q3TextStream@Base 4:4.5.3
 _Z3binR12Q3TextStream@Base 4:4.5.3
 _Z3decR12Q3TextStream@Base 4:4.5.3
 _Z3hexR12Q3TextStream@Base 4:4.5.3
 _Z3octR12Q3TextStream@Base 4:4.5.3
 _Z4endlR12Q3TextStream@Base 4:4.5.3
 _Z5flushR12Q3TextStream@Base 4:4.5.3
 _Z5resetR12Q3TextStream@Base 4:4.5.3
 _ZN10Q3ComboBox10changeItemERK7QPixmapRK7QStringi@Base 4:4.5.3
 _ZN10Q3ComboBox10changeItemERK7QPixmapi@Base 4:4.5.3
 _ZN10Q3ComboBox10changeItemERK7QStringi@Base 4:4.5.3
 _ZN10Q3ComboBox10insertItemERK7QPixmapRK7QStringi@Base 4:4.5.3
 _ZN10Q3ComboBox10insertItemERK7QPixmapi@Base 4:4.5.3
 _ZN10Q3ComboBox10insertItemERK7QStringi@Base 4:4.5.3
 _ZN10Q3ComboBox10paintEventEP11QPaintEvent@Base 4:4.5.3
 _ZN10Q3ComboBox10removeItemEi@Base 4:4.5.3
 _ZN10Q3ComboBox10setEnabledEb@Base 4:4.5.3
 _ZN10Q3ComboBox10setListBoxEP9Q3ListBox@Base 4:4.5.3
 _ZN10Q3ComboBox10setPaletteERK8QPalette@Base 4:4.5.3
 _ZN10Q3ComboBox10updateMaskEv@Base 4:4.5.3
 _ZN10Q3ComboBox10wheelEventEP11QWheelEvent@Base 4:4.5.3
 _ZN10Q3ComboBox11eventFilterEP7QObjectP6QEvent@Base 4:4.5.3
 _ZN10Q3ComboBox11highlightedERK7QString@Base 4:4.5.3
 _ZN10Q3ComboBox11highlightedEi@Base 4:4.5.3
 _ZN10Q3ComboBox11qt_metacallEN11QMetaObject4CallEiPPv@Base 4:4.5.3
 _ZN10Q3ComboBox11qt_metacastEPKc@Base 4:4.5.3
 _ZN10Q3ComboBox11resizeEventEP12QResizeEvent@Base 4:4.5.3
 _ZN10Q3ComboBox11setEditTextERK7QString@Base 4:4.5.3
 _ZN10Q3ComboBox11setEditableEb@Base 4:4.5.3
 _ZN10Q3ComboBox11setLineEditEP9QLineEdit@Base 4:4.5.3
 _ZN10Q3ComboBox11setMaxCountEi@Base 4:4.5.3
 _ZN10Q3ComboBox11styleChangeER6QStyle@Base 4:4.5.3
 _ZN10Q3ComboBox11textChangedERK7QString@Base 4:4.5.3
 _ZN10Q3ComboBox12focusInEventEP11QFocusEvent@Base 4:4.5.3
 _ZN10Q3ComboBox12setSizeLimitEi@Base 4:4.5.3
 _ZN10Q3ComboBox12setUpListBoxEv@Base 4:4.5.3
 _ZN10Q3ComboBox12setValidatorEPK10QValidator@Base 4:4.5.3
 _ZN10Q3ComboBox13focusOutEventEP11QFocusEvent@Base 4:4.5.3
 _ZN10Q3ComboBox13insertStrListEPK9Q3StrListi@Base 4:4.5.3
 _ZN10Q3ComboBox13insertStrListEPPKcii@Base 4:4.5.3
 _ZN10Q3ComboBox13insertStrListERK9Q3StrListi@Base 4:4.5.3
 _ZN10Q3ComboBox13keyPressEventEP9QKeyEvent@Base 4:4.5.3
 _ZN10Q3ComboBox13returnPressedEv@Base 4:4.5.3
 _ZN10Q3ComboBox13setAutoResizeEb@Base 4:4.5.3
 _ZN10Q3ComboBox13setUpLineEditEv@Base 4:4.5.3
 _ZN10Q3ComboBox14clearValidatorEv@Base 4:4.5.3
 _ZN10Q3ComboBox14currentChangedEv@Base 4:4.5.3
 _ZN10Q3ComboBox14mouseMoveEventEP11QMouseEvent@Base 4:4.5.3
 _ZN10Q3ComboBox14popDownListBoxEv@Base 4:4.5.3
 _ZN10Q3ComboBox14setCurrentItemEi@Base 4:4.5.3
 _ZN10Q3ComboBox14setCurrentTextERK7QString@Base 4:4.5.3
 _ZN10Q3ComboBox15mousePressEventEP11QMouseEvent@Base 4:4.5.3
 _ZN10Q3ComboBox16insertStringListERK11QStringListi@Base 4:4.5.3
 _ZN10Q3ComboBox16internalActivateEi@Base 4:4.5.3
 _ZN10Q3ComboBox16staticMetaObjectE@Base 4:4.5.3
 _ZN10Q3ComboBox17internalHighlightEi@Base 4:4.5.3
 _ZN10Q3ComboBox17mouseReleaseEventEP11QMouseEvent@Base 4:4.5.3
 _ZN10Q3ComboBox17setAutoCompletionEb@Base 4:4.5.3
 _ZN10Q3ComboBox18setInsertionPolicyENS_6PolicyE@Base 4:4.5.3
 _ZN10Q3ComboBox20internalClickTimeoutEv@Base 4:4.5.3
 _ZN10Q3ComboBox20setDuplicatesEnabledEb@Base 4:4.5.3
 _ZN10Q3ComboBox21mouseDoubleClickEventEP11QMouseEvent@Base 4:4.5.3
 _ZN10Q3ComboBox4hideEv@Base 4:4.5.3
 _ZN10Q3ComboBox5clearEv@Base 4:4.5.3
 _ZN10Q3ComboBox5popupEv@Base 4:4.5.3
 _ZN10Q3ComboBox7reIndexEv@Base 4:4.5.3
 _ZN10Q3ComboBox7setFontERK5QFont@Base 4:4.5.3
 _ZN10Q3ComboBox9activatedERK7QString@Base 4:4.5.3
 _ZN10Q3ComboBox9activatedEi@Base 4:4.5.3
 _ZN10Q3ComboBox9clearEditEv@Base 4:4.5.3
 _ZN10Q3ComboBoxC1EP7QWidgetPKc@Base 4:4.5.3
 _ZN10Q3ComboBoxC1EbP7QWidgetPKc@Base 4:4.5.3
 _ZN10Q3ComboBoxC2EP7QWidgetPKc@Base 4:4.5.3
 _ZN10Q3ComboBoxC2EbP7QWidgetPKc@Base 4:4.5.3
 _ZN10Q3ComboBoxD0Ev@Base 4:4.5.3
 _ZN10Q3ComboBoxD1Ev@Base 4:4.5.3
 _ZN10Q3ComboBoxD2Ev@Base 4:4.5.3
 _ZN10Q3DataView10readFieldsEv@Base 4:4.5.3
 _ZN10Q3DataView11clearValuesEv@Base 4:4.5.3
 _ZN10Q3DataView11qt_metacallEN11QMetaObject4CallEiPPv@Base 4:4.5.3
 _ZN10Q3DataView11qt_metacastEPKc@Base 4:4.5.3
 _ZN10Q3DataView11writeFieldsEv@Base 4:4.5.3
 _ZN10Q3DataView16staticMetaObjectE@Base 4:4.5.3
 _ZN10Q3DataView4formEv@Base 4:4.5.3
 _ZN10Q3DataView6recordEv@Base 4:4.5.3
 _ZN10Q3DataView7refreshEP10QSqlRecord@Base 4:4.5.3
 _ZN10Q3DataView7setFormEP9Q3SqlForm@Base 4:4.5.3
 _ZN10Q3DataView9setRecordEP10QSqlRecord@Base 4:4.5.3
 _ZN10Q3DataViewC1EP7QWidgetPKc6QFlagsIN2Qt10WindowTypeEE@Base 4:4.5.3
 _ZN10Q3DataViewC2EP7QWidgetPKc6QFlagsIN2Qt10WindowTypeEE@Base 4:4.5.3
 _ZN10Q3DataViewD0Ev@Base 4:4.5.3
 _ZN10Q3DataViewD1Ev@Base 4:4.5.3
 _ZN10Q3DataViewD2Ev@Base 4:4.5.3
 _ZN10Q3DateEdit10timerEventEP11QTimerEvent@Base 4:4.5.3
 _ZN10Q3DateEdit11qt_metacallEN11QMetaObject4CallEiPPv@Base 4:4.5.3
 _ZN10Q3DateEdit11qt_metacastEPKc@Base 4:4.5.3
 _ZN10Q3DateEdit11resizeEventEP12QResizeEvent@Base 4:4.5.3
 _ZN10Q3DateEdit12setSeparatorERK7QString@Base 4:4.5.3
 _ZN10Q3DateEdit12valueChangedERK5QDate@Base 4:4.5.3
 _ZN10Q3DateEdit13updateButtonsEv@Base 4:4.5.3
 _ZN10Q3DateEdit14setAutoAdvanceEb@Base 4:4.5.3
 _ZN10Q3DateEdit15setFocusSectionEi@Base 4:4.5.3
 _ZN10Q3DateEdit16removeLastNumberEi@Base 4:4.5.3
 _ZN10Q3DateEdit16staticMetaObjectE@Base 4:4.5.3
 _ZN10Q3DateEdit17removeFirstNumberEi@Base 4:4.5.3
 _ZN10Q3DateEdit20sectionFormattedTextEi@Base 4:4.5.3
 _ZN10Q3DateEdit3fixEv@Base 4:4.5.3
 _ZN10Q3DateEdit4initEv@Base 4:4.5.3
 _ZN10Q3DateEdit5eventEP6QEvent@Base 4:4.5.3
 _ZN10Q3DateEdit6setDayEi@Base 4:4.5.3
 _ZN10Q3DateEdit6stepUpEv@Base 4:4.5.3
 _ZN10Q3DateEdit7setDateERK5QDate@Base 4:4.5.3
 _ZN10Q3DateEdit7setYearEi@Base 4:4.5.3
 _ZN10Q3DateEdit8setMonthEi@Base 4:4.5.3
 _ZN10Q3DateEdit8setOrderENS_5OrderE@Base 4:4.5.3
 _ZN10Q3DateEdit8setRangeERK5QDateS2_@Base 4:4.5.3
 _ZN10Q3DateEdit8stepDownEv@Base 4:4.5.3
 _ZN10Q3DateEdit9addNumberEii@Base 4:4.5.3
 _ZN10Q3DateEditC1EP7QWidgetPKc@Base 4:4.5.3
 _ZN10Q3DateEditC1ERK5QDateP7QWidgetPKc@Base 4:4.5.3
 _ZN10Q3DateEditC2EP7QWidgetPKc@Base 4:4.5.3
 _ZN10Q3DateEditC2ERK5QDateP7QWidgetPKc@Base 4:4.5.3
 _ZN10Q3DateEditD0Ev@Base 4:4.5.3
 _ZN10Q3DateEditD1Ev@Base 4:4.5.3
 _ZN10Q3DateEditD2Ev@Base 4:4.5.3
 _ZN10Q3DockArea10dockWindowEP12Q3DockWindowPNS_14DockWindowDataE@Base 4:4.5.3
 _ZN10Q3DockArea11eventFilterEP7QObjectP6QEvent@Base 4:4.5.3
 _ZN10Q3DockArea11qt_metacallEN11QMetaObject4CallEiPPv@Base 4:4.5.3
 _ZN10Q3DockArea11qt_metacastEPKc@Base 4:4.5.3
 _ZN10Q3DockArea12updateLayoutEv@Base 4:4.5.3
 _ZN10Q3DockArea13hasDockWindowEP12Q3DockWindowPi@Base 4:4.5.3
 _ZN10Q3DockArea14dockWindowDataEP12Q3DockWindow@Base 4:4.5.3
 _ZN10Q3DockArea14findDockWindowEP12Q3DockWindow@Base 4:4.5.3
 _ZN10Q3DockArea14moveDockWindowEP12Q3DockWindowRK6QPointRK5QRectb@Base 4:4.5.3
 _ZN10Q3DockArea14moveDockWindowEP12Q3DockWindowi@Base 4:4.5.3
 _ZN10Q3DockArea14setFixedExtentEiP12Q3DockWindow@Base 4:4.5.3
 _ZN10Q3DockArea16isLastDockWindowEP12Q3DockWindow@Base 4:4.5.3
 _ZN10Q3DockArea16removeDockWindowEP12Q3DockWindowbbb@Base 4:4.5.3
 _ZN10Q3DockArea16staticMetaObjectE@Base 4:4.5.3
 _ZN10Q3DockArea17invalidNextOffsetEP12Q3DockWindow@Base 4:4.5.3
 _ZN10Q3DockArea19setAcceptDockWindowEP12Q3DockWindowb@Base 4:4.5.3
 _ZN10Q3DockArea20invalidateFixedSizesEv@Base 4:4.5.3
 _ZN10Q3DockArea20isDockWindowAcceptedEP12Q3DockWindow@Base 4:4.5.3
 _ZN10Q3DockArea6lineOfEi@Base 4:4.5.3
 _ZN10Q3DockArea6lineUpEb@Base 4:4.5.3
 _ZN10Q3DockArea8maxSpaceEiP12Q3DockWindow@Base 4:4.5.3
 _ZN10Q3DockAreaC1EN2Qt11OrientationENS_14HandlePositionEP7QWidgetPKc@Base 4:4.5.3
 _ZN10Q3DockAreaC2EN2Qt11OrientationENS_14HandlePositionEP7QWidgetPKc@Base 4:4.5.3
 _ZN10Q3DockAreaD0Ev@Base 4:4.5.3
 _ZN10Q3DockAreaD1Ev@Base 4:4.5.3
 _ZN10Q3DockAreaD2Ev@Base 4:4.5.3
 _ZN10Q3DropSiteC1EP7QWidget@Base 4:4.5.3
 _ZN10Q3DropSiteC2EP7QWidget@Base 4:4.5.3
 _ZN10Q3DropSiteD0Ev@Base 4:4.5.3
 _ZN10Q3DropSiteD1Ev@Base 4:4.5.3
 _ZN10Q3DropSiteD2Ev@Base 4:4.5.3
 _ZN10Q3GridView10setNumColsEi@Base 4:4.5.3
 _ZN10Q3GridView10setNumRowsEi@Base 4:4.5.3
 _ZN10Q3GridView10updateCellEii@Base 4:4.5.3
 _ZN10Q3GridView10updateGridEv@Base 4:4.5.3
 _ZN10Q3GridView11qt_metacallEN11QMetaObject4CallEiPPv@Base 4:4.5.3
 _ZN10Q3GridView11qt_metacastEPKc@Base 4:4.5.3
 _ZN10Q3GridView11repaintCellEiib@Base 4:4.5.3
 _ZN10Q3GridView12cellGeometryEii@Base 4:4.5.3
 _ZN10Q3GridView12drawContentsEP8QPainter@Base 4:4.5.3
 _ZN10Q3GridView12drawContentsEP8QPainteriiii@Base 4:4.5.3
 _ZN10Q3GridView12setCellWidthEi@Base 4:4.5.3
 _ZN10Q3GridView13setCellHeightEi@Base 4:4.5.3
 _ZN10Q3GridView14paintEmptyAreaEP8QPainteriiii@Base 4:4.5.3
 _ZN10Q3GridView15dimensionChangeEii@Base 4:4.5.3
 _ZN10Q3GridView16staticMetaObjectE@Base 4:4.5.3
 _ZN10Q3GridView17ensureCellVisibleEii@Base 4:4.5.3
 _ZN10Q3GridViewC1EP7QWidgetPKc6QFlagsIN2Qt10WindowTypeEE@Base 4:4.5.3
 _ZN10Q3GridViewC2EP7QWidgetPKc6QFlagsIN2Qt10WindowTypeEE@Base 4:4.5.3
 _ZN10Q3GridViewD0Ev@Base 4:4.5.3
 _ZN10Q3GridViewD1Ev@Base 4:4.5.3
 _ZN10Q3GridViewD2Ev@Base 4:4.5.3
 _ZN10Q3GroupBox10childEventEP11QChildEvent@Base 4:4.5.3
 _ZN10Q3GroupBox10setColumnsEi@Base 4:4.5.3
 _ZN10Q3GroupBox11changeEventEP6QEvent@Base 4:4.5.3
 _ZN10Q3GroupBox11qt_metacallEN11QMetaObject4CallEiPPv@Base 4:4.5.3
 _ZN10Q3GroupBox11qt_metacastEPKc@Base 4:4.5.3
 _ZN10Q3GroupBox11resizeEventEP12QResizeEvent@Base 4:4.5.3
 _ZN10Q3GroupBox12setFrameRectE5QRect@Base 4:4.5.3
 _ZN10Q3GroupBox12setLineWidthEi@Base 4:4.5.3
 _ZN10Q3GroupBox13setFrameShapeENS_10DummyFrameE@Base 4:4.5.3
 _ZN10Q3GroupBox13setFrameStyleEi@Base 4:4.5.3
 _ZN10Q3GroupBox14setFrameShadowENS_10DummyFrameE@Base 4:4.5.3
 _ZN10Q3GroupBox14setOrientationEN2Qt11OrientationE@Base 4:4.5.3
 _ZN10Q3GroupBox15setColumnLayoutEiN2Qt11OrientationE@Base 4:4.5.3
 _ZN10Q3GroupBox15setInsideMarginEi@Base 4:4.5.3
 _ZN10Q3GroupBox15setMidLineWidthEi@Base 4:4.5.3
 _ZN10Q3GroupBox16setInsideSpacingEi@Base 4:4.5.3
 _ZN10Q3GroupBox16staticMetaObjectE@Base 4:4.5.3
 _ZN10Q3GroupBox4initEv@Base 4:4.5.3
 _ZN10Q3GroupBox4skipEv@Base 4:4.5.3
 _ZN10Q3GroupBox5eventEP6QEvent@Base 4:4.5.3
 _ZN10Q3GroupBox8addSpaceEi@Base 4:4.5.3
 _ZN10Q3GroupBox9drawFrameEP8QPainter@Base 4:4.5.3
 _ZN10Q3GroupBox9insertWidEP7QWidget@Base 4:4.5.3
 _ZN10Q3GroupBoxC1EP7QWidgetPKc@Base 4:4.5.3
 _ZN10Q3GroupBoxC1ERK7QStringP7QWidgetPKc@Base 4:4.5.3
 _ZN10Q3GroupBoxC1EiN2Qt11OrientationEP7QWidgetPKc@Base 4:4.5.3
 _ZN10Q3GroupBoxC1EiN2Qt11OrientationERK7QStringP7QWidgetPKc@Base 4:4.5.3
 _ZN10Q3GroupBoxC2EP7QWidgetPKc@Base 4:4.5.3
 _ZN10Q3GroupBoxC2ERK7QStringP7QWidgetPKc@Base 4:4.5.3
 _ZN10Q3GroupBoxC2EiN2Qt11OrientationEP7QWidgetPKc@Base 4:4.5.3
 _ZN10Q3GroupBoxC2EiN2Qt11OrientationERK7QStringP7QWidgetPKc@Base 4:4.5.3
 _ZN10Q3GroupBoxD0Ev@Base 4:4.5.3
 _ZN10Q3GroupBoxD1Ev@Base 4:4.5.3
 _ZN10Q3GroupBoxD2Ev@Base 4:4.5.3
 _ZN10Q3IconDrag11qt_metacallEN11QMetaObject4CallEiPPv@Base 4:4.5.3
 _ZN10Q3IconDrag11qt_metacastEPKc@Base 4:4.5.3
 _ZN10Q3IconDrag16staticMetaObjectE@Base 4:4.5.3
 _ZN10Q3IconDrag6appendERK14Q3IconDragItemRK5QRectS5_@Base 4:4.5.3
 _ZN10Q3IconDrag9canDecodeEP11QMimeSource@Base 4:4.5.3
 _ZN10Q3IconDragC1EP7QWidgetPKc@Base 4:4.5.3
 _ZN10Q3IconDragC2EP7QWidgetPKc@Base 4:4.5.3
 _ZN10Q3IconDragD0Ev@Base 4:4.5.3
 _ZN10Q3IconDragD1Ev@Base 4:4.5.3
 _ZN10Q3IconDragD2Ev@Base 4:4.5.3
 _ZN10Q3IconView10dragObjectEv@Base 4:4.5.3
 _ZN10Q3IconView10drawRubberEP8QPainter@Base 4:4.5.3
 _ZN10Q3IconView10enterEventEP6QEvent@Base 4:4.5.3
 _ZN10Q3IconView10insertItemEP14Q3IconViewItemS1_@Base 4:4.5.3
 _ZN10Q3IconView10onViewportEv@Base 4:4.5.3
 _ZN10Q3IconView10setSortingEbb@Base 4:4.5.3
 _ZN10Q3IconView10setSpacingEi@Base 4:4.5.3
 _ZN10Q3IconView10slotUpdateEv@Base 4:4.5.3
 _ZN10Q3IconView11adjustItemsEv@Base 4:4.5.3
 _ZN10Q3IconView11changeEventEP6QEvent@Base 4:4.5.3
 _ZN10Q3IconView11emitRenamedEP14Q3IconViewItem@Base 4:4.5.3
 _ZN10Q3IconView11eventFilterEP7QObjectP6QEvent@Base 4:4.5.3
 _ZN10Q3IconView11itemRenamedEP14Q3IconViewItem@Base 4:4.5.3
 _ZN10Q3IconView11itemRenamedEP14Q3IconViewItemRK7QString@Base 4:4.5.3
 _ZN10Q3IconView11qt_metacallEN11QMetaObject4CallEiPPv@Base 4:4.5.3
 _ZN10Q3IconView11qt_metacastEPKc@Base 4:4.5.3
 _ZN10Q3IconView11repaintItemEP14Q3IconViewItem@Base 4:4.5.3
 _ZN10Q3IconView11resizeEventEP12QResizeEvent@Base 4:4.5.3
 _ZN10Q3IconView11setSelectedEP14Q3IconViewItembb@Base 4:4.5.3
 _ZN10Q3IconView12doAutoScrollEv@Base 4:4.5.3
 _ZN10Q3IconView12drawContentsEP8QPainteriiii@Base 4:4.5.3
 _ZN10Q3IconView12focusInEventEP11QFocusEvent@Base 4:4.5.3
 _ZN10Q3IconView12insertInGridEP14Q3IconViewItem@Base 4:4.5.3
 _ZN10Q3IconView13doubleClickedEP14Q3IconViewItem@Base 4:4.5.3
 _ZN10Q3IconView13focusOutEventEP11QFocusEvent@Base 4:4.5.3
 _ZN10Q3IconView13initDragEnterEP10QDropEvent@Base 4:4.5.3
 _ZN10Q3IconView13keyPressEventEP9QKeyEvent@Base 4:4.5.3
 _ZN10Q3IconView13makeRowLayoutEP14Q3IconViewItemRiRb@Base 4:4.5.3
 _ZN10Q3IconView13movedContentsEii@Base 4:4.5.3
 _ZN10Q3IconView13returnPressedEP14Q3IconViewItem@Base 4:4.5.3
 _ZN10Q3IconView13setResizeModeENS_10ResizeModeE@Base 4:4.5.3
 _ZN10Q3IconView14clearSelectionEv@Base 4:4.5.3
 _ZN10Q3IconView14currentChangedEP14Q3IconViewItem@Base 4:4.5.3
 _ZN10Q3IconView14drawBackgroundEP8QPainterRK5QRect@Base 4:4.5.3
 _ZN10Q3IconView14drawDragShapesERK6QPoint@Base 4:4.5.3
 _ZN10Q3IconView14findItemByNameEP14Q3IconViewItem@Base 4:4.5.3
 _ZN10Q3IconView14setArrangementENS_11ArrangementE@Base 4:4.5.3
 _ZN10Q3IconView14setAutoArrangeEb@Base 4:4.5.3
 _ZN10Q3IconView14setContentsPosEii@Base 4:4.5.3
 _ZN10Q3IconView14setCurrentItemEP14Q3IconViewItem@Base 4:4.5.3
 _ZN10Q3IconView14setItemTextPosENS_11ItemTextPosE@Base 4:4.5.3
 _ZN10Q3IconView14updateContentsEv@Base 4:4.5.3
 _ZN10Q3IconView15invertSelectionEv@Base 4:4.5.3
 _ZN10Q3IconView15setItemsMovableEb@Base 4:4.5.3
 _ZN10Q3IconView15setMaxItemWidthEi@Base 4:4.5.3
 _ZN10Q3IconView15setShowToolTipsEb@Base 4:4.5.3
 _ZN10Q3IconView16handleItemChangeEP14Q3IconViewItembbb@Base 4:4.5.3
 _ZN10Q3IconView16selectionChangedEP14Q3IconViewItem@Base 4:4.5.3
 _ZN10Q3IconView16selectionChangedEv@Base 4:4.5.3
 _ZN10Q3IconView16setSelectionModeENS_13SelectionModeE@Base 4:4.5.3
 _ZN10Q3IconView16staticMetaObjectE@Base 4:4.5.3
 _ZN10Q3IconView17contentsDropEventEP10QDropEvent@Base 4:4.5.3
 _ZN10Q3IconView17ensureItemVisibleEP14Q3IconViewItem@Base 4:4.5.3
 _ZN10Q3IconView17rebuildContainersEv@Base 4:4.5.3
 _ZN10Q3IconView18arrangeItemsInGridERK5QSizeb@Base 4:4.5.3
 _ZN10Q3IconView18arrangeItemsInGridEb@Base 4:4.5.3
 _ZN10Q3IconView18mouseButtonClickedEiP14Q3IconViewItemRK6QPoint@Base 4:4.5.3
 _ZN10Q3IconView18mouseButtonPressedEiP14Q3IconViewItemRK6QPoint@Base 4:4.5.3
 _ZN10Q3IconView18rightButtonClickedEP14Q3IconViewItemRK6QPoint@Base 4:4.5.3
 _ZN10Q3IconView18rightButtonPressedEP14Q3IconViewItemRK6QPoint@Base 4:4.5.3
 _ZN10Q3IconView19appendItemContainerEv@Base 4:4.5.3
 _ZN10Q3IconView19setWordWrapIconTextEb@Base 4:4.5.3
 _ZN10Q3IconView19updateItemContainerEP14Q3IconViewItem@Base 4:4.5.3
 _ZN10Q3IconView20contextMenuRequestedEP14Q3IconViewItemRK6QPoint@Base 4:4.5.3
 _ZN10Q3IconView20emitSelectionChangedEP14Q3IconViewItem@Base 4:4.5.3
 _ZN10Q3IconView20repaintSelectedItemsEv@Base 4:4.5.3
 _ZN10Q3IconView20setMaxItemTextLengthEi@Base 4:4.5.3
 _ZN10Q3IconView21contentsDragMoveEventEP14QDragMoveEvent@Base 4:4.5.3
 _ZN10Q3IconView21setItemTextBackgroundERK6QBrush@Base 4:4.5.3
 _ZN10Q3IconView22contentsDragEnterEventEP15QDragEnterEvent@Base 4:4.5.3
 _ZN10Q3IconView22contentsDragLeaveEventEP15QDragLeaveEvent@Base 4:4.5.3
 _ZN10Q3IconView22contentsMouseMoveEventEP11QMouseEvent@Base 4:4.5.3
 _ZN10Q3IconView23contentsMousePressEventEP11QMouseEvent@Base 4:4.5.3
 _ZN10Q3IconView24contentsContextMenuEventEP17QContextMenuEvent@Base 4:4.5.3
 _ZN10Q3IconView25contentsMousePressEventExEP11QMouseEvent@Base 4:4.5.3
 _ZN10Q3IconView25contentsMouseReleaseEventEP11QMouseEvent@Base 4:4.5.3
 _ZN10Q3IconView29contentsMouseDoubleClickEventEP11QMouseEvent@Base 4:4.5.3
 _ZN10Q3IconView4sortEb@Base 4:4.5.3
 _ZN10Q3IconView5clearEv@Base 4:4.5.3
 _ZN10Q3IconView5movedEv@Base 4:4.5.3
 _ZN10Q3IconView6onItemEP14Q3IconViewItem@Base 4:4.5.3
 _ZN10Q3IconView7clickedEP14Q3IconViewItem@Base 4:4.5.3
 _ZN10Q3IconView7clickedEP14Q3IconViewItemRK6QPoint@Base 4:4.5.3
 _ZN10Q3IconView7droppedEP10QDropEventRK11Q3ValueListI14Q3IconDragItemE@Base 4:4.5.3
 _ZN10Q3IconView7pressedEP14Q3IconViewItem@Base 4:4.5.3
 _ZN10Q3IconView7pressedEP14Q3IconViewItemRK6QPoint@Base 4:4.5.3
 _ZN10Q3IconView8setGridXEi@Base 4:4.5.3
 _ZN10Q3IconView8setGridYEi@Base 4:4.5.3
 _ZN10Q3IconView8takeItemEP14Q3IconViewItem@Base 4:4.5.3
 _ZN10Q3IconView9selectAllEb@Base 4:4.5.3
 _ZN10Q3IconView9showEventEP10QShowEvent@Base 4:4.5.3
 _ZN10Q3IconView9startDragEv@Base 4:4.5.3
 _ZN10Q3IconViewC1EP7QWidgetPKc6QFlagsIN2Qt10WindowTypeEE@Base 4:4.5.3
 _ZN10Q3IconViewC2EP7QWidgetPKc6QFlagsIN2Qt10WindowTypeEE@Base 4:4.5.3
 _ZN10Q3IconViewD0Ev@Base 4:4.5.3
 _ZN10Q3IconViewD1Ev@Base 4:4.5.3
 _ZN10Q3IconViewD2Ev@Base 4:4.5.3
 _ZN10Q3ListView10clearRangeEP14Q3ListViewItemS1_b@Base 4:4.5.3
 _ZN10Q3ListView10dragObjectEv@Base 4:4.5.3
 _ZN10Q3ListView10hideColumnEi@Base 4:4.5.3
 _ZN10Q3ListView10insertItemEP14Q3ListViewItem@Base 4:4.5.3
 _ZN10Q3ListView10onViewportEv@Base 4:4.5.3
 _ZN10Q3ListView10setSortingEib@Base 4:4.5.3
 _ZN10Q3ListView11changeEventEP6QEvent@Base 4:4.5.3
 _ZN10Q3ListView11eventFilterEP7QObjectP6QEvent@Base 4:4.5.3
 _ZN10Q3ListView11itemRenamedEP14Q3ListViewItemi@Base 4:4.5.3
 _ZN10Q3ListView11itemRenamedEP14Q3ListViewItemiRK7QString@Base 4:4.5.3
 _ZN10Q3ListView11makeVisibleEv@Base 4:4.5.3
 _ZN10Q3ListView11qt_metacallEN11QMetaObject4CallEiPPv@Base 4:4.5.3
 _ZN10Q3ListView11qt_metacastEPKc@Base 4:4.5.3
 _ZN10Q3ListView11resizeEventEP12QResizeEvent@Base 4:4.5.3
 _ZN10Q3ListView11selectRangeEP14Q3ListViewItemS1_S1_@Base 4:4.5.3
 _ZN10Q3ListView11selectRangeEP14Q3ListViewItemS1_bbb@Base 4:4.5.3
 _ZN10Q3ListView11setSelectedEP14Q3ListViewItemb@Base 4:4.5.3
 _ZN10Q3ListView11startRenameEv@Base 4:4.5.3
 _ZN10Q3ListView12adjustColumnEi@Base 4:4.5.3
 _ZN10Q3ListView12doAutoScrollERK6QPoint@Base 4:4.5.3
 _ZN10Q3ListView12doAutoScrollEv@Base 4:4.5.3
 _ZN10Q3ListView12focusInEventEP11QFocusEvent@Base 4:4.5.3
 _ZN10Q3ListView12removeColumnEi@Base 4:4.5.3
 _ZN10Q3ListView12setSortOrderEN2Qt9SortOrderE@Base 4:4.5.3
 _ZN10Q3ListView12spacePressedEP14Q3ListViewItem@Base 4:4.5.3
 _ZN10Q3ListView12widthChangedEPK14Q3ListViewItemi@Base 4:4.5.3
 _ZN10Q3ListView13doubleClickedEP14Q3ListViewItem@Base 4:4.5.3
 _ZN10Q3ListView13doubleClickedEP14Q3ListViewItemRK6QPointi@Base 4:4.5.3
 _ZN10Q3ListView13focusOutEventEP11QFocusEvent@Base 4:4.5.3
 _ZN10Q3ListView13keyPressEventEP9QKeyEvent@Base 4:4.5.3
 _ZN10Q3ListView13openFocusItemEv@Base 4:4.5.3
 _ZN10Q3ListView13returnPressedEP14Q3ListViewItem@Base 4:4.5.3
 _ZN10Q3ListView13setColumnTextEiRK5QIconRK7QString@Base 4:4.5.3
 _ZN10Q3ListView13setColumnTextEiRK7QString@Base 4:4.5.3
 _ZN10Q3ListView13setItemMarginEi@Base 4:4.5.3
 _ZN10Q3ListView13setResizeModeENS_10ResizeModeE@Base 4:4.5.3
 _ZN10Q3ListView13setSortColumnEi@Base 4:4.5.3
 _ZN10Q3ListView13triggerUpdateEv@Base 4:4.5.3
 _ZN10Q3ListView14clearSelectionEv@Base 4:4.5.3
 _ZN10Q3ListView14currentChangedEP14Q3ListViewItem@Base 4:4.5.3
 _ZN10Q3ListView14paintEmptyAreaEP8QPainterRK5QRect@Base 4:4.5.3
 _ZN10Q3ListView14setColumnWidthEii@Base 4:4.5.3
 _ZN10Q3ListView14setContentsPosEii@Base 4:4.5.3
 _ZN10Q3ListView14setCurrentItemEP14Q3ListViewItem@Base 4:4.5.3
 _ZN10Q3ListView14updateContentsEv@Base 4:4.5.3
 _ZN10Q3ListView15invertSelectionEv@Base 4:4.5.3
 _ZN10Q3ListView15setShowToolTipsEb@Base 4:4.5.3
 _ZN10Q3ListView15setTreeStepSizeEi@Base 4:4.5.3
 _ZN10Q3ListView16changeSortColumnEi@Base 4:4.5.3
 _ZN10Q3ListView16handleItemChangeEP14Q3ListViewItembb@Base 4:4.5.3
 _ZN10Q3ListView16handleSizeChangeEiii@Base 4:4.5.3
 _ZN10Q3ListView16reconfigureItemsEv@Base 4:4.5.3
 _ZN10Q3ListView16selectionChangedEP14Q3ListViewItem@Base 4:4.5.3
 _ZN10Q3ListView16selectionChangedEv@Base 4:4.5.3
 _ZN10Q3ListView16setSelectionModeENS_13SelectionModeE@Base 4:4.5.3
 _ZN10Q3ListView16staticMetaObjectE@Base 4:4.5.3
 _ZN10Q3ListView16updateDirtyItemsEv@Base 4:4.5.3
 _ZN10Q3ListView16updateGeometriesEv@Base 4:4.5.3
 _ZN10Q3ListView17contentsDropEventEP10QDropEvent@Base 4:4.5.3
 _ZN10Q3ListView17ensureItemVisibleEPK14Q3ListViewItem@Base 4:4.5.3
 _ZN10Q3ListView17handleIndexChangeEv@Base 4:4.5.3
 _ZN10Q3ListView17setMultiSelectionEb@Base 4:4.5.3
 _ZN10Q3ListView18drawContentsOffsetEP8QPainteriiiiii@Base 4:4.5.3
 _ZN10Q3ListView18mouseButtonClickedEiP14Q3ListViewItemRK6QPointi@Base 4:4.5.3
 _ZN10Q3ListView18mouseButtonPressedEiP14Q3ListViewItemRK6QPointi@Base 4:4.5.3
 _ZN10Q3ListView18rightButtonClickedEP14Q3ListViewItemRK6QPointi@Base 4:4.5.3
 _ZN10Q3ListView18rightButtonPressedEP14Q3ListViewItemRK6QPointi@Base 4:4.5.3
 _ZN10Q3ListView18setColumnAlignmentEii@Base 4:4.5.3
 _ZN10Q3ListView18setColumnWidthModeEiNS_9WidthModeE@Base 4:4.5.3
 _ZN10Q3ListView18setRootIsDecoratedEb@Base 4:4.5.3
 _ZN10Q3ListView18setSelectionAnchorEP14Q3ListViewItem@Base 4:4.5.3
 _ZN10Q3ListView19viewportResizeEventEP12QResizeEvent@Base 4:4.5.3
 _ZN10Q3ListView20contextMenuRequestedEP14Q3ListViewItemRK6QPointi@Base 4:4.5.3
 _ZN10Q3ListView20setShowSortIndicatorEb@Base 4:4.5.3
 _ZN10Q3ListView21contentsDragMoveEventEP14QDragMoveEvent@Base 4:4.5.3
 _ZN10Q3ListView22contentsDragEnterEventEP15QDragEnterEvent@Base 4:4.5.3
 _ZN10Q3ListView22contentsDragLeaveEventEP15QDragLeaveEvent@Base 4:4.5.3
 _ZN10Q3ListView22contentsMouseMoveEventEP11QMouseEvent@Base 4:4.5.3
 _ZN10Q3ListView22setAllColumnsShowFocusEb@Base 4:4.5.3
 _ZN10Q3ListView22setDefaultRenameActionENS_12RenameActionE@Base 4:4.5.3
 _ZN10Q3ListView23contentsMousePressEventEP11QMouseEvent@Base 4:4.5.3
 _ZN10Q3ListView24contentsContextMenuEventEP17QContextMenuEvent@Base 4:4.5.3
 _ZN10Q3ListView25contentsMousePressEventExEP11QMouseEvent@Base 4:4.5.3
 _ZN10Q3ListView25contentsMouseReleaseEventEP11QMouseEvent@Base 4:4.5.3
 _ZN10Q3ListView27contentsMouseReleaseEventExEP11QMouseEvent@Base 4:4.5.3
 _ZN10Q3ListView29contentsMouseDoubleClickEventEP11QMouseEvent@Base 4:4.5.3
 _ZN10Q3ListView4initEv@Base 4:4.5.3
 _ZN10Q3ListView4showEv@Base 4:4.5.3
 _ZN10Q3ListView4sortEv@Base 4:4.5.3
 _ZN10Q3ListView5clearEv@Base 4:4.5.3
 _ZN10Q3ListView6onItemEP14Q3ListViewItem@Base 4:4.5.3
 _ZN10Q3ListView7clickedEP14Q3ListViewItem@Base 4:4.5.3
 _ZN10Q3ListView7clickedEP14Q3ListViewItemRK6QPointi@Base 4:4.5.3
 _ZN10Q3ListView7droppedEP10QDropEvent@Base 4:4.5.3
 _ZN10Q3ListView7itemPosEPK14Q3ListViewItem@Base 4:4.5.3
 _ZN10Q3ListView7pressedEP14Q3ListViewItem@Base 4:4.5.3
 _ZN10Q3ListView7pressedEP14Q3ListViewItemRK6QPointi@Base 4:4.5.3
 _ZN10Q3ListView7setOpenEP14Q3ListViewItemb@Base 4:4.5.3
 _ZN10Q3ListView8expandedEP14Q3ListViewItem@Base 4:4.5.3
 _ZN10Q3ListView8takeItemEP14Q3ListViewItem@Base 4:4.5.3
 _ZN10Q3ListView9addColumnERK5QIconRK7QStringi@Base 4:4.5.3
 _ZN10Q3ListView9addColumnERK7QStringi@Base 4:4.5.3
 _ZN10Q3ListView9collapsedEP14Q3ListViewItem@Base 4:4.5.3
 _ZN10Q3ListView9selectAllEb@Base 4:4.5.3
 _ZN10Q3ListView9showEventEP10QShowEvent@Base 4:4.5.3
 _ZN10Q3ListView9startDragEv@Base 4:4.5.3
 _ZN10Q3ListViewC1EP7QWidgetPKc6QFlagsIN2Qt10WindowTypeEE@Base 4:4.5.3
 _ZN10Q3ListViewC2EP7QWidgetPKc6QFlagsIN2Qt10WindowTypeEE@Base 4:4.5.3
 _ZN10Q3ListViewD0Ev@Base 4:4.5.3
 _ZN10Q3ListViewD1Ev@Base 4:4.5.3
 _ZN10Q3ListViewD2Ev@Base 4:4.5.3
 _ZN10Q3TextDrag10setSubtypeERK7QString@Base 4:4.5.3
 _ZN10Q3TextDrag11qt_metacallEN11QMetaObject4CallEiPPv@Base 4:4.5.3
 _ZN10Q3TextDrag11qt_metacastEPKc@Base 4:4.5.3
 _ZN10Q3TextDrag16staticMetaObjectE@Base 4:4.5.3
 _ZN10Q3TextDrag6decodeEPK11QMimeSourceR7QString@Base 4:4.5.3
 _ZN10Q3TextDrag6decodeEPK11QMimeSourceR7QStringS4_@Base 4:4.5.3
 _ZN10Q3TextDrag7setTextERK7QString@Base 4:4.5.3
 _ZN10Q3TextDrag9canDecodeEPK11QMimeSource@Base 4:4.5.3
 _ZN10Q3TextDragC1EP7QWidgetPKc@Base 4:4.5.3
 _ZN10Q3TextDragC1ER17Q3TextDragPrivateP7QWidget@Base 4:4.5.3
 _ZN10Q3TextDragC1ERK7QStringP7QWidgetPKc@Base 4:4.5.3
 _ZN10Q3TextDragC2EP7QWidgetPKc@Base 4:4.5.3
 _ZN10Q3TextDragC2ER17Q3TextDragPrivateP7QWidget@Base 4:4.5.3
 _ZN10Q3TextDragC2ERK7QStringP7QWidgetPKc@Base 4:4.5.3
 _ZN10Q3TextDragD0Ev@Base 4:4.5.3
 _ZN10Q3TextDragD1Ev@Base 4:4.5.3
 _ZN10Q3TextDragD2Ev@Base 4:4.5.3
 _ZN10Q3TextEdit10drawCursorEb@Base 4:4.5.3
 _ZN10Q3TextEdit10formatMoreEv@Base 4:4.5.3
 _ZN10Q3TextEdit10lineOfCharEii@Base 4:4.5.3
 _ZN10Q3TextEdit10moveCursorENS_12CursorActionE@Base 4:4.5.3
 _ZN10Q3TextEdit10moveCursorENS_12CursorActionEb@Base 4:4.5.3
 _ZN10Q3TextEdit10normalCopyEv@Base 4:4.5.3
 _ZN10Q3TextEdit11blinkCursorEv@Base 4:4.5.3
 _ZN10Q3TextEdit11changeEventEP6QEvent@Base 4:4.5.3
 _ZN10Q3TextEdit11eventFilterEP7QObjectP6QEvent@Base 4:4.5.3
 _ZN10Q3TextEdit11optimAppendERK7QString@Base 4:4.5.3
 _ZN10Q3TextEdit11optimInsertERK7QStringii@Base 4:4.5.3
 _ZN10Q3TextEdit11pickSpecialEP11QMimeSourcebRK6QPoint@Base 4:4.5.3
 _ZN10Q3TextEdit11placeCursorERK6QPointP12Q3TextCursor@Base 4:4.5.3
 _ZN10Q3TextEdit11placeCursorERK6QPointP12Q3TextCursorb@Base 4:4.5.3
 _ZN10Q3TextEdit11polishEventEP6QEvent@Base 4:4.5.3
 _ZN10Q3TextEdit11qt_metacallEN11QMetaObject4CallEiPPv@Base 4:4.5.3
 _ZN10Q3TextEdit11qt_metacastEPKc@Base 4:4.5.3
 _ZN10Q3TextEdit11readFormatsER12Q3TextCursorS1_R12Q3TextStringb@Base 4:4.5.3
 _ZN10Q3TextEdit11resetFormatEv@Base 4:4.5.3
 _ZN10Q3TextEdit11resizeEventEP12QResizeEvent@Base 4:4.5.3
 _ZN10Q3TextEdit11setDocumentEP14Q3TextDocument@Base 4:4.5.3
 _ZN10Q3TextEdit11setModifiedEb@Base 4:4.5.3
 _ZN10Q3TextEdit11setModifiedEv@Base 4:4.5.3
 _ZN10Q3TextEdit11setReadOnlyEb@Base 4:4.5.3
 _ZN10Q3TextEdit11setWordWrapENS_8WordWrapE@Base 4:4.5.3
 _ZN10Q3TextEdit11textChangedEv@Base 4:4.5.3
 _ZN10Q3TextEdit12UndoRedoInfo5clearEv@Base 4:4.5.3
 _ZN10Q3TextEdit12UndoRedoInfoC1EP14Q3TextDocument@Base 4:4.5.3
 _ZN10Q3TextEdit12UndoRedoInfoC2EP14Q3TextDocument@Base 4:4.5.3
 _ZN10Q3TextEdit12UndoRedoInfoD1Ev@Base 4:4.5.3
 _ZN10Q3TextEdit12UndoRedoInfoD2Ev@Base 4:4.5.3
 _ZN10Q3TextEdit12drawContentsEP8QPainter@Base 4:4.5.3
 _ZN10Q3TextEdit12drawContentsEP8QPainteriiii@Base 4:4.5.3
 _ZN10Q3TextEdit12optimSetTextERK7QString@Base 4:4.5.3
 _ZN10Q3TextEdit12pasteSpecialERK6QPoint@Base 4:4.5.3
 _ZN10Q3TextEdit12pasteSubTypeERK10QByteArray@Base 4:4.5.3
 _ZN10Q3TextEdit12pasteSubTypeERK10QByteArrayP11QMimeSource@Base 4:4.5.3
 _ZN10Q3TextEdit12setAlignmentEi@Base 4:4.5.3
 _ZN10Q3TextEdit12setParagTypeEN16Q3StyleSheetItem11DisplayModeENS0_9ListStyleE@Base 4:4.5.3
 _ZN10Q3TextEdit12setPointSizeEi@Base 4:4.5.3
 _ZN10Q3TextEdit12setSelectionEiiiii@Base 4:4.5.3
 _ZN10Q3TextEdit12setUnderlineEb@Base 4:4.5.3
 _ZN10Q3TextEdit12setUndoDepthEi@Base 4:4.5.3
 _ZN10Q3TextEdit12updateCursorERK6QPoint@Base 4:4.5.3
 _ZN10Q3TextEdit12updateStylesEv@Base 4:4.5.3
 _ZN10Q3TextEdit13clearUndoRedoEv@Base 4:4.5.3
 _ZN10Q3TextEdit13copyAvailableEb@Base 4:4.5.3
 _ZN10Q3TextEdit13doubleClickedEii@Base 4:4.5.3
 _ZN10Q3TextEdit13keyPressEventEP9QKeyEvent@Base 4:4.5.3
 _ZN10Q3TextEdit13paintDocumentEbP8QPainteriiii@Base 4:4.5.3
 _ZN10Q3TextEdit13redoAvailableEb@Base 4:4.5.3
 _ZN10Q3TextEdit13returnPressedEv@Base 4:4.5.3
 _ZN10Q3TextEdit13setStyleSheetEP12Q3StyleSheet@Base 4:4.5.3
 _ZN10Q3TextEdit13setTextFormatEN2Qt10TextFormatE@Base 4:4.5.3
 _ZN10Q3TextEdit13setWrapPolicyENS_10WrapPolicyE@Base 4:4.5.3
 _ZN10Q3TextEdit13undoAvailableEb@Base 4:4.5.3
 _ZN10Q3TextEdit14checkOptimModeEv@Base 4:4.5.3
 _ZN10Q3TextEdit14optimAppendTagEiRK7QString@Base 4:4.5.3
 _ZN10Q3TextEdit14optimInsertTagEiiRK7QString@Base 4:4.5.3
 _ZN10Q3TextEdit14optimParseTagsEP7QStringii@Base 4:4.5.3
 _ZN10Q3TextEdit14optimSelectAllEv@Base 4:4.5.3
 _ZN10Q3TextEdit14repaintChangedEv@Base 4:4.5.3
 _ZN10Q3TextEdit14scrollToAnchorERK7QString@Base 4:4.5.3
 _ZN10Q3TextEdit14scrollToBottomEv@Base 4:4.5.3
 _ZN10Q3TextEdit14setCurrentFontERK5QFont@Base 4:4.5.3
 _ZN10Q3TextEdit14setMaxLogLinesEi@Base 4:4.5.3
 _ZN10Q3TextEdit14sliderReleasedEv@Base 4:4.5.3
 _ZN10Q3TextEdit15copyToClipboardEv@Base 4:4.5.3
 _ZN10Q3TextEdit15createPopupMenuERK6QPoint@Base 4:4.5.3
 _ZN10Q3TextEdit15createPopupMenuEv@Base 4:4.5.3
 _ZN10Q3TextEdit15ensureFormattedEP15Q3TextParagraph@Base 4:4.5.3
 _ZN10Q3TextEdit15handleMouseMoveERK6QPoint@Base 4:4.5.3
 _ZN10Q3TextEdit15insertParagraphERK7QStringi@Base 4:4.5.3
 _ZN10Q3TextEdit15optimCheckLimitERK7QString@Base 4:4.5.3
 _ZN10Q3TextEdit15removeParagraphEi@Base 4:4.5.3
 _ZN10Q3TextEdit15removeSelectionEi@Base 4:4.5.3
 _ZN10Q3TextEdit15setFontInternalERK5QFont@Base 4:4.5.3
 _ZN10Q3TextEdit15setTabStopWidthEi@Base 4:4.5.3
 _ZN10Q3TextEdit16clipboardChangedEv@Base 4:4.5.3
 _ZN10Q3TextEdit16doChangeIntervalEv@Base 4:4.5.3
 _ZN10Q3TextEdit16doKeyboardActionENS_14KeyboardActionE@Base 4:4.5.3
 _ZN10Q3TextEdit16inputMethodEventEP17QInputMethodEvent@Base 4:4.5.3
 _ZN10Q3TextEdit16makeParagVisibleEP15Q3TextParagraph@Base 4:4.5.3
 _ZN10Q3TextEdit16selectionChangedEv@Base 4:4.5.3
 _ZN10Q3TextEdit16setLinkUnderlineEb@Base 4:4.5.3
 _ZN10Q3TextEdit16staticMetaObjectE@Base 4:4.5.3
 _ZN10Q3TextEdit17checkUndoRedoInfoENS_12UndoRedoInfo4TypeE@Base 4:4.5.3
 _ZN10Q3TextEdit17contentsDropEventEP10QDropEvent@Base 4:4.5.3
 _ZN10Q3TextEdit17optimDoAutoScrollEv@Base 4:4.5.3
 _ZN10Q3TextEdit17optimDrawContentsEP8QPainteriiii@Base 4:4.5.3
 _ZN10Q3TextEdit17optimSetSelectionEiiii@Base 4:4.5.3
 _ZN10Q3TextEdit17setAutoFormattingE6QFlagsINS_18AutoFormattingFlagEE@Base 4:4.5.3
 _ZN10Q3TextEdit17setCursorPositionEii@Base 4:4.5.3
 _ZN10Q3TextEdit18contentsWheelEventEP11QWheelEvent@Base 4:4.5.3
 _ZN10Q3TextEdit18currentFontChangedERK5QFont@Base 4:4.5.3
 _ZN10Q3TextEdit18focusNextPrevChildEb@Base 4:4.5.3
 _ZN10Q3TextEdit18getParagraphFormatEiP5QFontP6QColorPNS_17VerticalAlignmentEPiPN16Q3StyleSheetItem11DisplayModeEPNS7_9ListStyleES6_@Base 4:4.5.3
 _ZN10Q3TextEdit18optimSetTextFormatEP14Q3TextDocumentP12Q3TextCursorP12Q3TextFormatiiPN22Q3TextEditOptimPrivate3TagE@Base 4:4.5.3
 _ZN10Q3TextEdit18removeSelectedTextEi@Base 4:4.5.3
 _ZN10Q3TextEdit18setTabChangesFocusEb@Base 4:4.5.3
 _ZN10Q3TextEdit18setUndoRedoEnabledEb@Base 4:4.5.3
 _ZN10Q3TextEdit19autoScrollTimerDoneEv@Base 4:4.5.3
 _ZN10Q3TextEdit19currentColorChangedERK6QColor@Base 4:4.5.3
 _ZN10Q3TextEdit19ensureCursorVisibleEv@Base 4:4.5.3
 _ZN10Q3TextEdit19modificationChangedEb@Base 4:4.5.3
 _ZN10Q3TextEdit19optimHasBoldMetricsEi@Base 4:4.5.3
 _ZN10Q3TextEdit19optimMouseMoveEventEP11QMouseEvent@Base 4:4.5.3
 _ZN10Q3TextEdit19updateCurrentFormatEv@Base 4:4.5.3
 _ZN10Q3TextEdit19viewportResizeEventEP12QResizeEvent@Base 4:4.5.3
 _ZN10Q3TextEdit20documentWidthChangedEi@Base 4:4.5.3
 _ZN10Q3TextEdit20optimMousePressEventEP11QMouseEvent@Base 4:4.5.3
 _ZN10Q3TextEdit20optimPreviousLeftTagEi@Base 4:4.5.3
 _ZN10Q3TextEdit20optimRemoveSelectionEv@Base 4:4.5.3
 _ZN10Q3TextEdit20setMimeSourceFactoryEP19Q3MimeSourceFactory@Base 4:4.5.3
 _ZN10Q3TextEdit20setVerticalAlignmentENS_17VerticalAlignmentE@Base 4:4.5.3
 _ZN10Q3TextEdit20setWrapColumnOrWidthEi@Base 4:4.5.3
 _ZN10Q3TextEdit21contentsDragMoveEventEP14QDragMoveEvent@Base 4:4.5.3
 _ZN10Q3TextEdit21cursorPositionChangedEP12Q3TextCursor@Base 4:4.5.3
 _ZN10Q3TextEdit21cursorPositionChangedEii@Base 4:4.5.3
 _ZN10Q3TextEdit22contentsDragEnterEventEP15QDragEnterEvent@Base 4:4.5.3
 _ZN10Q3TextEdit22contentsDragLeaveEventEP15QDragLeaveEvent@Base 4:4.5.3
 _ZN10Q3TextEdit22contentsMouseMoveEventEP11QMouseEvent@Base 4:4.5.3
 _ZN10Q3TextEdit22handleReadOnlyKeyEventEP9QKeyEvent@Base 4:4.5.3
 _ZN10Q3TextEdit22optimMouseReleaseEventEP11QMouseEvent@Base 4:4.5.3
 _ZN10Q3TextEdit22setSelectionAttributesEiRK6QColorb@Base 4:4.5.3
 _ZN10Q3TextEdit23contentsMousePressEventEP11QMouseEvent@Base 4:4.5.3
 _ZN10Q3TextEdit23currentAlignmentChangedEi@Base 4:4.5.3
 _ZN10Q3TextEdit24clearParagraphBackgroundEi@Base 4:4.5.3
 _ZN10Q3TextEdit24contentsContextMenuEventEP17QContextMenuEvent@Base 4:4.5.3
 _ZN10Q3TextEdit25contentsMouseReleaseEventEP11QMouseEvent@Base 4:4.5.3
 _ZN10Q3TextEdit27setParagraphBackgroundColorEiRK6QColor@Base 4:4.5.3
 _ZN10Q3TextEdit29contentsMouseDoubleClickEventEP11QMouseEvent@Base 4:4.5.3
 _ZN10Q3TextEdit31currentVerticalAlignmentChangedENS_17VerticalAlignmentE@Base 4:4.5.3
 _ZN10Q3TextEdit3cutEv@Base 4:4.5.3
 _ZN10Q3TextEdit3delEv@Base 4:4.5.3
 _ZN10Q3TextEdit4copyEv@Base 4:4.5.3
 _ZN10Q3TextEdit4findERK7QStringbbbPiS3_@Base 4:4.5.3
 _ZN10Q3TextEdit4initEv@Base 4:4.5.3
 _ZN10Q3TextEdit4redoEv@Base 4:4.5.3
 _ZN10Q3TextEdit4syncEv@Base 4:4.5.3
 _ZN10Q3TextEdit4undoEv@Base 4:4.5.3
 _ZN10Q3TextEdit5clearEv@Base 4:4.5.3
 _ZN10Q3TextEdit5eventEP6QEvent@Base 4:4.5.3
 _ZN10Q3TextEdit5pasteEv@Base 4:4.5.3
 _ZN10Q3TextEdit6appendERK7QString@Base 4:4.5.3
 _ZN10Q3TextEdit6indentEv@Base 4:4.5.3
 _ZN10Q3TextEdit6insertERK7QStringbbb@Base 4:4.5.3
 _ZN10Q3TextEdit6insertERK7QStringj@Base 4:4.5.3
 _ZN10Q3TextEdit6zoomInEi@Base 4:4.5.3
 _ZN10Q3TextEdit6zoomToEi@Base 4:4.5.3
 _ZN10Q3TextEdit7clickedEii@Base 4:4.5.3
 _ZN10Q3TextEdit7setBoldEb@Base 4:4.5.3
 _ZN10Q3TextEdit7setTextERK7QStringS2_@Base 4:4.5.3
 _ZN10Q3TextEdit7zoomOutEi@Base 4:4.5.3
 _ZN10Q3TextEdit8anchorAtERK6QPointN2Qt15AnchorAttributeE@Base 4:4.5.3
 _ZN10Q3TextEdit8doResizeEv@Base 4:4.5.3
 _ZN10Q3TextEdit8insertAtERK7QStringii@Base 4:4.5.3
 _ZN10Q3TextEdit8setColorERK6QColor@Base 4:4.5.3
 _ZN10Q3TextEdit8setPaperERK6QBrush@Base 4:4.5.3
 _ZN10Q3TextEdit9getFormatEiiP5QFontP6QColorPNS_17VerticalAlignmentE@Base 4:4.5.3
 _ZN10Q3TextEdit9optimFindERK7QStringbbbPiS3_@Base 4:4.5.3
 _ZN10Q3TextEdit9selectAllEb@Base 4:4.5.3
 _ZN10Q3TextEdit9setFamilyERK7QString@Base 4:4.5.3
 _ZN10Q3TextEdit9setFormatEP12Q3TextFormati@Base 4:4.5.3
 _ZN10Q3TextEdit9setItalicEb@Base 4:4.5.3
 _ZN10Q3TextEdit9startDragEv@Base 4:4.5.3
 _ZN10Q3TextEditC1EP7QWidgetPKc@Base 4:4.5.3
 _ZN10Q3TextEditC1ERK7QStringS2_P7QWidgetPKc@Base 4:4.5.3
 _ZN10Q3TextEditC2EP7QWidgetPKc@Base 4:4.5.3
 _ZN10Q3TextEditC2ERK7QStringS2_P7QWidgetPKc@Base 4:4.5.3
 _ZN10Q3TextEditD0Ev@Base 4:4.5.3
 _ZN10Q3TextEditD1Ev@Base 4:4.5.3
 _ZN10Q3TextEditD2Ev@Base 4:4.5.3
 _ZN10Q3TextFlow10adjustFlowEiii@Base 4:4.5.3
 _ZN10Q3TextFlow11setPageSizeEi@Base 4:4.5.3
 _ZN10Q3TextFlow13adjustLMarginEiiii@Base 4:4.5.3
 _ZN10Q3TextFlow13adjustRMarginEiiii@Base 4:4.5.3
 _ZN10Q3TextFlow17drawFloatingItemsEP8QPainteriiiiRK8QPaletteb@Base 4:4.5.3
 _ZN10Q3TextFlow20registerFloatingItemEP16Q3TextCustomItem@Base 4:4.5.3
 _ZN10Q3TextFlow22unregisterFloatingItemEP16Q3TextCustomItem@Base 4:4.5.3
 _ZN10Q3TextFlow5clearEv@Base 4:4.5.3
 _ZN10Q3TextFlow7isEmptyEv@Base 4:4.5.3
 _ZN10Q3TextFlow8setWidthEi@Base 4:4.5.3
 _ZN10Q3TextFlowC1Ev@Base 4:4.5.3
 _ZN10Q3TextFlowC2Ev@Base 4:4.5.3
 _ZN10Q3TextFlowD0Ev@Base 4:4.5.3
 _ZN10Q3TextFlowD1Ev@Base 4:4.5.3
 _ZN10Q3TextFlowD2Ev@Base 4:4.5.3
 _ZN10Q3TextView11qt_metacallEN11QMetaObject4CallEiPPv@Base 4:4.5.3
 _ZN10Q3TextView11qt_metacastEPKc@Base 4:4.5.3
 _ZN10Q3TextView16staticMetaObjectE@Base 4:4.5.3
 _ZN10Q3TextViewC1EP7QWidgetPKc@Base 4:4.5.3
 _ZN10Q3TextViewC1ERK7QStringS2_P7QWidgetPKc@Base 4:4.5.3
 _ZN10Q3TextViewC2EP7QWidgetPKc@Base 4:4.5.3
 _ZN10Q3TextViewC2ERK7QStringS2_P7QWidgetPKc@Base 4:4.5.3
 _ZN10Q3TextViewD0Ev@Base 4:4.5.3
 _ZN10Q3TextViewD1Ev@Base 4:4.5.3
 _ZN10Q3TextViewD2Ev@Base 4:4.5.3
 _ZN10Q3TimeEdit10setDisplayEj@Base 4:4.5.3
 _ZN10Q3TimeEdit10timerEventEP11QTimerEvent@Base 4:4.5.3
 _ZN10Q3TimeEdit11qt_metacallEN11QMetaObject4CallEiPPv@Base 4:4.5.3
 _ZN10Q3TimeEdit11qt_metacastEPKc@Base 4:4.5.3
 _ZN10Q3TimeEdit11resizeEventEP12QResizeEvent@Base 4:4.5.3
 _ZN10Q3TimeEdit11sectionTextEi@Base 4:4.5.3
 _ZN10Q3TimeEdit12setSeparatorERK7QString@Base 4:4.5.3
 _ZN10Q3TimeEdit12valueChangedERK5QTime@Base 4:4.5.3
 _ZN10Q3TimeEdit13updateButtonsEv@Base 4:4.5.3
 _ZN10Q3TimeEdit14setAutoAdvanceEb@Base 4:4.5.3
 _ZN10Q3TimeEdit15setFocusSectionEi@Base 4:4.5.3
 _ZN10Q3TimeEdit16removeLastNumberEi@Base 4:4.5.3
 _ZN10Q3TimeEdit16staticMetaObjectE@Base 4:4.5.3
 _ZN10Q3TimeEdit17removeFirstNumberEi@Base 4:4.5.3
 _ZN10Q3TimeEdit20sectionFormattedTextEi@Base 4:4.5.3
 _ZN10Q3TimeEdit4initEv@Base 4:4.5.3
 _ZN10Q3TimeEdit5eventEP6QEvent@Base 4:4.5.3
 _ZN10Q3TimeEdit6stepUpEv@Base 4:4.5.3
 _ZN10Q3TimeEdit7setHourEi@Base 4:4.5.3
 _ZN10Q3TimeEdit7setTimeERK5QTime@Base 4:4.5.3
 _ZN10Q3TimeEdit8setRangeERK5QTimeS2_@Base 4:4.5.3
 _ZN10Q3TimeEdit8stepDownEv@Base 4:4.5.3
 _ZN10Q3TimeEdit9addNumberEii@Base 4:4.5.3
 _ZN10Q3TimeEdit9setMinuteEi@Base 4:4.5.3
 _ZN10Q3TimeEdit9setSecondEi@Base 4:4.5.3
 _ZN10Q3TimeEditC1EP7QWidgetPKc@Base 4:4.5.3
 _ZN10Q3TimeEditC1ERK5QTimeP7QWidgetPKc@Base 4:4.5.3
 _ZN10Q3TimeEditC2EP7QWidgetPKc@Base 4:4.5.3
 _ZN10Q3TimeEditC2ERK5QTimeP7QWidgetPKc@Base 4:4.5.3
 _ZN10Q3TimeEditD0Ev@Base 4:4.5.3
 _ZN10Q3TimeEditD1Ev@Base 4:4.5.3
 _ZN10Q3TimeEditD2Ev@Base 4:4.5.3
 _ZN10Q3TitleBar10doActivateEv@Base 4:4.5.3
 _ZN10Q3TitleBar10doMaximizeEv@Base 4:4.5.3
 _ZN10Q3TitleBar10doMinimizeEv@Base 4:4.5.3
 _ZN10Q3TitleBar10enterEventEP6QEvent@Base 4:4.5.3
 _ZN10Q3TitleBar10leaveEventEP6QEvent@Base 4:4.5.3
 _ZN10Q3TitleBar10paintEventEP11QPaintEvent@Base 4:4.5.3
 _ZN10Q3TitleBar10setMovableEb@Base 4:4.5.3
 _ZN10Q3TitleBar11changeEventEP6QEvent@Base 4:4.5.3
 _ZN10Q3TitleBar11qt_metacallEN11QMetaObject4CallEiPPv@Base 4:4.5.3
 _ZN10Q3TitleBar11qt_metacastEPKc@Base 4:4.5.3
 _ZN10Q3TitleBar11resizeEventEP12QResizeEvent@Base 4:4.5.3
 _ZN10Q3TitleBar12setAutoRaiseEb@Base 4:4.5.3
 _ZN10Q3TitleBar13doubleClickedEv@Base 4:4.5.3
 _ZN10Q3TitleBar14mouseMoveEventEP11QMouseEvent@Base 4:4.5.3
 _ZN10Q3TitleBar15mousePressEventEP11QMouseEvent@Base 4:4.5.3
 _ZN10Q3TitleBar16contextMenuEventEP17QContextMenuEvent@Base 4:4.5.3
 _ZN10Q3TitleBar16staticMetaObjectE@Base 4:4.5.3
 _ZN10Q3TitleBar17mouseReleaseEventEP11QMouseEvent@Base 4:4.5.3
 _ZN10Q3TitleBar17showOperationMenuEv@Base 4:4.5.3
 _ZN10Q3TitleBar18popupOperationMenuERK6QPoint@Base 4:4.5.3
 _ZN10Q3TitleBar18setFakeWindowFlagsE6QFlagsIN2Qt10WindowTypeEE@Base 4:4.5.3
 _ZN10Q3TitleBar21mouseDoubleClickEventEP11QMouseEvent@Base 4:4.5.3
 _ZN10Q3TitleBar5eventEP6QEvent@Base 4:4.5.3
 _ZN10Q3TitleBar7cutTextEv@Base 4:4.5.3
 _ZN10Q3TitleBar7doCloseEv@Base 4:4.5.3
 _ZN10Q3TitleBar7doShadeEv@Base 4:4.5.3
 _ZN10Q3TitleBar8doNormalEv@Base 4:4.5.3
 _ZN10Q3TitleBar9setActiveEb@Base 4:4.5.3
 _ZN10Q3TitleBarC1EP7QWidgetS1_6QFlagsIN2Qt10WindowTypeEE@Base 4:4.5.3
 _ZN10Q3TitleBarC2EP7QWidgetS1_6QFlagsIN2Qt10WindowTypeEE@Base 4:4.5.3
 _ZN10Q3TitleBarD0Ev@Base 4:4.5.3
 _ZN10Q3TitleBarD1Ev@Base 4:4.5.3
 _ZN10Q3TitleBarD2Ev@Base 4:4.5.3
 (optional=external|arch=!amd64 !hurd-i386 !i386 !kfreebsd-amd64 !kfreebsd-i386)_ZN10QByteArray4dataEv@Base 4:4.7.2
 _ZN11Q3ColorDrag11qt_metacallEN11QMetaObject4CallEiPPv@Base 4:4.5.3
 _ZN11Q3ColorDrag11qt_metacastEPKc@Base 4:4.5.3
 _ZN11Q3ColorDrag16staticMetaObjectE@Base 4:4.5.3
 _ZN11Q3ColorDrag6decodeEP11QMimeSourceR6QColor@Base 4:4.5.3
 _ZN11Q3ColorDrag8setColorERK6QColor@Base 4:4.5.3
 _ZN11Q3ColorDrag9canDecodeEP11QMimeSource@Base 4:4.5.3
 _ZN11Q3ColorDragC1EP7QWidgetPKc@Base 4:4.5.3
 _ZN11Q3ColorDragC1ERK6QColorP7QWidgetPKc@Base 4:4.5.3
 _ZN11Q3ColorDragC2EP7QWidgetPKc@Base 4:4.5.3
 _ZN11Q3ColorDragC2ERK6QColorP7QWidgetPKc@Base 4:4.5.3
 _ZN11Q3ColorDragD0Ev@Base 4:4.7.4
 _ZN11Q3ColorDragD1Ev@Base 4:4.7.4
 _ZN11Q3ColorDragD2Ev@Base 4:4.7.4
 _ZN11Q3DataTable10findBufferERK9QSqlIndexi@Base 4:4.5.3
 _ZN11Q3DataTable10hideColumnEi@Base 4:4.5.3
 _ZN11Q3DataTable10paintFieldEP8QPainterPK9QSqlFieldRK5QRectb@Base 4:4.5.3
 _ZN11Q3DataTable10resizeDataEi@Base 4:4.5.3
 _ZN11Q3DataTable10setNumColsEi@Base 4:4.5.3
 _ZN11Q3DataTable10setNumRowsEi@Base 4:4.5.3
 _ZN11Q3DataTable10showColumnEi@Base 4:4.5.3
 _ZN11Q3DataTable10sortColumnEibb@Base 4:4.5.3
 _ZN11Q3DataTable11beginInsertEv@Base 4:4.5.3
 _ZN11Q3DataTable11beginUpdateEiib@Base 4:4.5.3
 _ZN11Q3DataTable11confirmEditEN4QSql2OpE@Base 4:4.5.3
 _ZN11Q3DataTable11eventFilterEP7QObjectP6QEvent@Base 4:4.5.3
 _ZN11Q3DataTable11handleErrorERK9QSqlError@Base 4:4.5.3
 _ZN11Q3DataTable11primeDeleteEP10QSqlRecord@Base 4:4.5.3
 _ZN11Q3DataTable11primeInsertEP10QSqlRecord@Base 4:4.5.3
 _ZN11Q3DataTable11primeUpdateEP10QSqlRecord@Base 4:4.5.3
 _ZN11Q3DataTable11qt_metacallEN11QMetaObject4CallEiPPv@Base 4:4.5.3
 _ZN11Q3DataTable11qt_metacastEPKc@Base 4:4.5.3
 _ZN11Q3DataTable11repaintCellEii@Base 4:4.5.3
 _ZN11Q3DataTable11resizeEventEP12QResizeEvent@Base 4:4.5.3
 _ZN11Q3DataTable11setAutoEditEb@Base 4:4.5.3
 _ZN11Q3DataTable11setNullTextERK7QString@Base 4:4.5.3
 _ZN11Q3DataTable11setTrueTextERK7QString@Base 4:4.5.3
 _ZN11Q3DataTable11swapColumnsEiib@Base 4:4.5.3
 _ZN11Q3DataTable12adjustColumnEi@Base 4:4.5.3
 _ZN11Q3DataTable12beforeDeleteEP10QSqlRecord@Base 4:4.5.3
 _ZN11Q3DataTable12beforeInsertEP10QSqlRecord@Base 4:4.5.3
 _ZN11Q3DataTable12beforeUpdateEP10QSqlRecord@Base 4:4.5.3
 _ZN11Q3DataTable12drawContentsEP8QPainter@Base 4:4.5.3
 _ZN11Q3DataTable12drawContentsEP8QPainteriiii@Base 4:4.5.3
 _ZN11Q3DataTable12loadNextPageEv@Base 4:4.5.3
 _ZN11Q3DataTable12removeColumnEi@Base 4:4.5.3
 _ZN11Q3DataTable12setFalseTextERK7QString@Base 4:4.5.3
 _ZN11Q3DataTable12setSqlCursorEP11Q3SqlCursorbb@Base 4:4.5.3
 _ZN11Q3DataTable13columnClickedEi@Base 4:4.5.3
 _ZN11Q3DataTable13confirmCancelEN4QSql2OpE@Base 4:4.5.3
 _ZN11Q3DataTable13cursorChangedEN4QSql2OpE@Base 4:4.5.3
 _ZN11Q3DataTable13deleteCurrentEv@Base 4:4.5.3
 _ZN11Q3DataTable13fieldToStringEPK9QSqlField@Base 4:4.5.3
 _ZN11Q3DataTable13insertCurrentEv@Base 4:4.5.3
 _ZN11Q3DataTable13keyPressEventEP9QKeyEvent@Base 4:4.5.3
 _ZN11Q3DataTable13setAutoDeleteEb@Base 4:4.5.3
 _ZN11Q3DataTable13setDateFormatEN2Qt10DateFormatE@Base 4:4.5.3
 _ZN11Q3DataTable13sliderPressedEv@Base 4:4.5.3
 _ZN11Q3DataTable13sortAscendingEi@Base 4:4.5.3
 _ZN11Q3DataTable13updateCurrentEv@Base 4:4.5.3
 _ZN11Q3DataTable14currentChangedEP10QSqlRecord@Base 4:4.5.3
 _ZN11Q3DataTable14fieldAlignmentEPK9QSqlField@Base 4:4.5.3
 _ZN11Q3DataTable14setColumnWidthEii@Base 4:4.5.3
 _ZN11Q3DataTable14sliderReleasedEv@Base 4:4.5.3
 _ZN11Q3DataTable14sortDescendingEi@Base 4:4.5.3
 _ZN11Q3DataTable15doInsertCurrentEv@Base 4:4.5.3
 _ZN11Q3DataTable15doUpdateCurrentEv@Base 4:4.5.3
 _ZN11Q3DataTable15setConfirmEditsEb@Base 4:4.5.3
 _ZN11Q3DataTable16activateNextCellEv@Base 4:4.5.3
 _ZN11Q3DataTable16setConfirmDeleteEb@Base 4:4.5.3
 _ZN11Q3DataTable16setConfirmInsertEb@Base 4:4.5.3
 _ZN11Q3DataTable16setConfirmUpdateEb@Base 4:4.5.3
 _ZN11Q3DataTable16staticMetaObjectE@Base 4:4.5.3
 _ZN11Q3DataTable17setConfirmCancelsEb@Base 4:4.5.3
 _ZN11Q3DataTable18installPropertyMapEP16Q3SqlPropertyMap@Base 4:4.5.3
 _ZN11Q3DataTable19setCurrentSelectionEii@Base 4:4.5.3
 _ZN11Q3DataTable20installEditorFactoryEP18Q3SqlEditorFactory@Base 4:4.5.3
 _ZN11Q3DataTable20setColumnStretchableEib@Base 4:4.5.3
 _ZN11Q3DataTable22updateCurrentSelectionEv@Base 4:4.5.3
 _ZN11Q3DataTable23contentsMousePressEventEP11QMouseEvent@Base 4:4.5.3
 _ZN11Q3DataTable24contentsContextMenuEventEP17QContextMenuEvent@Base 4:4.5.3
 _ZN11Q3DataTable4findERK7QStringbb@Base 4:4.5.3
 _ZN11Q3DataTable4initEv@Base 4:4.5.3
 _ZN11Q3DataTable5resetEv@Base 4:4.5.3
 _ZN11Q3DataTable7endEditEiibb@Base 4:4.5.3
 _ZN11Q3DataTable7refreshENS_7RefreshE@Base 4:4.5.3
 _ZN11Q3DataTable7refreshEv@Base 4:4.5.3
 _ZN11Q3DataTable7setItemEiiP11Q3TableItem@Base 4:4.5.3
 _ZN11Q3DataTable7setSizeEP11Q3SqlCursor@Base 4:4.5.3
 _ZN11Q3DataTable7setSortERK11QStringList@Base 4:4.5.3
 _ZN11Q3DataTable7setSortERK9QSqlIndex@Base 4:4.5.3
 _ZN11Q3DataTable8takeItemEP11Q3TableItem@Base 4:4.5.3
 _ZN11Q3DataTable9addColumnERK7QStringS2_iRK5QIcon@Base 4:4.5.3
 _ZN11Q3DataTable9beginEditEiib@Base 4:4.5.3
 _ZN11Q3DataTable9clearCellEii@Base 4:4.5.3
 _ZN11Q3DataTable9endInsertEv@Base 4:4.5.3
 _ZN11Q3DataTable9endUpdateEv@Base 4:4.5.3
 _ZN11Q3DataTable9paintCellEP8QPainteriiRK5QRectbRK11QColorGroup@Base 4:4.5.3
 _ZN11Q3DataTable9selectRowEi@Base 4:4.5.3
 _ZN11Q3DataTable9setColumnEjRK7QStringS2_iRK5QIcon@Base 4:4.5.3
 _ZN11Q3DataTable9setFilterERK7QString@Base 4:4.5.3
 _ZN11Q3DataTable9setPixmapEiiRK7QPixmap@Base 4:4.5.3
 _ZN11Q3DataTable9updateRowEi@Base 4:4.5.3
 _ZN11Q3DataTableC1EP11Q3SqlCursorbP7QWidgetPKc@Base 4:4.5.3
 _ZN11Q3DataTableC1EP7QWidgetPKc@Base 4:4.5.3
 _ZN11Q3DataTableC2EP11Q3SqlCursorbP7QWidgetPKc@Base 4:4.5.3
 _ZN11Q3DataTableC2EP7QWidgetPKc@Base 4:4.5.3
 _ZN11Q3DataTableD0Ev@Base 4:4.5.3
 _ZN11Q3DataTableD1Ev@Base 4:4.5.3
 _ZN11Q3DataTableD2Ev@Base 4:4.5.3
 _ZN11Q3HGroupBox11qt_metacallEN11QMetaObject4CallEiPPv@Base 4:4.5.3
 _ZN11Q3HGroupBox11qt_metacastEPKc@Base 4:4.5.3
 _ZN11Q3HGroupBox16staticMetaObjectE@Base 4:4.5.3
 _ZN11Q3HGroupBoxC1EP7QWidgetPKc@Base 4:4.5.3
 _ZN11Q3HGroupBoxC1ERK7QStringP7QWidgetPKc@Base 4:4.5.3
 _ZN11Q3HGroupBoxC2EP7QWidgetPKc@Base 4:4.5.3
 _ZN11Q3HGroupBoxC2ERK7QStringP7QWidgetPKc@Base 4:4.5.3
 _ZN11Q3HGroupBoxD0Ev@Base 4:4.5.3
 _ZN11Q3HGroupBoxD1Ev@Base 4:4.5.3
 _ZN11Q3HGroupBoxD2Ev@Base 4:4.5.3
 _ZN11Q3ImageDrag11qt_metacallEN11QMetaObject4CallEiPPv@Base 4:4.5.3
 _ZN11Q3ImageDrag11qt_metacastEPKc@Base 4:4.5.3
 _ZN11Q3ImageDrag16staticMetaObjectE@Base 4:4.5.3
 _ZN11Q3ImageDrag6decodeEPK11QMimeSourceR6QImage@Base 4:4.5.3
 _ZN11Q3ImageDrag6decodeEPK11QMimeSourceR7QPixmap@Base 4:4.5.3
 _ZN11Q3ImageDrag8setImageE6QImage@Base 4:4.5.3
 _ZN11Q3ImageDrag9canDecodeEPK11QMimeSource@Base 4:4.5.3
 _ZN11Q3ImageDragC1E6QImageP7QWidgetPKc@Base 4:4.5.3
 _ZN11Q3ImageDragC1EP7QWidgetPKc@Base 4:4.5.3
 _ZN11Q3ImageDragC1ER18Q3ImageDragPrivateP7QWidget@Base 4:4.5.3
 _ZN11Q3ImageDragC2E6QImageP7QWidgetPKc@Base 4:4.5.3
 _ZN11Q3ImageDragC2EP7QWidgetPKc@Base 4:4.5.3
 _ZN11Q3ImageDragC2ER18Q3ImageDragPrivateP7QWidget@Base 4:4.5.3
 _ZN11Q3ImageDragD0Ev@Base 4:4.5.3
 _ZN11Q3ImageDragD1Ev@Base 4:4.5.3
 _ZN11Q3ImageDragD2Ev@Base 4:4.5.3
 _ZN11Q3PopupMenu11qt_metacallEN11QMetaObject4CallEiPPv@Base 4:4.5.3
 _ZN11Q3PopupMenu11qt_metacastEPKc@Base 4:4.5.3
 _ZN11Q3PopupMenu16staticMetaObjectE@Base 4:4.5.3
 _ZN11Q3PopupMenuD0Ev@Base 4:4.7.4
 _ZN11Q3PopupMenuD1Ev@Base 4:4.7.4
 _ZN11Q3PopupMenuD2Ev@Base 4:4.7.4
 _ZN11Q3Semaphore9tryAccessEi@Base 4:4.5.3
 _ZN11Q3SemaphoreC1Ei@Base 4:4.5.3
 _ZN11Q3SemaphoreC2Ei@Base 4:4.5.3
 _ZN11Q3SemaphoreD0Ev@Base 4:4.5.3
 _ZN11Q3SemaphoreD1Ev@Base 4:4.5.3
 _ZN11Q3SemaphoreD2Ev@Base 4:4.5.3
 _ZN11Q3SemaphoremIEi@Base 4:4.5.3
 _ZN11Q3SemaphoremmEi@Base 4:4.5.3
 _ZN11Q3SemaphorepLEi@Base 4:4.5.3
 _ZN11Q3SemaphoreppEi@Base 4:4.5.3
 _ZN11Q3SqlCursor10editBufferEb@Base 4:4.5.3
 _ZN11Q3SqlCursor10setTrimmedERK7QStringb@Base 4:4.5.3
 _ZN11Q3SqlCursor11primeDeleteEv@Base 4:4.5.3
 _ZN11Q3SqlCursor11primeInsertEv@Base 4:4.5.3
 _ZN11Q3SqlCursor11primeUpdateEv@Base 4:4.5.3
 _ZN11Q3SqlCursor12setGeneratedERK7QStringb@Base 4:4.5.3
 _ZN11Q3SqlCursor12setGeneratedEib@Base 4:4.5.3
 _ZN11Q3SqlCursor13applyPreparedERK7QStringb@Base 4:4.5.3
 _ZN11Q3SqlCursor13setCalculatedERK7QStringb@Base 4:4.5.3
 _ZN11Q3SqlCursor14calculateFieldERK7QString@Base 4:4.5.3
 _ZN11Q3SqlCursor15setPrimaryIndexERK9QSqlIndex@Base 4:4.5.3
 _ZN11Q3SqlCursor3delERK7QStringb@Base 4:4.5.3
 _ZN11Q3SqlCursor3delEb@Base 4:4.5.3
 _ZN11Q3SqlCursor4execERK7QString@Base 4:4.5.3
 _ZN11Q3SqlCursor4lastEv@Base 4:4.5.3
 _ZN11Q3SqlCursor4nextEv@Base 4:4.5.3
 _ZN11Q3SqlCursor4prevEv@Base 4:4.5.3
 _ZN11Q3SqlCursor4seekEib@Base 4:4.5.3
 _ZN11Q3SqlCursor4syncEv@Base 4:4.5.3
 _ZN11Q3SqlCursor5applyERK7QStringb@Base 4:4.5.3
 _ZN11Q3SqlCursor5clearEv@Base 4:4.5.3
 _ZN11Q3SqlCursor5firstEv@Base 4:4.5.3
 _ZN11Q3SqlCursor6appendERK14Q3SqlFieldInfo@Base 4:4.5.3
 _ZN11Q3SqlCursor6appendERK9QSqlField@Base 4:4.5.3
 _ZN11Q3SqlCursor6insertEb@Base 4:4.5.3
 _ZN11Q3SqlCursor6insertEiRK14Q3SqlFieldInfo@Base 4:4.5.3
 _ZN11Q3SqlCursor6removeEi@Base 4:4.5.3
 _ZN11Q3SqlCursor6selectERK7QStringRK9QSqlIndex@Base 4:4.5.3
 _ZN11Q3SqlCursor6selectERK9QSqlIndex@Base 4:4.5.3
 _ZN11Q3SqlCursor6selectERK9QSqlIndexS2_@Base 4:4.5.3
 _ZN11Q3SqlCursor6selectEv@Base 4:4.5.3
 _ZN11Q3SqlCursor6updateERK7QStringb@Base 4:4.5.3
 _ZN11Q3SqlCursor6updateEb@Base 4:4.5.3
 _ZN11Q3SqlCursor7setModeEi@Base 4:4.5.3
 _ZN11Q3SqlCursor7setNameERK7QStringb@Base 4:4.5.3
 _ZN11Q3SqlCursor7setSortERK9QSqlIndex@Base 4:4.5.3
 _ZN11Q3SqlCursor8setValueEiRK8QVariant@Base 4:4.5.3
 _ZN11Q3SqlCursor9setFilterERK7QString@Base 4:4.5.3
 _ZN11Q3SqlCursorC1ERK7QStringb12QSqlDatabase@Base 4:4.5.3
 _ZN11Q3SqlCursorC1ERKS_@Base 4:4.5.3
 _ZN11Q3SqlCursorC2ERK7QStringb12QSqlDatabase@Base 4:4.5.3
 _ZN11Q3SqlCursorC2ERKS_@Base 4:4.5.3
 _ZN11Q3SqlCursorD0Ev@Base 4:4.5.3
 _ZN11Q3SqlCursorD1Ev@Base 4:4.5.3
 _ZN11Q3SqlCursorD2Ev@Base 4:4.5.3
 _ZN11Q3SqlCursoraSERK10QSqlRecord@Base 4:4.5.3
 _ZN11Q3SqlCursoraSERKS_@Base 4:4.5.3
 _ZN11Q3TabDialog10paintEventEP11QPaintEvent@Base 4:4.5.3
 _ZN11Q3TabDialog10removePageEP7QWidget@Base 4:4.5.3
 _ZN11Q3TabDialog11aboutToShowEv@Base 4:4.5.3
 _ZN11Q3TabDialog11qt_metacallEN11QMetaObject4CallEiPPv@Base 4:4.5.3
 _ZN11Q3TabDialog11qt_metacastEPKc@Base 4:4.5.3
 _ZN11Q3TabDialog11resizeEventEP12QResizeEvent@Base 4:4.5.3
 _ZN11Q3TabDialog11setOKButtonERK7QString@Base 4:4.5.3
 _ZN11Q3TabDialog11setOkButtonERK7QString@Base 4:4.5.3
 _ZN11Q3TabDialog11setOkButtonEv@Base 4:4.5.3
 _ZN11Q3TabDialog11setUpLayoutEv@Base 4:4.5.3
 _ZN11Q3TabDialog11styleChangeER6QStyle@Base 4:4.5.3
 _ZN11Q3TabDialog13setHelpButtonERK7QString@Base 4:4.5.3
 _ZN11Q3TabDialog13setHelpButtonEv@Base 4:4.5.3
 _ZN11Q3TabDialog13setTabEnabledEP7QWidgetb@Base 4:4.5.3
 _ZN11Q3TabDialog13setTabEnabledEPKcb@Base 4:4.5.3
 _ZN11Q3TabDialog14currentChangedEP7QWidget@Base 4:4.5.3
 _ZN11Q3TabDialog14setApplyButtonERK7QString@Base 4:4.5.3
 _ZN11Q3TabDialog14setApplyButtonEv@Base 4:4.5.3
 _ZN11Q3TabDialog15setCancelButtonERK7QString@Base 4:4.5.3
 _ZN11Q3TabDialog15setCancelButtonEv@Base 4:4.5.3
 _ZN11Q3TabDialog16setDefaultButtonERK7QString@Base 4:4.5.3
 _ZN11Q3TabDialog16setDefaultButtonEv@Base 4:4.5.3
 _ZN11Q3TabDialog16staticMetaObjectE@Base 4:4.5.3
 _ZN11Q3TabDialog17helpButtonPressedEv@Base 4:4.5.3
 _ZN11Q3TabDialog18applyButtonPressedEv@Base 4:4.5.3
 _ZN11Q3TabDialog19cancelButtonPressedEv@Base 4:4.5.3
 _ZN11Q3TabDialog20defaultButtonPressedEv@Base 4:4.5.3
 _ZN11Q3TabDialog4showEv@Base 4:4.5.3
 _ZN11Q3TabDialog6addTabEP7QWidgetRK5QIconRK7QString@Base 4:4.5.3
 _ZN11Q3TabDialog6addTabEP7QWidgetRK7QString@Base 4:4.5.3
 _ZN11Q3TabDialog7setFontERK5QFont@Base 4:4.5.3
 _ZN11Q3TabDialog8selectedERK7QString@Base 4:4.5.3
 _ZN11Q3TabDialog8setSizesEv@Base 4:4.5.3
 _ZN11Q3TabDialog8showPageEP7QWidget@Base 4:4.5.3
 _ZN11Q3TabDialog8tabLabelEP7QWidget@Base 4:4.5.3
 _ZN11Q3TabDialog9changeTabEP7QWidgetRK5QIconRK7QString@Base 4:4.5.3
 _ZN11Q3TabDialog9changeTabEP7QWidgetRK7QString@Base 4:4.5.3
 _ZN11Q3TabDialog9insertTabEP7QWidgetRK5QIconRK7QStringi@Base 4:4.5.3
 _ZN11Q3TabDialog9insertTabEP7QWidgetRK7QStringi@Base 4:4.5.3
 _ZN11Q3TabDialog9setTabBarEP7QTabBar@Base 4:4.5.3
 _ZN11Q3TabDialog9showEventEP10QShowEvent@Base 4:4.6.1
 _ZN11Q3TabDialogC1EP7QWidgetPKcb6QFlagsIN2Qt10WindowTypeEE@Base 4:4.5.3
 _ZN11Q3TabDialogC2EP7QWidgetPKcb6QFlagsIN2Qt10WindowTypeEE@Base 4:4.5.3
 _ZN11Q3TabDialogD0Ev@Base 4:4.5.3
 _ZN11Q3TabDialogD1Ev@Base 4:4.5.3
 _ZN11Q3TabDialogD2Ev@Base 4:4.5.3
 _ZN11Q3TableItem10setEnabledEb@Base 4:4.5.3
 _ZN11Q3TableItem11setWordWrapEb@Base 4:4.5.3
 _ZN11Q3TableItem12updateEditorEii@Base 4:4.5.3
 _ZN11Q3TableItem14setReplaceableEb@Base 4:4.5.3
 _ZN11Q3TableItem20setContentFromEditorEP7QWidget@Base 4:4.5.3
 _ZN11Q3TableItem4RTTIE@Base 4:4.5.3
 _ZN11Q3TableItem5paintEP8QPainterRK11QColorGroupRK5QRectb@Base 4:4.5.3
 _ZN11Q3TableItem6setColEi@Base 4:4.5.3
 _ZN11Q3TableItem6setRowEi@Base 4:4.5.3
 _ZN11Q3TableItem7setSpanEii@Base 4:4.5.3
 _ZN11Q3TableItem7setTextERK7QString@Base 4:4.5.3
 _ZN11Q3TableItem9setPixmapERK7QPixmap@Base 4:4.5.3
 _ZN11Q3TableItemC1EP7Q3TableNS_8EditTypeE@Base 4:4.5.3
 _ZN11Q3TableItemC1EP7Q3TableNS_8EditTypeERK7QString@Base 4:4.5.3
 _ZN11Q3TableItemC1EP7Q3TableNS_8EditTypeERK7QStringRK7QPixmap@Base 4:4.5.3
 _ZN11Q3TableItemC2EP7Q3TableNS_8EditTypeE@Base 4:4.5.3
 _ZN11Q3TableItemC2EP7Q3TableNS_8EditTypeERK7QString@Base 4:4.5.3
 _ZN11Q3TableItemC2EP7Q3TableNS_8EditTypeERK7QStringRK7QPixmap@Base 4:4.5.3
 _ZN11Q3TableItemD0Ev@Base 4:4.5.3
 _ZN11Q3TableItemD1Ev@Base 4:4.5.3
 _ZN11Q3TableItemD2Ev@Base 4:4.5.3
 _ZN11Q3TextImage15adjustToPainterEP8QPainter@Base 4:4.5.3
 _ZN11Q3TextImage4drawEP8QPainteriiiiiiRK8QPaletteb@Base 4:4.5.3
 _ZN11Q3TextImageC1EP14Q3TextDocumentRK4QMapI7QStringS3_ERKS3_R19Q3MimeSourceFactory@Base 4:4.5.3
 _ZN11Q3TextImageC2EP14Q3TextDocumentRK4QMapI7QStringS3_ERKS3_R19Q3MimeSourceFactory@Base 4:4.5.3
 _ZN11Q3TextImageD0Ev@Base 4:4.5.3
 _ZN11Q3TextImageD1Ev@Base 4:4.5.3
 _ZN11Q3TextImageD2Ev@Base 4:4.5.3
 _ZN11Q3TextTable10invalidateEv@Base 4:4.5.3
 _ZN11Q3TextTable11adjustCellsEii@Base 4:4.5.3
 _ZN11Q3TextTable15adjustToPainterEP8QPainter@Base 4:4.5.3
 _ZN11Q3TextTable2upEP12Q3TextCursorRP14Q3TextDocumentRP15Q3TextParagraphRiS8_S8_@Base 4:4.5.3
 _ZN11Q3TextTable4downEP12Q3TextCursorRP14Q3TextDocumentRP15Q3TextParagraphRiS8_S8_@Base 4:4.5.3
 _ZN11Q3TextTable4drawEP8QPainteriiiiiiRK8QPaletteb@Base 4:4.5.3
 _ZN11Q3TextTable4nextEP12Q3TextCursorRP14Q3TextDocumentRP15Q3TextParagraphRiS8_S8_@Base 4:4.5.3
 _ZN11Q3TextTable4prevEP12Q3TextCursorRP14Q3TextDocumentRP15Q3TextParagraphRiS8_S8_@Base 4:4.5.3
 _ZN11Q3TextTable5enterEP12Q3TextCursorRP14Q3TextDocumentRP15Q3TextParagraphRiS8_S8_b@Base 4:4.5.3
 _ZN11Q3TextTable6formatEi@Base 4:4.5.3
 _ZN11Q3TextTable6resizeEi@Base 4:4.5.3
 _ZN11Q3TextTable7addCellEP15Q3TextTableCell@Base 4:4.5.3
 _ZN11Q3TextTable7enterAtEP12Q3TextCursorRP14Q3TextDocumentRP15Q3TextParagraphRiS8_S8_RK6QPoint@Base 4:4.5.3
 _ZN11Q3TextTable9pageBreakEiP10Q3TextFlow@Base 4:4.5.3
 _ZN11Q3TextTableC1EP14Q3TextDocumentRK4QMapI7QStringS3_E@Base 4:4.5.3
 _ZN11Q3TextTableC2EP14Q3TextDocumentRK4QMapI7QStringS3_E@Base 4:4.5.3
 _ZN11Q3TextTableD0Ev@Base 4:4.5.3
 _ZN11Q3TextTableD1Ev@Base 4:4.5.3
 _ZN11Q3TextTableD2Ev@Base 4:4.5.3
 _ZN11Q3VGroupBox11qt_metacallEN11QMetaObject4CallEiPPv@Base 4:4.5.3
 _ZN11Q3VGroupBox11qt_metacastEPKc@Base 4:4.5.3
 _ZN11Q3VGroupBox16staticMetaObjectE@Base 4:4.5.3
 _ZN11Q3VGroupBoxC1EP7QWidgetPKc@Base 4:4.5.3
 _ZN11Q3VGroupBoxC1ERK7QStringP7QWidgetPKc@Base 4:4.5.3
 _ZN11Q3VGroupBoxC2EP7QWidgetPKc@Base 4:4.5.3
 _ZN11Q3VGroupBoxC2ERK7QStringP7QWidgetPKc@Base 4:4.5.3
 _ZN11Q3VGroupBoxD0Ev@Base 4:4.5.3
 _ZN11Q3VGroupBoxD1Ev@Base 4:4.5.3
 _ZN11Q3VGroupBoxD2Ev@Base 4:4.5.3
 _ZN11Q3WhatsThis11eventFilterEP7QObjectP6QEvent@Base 4:4.5.3
 _ZN11Q3WhatsThis11qt_metacallEN11QMetaObject4CallEiPPv@Base 4:4.5.3
 _ZN11Q3WhatsThis11qt_metacastEPKc@Base 4:4.5.3
 _ZN11Q3WhatsThis15whatsThisButtonEP7QWidget@Base 4:4.5.3
 _ZN11Q3WhatsThis16staticMetaObjectE@Base 4:4.5.3
 _ZN11Q3WhatsThis4textERK6QPoint@Base 4:4.5.3
 _ZN11Q3WhatsThis7clickedERK7QString@Base 4:4.5.3
 _ZN11Q3WhatsThisC1EP7QWidget@Base 4:4.5.3
 _ZN11Q3WhatsThisC2EP7QWidget@Base 4:4.5.3
 _ZN11Q3WhatsThisD0Ev@Base 4:4.5.3
 _ZN11Q3WhatsThisD1Ev@Base 4:4.5.3
 _ZN11Q3WhatsThisD2Ev@Base 4:4.5.3
 (optional=external|arch=amd64 hurd-i386 i386 kfreebsd-amd64 kfreebsd-i386)_ZN11QColorGroupD1Ev@Base 4:4.8.1
 (optional=external|arch=amd64 hurd-i386 i386 kfreebsd-amd64 kfreebsd-i386)_ZN11QColorGroupD2Ev@Base 4:4.8.1
 (optional=external|arch=amd64 hurd-i386 i386 kfreebsd-amd64 kfreebsd-i386)_ZN11QDomElementD1Ev@Base 4:4.8.1
 (optional=external|arch=amd64 hurd-i386 i386 kfreebsd-amd64 kfreebsd-i386)_ZN11QDomElementD2Ev@Base 4:4.8.1
 _ZN12Q3CanvasItem10setEnabledEb@Base 4:4.5.3
 _ZN12Q3CanvasItem10setVisibleEb@Base 4:4.5.3
 _ZN12Q3CanvasItem11addToChunksEv@Base 4:4.5.3
 _ZN12Q3CanvasItem11setAnimatedEb@Base 4:4.5.3
 _ZN12Q3CanvasItem11setSelectedEb@Base 4:4.5.3
 _ZN12Q3CanvasItem11setVelocityEdd@Base 4:4.5.3
 _ZN12Q3CanvasItem12changeChunksEv@Base 4:4.5.3
 _ZN12Q3CanvasItem16removeFromChunksEv@Base 4:4.5.3
 _ZN12Q3CanvasItem4RTTIE@Base 4:4.5.3
 _ZN12Q3CanvasItem4hideEv@Base 4:4.5.3
 _ZN12Q3CanvasItem4moveEdd@Base 4:4.5.3
 _ZN12Q3CanvasItem4showEv@Base 4:4.5.3
 _ZN12Q3CanvasItem5extraEv@Base 4:4.5.3
 _ZN12Q3CanvasItem6moveByEdd@Base 4:4.5.3
 _ZN12Q3CanvasItem7advanceEi@Base 4:4.5.3
 _ZN12Q3CanvasItem9setActiveEb@Base 4:4.5.3
 _ZN12Q3CanvasItem9setCanvasEP8Q3Canvas@Base 4:4.5.3
 _ZN12Q3CanvasItemC1EP8Q3Canvas@Base 4:4.5.3
 _ZN12Q3CanvasItemC2EP8Q3Canvas@Base 4:4.5.3
 _ZN12Q3CanvasItemD0Ev@Base 4:4.5.3
 _ZN12Q3CanvasItemD1Ev@Base 4:4.5.3
 _ZN12Q3CanvasItemD2Ev@Base 4:4.5.3
 _ZN12Q3CanvasLine4RTTIE@Base 4:4.5.3
 _ZN12Q3CanvasLine6moveByEdd@Base 4:4.5.3
 _ZN12Q3CanvasLine6setPenE4QPen@Base 4:4.5.3
 _ZN12Q3CanvasLine9drawShapeER8QPainter@Base 4:4.5.3
 _ZN12Q3CanvasLine9setPointsEiiii@Base 4:4.5.3
 _ZN12Q3CanvasLineC1EP8Q3Canvas@Base 4:4.5.3
 _ZN12Q3CanvasLineC2EP8Q3Canvas@Base 4:4.5.3
 _ZN12Q3CanvasLineD0Ev@Base 4:4.5.3
 _ZN12Q3CanvasLineD1Ev@Base 4:4.5.3
 _ZN12Q3CanvasLineD2Ev@Base 4:4.5.3
 _ZN12Q3CanvasText11addToChunksEv@Base 4:4.5.3
 _ZN12Q3CanvasText12changeChunksEv@Base 4:4.5.3
 _ZN12Q3CanvasText12setTextFlagsEi@Base 4:4.5.3
 _ZN12Q3CanvasText16removeFromChunksEv@Base 4:4.5.3
 _ZN12Q3CanvasText4RTTIE@Base 4:4.5.3
 _ZN12Q3CanvasText4drawER8QPainter@Base 4:4.5.3
 _ZN12Q3CanvasText6moveByEdd@Base 4:4.5.3
 _ZN12Q3CanvasText7setFontERK5QFont@Base 4:4.5.3
 _ZN12Q3CanvasText7setRectEv@Base 4:4.5.3
 _ZN12Q3CanvasText7setTextERK7QString@Base 4:4.5.3
 _ZN12Q3CanvasText8setColorERK6QColor@Base 4:4.5.3
 _ZN12Q3CanvasTextC1EP8Q3Canvas@Base 4:4.5.3
 _ZN12Q3CanvasTextC1ERK7QString5QFontP8Q3Canvas@Base 4:4.5.3
 _ZN12Q3CanvasTextC1ERK7QStringP8Q3Canvas@Base 4:4.5.3
 _ZN12Q3CanvasTextC2EP8Q3Canvas@Base 4:4.5.3
 _ZN12Q3CanvasTextC2ERK7QString5QFontP8Q3Canvas@Base 4:4.5.3
 _ZN12Q3CanvasTextC2ERK7QStringP8Q3Canvas@Base 4:4.5.3
 _ZN12Q3CanvasTextD0Ev@Base 4:4.5.3
 _ZN12Q3CanvasTextD1Ev@Base 4:4.5.3
 _ZN12Q3CanvasTextD2Ev@Base 4:4.5.3
 _ZN12Q3CanvasView11qt_metacallEN11QMetaObject4CallEiPPv@Base 4:4.5.3
 _ZN12Q3CanvasView11qt_metacastEPKc@Base 4:4.5.3
 _ZN12Q3CanvasView12drawContentsEP8QPainter@Base 4:4.5.3
 _ZN12Q3CanvasView12drawContentsEP8QPainteriiii@Base 4:4.5.3
 _ZN12Q3CanvasView14setWorldMatrixERK7QMatrix@Base 4:4.5.3
 _ZN12Q3CanvasView16staticMetaObjectE@Base 4:4.5.3
 _ZN12Q3CanvasView18updateContentsSizeEv@Base 4:4.5.3
 _ZN12Q3CanvasView9setCanvasEP8Q3Canvas@Base 4:4.5.3
 _ZN12Q3CanvasViewC1EP7QWidgetPKc6QFlagsIN2Qt10WindowTypeEE@Base 4:4.5.3
 _ZN12Q3CanvasViewC1EP8Q3CanvasP7QWidgetPKc6QFlagsIN2Qt10WindowTypeEE@Base 4:4.5.3
 _ZN12Q3CanvasViewC2EP7QWidgetPKc6QFlagsIN2Qt10WindowTypeEE@Base 4:4.5.3
 _ZN12Q3CanvasViewC2EP8Q3CanvasP7QWidgetPKc6QFlagsIN2Qt10WindowTypeEE@Base 4:4.5.3
 _ZN12Q3CanvasViewD0Ev@Base 4:4.5.3
 _ZN12Q3CanvasViewD1Ev@Base 4:4.5.3
 _ZN12Q3CanvasViewD2Ev@Base 4:4.5.3
 _ZN12Q3DockWindow10handleMoveERK6QPointS2_b@Base 4:4.5.3
 _ZN12Q3DockWindow10setNewLineEb@Base 4:4.5.3
 _ZN12Q3DockWindow11endRectDrawEb@Base 4:4.5.3
 _ZN12Q3DockWindow11eventFilterEP7QObjectP6QEvent@Base 4:4.5.3
 _ZN12Q3DockWindow11qt_metacallEN11QMetaObject4CallEiPPv@Base 4:4.5.3
 _ZN12Q3DockWindow11qt_metacastEPKc@Base 4:4.5.3
 _ZN12Q3DockWindow11resizeEventEP12QResizeEvent@Base 4:4.5.3
 _ZN12Q3DockWindow12drawContentsEP8QPainter@Base 4:4.5.3
 _ZN12Q3DockWindow12placeChangedENS_5PlaceE@Base 4:4.5.3
 _ZN12Q3DockWindow12setCloseModeEi@Base 4:4.5.3
 _ZN12Q3DockWindow13startRectDrawERK6QPointb@Base 4:4.5.3
 _ZN12Q3DockWindow14removeFromDockEb@Base 4:4.5.3
 _ZN12Q3DockWindow14setOrientationEN2Qt11OrientationE@Base 4:4.5.3
 _ZN12Q3DockWindow14updatePositionERK6QPoint@Base 4:4.5.3
 _ZN12Q3DockWindow15setOpaqueMovingEb@Base 4:4.5.3
 _ZN12Q3DockWindow16contextMenuEventEP17QContextMenuEvent@Base 4:4.5.3
 _ZN12Q3DockWindow16setMovingEnabledEb@Base 4:4.5.3
 _ZN12Q3DockWindow16setResizeEnabledEb@Base 4:4.5.3
 _ZN12Q3DockWindow16staticMetaObjectE@Base 4:4.5.3
 _ZN12Q3DockWindow17visibilityChangedEb@Base 4:4.5.3
 _ZN12Q3DockWindow18orientationChangedEN2Qt11OrientationE@Base 4:4.5.3
 _ZN12Q3DockWindow19setFixedExtentWidthEi@Base 4:4.5.3
 _ZN12Q3DockWindow20setFixedExtentHeightEi@Base 4:4.5.3
 _ZN12Q3DockWindow24setVerticallyStretchableEb@Base 4:4.5.3
 _ZN12Q3DockWindow24updateSplitterVisibilityEb@Base 4:4.5.3
 _ZN12Q3DockWindow26setHorizontallyStretchableEb@Base 4:4.5.3
 _ZN12Q3DockWindow4dockEv@Base 4:4.5.3
 _ZN12Q3DockWindow4initEv@Base 4:4.5.3
 _ZN12Q3DockWindow5eventEP6QEvent@Base 4:4.5.3
 _ZN12Q3DockWindow6areaAtERK6QPoint@Base 4:4.5.3
 _ZN12Q3DockWindow6undockEP7QWidget@Base 4:4.5.3
 _ZN12Q3DockWindow8swapRectER5QRectN2Qt11OrientationERK6QPointP10Q3DockArea@Base 4:4.5.3
 _ZN12Q3DockWindow9boxLayoutEv@Base 4:4.5.3
 _ZN12Q3DockWindow9drawFrameEP8QPainter@Base 4:4.5.3
 _ZN12Q3DockWindow9hideEventEP10QHideEvent@Base 4:4.5.3
 _ZN12Q3DockWindow9setOffsetEi@Base 4:4.5.3
 _ZN12Q3DockWindow9setWidgetEP7QWidget@Base 4:4.5.3
 _ZN12Q3DockWindow9showEventEP10QShowEvent@Base 4:4.5.3
 _ZN12Q3DockWindow9updateGuiEv@Base 4:4.5.3
 _ZN12Q3DockWindowC1ENS_5PlaceEP7QWidgetPKc6QFlagsIN2Qt10WindowTypeEE@Base 4:4.5.3
 _ZN12Q3DockWindowC1ENS_5PlaceEP7QWidgetPKc6QFlagsIN2Qt10WindowTypeEEb@Base 4:4.5.3
 _ZN12Q3DockWindowC1EP7QWidgetPKc6QFlagsIN2Qt10WindowTypeEE@Base 4:4.5.3
 _ZN12Q3DockWindowC2ENS_5PlaceEP7QWidgetPKc6QFlagsIN2Qt10WindowTypeEE@Base 4:4.5.3
 _ZN12Q3DockWindowC2ENS_5PlaceEP7QWidgetPKc6QFlagsIN2Qt10WindowTypeEEb@Base 4:4.5.3
 _ZN12Q3DockWindowC2EP7QWidgetPKc6QFlagsIN2Qt10WindowTypeEE@Base 4:4.5.3
 _ZN12Q3DockWindowD0Ev@Base 4:4.5.3
 _ZN12Q3DockWindowD1Ev@Base 4:4.5.3
 _ZN12Q3DockWindowD2Ev@Base 4:4.5.3
 _ZN12Q3DragObject11qt_metacallEN11QMetaObject4CallEiPPv@Base 4:4.5.3
 _ZN12Q3DragObject11qt_metacastEPKc@Base 4:4.5.3
 _ZN12Q3DragObject16staticMetaObjectE@Base 4:4.5.3
 _ZN12Q3DragObject4dragENS_8DragModeE@Base 4:4.5.3
 _ZN12Q3DragObject4dragEv@Base 4:4.5.3
 _ZN12Q3DragObject6sourceEv@Base 4:4.5.3
 _ZN12Q3DragObject6targetEv@Base 4:4.5.3
 _ZN12Q3DragObject8dragCopyEv@Base 4:4.5.3
 _ZN12Q3DragObject8dragLinkEv@Base 4:4.5.3
 _ZN12Q3DragObject8dragMoveEv@Base 4:4.5.3
 _ZN12Q3DragObject9setPixmapE7QPixmap@Base 4:4.5.3
 _ZN12Q3DragObject9setPixmapE7QPixmapRK6QPoint@Base 4:4.5.3
 _ZN12Q3DragObjectC1EP7QWidgetPKc@Base 4:4.5.3
 _ZN12Q3DragObjectC1ER19Q3DragObjectPrivateP7QWidget@Base 4:4.5.3
 _ZN12Q3DragObjectC2EP7QWidgetPKc@Base 4:4.5.3
 _ZN12Q3DragObjectC2ER19Q3DragObjectPrivateP7QWidget@Base 4:4.5.3
 _ZN12Q3DragObjectD0Ev@Base 4:4.5.3
 _ZN12Q3DragObjectD1Ev@Base 4:4.5.3
 _ZN12Q3DragObjectD2Ev@Base 4:4.5.3
 _ZN12Q3FileDialog10addWidgetsEP6QLabelP7QWidgetP11QPushButton@Base 4:4.5.3
 _ZN12Q3FileDialog10changeModeEi@Base 4:4.5.3
 _ZN12Q3FileDialog10deleteFileERK7QString@Base 4:4.5.3
 _ZN12Q3FileDialog10dirEnteredERK7QString@Base 4:4.5.3
 _ZN12Q3FileDialog10setFiltersEPPKc@Base 4:4.5.3
 _ZN12Q3FileDialog10setFiltersERK11QStringList@Base 4:4.5.3
 _ZN12Q3FileDialog10setFiltersERK7QString@Base 4:4.5.3
 _ZN12Q3FileDialog11cdUpClickedEv@Base 4:4.5.3
 _ZN12Q3FileDialog11dirSelectedEi@Base 4:4.5.3
 _ZN12Q3FileDialog11eventFilterEP7QObjectP6QEvent@Base 4:4.5.3
 _ZN12Q3FileDialog11insertEntryERK11Q3ValueListI8QUrlInfoEP18Q3NetworkOperation@Base 4:4.5.3
 _ZN12Q3FileDialog11itemChangedEP18Q3NetworkOperation@Base 4:4.5.3
 _ZN12Q3FileDialog11qt_metacallEN11QMetaObject4CallEiPPv@Base 4:4.5.3
 _ZN12Q3FileDialog11qt_metacastEPKc@Base 4:4.5.3
 _ZN12Q3FileDialog11removeEntryEP18Q3NetworkOperation@Base 4:4.5.3
 _ZN12Q3FileDialog11resizeEventEP12QResizeEvent@Base 4:4.5.3
 _ZN12Q3FileDialog11setViewModeENS_8ViewModeE@Base 4:4.5.3
 _ZN12Q3FileDialog11urlFinishedEP18Q3NetworkOperation@Base 4:4.5.3
 _ZN12Q3FileDialog12fileSelectedERK7QString@Base 4:4.5.3
 _ZN12Q3FileDialog12fileSelectedEi@Base 4:4.5.3
 _ZN12Q3FileDialog12iconProviderEv@Base 4:4.5.3
 _ZN12Q3FileDialog12pathSelectedEi@Base 4:4.5.3
 _ZN12Q3FileDialog12setSelectionERK7QString@Base 4:4.5.3
 _ZN12Q3FileDialog13addLeftWidgetEP7QWidget@Base 4:4.5.3
 _ZN12Q3FileDialog13addToolButtonEP15QAbstractButtonb@Base 4:4.5.3
 _ZN12Q3FileDialog13cancelClickedEv@Base 4:4.5.3
 _ZN12Q3FileDialog13filesSelectedERK11QStringList@Base 4:4.5.3
 _ZN12Q3FileDialog13filterClickedEv@Base 4:4.5.3
 _ZN12Q3FileDialog13fixupNameEditEv@Base 4:4.5.3
 _ZN12Q3FileDialog13keyPressEventEP9QKeyEvent@Base 4:4.5.3
 _ZN12Q3FileDialog14addRightWidgetEP7QWidget@Base 4:4.5.3
 _ZN12Q3FileDialog14filterSelectedERK7QString@Base 4:4.5.3
 _ZN12Q3FileDialog14setInfoPreviewEP7QWidgetP13Q3FilePreview@Base 4:4.5.3
 _ZN12Q3FileDialog14setPreviewModeENS_11PreviewModeE@Base 4:4.5.3
 _ZN12Q3FileDialog14updatePreviewsERK5Q3Url@Base 4:4.5.3
 _ZN12Q3FileDialog15fileHighlightedERK7QString@Base 4:4.5.3
 _ZN12Q3FileDialog15fileHighlightedEi@Base 4:4.5.3
 _ZN12Q3FileDialog15getOpenFileNameERK7QStringS2_P7QWidgetPKcS2_PS0_b@Base 4:4.5.3
 _ZN12Q3FileDialog15getSaveFileNameERK7QStringS2_P7QWidgetPKcS2_PS0_b@Base 4:4.5.3
 _ZN12Q3FileDialog15setIconProviderEP18Q3FileIconProvider@Base 4:4.5.3
 _ZN12Q3FileDialog15trySetSelectionEbRK13Q3UrlOperatorb@Base 4:4.5.3
 _ZN12Q3FileDialog16createdDirectoryERK8QUrlInfoP18Q3NetworkOperation@Base 4:4.5.3
 _ZN12Q3FileDialog16doMimeTypeLookupEv@Base 4:4.5.3
 _ZN12Q3FileDialog16fileNameEditDoneEv@Base 4:4.5.3
 _ZN12Q3FileDialog16getOpenFileNamesERK7QStringS2_P7QWidgetPKcS2_PS0_b@Base 4:4.5.3
 _ZN12Q3FileDialog16newFolderClickedEv@Base 4:4.5.3
 _ZN12Q3FileDialog16popupContextMenuEP13Q3ListBoxItemRK6QPoint@Base 4:4.5.3
 _ZN12Q3FileDialog16popupContextMenuEP14Q3ListViewItemRK6QPointi@Base 4:4.5.3
 _ZN12Q3FileDialog16popupContextMenuERK7QStringbRNS_11PopupActionERK6QPoint@Base 4:4.5.3
 _ZN12Q3FileDialog16staticMetaObjectE@Base 4:4.5.3
 _ZN12Q3FileDialog16updateGeometriesEv@Base 4:4.5.3
 _ZN12Q3FileDialog17removeProgressDiaEv@Base 4:4.5.3
 _ZN12Q3FileDialog17setSelectedFilterERK7QString@Base 4:4.5.3
 _ZN12Q3FileDialog17setSelectedFilterEi@Base 4:4.5.3
 _ZN12Q3FileDialog18setContentsPreviewEP7QWidgetP13Q3FilePreview@Base 4:4.5.3
 _ZN12Q3FileDialog18setShowHiddenFilesEb@Base 4:4.5.3
 _ZN12Q3FileDialog18updateFileNameEditEP13Q3ListBoxItem@Base 4:4.5.3
 _ZN12Q3FileDialog18updateFileNameEditEP14Q3ListViewItem@Base 4:4.5.3
 _ZN12Q3FileDialog20dataTransferProgressEiiP18Q3NetworkOperation@Base 4:4.5.3
 _ZN12Q3FileDialog20getExistingDirectoryERK7QStringP7QWidgetPKcS2_bb@Base 4:4.5.3
 _ZN12Q3FileDialog20modeButtonsDestroyedEv@Base 4:4.5.3
 _ZN12Q3FileDialog21selectDirectoryOrFileEP13Q3ListBoxItem@Base 4:4.5.3
 _ZN12Q3FileDialog21selectDirectoryOrFileEP14Q3ListViewItem@Base 4:4.5.3
 _ZN12Q3FileDialog21setInfoPreviewEnabledEb@Base 4:4.5.3
 _ZN12Q3FileDialog23listBoxSelectionChangedEv@Base 4:4.5.3
 _ZN12Q3FileDialog25fileNameEditReturnPressedEv@Base 4:4.5.3
 _ZN12Q3FileDialog25setContentsPreviewEnabledEb@Base 4:4.5.3
 _ZN12Q3FileDialog26detailViewSelectionChangedEv@Base 4:4.5.3
 _ZN12Q3FileDialog4doneEi@Base 4:4.5.3
 _ZN12Q3FileDialog4initEv@Base 4:4.5.3
 _ZN12Q3FileDialog6goBackEv@Base 4:4.5.3
 _ZN12Q3FileDialog6setDirERK4QDir@Base 4:4.5.3
 _ZN12Q3FileDialog6setDirERK7QString@Base 4:4.5.3
 _ZN12Q3FileDialog6setUrlERK13Q3UrlOperator@Base 4:4.5.3
 _ZN12Q3FileDialog7setModeENS_4ModeE@Base 4:4.5.3
 _ZN12Q3FileDialog8stopCopyEv@Base 4:4.5.3
 _ZN12Q3FileDialog8urlStartEP18Q3NetworkOperation@Base 4:4.5.3
 _ZN12Q3FileDialog9addFilterERK7QString@Base 4:4.5.3
 _ZN12Q3FileDialog9okClickedEv@Base 4:4.5.3
 _ZN12Q3FileDialog9rereadDirEv@Base 4:4.5.3
 _ZN12Q3FileDialog9resortDirEv@Base 4:4.5.3
 _ZN12Q3FileDialog9selectAllEb@Base 4:4.5.3
 _ZN12Q3FileDialog9setFilterERK7QString@Base 4:4.5.3
 _ZN12Q3FileDialogC1EP7QWidgetPKcb@Base 4:4.5.3
 _ZN12Q3FileDialogC1ERK7QStringS2_P7QWidgetPKcb@Base 4:4.5.3
 _ZN12Q3FileDialogC2EP7QWidgetPKcb@Base 4:4.5.3
 _ZN12Q3FileDialogC2ERK7QStringS2_P7QWidgetPKcb@Base 4:4.5.3
 _ZN12Q3FileDialogD0Ev@Base 4:4.5.3
 _ZN12Q3FileDialogD1Ev@Base 4:4.5.3
 _ZN12Q3FileDialogD2Ev@Base 4:4.5.3
 _ZN12Q3HttpHeader11removeValueERK7QString@Base 4:4.5.3
 _ZN12Q3HttpHeader14setContentTypeERK7QString@Base 4:4.5.3
 _ZN12Q3HttpHeader16setContentLengthEi@Base 4:4.5.3
 _ZN12Q3HttpHeader5parseERK7QString@Base 4:4.5.3
 _ZN12Q3HttpHeader8setValidEb@Base 4:4.5.3
 _ZN12Q3HttpHeader8setValueERK7QStringS2_@Base 4:4.5.3
 _ZN12Q3HttpHeader9parseLineERK7QStringi@Base 4:4.5.3
 _ZN12Q3HttpHeaderC1ERK7QString@Base 4:4.5.3
 _ZN12Q3HttpHeaderC1ERKS_@Base 4:4.5.3
 _ZN12Q3HttpHeaderC1Ev@Base 4:4.5.3
 _ZN12Q3HttpHeaderC2ERK7QString@Base 4:4.5.3
 _ZN12Q3HttpHeaderC2ERKS_@Base 4:4.5.3
 _ZN12Q3HttpHeaderC2Ev@Base 4:4.5.3
 _ZN12Q3HttpHeaderD0Ev@Base 4:4.5.3
 _ZN12Q3HttpHeaderD1Ev@Base 4:4.5.3
 _ZN12Q3HttpHeaderD2Ev@Base 4:4.5.3
 _ZN12Q3HttpHeaderaSERKS_@Base 4:4.5.3
 _ZN12Q3MainWindow10childEventEP11QChildEvent@Base 4:4.5.3
 _ZN12Q3MainWindow10paintEventEP11QPaintEvent@Base 4:4.5.3
 _ZN12Q3MainWindow10setMenuBarEP8QMenuBar@Base 4:4.5.3
 _ZN12Q3MainWindow10setVisibleEb@Base 4:4.5.3
 _ZN12Q3MainWindow11dockingAreaERK6QPoint@Base 4:4.5.3
 _ZN12Q3MainWindow11eventFilterEP7QObjectP6QEvent@Base 4:4.5.3
 _ZN12Q3MainWindow11qt_metacallEN11QMetaObject4CallEiPPv@Base 4:4.5.3
 _ZN12Q3MainWindow11qt_metacastEPKc@Base 4:4.5.3
 _ZN12Q3MainWindow11setUpLayoutEv@Base 4:4.5.3
 _ZN12Q3MainWindow12setStatusBarEP10QStatusBar@Base 4:4.5.3
 _ZN12Q3MainWindow12showDockMenuERK6QPoint@Base 4:4.5.3
 _ZN12Q3MainWindow13addDockWindowEP12Q3DockWindowN2Qt4DockEb@Base 4:4.5.3
 _ZN12Q3MainWindow13addDockWindowEP12Q3DockWindowRK7QStringN2Qt4DockEb@Base 4:4.5.3
 _ZN12Q3MainWindow13hasDockWindowEP12Q3DockWindow@Base 4:4.5.3
 _ZN12Q3MainWindow13triggerLayoutEb@Base 4:4.5.3
 _ZN12Q3MainWindow14moveDockWindowEP12Q3DockWindowN2Qt4DockE@Base 4:4.5.3
 _ZN12Q3MainWindow14moveDockWindowEP12Q3DockWindowN2Qt4DockEbii@Base 4:4.5.3
 _ZN12Q3MainWindow14setAppropriateEP12Q3DockWindowb@Base 4:4.5.3
 _ZN12Q3MainWindow14setDockEnabledEN2Qt4DockEb@Base 4:4.5.3
 _ZN12Q3MainWindow14setDockEnabledEP12Q3DockWindowN2Qt4DockEb@Base 4:4.5.3
 _ZN12Q3MainWindow15menuAboutToShowEv@Base 4:4.5.3
 _ZN12Q3MainWindow15setOpaqueMovingEb@Base 4:4.5.3
 _ZN12Q3MainWindow16removeDockWindowEP12Q3DockWindow@Base 4:4.5.3
 _ZN12Q3MainWindow16setCentralWidgetEP7QWidget@Base 4:4.5.3
 _ZN12Q3MainWindow16setUsesTextLabelEb@Base 4:4.5.3
 _ZN12Q3MainWindow16slotPlaceChangedEv@Base 4:4.5.3
 _ZN12Q3MainWindow16staticMetaObjectE@Base 4:4.5.3
 _ZN12Q3MainWindow17lineUpDockWindowsEb@Base 4:4.5.3
 _ZN12Q3MainWindow17pixmapSizeChangedEb@Base 4:4.5.3
 _ZN12Q3MainWindow17setUsesBigPixmapsEb@Base 4:4.5.3
 _ZN12Q3MainWindow18setDockMenuEnabledEb@Base 4:4.5.3
 _ZN12Q3MainWindow20usesTextLabelChangedEb@Base 4:4.5.3
 _ZN12Q3MainWindow21setDockWindowsMovableEb@Base 4:4.5.3
 _ZN12Q3MainWindow21setRightJustificationEb@Base 4:4.5.3
 _ZN12Q3MainWindow22toolBarPositionChangedEP9Q3ToolBar@Base 4:4.5.3
 _ZN12Q3MainWindow25dockWindowPositionChangedEP12Q3DockWindow@Base 4:4.5.3
 _ZN12Q3MainWindow5eventEP6QEvent@Base 4:4.5.3
 _ZN12Q3MainWindow9customizeEv@Base 4:4.5.3
 _ZN12Q3MainWindow9whatsThisEv@Base 4:4.5.3
 _ZN12Q3MainWindowC1EP7QWidgetPKc6QFlagsIN2Qt10WindowTypeEE@Base 4:4.5.3
 _ZN12Q3MainWindowC2EP7QWidgetPKc6QFlagsIN2Qt10WindowTypeEE@Base 4:4.5.3
 _ZN12Q3MainWindowD0Ev@Base 4:4.5.3
 _ZN12Q3MainWindowD1Ev@Base 4:4.5.3
 _ZN12Q3MainWindowD2Ev@Base 4:4.5.3
 _ZN12Q3PointArray11makeEllipseEiiii@Base 4:4.5.3
 _ZN12Q3PointArray7makeArcEiiiiii@Base 4:4.5.3
 _ZN12Q3PointArray7makeArcEiiiiiiRK7QMatrix@Base 4:4.5.3
 (optional=external|arch=amd64 hurd-i386 i386 kfreebsd-amd64 kfreebsd-i386)_ZN12Q3PointArrayD1Ev@Base 4:4.8.1
 (optional=external|arch=amd64 hurd-i386 i386 kfreebsd-amd64 kfreebsd-i386)_ZN12Q3PointArrayD2Ev@Base 4:4.8.1
 _ZN12Q3ScrollView10fontChangeERK5QFont@Base 4:4.5.3
 _ZN12Q3ScrollView10setEnabledEb@Base 4:4.5.3
 _ZN12Q3ScrollView10setMarginsEiiii@Base 4:4.5.3
 _ZN12Q3ScrollView10setVisibleEb@Base 4:4.5.3
 _ZN12Q3ScrollView10wheelEventEP11QWheelEvent@Base 4:4.5.3
 _ZN12Q3ScrollView11eventFilterEP7QObjectP6QEvent@Base 4:4.5.3
 _ZN12Q3ScrollView11qt_metacallEN11QMetaObject4CallEiPPv@Base 4:4.5.3
 _ZN12Q3ScrollView11qt_metacastEPKc@Base 4:4.5.3
 _ZN12Q3ScrollView11removeChildEP7QObject@Base 4:4.5.3
 _ZN12Q3ScrollView11removeChildEP7QWidget@Base 4:4.5.3
 _ZN12Q3ScrollView11resizeEventEP12QResizeEvent@Base 4:4.5.3
 _ZN12Q3ScrollView11styleChangeER6QStyle@Base 4:4.5.3
 _ZN12Q3ScrollView12drawContentsEP8QPainter@Base 4:4.5.3
 _ZN12Q3ScrollView12drawContentsEP8QPainteriiii@Base 4:4.5.3
 _ZN12Q3ScrollView12frameChangedEv@Base 4:4.5.3
 _ZN12Q3ScrollView12moveContentsEii@Base 4:4.5.3
 _ZN12Q3ScrollView13enableClipperEb@Base 4:4.5.3
 _ZN12Q3ScrollView13ensureVisibleEii@Base 4:4.5.3
 _ZN12Q3ScrollView13ensureVisibleEiiii@Base 4:4.5.3
 _ZN12Q3ScrollView13hbarIsPressedEv@Base 4:4.5.3
 _ZN12Q3ScrollView13vbarIsPressedEv@Base 4:4.5.3
 _ZN12Q3ScrollView14contentsMovingEii@Base 4:4.5.3
 _ZN12Q3ScrollView14hbarIsReleasedEv@Base 4:4.5.3
 _ZN12Q3ScrollView14mouseMoveEventEP11QMouseEvent@Base 4:4.5.3
 _ZN12Q3ScrollView14resizeContentsEii@Base 4:4.5.3
 _ZN12Q3ScrollView14setContentsPosEii@Base 4:4.5.3
 _ZN12Q3ScrollView14updateContentsERK5QRect@Base 4:4.5.3
 _ZN12Q3ScrollView14updateContentsEiiii@Base 4:4.5.3
 _ZN12Q3ScrollView14updateContentsEv@Base 4:4.5.3
 _ZN12Q3ScrollView14vbarIsReleasedEv@Base 4:4.5.3
 _ZN12Q3ScrollView15changeFrameRectERK5QRect@Base 4:4.5.3
 _ZN12Q3ScrollView15mousePressEventEP11QMouseEvent@Base 4:4.5.3
 _ZN12Q3ScrollView15repaintContentsERK5QRectb@Base 4:4.5.3
 _ZN12Q3ScrollView15repaintContentsEb@Base 4:4.5.3
 _ZN12Q3ScrollView15repaintContentsEiiiib@Base 4:4.5.3
 _ZN12Q3ScrollView15setCornerWidgetEP7QWidget@Base 4:4.5.3
 _ZN12Q3ScrollView15setHBarGeometryER10QScrollBariiii@Base 4:4.5.3
 _ZN12Q3ScrollView15setResizePolicyENS_12ResizePolicyE@Base 4:4.5.3
 _ZN12Q3ScrollView15setVBarGeometryER10QScrollBariiii@Base 4:4.5.3
 _ZN12Q3ScrollView16contextMenuEventEP17QContextMenuEvent@Base 4:4.5.3
 _ZN12Q3ScrollView16doDragAutoScrollEv@Base 4:4.5.3
 _ZN12Q3ScrollView16staticMetaObjectE@Base 4:4.5.3
 _ZN12Q3ScrollView16updateScrollBarsEv@Base 4:4.5.3
 _ZN12Q3ScrollView17contentsDropEventEP10QDropEvent@Base 4:4.5.3
 _ZN12Q3ScrollView17mouseReleaseEventEP11QMouseEvent@Base 4:4.5.3
 _ZN12Q3ScrollView17setDragAutoScrollEb@Base 4:4.5.3
 _ZN12Q3ScrollView17setHScrollBarModeENS_13ScrollBarModeE@Base 4:4.5.3
 _ZN12Q3ScrollView17setVScrollBarModeENS_13ScrollBarModeE@Base 4:4.5.3
 _ZN12Q3ScrollView17viewportDropEventEP10QDropEvent@Base 4:4.5.3
 _ZN12Q3ScrollView18contentsWheelEventEP11QWheelEvent@Base 4:4.5.3
 _ZN12Q3ScrollView18drawContentsOffsetEP8QPainteriiiiii@Base 4:4.5.3
 _ZN12Q3ScrollView18focusNextPrevChildEb@Base 4:4.5.3
 _ZN12Q3ScrollView18stopDragAutoScrollEv@Base 4:4.5.3
 _ZN12Q3ScrollView18viewportPaintEventEP11QPaintEvent@Base 4:4.5.3
 _ZN12Q3ScrollView18viewportWheelEventEP11QWheelEvent@Base 4:4.5.3
 _ZN12Q3ScrollView19setStaticBackgroundEb@Base 4:4.5.3
 _ZN12Q3ScrollView19startDragAutoScrollEv@Base 4:4.5.3
 _ZN12Q3ScrollView19viewportResizeEventEP12QResizeEvent@Base 4:4.5.3
 _ZN12Q3ScrollView21contentsDragMoveEventEP14QDragMoveEvent@Base 4:4.5.3
 _ZN12Q3ScrollView21mouseDoubleClickEventEP11QMouseEvent@Base 4:4.5.3
 _ZN12Q3ScrollView21verticalSliderPressedEv@Base 4:4.5.3
 _ZN12Q3ScrollView21viewportDragMoveEventEP14QDragMoveEvent@Base 4:4.5.3
 _ZN12Q3ScrollView22contentsDragEnterEventEP15QDragEnterEvent@Base 4:4.5.3
 _ZN12Q3ScrollView22contentsDragLeaveEventEP15QDragLeaveEvent@Base 4:4.5.3
 _ZN12Q3ScrollView22contentsMouseMoveEventEP11QMouseEvent@Base 4:4.5.3
 _ZN12Q3ScrollView22disableSizeHintCachingEv@Base 4:4.5.3
 _ZN12Q3ScrollView22verticalSliderReleasedEv@Base 4:4.5.3
 _ZN12Q3ScrollView22viewportDragEnterEventEP15QDragEnterEvent@Base 4:4.5.3
 _ZN12Q3ScrollView22viewportDragLeaveEventEP15QDragLeaveEvent@Base 4:4.5.3
 _ZN12Q3ScrollView22viewportMouseMoveEventEP11QMouseEvent@Base 4:4.5.3
 _ZN12Q3ScrollView23contentsMousePressEventEP11QMouseEvent@Base 4:4.5.3
 _ZN12Q3ScrollView23horizontalSliderPressedEv@Base 4:4.5.3
 _ZN12Q3ScrollView23isVerticalSliderPressedEv@Base 4:4.5.3
 _ZN12Q3ScrollView23viewportMousePressEventEP11QMouseEvent@Base 4:4.5.3
 _ZN12Q3ScrollView24contentsContextMenuEventEP17QContextMenuEvent@Base 4:4.5.3
 _ZN12Q3ScrollView24horizontalSliderReleasedEv@Base 4:4.5.3
 _ZN12Q3ScrollView24viewportContextMenuEventEP17QContextMenuEvent@Base 4:4.5.3
 _ZN12Q3ScrollView25contentsMouseReleaseEventEP11QMouseEvent@Base 4:4.5.3
 _ZN12Q3ScrollView25isHorizontalSliderPressedEv@Base 4:4.5.3
 _ZN12Q3ScrollView25viewportMouseReleaseEventEP11QMouseEvent@Base 4:4.5.3
 _ZN12Q3ScrollView29contentsMouseDoubleClickEventEP11QMouseEvent@Base 4:4.5.3
 _ZN12Q3ScrollView29viewportMouseDoubleClickEventEP11QMouseEvent@Base 4:4.5.3
 _ZN12Q3ScrollView6centerEii@Base 4:4.5.3
 _ZN12Q3ScrollView6centerEiiff@Base 4:4.5.3
 _ZN12Q3ScrollView6childXEP7QWidget@Base 4:4.5.3
 _ZN12Q3ScrollView6childYEP7QWidget@Base 4:4.5.3
 _ZN12Q3ScrollView6hslideEi@Base 4:4.5.3
 _ZN12Q3ScrollView6resizeERK5QSize@Base 4:4.5.3
 _ZN12Q3ScrollView6resizeEii@Base 4:4.5.3
 _ZN12Q3ScrollView6vslideEi@Base 4:4.5.3
 _ZN12Q3ScrollView8addChildEP7QWidgetii@Base 4:4.5.3
 _ZN12Q3ScrollView8scrollByEii@Base 4:4.5.3
 _ZN12Q3ScrollView9moveChildEP7QWidgetii@Base 4:4.5.3
 _ZN12Q3ScrollViewC1EP7QWidgetPKc6QFlagsIN2Qt10WindowTypeEE@Base 4:4.5.3
 _ZN12Q3ScrollViewC2EP7QWidgetPKc6QFlagsIN2Qt10WindowTypeEE@Base 4:4.5.3
 _ZN12Q3ScrollViewD0Ev@Base 4:4.5.3
 _ZN12Q3ScrollViewD1Ev@Base 4:4.5.3
 _ZN12Q3ScrollViewD2Ev@Base 4:4.5.3
 _ZN12Q3SpinWidget10editWidgetEv@Base 4:4.5.3
 _ZN12Q3SpinWidget10paintEventEP11QPaintEvent@Base 4:4.5.3
 _ZN12Q3SpinWidget10wheelEventEP11QWheelEvent@Base 4:4.5.3
 _ZN12Q3SpinWidget11changeEventEP6QEvent@Base 4:4.5.3
 _ZN12Q3SpinWidget11qt_metacallEN11QMetaObject4CallEiPPv@Base 4:4.5.3
 _ZN12Q3SpinWidget11qt_metacastEPKc@Base 4:4.5.3
 _ZN12Q3SpinWidget11resizeEventEP12QResizeEvent@Base 4:4.5.3
 _ZN12Q3SpinWidget11timerDoneExEv@Base 4:4.5.3
 _ZN12Q3SpinWidget12setUpEnabledEb@Base 4:4.5.3
 _ZN12Q3SpinWidget13setEditWidgetEP7QWidget@Base 4:4.5.3
 _ZN12Q3SpinWidget13stepUpPressedEv@Base 4:4.5.3
 _ZN12Q3SpinWidget13updateDisplayEv@Base 4:4.5.3
 _ZN12Q3SpinWidget14mouseMoveEventEP11QMouseEvent@Base 4:4.5.3
 _ZN12Q3SpinWidget14setDownEnabledEb@Base 4:4.5.3
 _ZN12Q3SpinWidget15mousePressEventEP11QMouseEvent@Base 4:4.5.3
 _ZN12Q3SpinWidget15stepDownPressedEv@Base 4:4.5.3
 _ZN12Q3SpinWidget16setButtonSymbolsENS_13ButtonSymbolsE@Base 4:4.5.3
 _ZN12Q3SpinWidget16staticMetaObjectE@Base 4:4.5.3
 _ZN12Q3SpinWidget17mouseReleaseEventEP11QMouseEvent@Base 4:4.5.3
 _ZN12Q3SpinWidget6stepUpEv@Base 4:4.5.3
 _ZN12Q3SpinWidget7arrangeEv@Base 4:4.5.3
 _ZN12Q3SpinWidget8stepDownEv@Base 4:4.5.3
 _ZN12Q3SpinWidget9timerDoneEv@Base 4:4.5.3
 _ZN12Q3SpinWidgetC1EP7QWidgetPKc@Base 4:4.5.3
 _ZN12Q3SpinWidgetC2EP7QWidgetPKc@Base 4:4.5.3
 _ZN12Q3SpinWidgetD0Ev@Base 4:4.5.3
 _ZN12Q3SpinWidgetD1Ev@Base 4:4.5.3
 _ZN12Q3SpinWidgetD2Ev@Base 4:4.5.3
 _ZN12Q3StoredDrag11qt_metacallEN11QMetaObject4CallEiPPv@Base 4:4.5.3
 _ZN12Q3StoredDrag11qt_metacastEPKc@Base 4:4.5.3
 _ZN12Q3StoredDrag14setEncodedDataERK10QByteArray@Base 4:4.5.3
 _ZN12Q3StoredDrag16staticMetaObjectE@Base 4:4.5.3
 _ZN12Q3StoredDragC1EPKcP7QWidgetS1_@Base 4:4.5.3
 _ZN12Q3StoredDragC1ER19Q3StoredDragPrivatePKcP7QWidget@Base 4:4.5.3
 _ZN12Q3StoredDragC2EPKcP7QWidgetS1_@Base 4:4.5.3
 _ZN12Q3StoredDragC2ER19Q3StoredDragPrivatePKcP7QWidget@Base 4:4.5.3
 _ZN12Q3StoredDragD0Ev@Base 4:4.5.3
 _ZN12Q3StoredDragD1Ev@Base 4:4.5.3
 _ZN12Q3StoredDragD2Ev@Base 4:4.5.3
 _ZN12Q3StyleSheet11qt_metacallEN11QMetaObject4CallEiPPv@Base 4:4.5.3
 _ZN12Q3StyleSheet11qt_metacastEPKc@Base 4:4.5.3
 _ZN12Q3StyleSheet12defaultSheetEv@Base 4:4.5.3
 _ZN12Q3StyleSheet15mightBeRichTextERK7QString@Base 4:4.5.3
 _ZN12Q3StyleSheet15setDefaultSheetEPS_@Base 4:4.5.3
 _ZN12Q3StyleSheet16staticMetaObjectE@Base 4:4.5.3
 _ZN12Q3StyleSheet20convertFromPlainTextERK7QStringN16Q3StyleSheetItem14WhiteSpaceModeE@Base 4:4.5.3
 _ZN12Q3StyleSheet4initEv@Base 4:4.5.3
 _ZN12Q3StyleSheet4itemERK7QString@Base 4:4.5.3
 _ZN12Q3StyleSheet6escapeERK7QString@Base 4:4.5.3
 _ZN12Q3StyleSheet6insertEP16Q3StyleSheetItem@Base 4:4.5.3
 _ZN12Q3StyleSheetC1EP7QObjectPKc@Base 4:4.5.3
 _ZN12Q3StyleSheetC2EP7QObjectPKc@Base 4:4.5.3
 _ZN12Q3StyleSheetD0Ev@Base 4:4.5.3
 _ZN12Q3StyleSheetD1Ev@Base 4:4.5.3
 _ZN12Q3StyleSheetD2Ev@Base 4:4.5.3
 _ZN12Q3TextCursor10atParagEndEv@Base 4:4.5.3
 _ZN12Q3TextCursor10gotoPageUpEi@Base 4:4.5.3
 _ZN12Q3TextCursor11gotoLineEndEv@Base 4:4.5.3
 _ZN12Q3TextCursor12atParagStartEv@Base 4:4.5.3
 _ZN12Q3TextCursor12gotoNextWordEb@Base 4:4.5.3
 _ZN12Q3TextCursor12gotoPageDownEi@Base 4:4.5.3
 _ZN12Q3TextCursor12gotoPositionEP15Q3TextParagraphi@Base 4:4.5.3
 _ZN12Q3TextCursor12gotoWordLeftEv@Base 4:4.5.3
 _ZN12Q3TextCursor12restoreStateEv@Base 4:4.5.3
 _ZN12Q3TextCursor13gotoLineStartEv@Base 4:4.5.3
 _ZN12Q3TextCursor13gotoWordRightEv@Base 4:4.5.3
 _ZN12Q3TextCursor14gotoIntoNestedERK6QPoint@Base 4:4.5.3
 _ZN12Q3TextCursor14gotoNextLetterEv@Base 4:4.5.3
 _ZN12Q3TextCursor14processNestingENS_9OperationE@Base 4:4.5.3
 _ZN12Q3TextCursor16gotoPreviousWordEb@Base 4:4.5.3
 _ZN12Q3TextCursor16invalidateNestedEv@Base 4:4.5.3
 _ZN12Q3TextCursor17fixCursorPositionEv@Base 4:4.5.3
 _ZN12Q3TextCursor18gotoPreviousLetterEv@Base 4:4.5.3
 _ZN12Q3TextCursor18removePreviousCharEv@Base 4:4.5.3
 _ZN12Q3TextCursor28splitAndInsertEmptyParagraphEbb@Base 4:4.5.3
 _ZN12Q3TextCursor3popEv@Base 4:4.5.3
 _ZN12Q3TextCursor4pushEv@Base 4:4.5.3
 _ZN12Q3TextCursor5placeERK6QPointP15Q3TextParagraphb@Base 4:4.5.3
 _ZN12Q3TextCursor6gotoUpEv@Base 4:4.5.3
 _ZN12Q3TextCursor6indentEv@Base 4:4.5.3
 _ZN12Q3TextCursor6insertERK7QStringbP7QVectorI16Q3TextStringCharE@Base 4:4.5.3
 _ZN12Q3TextCursor6removeEv@Base 4:4.5.3
 _ZN12Q3TextCursor7gotoEndEv@Base 4:4.5.3
 _ZN12Q3TextCursor8gotoDownEv@Base 4:4.5.3
 _ZN12Q3TextCursor8gotoHomeEv@Base 4:4.5.3
 _ZN12Q3TextCursor8gotoLeftEv@Base 4:4.5.3
 _ZN12Q3TextCursor9gotoRightEv@Base 4:4.5.3
 _ZN12Q3TextCursorC1EP14Q3TextDocument@Base 4:4.5.3
 _ZN12Q3TextCursorC1ERKS_@Base 4:4.5.3
 _ZN12Q3TextCursorC2EP14Q3TextDocument@Base 4:4.5.3
 _ZN12Q3TextCursorC2ERKS_@Base 4:4.5.3
 _ZN12Q3TextCursorD0Ev@Base 4:4.5.3
 _ZN12Q3TextCursorD1Ev@Base 4:4.5.3
 _ZN12Q3TextCursorD2Ev@Base 4:4.5.3
 _ZN12Q3TextCursoraSERKS_@Base 4:4.5.3
 _ZN12Q3TextFormat10setPainterEP8QPainter@Base 4:4.5.3
 _ZN12Q3TextFormat11generateKeyEv@Base 4:4.5.3
 _ZN12Q3TextFormat12setPointSizeEi@Base 4:4.5.3
 _ZN12Q3TextFormat12setStrikeOutEb@Base 4:4.5.3
 _ZN12Q3TextFormat12setUnderlineEb@Base 4:4.5.3
 _ZN12Q3TextFormat13setMisspelledEb@Base 4:4.5.3
 _ZN12Q3TextFormat4pntrE@Base 4:4.5.3
 _ZN12Q3TextFormat6getKeyERK5QFontRK6QColorbNS_17VerticalAlignmentE@Base 4:4.5.3
 _ZN12Q3TextFormat6updateEv@Base 4:4.5.3
 _ZN12Q3TextFormat7painterEv@Base 4:4.5.3
 _ZN12Q3TextFormat7pntr_fmE@Base 4:4.5.3
 _ZN12Q3TextFormat7setBoldEb@Base 4:4.5.3
 _ZN12Q3TextFormat7setFontERK5QFont@Base 4:4.5.3
 _ZN12Q3TextFormat8pntr_ascE@Base 4:4.5.3
 _ZN12Q3TextFormat8pntr_dscE@Base 4:4.5.3
 _ZN12Q3TextFormat8pntr_heiE@Base 4:4.5.3
 _ZN12Q3TextFormat8pntr_ldgE@Base 4:4.5.3
 _ZN12Q3TextFormat8setColorERK6QColor@Base 4:4.5.3
 _ZN12Q3TextFormat9applyFontERK5QFont@Base 4:4.5.3
 _ZN12Q3TextFormat9setFamilyERK7QString@Base 4:4.5.3
 _ZN12Q3TextFormat9setItalicEb@Base 4:4.5.3
 _ZN12Q3TextFormat9setVAlignENS_17VerticalAlignmentE@Base 4:4.5.3
 _ZN12Q3TextFormatC1EPK16Q3StyleSheetItem@Base 4:4.5.3
 _ZN12Q3TextFormatC1ERK5QFontRK6QColorP22Q3TextFormatCollection@Base 4:4.5.3
 _ZN12Q3TextFormatC1ERKS_@Base 4:4.5.3
 _ZN12Q3TextFormatC1Ev@Base 4:4.5.3
 _ZN12Q3TextFormatC2EPK16Q3StyleSheetItem@Base 4:4.5.3
 _ZN12Q3TextFormatC2ERK5QFontRK6QColorP22Q3TextFormatCollection@Base 4:4.5.3
 _ZN12Q3TextFormatC2ERKS_@Base 4:4.5.3
 _ZN12Q3TextFormatC2Ev@Base 4:4.5.3
 _ZN12Q3TextFormatD0Ev@Base 4:4.5.3
 _ZN12Q3TextFormatD1Ev@Base 4:4.5.3
 _ZN12Q3TextFormatD2Ev@Base 4:4.5.3
 _ZN12Q3TextFormataSERKS_@Base 4:4.5.3
 _ZN12Q3TextIndentC1Ev@Base 4:4.5.3
 _ZN12Q3TextIndentC2Ev@Base 4:4.5.3
 _ZN12Q3TextStream10floatfieldE@Base 4:4.5.3
 _ZN12Q3TextStream10output_intEimb@Base 4:4.5.3
 _ZN12Q3TextStream10ts_getlineEP5QChar@Base 4:4.5.3
 _ZN12Q3TextStream10ts_isdigitE5QChar@Base 4:4.5.3
 _ZN12Q3TextStream10ts_isspaceE5QChar@Base 4:4.5.3
 _ZN12Q3TextStream10writeBlockEPK5QCharj@Base 4:4.5.3
 _ZN12Q3TextStream10writeBlockEPKcj@Base 4:4.5.3
 _ZN12Q3TextStream11adjustfieldE@Base 4:4.5.3
 _ZN12Q3TextStream11setEncodingENS_8EncodingE@Base 4:4.5.3
 _ZN12Q3TextStream11unsetDeviceEv@Base 4:4.5.3
 _ZN12Q3TextStream12input_doubleEv@Base 4:4.5.3
 _ZN12Q3TextStream12readRawBytesEPcj@Base 4:4.5.3
 _ZN12Q3TextStream13writeRawBytesEPKcj@Base 4:4.5.3
 _ZN12Q3TextStream14skipWhiteSpaceEv@Base 4:4.5.3
 _ZN12Q3TextStream4initEv@Base 4:4.5.3
 _ZN12Q3TextStream4readEv@Base 4:4.5.3
 _ZN12Q3TextStream5codecEv@Base 4:4.5.3
 _ZN12Q3TextStream5resetEv@Base 4:4.5.3
 _ZN12Q3TextStream6eat_wsEv@Base 4:4.5.3
 _ZN12Q3TextStream7ts_putcE5QChar@Base 4:4.5.3
 _ZN12Q3TextStream7ts_putcEi@Base 4:4.5.3
 _ZN12Q3TextStream8readLineEv@Base 4:4.5.3
 _ZN12Q3TextStream8setCodecEP10QTextCodec@Base 4:4.5.3
 _ZN12Q3TextStream9basefieldE@Base 4:4.5.3
 _ZN12Q3TextStream9input_binEv@Base 4:4.5.3
 _ZN12Q3TextStream9input_decEv@Base 4:4.5.3
 _ZN12Q3TextStream9input_hexEv@Base 4:4.5.3
 _ZN12Q3TextStream9input_intEv@Base 4:4.5.3
 _ZN12Q3TextStream9input_octEv@Base 4:4.5.3
 _ZN12Q3TextStream9setDeviceEP9QIODevice@Base 4:4.5.3
 _ZN12Q3TextStream9ts_getbufEP5QCharj@Base 4:4.5.3
 _ZN12Q3TextStream9ts_ungetcE5QChar@Base 4:4.5.3
 _ZN12Q3TextStreamC1EP7QStringi@Base 4:4.5.3
 _ZN12Q3TextStreamC1EP8_IO_FILEi@Base 4:4.5.3
 _ZN12Q3TextStreamC1EP9QIODevice@Base 4:4.5.3
 _ZN12Q3TextStreamC1ER10QByteArrayi@Base 4:4.5.3
 _ZN12Q3TextStreamC1ER7QStringi@Base 4:4.5.3
 _ZN12Q3TextStreamC1Ev@Base 4:4.5.3
 _ZN12Q3TextStreamC2EP7QStringi@Base 4:4.5.3
 _ZN12Q3TextStreamC2EP8_IO_FILEi@Base 4:4.5.3
 _ZN12Q3TextStreamC2EP9QIODevice@Base 4:4.5.3
 _ZN12Q3TextStreamC2ER10QByteArrayi@Base 4:4.5.3
 _ZN12Q3TextStreamC2ER7QStringi@Base 4:4.5.3
 _ZN12Q3TextStreamC2Ev@Base 4:4.5.3
 _ZN12Q3TextStreamD0Ev@Base 4:4.5.3
 _ZN12Q3TextStreamD1Ev@Base 4:4.5.3
 _ZN12Q3TextStreamD2Ev@Base 4:4.5.3
 _ZN12Q3TextStreamlsE5QChar@Base 4:4.5.3
 _ZN12Q3TextStreamlsEPKc@Base 4:4.5.3
 _ZN12Q3TextStreamlsEPv@Base 4:4.5.3
 _ZN12Q3TextStreamlsERK7QString@Base 4:4.5.3
 _ZN12Q3TextStreamlsERK9Q3CString@Base 4:4.5.3
 _ZN12Q3TextStreamlsEc@Base 4:4.5.3
 _ZN12Q3TextStreamlsEd@Base 4:4.5.3
 _ZN12Q3TextStreamlsEf@Base 4:4.5.3
 _ZN12Q3TextStreamlsEi@Base 4:4.5.3
 _ZN12Q3TextStreamlsEj@Base 4:4.5.3
 _ZN12Q3TextStreamlsEl@Base 4:4.5.3
 _ZN12Q3TextStreamlsEm@Base 4:4.5.3
 _ZN12Q3TextStreamlsEs@Base 4:4.5.3
 _ZN12Q3TextStreamlsEt@Base 4:4.5.3
 _ZN12Q3TextStreamrsEPc@Base 4:4.5.3
 _ZN12Q3TextStreamrsER5QChar@Base 4:4.5.3
 _ZN12Q3TextStreamrsER7QString@Base 4:4.5.3
 _ZN12Q3TextStreamrsER9Q3CString@Base 4:4.5.3
 _ZN12Q3TextStreamrsERc@Base 4:4.5.3
 _ZN12Q3TextStreamrsERd@Base 4:4.5.3
 _ZN12Q3TextStreamrsERf@Base 4:4.5.3
 _ZN12Q3TextStreamrsERi@Base 4:4.5.3
 _ZN12Q3TextStreamrsERj@Base 4:4.5.3
 _ZN12Q3TextStreamrsERl@Base 4:4.5.3
 _ZN12Q3TextStreamrsERm@Base 4:4.5.3
 _ZN12Q3TextStreamrsERs@Base 4:4.5.3
 _ZN12Q3TextStreamrsERt@Base 4:4.5.3
 _ZN12Q3TextString16appendParagraphsEP15Q3TextParagraphS1_@Base 4:4.5.3
 (arch=armel armhf mips mipsel powerpc s390 s390x sparc)_ZN12Q3TextString18nextCursorPositionEi@Base 4:4.8.1
 (arch=armel armhf mips mipsel powerpc s390 s390x sparc)_ZN12Q3TextString22previousCursorPositionEi@Base 4:4.8.1
 _ZN12Q3TextString5clearEv@Base 4:4.5.3
 _ZN12Q3TextString6insertEiP16Q3TextStringCharb@Base 4:4.5.3
 _ZN12Q3TextString6insertEiPK5QChariP12Q3TextFormat@Base 4:4.5.3
 _ZN12Q3TextString6insertEiRK7QStringP12Q3TextFormat@Base 4:4.5.3
 _ZN12Q3TextString6removeEii@Base 4:4.5.3
 _ZN12Q3TextString8toStringERK7QVectorI16Q3TextStringCharE@Base 4:4.5.3
 _ZN12Q3TextString8truncateEi@Base 4:4.5.3
 _ZN12Q3TextString9setFormatEiP12Q3TextFormatb@Base 4:4.5.3
 _ZN12Q3TextStringC1ERKS_@Base 4:4.5.3
 _ZN12Q3TextStringC1Ev@Base 4:4.5.3
 _ZN12Q3TextStringC2ERKS_@Base 4:4.5.3
 _ZN12Q3TextStringC2Ev@Base 4:4.5.3
 _ZN12Q3TextStringD0Ev@Base 4:4.5.3
 _ZN12Q3TextStringD1Ev@Base 4:4.5.3
 _ZN12Q3TextStringD2Ev@Base 4:4.5.3
 (arch=!armel !armhf)_ZN12QDashStroker3endEv@Base 4:4.5.3
 (arch=!armel !armhf)_ZN12QDashStroker5beginEPv@Base 4:4.5.3
 (arch=!armel !armhf)_ZN12QDashStrokerD0Ev@Base 4:4.7.4
 (arch=!armel !armhf)_ZN12QDashStrokerD1Ev@Base 4:4.7.4
 (arch=!armel !armhf)_ZN12QDashStrokerD2Ev@Base 4:4.7.4
 _ZN13Q3ActionGroup10childEventEP11QChildEvent@Base 4:4.5.3
 _ZN13Q3ActionGroup10removeFromEP7QWidget@Base 4:4.5.3
 _ZN13Q3ActionGroup10setEnabledEb@Base 4:4.5.3
 _ZN13Q3ActionGroup10setIconSetERK5QIcon@Base 4:4.5.3
 _ZN13Q3ActionGroup10setToolTipERK7QString@Base 4:4.5.3
 _ZN13Q3ActionGroup10setVisibleEb@Base 4:4.5.3
 _ZN13Q3ActionGroup11qt_metacallEN11QMetaObject4CallEiPPv@Base 4:4.5.3
 _ZN13Q3ActionGroup11qt_metacastEPKc@Base 4:4.5.3
 _ZN13Q3ActionGroup11setMenuTextERK7QString@Base 4:4.5.3
 _ZN13Q3ActionGroup12addSeparatorEv@Base 4:4.5.3
 _ZN13Q3ActionGroup12childToggledEb@Base 4:4.5.3
 _ZN13Q3ActionGroup12setExclusiveEb@Base 4:4.5.3
 _ZN13Q3ActionGroup12setWhatsThisERK7QString@Base 4:4.5.3
 _ZN13Q3ActionGroup14childActivatedEv@Base 4:4.5.3
 _ZN13Q3ActionGroup14childDestroyedEv@Base 4:4.5.3
 _ZN13Q3ActionGroup14internalToggleEP8Q3Action@Base 4:4.5.3
 _ZN13Q3ActionGroup15objectDestroyedEv@Base 4:4.5.3
 _ZN13Q3ActionGroup15setToggleActionEb@Base 4:4.5.3
 _ZN13Q3ActionGroup15setUsesDropDownEb@Base 4:4.5.3
 _ZN13Q3ActionGroup16staticMetaObjectE@Base 4:4.5.3
 _ZN13Q3ActionGroup25internalComboBoxActivatedEi@Base 4:4.5.3
 _ZN13Q3ActionGroup27internalComboBoxHighlightedEi@Base 4:4.5.3
 _ZN13Q3ActionGroup3addEP8Q3Action@Base 4:4.5.3
 _ZN13Q3ActionGroup5addToEP7QWidget@Base 4:4.5.3
 _ZN13Q3ActionGroup5setOnEb@Base 4:4.5.3
 _ZN13Q3ActionGroup7addedToEP7QWidgetS1_@Base 4:4.5.3
 _ZN13Q3ActionGroup7addedToEP7QWidgetS1_P8Q3Action@Base 4:4.5.3
 _ZN13Q3ActionGroup7addedToEiP11Q3PopupMenu@Base 4:4.5.3
 _ZN13Q3ActionGroup7addedToEiP11Q3PopupMenuP8Q3Action@Base 4:4.5.3
 _ZN13Q3ActionGroup7setTextERK7QString@Base 4:4.5.3
 _ZN13Q3ActionGroup8selectedEP8Q3Action@Base 4:4.5.3
 _ZN13Q3ActionGroup9activatedEP8Q3Action@Base 4:4.5.3
 _ZN13Q3ActionGroupC1EP7QObjectPKc@Base 4:4.5.3
 _ZN13Q3ActionGroupC1EP7QObjectPKcb@Base 4:4.5.3
 _ZN13Q3ActionGroupC2EP7QObjectPKc@Base 4:4.5.3
 _ZN13Q3ActionGroupC2EP7QObjectPKcb@Base 4:4.5.3
 _ZN13Q3ActionGroupD0Ev@Base 4:4.5.3
 _ZN13Q3ActionGroupD1Ev@Base 4:4.5.3
 _ZN13Q3ActionGroupD2Ev@Base 4:4.5.3
 _ZN13Q3ButtonGroup11qt_metacallEN11QMetaObject4CallEiPPv@Base 4:4.5.3
 _ZN13Q3ButtonGroup11qt_metacastEPKc@Base 4:4.5.3
 _ZN13Q3ButtonGroup12setExclusiveEb@Base 4:4.5.3
 _ZN13Q3ButtonGroup13buttonClickedEv@Base 4:4.5.3
 _ZN13Q3ButtonGroup13buttonPressedEv@Base 4:4.5.3
 _ZN13Q3ButtonGroup13insert_helperEP15QAbstractButtoni@Base 4:4.5.3
 _ZN13Q3ButtonGroup13remove_helperEP15QAbstractButton@Base 4:4.5.3
 _ZN13Q3ButtonGroup14buttonReleasedEv@Base 4:4.5.3
 _ZN13Q3ButtonGroup15buttonDestroyedEv@Base 4:4.5.3
 _ZN13Q3ButtonGroup16staticMetaObjectE@Base 4:4.5.3
 _ZN13Q3ButtonGroup23setRadioButtonExclusiveEb@Base 4:4.5.3
 _ZN13Q3ButtonGroup4initEv@Base 4:4.5.3
 _ZN13Q3ButtonGroup5eventEP6QEvent@Base 4:4.5.3
 _ZN13Q3ButtonGroup6insertEP15QAbstractButtoni@Base 4:4.5.3
 _ZN13Q3ButtonGroup6removeEP15QAbstractButton@Base 4:4.5.3
 _ZN13Q3ButtonGroup7clickedEi@Base 4:4.5.3
 _ZN13Q3ButtonGroup7pressedEi@Base 4:4.5.3
 _ZN13Q3ButtonGroup8releasedEi@Base 4:4.5.3
 _ZN13Q3ButtonGroup9setButtonEi@Base 4:4.5.3
 _ZN13Q3ButtonGroupC1EP7QWidgetPKc@Base 4:4.5.3
 _ZN13Q3ButtonGroupC1ERK7QStringP7QWidgetPKc@Base 4:4.5.3
 _ZN13Q3ButtonGroupC1EiN2Qt11OrientationEP7QWidgetPKc@Base 4:4.5.3
 _ZN13Q3ButtonGroupC1EiN2Qt11OrientationERK7QStringP7QWidgetPKc@Base 4:4.5.3
 _ZN13Q3ButtonGroupC2EP7QWidgetPKc@Base 4:4.5.3
 _ZN13Q3ButtonGroupC2ERK7QStringP7QWidgetPKc@Base 4:4.5.3
 _ZN13Q3ButtonGroupC2EiN2Qt11OrientationEP7QWidgetPKc@Base 4:4.5.3
 _ZN13Q3ButtonGroupC2EiN2Qt11OrientationERK7QStringP7QWidgetPKc@Base 4:4.5.3
 _ZN13Q3ButtonGroupD0Ev@Base 4:4.5.3
 _ZN13Q3ButtonGroupD1Ev@Base 4:4.5.3
 _ZN13Q3ButtonGroupD2Ev@Base 4:4.5.3
 _ZN13Q3DataBrowser10readFieldsEv@Base 4:4.5.3
 _ZN13Q3DataBrowser11clearValuesEv@Base 4:4.5.3
 _ZN13Q3DataBrowser11confirmEditEN4QSql2OpE@Base 4:4.5.3
 _ZN13Q3DataBrowser11handleErrorERK9QSqlError@Base 4:4.5.3
 _ZN13Q3DataBrowser11primeDeleteEP10QSqlRecord@Base 4:4.5.3
 _ZN13Q3DataBrowser11primeInsertEP10QSqlRecord@Base 4:4.5.3
 _ZN13Q3DataBrowser11primeUpdateEP10QSqlRecord@Base 4:4.5.3
 _ZN13Q3DataBrowser11qt_metacallEN11QMetaObject4CallEiPPv@Base 4:4.5.3
 _ZN13Q3DataBrowser11qt_metacastEPKc@Base 4:4.5.3
 _ZN13Q3DataBrowser11setAutoEditEb@Base 4:4.5.3
 _ZN13Q3DataBrowser11setReadOnlyEb@Base 4:4.5.3
 _ZN13Q3DataBrowser11writeFieldsEv@Base 4:4.5.3
 _ZN13Q3DataBrowser12beforeDeleteEP10QSqlRecord@Base 4:4.5.3
 _ZN13Q3DataBrowser12beforeInsertEP10QSqlRecord@Base 4:4.5.3
 _ZN13Q3DataBrowser12beforeUpdateEP10QSqlRecord@Base 4:4.5.3
 _ZN13Q3DataBrowser12setSqlCursorEP11Q3SqlCursorb@Base 4:4.5.3
 _ZN13Q3DataBrowser13confirmCancelEN4QSql2OpE@Base 4:4.5.3
 _ZN13Q3DataBrowser13currentEditedEv@Base 4:4.5.3
 _ZN13Q3DataBrowser13cursorChangedEN11Q3SqlCursor4ModeE@Base 4:4.5.3
 _ZN13Q3DataBrowser13deleteCurrentEv@Base 4:4.5.3
 _ZN13Q3DataBrowser13insertCurrentEv@Base 4:4.5.3
 _ZN13Q3DataBrowser13updateCurrentEv@Base 4:4.5.3
 _ZN13Q3DataBrowser14currentChangedEPK10QSqlRecord@Base 4:4.5.3
 _ZN13Q3DataBrowser14updateBoundaryEv@Base 4:4.5.3
 _ZN13Q3DataBrowser15setConfirmEditsEb@Base 4:4.5.3
 _ZN13Q3DataBrowser16setConfirmDeleteEb@Base 4:4.5.3
 _ZN13Q3DataBrowser16setConfirmInsertEb@Base 4:4.5.3
 _ZN13Q3DataBrowser16setConfirmUpdateEb@Base 4:4.5.3
 _ZN13Q3DataBrowser16staticMetaObjectE@Base 4:4.5.3
 _ZN13Q3DataBrowser17setConfirmCancelsEb@Base 4:4.5.3
 _ZN13Q3DataBrowser19lastRecordAvailableEb@Base 4:4.5.3
 _ZN13Q3DataBrowser19nextRecordAvailableEb@Base 4:4.5.3
 _ZN13Q3DataBrowser19prevRecordAvailableEb@Base 4:4.5.3
 _ZN13Q3DataBrowser19setBoundaryCheckingEb@Base 4:4.5.3
 _ZN13Q3DataBrowser20firstRecordAvailableEb@Base 4:4.5.3
 _ZN13Q3DataBrowser3delEv@Base 4:4.5.3
 _ZN13Q3DataBrowser3navEM11Q3SqlCursorFbvE@Base 4:4.5.3
 _ZN13Q3DataBrowser4formEv@Base 4:4.5.3
 _ZN13Q3DataBrowser4lastEv@Base 4:4.5.3
 _ZN13Q3DataBrowser4nextEv@Base 4:4.5.3
 _ZN13Q3DataBrowser4prevEv@Base 4:4.5.3
 _ZN13Q3DataBrowser4seekEib@Base 4:4.5.3
 _ZN13Q3DataBrowser5firstEv@Base 4:4.5.3
 _ZN13Q3DataBrowser6insertEv@Base 4:4.5.3
 _ZN13Q3DataBrowser6preNavEv@Base 4:4.5.3
 _ZN13Q3DataBrowser6updateEv@Base 4:4.5.3
 _ZN13Q3DataBrowser7postNavEb@Base 4:4.5.3
 _ZN13Q3DataBrowser7refreshEv@Base 4:4.5.3
 _ZN13Q3DataBrowser7setFormEP9Q3SqlForm@Base 4:4.5.3
 _ZN13Q3DataBrowser7setSortERK11QStringList@Base 4:4.5.3
 _ZN13Q3DataBrowser7setSortERK9QSqlIndex@Base 4:4.5.3
 _ZN13Q3DataBrowser8boundaryEv@Base 4:4.5.3
 _ZN13Q3DataBrowser9setFilterERK7QString@Base 4:4.5.3
 _ZN13Q3DataBrowserC1EP7QWidgetPKc6QFlagsIN2Qt10WindowTypeEE@Base 4:4.5.3
 _ZN13Q3DataBrowserC2EP7QWidgetPKc6QFlagsIN2Qt10WindowTypeEE@Base 4:4.5.3
 _ZN13Q3DataBrowserD0Ev@Base 4:4.5.3
 _ZN13Q3DataBrowserD1Ev@Base 4:4.5.3
 _ZN13Q3DataBrowserD2Ev@Base 4:4.5.3
 _ZN13Q3DataManager11confirmEditEP7QWidgetN4QSql2OpE@Base 4:4.5.3
 _ZN13Q3DataManager11handleErrorEP7QWidgetRK9QSqlError@Base 4:4.5.3
 _ZN13Q3DataManager11setAutoEditEb@Base 4:4.5.3
 _ZN13Q3DataManager13confirmCancelEP7QWidgetN4QSql2OpE@Base 4:4.5.3
 _ZN13Q3DataManager15setConfirmEditsEb@Base 4:4.5.3
 _ZN13Q3DataManager16setConfirmDeleteEb@Base 4:4.5.3
 _ZN13Q3DataManager16setConfirmInsertEb@Base 4:4.5.3
 _ZN13Q3DataManager16setConfirmUpdateEb@Base 4:4.5.3
 _ZN13Q3DataManager17setConfirmCancelsEb@Base 4:4.5.3
 _ZN13Q3DataManager7setModeEN4QSql2OpE@Base 4:4.5.3
 _ZN13Q3DataManagerC1Ev@Base 4:4.5.3
 _ZN13Q3DataManagerC2Ev@Base 4:4.5.3
 _ZN13Q3DataManagerD0Ev@Base 4:4.5.3
 _ZN13Q3DataManagerD1Ev@Base 4:4.5.3
 _ZN13Q3DataManagerD2Ev@Base 4:4.5.3
 _ZN13Q3FilePreviewC1Ev@Base 4:4.5.3
 _ZN13Q3FilePreviewC2Ev@Base 4:4.5.3
 _ZN13Q3ListBoxItem21setCustomHighlightingEb@Base 4:4.5.3
 _ZN13Q3ListBoxItemC1EP9Q3ListBox@Base 4:4.5.3
 _ZN13Q3ListBoxItemC1EP9Q3ListBoxPS_@Base 4:4.5.3
 _ZN13Q3ListBoxItemC2EP9Q3ListBox@Base 4:4.5.3
 _ZN13Q3ListBoxItemC2EP9Q3ListBoxPS_@Base 4:4.5.3
 _ZN13Q3ListBoxItemD0Ev@Base 4:4.5.3
 _ZN13Q3ListBoxItemD1Ev@Base 4:4.5.3
 _ZN13Q3ListBoxItemD2Ev@Base 4:4.5.3
 _ZN13Q3ListBoxText5paintEP8QPainter@Base 4:4.5.3
 _ZN13Q3ListBoxTextC1EP9Q3ListBoxRK7QString@Base 4:4.5.3
 _ZN13Q3ListBoxTextC1EP9Q3ListBoxRK7QStringP13Q3ListBoxItem@Base 4:4.5.3
 _ZN13Q3ListBoxTextC1ERK7QString@Base 4:4.5.3
 _ZN13Q3ListBoxTextC2EP9Q3ListBoxRK7QString@Base 4:4.5.3
 _ZN13Q3ListBoxTextC2EP9Q3ListBoxRK7QStringP13Q3ListBoxItem@Base 4:4.5.3
 _ZN13Q3ListBoxTextC2ERK7QString@Base 4:4.5.3
 _ZN13Q3ListBoxTextD0Ev@Base 4:4.5.3
 _ZN13Q3ListBoxTextD1Ev@Base 4:4.5.3
 _ZN13Q3ListBoxTextD2Ev@Base 4:4.5.3
 _ZN13Q3ProgressBar10paintEventEP11QPaintEvent@Base 4:4.5.3
 _ZN13Q3ProgressBar10setVisibleEb@Base 4:4.5.3
 _ZN13Q3ProgressBar11changeEventEP6QEvent@Base 4:4.5.3
 _ZN13Q3ProgressBar11qt_metacallEN11QMetaObject4CallEiPPv@Base 4:4.5.3
 _ZN13Q3ProgressBar11qt_metacastEPKc@Base 4:4.5.3
 _ZN13Q3ProgressBar11setProgressEi@Base 4:4.5.3
 _ZN13Q3ProgressBar11setProgressEii@Base 4:4.5.3
 _ZN13Q3ProgressBar12setIndicatorER7QStringii@Base 4:4.5.3
 _ZN13Q3ProgressBar13setTotalStepsEi@Base 4:4.5.3
 _ZN13Q3ProgressBar16staticMetaObjectE@Base 4:4.5.3
 _ZN13Q3ProgressBar18setCenterIndicatorEb@Base 4:4.5.3
 _ZN13Q3ProgressBar20setPercentageVisibleEb@Base 4:4.5.3
 _ZN13Q3ProgressBar5resetEv@Base 4:4.5.3
 _ZN13Q3ProgressBar9initFrameEv@Base 4:4.5.3
 _ZN13Q3ProgressBarC1EP7QWidget6QFlagsIN2Qt10WindowTypeEE@Base 4:4.5.3
 _ZN13Q3ProgressBarC1EP7QWidgetPKc6QFlagsIN2Qt10WindowTypeEE@Base 4:4.5.3
 _ZN13Q3ProgressBarC1EiP7QWidget6QFlagsIN2Qt10WindowTypeEE@Base 4:4.5.3
 _ZN13Q3ProgressBarC1EiP7QWidgetPKc6QFlagsIN2Qt10WindowTypeEE@Base 4:4.5.3
 _ZN13Q3ProgressBarC2EP7QWidget6QFlagsIN2Qt10WindowTypeEE@Base 4:4.5.3
 _ZN13Q3ProgressBarC2EP7QWidgetPKc6QFlagsIN2Qt10WindowTypeEE@Base 4:4.5.3
 _ZN13Q3ProgressBarC2EiP7QWidget6QFlagsIN2Qt10WindowTypeEE@Base 4:4.5.3
 _ZN13Q3ProgressBarC2EiP7QWidgetPKc6QFlagsIN2Qt10WindowTypeEE@Base 4:4.5.3
 _ZN13Q3ProgressBarD0Ev@Base 4:4.7.4
 _ZN13Q3ProgressBarD1Ev@Base 4:4.7.4
 _ZN13Q3ProgressBarD2Ev@Base 4:4.7.4
 _ZN13Q3TableHeader10paintEventEP11QPaintEvent@Base 4:4.5.3
 _ZN13Q3TableHeader10saveStatesEv@Base 4:4.5.3
 _ZN13Q3TableHeader10setCachingEb@Base 4:4.5.3
 _ZN13Q3TableHeader11doSelectionEP11QMouseEvent@Base 4:4.5.3
 _ZN13Q3TableHeader11qt_metacallEN11QMetaObject4CallEiPPv@Base 4:4.5.3
 _ZN13Q3TableHeader11qt_metacastEPKc@Base 4:4.5.3
 _ZN13Q3TableHeader11removeLabelEi@Base 4:4.5.3
 _ZN13Q3TableHeader11resizeEventEP12QResizeEvent@Base 4:4.5.3
 _ZN13Q3TableHeader11updateCacheEv@Base 4:4.5.3
 _ZN13Q3TableHeader12doAutoScrollEv@Base 4:4.5.3
 _ZN13Q3TableHeader12indexChangedEiii@Base 4:4.5.3
 _ZN13Q3TableHeader12paintSectionEP8QPainteriRK5QRect@Base 4:4.5.3
 _ZN13Q3TableHeader12resizeArraysEi@Base 4:4.5.3
 _ZN13Q3TableHeader12swapSectionsEiib@Base 4:4.5.3
 _ZN13Q3TableHeader14mouseMoveEventEP11QMouseEvent@Base 4:4.5.3
 _ZN13Q3TableHeader15mousePressEventEP11QMouseEvent@Base 4:4.5.3
 _ZN13Q3TableHeader15setSectionStateEiNS_12SectionStateE@Base 4:4.5.3
 _ZN13Q3TableHeader15updateStretchesEv@Base 4:4.5.3
 _ZN13Q3TableHeader16staticMetaObjectE@Base 4:4.5.3
 _ZN13Q3TableHeader16updateSelectionsEv@Base 4:4.5.3
 _ZN13Q3TableHeader17mouseReleaseEventEP11QMouseEvent@Base 4:4.5.3
 _ZN13Q3TableHeader18sectionSizeChangedEi@Base 4:4.5.3
 _ZN13Q3TableHeader19sectionLabelChangedEi@Base 4:4.5.3
 _ZN13Q3TableHeader19sectionWidthChangedEiii@Base 4:4.5.3
 _ZN13Q3TableHeader20setSectionStateToAllENS_12SectionStateE@Base 4:4.5.3
 _ZN13Q3TableHeader21mouseDoubleClickEventEP11QMouseEvent@Base 4:4.5.3
 _ZN13Q3TableHeader21setSectionStretchableEib@Base 4:4.5.3
 _ZN13Q3TableHeader21updateWidgetStretchesEv@Base 4:4.5.3
 _ZN13Q3TableHeader8addLabelERK7QStringi@Base 4:4.5.3
 _ZN13Q3TableHeader8setLabelEiRK5QIconRK7QStringi@Base 4:4.5.3
 _ZN13Q3TableHeader8setLabelEiRK7QStringi@Base 4:4.5.3
 _ZN13Q3TableHeader9setLabelsERK11QStringList@Base 4:4.5.3
 _ZN13Q3TableHeaderC1EiP7Q3TableP7QWidgetPKc@Base 4:4.5.3
 _ZN13Q3TableHeaderC2EiP7Q3TableP7QWidgetPKc@Base 4:4.5.3
 _ZN13Q3TextBrowser11highlightedERK7QString@Base 4:4.5.3
 _ZN13Q3TextBrowser11linkClickedERK7QString@Base 4:4.5.3
 _ZN13Q3TextBrowser11popupDetailERK7QStringRK6QPoint@Base 4:4.5.3
 _ZN13Q3TextBrowser11qt_metacallEN11QMetaObject4CallEiPPv@Base 4:4.5.3
 _ZN13Q3TextBrowser11qt_metacastEPKc@Base 4:4.5.3
 _ZN13Q3TextBrowser13anchorClickedERK7QStringS2_@Base 4:4.5.3
 _ZN13Q3TextBrowser13keyPressEventEP9QKeyEvent@Base 4:4.5.3
 _ZN13Q3TextBrowser13sourceChangedERK7QString@Base 4:4.5.3
 _ZN13Q3TextBrowser15emitHighlightedERK7QString@Base 4:4.5.3
 _ZN13Q3TextBrowser15emitLinkClickedERK7QString@Base 4:4.5.3
 _ZN13Q3TextBrowser16forwardAvailableEb@Base 4:4.5.3
 _ZN13Q3TextBrowser16staticMetaObjectE@Base 4:4.5.3
 _ZN13Q3TextBrowser17backwardAvailableEb@Base 4:4.5.3
 _ZN13Q3TextBrowser4homeEv@Base 4:4.5.3
 _ZN13Q3TextBrowser6reloadEv@Base 4:4.5.3
 _ZN13Q3TextBrowser7forwardEv@Base 4:4.5.3
 _ZN13Q3TextBrowser7setTextERK7QStringS2_@Base 4:4.5.3
 _ZN13Q3TextBrowser8backwardEv@Base 4:4.5.3
 _ZN13Q3TextBrowser9setSourceERK7QString@Base 4:4.5.3
 _ZN13Q3TextBrowserC1EP7QWidgetPKc@Base 4:4.5.3
 _ZN13Q3TextBrowserC2EP7QWidgetPKc@Base 4:4.5.3
 _ZN13Q3TextBrowserD0Ev@Base 4:4.5.3
 _ZN13Q3TextBrowserD1Ev@Base 4:4.5.3
 _ZN13Q3TextBrowserD2Ev@Base 4:4.5.3
 _ZN13Q3TextCommandD0Ev@Base 4:4.5.3
 _ZN13Q3TextCommandD1Ev@Base 4:4.5.3
 _ZN13Q3TextCommandD2Ev@Base 4:4.5.3
 _ZN13Q3UrlOperator10checkValidEv@Base 4:4.5.3
 _ZN13Q3UrlOperator11copyGotDataERK10QByteArrayP18Q3NetworkOperation@Base 4:4.5.3
 _ZN13Q3UrlOperator11itemChangedEP18Q3NetworkOperation@Base 4:4.5.3
 _ZN13Q3UrlOperator11newChildrenERK11Q3ValueListI8QUrlInfoEP18Q3NetworkOperation@Base 4:4.5.3
 _ZN13Q3UrlOperator11qt_metacallEN11QMetaObject4CallEiPPv@Base 4:4.5.3
 _ZN13Q3UrlOperator11qt_metacastEPKc@Base 4:4.5.3
 _ZN13Q3UrlOperator12clearEntriesEv@Base 4:4.5.3
 _ZN13Q3UrlOperator12continueCopyEP18Q3NetworkOperation@Base 4:4.5.3
 _ZN13Q3UrlOperator12finishedCopyEv@Base 4:4.5.3
 _ZN13Q3UrlOperator12listChildrenEv@Base 4:4.5.3
 _ZN13Q3UrlOperator13setNameFilterERK7QString@Base 4:4.5.3
 _ZN13Q3UrlOperator14startOperationEP18Q3NetworkOperation@Base 4:4.5.3
 _ZN13Q3UrlOperator15deleteOperationEP18Q3NetworkOperation@Base 4:4.5.3
 _ZN13Q3UrlOperator15slotItemChangedEP18Q3NetworkOperation@Base 4:4.5.3
 _ZN13Q3UrlOperator15startedNextCopyERK9Q3PtrListI18Q3NetworkOperationE@Base 4:4.5.3
 _ZN13Q3UrlOperator16createdDirectoryERK8QUrlInfoP18Q3NetworkOperation@Base 4:4.5.3
 _ZN13Q3UrlOperator16staticMetaObjectE@Base 4:4.5.3
 _ZN13Q3UrlOperator18getNetworkProtocolEv@Base 4:4.5.3
 _ZN13Q3UrlOperator20dataTransferProgressEiiP18Q3NetworkOperation@Base 4:4.5.3
 _ZN13Q3UrlOperator21deleteNetworkProtocolEv@Base 4:4.5.3
 _ZN13Q3UrlOperator22connectionStateChangedEiRK7QString@Base 4:4.5.3
 _ZN13Q3UrlOperator3getERK7QString@Base 4:4.5.3
 _ZN13Q3UrlOperator3putERK10QByteArrayRK7QString@Base 4:4.5.3
 _ZN13Q3UrlOperator4cdUpEv@Base 4:4.5.3
 _ZN13Q3UrlOperator4copyERK11QStringListRK7QStringb@Base 4:4.5.3
 _ZN13Q3UrlOperator4copyERK7QStringS2_bb@Base 4:4.5.3
 _ZN13Q3UrlOperator4dataERK10QByteArrayP18Q3NetworkOperation@Base 4:4.5.3
 _ZN13Q3UrlOperator4stopEv@Base 4:4.5.3
 _ZN13Q3UrlOperator5isDirEPb@Base 4:4.5.3
 _ZN13Q3UrlOperator5mkdirERK7QString@Base 4:4.5.3
 _ZN13Q3UrlOperator5parseERK7QString@Base 4:4.5.3
 _ZN13Q3UrlOperator5resetEv@Base 4:4.5.3
 _ZN13Q3UrlOperator5startEP18Q3NetworkOperation@Base 4:4.5.3
 _ZN13Q3UrlOperator6removeERK7QString@Base 4:4.5.3
 _ZN13Q3UrlOperator6renameERK7QStringS2_@Base 4:4.5.3
 _ZN13Q3UrlOperator7removedEP18Q3NetworkOperation@Base 4:4.5.3
 _ZN13Q3UrlOperator7setPathERK7QString@Base 4:4.5.3
 _ZN13Q3UrlOperator8addEntryERK11Q3ValueListI8QUrlInfoE@Base 4:4.5.3
 _ZN13Q3UrlOperator8finishedEP18Q3NetworkOperation@Base 4:4.5.3
 _ZN13Q3UrlOperatorC1ERK7QString@Base 4:4.5.3
 _ZN13Q3UrlOperatorC1ERKS_@Base 4:4.5.3
 _ZN13Q3UrlOperatorC1ERKS_RK7QStringb@Base 4:4.5.3
 _ZN13Q3UrlOperatorC1Ev@Base 4:4.5.3
 _ZN13Q3UrlOperatorC2ERK7QString@Base 4:4.5.3
 _ZN13Q3UrlOperatorC2ERKS_@Base 4:4.5.3
 _ZN13Q3UrlOperatorC2ERKS_RK7QStringb@Base 4:4.5.3
 _ZN13Q3UrlOperatorC2Ev@Base 4:4.5.3
 _ZN13Q3UrlOperatorD0Ev@Base 4:4.5.3
 _ZN13Q3UrlOperatorD1Ev@Base 4:4.5.3
 _ZN13Q3UrlOperatorD2Ev@Base 4:4.5.3
 _ZN13Q3UrlOperatoraSERK7QString@Base 4:4.5.3
 _ZN13Q3UrlOperatoraSERKS_@Base 4:4.5.3
 _ZN13Q3WidgetStack10childEventEP11QChildEvent@Base 4:4.5.3
 _ZN13Q3WidgetStack10setVisibleEb@Base 4:4.5.3
 _ZN13Q3WidgetStack11aboutToShowEP7QWidget@Base 4:4.5.3
 _ZN13Q3WidgetStack11aboutToShowEi@Base 4:4.5.3
 _ZN13Q3WidgetStack11qt_metacallEN11QMetaObject4CallEiPPv@Base 4:4.5.3
 _ZN13Q3WidgetStack11qt_metacastEPKc@Base 4:4.5.3
 _ZN13Q3WidgetStack11raiseWidgetEP7QWidget@Base 4:4.5.3
 _ZN13Q3WidgetStack11raiseWidgetEi@Base 4:4.5.3
 _ZN13Q3WidgetStack11resizeEventEP12QResizeEvent@Base 4:4.5.3
 _ZN13Q3WidgetStack12frameChangedEv@Base 4:4.5.3
 _ZN13Q3WidgetStack12removeWidgetEP7QWidget@Base 4:4.5.3
 _ZN13Q3WidgetStack12setFrameRectERK5QRect@Base 4:4.5.3
 _ZN13Q3WidgetStack16staticMetaObjectE@Base 4:4.5.3
 _ZN13Q3WidgetStack18setChildGeometriesEv@Base 4:4.5.3
 _ZN13Q3WidgetStack4initEv@Base 4:4.5.3
 _ZN13Q3WidgetStack5eventEP6QEvent@Base 4:4.5.3
 _ZN13Q3WidgetStack9addWidgetEP7QWidgeti@Base 4:4.5.3
 _ZN13Q3WidgetStackC1EP7QWidgetPKc6QFlagsIN2Qt10WindowTypeEE@Base 4:4.5.3
 _ZN13Q3WidgetStackC2EP7QWidgetPKc6QFlagsIN2Qt10WindowTypeEE@Base 4:4.5.3
 _ZN13Q3WidgetStackD0Ev@Base 4:4.5.3
 _ZN13Q3WidgetStackD1Ev@Base 4:4.5.3
 _ZN13Q3WidgetStackD2Ev@Base 4:4.5.3
 _ZN14Q3CanvasPixmap4initERK6QImage@Base 4:4.5.3
 _ZN14Q3CanvasPixmap4initERK7QPixmapii@Base 4:4.5.3
 _ZN14Q3CanvasPixmapC1ERK6QImage@Base 4:4.5.3
 _ZN14Q3CanvasPixmapC1ERK7QPixmapRK6QPoint@Base 4:4.5.3
 _ZN14Q3CanvasPixmapC1ERK7QString@Base 4:4.5.3
 _ZN14Q3CanvasPixmapC2ERK6QImage@Base 4:4.5.3
 _ZN14Q3CanvasPixmapC2ERK7QPixmapRK6QPoint@Base 4:4.5.3
 _ZN14Q3CanvasPixmapC2ERK7QString@Base 4:4.5.3
 _ZN14Q3CanvasPixmapD0Ev@Base 4:4.5.3
 _ZN14Q3CanvasPixmapD1Ev@Base 4:4.5.3
 _ZN14Q3CanvasPixmapD2Ev@Base 4:4.5.3
 _ZN14Q3CanvasSpline10recalcPolyEv@Base 4:4.5.3
 _ZN14Q3CanvasSpline16setControlPointsE12Q3PointArrayb@Base 4:4.5.3
 _ZN14Q3CanvasSpline4RTTIE@Base 4:4.5.3
 _ZN14Q3CanvasSplineC1EP8Q3Canvas@Base 4:4.5.3
 _ZN14Q3CanvasSplineC2EP8Q3Canvas@Base 4:4.5.3
 _ZN14Q3CanvasSplineD0Ev@Base 4:4.5.3
 _ZN14Q3CanvasSplineD1Ev@Base 4:4.5.3
 _ZN14Q3CanvasSplineD2Ev@Base 4:4.5.3
 _ZN14Q3CanvasSprite11addToChunksEv@Base 4:4.5.3
 _ZN14Q3CanvasSprite11setSequenceEP19Q3CanvasPixmapArray@Base 4:4.5.3
 _ZN14Q3CanvasSprite12changeChunksEv@Base 4:4.5.3
 _ZN14Q3CanvasSprite16removeFromChunksEv@Base 4:4.5.3
 _ZN14Q3CanvasSprite17setFrameAnimationENS_18FrameAnimationTypeEii@Base 4:4.5.3
 _ZN14Q3CanvasSprite4RTTIE@Base 4:4.5.3
 _ZN14Q3CanvasSprite4drawER8QPainter@Base 4:4.5.3
 _ZN14Q3CanvasSprite4moveEdd@Base 4:4.5.3
 _ZN14Q3CanvasSprite4moveEddi@Base 4:4.5.3
 _ZN14Q3CanvasSprite7advanceEi@Base 4:4.5.3
 _ZN14Q3CanvasSprite8setFrameEi@Base 4:4.5.3
 _ZN14Q3CanvasSpriteC1EP19Q3CanvasPixmapArrayP8Q3Canvas@Base 4:4.5.3
 _ZN14Q3CanvasSpriteC2EP19Q3CanvasPixmapArrayP8Q3Canvas@Base 4:4.5.3
 _ZN14Q3CanvasSpriteD0Ev@Base 4:4.5.3
 _ZN14Q3CanvasSpriteD1Ev@Base 4:4.5.3
 _ZN14Q3CanvasSpriteD2Ev@Base 4:4.5.3
 _ZN14Q3DateTimeEdit11qt_metacallEN11QMetaObject4CallEiPPv@Base 4:4.5.3
 _ZN14Q3DateTimeEdit11qt_metacastEPKc@Base 4:4.5.3
 _ZN14Q3DateTimeEdit11resizeEventEP12QResizeEvent@Base 4:4.5.3
 _ZN14Q3DateTimeEdit11setDateTimeERK9QDateTime@Base 4:4.5.3
 _ZN14Q3DateTimeEdit12valueChangedERK9QDateTime@Base 4:4.5.3
 _ZN14Q3DateTimeEdit14setAutoAdvanceEb@Base 4:4.5.3
 _ZN14Q3DateTimeEdit16staticMetaObjectE@Base 4:4.5.3
 _ZN14Q3DateTimeEdit4initEv@Base 4:4.5.3
 _ZN14Q3DateTimeEdit8newValueERK5QDate@Base 4:4.5.3
 _ZN14Q3DateTimeEdit8newValueERK5QTime@Base 4:4.5.3
 _ZN14Q3DateTimeEditC1EP7QWidgetPKc@Base 4:4.5.3
 _ZN14Q3DateTimeEditC1ERK9QDateTimeP7QWidgetPKc@Base 4:4.5.3
 _ZN14Q3DateTimeEditC2EP7QWidgetPKc@Base 4:4.5.3
 _ZN14Q3DateTimeEditC2ERK9QDateTimeP7QWidgetPKc@Base 4:4.5.3
 _ZN14Q3DateTimeEditD0Ev@Base 4:4.5.3
 _ZN14Q3DateTimeEditD1Ev@Base 4:4.5.3
 _ZN14Q3DateTimeEditD2Ev@Base 4:4.5.3
 _ZN14Q3HButtonGroup11qt_metacallEN11QMetaObject4CallEiPPv@Base 4:4.5.3
 _ZN14Q3HButtonGroup11qt_metacastEPKc@Base 4:4.5.3
 _ZN14Q3HButtonGroup16staticMetaObjectE@Base 4:4.5.3
 _ZN14Q3HButtonGroupD0Ev@Base 4:4.7.4
 _ZN14Q3HButtonGroupD1Ev@Base 4:4.7.4
 _ZN14Q3HButtonGroupD2Ev@Base 4:4.7.4
 _ZN14Q3IconDragData11setTextRectERK5QRect@Base 4:4.5.3
 _ZN14Q3IconDragData13setPixmapRectERK5QRect@Base 4:4.5.3
 _ZN14Q3IconDragDataC1ERK5QRectS2_@Base 4:4.5.3
 _ZN14Q3IconDragDataC1Ev@Base 4:4.5.3
 _ZN14Q3IconDragDataC2ERK5QRectS2_@Base 4:4.5.3
 _ZN14Q3IconDragDataC2Ev@Base 4:4.5.3
 _ZN14Q3IconDragItem7setDataERK10QByteArray@Base 4:4.5.3
 _ZN14Q3IconDragItemC1Ev@Base 4:4.5.3
 _ZN14Q3IconDragItemC2Ev@Base 4:4.5.3
 _ZN14Q3IconDragItemD0Ev@Base 4:4.5.3
 _ZN14Q3IconDragItemD1Ev@Base 4:4.5.3
 _ZN14Q3IconDragItemD2Ev@Base 4:4.5.3
 _ZN14Q3IconViewItem10paintFocusEP8QPainterRK11QColorGroup@Base 4:4.5.3
 _ZN14Q3IconViewItem10renameItemEv@Base 4:4.5.3
 _ZN14Q3IconViewItem10setPictureERK8QPicture@Base 4:4.5.3
 _ZN14Q3IconViewItem11calcTmpTextEv@Base 4:4.5.3
 _ZN14Q3IconViewItem11dragEnteredEv@Base 4:4.5.3
 _ZN14Q3IconViewItem11setItemRectERK5QRect@Base 4:4.5.3
 _ZN14Q3IconViewItem11setSelectedEb@Base 4:4.5.3
 _ZN14Q3IconViewItem11setSelectedEbb@Base 4:4.5.3
 _ZN14Q3IconViewItem11setTextRectERK5QRect@Base 4:4.5.3
 _ZN14Q3IconViewItem13setPixmapRectERK5QRect@Base 4:4.5.3
 _ZN14Q3IconViewItem13setSelectableEb@Base 4:4.5.3
 _ZN14Q3IconViewItem14setDragEnabledEb@Base 4:4.5.3
 _ZN14Q3IconViewItem14setDropEnabledEb@Base 4:4.5.3
 _ZN14Q3IconViewItem15removeRenameBoxEv@Base 4:4.5.3
 _ZN14Q3IconViewItem16cancelRenameItemEv@Base 4:4.5.3
 _ZN14Q3IconViewItem16setRenameEnabledEb@Base 4:4.5.3
 _ZN14Q3IconViewItem4RTTIE@Base 4:4.5.3
 _ZN14Q3IconViewItem4initEPS_P8QPicture@Base 4:4.5.3
 _ZN14Q3IconViewItem4moveERK6QPoint@Base 4:4.5.3
 _ZN14Q3IconViewItem4moveEii@Base 4:4.5.3
 _ZN14Q3IconViewItem6moveByERK6QPoint@Base 4:4.5.3
 _ZN14Q3IconViewItem6moveByEii@Base 4:4.5.3
 _ZN14Q3IconViewItem6renameEv@Base 4:4.5.3
 _ZN14Q3IconViewItem6setKeyERK7QString@Base 4:4.5.3
 _ZN14Q3IconViewItem7droppedEP10QDropEventRK11Q3ValueListI14Q3IconDragItemE@Base 4:4.5.3
 _ZN14Q3IconViewItem7repaintEv@Base 4:4.5.3
 _ZN14Q3IconViewItem7setTextERK7QString@Base 4:4.5.3
 _ZN14Q3IconViewItem7setTextERK7QStringbb@Base 4:4.5.3
 _ZN14Q3IconViewItem8calcRectERK7QString@Base 4:4.5.3
 _ZN14Q3IconViewItem8dragLeftEv@Base 4:4.5.3
 _ZN14Q3IconViewItem9checkRectEv@Base 4:4.5.3
 _ZN14Q3IconViewItem9paintItemEP8QPainterRK11QColorGroup@Base 4:4.5.3
 _ZN14Q3IconViewItem9setPixmapERK7QPixmap@Base 4:4.5.3
 _ZN14Q3IconViewItem9setPixmapERK7QPixmapbb@Base 4:4.5.3
 _ZN14Q3IconViewItemC1EP10Q3IconView@Base 4:4.5.3
 _ZN14Q3IconViewItemC1EP10Q3IconViewPS_@Base 4:4.5.3
 _ZN14Q3IconViewItemC1EP10Q3IconViewPS_RK7QString@Base 4:4.5.3
 _ZN14Q3IconViewItemC1EP10Q3IconViewPS_RK7QStringRK7QPixmap@Base 4:4.5.3
 _ZN14Q3IconViewItemC1EP10Q3IconViewPS_RK7QStringRK8QPicture@Base 4:4.5.3
 _ZN14Q3IconViewItemC1EP10Q3IconViewRK7QString@Base 4:4.5.3
 _ZN14Q3IconViewItemC1EP10Q3IconViewRK7QStringRK7QPixmap@Base 4:4.5.3
 _ZN14Q3IconViewItemC1EP10Q3IconViewRK7QStringRK8QPicture@Base 4:4.5.3
 _ZN14Q3IconViewItemC2EP10Q3IconView@Base 4:4.5.3
 _ZN14Q3IconViewItemC2EP10Q3IconViewPS_@Base 4:4.5.3
 _ZN14Q3IconViewItemC2EP10Q3IconViewPS_RK7QString@Base 4:4.5.3
 _ZN14Q3IconViewItemC2EP10Q3IconViewPS_RK7QStringRK7QPixmap@Base 4:4.5.3
 _ZN14Q3IconViewItemC2EP10Q3IconViewPS_RK7QStringRK8QPicture@Base 4:4.5.3
 _ZN14Q3IconViewItemC2EP10Q3IconViewRK7QString@Base 4:4.5.3
 _ZN14Q3IconViewItemC2EP10Q3IconViewRK7QStringRK7QPixmap@Base 4:4.5.3
 _ZN14Q3IconViewItemC2EP10Q3IconViewRK7QStringRK8QPicture@Base 4:4.5.3
 _ZN14Q3IconViewItemD0Ev@Base 4:4.5.3
 _ZN14Q3IconViewItemD1Ev@Base 4:4.5.3
 _ZN14Q3IconViewItemD2Ev@Base 4:4.5.3
 _ZN14Q3ListViewItem10insertItemEPS_@Base 4:4.5.3
 _ZN14Q3ListViewItem10paintFocusEP8QPainterRK11QColorGroupRK5QRect@Base 4:4.5.3
 _ZN14Q3ListViewItem10setEnabledEb@Base 4:4.5.3
 _ZN14Q3ListViewItem10setVisibleEb@Base 4:4.5.3
 _ZN14Q3ListViewItem11dragEnteredEv@Base 4:4.5.3
 _ZN14Q3ListViewItem11setSelectedEb@Base 4:4.5.3
 _ZN14Q3ListViewItem11startRenameEi@Base 4:4.5.3
 _ZN14Q3ListViewItem12activatedPosER6QPoint@Base 4:4.5.3
 _ZN14Q3ListViewItem12cancelRenameEi@Base 4:4.5.3
 _ZN14Q3ListViewItem13paintBranchesEP8QPainterRK11QColorGroupiii@Base 4:4.5.3
 _ZN14Q3ListViewItem13setExpandableEb@Base 4:4.5.3
 _ZN14Q3ListViewItem13setSelectableEb@Base 4:4.5.3
 _ZN14Q3ListViewItem14setDragEnabledEb@Base 4:4.5.3
 _ZN14Q3ListViewItem14setDropEnabledEb@Base 4:4.5.3
 _ZN14Q3ListViewItem14sortChildItemsEib@Base 4:4.5.3
 _ZN14Q3ListViewItem15moveToJustAfterEPS_@Base 4:4.5.3
 _ZN14Q3ListViewItem15removeRenameBoxEv@Base 4:4.5.3
 _ZN14Q3ListViewItem16invalidateHeightEv@Base 4:4.5.3
 _ZN14Q3ListViewItem16setRenameEnabledEib@Base 4:4.5.3
 _ZN14Q3ListViewItem17ignoreDoubleClickEv@Base 4:4.5.3
 _ZN14Q3ListViewItem20setMultiLinesEnabledEb@Base 4:4.5.3
 _ZN14Q3ListViewItem26enforceSortOrderBackToRootEv@Base 4:4.5.3
 _ZN14Q3ListViewItem4initEv@Base 4:4.5.3
 _ZN14Q3ListViewItem4sortEv@Base 4:4.5.3
 _ZN14Q3ListViewItem5setupEv@Base 4:4.5.3
 _ZN14Q3ListViewItem7droppedEP10QDropEvent@Base 4:4.5.3
 _ZN14Q3ListViewItem7setOpenEb@Base 4:4.5.3
 _ZN14Q3ListViewItem7setTextEiRK7QString@Base 4:4.5.3
 _ZN14Q3ListViewItem8activateEv@Base 4:4.5.3
 _ZN14Q3ListViewItem8dragLeftEv@Base 4:4.5.3
 _ZN14Q3ListViewItem8moveItemEPS_@Base 4:4.5.3
 _ZN14Q3ListViewItem8okRenameEi@Base 4:4.5.3
 _ZN14Q3ListViewItem8takeItemEPS_@Base 4:4.5.3
 _ZN14Q3ListViewItem9paintCellEP8QPainterRK11QColorGroupiii@Base 4:4.5.3
 _ZN14Q3ListViewItem9setHeightEi@Base 4:4.5.3
 _ZN14Q3ListViewItem9setPixmapEiRK7QPixmap@Base 4:4.5.3
 _ZN14Q3ListViewItemC1EP10Q3ListView@Base 4:4.5.3
 _ZN14Q3ListViewItemC1EP10Q3ListViewPS_@Base 4:4.5.3
 _ZN14Q3ListViewItemC1EP10Q3ListViewPS_RK7QStringS5_S5_S5_S5_S5_S5_S5_@Base 4:4.5.3
 _ZN14Q3ListViewItemC1EP10Q3ListViewRK7QStringS4_S4_S4_S4_S4_S4_S4_@Base 4:4.5.3
 _ZN14Q3ListViewItemC1EPS_@Base 4:4.5.3
 _ZN14Q3ListViewItemC1EPS_RK7QStringS3_S3_S3_S3_S3_S3_S3_@Base 4:4.5.3
 _ZN14Q3ListViewItemC1EPS_S0_@Base 4:4.5.3
 _ZN14Q3ListViewItemC1EPS_S0_RK7QStringS3_S3_S3_S3_S3_S3_S3_@Base 4:4.5.3
 _ZN14Q3ListViewItemC2EP10Q3ListView@Base 4:4.5.3
 _ZN14Q3ListViewItemC2EP10Q3ListViewPS_@Base 4:4.5.3
 _ZN14Q3ListViewItemC2EP10Q3ListViewPS_RK7QStringS5_S5_S5_S5_S5_S5_S5_@Base 4:4.5.3
 _ZN14Q3ListViewItemC2EP10Q3ListViewRK7QStringS4_S4_S4_S4_S4_S4_S4_@Base 4:4.5.3
 _ZN14Q3ListViewItemC2EPS_@Base 4:4.5.3
 _ZN14Q3ListViewItemC2EPS_RK7QStringS3_S3_S3_S3_S3_S3_S3_@Base 4:4.5.3
 _ZN14Q3ListViewItemC2EPS_S0_@Base 4:4.5.3
 _ZN14Q3ListViewItemC2EPS_S0_RK7QStringS3_S3_S3_S3_S3_S3_S3_@Base 4:4.5.3
 _ZN14Q3ListViewItemD0Ev@Base 4:4.5.3
 _ZN14Q3ListViewItemD1Ev@Base 4:4.5.3
 _ZN14Q3ListViewItemD2Ev@Base 4:4.5.3
 _ZN14Q3RangeControl10stepChangeEv@Base 4:4.5.3
 _ZN14Q3RangeControl11rangeChangeEv@Base 4:4.5.3
 _ZN14Q3RangeControl11setMaxValueEi@Base 4:4.5.3
 _ZN14Q3RangeControl11setMinValueEi@Base 4:4.5.3
 _ZN14Q3RangeControl11valueChangeEv@Base 4:4.5.3
 _ZN14Q3RangeControl12subtractLineEv@Base 4:4.5.3
 _ZN14Q3RangeControl12subtractPageEv@Base 4:4.5.3
 _ZN14Q3RangeControl14directSetValueEi@Base 4:4.5.3
 _ZN14Q3RangeControl7addLineEv@Base 4:4.5.3
 _ZN14Q3RangeControl7addPageEv@Base 4:4.5.3
 _ZN14Q3RangeControl8setRangeEii@Base 4:4.5.3
 _ZN14Q3RangeControl8setStepsEii@Base 4:4.5.3
 _ZN14Q3RangeControl8setValueEi@Base 4:4.5.3
 _ZN14Q3RangeControlC1Eiiiii@Base 4:4.5.3
 _ZN14Q3RangeControlC1Ev@Base 4:4.5.3
 _ZN14Q3RangeControlC2Eiiiii@Base 4:4.5.3
 _ZN14Q3RangeControlC2Ev@Base 4:4.5.3
 _ZN14Q3RangeControlD0Ev@Base 4:4.5.3
 _ZN14Q3RangeControlD1Ev@Base 4:4.5.3
 _ZN14Q3RangeControlD2Ev@Base 4:4.5.3
 _ZN14Q3ServerSocket11qt_metacallEN11QMetaObject4CallEiPPv@Base 4:4.5.3
 _ZN14Q3ServerSocket11qt_metacastEPKc@Base 4:4.5.3
 _ZN14Q3ServerSocket12socketDeviceEv@Base 4:4.5.3
 _ZN14Q3ServerSocket16staticMetaObjectE@Base 4:4.5.3
 _ZN14Q3ServerSocket18incomingConnectionEi@Base 4:4.5.3
 _ZN14Q3ServerSocket4initERK12QHostAddressti@Base 4:4.5.3
 _ZN14Q3ServerSocket9setSocketEi@Base 4:4.5.3
 _ZN14Q3ServerSocketC1EP7QObjectPKc@Base 4:4.5.3
 _ZN14Q3ServerSocketC1ERK12QHostAddresstiP7QObjectPKc@Base 4:4.5.3
 _ZN14Q3ServerSocketC1EtiP7QObjectPKc@Base 4:4.5.3
 _ZN14Q3ServerSocketC2EP7QObjectPKc@Base 4:4.5.3
 _ZN14Q3ServerSocketC2ERK12QHostAddresstiP7QObjectPKc@Base 4:4.5.3
 _ZN14Q3ServerSocketC2EtiP7QObjectPKc@Base 4:4.5.3
 _ZN14Q3ServerSocketD0Ev@Base 4:4.5.3
 _ZN14Q3ServerSocketD1Ev@Base 4:4.5.3
 _ZN14Q3ServerSocketD2Ev@Base 4:4.5.3
 _ZN14Q3SocketDevice10writeBlockEPKcmRK12QHostAddresst@Base 4:4.5.3
 _ZN14Q3SocketDevice11setBlockingEb@Base 4:4.5.3
 _ZN14Q3SocketDevice15createNewSocketEv@Base 4:4.5.3
 _ZN14Q3SocketDevice17setSendBufferSizeEj@Base 4:4.5.3
 _ZN14Q3SocketDevice18setAddressReusableEb@Base 4:4.5.3
 _ZN14Q3SocketDevice20setReceiveBufferSizeEj@Base 4:4.5.3
 _ZN14Q3SocketDevice25fetchConnectionParametersEv@Base 4:4.5.3
 _ZN14Q3SocketDevice2atEx@Base 4:4.5.3
 _ZN14Q3SocketDevice4bindERK12QHostAddresst@Base 4:4.5.3
 _ZN14Q3SocketDevice4initEv@Base 4:4.5.3
 _ZN14Q3SocketDevice4openE6QFlagsIN9QIODevice12OpenModeFlagEE@Base 4:4.5.3
 _ZN14Q3SocketDevice5closeEv@Base 4:4.5.3
 _ZN14Q3SocketDevice5flushEv@Base 4:4.5.3
 _ZN14Q3SocketDevice6acceptEv@Base 4:4.5.3
 _ZN14Q3SocketDevice6listenEi@Base 4:4.5.3
 _ZN14Q3SocketDevice7connectERK12QHostAddresst@Base 4:4.5.3
 _ZN14Q3SocketDevice8readDataEPcx@Base 4:4.5.3
 _ZN14Q3SocketDevice8setErrorENS_5ErrorE@Base 4:4.5.3
 _ZN14Q3SocketDevice9setOptionENS_6OptionEi@Base 4:4.5.3
 _ZN14Q3SocketDevice9setSocketEiNS_4TypeE@Base 4:4.5.3
 _ZN14Q3SocketDevice9writeDataEPKcx@Base 4:4.5.3
 _ZN14Q3SocketDeviceC1ENS_4TypeE@Base 4:4.5.3
 _ZN14Q3SocketDeviceC1ENS_4TypeENS_8ProtocolEi@Base 4:4.5.3
 _ZN14Q3SocketDeviceC1EiNS_4TypeE@Base 4:4.5.3
 _ZN14Q3SocketDeviceC2ENS_4TypeE@Base 4:4.5.3
 _ZN14Q3SocketDeviceC2ENS_4TypeENS_8ProtocolEi@Base 4:4.5.3
 _ZN14Q3SocketDeviceC2EiNS_4TypeE@Base 4:4.5.3
 _ZN14Q3SocketDeviceD0Ev@Base 4:4.5.3
 _ZN14Q3SocketDeviceD1Ev@Base 4:4.5.3
 _ZN14Q3SocketDeviceD2Ev@Base 4:4.5.3
 _ZN14Q3TextDocument10addCommandEP13Q3TextCommand@Base 4:4.5.3
 _ZN14Q3TextDocument10invalidateEv@Base 4:4.5.3
 _ZN14Q3TextDocument10parseTableERK4QMapI7QStringS1_ERK12Q3TextFormatPK5QChariRiP15Q3TextParagraph@Base 4:4.5.3
 _ZN14Q3TextDocument11qt_metacallEN11QMetaObject4CallEiPPv@Base 4:4.5.3
 _ZN14Q3TextDocument11qt_metacastEPKc@Base 4:4.5.3
 _ZN14Q3TextDocument11setRichTextERK7QStringS2_PK12Q3TextFormat@Base 4:4.5.3
 _ZN14Q3TextDocument12addSelectionEi@Base 4:4.5.3
 _ZN14Q3TextDocument12bufferPixmapERK5QSize@Base 4:4.5.3
 _ZN14Q3TextDocument12parseOpenTagEPK5QChariRiR4QMapI7QStringS5_ERb@Base 4:4.5.3
 _ZN14Q3TextDocument12selectionEndEiRiS0_@Base 4:4.5.3
 _ZN14Q3TextDocument12setPlainTextERK7QString@Base 4:4.5.3
 _ZN14Q3TextDocument13drawParagraphEP8QPainterP15Q3TextParagraphiiiiRP7QPixmapRK8QPalettebP12Q3TextCursorb@Base 4:4.5.3
 _ZN14Q3TextDocument13parseCloseTagEPK5QChariRi@Base 4:4.5.3
 _ZN14Q3TextDocument13setStyleSheetEP12Q3StyleSheet@Base 4:4.5.3
 _ZN14Q3TextDocument13setTextFormatEN2Qt10TextFormatE@Base 4:4.5.3
 _ZN14Q3TextDocument14selectionStartEiRiS0_@Base 4:4.5.3
 _ZN14Q3TextDocument15createParagraphEPS_P15Q3TextParagraphS2_b@Base 4:4.5.3
 _ZN14Q3TextDocument15indentSelectionEi@Base 4:4.5.3
 _ZN14Q3TextDocument15removeSelectionEi@Base 4:4.5.3
 _ZN14Q3TextDocument15setMinimumWidthEiiP15Q3TextParagraph@Base 4:4.5.3
 _ZN14Q3TextDocument15setSelectionEndEiRK12Q3TextCursor@Base 4:4.5.3
 _ZN14Q3TextDocument16setDefaultFormatERK5QFontRK6QColor@Base 4:4.5.3
 _ZN14Q3TextDocument16staticMetaObjectE@Base 4:4.5.3
 _ZN14Q3TextDocument17setSelectionStartEiRK12Q3TextCursor@Base 4:4.5.3
 _ZN14Q3TextDocument17setUnderlineLinksEb@Base 4:4.5.3
 _ZN14Q3TextDocument18focusNextPrevChildEb@Base 4:4.5.3
 _ZN14Q3TextDocument18registerCustomItemEP16Q3TextCustomItemP15Q3TextParagraph@Base 4:4.5.3
 _ZN14Q3TextDocument18removeSelectedTextEiP12Q3TextCursor@Base 4:4.5.3
 _ZN14Q3TextDocument18selectionEndCursorEi@Base 4:4.5.3
 _ZN14Q3TextDocument19minimumWidthChangedEi@Base 4:4.5.3
 _ZN14Q3TextDocument19setRichTextInternalERK7QStringP12Q3TextCursorPK12Q3TextFormat@Base 4:4.5.3
 _ZN14Q3TextDocument20parseHTMLSpecialCharEPK5QChariRi@Base 4:4.5.3
 _ZN14Q3TextDocument20selectionStartCursorEi@Base 4:4.5.3
 _ZN14Q3TextDocument20unregisterCustomItemEP16Q3TextCustomItemP15Q3TextParagraph@Base 4:4.5.3
 _ZN14Q3TextDocument26setRichTextMarginsInternalER5QListIP7QVectorIP16Q3StyleSheetItemEEP15Q3TextParagraph@Base 4:4.5.3
 _ZN14Q3TextDocument3eatEPK5QChariRiS0_@Base 4:4.5.3
 _ZN14Q3TextDocument3tagEP12Q3StyleSheetRK7QStringRK4QMapIS2_S2_ES4_RK19Q3MimeSourceFactorybPS_@Base 4:4.5.3
 _ZN14Q3TextDocument4drawEP8QPainterRK5QRectRK8QPalettePK6QBrush@Base 4:4.5.3
 _ZN14Q3TextDocument4drawEP8QPainteriiiiRK8QPalettebbP12Q3TextCursorb@Base 4:4.5.3
 _ZN14Q3TextDocument4findER12Q3TextCursorRK7QStringbbb@Base 4:4.5.3
 _ZN14Q3TextDocument4initEv@Base 4:4.5.3
 _ZN14Q3TextDocument4redoEP12Q3TextCursor@Base 4:4.5.3
 _ZN14Q3TextDocument4undoEP12Q3TextCursor@Base 4:4.5.3
 _ZN14Q3TextDocument5FocusD1Ev@Base 4:4.7.4
 _ZN14Q3TextDocument5FocusD2Ev@Base 4:4.7.4
 _ZN14Q3TextDocument5clearEb@Base 4:4.5.3
 _ZN14Q3TextDocument7setTextERK7QStringS2_@Base 4:4.5.3
 _ZN14Q3TextDocument8doLayoutEP8QPainteri@Base 4:4.5.3
 _ZN14Q3TextDocument8eatSpaceEPK5QChariRib@Base 4:4.5.3
 _ZN14Q3TextDocument9hasPrefixEPK5QChariiRK7QString@Base 4:4.5.3
 _ZN14Q3TextDocument9hasPrefixEPK5QChariiS0_@Base 4:4.5.3
 _ZN14Q3TextDocument9parseCharEPK5QChariRiN16Q3StyleSheetItem14WhiteSpaceModeE@Base 4:4.5.3
 _ZN14Q3TextDocument9parseWordEPK5QChariRib@Base 4:4.5.3
 _ZN14Q3TextDocument9selectAllEi@Base 4:4.5.3
 _ZN14Q3TextDocument9setFormatEiP12Q3TextFormati@Base 4:4.5.3
 _ZN14Q3TextDocumentC1EPS_@Base 4:4.5.3
 _ZN14Q3TextDocumentC2EPS_@Base 4:4.5.3
 _ZN14Q3TextDocumentD0Ev@Base 4:4.5.3
 _ZN14Q3TextDocumentD1Ev@Base 4:4.5.3
 _ZN14Q3TextDocumentD2Ev@Base 4:4.5.3
 _ZN14Q3VButtonGroup11qt_metacallEN11QMetaObject4CallEiPPv@Base 4:4.5.3
 _ZN14Q3VButtonGroup11qt_metacastEPKc@Base 4:4.5.3
 _ZN14Q3VButtonGroup16staticMetaObjectE@Base 4:4.5.3
 _ZN14Q3VButtonGroupD0Ev@Base 4:4.7.4
 _ZN14Q3VButtonGroupD1Ev@Base 4:4.7.4
 _ZN14Q3VButtonGroupD2Ev@Base 4:4.7.4
 _ZN15Q3CanvasEllipse4RTTIE@Base 4:4.5.3
 _ZN15Q3CanvasEllipse7setSizeEii@Base 4:4.5.3
 _ZN15Q3CanvasEllipse9drawShapeER8QPainter@Base 4:4.5.3
 _ZN15Q3CanvasEllipse9setAnglesEii@Base 4:4.5.3
 _ZN15Q3CanvasEllipseC1EP8Q3Canvas@Base 4:4.5.3
 _ZN15Q3CanvasEllipseC1EiiP8Q3Canvas@Base 4:4.5.3
 _ZN15Q3CanvasEllipseC1EiiiiP8Q3Canvas@Base 4:4.5.3
 _ZN15Q3CanvasEllipseC2EP8Q3Canvas@Base 4:4.5.3
 _ZN15Q3CanvasEllipseC2EiiP8Q3Canvas@Base 4:4.5.3
 _ZN15Q3CanvasEllipseC2EiiiiP8Q3Canvas@Base 4:4.5.3
 _ZN15Q3CanvasEllipseD0Ev@Base 4:4.5.3
 _ZN15Q3CanvasEllipseD1Ev@Base 4:4.5.3
 _ZN15Q3CanvasEllipseD2Ev@Base 4:4.5.3
 _ZN15Q3CanvasPolygon4RTTIE@Base 4:4.5.3
 _ZN15Q3CanvasPolygon6moveByEdd@Base 4:4.5.3
 _ZN15Q3CanvasPolygon9drawShapeER8QPainter@Base 4:4.5.3
 _ZN15Q3CanvasPolygon9setPointsE12Q3PointArray@Base 4:4.5.3
 _ZN15Q3CanvasPolygonC1EP8Q3Canvas@Base 4:4.5.3
 _ZN15Q3CanvasPolygonC2EP8Q3Canvas@Base 4:4.5.3
 _ZN15Q3CanvasPolygonD0Ev@Base 4:4.5.3
 _ZN15Q3CanvasPolygonD1Ev@Base 4:4.5.3
 _ZN15Q3CanvasPolygonD2Ev@Base 4:4.5.3
 _ZN15Q3CheckListItem10paintFocusEP8QPainterRK11QColorGroupRK5QRect@Base 4:4.5.3
 _ZN15Q3CheckListItem11setTristateEb@Base 4:4.5.3
 _ZN15Q3CheckListItem11stateChangeENS_11ToggleStateE@Base 4:4.5.3
 _ZN15Q3CheckListItem11stateChangeEb@Base 4:4.5.3
 _ZN15Q3CheckListItem12restoreStateEPS_i@Base 4:4.5.3
 _ZN15Q3CheckListItem12turnOffChildEv@Base 4:4.5.3
 _ZN15Q3CheckListItem14setStoredStateENS_11ToggleStateEPS_@Base 4:4.5.3
 _ZN15Q3CheckListItem15setCurrentStateENS_11ToggleStateE@Base 4:4.5.3
 _ZN15Q3CheckListItem16updateControllerEbb@Base 4:4.5.3
 _ZN15Q3CheckListItem17updateStoredStateEPS_@Base 4:4.5.3
 _ZN15Q3CheckListItem4initEv@Base 4:4.5.3
 _ZN15Q3CheckListItem5setOnEb@Base 4:4.5.3
 _ZN15Q3CheckListItem5setupEv@Base 4:4.5.3
 _ZN15Q3CheckListItem8activateEv@Base 4:4.5.3
 _ZN15Q3CheckListItem8setStateENS_11ToggleStateE@Base 4:4.5.3
 _ZN15Q3CheckListItem8setStateENS_11ToggleStateEbb@Base 4:4.5.3
 _ZN15Q3CheckListItem9paintCellEP8QPainterRK11QColorGroupiii@Base 4:4.5.3
 _ZN15Q3CheckListItemC1EP10Q3ListViewP14Q3ListViewItemRK7QStringNS_4TypeE@Base 4:4.5.3
 _ZN15Q3CheckListItemC1EP10Q3ListViewRK7QStringNS_4TypeE@Base 4:4.5.3
 _ZN15Q3CheckListItemC1EP10Q3ListViewRK7QStringRK7QPixmap@Base 4:4.5.3
 _ZN15Q3CheckListItemC1EP14Q3ListViewItemRK7QStringNS_4TypeE@Base 4:4.5.3
 _ZN15Q3CheckListItemC1EP14Q3ListViewItemRK7QStringRK7QPixmap@Base 4:4.5.3
 _ZN15Q3CheckListItemC1EP14Q3ListViewItemS1_RK7QStringNS_4TypeE@Base 4:4.5.3
 _ZN15Q3CheckListItemC1EPS_P14Q3ListViewItemRK7QStringNS_4TypeE@Base 4:4.5.3
 _ZN15Q3CheckListItemC1EPS_RK7QStringNS_4TypeE@Base 4:4.5.3
 _ZN15Q3CheckListItemC2EP10Q3ListViewP14Q3ListViewItemRK7QStringNS_4TypeE@Base 4:4.5.3
 _ZN15Q3CheckListItemC2EP10Q3ListViewRK7QStringNS_4TypeE@Base 4:4.5.3
 _ZN15Q3CheckListItemC2EP10Q3ListViewRK7QStringRK7QPixmap@Base 4:4.5.3
 _ZN15Q3CheckListItemC2EP14Q3ListViewItemRK7QStringNS_4TypeE@Base 4:4.5.3
 _ZN15Q3CheckListItemC2EP14Q3ListViewItemRK7QStringRK7QPixmap@Base 4:4.5.3
 _ZN15Q3CheckListItemC2EP14Q3ListViewItemS1_RK7QStringNS_4TypeE@Base 4:4.5.3
 _ZN15Q3CheckListItemC2EPS_P14Q3ListViewItemRK7QStringNS_4TypeE@Base 4:4.5.3
 _ZN15Q3CheckListItemC2EPS_RK7QStringNS_4TypeE@Base 4:4.5.3
 _ZN15Q3CheckListItemD0Ev@Base 4:4.5.3
 _ZN15Q3CheckListItemD1Ev@Base 4:4.5.3
 _ZN15Q3CheckListItemD2Ev@Base 4:4.5.3
 _ZN15Q3EditorFactory12createEditorEP7QWidgetRK8QVariant@Base 4:4.5.3
 _ZN15Q3EditorFactory14defaultFactoryEv@Base 4:4.5.3
 _ZN15Q3EditorFactory21installDefaultFactoryEPS_@Base 4:4.5.3
 _ZN15Q3EditorFactoryC1EP7QObject@Base 4:4.5.3
 _ZN15Q3EditorFactoryC2EP7QObject@Base 4:4.5.3
 _ZN15Q3EditorFactoryD0Ev@Base 4:4.5.3
 _ZN15Q3EditorFactoryD1Ev@Base 4:4.5.3
 _ZN15Q3EditorFactoryD2Ev@Base 4:4.5.3
 _ZN15Q3GDictIterator7toFirstEv@Base 4:4.5.3
 _ZN15Q3GDictIteratorC1ERK7Q3GDict@Base 4:4.5.3
 _ZN15Q3GDictIteratorC1ERKS_@Base 4:4.5.3
 _ZN15Q3GDictIteratorC2ERK7Q3GDict@Base 4:4.5.3
 _ZN15Q3GDictIteratorC2ERKS_@Base 4:4.5.3
 _ZN15Q3GDictIteratorD1Ev@Base 4:4.5.3
 _ZN15Q3GDictIteratorD2Ev@Base 4:4.5.3
 _ZN15Q3GDictIteratoraSERKS_@Base 4:4.5.3
 _ZN15Q3GDictIteratorclEv@Base 4:4.5.3
 _ZN15Q3GDictIteratorpLEj@Base 4:4.5.3
 _ZN15Q3GDictIteratorppEv@Base 4:4.5.3
 _ZN15Q3GListIterator6toLastEv@Base 4:4.5.3
 _ZN15Q3GListIterator7toFirstEv@Base 4:4.5.3
 _ZN15Q3GListIteratorC1ERK7Q3GList@Base 4:4.5.3
 _ZN15Q3GListIteratorC1ERKS_@Base 4:4.5.3
 _ZN15Q3GListIteratorC2ERK7Q3GList@Base 4:4.5.3
 _ZN15Q3GListIteratorC2ERKS_@Base 4:4.5.3
 _ZN15Q3GListIteratorD1Ev@Base 4:4.5.3
 _ZN15Q3GListIteratorD2Ev@Base 4:4.5.3
 _ZN15Q3GListIteratoraSERKS_@Base 4:4.5.3
 _ZN15Q3GListIteratorclEv@Base 4:4.5.3
 _ZN15Q3GListIteratormIEj@Base 4:4.5.3
 _ZN15Q3GListIteratormmEv@Base 4:4.5.3
 _ZN15Q3GListIteratorpLEj@Base 4:4.5.3
 _ZN15Q3GListIteratorppEv@Base 4:4.5.3
 _ZN15Q3ListBoxPixmap5paintEP8QPainter@Base 4:4.5.3
 _ZN15Q3ListBoxPixmapC1EP9Q3ListBoxRK7QPixmap@Base 4:4.5.3
 _ZN15Q3ListBoxPixmapC1EP9Q3ListBoxRK7QPixmapP13Q3ListBoxItem@Base 4:4.5.3
 _ZN15Q3ListBoxPixmapC1EP9Q3ListBoxRK7QPixmapRK7QString@Base 4:4.5.3
 _ZN15Q3ListBoxPixmapC1EP9Q3ListBoxRK7QPixmapRK7QStringP13Q3ListBoxItem@Base 4:4.5.3
 _ZN15Q3ListBoxPixmapC1ERK7QPixmap@Base 4:4.5.3
 _ZN15Q3ListBoxPixmapC1ERK7QPixmapRK7QString@Base 4:4.5.3
 _ZN15Q3ListBoxPixmapC2EP9Q3ListBoxRK7QPixmap@Base 4:4.5.3
 _ZN15Q3ListBoxPixmapC2EP9Q3ListBoxRK7QPixmapP13Q3ListBoxItem@Base 4:4.5.3
 _ZN15Q3ListBoxPixmapC2EP9Q3ListBoxRK7QPixmapRK7QString@Base 4:4.5.3
 _ZN15Q3ListBoxPixmapC2EP9Q3ListBoxRK7QPixmapRK7QStringP13Q3ListBoxItem@Base 4:4.5.3
 _ZN15Q3ListBoxPixmapC2ERK7QPixmap@Base 4:4.5.3
 _ZN15Q3ListBoxPixmapC2ERK7QPixmapRK7QString@Base 4:4.5.3
 _ZN15Q3ListBoxPixmapD0Ev@Base 4:4.5.3
 _ZN15Q3ListBoxPixmapD1Ev@Base 4:4.5.3
 _ZN15Q3ListBoxPixmapD2Ev@Base 4:4.5.3
 _ZN15Q3MultiLineEdit10cursorDownEb@Base 4:4.5.3
 _ZN15Q3MultiLineEdit10cursorLeftEbb@Base 4:4.5.3
 _ZN15Q3MultiLineEdit10insertLineERK7QStringi@Base 4:4.5.3
 _ZN15Q3MultiLineEdit10removeLineEi@Base 4:4.5.3
 _ZN15Q3MultiLineEdit11cursorRightEbb@Base 4:4.5.3
 _ZN15Q3MultiLineEdit11qt_metacallEN11QMetaObject4CallEiPPv@Base 4:4.5.3
 _ZN15Q3MultiLineEdit11qt_metacastEPKc@Base 4:4.5.3
 _ZN15Q3MultiLineEdit12setAlignmentE6QFlagsIN2Qt13AlignmentFlagEE@Base 4:4.5.3
 _ZN15Q3MultiLineEdit13insertAndMarkERK7QStringb@Base 4:4.5.3
 _ZN15Q3MultiLineEdit16staticMetaObjectE@Base 4:4.5.3
 _ZN15Q3MultiLineEdit17cursorWordForwardEb@Base 4:4.5.3
 _ZN15Q3MultiLineEdit17setCursorPositionEiib@Base 4:4.5.3
 _ZN15Q3MultiLineEdit18cursorWordBackwardEb@Base 4:4.5.3
 _ZN15Q3MultiLineEdit3endEb@Base 4:4.5.3
 _ZN15Q3MultiLineEdit4homeEb@Base 4:4.5.3
 _ZN15Q3MultiLineEdit6pageUpEb@Base 4:4.5.3
 _ZN15Q3MultiLineEdit7newLineEv@Base 4:4.5.3
 _ZN15Q3MultiLineEdit8cursorUpEb@Base 4:4.5.3
 _ZN15Q3MultiLineEdit8insertAtERK7QStringiib@Base 4:4.5.3
 _ZN15Q3MultiLineEdit8killLineEv@Base 4:4.5.3
 _ZN15Q3MultiLineEdit8pageDownEb@Base 4:4.5.3
 _ZN15Q3MultiLineEdit9backspaceEv@Base 4:4.5.3
 _ZN15Q3MultiLineEdit9setEditedEb@Base 4:4.5.3
 _ZN15Q3MultiLineEditC1EP7QWidgetPKc@Base 4:4.5.3
 _ZN15Q3MultiLineEditC2EP7QWidgetPKc@Base 4:4.5.3
 _ZN15Q3MultiLineEditD0Ev@Base 4:4.5.3
 _ZN15Q3MultiLineEditD1Ev@Base 4:4.5.3
 _ZN15Q3MultiLineEditD2Ev@Base 4:4.5.3
 _ZN15Q3PtrCollection7newItemEPv@Base 4:4.5.3
 (optional=gcc47|arch=amd64 hurd-i386 i386 kfreebsd-amd64 kfreebsd-i386)_ZN15Q3SqlRecordInfoD1Ev@Base 4:4.8.1
 (optional=gcc47|arch=amd64 hurd-i386 i386 kfreebsd-amd64 kfreebsd-i386)_ZN15Q3SqlRecordInfoD2Ev@Base 4:4.8.1
 _ZN15Q3TextFormatter10formatLineEP15Q3TextParagraphP12Q3TextStringP14QTextLineStartP16Q3TextStringCharS7_ii@Base 4:4.5.3
 _ZN15Q3TextFormatter14setWrapEnabledEb@Base 4:4.5.3
 _ZN15Q3TextFormatter15bidiReorderLineEP15Q3TextParagraphP12Q3TextStringP14QTextLineStartP16Q3TextStringCharS7_ii@Base 4:4.5.3
 _ZN15Q3TextFormatter15insertLineStartEP15Q3TextParagraphiP14QTextLineStart@Base 4:4.5.3
 _ZN15Q3TextFormatter15setWrapAtColumnEi@Base 4:4.5.3
 _ZN15Q3TextFormatter16formatVerticallyEP14Q3TextDocumentP15Q3TextParagraph@Base 4:4.5.3
 _ZN15Q3TextFormatterC1Ev@Base 4:4.5.3
 _ZN15Q3TextFormatterC2Ev@Base 4:4.5.3
 _ZN15Q3TextFormatterD0Ev@Base 4:4.5.3
 _ZN15Q3TextFormatterD1Ev@Base 4:4.5.3
 _ZN15Q3TextFormatterD2Ev@Base 4:4.5.3
 _ZN15Q3TextParagraph10addCommandEP13Q3TextCommand@Base 4:4.5.3
 _ZN15Q3TextParagraph10drawStringER8QPainterRK7QStringiiiiiiibiP16Q3TextStringCharRK8QPaletteb@Base 4:4.5.3
 _ZN15Q3TextParagraph10invalidateEi@Base 4:4.5.3
 _ZN15Q3TextParagraph10setChangedEbb@Base 4:4.5.3
 _ZN15Q3TextParagraph11setListItemEb@Base 4:4.5.3
 _ZN15Q3TextParagraph11setTabArrayEPi@Base 4:4.5.3
 _ZN15Q3TextParagraph11setTabStopsEi@Base 4:4.5.3
 _ZN15Q3TextParagraph12setAlignmentEi@Base 4:4.5.3
 _ZN15Q3TextParagraph12setDirectionEN5QChar9DirectionE@Base 4:4.5.3
 _ZN15Q3TextParagraph12setListDepthEi@Base 4:4.5.3
 _ZN15Q3TextParagraph12setSelectionEiii@Base 4:4.5.3
 _ZN15Q3TextParagraph13copyParagDataEPS_@Base 4:4.5.3
 _ZN15Q3TextParagraph15adjustToPainterEP8QPainter@Base 4:4.5.3
 _ZN15Q3TextParagraph15removeSelectionEi@Base 4:4.5.3
 _ZN15Q3TextParagraph20invalidateStyleCacheEv@Base 4:4.5.3
 _ZN15Q3TextParagraph20readStyleInformationER11QDataStream@Base 4:4.5.3
 _ZN15Q3TextParagraph20setColorForSelectionER6QColorR8QPainterRK8QPalettei@Base 4:4.5.3
 _ZN15Q3TextParagraph4hideEv@Base 4:4.5.3
 _ZN15Q3TextParagraph4joinEPS_@Base 4:4.5.3
 _ZN15Q3TextParagraph4moveERi@Base 4:4.5.3
 _ZN15Q3TextParagraph4redoEP12Q3TextCursor@Base 4:4.5.3
 _ZN15Q3TextParagraph4showEv@Base 4:4.5.3
 _ZN15Q3TextParagraph4undoEP12Q3TextCursor@Base 4:4.5.3
 _ZN15Q3TextParagraph5paintER8QPainterRK8QPaletteP12Q3TextCursorbiiii@Base 4:4.5.3
 _ZN15Q3TextParagraph6formatEib@Base 4:4.5.3
 _ZN15Q3TextParagraph6indentEPiS0_@Base 4:4.5.3
 _ZN15Q3TextParagraph6insertEiPK5QChari@Base 4:4.5.3
 _ZN15Q3TextParagraph6insertEiRK7QString@Base 4:4.5.3
 _ZN15Q3TextParagraph6removeEii@Base 4:4.5.3
 _ZN15Q3TextParagraph7nextTabEii@Base 4:4.5.3
 _ZN15Q3TextParagraph7setNextEPS_@Base 4:4.5.3
 _ZN15Q3TextParagraph7setPrevEPS_@Base 4:4.5.3
 _ZN15Q3TextParagraph8truncateEi@Base 4:4.5.3
 _ZN15Q3TextParagraph9drawLabelEP8QPainteriiiiiRK8QPalette@Base 4:4.5.3
 _ZN15Q3TextParagraph9setFormatEiiP12Q3TextFormatbi@Base 4:4.5.3
 _ZN15Q3TextParagraphC1EP14Q3TextDocumentPS_S2_b@Base 4:4.5.3
 _ZN15Q3TextParagraphC2EP14Q3TextDocumentPS_S2_b@Base 4:4.5.3
 _ZN15Q3TextParagraphD1Ev@Base 4:4.5.3
 _ZN15Q3TextParagraphD2Ev@Base 4:4.5.3
 _ZN15Q3TextTableCell10invalidateEv@Base 4:4.5.3
 _ZN15Q3TextTableCell11setGeometryERK5QRect@Base 4:4.5.3
 _ZN15Q3TextTableCell15adjustToPainterEP8QPainter@Base 4:4.5.3
 _ZN15Q3TextTableCell4drawEP8QPainteriiiiiiRK8QPaletteb@Base 4:4.5.3
 _ZN15Q3TextTableCellC1EP11Q3TextTableiiRK4QMapI7QStringS3_EPK16Q3StyleSheetItemRK12Q3TextFormatRKS3_R19Q3MimeSourceFactoryP12Q3StyleSheetSE_@Base 4:4.5.3
 _ZN15Q3TextTableCellC2EP11Q3TextTableiiRK4QMapI7QStringS3_EPK16Q3StyleSheetItemRK12Q3TextFormatRKS3_R19Q3MimeSourceFactoryP12Q3StyleSheetSE_@Base 4:4.5.3
 _ZN15Q3TextTableCellD0Ev@Base 4:4.5.3
 _ZN15Q3TextTableCellD1Ev@Base 4:4.5.3
 _ZN15Q3TextTableCellD2Ev@Base 4:4.5.3
 (optional=external|arch=hppa sparc)_ZN15QBasicAtomicInt3refEv@Base 4:4.5.3
 (optional=external|arch=sparc)_ZN15QBasicAtomicInt5derefEv@Base 4:4.5.3
 _ZN16Q3CanvasItemList10drawUniqueER8QPainter@Base 4:4.5.3
 _ZN16Q3CanvasItemList4sortEv@Base 4:4.5.3
 _ZN16Q3CanvasItemListD1Ev@Base 4:4.7.4
 _ZN16Q3CanvasItemListD2Ev@Base 4:4.7.4
 _ZN16Q3CheckTableItem10setCheckedEb@Base 4:4.5.3
 _ZN16Q3CheckTableItem20setContentFromEditorEP7QWidget@Base 4:4.5.3
 _ZN16Q3CheckTableItem4RTTIE@Base 4:4.5.3
 _ZN16Q3CheckTableItem5paintEP8QPainterRK11QColorGroupRK5QRectb@Base 4:4.5.3
 _ZN16Q3CheckTableItem7setTextERK7QString@Base 4:4.5.3
 _ZN16Q3CheckTableItemC1EP7Q3TableRK7QString@Base 4:4.5.3
 _ZN16Q3CheckTableItemC2EP7Q3TableRK7QString@Base 4:4.5.3
 _ZN16Q3CheckTableItemD0Ev@Base 4:4.7.4
 _ZN16Q3CheckTableItemD1Ev@Base 4:4.7.4
 _ZN16Q3CheckTableItemD2Ev@Base 4:4.7.4
 _ZN16Q3ComboTableItem11setEditableEb@Base 4:4.5.3
 _ZN16Q3ComboTableItem13setStringListERK11QStringList@Base 4:4.5.3
 _ZN16Q3ComboTableItem14setCurrentItemERK7QString@Base 4:4.5.3
 _ZN16Q3ComboTableItem14setCurrentItemEi@Base 4:4.5.3
 _ZN16Q3ComboTableItem15fakeComboWidgetE@Base 4:4.5.3
 _ZN16Q3ComboTableItem20setContentFromEditorEP7QWidget@Base 4:4.5.3
 _ZN16Q3ComboTableItem4RTTIE@Base 4:4.5.3
 _ZN16Q3ComboTableItem5paintEP8QPainterRK11QColorGroupRK5QRectb@Base 4:4.5.3
 _ZN16Q3ComboTableItem7fakeRefE@Base 4:4.5.3
 _ZN16Q3ComboTableItem9fakeComboE@Base 4:4.5.3
 _ZN16Q3ComboTableItemC1EP7Q3TableRK11QStringListb@Base 4:4.5.3
 _ZN16Q3ComboTableItemC2EP7Q3TableRK11QStringListb@Base 4:4.5.3
 _ZN16Q3ComboTableItemD0Ev@Base 4:4.5.3
 _ZN16Q3ComboTableItemD1Ev@Base 4:4.5.3
 _ZN16Q3ComboTableItemD2Ev@Base 4:4.5.3
 _ZN16Q3DockAreaLayout10invalidateEv@Base 4:4.5.3
 _ZN16Q3DockAreaLayout11layoutItemsERK5QRectb@Base 4:4.5.3
 _ZN16Q3DockAreaLayout11qt_metacallEN11QMetaObject4CallEiPPv@Base 4:4.5.3
 _ZN16Q3DockAreaLayout11qt_metacastEPKc@Base 4:4.5.3
 _ZN16Q3DockAreaLayout11setGeometryERK5QRect@Base 4:4.5.3
 _ZN16Q3DockAreaLayout16staticMetaObjectE@Base 4:4.5.3
 _ZN16Q3DockAreaLayout4initEv@Base 4:4.5.3
 _ZN16Q3DockAreaLayout6takeAtEi@Base 4:4.5.3
 _ZN16Q3GCacheIterator6toLastEv@Base 4:4.5.3
 _ZN16Q3GCacheIterator7toFirstEv@Base 4:4.5.3
 _ZN16Q3GCacheIteratorC1ERK8Q3GCache@Base 4:4.5.3
 _ZN16Q3GCacheIteratorC1ERKS_@Base 4:4.5.3
 _ZN16Q3GCacheIteratorC2ERK8Q3GCache@Base 4:4.5.3
 _ZN16Q3GCacheIteratorC2ERKS_@Base 4:4.5.3
 _ZN16Q3GCacheIteratorD1Ev@Base 4:4.5.3
 _ZN16Q3GCacheIteratorD2Ev@Base 4:4.5.3
 _ZN16Q3GCacheIteratoraSERKS_@Base 4:4.5.3
 _ZN16Q3GCacheIteratorclEv@Base 4:4.5.3
 _ZN16Q3GCacheIteratormIEj@Base 4:4.5.3
 _ZN16Q3GCacheIteratormmEv@Base 4:4.5.3
 _ZN16Q3GCacheIteratorpLEj@Base 4:4.5.3
 _ZN16Q3GCacheIteratorppEv@Base 4:4.5.3
 _ZN16Q3PolygonScanner4scanERK12Q3PointArraybii@Base 4:4.5.3
 _ZN16Q3PolygonScanner4scanERK12Q3PointArraybiiNS_4EdgeE@Base 4:4.5.3
 _ZN16Q3PolygonScanner4scanERK12Q3PointArraybiib@Base 4:4.5.3
 _ZN16Q3ProgressDialog10closeEventEP11QCloseEvent@Base 4:4.5.3
 _ZN16Q3ProgressDialog11changeEventEP6QEvent@Base 4:4.5.3
 _ZN16Q3ProgressDialog11qt_metacallEN11QMetaObject4CallEiPPv@Base 4:4.5.3
 _ZN16Q3ProgressDialog11qt_metacastEPKc@Base 4:4.5.3
 _ZN16Q3ProgressDialog11resizeEventEP12QResizeEvent@Base 4:4.5.3
 _ZN16Q3ProgressDialog11setProgressEi@Base 4:4.5.3
 _ZN16Q3ProgressDialog11setProgressEii@Base 4:4.5.3
 _ZN16Q3ProgressDialog12setAutoCloseEb@Base 4:4.5.3
 _ZN16Q3ProgressDialog12setAutoResetEb@Base 4:4.5.3
 _ZN16Q3ProgressDialog12setLabelTextERK7QString@Base 4:4.5.3
 _ZN16Q3ProgressDialog13setTotalStepsEi@Base 4:4.5.3
 _ZN16Q3ProgressDialog15setCancelButtonEP11QPushButton@Base 4:4.5.3
 _ZN16Q3ProgressDialog16staticMetaObjectE@Base 4:4.5.3
 _ZN16Q3ProgressDialog18setMinimumDurationEi@Base 4:4.5.3
 _ZN16Q3ProgressDialog19setCancelButtonTextERK7QString@Base 4:4.5.3
 _ZN16Q3ProgressDialog4initEP7QWidgetRK7QStringS4_i@Base 4:4.5.3
 _ZN16Q3ProgressDialog5resetEv@Base 4:4.5.3
 _ZN16Q3ProgressDialog6cancelEv@Base 4:4.5.3
 _ZN16Q3ProgressDialog6layoutEv@Base 4:4.5.3
 _ZN16Q3ProgressDialog6setBarEP13Q3ProgressBar@Base 4:4.5.3
 _ZN16Q3ProgressDialog8canceledEv@Base 4:4.5.3
 _ZN16Q3ProgressDialog8setLabelEP6QLabel@Base 4:4.5.3
 _ZN16Q3ProgressDialog9cancelledEv@Base 4:4.5.3
 _ZN16Q3ProgressDialog9forceShowEv@Base 4:4.5.3
 _ZN16Q3ProgressDialog9showEventEP10QShowEvent@Base 4:4.5.3
 _ZN16Q3ProgressDialogC1EP7QWidget6QFlagsIN2Qt10WindowTypeEE@Base 4:4.5.3
 _ZN16Q3ProgressDialogC1EP7QWidgetPKcb6QFlagsIN2Qt10WindowTypeEE@Base 4:4.5.3
 _ZN16Q3ProgressDialogC1ERK7QStringS2_iP7QWidget6QFlagsIN2Qt10WindowTypeEE@Base 4:4.5.3
 _ZN16Q3ProgressDialogC1ERK7QStringS2_iP7QWidgetPKcb6QFlagsIN2Qt10WindowTypeEE@Base 4:4.5.3
 _ZN16Q3ProgressDialogC2EP7QWidget6QFlagsIN2Qt10WindowTypeEE@Base 4:4.5.3
 _ZN16Q3ProgressDialogC2EP7QWidgetPKcb6QFlagsIN2Qt10WindowTypeEE@Base 4:4.5.3
 _ZN16Q3ProgressDialogC2ERK7QStringS2_iP7QWidget6QFlagsIN2Qt10WindowTypeEE@Base 4:4.5.3
 _ZN16Q3ProgressDialogC2ERK7QStringS2_iP7QWidgetPKcb6QFlagsIN2Qt10WindowTypeEE@Base 4:4.5.3
 _ZN16Q3ProgressDialogD0Ev@Base 4:4.5.3
 _ZN16Q3ProgressDialogD1Ev@Base 4:4.5.3
 _ZN16Q3ProgressDialogD2Ev@Base 4:4.5.3
 _ZN16Q3SimpleRichText10adjustSizeEv@Base 4:4.5.3
 _ZN16Q3SimpleRichText14setDefaultFontERK5QFont@Base 4:4.5.3
 _ZN16Q3SimpleRichText8setWidthEP8QPainteri@Base 4:4.5.3
 _ZN16Q3SimpleRichText8setWidthEi@Base 4:4.5.3
 _ZN16Q3SimpleRichTextC1ERK7QStringRK5QFontS2_PK12Q3StyleSheet@Base 4:4.5.3
 _ZN16Q3SimpleRichTextC1ERK7QStringRK5QFontS2_PK12Q3StyleSheetPK19Q3MimeSourceFactoryiRK6QColorb@Base 4:4.5.3
 _ZN16Q3SimpleRichTextC2ERK7QStringRK5QFontS2_PK12Q3StyleSheet@Base 4:4.5.3
 _ZN16Q3SimpleRichTextC2ERK7QStringRK5QFontS2_PK12Q3StyleSheetPK19Q3MimeSourceFactoryiRK6QColorb@Base 4:4.5.3
 _ZN16Q3SimpleRichTextD1Ev@Base 4:4.5.3
 _ZN16Q3SimpleRichTextD2Ev@Base 4:4.5.3
 _ZN16Q3SqlFormManager10readFieldsEv@Base 4:4.5.3
 _ZN16Q3SqlFormManager11clearValuesEv@Base 4:4.5.3
 _ZN16Q3SqlFormManager11writeFieldsEv@Base 4:4.5.3
 _ZN16Q3SqlFormManager4formEv@Base 4:4.5.3
 _ZN16Q3SqlFormManager6recordEv@Base 4:4.5.3
 _ZN16Q3SqlFormManager7setFormEP9Q3SqlForm@Base 4:4.5.3
 _ZN16Q3SqlFormManager9setRecordEP10QSqlRecord@Base 4:4.5.3
 _ZN16Q3SqlFormManagerC1Ev@Base 4:4.5.3
 _ZN16Q3SqlFormManagerC2Ev@Base 4:4.5.3
 _ZN16Q3SqlFormManagerD0Ev@Base 4:4.5.3
 _ZN16Q3SqlFormManagerD1Ev@Base 4:4.5.3
 _ZN16Q3SqlFormManagerD2Ev@Base 4:4.5.3
 _ZN16Q3SqlPropertyMap10defaultMapEv@Base 4:4.5.3
 _ZN16Q3SqlPropertyMap11setPropertyEP7QWidgetRK8QVariant@Base 4:4.5.3
 _ZN16Q3SqlPropertyMap17installDefaultMapEPS_@Base 4:4.5.3
 _ZN16Q3SqlPropertyMap6insertERK7QStringS2_@Base 4:4.5.3
 _ZN16Q3SqlPropertyMap6removeERK7QString@Base 4:4.5.3
 _ZN16Q3SqlPropertyMap8propertyEP7QWidget@Base 4:4.5.3
 _ZN16Q3SqlPropertyMapC1Ev@Base 4:4.5.3
 _ZN16Q3SqlPropertyMapC2Ev@Base 4:4.5.3
 _ZN16Q3SqlPropertyMapD0Ev@Base 4:4.5.3
 _ZN16Q3SqlPropertyMapD1Ev@Base 4:4.5.3
 _ZN16Q3SqlPropertyMapD2Ev@Base 4:4.5.3
 _ZN16Q3StyleSheetItem10styleSheetEv@Base 4:4.5.3
 _ZN16Q3StyleSheetItem11setContextsERK7QString@Base 4:4.5.3
 _ZN16Q3StyleSheetItem11setFontSizeEi@Base 4:4.5.3
 _ZN16Q3StyleSheetItem12setAlignmentEi@Base 4:4.5.3
 _ZN16Q3StyleSheetItem12setListStyleENS_9ListStyleE@Base 4:4.5.3
 _ZN16Q3StyleSheetItem13setFontFamilyERK7QString@Base 4:4.5.3
 _ZN16Q3StyleSheetItem13setFontItalicEb@Base 4:4.5.3
 _ZN16Q3StyleSheetItem13setFontWeightEi@Base 4:4.5.3
 _ZN16Q3StyleSheetItem14setDisplayModeENS_11DisplayModeE@Base 4:4.5.3
 _ZN16Q3StyleSheetItem14setLineSpacingEi@Base 4:4.5.3
 _ZN16Q3StyleSheetItem14setSelfNestingEb@Base 4:4.5.3
 _ZN16Q3StyleSheetItem16setFontStrikeOutEb@Base 4:4.5.3
 _ZN16Q3StyleSheetItem16setFontUnderlineEb@Base 4:4.5.3
 _ZN16Q3StyleSheetItem17setWhiteSpaceModeENS_14WhiteSpaceModeE@Base 4:4.5.3
 _ZN16Q3StyleSheetItem18setLogicalFontSizeEi@Base 4:4.5.3
 _ZN16Q3StyleSheetItem18setNumberOfColumnsEi@Base 4:4.5.3
 _ZN16Q3StyleSheetItem20setVerticalAlignmentENS_17VerticalAlignmentE@Base 4:4.5.3
 _ZN16Q3StyleSheetItem22setLogicalFontSizeStepEi@Base 4:4.5.3
 _ZN16Q3StyleSheetItem4initEv@Base 4:4.5.3
 _ZN16Q3StyleSheetItem8setColorERK6QColor@Base 4:4.5.3
 _ZN16Q3StyleSheetItem9setAnchorEb@Base 4:4.5.3
 _ZN16Q3StyleSheetItem9setMarginENS_6MarginEi@Base 4:4.5.3
 _ZN16Q3StyleSheetItemC1EP12Q3StyleSheetRK7QString@Base 4:4.5.3
 _ZN16Q3StyleSheetItemC1ERKS_@Base 4:4.5.3
 _ZN16Q3StyleSheetItemC2EP12Q3StyleSheetRK7QString@Base 4:4.5.3
 _ZN16Q3StyleSheetItemC2ERKS_@Base 4:4.5.3
 _ZN16Q3StyleSheetItemD1Ev@Base 4:4.5.3
 _ZN16Q3StyleSheetItemD2Ev@Base 4:4.5.3
 _ZN16Q3StyleSheetItemaSERKS_@Base 4:4.5.3
 _ZN16Q3TableSelection4initEii@Base 4:4.5.3
 _ZN16Q3TableSelection8expandToEii@Base 4:4.5.3
 _ZN16Q3TableSelectionC1Eiiii@Base 4:4.5.3
 _ZN16Q3TableSelectionC1Ev@Base 4:4.5.3
 _ZN16Q3TableSelectionC2Eiiii@Base 4:4.5.3
 _ZN16Q3TableSelectionC2Ev@Base 4:4.5.3
 _ZN16Q3TextCustomItem10invalidateEv@Base 4:4.5.3
 _ZN16Q3TextCustomItem15adjustToPainterEP8QPainter@Base 4:4.5.3
 _ZN16Q3TextCustomItem2upEP12Q3TextCursorRP14Q3TextDocumentRP15Q3TextParagraphRiS8_S8_@Base 4:4.5.3
 _ZN16Q3TextCustomItem4downEP12Q3TextCursorRP14Q3TextDocumentRP15Q3TextParagraphRiS8_S8_@Base 4:4.5.3
 _ZN16Q3TextCustomItem4nextEP12Q3TextCursorRP14Q3TextDocumentRP15Q3TextParagraphRiS8_S8_@Base 4:4.5.3
 _ZN16Q3TextCustomItem4prevEP12Q3TextCursorRP14Q3TextDocumentRP15Q3TextParagraphRiS8_S8_@Base 4:4.5.3
 _ZN16Q3TextCustomItem5enterEP12Q3TextCursorRP14Q3TextDocumentRP15Q3TextParagraphRiS8_S8_b@Base 4:4.5.3
 _ZN16Q3TextCustomItem6resizeEi@Base 4:4.5.3
 _ZN16Q3TextCustomItem7enterAtEP12Q3TextCursorRP14Q3TextDocumentRP15Q3TextParagraphRiS8_S8_RK6QPoint@Base 4:4.5.3
 _ZN16Q3TextCustomItem9pageBreakEiP10Q3TextFlow@Base 4:4.5.3
 _ZN16Q3TextCustomItemD0Ev@Base 4:4.5.3
 _ZN16Q3TextCustomItemD1Ev@Base 4:4.5.3
 _ZN16Q3TextCustomItemD2Ev@Base 4:4.5.3
 (arch=armel)_ZN16Q3TextStringChar10CustomDataC1Ev@Base 4:4.8.0
 (arch=armel)_ZN16Q3TextStringChar10CustomDataC2Ev@Base 4:4.8.0
 _ZN16Q3TextStringChar13setCustomItemEP16Q3TextCustomItem@Base 4:4.5.3
 _ZN16Q3TextStringChar14loseCustomItemEv@Base 4:4.5.3
 _ZN16Q3TextStringChar9setAnchorERK7QStringS2_@Base 4:4.5.3
 _ZN16Q3TextStringChar9setFormatEP12Q3TextFormat@Base 4:4.5.3
 _ZN16Q3TextStringCharD1Ev@Base 4:4.5.3
 _ZN16Q3TextStringCharD2Ev@Base 4:4.5.3
 _ZN17Q3CanvasRectangle4RTTIE@Base 4:4.5.3
 _ZN17Q3CanvasRectangle7setSizeEii@Base 4:4.5.3
 _ZN17Q3CanvasRectangle9drawShapeER8QPainter@Base 4:4.5.3
 _ZN17Q3CanvasRectangleC1EP8Q3Canvas@Base 4:4.5.3
 _ZN17Q3CanvasRectangleC1ERK5QRectP8Q3Canvas@Base 4:4.5.3
 _ZN17Q3CanvasRectangleC1EiiiiP8Q3Canvas@Base 4:4.5.3
 _ZN17Q3CanvasRectangleC2EP8Q3Canvas@Base 4:4.5.3
 _ZN17Q3CanvasRectangleC2ERK5QRectP8Q3Canvas@Base 4:4.5.3
 _ZN17Q3CanvasRectangleC2EiiiiP8Q3Canvas@Base 4:4.5.3
 _ZN17Q3CanvasRectangleD0Ev@Base 4:4.5.3
 _ZN17Q3CanvasRectangleD1Ev@Base 4:4.5.3
 _ZN17Q3CanvasRectangleD2Ev@Base 4:4.5.3
 _ZN17Q3NetworkProtocol11itemChangedEP18Q3NetworkOperation@Base 4:4.5.3
 _ZN17Q3NetworkProtocol11newChildrenERK11Q3ValueListI8QUrlInfoEP18Q3NetworkOperation@Base 4:4.5.3
 _ZN17Q3NetworkProtocol11qt_metacallEN11QMetaObject4CallEiPPv@Base 4:4.5.3
 _ZN17Q3NetworkProtocol11qt_metacastEPKc@Base 4:4.5.3
 _ZN17Q3NetworkProtocol12addOperationEP18Q3NetworkOperation@Base 4:4.5.3
 _ZN17Q3NetworkProtocol12operationGetEP18Q3NetworkOperation@Base 4:4.5.3
 _ZN17Q3NetworkProtocol12operationPutEP18Q3NetworkOperation@Base 4:4.5.3
 _ZN17Q3NetworkProtocol13setAutoDeleteEbi@Base 4:4.5.3
 _ZN17Q3NetworkProtocol14operationMkDirEP18Q3NetworkOperation@Base 4:4.5.3
 _ZN17Q3NetworkProtocol15checkConnectionEP18Q3NetworkOperation@Base 4:4.5.3
 _ZN17Q3NetworkProtocol15emitNewChildrenERK8QUrlInfoP18Q3NetworkOperation@Base 4:4.5.3
 _ZN17Q3NetworkProtocol15operationRemoveEP18Q3NetworkOperation@Base 4:4.5.3
 _ZN17Q3NetworkProtocol15operationRenameEP18Q3NetworkOperation@Base 4:4.5.3
 _ZN17Q3NetworkProtocol16createdDirectoryERK8QUrlInfoP18Q3NetworkOperation@Base 4:4.5.3
 _ZN17Q3NetworkProtocol16processOperationEP18Q3NetworkOperation@Base 4:4.5.3
 _ZN17Q3NetworkProtocol16staticMetaObjectE@Base 4:4.5.3
 _ZN17Q3NetworkProtocol17operationPutChunkEP18Q3NetworkOperation@Base 4:4.5.3
 _ZN17Q3NetworkProtocol18getNetworkProtocolERK7QString@Base 4:4.5.3
 _ZN17Q3NetworkProtocol19clearOperationQueueEv@Base 4:4.5.3
 _ZN17Q3NetworkProtocol20dataTransferProgressEiiP18Q3NetworkOperation@Base 4:4.5.3
 _ZN17Q3NetworkProtocol20processNextOperationEP18Q3NetworkOperation@Base 4:4.5.3
 _ZN17Q3NetworkProtocol21operationListChildrenEP18Q3NetworkOperation@Base 4:4.5.3
 _ZN17Q3NetworkProtocol22connectionStateChangedEiRK7QString@Base 4:4.5.3
 _ZN17Q3NetworkProtocol22hasOnlyLocalFileSystemEv@Base 4:4.5.3
 _ZN17Q3NetworkProtocol23registerNetworkProtocolERK7QStringP28Q3NetworkProtocolFactoryBase@Base 4:4.5.3
 _ZN17Q3NetworkProtocol4dataERK10QByteArrayP18Q3NetworkOperation@Base 4:4.5.3
 _ZN17Q3NetworkProtocol4stopEv@Base 4:4.5.3
 _ZN17Q3NetworkProtocol5startEP18Q3NetworkOperation@Base 4:4.5.3
 _ZN17Q3NetworkProtocol6setUrlEP13Q3UrlOperator@Base 4:4.5.3
 _ZN17Q3NetworkProtocol7removedEP18Q3NetworkOperation@Base 4:4.5.3
 _ZN17Q3NetworkProtocol8finishedEP18Q3NetworkOperation@Base 4:4.5.3
 _ZN17Q3NetworkProtocol8newChildERK8QUrlInfoP18Q3NetworkOperation@Base 4:4.5.3
 _ZN17Q3NetworkProtocol8removeMeEv@Base 4:4.5.3
 _ZN17Q3NetworkProtocol8startOpsEv@Base 4:4.5.3
 _ZN17Q3NetworkProtocolC1Ev@Base 4:4.5.3
 _ZN17Q3NetworkProtocolC2Ev@Base 4:4.5.3
 _ZN17Q3NetworkProtocolD0Ev@Base 4:4.5.3
 _ZN17Q3NetworkProtocolD1Ev@Base 4:4.5.3
 _ZN17Q3NetworkProtocolD2Ev@Base 4:4.5.3
 _ZN17Q3SqlSelectCursor14populateCursorEv@Base 4:4.5.3
 _ZN17Q3SqlSelectCursor4execERK7QString@Base 4:4.5.3
 _ZN17Q3SqlSelectCursor6selectERK7QStringRK9QSqlIndex@Base 4:4.5.3
 _ZN17Q3SqlSelectCursorC1ERK7QString12QSqlDatabase@Base 4:4.5.3
 _ZN17Q3SqlSelectCursorC1ERKS_@Base 4:4.5.3
 _ZN17Q3SqlSelectCursorC2ERK7QString12QSqlDatabase@Base 4:4.5.3
 _ZN17Q3SqlSelectCursorC2ERKS_@Base 4:4.5.3
 _ZN17Q3SqlSelectCursorD0Ev@Base 4:4.5.3
 _ZN17Q3SqlSelectCursorD1Ev@Base 4:4.5.3
 _ZN17Q3SqlSelectCursorD2Ev@Base 4:4.5.3
 _ZN18Q3DateTimeEditBase11qt_metacallEN11QMetaObject4CallEiPPv@Base 4:4.5.3
 _ZN18Q3DateTimeEditBase11qt_metacastEPKc@Base 4:4.5.3
 _ZN18Q3DateTimeEditBase16staticMetaObjectE@Base 4:4.5.3
 _ZN18Q3DateTimeEditBaseD0Ev@Base 4:4.7.4
 _ZN18Q3DateTimeEditBaseD1Ev@Base 4:4.7.4
 _ZN18Q3DateTimeEditBaseD2Ev@Base 4:4.7.4
 _ZN18Q3FileIconProvider11qt_metacallEN11QMetaObject4CallEiPPv@Base 4:4.5.3
 _ZN18Q3FileIconProvider11qt_metacastEPKc@Base 4:4.5.3
 _ZN18Q3FileIconProvider16staticMetaObjectE@Base 4:4.5.3
 _ZN18Q3FileIconProvider6pixmapERK9QFileInfo@Base 4:4.5.3
 _ZN18Q3FileIconProviderC1EP7QObjectPKc@Base 4:4.5.3
 _ZN18Q3FileIconProviderC2EP7QObjectPKc@Base 4:4.5.3
 _ZN18Q3FileIconProviderD0Ev@Base 4:4.7.4
 _ZN18Q3FileIconProviderD1Ev@Base 4:4.7.4
 _ZN18Q3FileIconProviderD2Ev@Base 4:4.7.4
 _ZN18Q3IconDragDataItemD1Ev@Base 4:4.7.4
 _ZN18Q3IconDragDataItemD2Ev@Base 4:4.7.4
 _ZN18Q3NetworkOperation11qt_metacallEN11QMetaObject4CallEiPPv@Base 4:4.5.3
 _ZN18Q3NetworkOperation11qt_metacastEPKc@Base 4:4.5.3
 _ZN18Q3NetworkOperation12setErrorCodeEi@Base 4:4.5.3
 _ZN18Q3NetworkOperation16staticMetaObjectE@Base 4:4.5.3
 _ZN18Q3NetworkOperation17setProtocolDetailERK7QString@Base 4:4.5.3
 _ZN18Q3NetworkOperation4freeEv@Base 4:4.5.3
 _ZN18Q3NetworkOperation6setArgEiRK7QString@Base 4:4.5.3
 _ZN18Q3NetworkOperation8deleteMeEv@Base 4:4.5.3
 _ZN18Q3NetworkOperation8setStateEN17Q3NetworkProtocol5StateE@Base 4:4.5.3
 _ZN18Q3NetworkOperation9setRawArgEiRK10QByteArray@Base 4:4.5.3
 _ZN18Q3NetworkOperationC1EN17Q3NetworkProtocol9OperationERK10QByteArrayS4_S4_@Base 4:4.5.3
 _ZN18Q3NetworkOperationC1EN17Q3NetworkProtocol9OperationERK7QStringS4_S4_@Base 4:4.5.3
 _ZN18Q3NetworkOperationC2EN17Q3NetworkProtocol9OperationERK10QByteArrayS4_S4_@Base 4:4.5.3
 _ZN18Q3NetworkOperationC2EN17Q3NetworkProtocol9OperationERK7QStringS4_S4_@Base 4:4.5.3
 _ZN18Q3NetworkOperationD0Ev@Base 4:4.5.3
 _ZN18Q3NetworkOperationD1Ev@Base 4:4.5.3
 _ZN18Q3NetworkOperationD2Ev@Base 4:4.5.3
 _ZN18Q3SqlCursorManager10findBufferERK9QSqlIndexi@Base 4:4.5.3
 _ZN18Q3SqlCursorManager13setAutoDeleteEb@Base 4:4.5.3
 _ZN18Q3SqlCursorManager7refreshEv@Base 4:4.5.3
 _ZN18Q3SqlCursorManager7setSortERK11QStringList@Base 4:4.5.3
 _ZN18Q3SqlCursorManager7setSortERK9QSqlIndex@Base 4:4.5.3
 _ZN18Q3SqlCursorManager9setCursorEP11Q3SqlCursorb@Base 4:4.5.3
 _ZN18Q3SqlCursorManager9setFilterERK7QString@Base 4:4.5.3
 _ZN18Q3SqlCursorManagerC1Ev@Base 4:4.5.3
 _ZN18Q3SqlCursorManagerC2Ev@Base 4:4.5.3
 _ZN18Q3SqlCursorManagerD0Ev@Base 4:4.5.3
 _ZN18Q3SqlCursorManagerD1Ev@Base 4:4.5.3
 _ZN18Q3SqlCursorManagerD2Ev@Base 4:4.5.3
 _ZN18Q3SqlEditorFactory12createEditorEP7QWidgetPK9QSqlField@Base 4:4.5.3
 _ZN18Q3SqlEditorFactory12createEditorEP7QWidgetRK8QVariant@Base 4:4.5.3
 _ZN18Q3SqlEditorFactory14defaultFactoryEv@Base 4:4.5.3
 _ZN18Q3SqlEditorFactory21installDefaultFactoryEPS_@Base 4:4.5.3
 _ZN18Q3SqlEditorFactoryC1EP7QObject@Base 4:4.5.3
 _ZN18Q3SqlEditorFactoryC2EP7QObject@Base 4:4.5.3
 _ZN18Q3SqlEditorFactoryD0Ev@Base 4:4.5.3
 _ZN18Q3SqlEditorFactoryD1Ev@Base 4:4.5.3
 _ZN18Q3SqlEditorFactoryD2Ev@Base 4:4.5.3
 _ZN18Q3TextPreProcessorC1Ev@Base 4:4.5.3
 _ZN18Q3TextPreProcessorC2Ev@Base 4:4.5.3
 _ZN18Q3TextStyleCommand20readStyleInformationEP14Q3TextDocumentii@Base 4:4.5.3
 _ZN18Q3TextStyleCommand21writeStyleInformationEP14Q3TextDocumentiRK10QByteArray@Base 4:4.5.3
 _ZN18Q3TextStyleCommand7executeEP12Q3TextCursor@Base 4:4.5.3
 _ZN18Q3TextStyleCommand9unexecuteEP12Q3TextCursor@Base 4:4.5.3
 _ZN18Q3TextStyleCommandC1EP14Q3TextDocumentiiRK10QByteArray@Base 4:4.5.3
 _ZN18Q3TextStyleCommandC2EP14Q3TextDocumentiiRK10QByteArray@Base 4:4.5.3
 (optional=external|arch=amd64 armel armhf hurd-i386 i386 kfreebsd-amd64 kfreebsd-i386 mips mipsel s390 s390x sparc)_ZN18QStyleOptionButtonD1Ev@Base 4:4.8.1
 (optional=external|arch=amd64 armel armhf hurd-i386 i386 kfreebsd-amd64 kfreebsd-i386 mips mipsel s390 s390x sparc)_ZN18QStyleOptionButtonD2Ev@Base 4:4.8.1
 _ZN18QStyleOptionHeaderD1Ev@Base 4:4.7.4
 _ZN18QStyleOptionHeaderD2Ev@Base 4:4.7.4
 _ZN19Q3CanvasPixmapArray11readPixmapsERK7QStringi@Base 4:4.5.3
 _ZN19Q3CanvasPixmapArray11readPixmapsERK7QStringib@Base 4:4.5.3
 _ZN19Q3CanvasPixmapArray18readCollisionMasksERK7QString@Base 4:4.5.3
 _ZN19Q3CanvasPixmapArray5resetEv@Base 4:4.5.3
 _ZN19Q3CanvasPixmapArray8setImageEiP14Q3CanvasPixmap@Base 4:4.5.3
 _ZN19Q3CanvasPixmapArrayC1E11Q3ValueListI7QPixmapE12Q3PointArray@Base 4:4.5.3
 _ZN19Q3CanvasPixmapArrayC1E9Q3PtrListI7QPixmapES0_I6QPointE@Base 4:4.5.3
 _ZN19Q3CanvasPixmapArrayC1ERK7QStringi@Base 4:4.5.3
 _ZN19Q3CanvasPixmapArrayC1Ev@Base 4:4.5.3
 _ZN19Q3CanvasPixmapArrayC2E11Q3ValueListI7QPixmapE12Q3PointArray@Base 4:4.5.3
 _ZN19Q3CanvasPixmapArrayC2E9Q3PtrListI7QPixmapES0_I6QPointE@Base 4:4.5.3
 _ZN19Q3CanvasPixmapArrayC2ERK7QStringi@Base 4:4.5.3
 _ZN19Q3CanvasPixmapArrayC2Ev@Base 4:4.5.3
 _ZN19Q3CanvasPixmapArrayD1Ev@Base 4:4.5.3
 _ZN19Q3CanvasPixmapArrayD2Ev@Base 4:4.5.3
 _ZN19Q3CanvasPixmapArrayntEv@Base 4:4.5.3
 _ZN19Q3HttpRequestHeader10setRequestERK7QStringS2_ii@Base 4:4.5.3
 _ZN19Q3HttpRequestHeader9parseLineERK7QStringi@Base 4:4.5.3
 _ZN19Q3HttpRequestHeaderC1ERK7QString@Base 4:4.5.3
 _ZN19Q3HttpRequestHeaderC1ERK7QStringS2_ii@Base 4:4.5.3
 _ZN19Q3HttpRequestHeaderC1ERKS_@Base 4:4.5.3
 _ZN19Q3HttpRequestHeaderC1Ev@Base 4:4.5.3
 _ZN19Q3HttpRequestHeaderC2ERK7QString@Base 4:4.5.3
 _ZN19Q3HttpRequestHeaderC2ERK7QStringS2_ii@Base 4:4.5.3
 _ZN19Q3HttpRequestHeaderC2ERKS_@Base 4:4.5.3
 _ZN19Q3HttpRequestHeaderC2Ev@Base 4:4.5.3
 _ZN19Q3HttpRequestHeaderD0Ev@Base 4:4.7.4
 _ZN19Q3HttpRequestHeaderD1Ev@Base 4:4.7.4
 _ZN19Q3HttpRequestHeaderD2Ev@Base 4:4.7.4
 _ZN19Q3MimeSourceFactory10addFactoryEPS_@Base 4:4.5.3
 _ZN19Q3MimeSourceFactory11addFilePathERK7QString@Base 4:4.5.3
 _ZN19Q3MimeSourceFactory11setFilePathERK11QStringList@Base 4:4.5.3
 _ZN19Q3MimeSourceFactory13removeFactoryEPS_@Base 4:4.5.3
 _ZN19Q3MimeSourceFactory14defaultFactoryEv@Base 4:4.5.3
 _ZN19Q3MimeSourceFactory16setExtensionTypeERK7QStringPKc@Base 4:4.5.3
 _ZN19Q3MimeSourceFactory17setDefaultFactoryEPS_@Base 4:4.5.3
 _ZN19Q3MimeSourceFactory18takeDefaultFactoryEv@Base 4:4.5.3
 _ZN19Q3MimeSourceFactory7setDataERK7QStringP11QMimeSource@Base 4:4.5.3
 _ZN19Q3MimeSourceFactory7setTextERK7QStringS2_@Base 4:4.5.3
 _ZN19Q3MimeSourceFactory8setImageERK7QStringRK6QImage@Base 4:4.5.3
 _ZN19Q3MimeSourceFactory9setPixmapERK7QStringRK7QPixmap@Base 4:4.5.3
 _ZN19Q3MimeSourceFactoryC1Ev@Base 4:4.5.3
 _ZN19Q3MimeSourceFactoryC2Ev@Base 4:4.5.3
 _ZN19Q3MimeSourceFactoryD0Ev@Base 4:4.5.3
 _ZN19Q3MimeSourceFactoryD1Ev@Base 4:4.5.3
 _ZN19Q3MimeSourceFactoryD2Ev@Base 4:4.5.3
 _ZN19Q3SyntaxHighlighter11rehighlightEv@Base 4:4.5.3
 _ZN19Q3SyntaxHighlighter9setFormatEiiRK5QFont@Base 4:4.5.3
 _ZN19Q3SyntaxHighlighter9setFormatEiiRK5QFontRK6QColor@Base 4:4.5.3
 _ZN19Q3SyntaxHighlighter9setFormatEiiRK6QColor@Base 4:4.5.3
 _ZN19Q3SyntaxHighlighterC1EP10Q3TextEdit@Base 4:4.5.3
 _ZN19Q3SyntaxHighlighterC2EP10Q3TextEdit@Base 4:4.5.3
 _ZN19Q3SyntaxHighlighterD0Ev@Base 4:4.5.3
 _ZN19Q3SyntaxHighlighterD1Ev@Base 4:4.5.3
 _ZN19Q3SyntaxHighlighterD2Ev@Base 4:4.5.3
 _ZN19Q3TextDeleteCommand7executeEP12Q3TextCursor@Base 4:4.5.3
 _ZN19Q3TextDeleteCommand9unexecuteEP12Q3TextCursor@Base 4:4.5.3
 _ZN19Q3TextDeleteCommandC1EP14Q3TextDocumentiiRK7QVectorI16Q3TextStringCharERK10QByteArray@Base 4:4.5.3
 _ZN19Q3TextDeleteCommandC1EP15Q3TextParagraphiRK7QVectorI16Q3TextStringCharE@Base 4:4.5.3
 _ZN19Q3TextDeleteCommandC2EP14Q3TextDocumentiiRK7QVectorI16Q3TextStringCharERK10QByteArray@Base 4:4.5.3
 _ZN19Q3TextDeleteCommandC2EP15Q3TextParagraphiRK7QVectorI16Q3TextStringCharE@Base 4:4.5.3
 _ZN19Q3TextDeleteCommandD0Ev@Base 4:4.5.3
 _ZN19Q3TextDeleteCommandD1Ev@Base 4:4.5.3
 _ZN19Q3TextDeleteCommandD2Ev@Base 4:4.5.3
 _ZN19Q3TextFormatCommand7executeEP12Q3TextCursor@Base 4:4.5.3
 _ZN19Q3TextFormatCommand9unexecuteEP12Q3TextCursor@Base 4:4.5.3
 _ZN19Q3TextFormatCommandC1EP14Q3TextDocumentiiiiRK7QVectorI16Q3TextStringCharEP12Q3TextFormati@Base 4:4.5.3
 _ZN19Q3TextFormatCommandC2EP14Q3TextDocumentiiiiRK7QVectorI16Q3TextStringCharEP12Q3TextFormati@Base 4:4.5.3
 _ZN19Q3TextFormatCommandD0Ev@Base 4:4.5.3
 _ZN19Q3TextFormatCommandD1Ev@Base 4:4.5.3
 _ZN19Q3TextFormatCommandD2Ev@Base 4:4.5.3
 _ZN19Q3TextParagraphData4joinEPS_@Base 4:4.5.3
 _ZN19Q3TextParagraphDataD0Ev@Base 4:4.5.3
 _ZN19Q3TextParagraphDataD1Ev@Base 4:4.5.3
 _ZN19Q3TextParagraphDataD2Ev@Base 4:4.5.3
 _ZN20Q3HttpResponseHeader13setStatusLineEiRK7QStringii@Base 4:4.5.3
 _ZN20Q3HttpResponseHeader9parseLineERK7QStringi@Base 4:4.5.3
 _ZN20Q3HttpResponseHeaderC1ERK7QString@Base 4:4.5.3
 _ZN20Q3HttpResponseHeaderC1ERKS_@Base 4:4.5.3
 _ZN20Q3HttpResponseHeaderC1EiRK7QStringii@Base 4:4.5.3
 _ZN20Q3HttpResponseHeaderC1Ev@Base 4:4.5.3
 _ZN20Q3HttpResponseHeaderC2ERK7QString@Base 4:4.5.3
 _ZN20Q3HttpResponseHeaderC2ERKS_@Base 4:4.5.3
 _ZN20Q3HttpResponseHeaderC2EiRK7QStringii@Base 4:4.5.3
 _ZN20Q3HttpResponseHeaderC2Ev@Base 4:4.5.3
 _ZN20Q3HttpResponseHeaderD0Ev@Base 4:4.7.4
 _ZN20Q3HttpResponseHeaderD1Ev@Base 4:4.7.4
 _ZN20Q3HttpResponseHeaderD2Ev@Base 4:4.7.4
 _ZN20Q3TextCommandHistory10addCommandEP13Q3TextCommand@Base 4:4.5.3
 _ZN20Q3TextCommandHistory15isRedoAvailableEv@Base 4:4.5.3
 _ZN20Q3TextCommandHistory15isUndoAvailableEv@Base 4:4.5.3
 _ZN20Q3TextCommandHistory4redoEP12Q3TextCursor@Base 4:4.5.3
 _ZN20Q3TextCommandHistory4undoEP12Q3TextCursor@Base 4:4.5.3
 _ZN20Q3TextCommandHistory5clearEv@Base 4:4.5.3
 _ZN20Q3TextCommandHistoryD0Ev@Base 4:4.5.3
 _ZN20Q3TextCommandHistoryD1Ev@Base 4:4.5.3
 _ZN20Q3TextCommandHistoryD2Ev@Base 4:4.8.1
 _ZN20Q3TextHorizontalLine15adjustToPainterEP8QPainter@Base 4:4.5.3
 _ZN20Q3TextHorizontalLine4drawEP8QPainteriiiiiiRK8QPaletteb@Base 4:4.5.3
 _ZN20Q3TextHorizontalLineC1EP14Q3TextDocumentRK4QMapI7QStringS3_ERKS3_R19Q3MimeSourceFactory@Base 4:4.5.3
 _ZN20Q3TextHorizontalLineC2EP14Q3TextDocumentRK4QMapI7QStringS3_ERKS3_R19Q3MimeSourceFactory@Base 4:4.5.3
 _ZN20Q3TextHorizontalLineD0Ev@Base 4:4.5.3
 _ZN20Q3TextHorizontalLineD1Ev@Base 4:4.5.3
 _ZN20Q3TextHorizontalLineD2Ev@Base 4:4.5.3
 _ZN20QStyleOptionComboBoxD1Ev@Base 4:4.7.4
 _ZN20QStyleOptionComboBoxD2Ev@Base 4:4.7.4
 _ZN20QStyleOptionGroupBoxD1Ev@Base 4:4.7.4
 _ZN20QStyleOptionGroupBoxD2Ev@Base 4:4.7.4
 _ZN20QStyleOptionTitleBarD1Ev@Base 4:4.7.4
 _ZN20QStyleOptionTitleBarD2Ev@Base 4:4.7.4
 _ZN21Q3CanvasPolygonalItem10invalidateEv@Base 4:4.5.3
 _ZN21Q3CanvasPolygonalItem10setWindingEb@Base 4:4.5.3
 _ZN21Q3CanvasPolygonalItem4RTTIE@Base 4:4.5.3
 _ZN21Q3CanvasPolygonalItem4drawER8QPainter@Base 4:4.5.3
 _ZN21Q3CanvasPolygonalItem6setPenE4QPen@Base 4:4.5.3
 _ZN21Q3CanvasPolygonalItem8setBrushE6QBrush@Base 4:4.5.3
 _ZN21Q3CanvasPolygonalItemC1EP8Q3Canvas@Base 4:4.5.3
 _ZN21Q3CanvasPolygonalItemC2EP8Q3Canvas@Base 4:4.5.3
 _ZN21Q3CanvasPolygonalItemD0Ev@Base 4:4.5.3
 _ZN21Q3CanvasPolygonalItemD1Ev@Base 4:4.5.3
 _ZN21Q3CanvasPolygonalItemD2Ev@Base 4:4.5.3
 _ZN22Q3ListViewItemIterator14currentRemovedEv@Base 4:4.5.3
 _ZN22Q3ListViewItemIteratorC1EP10Q3ListView@Base 4:4.5.3
 _ZN22Q3ListViewItemIteratorC1EP10Q3ListViewi@Base 4:4.5.3
 _ZN22Q3ListViewItemIteratorC1EP14Q3ListViewItem@Base 4:4.5.3
 _ZN22Q3ListViewItemIteratorC1EP14Q3ListViewItemi@Base 4:4.5.3
 _ZN22Q3ListViewItemIteratorC1ERKS_@Base 4:4.5.3
 _ZN22Q3ListViewItemIteratorC1Ev@Base 4:4.5.3
 _ZN22Q3ListViewItemIteratorC2EP10Q3ListView@Base 4:4.5.3
 _ZN22Q3ListViewItemIteratorC2EP10Q3ListViewi@Base 4:4.5.3
 _ZN22Q3ListViewItemIteratorC2EP14Q3ListViewItem@Base 4:4.5.3
 _ZN22Q3ListViewItemIteratorC2EP14Q3ListViewItemi@Base 4:4.5.3
 _ZN22Q3ListViewItemIteratorC2ERKS_@Base 4:4.5.3
 _ZN22Q3ListViewItemIteratorC2Ev@Base 4:4.5.3
 _ZN22Q3ListViewItemIteratorD1Ev@Base 4:4.5.3
 _ZN22Q3ListViewItemIteratorD2Ev@Base 4:4.5.3
 _ZN22Q3ListViewItemIteratoraSERKS_@Base 4:4.5.3
 _ZN22Q3ListViewItemIteratordeEv@Base 4:4.5.3
 _ZN22Q3ListViewItemIteratormIEi@Base 4:4.5.3
 _ZN22Q3ListViewItemIteratormmEi@Base 4:4.5.3
 _ZN22Q3ListViewItemIteratormmEv@Base 4:4.5.3
 _ZN22Q3ListViewItemIteratorpLEi@Base 4:4.5.3
 _ZN22Q3ListViewItemIteratorppEi@Base 4:4.5.3
 _ZN22Q3ListViewItemIteratorppEv@Base 4:4.5.3
 _ZN22Q3TextFormatCollection10updateKeysEv@Base 4:4.5.3
 _ZN22Q3TextFormatCollection14setPaintDeviceEP12QPaintDevice@Base 4:4.5.3
 _ZN22Q3TextFormatCollection19updateDefaultFormatERK5QFontRK6QColorP12Q3StyleSheet@Base 4:4.5.3
 _ZN22Q3TextFormatCollection6formatEP12Q3TextFormat@Base 4:4.5.3
 _ZN22Q3TextFormatCollection6formatEP12Q3TextFormatS1_i@Base 4:4.5.3
 _ZN22Q3TextFormatCollection6formatERK5QFontRK6QColor@Base 4:4.5.3
 _ZN22Q3TextFormatCollection6removeEP12Q3TextFormat@Base 4:4.5.3
 _ZN22Q3TextFormatCollectionC1Ev@Base 4:4.5.3
 _ZN22Q3TextFormatCollectionC2Ev@Base 4:4.5.3
 _ZN22Q3TextFormatCollectionD0Ev@Base 4:4.5.3
 _ZN22Q3TextFormatCollectionD1Ev@Base 4:4.5.3
 _ZN22Q3TextFormatCollectionD2Ev@Base 4:4.5.3
 _ZN22QStyleOptionQ3ListViewD1Ev@Base 4:4.7.4
 _ZN22QStyleOptionQ3ListViewD2Ev@Base 4:4.7.4
 _ZN23Q3TextDocumentSelectionD1Ev@Base 4:4.7.4
 _ZN23Q3TextDocumentSelectionD2Ev@Base 4:4.7.4
 _ZN23QStyleOptionProgressBarD1Ev@Base 4:4.7.4
 _ZN23QStyleOptionProgressBarD2Ev@Base 4:4.7.4
 _ZN25Q3TextFormatterBreakWords6formatEP14Q3TextDocumentP15Q3TextParagraphiRK4QMapIiP14QTextLineStartE@Base 4:4.5.3
 _ZN25Q3TextFormatterBreakWordsC1Ev@Base 4:4.5.3
 _ZN25Q3TextFormatterBreakWordsC2Ev@Base 4:4.5.3
 _ZN27Q3TextFormatterBreakInWords6formatEP14Q3TextDocumentP15Q3TextParagraphiRK4QMapIiP14QTextLineStartE@Base 4:4.5.3
 _ZN27Q3TextFormatterBreakInWordsC1Ev@Base 4:4.5.3
 _ZN27Q3TextFormatterBreakInWordsC2Ev@Base 4:4.5.3
 _ZN29Q3TextParagraphPseudoDocumentC1Ev@Base 4:4.5.3
 _ZN29Q3TextParagraphPseudoDocumentC2Ev@Base 4:4.5.3
 _ZN29Q3TextParagraphPseudoDocumentD1Ev@Base 4:4.5.3
 _ZN29Q3TextParagraphPseudoDocumentD2Ev@Base 4:4.5.3
 _ZN5Q3Dns10startQueryEv@Base 4:4.5.3
 _ZN5Q3Dns11qt_metacallEN11QMetaObject4CallEiPPv@Base 4:4.5.3
 _ZN5Q3Dns11qt_metacastEPKc@Base 4:4.5.3
 _ZN5Q3Dns12resultsReadyEv@Base 4:4.5.3
 _ZN5Q3Dns13setRecordTypeENS_10RecordTypeE@Base 4:4.5.3
 _ZN5Q3Dns16staticMetaObjectE@Base 4:4.5.3
 _ZN5Q3Dns18setStartQueryTimerEv@Base 4:4.5.3
 _ZN5Q3Dns18toInAddrArpaDomainERK12QHostAddress@Base 4:4.5.3
 _ZN5Q3Dns8setLabelERK12QHostAddress@Base 4:4.5.3
 _ZN5Q3Dns8setLabelERK7QString@Base 4:4.5.3
 _ZN5Q3Dns9doResInitEv@Base 4:4.5.3
 _ZN5Q3DnsC1ERK12QHostAddressNS_10RecordTypeE@Base 4:4.5.3
 _ZN5Q3DnsC1ERK7QStringNS_10RecordTypeE@Base 4:4.5.3
 _ZN5Q3DnsC1Ev@Base 4:4.5.3
 _ZN5Q3DnsC2ERK12QHostAddressNS_10RecordTypeE@Base 4:4.5.3
 _ZN5Q3DnsC2ERK7QStringNS_10RecordTypeE@Base 4:4.5.3
 _ZN5Q3DnsC2Ev@Base 4:4.5.3
 _ZN5Q3DnsD0Ev@Base 4:4.5.3
 _ZN5Q3DnsD1Ev@Base 4:4.5.3
 _ZN5Q3DnsD2Ev@Base 4:4.5.3
 _ZN5Q3Ftp10addCommandEP12Q3FtpCommand@Base 4:4.5.3
 _ZN5Q3Ftp10dataClosedEv@Base 4:4.5.3
 _ZN5Q3Ftp10npListInfoERK8QUrlInfo@Base 4:4.5.3
 _ZN5Q3Ftp10piFinishedERK7QString@Base 4:4.5.3
 _ZN5Q3Ftp10piFtpReplyEiRK7QString@Base 4:4.5.3
 _ZN5Q3Ftp10rawCommandERK7QString@Base 4:4.5.3
 _ZN5Q3Ftp11npReadyReadEv@Base 4:4.5.3
 _ZN5Q3Ftp11qt_metacallEN11QMetaObject4CallEiPPv@Base 4:4.5.3
 _ZN5Q3Ftp11qt_metacastEPKc@Base 4:4.5.3
 _ZN5Q3Ftp12operationGetEP18Q3NetworkOperation@Base 4:4.5.3
 _ZN5Q3Ftp12operationPutEP18Q3NetworkOperation@Base 4:4.5.3
 _ZN5Q3Ftp12stateChangedEi@Base 4:4.5.3
 _ZN5Q3Ftp13connectToHostERK7QStringt@Base 4:4.5.3
 _ZN5Q3Ftp13dataConnectedEv@Base 4:4.5.3
 _ZN5Q3Ftp13dataHostFoundEv@Base 4:4.5.3
 _ZN5Q3Ftp13dataReadyReadEv@Base 4:4.5.3
 _ZN5Q3Ftp14commandStartedEi@Base 4:4.5.3
 _ZN5Q3Ftp14npStateChangedEi@Base 4:4.5.3
 _ZN5Q3Ftp14operationMkDirEP18Q3NetworkOperation@Base 4:4.5.3
 _ZN5Q3Ftp14piConnectStateEi@Base 4:4.5.3
 _ZN5Q3Ftp15checkConnectionEP18Q3NetworkOperation@Base 4:4.5.3
 _ZN5Q3Ftp15commandFinishedEib@Base 4:4.5.3
 _ZN5Q3Ftp15operationRemoveEP18Q3NetworkOperation@Base 4:4.5.3
 _ZN5Q3Ftp15operationRenameEP18Q3NetworkOperation@Base 4:4.5.3
 _ZN5Q3Ftp15rawCommandReplyEiRK7QString@Base 4:4.5.3
 _ZN5Q3Ftp16dataBytesWrittenEi@Base 4:4.5.3
 _ZN5Q3Ftp16startNextCommandEv@Base 4:4.5.3
 _ZN5Q3Ftp16staticMetaObjectE@Base 4:4.5.3
 _ZN5Q3Ftp20clearPendingCommandsEv@Base 4:4.5.3
 _ZN5Q3Ftp20dataTransferProgressEii@Base 4:4.5.3
 _ZN5Q3Ftp21operationListChildrenEP18Q3NetworkOperation@Base 4:4.5.3
 _ZN5Q3Ftp22npDataTransferProgressEii@Base 4:4.5.3
 _ZN5Q3Ftp2cdERK7QString@Base 4:4.5.3
 _ZN5Q3Ftp3getERK7QStringP9QIODevice@Base 4:4.5.3
 _ZN5Q3Ftp3putEP9QIODeviceRK7QString@Base 4:4.5.3
 _ZN5Q3Ftp3putERK10QByteArrayRK7QString@Base 4:4.5.3
 _ZN5Q3Ftp4doneEb@Base 4:4.5.3
 _ZN5Q3Ftp4initEv@Base 4:4.5.3
 _ZN5Q3Ftp4listERK7QString@Base 4:4.5.3
 _ZN5Q3Ftp5abortEv@Base 4:4.5.3
 _ZN5Q3Ftp5closeEv@Base 4:4.5.3
 _ZN5Q3Ftp5errorEi@Base 4:4.5.3
 _ZN5Q3Ftp5loginERK7QStringS2_@Base 4:4.5.3
 _ZN5Q3Ftp5mkdirERK7QString@Base 4:4.5.3
 _ZN5Q3Ftp5rmdirERK7QString@Base 4:4.5.3
 _ZN5Q3Ftp6closedEv@Base 4:4.5.3
 _ZN5Q3Ftp6npDoneEb@Base 4:4.5.3
 _ZN5Q3Ftp6removeERK7QString@Base 4:4.5.3
 _ZN5Q3Ftp6renameERK7QStringS2_@Base 4:4.5.3
 _ZN5Q3Ftp7piErrorEiRK7QString@Base 4:4.5.3
 _ZN5Q3Ftp7readAllEv@Base 4:4.5.3
 _ZN5Q3Ftp8listInfoERK8QUrlInfo@Base 4:4.5.3
 _ZN5Q3Ftp8parseDirERK7QStringR8QUrlInfo@Base 4:4.5.3
 _ZN5Q3Ftp9connectedEv@Base 4:4.5.3
 _ZN5Q3Ftp9hostFoundEv@Base 4:4.5.3
 _ZN5Q3Ftp9readBlockEPcm@Base 4:4.5.3
 _ZN5Q3Ftp9readyReadEv@Base 4:4.5.3
 _ZN5Q3FtpC1EP7QObjectPKc@Base 4:4.5.3
 _ZN5Q3FtpC1Ev@Base 4:4.5.3
 _ZN5Q3FtpC2EP7QObjectPKc@Base 4:4.5.3
 _ZN5Q3FtpC2Ev@Base 4:4.5.3
 _ZN5Q3FtpD0Ev@Base 4:4.5.3
 _ZN5Q3FtpD1Ev@Base 4:4.5.3
 _ZN5Q3FtpD2Ev@Base 4:4.5.3
 _ZN5Q3Url11setFileNameERK7QString@Base 4:4.5.3
 _ZN5Q3Url11setPasswordERK7QString@Base 4:4.5.3
 _ZN5Q3Url11setProtocolERK7QString@Base 4:4.5.3
 _ZN5Q3Url13isRelativeUrlERK7QString@Base 4:4.5.3
 _ZN5Q3Url19encodedPathAndQueryEv@Base 4:4.5.3
 _ZN5Q3Url22setEncodedPathAndQueryERK7QString@Base 4:4.5.3
 _ZN5Q3Url4cdUpEv@Base 4:4.5.3
 _ZN5Q3Url5parseERK7QString@Base 4:4.5.3
 _ZN5Q3Url5resetEv@Base 4:4.5.3
 _ZN5Q3Url6decodeER7QString@Base 4:4.5.3
 _ZN5Q3Url6encodeER7QString@Base 4:4.5.3
 _ZN5Q3Url6setRefERK7QString@Base 4:4.5.3
 _ZN5Q3Url7addPathERK7QString@Base 4:4.5.3
 _ZN5Q3Url7setHostERK7QString@Base 4:4.5.3
 _ZN5Q3Url7setPathERK7QString@Base 4:4.5.3
 _ZN5Q3Url7setPortEi@Base 4:4.5.3
 _ZN5Q3Url7setUserERK7QString@Base 4:4.5.3
 _ZN5Q3Url8setQueryERK7QString@Base 4:4.5.3
 _ZN5Q3UrlC1ERK7QString@Base 4:4.5.3
 _ZN5Q3UrlC1ERKS_@Base 4:4.5.3
 _ZN5Q3UrlC1ERKS_RK7QStringb@Base 4:4.5.3
 _ZN5Q3UrlC1Ev@Base 4:4.5.3
 _ZN5Q3UrlC2ERK7QString@Base 4:4.5.3
 _ZN5Q3UrlC2ERKS_@Base 4:4.5.3
 _ZN5Q3UrlC2ERKS_RK7QStringb@Base 4:4.5.3
 _ZN5Q3UrlC2Ev@Base 4:4.5.3
 _ZN5Q3UrlD0Ev@Base 4:4.5.3
 _ZN5Q3UrlD1Ev@Base 4:4.5.3
 _ZN5Q3UrlD2Ev@Base 4:4.5.3
 _ZN5Q3UrlaSERK7QString@Base 4:4.5.3
 _ZN5Q3UrlaSERKS_@Base 4:4.5.3
 _ZN6Q3Grid10setSpacingEi@Base 4:4.5.3
 _ZN6Q3Grid11qt_metacallEN11QMetaObject4CallEiPPv@Base 4:4.5.3
 _ZN6Q3Grid11qt_metacastEPKc@Base 4:4.5.3
 _ZN6Q3Grid12frameChangedEv@Base 4:4.5.3
 _ZN6Q3Grid16staticMetaObjectE@Base 4:4.5.3
 _ZN6Q3GridC1EiN2Qt11OrientationEP7QWidgetPKc6QFlagsINS0_10WindowTypeEE@Base 4:4.5.3
 _ZN6Q3GridC1EiP7QWidgetPKc6QFlagsIN2Qt10WindowTypeEE@Base 4:4.5.3
 _ZN6Q3GridC2EiN2Qt11OrientationEP7QWidgetPKc6QFlagsINS0_10WindowTypeEE@Base 4:4.5.3
 _ZN6Q3GridC2EiP7QWidgetPKc6QFlagsIN2Qt10WindowTypeEE@Base 4:4.5.3
 _ZN6Q3GridD0Ev@Base 4:4.7.4
 _ZN6Q3GridD1Ev@Base 4:4.7.4
 _ZN6Q3GridD2Ev@Base 4:4.7.4
 _ZN6Q3HBox10setSpacingEi@Base 4:4.5.3
 _ZN6Q3HBox11qt_metacallEN11QMetaObject4CallEiPPv@Base 4:4.5.3
 _ZN6Q3HBox11qt_metacastEPKc@Base 4:4.5.3
 _ZN6Q3HBox12frameChangedEv@Base 4:4.5.3
 _ZN6Q3HBox16setStretchFactorEP7QWidgeti@Base 4:4.5.3
 _ZN6Q3HBox16staticMetaObjectE@Base 4:4.5.3
 _ZN6Q3HBoxC1EP7QWidgetPKc6QFlagsIN2Qt10WindowTypeEE@Base 4:4.5.3
 _ZN6Q3HBoxC1EbP7QWidgetPKc6QFlagsIN2Qt10WindowTypeEE@Base 4:4.5.3
 _ZN6Q3HBoxC2EP7QWidgetPKc6QFlagsIN2Qt10WindowTypeEE@Base 4:4.5.3
 _ZN6Q3HBoxC2EbP7QWidgetPKc6QFlagsIN2Qt10WindowTypeEE@Base 4:4.5.3
 _ZN6Q3HBoxD0Ev@Base 4:4.7.4
 _ZN6Q3HBoxD1Ev@Base 4:4.7.4
 _ZN6Q3HBoxD2Ev@Base 4:4.7.4
 _ZN6Q3Http10addRequestEP13Q3HttpRequest@Base 4:4.5.3
 _ZN6Q3Http10clientDoneEb@Base 4:4.5.3
 _ZN6Q3Http10slotClosedEv@Base 4:4.5.3
 _ZN6Q3Http10timerEventEP11QTimerEvent@Base 4:4.5.3
 _ZN6Q3Http11clientReplyERK20Q3HttpResponseHeader@Base 4:4.5.3
 _ZN6Q3Http11qt_metacallEN11QMetaObject4CallEiPPv@Base 4:4.5.3
 _ZN6Q3Http11qt_metacastEPKc@Base 4:4.5.3
 _ZN6Q3Http11sendRequestEv@Base 4:4.5.3
 _ZN6Q3Http12operationGetEP18Q3NetworkOperation@Base 4:4.5.3
 _ZN6Q3Http12operationPutEP18Q3NetworkOperation@Base 4:4.5.3
 _ZN6Q3Http12stateChangedEi@Base 4:4.5.3
 _ZN6Q3Http13killIdleTimerEv@Base 4:4.5.3
 _ZN6Q3Http13slotConnectedEv@Base 4:4.5.3
 _ZN6Q3Http13slotReadyReadEv@Base 4:4.5.3
 _ZN6Q3Http14requestStartedEi@Base 4:4.5.3
 _ZN6Q3Http15closeConnectionEv@Base 4:4.5.3
 _ZN6Q3Http15requestFinishedEib@Base 4:4.5.3
 _ZN6Q3Http16dataReadProgressEii@Base 4:4.5.3
 _ZN6Q3Http16dataSendProgressEii@Base 4:4.5.3
 _ZN6Q3Http16slotBytesWrittenEi@Base 4:4.5.3
 _ZN6Q3Http16startNextRequestEv@Base 4:4.5.3
 _ZN6Q3Http16staticMetaObjectE@Base 4:4.5.3
 _ZN6Q3Http17finishedWithErrorERK7QStringi@Base 4:4.5.3
 _ZN6Q3Http18clientStateChangedEi@Base 4:4.5.3
 _ZN6Q3Http19finishedWithSuccessEv@Base 4:4.5.3
 _ZN6Q3Http20clearPendingRequestsEv@Base 4:4.5.3
 _ZN6Q3Http22responseHeaderReceivedERK20Q3HttpResponseHeader@Base 4:4.5.3
 _ZN6Q3Http3getERK7QStringP9QIODevice@Base 4:4.5.3
 _ZN6Q3Http4doneEb@Base 4:4.5.3
 _ZN6Q3Http4headERK7QString@Base 4:4.5.3
 _ZN6Q3Http4initEv@Base 4:4.5.3
 _ZN6Q3Http4postERK7QStringP9QIODeviceS4_@Base 4:4.5.3
 _ZN6Q3Http4postERK7QStringRK10QByteArrayP9QIODevice@Base 4:4.5.3
 _ZN6Q3Http5abortEv@Base 4:4.5.3
 _ZN6Q3Http5closeEv@Base 4:4.5.3
 _ZN6Q3Http7readAllEv@Base 4:4.5.3
 _ZN6Q3Http7requestERK19Q3HttpRequestHeaderP9QIODeviceS4_@Base 4:4.5.3
 _ZN6Q3Http7requestERK19Q3HttpRequestHeaderRK10QByteArrayP9QIODevice@Base 4:4.5.3
 _ZN6Q3Http7setHostERK7QStringt@Base 4:4.5.3
 _ZN6Q3Http8setStateEi@Base 4:4.5.3
 _ZN6Q3Http9readBlockEPcm@Base 4:4.5.3
 _ZN6Q3Http9readyReadERK20Q3HttpResponseHeader@Base 4:4.5.3
 _ZN6Q3Http9slotErrorEi@Base 4:4.5.3
 _ZN6Q3HttpC1EP7QObjectPKc@Base 4:4.5.3
 _ZN6Q3HttpC1ERK7QStringtP7QObjectPKc@Base 4:4.5.3
 _ZN6Q3HttpC1Ev@Base 4:4.5.3
 _ZN6Q3HttpC2EP7QObjectPKc@Base 4:4.5.3
 _ZN6Q3HttpC2ERK7QStringtP7QObjectPKc@Base 4:4.5.3
 _ZN6Q3HttpC2Ev@Base 4:4.5.3
 _ZN6Q3HttpD0Ev@Base 4:4.5.3
 _ZN6Q3HttpD1Ev@Base 4:4.5.3
 _ZN6Q3HttpD2Ev@Base 4:4.5.3
 _ZN6Q3VBox11qt_metacallEN11QMetaObject4CallEiPPv@Base 4:4.5.3
 _ZN6Q3VBox11qt_metacastEPKc@Base 4:4.5.3
 _ZN6Q3VBox16staticMetaObjectE@Base 4:4.5.3
 _ZN6Q3VBoxC1EP7QWidgetPKc6QFlagsIN2Qt10WindowTypeEE@Base 4:4.5.3
 _ZN6Q3VBoxC2EP7QWidgetPKc6QFlagsIN2Qt10WindowTypeEE@Base 4:4.5.3
 _ZN6Q3VBoxD0Ev@Base 4:4.7.4
 _ZN6Q3VBoxD1Ev@Base 4:4.7.4
 _ZN6Q3VBoxD2Ev@Base 4:4.7.4
 _ZN7Q3Accel10insertItemERK12QKeySequencei@Base 4:4.5.3
 _ZN7Q3Accel10removeItemEi@Base 4:4.5.3
 _ZN7Q3Accel10setEnabledEb@Base 4:4.5.3
 _ZN7Q3Accel11connectItemEiPK7QObjectPKc@Base 4:4.5.3
 _ZN7Q3Accel11keyToStringE12QKeySequence@Base 4:4.5.3
 _ZN7Q3Accel11qt_metacallEN11QMetaObject4CallEiPPv@Base 4:4.5.3
 _ZN7Q3Accel11qt_metacastEPKc@Base 4:4.5.3
 _ZN7Q3Accel11shortcutKeyERK7QString@Base 4:4.5.3
 _ZN7Q3Accel11stringToKeyERK7QString@Base 4:4.5.3
 _ZN7Q3Accel12setWhatsThisEiRK7QString@Base 4:4.5.3
 _ZN7Q3Accel14disconnectItemEiPK7QObjectPKc@Base 4:4.5.3
 _ZN7Q3Accel14setItemEnabledEib@Base 4:4.5.3
 _ZN7Q3Accel16staticMetaObjectE@Base 4:4.5.3
 _ZN7Q3Accel18setIgnoreWhatsThisEb@Base 4:4.5.3
 _ZN7Q3Accel20activatedAmbiguouslyEi@Base 4:4.5.3
 _ZN7Q3Accel3keyEi@Base 4:4.5.3
 _ZN7Q3Accel5clearEv@Base 4:4.5.3
 _ZN7Q3Accel9activatedEi@Base 4:4.5.3
 _ZN7Q3AccelC1EP7QWidgetP7QObjectPKc@Base 4:4.5.3
 _ZN7Q3AccelC1EP7QWidgetPKc@Base 4:4.5.3
 _ZN7Q3AccelC2EP7QWidgetP7QObjectPKc@Base 4:4.5.3
 _ZN7Q3AccelC2EP7QWidgetPKc@Base 4:4.5.3
 _ZN7Q3AccelD0Ev@Base 4:4.5.3
 _ZN7Q3AccelD1Ev@Base 4:4.5.3
 _ZN7Q3AccelD2Ev@Base 4:4.5.3
 _ZN7Q3Frame10paintEventEP11QPaintEvent@Base 4:4.5.3
 _ZN7Q3Frame11qt_metacallEN11QMetaObject4CallEiPPv@Base 4:4.5.3
 _ZN7Q3Frame11qt_metacastEPKc@Base 4:4.5.3
 _ZN7Q3Frame11resizeEventEP12QResizeEvent@Base 4:4.5.3
 _ZN7Q3Frame12drawContentsEP8QPainter@Base 4:4.5.3
 _ZN7Q3Frame12frameChangedEv@Base 4:4.5.3
 _ZN7Q3Frame16staticMetaObjectE@Base 4:4.5.3
 _ZN7Q3Frame9drawFrameEP8QPainter@Base 4:4.5.3
 _ZN7Q3Frame9setMarginEi@Base 4:4.5.3
 _ZN7Q3FrameC1EP7QWidgetPKc6QFlagsIN2Qt10WindowTypeEE@Base 4:4.5.3
 _ZN7Q3FrameC2EP7QWidgetPKc6QFlagsIN2Qt10WindowTypeEE@Base 4:4.5.3
 _ZN7Q3FrameD0Ev@Base 4:4.5.3
 _ZN7Q3FrameD1Ev@Base 4:4.5.3
 _ZN7Q3FrameD2Ev@Base 4:4.5.3
 _ZN7Q3GDict10look_asciiEPKcPvi@Base 4:4.5.3
 _ZN7Q3GDict10remove_intElPv@Base 4:4.5.3
 _ZN7Q3GDict10remove_ptrEPvS0_@Base 4:4.5.3
 _ZN7Q3GDict10take_asciiEPKc@Base 4:4.5.3
 _ZN7Q3GDict10unlink_intElPv@Base 4:4.5.3
 _ZN7Q3GDict10unlink_ptrEPvS0_@Base 4:4.5.3
 _ZN7Q3GDict11look_stringERK7QStringPvi@Base 4:4.5.3
 _ZN7Q3GDict11take_stringERK7QString@Base 4:4.5.3
 _ZN7Q3GDict12hashKeyAsciiEPKc@Base 4:4.5.3
 _ZN7Q3GDict12remove_asciiEPKcPv@Base 4:4.5.3
 _ZN7Q3GDict12unlink_asciiEPKcPv@Base 4:4.5.3
 _ZN7Q3GDict13hashKeyStringERK7QString@Base 4:4.5.3
 _ZN7Q3GDict13remove_stringERK7QStringPv@Base 4:4.5.3
 _ZN7Q3GDict13unlink_commonEiP12Q3BaseBucketS1_@Base 4:4.5.3
 _ZN7Q3GDict13unlink_stringERK7QStringPv@Base 4:4.5.3
 _ZN7Q3GDict4initEjNS_7KeyTypeEbb@Base 4:4.5.3
 _ZN7Q3GDict4readER11QDataStream@Base 4:4.5.3
 _ZN7Q3GDict4readER11QDataStreamRPv@Base 4:4.5.3
 _ZN7Q3GDict5clearEv@Base 4:4.5.3
 _ZN7Q3GDict6resizeEj@Base 4:4.5.3
 _ZN7Q3GDict8look_intElPvi@Base 4:4.5.3
 _ZN7Q3GDict8look_ptrEPvS0_i@Base 4:4.5.3
 _ZN7Q3GDict8take_intEl@Base 4:4.5.3
 _ZN7Q3GDict8take_ptrEPv@Base 4:4.5.3
 _ZN7Q3GDictC1ERKS_@Base 4:4.5.3
 _ZN7Q3GDictC1EjNS_7KeyTypeEbb@Base 4:4.5.3
 _ZN7Q3GDictC2ERKS_@Base 4:4.5.3
 _ZN7Q3GDictC2EjNS_7KeyTypeEbb@Base 4:4.5.3
 _ZN7Q3GDictD0Ev@Base 4:4.5.3
 _ZN7Q3GDictD1Ev@Base 4:4.5.3
 _ZN7Q3GDictD2Ev@Base 4:4.5.3
 _ZN7Q3GDictaSERKS_@Base 4:4.5.3
 _ZN7Q3GList10relinkNodeEP7Q3LNode@Base 4:4.5.3
 _ZN7Q3GList10removeNodeEP7Q3LNode@Base 4:4.5.3
 _ZN7Q3GList12compareItemsEPvS0_@Base 4:4.5.3
 _ZN7Q3GList16heapSortPushDownEPPvii@Base 4:4.5.3
 _ZN7Q3GList4findEPvb@Base 4:4.5.3
 _ZN7Q3GList4lastEv@Base 4:4.5.3
 _ZN7Q3GList4nextEv@Base 4:4.5.3
 _ZN7Q3GList4prevEv@Base 4:4.5.3
 _ZN7Q3GList4readER11QDataStream@Base 4:4.5.3
 _ZN7Q3GList4readER11QDataStreamRPv@Base 4:4.5.3
 _ZN7Q3GList4sortEv@Base 4:4.5.3
 _ZN7Q3GList4takeEv@Base 4:4.5.3
 _ZN7Q3GList5clearEv@Base 4:4.5.3
 _ZN7Q3GList5eraseEP7Q3LNode@Base 4:4.5.3
 _ZN7Q3GList5firstEv@Base 4:4.5.3
 _ZN7Q3GList6appendEPv@Base 4:4.5.3
 _ZN7Q3GList6inSortEPv@Base 4:4.5.3
 _ZN7Q3GList6locateEj@Base 4:4.5.3
 _ZN7Q3GList6removeEPv@Base 4:4.5.3
 _ZN7Q3GList6takeAtEj@Base 4:4.5.3
 _ZN7Q3GList6unlinkEv@Base 4:4.5.3
 _ZN7Q3GList7findRefEPvb@Base 4:4.5.3
 _ZN7Q3GList7prependEPv@Base 4:4.5.3
 _ZN7Q3GList8insertAtEjPv@Base 4:4.5.3
 _ZN7Q3GList8removeAtEj@Base 4:4.5.3
 _ZN7Q3GList8takeLastEv@Base 4:4.5.3
 _ZN7Q3GList8takeNodeEP7Q3LNode@Base 4:4.5.3
 _ZN7Q3GList9removeRefEPv@Base 4:4.5.3
 _ZN7Q3GList9replaceAtEjPv@Base 4:4.5.3
 _ZN7Q3GList9takeFirstEv@Base 4:4.5.3
 _ZN7Q3GListC1ERKS_@Base 4:4.5.3
 _ZN7Q3GListC1Ev@Base 4:4.5.3
 _ZN7Q3GListC2ERKS_@Base 4:4.5.3
 _ZN7Q3GListC2Ev@Base 4:4.5.3
 _ZN7Q3GListD0Ev@Base 4:4.5.3
 _ZN7Q3GListD1Ev@Base 4:4.5.3
 _ZN7Q3GListD2Ev@Base 4:4.5.3
 _ZN7Q3GListaSERKS_@Base 4:4.5.3
 _ZN7Q3Table10dragObjectEv@Base 4:4.5.3
 _ZN7Q3Table10hideColumnEi@Base 4:4.5.3
 _ZN7Q3Table10insertRowsEii@Base 4:4.5.3
 _ZN7Q3Table10paintEventEP11QPaintEvent@Base 4:4.5.3
 _ZN7Q3Table10paintFocusEP8QPainterRK5QRect@Base 4:4.5.3
 _ZN7Q3Table10removeRowsERK10Q3MemArrayIiE@Base 4:4.5.3
 _ZN7Q3Table10resizeDataEi@Base 4:4.5.3
 _ZN7Q3Table10setEnabledEb@Base 4:4.5.3
 _ZN7Q3Table10setNumColsEi@Base 4:4.5.3
 _ZN7Q3Table10setNumRowsEi@Base 4:4.5.3
 _ZN7Q3Table10setSortingEb@Base 4:4.5.3
 _ZN7Q3Table10showColumnEi@Base 4:4.5.3
 _ZN7Q3Table10sortColumnEibb@Base 4:4.5.3
 _ZN7Q3Table10updateCellEii@Base 4:4.5.3
 _ZN7Q3Table11eventFilterEP7QObjectP6QEvent@Base 4:4.5.3
 _ZN7Q3Table11qt_metacallEN11QMetaObject4CallEiPPv@Base 4:4.5.3
 _ZN7Q3Table11qt_metacastEPKc@Base 4:4.5.3
 _ZN7Q3Table11repaintCellEii@Base 4:4.5.3
 _ZN7Q3Table11selectCellsEiiii@Base 4:4.5.3
 _ZN7Q3Table11setEditModeENS_8EditModeEii@Base 4:4.5.3
 _ZN7Q3Table11setReadOnlyEb@Base 4:4.5.3
 _ZN7Q3Table11setShowGridEb@Base 4:4.5.3
 _ZN7Q3Table11swapColumnsEiib@Base 4:4.5.3
 _ZN7Q3Table12addSelectionERK16Q3TableSelection@Base 4:4.5.3
 _ZN7Q3Table12adjustColumnEi@Base 4:4.5.3
 _ZN7Q3Table12doAutoScrollEv@Base 4:4.5.3
 _ZN7Q3Table12drawContentsEP8QPainter@Base 4:4.5.3
 _ZN7Q3Table12drawContentsEP8QPainteriiii@Base 4:4.5.3
 _ZN7Q3Table12focusInEventEP11QFocusEvent@Base 4:4.5.3
 _ZN7Q3Table12insertWidgetEiiP7QWidget@Base 4:4.5.3
 _ZN7Q3Table12removeColumnEi@Base 4:4.5.3
 _ZN7Q3Table12saveContentsER11Q3PtrVectorI11Q3TableItemERS0_INS_11TableWidgetEE@Base 4:4.5.3
 _ZN7Q3Table12selectColumnEi@Base 4:4.5.3
 _ZN7Q3Table12setRowHeightEii@Base 4:4.5.3
 _ZN7Q3Table12setRowLabelsERK11QStringList@Base 4:4.5.3
 _ZN7Q3Table12setTopMarginEi@Base 4:4.5.3
 _ZN7Q3Table12valueChangedEii@Base 4:4.5.3
 _ZN7Q3Table13columnClickedEi@Base 4:4.5.3
 _ZN7Q3Table13doubleClickedEiiiRK6QPoint@Base 4:4.5.3
 _ZN7Q3Table13focusOutEventEP11QFocusEvent@Base 4:4.5.3
 _ZN7Q3Table13insertColumnsEii@Base 4:4.5.3
 _ZN7Q3Table13keyPressEventEP9QKeyEvent@Base 4:4.5.3
 _ZN7Q3Table13rangeGeometryEiiiiRb@Base 4:4.5.3
 _ZN7Q3Table13removeColumnsERK10Q3MemArrayIiE@Base 4:4.5.3
 _ZN7Q3Table13setCellWidgetEiiP7QWidget@Base 4:4.5.3
 _ZN7Q3Table13setFocusStyleENS_10FocusStyleE@Base 4:4.5.3
 _ZN7Q3Table13setLeftMarginEi@Base 4:4.5.3
 _ZN7Q3Table14clearSelectionEb@Base 4:4.5.3
 _ZN7Q3Table14currentChangedEii@Base 4:4.5.3
 _ZN7Q3Table14doValueChangedEv@Base 4:4.5.3
 _ZN7Q3Table14paintEmptyAreaEP8QPainteriiii@Base 4:4.5.3
 _ZN7Q3Table14setColumnWidthEii@Base 4:4.5.3
 _ZN7Q3Table14setCurrentCellEii@Base 4:4.5.3
 _ZN7Q3Table14setCurrentCellEiibb@Base 4:4.5.3
 _ZN7Q3Table14setDragEnabledEb@Base 4:4.5.3
 _ZN7Q3Table14setRowReadOnlyEib@Base 4:4.5.3
 _ZN7Q3Table15clearCellWidgetEii@Base 4:4.5.3
 _ZN7Q3Table15removeSelectionERK16Q3TableSelection@Base 4:4.5.3
 _ZN7Q3Table15removeSelectionEi@Base 4:4.5.3
 _ZN7Q3Table15restoreContentsER11Q3PtrVectorI11Q3TableItemERS0_INS_11TableWidgetEE@Base 4:4.5.3
 _ZN7Q3Table15rowIndexChangedEiii@Base 4:4.5.3
 _ZN7Q3Table15setColumnLabelsERK11QStringList@Base 4:4.5.3
 _ZN7Q3Table16activateNextCellEv@Base 4:4.5.3
 _ZN7Q3Table16rowHeightChangedEi@Base 4:4.5.3
 _ZN7Q3Table16selectionChangedEv@Base 4:4.5.3
 _ZN7Q3Table16setSelectionModeENS_13SelectionModeE@Base 4:4.5.3
 _ZN7Q3Table16staticMetaObjectE@Base 4:4.5.3
 _ZN7Q3Table16updateColWidgetsEi@Base 4:4.5.3
 _ZN7Q3Table16updateGeometriesEv@Base 4:4.5.3
 _ZN7Q3Table16updateRowWidgetsEi@Base 4:4.5.3
 _ZN7Q3Table17contentsDropEventEP10QDropEvent@Base 4:4.5.3
 _ZN7Q3Table17ensureCellVisibleEii@Base 4:4.5.3
 _ZN7Q3Table17repaintSelectionsEP16Q3TableSelectionS1_bb@Base 4:4.5.3
 _ZN7Q3Table17repaintSelectionsEv@Base 4:4.5.3
 _ZN7Q3Table17setColumnReadOnlyEib@Base 4:4.5.3
 _ZN7Q3Table17setRowStretchableEib@Base 4:4.5.3
 _ZN7Q3Table18columnIndexChangedEiii@Base 4:4.5.3
 _ZN7Q3Table18columnWidthChangedEi@Base 4:4.5.3
 _ZN7Q3Table18updateHeaderStatesEv@Base 4:4.5.3
 _ZN7Q3Table19contentsToViewport2ERK6QPoint@Base 4:4.5.3
 _ZN7Q3Table19contentsToViewport2EiiRiS0_@Base 4:4.5.3
 _ZN7Q3Table19finishContentsReszeEb@Base 4:4.5.3
 _ZN7Q3Table19setRowMovingEnabledEb@Base 4:4.5.3
 _ZN7Q3Table19viewportResizeEventEP12QResizeEvent@Base 4:4.5.3
 _ZN7Q3Table19viewportToContents2ERK6QPoint@Base 4:4.5.3
 _ZN7Q3Table19viewportToContents2EiiRiS0_@Base 4:4.5.3
 _ZN7Q3Table20contextMenuRequestedEiiRK6QPoint@Base 4:4.5.3
 _ZN7Q3Table20setColumnStretchableEib@Base 4:4.5.3
 _ZN7Q3Table20updateGeometriesSlotEv@Base 4:4.5.3
 _ZN7Q3Table21contentsDragMoveEventEP14QDragMoveEvent@Base 4:4.5.3
 _ZN7Q3Table22contentsDragEnterEventEP15QDragEnterEvent@Base 4:4.5.3
 _ZN7Q3Table22contentsDragLeaveEventEP15QDragLeaveEvent@Base 4:4.5.3
 _ZN7Q3Table22contentsMouseMoveEventEP11QMouseEvent@Base 4:4.5.3
 _ZN7Q3Table22setColumnMovingEnabledEb@Base 4:4.5.3
 _ZN7Q3Table22windowActivationChangeEb@Base 4:4.5.3
 _ZN7Q3Table23contentsMousePressEventEP11QMouseEvent@Base 4:4.5.3
 _ZN7Q3Table23delayedUpdateGeometriesEv@Base 4:4.5.3
 _ZN7Q3Table24contentsContextMenuEventEP17QContextMenuEvent@Base 4:4.5.3
 _ZN7Q3Table24setCellContentFromEditorEii@Base 4:4.5.3
 _ZN7Q3Table25contentsMousePressEventExEP11QMouseEvent@Base 4:4.5.3
 _ZN7Q3Table25contentsMouseReleaseEventEP11QMouseEvent@Base 4:4.5.3
 _ZN7Q3Table29contentsMouseDoubleClickEventEP11QMouseEvent@Base 4:4.5.3
 _ZN7Q3Table29updateHeaderAndResizeContentsEP13Q3TableHeaderiiiRb@Base 4:4.5.3
 _ZN7Q3Table4initEii@Base 4:4.5.3
 _ZN7Q3Table6fixColERii@Base 4:4.5.3
 _ZN7Q3Table6fixRowERii@Base 4:4.5.3
 _ZN7Q3Table7clickedEiiiRK6QPoint@Base 4:4.5.3
 _ZN7Q3Table7droppedEP10QDropEvent@Base 4:4.5.3
 _ZN7Q3Table7endEditEiibb@Base 4:4.5.3
 _ZN7Q3Table7fixCellERiS0_i@Base 4:4.5.3
 _ZN7Q3Table7hideRowEi@Base 4:4.5.3
 _ZN7Q3Table7pressedEiiiRK6QPoint@Base 4:4.5.3
 _ZN7Q3Table7setItemEiiP11Q3TableItem@Base 4:4.5.3
 _ZN7Q3Table7setTextEiiRK7QString@Base 4:4.5.3
 _ZN7Q3Table7showRowEi@Base 4:4.5.3
 _ZN7Q3Table8editCellEiib@Base 4:4.5.3
 _ZN7Q3Table8swapRowsEiib@Base 4:4.5.3
 _ZN7Q3Table8takeItemEP11Q3TableItem@Base 4:4.5.3
 _ZN7Q3Table9adjustRowEi@Base 4:4.5.3
 _ZN7Q3Table9beginEditEiib@Base 4:4.5.3
 _ZN7Q3Table9clearCellEii@Base 4:4.5.3
 _ZN7Q3Table9paintCellEP8QPainteriiRK5QRectb@Base 4:4.5.3
 _ZN7Q3Table9paintCellEP8QPainteriiRK5QRectbRK11QColorGroup@Base 4:4.5.3
 _ZN7Q3Table9removeRowEi@Base 4:4.5.3
 _ZN7Q3Table9selectRowEi@Base 4:4.5.3
 _ZN7Q3Table9setPixmapEiiRK7QPixmap@Base 4:4.5.3
 _ZN7Q3Table9showEventEP10QShowEvent@Base 4:4.5.3
 _ZN7Q3Table9startDragEv@Base 4:4.5.3
 _ZN7Q3Table9swapCellsEiiii@Base 4:4.5.3
 _ZN7Q3TableC1EP7QWidgetPKc@Base 4:4.5.3
 _ZN7Q3TableC1EiiP7QWidgetPKc@Base 4:4.5.3
 _ZN7Q3TableC2EP7QWidgetPKc@Base 4:4.5.3
 _ZN7Q3TableC2EiiP7QWidgetPKc@Base 4:4.5.3
 _ZN7Q3TableD0Ev@Base 4:4.5.3
 _ZN7Q3TableD1Ev@Base 4:4.5.3
 _ZN7Q3TableD2Ev@Base 4:4.5.3
 _ZN8Q3Action10removeFromEP7QWidget@Base 4:4.5.3
 _ZN8Q3Action10setEnabledEb@Base 4:4.5.3
 _ZN8Q3Action10setIconSetERK5QIcon@Base 4:4.5.3
 _ZN8Q3Action10setToolTipERK7QString@Base 4:4.5.3
 _ZN8Q3Action10setVisibleEb@Base 4:4.5.3
 _ZN8Q3Action11qt_metacallEN11QMetaObject4CallEiPPv@Base 4:4.5.3
 _ZN8Q3Action11qt_metacastEPKc@Base 4:4.5.3
 _ZN8Q3Action11setDisabledEb@Base 4:4.5.3
 _ZN8Q3Action11setMenuTextERK7QString@Base 4:4.5.3
 _ZN8Q3Action12setStatusTipERK7QString@Base 4:4.5.3
 _ZN8Q3Action12setWhatsThisERK7QString@Base 4:4.5.3
 _ZN8Q3Action14menuStatusTextEi@Base 4:4.5.3
 _ZN8Q3Action14showStatusTextERK7QString@Base 4:4.5.3
 _ZN8Q3Action15clearStatusTextEv@Base 4:4.5.3
 _ZN8Q3Action15objectDestroyedEv@Base 4:4.5.3
 _ZN8Q3Action15setToggleActionEb@Base 4:4.5.3
 _ZN8Q3Action16staticMetaObjectE@Base 4:4.5.3
 _ZN8Q3Action17toolButtonToggledEb@Base 4:4.5.3
 _ZN8Q3Action18internalActivationEv@Base 4:4.5.3
 _ZN8Q3Action4initEv@Base 4:4.5.3
 _ZN8Q3Action5addToEP7QWidget@Base 4:4.5.3
 _ZN8Q3Action5setOnEb@Base 4:4.5.3
 _ZN8Q3Action6toggleEv@Base 4:4.5.3
 _ZN8Q3Action7addedToEP7QWidgetS1_@Base 4:4.5.3
 _ZN8Q3Action7addedToEiP11Q3PopupMenu@Base 4:4.5.3
 _ZN8Q3Action7setTextERK7QString@Base 4:4.5.3
 _ZN8Q3Action7toggledEb@Base 4:4.5.3
 _ZN8Q3Action8activateEv@Base 4:4.5.3
 _ZN8Q3Action8setAccelERK12QKeySequence@Base 4:4.5.3
 _ZN8Q3Action9activatedEv@Base 4:4.5.3
 _ZN8Q3ActionC1EP7QObjectPKc@Base 4:4.5.3
 _ZN8Q3ActionC1EP7QObjectPKcb@Base 4:4.5.3
 _ZN8Q3ActionC1ERK5QIconRK7QString12QKeySequenceP7QObjectPKc@Base 4:4.5.3
 _ZN8Q3ActionC1ERK7QString12QKeySequenceP7QObjectPKc@Base 4:4.5.3
 _ZN8Q3ActionC1ERK7QStringRK5QIconS2_12QKeySequenceP7QObjectPKcb@Base 4:4.5.3
 _ZN8Q3ActionC1ERK7QStringS2_12QKeySequenceP7QObjectPKcb@Base 4:4.5.3
 _ZN8Q3ActionC2EP7QObjectPKc@Base 4:4.5.3
 _ZN8Q3ActionC2EP7QObjectPKcb@Base 4:4.5.3
 _ZN8Q3ActionC2ERK5QIconRK7QString12QKeySequenceP7QObjectPKc@Base 4:4.5.3
 _ZN8Q3ActionC2ERK7QString12QKeySequenceP7QObjectPKc@Base 4:4.5.3
 _ZN8Q3ActionC2ERK7QStringRK5QIconS2_12QKeySequenceP7QObjectPKcb@Base 4:4.5.3
 _ZN8Q3ActionC2ERK7QStringS2_12QKeySequenceP7QObjectPKcb@Base 4:4.5.3
 _ZN8Q3ActionD0Ev@Base 4:4.5.3
 _ZN8Q3ActionD1Ev@Base 4:4.5.3
 _ZN8Q3ActionD2Ev@Base 4:4.5.3
 _ZN8Q3Button10drawButtonEP8QPainter@Base 4:4.5.3
 _ZN8Q3Button10paintEventEP11QPaintEvent@Base 4:4.5.3
 _ZN8Q3Button11qt_metacallEN11QMetaObject4CallEiPPv@Base 4:4.5.3
 _ZN8Q3Button11qt_metacastEPKc@Base 4:4.5.3
 _ZN8Q3Button15drawButtonLabelEP8QPainter@Base 4:4.5.3
 _ZN8Q3Button16staticMetaObjectE@Base 4:4.5.3
 _ZN8Q3ButtonC1EP7QWidgetPKc6QFlagsIN2Qt10WindowTypeEE@Base 4:4.5.3
 _ZN8Q3ButtonC2EP7QWidgetPKc6QFlagsIN2Qt10WindowTypeEE@Base 4:4.5.3
 _ZN8Q3ButtonD0Ev@Base 4:4.5.3
 _ZN8Q3ButtonD1Ev@Base 4:4.5.3
 _ZN8Q3ButtonD2Ev@Base 4:4.5.3
 _ZN8Q3Canvas10removeItemEP12Q3CanvasItem@Base 4:4.5.3
 _ZN8Q3Canvas10removeViewEP12Q3CanvasView@Base 4:4.5.3
 _ZN8Q3Canvas10setChangedERK5QRect@Base 4:4.5.3
 _ZN8Q3Canvas11qt_metacallEN11QMetaObject4CallEiPPv@Base 4:4.5.3
 _ZN8Q3Canvas11qt_metacastEPKc@Base 4:4.5.3
 _ZN8Q3Canvas12addAnimationEP12Q3CanvasItem@Base 4:4.5.3
 _ZN8Q3Canvas12changeBoundsERK5QRect@Base 4:4.5.3
 _ZN8Q3Canvas12drawViewAreaEP12Q3CanvasViewP8QPainterRK5QRectb@Base 4:4.5.3
 _ZN8Q3Canvas12setUnchangedERK5QRect@Base 4:4.5.3
 _ZN8Q3Canvas13setAllChangedEv@Base 4:4.5.3
 _ZN8Q3Canvas14addItemToChunkEP12Q3CanvasItemii@Base 4:4.5.3
 _ZN8Q3Canvas14drawBackgroundER8QPainterRK5QRect@Base 4:4.5.3
 _ZN8Q3Canvas14drawCanvasAreaERK5QRectP8QPainterb@Base 4:4.5.3
 _ZN8Q3Canvas14drawForegroundER8QPainterRK5QRect@Base 4:4.5.3
 _ZN8Q3Canvas15removeAnimationEP12Q3CanvasItem@Base 4:4.5.3
 _ZN8Q3Canvas15setChangedChunkEii@Base 4:4.5.3
 _ZN8Q3Canvas15setUpdatePeriodEi@Base 4:4.5.3
 _ZN8Q3Canvas16ensureOffScrSizeEii@Base 4:4.5.3
 _ZN8Q3Canvas16setAdvancePeriodEi@Base 4:4.5.3
 _ZN8Q3Canvas16staticMetaObjectE@Base 4:4.5.3
 _ZN8Q3Canvas18setBackgroundColorERK6QColor@Base 4:4.5.3
 _ZN8Q3Canvas18setDoubleBufferingEb@Base 4:4.5.3
 _ZN8Q3Canvas19removeItemFromChunkEP12Q3CanvasItemii@Base 4:4.5.3
 _ZN8Q3Canvas19setBackgroundPixmapERK7QPixmap@Base 4:4.5.3
 _ZN8Q3Canvas24addItemToChunkContainingEP12Q3CanvasItemii@Base 4:4.5.3
 _ZN8Q3Canvas25setChangedChunkContainingEii@Base 4:4.5.3
 _ZN8Q3Canvas29removeItemFromChunkContainingEP12Q3CanvasItemii@Base 4:4.5.3
 _ZN8Q3Canvas4initEiiii@Base 4:4.5.3
 _ZN8Q3Canvas6resizeEii@Base 4:4.5.3
 _ZN8Q3Canvas6retuneEii@Base 4:4.5.3
 _ZN8Q3Canvas6updateEv@Base 4:4.5.3
 _ZN8Q3Canvas7addItemEP12Q3CanvasItem@Base 4:4.5.3
 _ZN8Q3Canvas7addViewEP12Q3CanvasView@Base 4:4.5.3
 _ZN8Q3Canvas7advanceEv@Base 4:4.5.3
 _ZN8Q3Canvas7resizedEv@Base 4:4.5.3
 _ZN8Q3Canvas7setTileEiii@Base 4:4.5.3
 _ZN8Q3Canvas8allItemsEv@Base 4:4.5.3
 _ZN8Q3Canvas8drawAreaERK5QRectP8QPainterb@Base 4:4.5.3
 _ZN8Q3Canvas8setTilesE7QPixmapiiii@Base 4:4.5.3
 _ZN8Q3CanvasC1E7QPixmapiiii@Base 4:4.5.3
 _ZN8Q3CanvasC1EP7QObjectPKc@Base 4:4.5.3
 _ZN8Q3CanvasC1Eii@Base 4:4.5.3
 _ZN8Q3CanvasC2E7QPixmapiiii@Base 4:4.5.3
 _ZN8Q3CanvasC2EP7QObjectPKc@Base 4:4.5.3
 _ZN8Q3CanvasC2Eii@Base 4:4.5.3
 _ZN8Q3CanvasD0Ev@Base 4:4.5.3
 _ZN8Q3CanvasD1Ev@Base 4:4.5.3
 _ZN8Q3CanvasD2Ev@Base 4:4.5.3
 _ZN8Q3GArray10deleteDataEPNS_10array_dataE@Base 4:4.5.3
 _ZN8Q3GArray10setRawDataEPKcj@Base 4:4.5.3
 _ZN8Q3GArray12resetRawDataEPKcj@Base 4:4.5.3
 _ZN8Q3GArray4fillEPKcij@Base 4:4.5.3
 _ZN8Q3GArray4sortEj@Base 4:4.5.3
 _ZN8Q3GArray5storeEPKcj@Base 4:4.5.3
 _ZN8Q3GArray6assignEPKcj@Base 4:4.5.3
 _ZN8Q3GArray6assignERKS_@Base 4:4.5.3
 _ZN8Q3GArray6resizeEj@Base 4:4.5.3
 _ZN8Q3GArray6resizeEjNS_12OptimizationE@Base 4:4.5.3
 _ZN8Q3GArray7newDataEv@Base 4:4.5.3
 _ZN8Q3GArray9duplicateEPKcj@Base 4:4.5.3
 _ZN8Q3GArray9duplicateERKS_@Base 4:4.5.3
 _ZN8Q3GArray9msg_indexEj@Base 4:4.5.3
 _ZN8Q3GArray9setExpandEjPKcj@Base 4:4.5.3
 _ZN8Q3GArrayC1ERKS_@Base 4:4.5.3
 _ZN8Q3GArrayC1Ei@Base 4:4.5.3
 _ZN8Q3GArrayC1Eii@Base 4:4.5.3
 _ZN8Q3GArrayC1Ev@Base 4:4.5.3
 _ZN8Q3GArrayC2ERKS_@Base 4:4.5.3
 _ZN8Q3GArrayC2Ei@Base 4:4.5.3
 _ZN8Q3GArrayC2Eii@Base 4:4.5.3
 _ZN8Q3GArrayC2Ev@Base 4:4.5.3
 _ZN8Q3GArrayD0Ev@Base 4:4.5.3
 _ZN8Q3GArrayD1Ev@Base 4:4.5.3
 _ZN8Q3GArrayD2Ev@Base 4:4.5.3
 _ZN8Q3GCache10setMaxCostEi@Base 4:4.5.3
 _ZN8Q3GCache10take_otherEPKc@Base 4:4.5.3
 _ZN8Q3GCache11makeRoomForEii@Base 4:4.5.3
 _ZN8Q3GCache11take_stringERK7QString@Base 4:4.5.3
 _ZN8Q3GCache12insert_otherEPKcPvii@Base 4:4.5.3
 _ZN8Q3GCache12remove_otherEPKc@Base 4:4.5.3
 _ZN8Q3GCache13insert_stringERK7QStringPvii@Base 4:4.5.3
 _ZN8Q3GCache13remove_stringERK7QString@Base 4:4.5.3
 _ZN8Q3GCache5clearEv@Base 4:4.5.3
 _ZN8Q3GCacheC1ERKS_@Base 4:4.5.3
 _ZN8Q3GCacheC1EijNS_7KeyTypeEbb@Base 4:4.5.3
 _ZN8Q3GCacheC2ERKS_@Base 4:4.5.3
 _ZN8Q3GCacheC2EijNS_7KeyTypeEbb@Base 4:4.5.3
 _ZN8Q3GCacheD0Ev@Base 4:4.5.3
 _ZN8Q3GCacheD1Ev@Base 4:4.5.3
 _ZN8Q3GCacheD2Ev@Base 4:4.5.3
 _ZN8Q3GCacheaSERKS_@Base 4:4.5.3
 _ZN8Q3Header10paintEventEP11QPaintEvent@Base 4:4.5.3
 _ZN8Q3Header10sizeChangeEiii@Base 4:4.5.3
 _ZN8Q3Header10unMarkLineEi@Base 4:4.5.3
 _ZN8Q3Header11changeEventEP6QEvent@Base 4:4.5.3
 _ZN8Q3Header11indexChangeEiii@Base 4:4.5.3
 _ZN8Q3Header11moveSectionEii@Base 4:4.5.3
 _ZN8Q3Header11qt_metacallEN11QMetaObject4CallEiPPv@Base 4:4.5.3
 _ZN8Q3Header11qt_metacastEPKc@Base 4:4.5.3
 _ZN8Q3Header11removeLabelEi@Base 4:4.5.3
 _ZN8Q3Header11resizeEventEP12QResizeEvent@Base 4:4.5.3
 _ZN8Q3Header11setCellSizeEii@Base 4:4.5.3
 _ZN8Q3Header11setTrackingEb@Base 4:4.5.3
 _ZN8Q3Header12paintSectionEP8QPainteriRK5QRect@Base 4:4.5.3
 _ZN8Q3Header12resizeArraysEi@Base 4:4.5.3
 _ZN8Q3Header13keyPressEventEP9QKeyEvent@Base 4:4.5.3
 _ZN8Q3Header13resizeSectionEii@Base 4:4.5.3
 _ZN8Q3Header14mouseMoveEventEP11QMouseEvent@Base 4:4.5.3
 _ZN8Q3Header14sectionClickedEi@Base 4:4.5.3
 _ZN8Q3Header14setOrientationEN2Qt11OrientationE@Base 4:4.5.3
 _ZN8Q3Header15keyReleaseEventEP9QKeyEvent@Base 4:4.5.3
 _ZN8Q3Header15mousePressEventEP11QMouseEvent@Base 4:4.5.3
 _ZN8Q3Header15setClickEnabledEbi@Base 4:4.5.3
 _ZN8Q3Header16adjustHeaderSizeEi@Base 4:4.5.3
 _ZN8Q3Header16handleColumnMoveEii@Base 4:4.5.3
 _ZN8Q3Header16setMovingEnabledEb@Base 4:4.5.3
 _ZN8Q3Header16setResizeEnabledEbi@Base 4:4.5.3
 _ZN8Q3Header16setSortIndicatorEib@Base 4:4.5.3
 _ZN8Q3Header16staticMetaObjectE@Base 4:4.5.3
 _ZN8Q3Header17mouseReleaseEventEP11QMouseEvent@Base 4:4.5.3
 _ZN8Q3Header17paintSectionLabelEP8QPainteriRK5QRect@Base 4:4.5.3
 _ZN8Q3Header17setIsATableHeaderEb@Base 4:4.5.3
 _ZN8Q3Header17setStretchEnabledEbi@Base 4:4.5.3
 _ZN8Q3Header17setUpdatesEnabledEb@Base 4:4.5.3
 _ZN8Q3Header18calculatePositionsEbi@Base 4:4.5.3
 _ZN8Q3Header18handleColumnResizeEiibb@Base 4:4.5.3
 _ZN8Q3Header21mouseDoubleClickEventEP11QMouseEvent@Base 4:4.5.3
 _ZN8Q3Header23setSectionSizeAndHeightEii@Base 4:4.5.3
 _ZN8Q3Header26sectionHandleDoubleClickedEi@Base 4:4.5.3
 _ZN8Q3Header4initEi@Base 4:4.5.3
 _ZN8Q3Header5movedEii@Base 4:4.5.3
 _ZN8Q3Header5sRectEi@Base 4:4.5.3
 _ZN8Q3Header7clickedEi@Base 4:4.5.3
 _ZN8Q3Header7pressedEi@Base 4:4.5.3
 _ZN8Q3Header8addLabelERK5QIconRK7QStringi@Base 4:4.5.3
 _ZN8Q3Header8addLabelERK7QStringi@Base 4:4.5.3
 _ZN8Q3Header8findLineEi@Base 4:4.5.3
 _ZN8Q3Header8handleAtEi@Base 4:4.5.3
 _ZN8Q3Header8markLineEi@Base 4:4.5.3
 _ZN8Q3Header8moveCellEii@Base 4:4.5.3
 _ZN8Q3Header8releasedEi@Base 4:4.5.3
 _ZN8Q3Header8setLabelEiRK5QIconRK7QStringi@Base 4:4.5.3
 _ZN8Q3Header8setLabelEiRK7QStringi@Base 4:4.5.3
 _ZN8Q3Header9paintRectEii@Base 4:4.5.3
 _ZN8Q3Header9setOffsetEi@Base 4:4.5.3
 _ZN8Q3Header9showEventEP10QShowEvent@Base 4:4.5.3
 _ZN8Q3HeaderC1EP7QWidgetPKc@Base 4:4.5.3
 _ZN8Q3HeaderC1EiP7QWidgetPKc@Base 4:4.5.3
 _ZN8Q3HeaderC2EP7QWidgetPKc@Base 4:4.5.3
 _ZN8Q3HeaderC2EiP7QWidgetPKc@Base 4:4.5.3
 _ZN8Q3HeaderD0Ev@Base 4:4.5.3
 _ZN8Q3HeaderD1Ev@Base 4:4.5.3
 _ZN8Q3HeaderD2Ev@Base 4:4.5.3
 _ZN8Q3Membuf11scanNewlineEP10QByteArray@Base 4:4.5.3
 _ZN8Q3Membuf12consumeBytesEmPc@Base 4:4.5.3
 _ZN8Q3Membuf7ungetchEi@Base 4:4.5.3
 _ZN8Q3MembufC1Ev@Base 4:4.5.3
 _ZN8Q3MembufC2Ev@Base 4:4.5.3
 _ZN8Q3MembufD1Ev@Base 4:4.5.3
 _ZN8Q3MembufD2Ev@Base 4:4.5.3
 _ZN8Q3Signal10disconnectEPK7QObjectPKc@Base 4:4.5.3
 _ZN8Q3Signal11qt_metacallEN11QMetaObject4CallEiPPv@Base 4:4.5.3
 _ZN8Q3Signal11qt_metacastEPKc@Base 4:4.5.3
 _ZN8Q3Signal12setParameterEi@Base 4:4.5.3
 _ZN8Q3Signal16staticMetaObjectE@Base 4:4.5.3
 _ZN8Q3Signal6signalERK8QVariant@Base 4:4.5.3
 _ZN8Q3Signal7connectEPK7QObjectPKc@Base 4:4.5.3
 _ZN8Q3Signal8activateEv@Base 4:4.5.3
 _ZN8Q3Signal8setValueERK8QVariant@Base 4:4.5.3
 _ZN8Q3Signal9intSignalEi@Base 4:4.5.3
 _ZN8Q3SignalC1EP7QObjectPKc@Base 4:4.5.3
 _ZN8Q3SignalC2EP7QObjectPKc@Base 4:4.5.3
 _ZN8Q3SignalD0Ev@Base 4:4.5.3
 _ZN8Q3SignalD1Ev@Base 4:4.5.3
 _ZN8Q3SignalD2Ev@Base 4:4.5.3
 _ZN8Q3Socket11qt_metacallEN11QMetaObject4CallEiPPv@Base 4:4.5.3
 _ZN8Q3Socket11qt_metacastEPKc@Base 4:4.5.3
 _ZN8Q3Socket12bytesWrittenEi@Base 4:4.5.3
 _ZN8Q3Socket12socketDeviceEv@Base 4:4.5.3
 _ZN8Q3Socket13connectToHostERK7QStringt@Base 4:4.5.3
 _ZN8Q3Socket13tryConnectingEv@Base 4:4.5.3
 _ZN8Q3Socket13tryConnectionEv@Base 4:4.5.3
 _ZN8Q3Socket15consumeWriteBufEm@Base 4:4.5.3
 _ZN8Q3Socket15setSocketDeviceEP14Q3SocketDevice@Base 4:4.5.3
 _ZN8Q3Socket15setSocketInternEi@Base 4:4.5.3
 _ZN8Q3Socket16clearPendingDataEv@Base 4:4.5.3
 _ZN8Q3Socket16connectionClosedEv@Base 4:4.5.3
 _ZN8Q3Socket16staticMetaObjectE@Base 4:4.5.3
 _ZN8Q3Socket17setReadBufferSizeEm@Base 4:4.5.3
 _ZN8Q3Socket20delayedCloseFinishedEv@Base 4:4.5.3
 _ZN8Q3Socket26emitErrorConnectionRefusedEv@Base 4:4.5.3
 _ZN8Q3Socket2atEx@Base 4:4.5.3
 _ZN8Q3Socket4openE6QFlagsIN9QIODevice12OpenModeFlagEE@Base 4:4.5.3
 _ZN8Q3Socket5closeEv@Base 4:4.5.3
 _ZN8Q3Socket5errorEi@Base 4:4.5.3
 _ZN8Q3Socket5flushEv@Base 4:4.5.3
 _ZN8Q3Socket5getchEv@Base 4:4.5.3
 _ZN8Q3Socket5putchEi@Base 4:4.5.3
 _ZN8Q3Socket7sn_readEb@Base 4:4.5.3
 _ZN8Q3Socket7ungetchEi@Base 4:4.5.3
 _ZN8Q3Socket8readDataEPcx@Base 4:4.5.3
 _ZN8Q3Socket8sn_writeEv@Base 4:4.5.3
 _ZN8Q3Socket9connectedEv@Base 4:4.5.3
 _ZN8Q3Socket9hostFoundEv@Base 4:4.5.3
 _ZN8Q3Socket9readyReadEv@Base 4:4.5.3
 _ZN8Q3Socket9setSocketEi@Base 4:4.5.3
 _ZN8Q3Socket9writeDataEPKcx@Base 4:4.5.3
 _ZN8Q3SocketC1EP7QObjectPKc@Base 4:4.5.3
 _ZN8Q3SocketC2EP7QObjectPKc@Base 4:4.5.3
 _ZN8Q3SocketD0Ev@Base 4:4.5.3
 _ZN8Q3SocketD1Ev@Base 4:4.5.3
 _ZN8Q3SocketD2Ev@Base 4:4.5.3
 _ZN8Q3Wizard10insertPageEP7QWidgetRK7QStringi@Base 4:4.5.3
 _ZN8Q3Wizard10removePageEP7QWidget@Base 4:4.5.3
 _ZN8Q3Wizard10setVisibleEb@Base 4:4.5.3
 _ZN8Q3Wizard11eventFilterEP7QObjectP6QEvent@Base 4:4.5.3
 _ZN8Q3Wizard11helpClickedEv@Base 4:4.5.3
 _ZN8Q3Wizard11qt_metacallEN11QMetaObject4CallEiPPv@Base 4:4.5.3
 _ZN8Q3Wizard11qt_metacastEPKc@Base 4:4.5.3
 _ZN8Q3Wizard12setTitleFontERK5QFont@Base 4:4.5.3
 _ZN8Q3Wizard13updateButtonsEv@Base 4:4.5.3
 _ZN8Q3Wizard14layOutTitleRowEP11QHBoxLayoutRK7QString@Base 4:4.5.3
 _ZN8Q3Wizard14setAppropriateEP7QWidgetb@Base 4:4.5.3
 _ZN8Q3Wizard14setBackEnabledEP7QWidgetb@Base 4:4.5.3
 _ZN8Q3Wizard14setBackEnabledEb@Base 4:4.5.3
 _ZN8Q3Wizard14setHelpEnabledEP7QWidgetb@Base 4:4.5.3
 _ZN8Q3Wizard14setHelpEnabledEb@Base 4:4.5.3
 _ZN8Q3Wizard14setNextEnabledEP7QWidgetb@Base 4:4.5.3
 _ZN8Q3Wizard14setNextEnabledEb@Base 4:4.5.3
 _ZN8Q3Wizard15layOutButtonRowEP11QHBoxLayout@Base 4:4.5.3
 _ZN8Q3Wizard16setFinishEnabledEP7QWidgetb@Base 4:4.5.3
 _ZN8Q3Wizard16staticMetaObjectE@Base 4:4.5.3
 _ZN8Q3Wizard4backEv@Base 4:4.5.3
 _ZN8Q3Wizard4helpEv@Base 4:4.5.3
 _ZN8Q3Wizard4nextEv@Base 4:4.5.3
 _ZN8Q3Wizard6layOutEv@Base 4:4.5.3
 _ZN8Q3Wizard7addPageEP7QWidgetRK7QString@Base 4:4.5.3
 _ZN8Q3Wizard7setFontERK5QFont@Base 4:4.5.3
 _ZN8Q3Wizard8selectedERK7QString@Base 4:4.5.3
 _ZN8Q3Wizard8setTitleEP7QWidgetRK7QString@Base 4:4.5.3
 _ZN8Q3Wizard8showPageEP7QWidget@Base 4:4.5.3
 _ZN8Q3WizardC1EP7QWidgetPKcb6QFlagsIN2Qt10WindowTypeEE@Base 4:4.5.3
 _ZN8Q3WizardC2EP7QWidgetPKcb6QFlagsIN2Qt10WindowTypeEE@Base 4:4.5.3
 _ZN8Q3WizardD0Ev@Base 4:4.5.3
 _ZN8Q3WizardD1Ev@Base 4:4.5.3
 _ZN8Q3WizardD2Ev@Base 4:4.5.3
 _ZN9Q3CString6setNumEdci@Base 4:4.5.3
 _ZN9Q3CString6setNumEl@Base 4:4.5.3
 _ZN9Q3CString6setNumEm@Base 4:4.5.3
 _ZN9Q3CString7sprintfEPKcz@Base 4:4.5.3
 _ZN9Q3CString9setExpandEjc@Base 4:4.5.3
 _ZN9Q3CStringD1Ev@Base 4:4.7.4
 _ZN9Q3CStringD2Ev@Base 4:4.7.4
 _ZN9Q3GVector12compareItemsEPvS0_@Base 4:4.5.3
 _ZN9Q3GVector12insertExpandEjPv@Base 4:4.5.3
 _ZN9Q3GVector17warningIndexRangeEj@Base 4:4.5.3
 _ZN9Q3GVector4fillEPvi@Base 4:4.5.3
 _ZN9Q3GVector4readER11QDataStream@Base 4:4.5.3
 _ZN9Q3GVector4readER11QDataStreamRPv@Base 4:4.5.3
 _ZN9Q3GVector4sortEv@Base 4:4.5.3
 _ZN9Q3GVector4takeEj@Base 4:4.5.3
 _ZN9Q3GVector5clearEv@Base 4:4.5.3
 _ZN9Q3GVector6insertEjPv@Base 4:4.5.3
 _ZN9Q3GVector6removeEj@Base 4:4.5.3
 _ZN9Q3GVector6resizeEj@Base 4:4.5.3
 _ZN9Q3GVectorC1ERKS_@Base 4:4.5.3
 _ZN9Q3GVectorC1Ej@Base 4:4.5.3
 _ZN9Q3GVectorC1Ev@Base 4:4.5.3
 _ZN9Q3GVectorC2ERKS_@Base 4:4.5.3
 _ZN9Q3GVectorC2Ej@Base 4:4.5.3
 _ZN9Q3GVectorC2Ev@Base 4:4.5.3
 _ZN9Q3GVectorD0Ev@Base 4:4.5.3
 _ZN9Q3GVectorD1Ev@Base 4:4.5.3
 _ZN9Q3GVectorD2Ev@Base 4:4.5.3
 _ZN9Q3GVectoraSERKS_@Base 4:4.5.3
 _ZN9Q3ListBox10changeItemEPK13Q3ListBoxItemi@Base 4:4.5.3
 _ZN9Q3ListBox10changeItemERK7QPixmapRK7QStringi@Base 4:4.5.3
 _ZN9Q3ListBox10changeItemERK7QPixmapi@Base 4:4.5.3
 _ZN9Q3ListBox10changeItemERK7QStringi@Base 4:4.5.3
 _ZN9Q3ListBox10drawRubberEv@Base 4:4.5.3
 _ZN9Q3ListBox10insertItemEPK13Q3ListBoxItemS2_@Base 4:4.5.3
 _ZN9Q3ListBox10insertItemEPK13Q3ListBoxItemi@Base 4:4.5.3
 _ZN9Q3ListBox10insertItemERK7QPixmapRK7QStringi@Base 4:4.5.3
 _ZN9Q3ListBox10insertItemERK7QPixmapi@Base 4:4.5.3
 _ZN9Q3ListBox10insertItemERK7QStringi@Base 4:4.5.3
 _ZN9Q3ListBox10onViewportEv@Base 4:4.5.3
 _ZN9Q3ListBox10removeItemEi@Base 4:4.5.3
 _ZN9Q3ListBox10setRowModeENS_10LayoutModeE@Base 4:4.5.3
 _ZN9Q3ListBox10setRowModeEi@Base 4:4.5.3
 _ZN9Q3ListBox10setTopItemEi@Base 4:4.5.3
 _ZN9Q3ListBox10updateItemEP13Q3ListBoxItem@Base 4:4.5.3
 _ZN9Q3ListBox10updateItemEi@Base 4:4.5.3
 _ZN9Q3ListBox11adjustItemsEv@Base 4:4.5.3
 _ZN9Q3ListBox11changeEventEP6QEvent@Base 4:4.5.3
 _ZN9Q3ListBox11eventFilterEP7QObjectP6QEvent@Base 4:4.5.3
 _ZN9Q3ListBox11highlightedEP13Q3ListBoxItem@Base 4:4.5.3
 _ZN9Q3ListBox11highlightedERK7QString@Base 4:4.5.3
 _ZN9Q3ListBox11highlightedEi@Base 4:4.5.3
 _ZN9Q3ListBox11itemVisibleEPK13Q3ListBoxItem@Base 4:4.5.3
 _ZN9Q3ListBox11itemVisibleEi@Base 4:4.5.3
 _ZN9Q3ListBox11qt_metacallEN11QMetaObject4CallEiPPv@Base 4:4.5.3
 _ZN9Q3ListBox11qt_metacastEPKc@Base 4:4.5.3
 _ZN9Q3ListBox11refreshSlotEv@Base 4:4.5.3
 _ZN9Q3ListBox11resizeEventEP12QResizeEvent@Base 4:4.5.3
 _ZN9Q3ListBox11selectRangeEP13Q3ListBoxItemS1_bbb@Base 4:4.5.3
 _ZN9Q3ListBox11setSelectedEP13Q3ListBoxItemb@Base 4:4.5.3
 _ZN9Q3ListBox11setSelectedEib@Base 4:4.5.3
 _ZN9Q3ListBox12doAutoScrollEv@Base 4:4.5.3
 _ZN9Q3ListBox12focusInEventEP11QFocusEvent@Base 4:4.5.3
 _ZN9Q3ListBox13doubleClickedEP13Q3ListBoxItem@Base 4:4.5.3
 _ZN9Q3ListBox13focusOutEventEP11QFocusEvent@Base 4:4.5.3
 _ZN9Q3ListBox13insertStrListEPPKcii@Base 4:4.5.3
 _ZN9Q3ListBox13keyPressEventEP9QKeyEvent@Base 4:4.5.3
 _ZN9Q3ListBox13returnPressedEP13Q3ListBoxItem@Base 4:4.5.3
 _ZN9Q3ListBox13setBottomItemEi@Base 4:4.5.3
 _ZN9Q3ListBox13setColumnModeENS_10LayoutModeE@Base 4:4.5.3
 _ZN9Q3ListBox13setColumnModeEi@Base 4:4.5.3
 _ZN9Q3ListBox13triggerUpdateEb@Base 4:4.5.3
 _ZN9Q3ListBox14changedListBoxE@Base 4:4.5.3
 _ZN9Q3ListBox14clearSelectionEv@Base 4:4.5.3
 _ZN9Q3ListBox14currentChangedEP13Q3ListBoxItem@Base 4:4.5.3
 _ZN9Q3ListBox14mouseMoveEventEP11QMouseEvent@Base 4:4.5.3
 _ZN9Q3ListBox14setCurrentItemEP13Q3ListBoxItem@Base 4:4.5.3
 _ZN9Q3ListBox14setCurrentItemEi@Base 4:4.5.3
 _ZN9Q3ListBox15invertSelectionEv@Base 4:4.5.3
 _ZN9Q3ListBox15mousePressEventEP11QMouseEvent@Base 4:4.5.3
 _ZN9Q3ListBox15updateSelectionEv@Base 4:4.5.3
 _ZN9Q3ListBox16clearInputStringEv@Base 4:4.5.3
 _ZN9Q3ListBox16handleItemChangeEP13Q3ListBoxItembb@Base 4:4.5.3
 _ZN9Q3ListBox16insertStringListERK11QStringListi@Base 4:4.5.3
 _ZN9Q3ListBox16repaintSelectionEv@Base 4:4.5.3
 _ZN9Q3ListBox16selectionChangedEP13Q3ListBoxItem@Base 4:4.5.3
 _ZN9Q3ListBox16selectionChangedEv@Base 4:4.5.3
 _ZN9Q3ListBox16setSelectionModeENS_13SelectionModeE@Base 4:4.5.3
 _ZN9Q3ListBox16setVariableWidthEb@Base 4:4.5.3
 _ZN9Q3ListBox16staticMetaObjectE@Base 4:4.5.3
 _ZN9Q3ListBox17doRubberSelectionERK5QRectS2_@Base 4:4.5.3
 _ZN9Q3ListBox17emitChangedSignalEb@Base 4:4.5.3
 _ZN9Q3ListBox17mousePressEventExEP11QMouseEvent@Base 4:4.5.3
 _ZN9Q3ListBox17mouseReleaseEventEP11QMouseEvent@Base 4:4.5.3
 _ZN9Q3ListBox17setMultiSelectionEb@Base 4:4.5.3
 _ZN9Q3ListBox17setVariableHeightEb@Base 4:4.5.3
 _ZN9Q3ListBox17toggleCurrentItemEv@Base 4:4.5.3
 _ZN9Q3ListBox18mouseButtonClickedEiP13Q3ListBoxItemRK6QPoint@Base 4:4.5.3
 _ZN9Q3ListBox18mouseButtonPressedEiP13Q3ListBoxItemRK6QPoint@Base 4:4.5.3
 _ZN9Q3ListBox18rightButtonClickedEP13Q3ListBoxItemRK6QPoint@Base 4:4.5.3
 _ZN9Q3ListBox18rightButtonPressedEP13Q3ListBoxItemRK6QPoint@Base 4:4.5.3
 _ZN9Q3ListBox18viewportPaintEventEP11QPaintEvent@Base 4:4.5.3
 _ZN9Q3ListBox20contextMenuRequestedEP13Q3ListBoxItemRK6QPoint@Base 4:4.5.3
 _ZN9Q3ListBox20ensureCurrentVisibleEv@Base 4:4.5.3
 _ZN9Q3ListBox21mouseDoubleClickEventEP11QMouseEvent@Base 4:4.5.3
 _ZN9Q3ListBox24contentsContextMenuEventEP17QContextMenuEvent@Base 4:4.5.3
 _ZN9Q3ListBox4sortEb@Base 4:4.5.3
 _ZN9Q3ListBox5clearEv@Base 4:4.5.3
 _ZN9Q3ListBox6inSortEPK13Q3ListBoxItem@Base 4:4.5.3
 _ZN9Q3ListBox6inSortERK7QString@Base 4:4.5.3
 _ZN9Q3ListBox6onItemEP13Q3ListBoxItem@Base 4:4.5.3
 _ZN9Q3ListBox7clickedEP13Q3ListBoxItem@Base 4:4.5.3
 _ZN9Q3ListBox7clickedEP13Q3ListBoxItemRK6QPoint@Base 4:4.5.3
 _ZN9Q3ListBox7pressedEP13Q3ListBoxItem@Base 4:4.5.3
 _ZN9Q3ListBox7pressedEP13Q3ListBoxItemRK6QPoint@Base 4:4.5.3
 _ZN9Q3ListBox8selectedEP13Q3ListBoxItem@Base 4:4.5.3
 _ZN9Q3ListBox8selectedERK7QString@Base 4:4.5.3
 _ZN9Q3ListBox8selectedEi@Base 4:4.5.3
 _ZN9Q3ListBox8takeItemEPK13Q3ListBoxItem@Base 4:4.5.3
 _ZN9Q3ListBox9paintCellEP8QPainterii@Base 4:4.5.3
 _ZN9Q3ListBox9selectAllEb@Base 4:4.5.3
 _ZN9Q3ListBox9showEventEP10QShowEvent@Base 4:4.5.3
 _ZN9Q3ListBoxC1EP7QWidgetPKc6QFlagsIN2Qt10WindowTypeEE@Base 4:4.5.3
 _ZN9Q3ListBoxC2EP7QWidgetPKc6QFlagsIN2Qt10WindowTypeEE@Base 4:4.5.3
 _ZN9Q3ListBoxD0Ev@Base 4:4.5.3
 _ZN9Q3ListBoxD1Ev@Base 4:4.5.3
 _ZN9Q3ListBoxD2Ev@Base 4:4.5.3
 _ZN9Q3LocalFs11qt_metacallEN11QMetaObject4CallEiPPv@Base 4:4.5.3
 _ZN9Q3LocalFs11qt_metacastEPKc@Base 4:4.5.3
 _ZN9Q3LocalFs12operationGetEP18Q3NetworkOperation@Base 4:4.5.3
 _ZN9Q3LocalFs12operationPutEP18Q3NetworkOperation@Base 4:4.5.3
 _ZN9Q3LocalFs14operationMkDirEP18Q3NetworkOperation@Base 4:4.5.3
 _ZN9Q3LocalFs15operationRemoveEP18Q3NetworkOperation@Base 4:4.5.3
 _ZN9Q3LocalFs15operationRenameEP18Q3NetworkOperation@Base 4:4.5.3
 _ZN9Q3LocalFs16staticMetaObjectE@Base 4:4.5.3
 _ZN9Q3LocalFs21operationListChildrenEP18Q3NetworkOperation@Base 4:4.5.3
 _ZN9Q3LocalFsC1Ev@Base 4:4.5.3
 _ZN9Q3LocalFsC2Ev@Base 4:4.5.3
 _ZN9Q3LocalFsD0Ev@Base 4:4.7.4
 _ZN9Q3LocalFsD1Ev@Base 4:4.7.4
 _ZN9Q3LocalFsD2Ev@Base 4:4.7.4
 _ZN9Q3Painter17adjustedRectangleERK5QRect@Base 4:4.5.3
 _ZN9Q3Picture4loadEP9QIODevicePKc@Base 4:4.5.3
 _ZN9Q3Picture4loadERK7QStringPKc@Base 4:4.5.3
 _ZN9Q3Picture4saveEP9QIODevicePKc@Base 4:4.5.3
 _ZN9Q3Picture4saveERK7QStringPKc@Base 4:4.5.3
 _ZN9Q3Process10closeStdinEv@Base 4:4.5.3
 _ZN9Q3Process10flushStdinEv@Base 4:4.5.3
 _ZN9Q3Process10readStderrEv@Base 4:4.5.3
 _ZN9Q3Process10readStdoutEv@Base 4:4.5.3
 _ZN9Q3Process10socketReadEi@Base 4:4.5.3
 _ZN9Q3Process11addArgumentERK7QString@Base 4:4.5.3
 _ZN9Q3Process11qt_metacallEN11QMetaObject4CallEiPPv@Base 4:4.5.3
 _ZN9Q3Process11qt_metacastEPKc@Base 4:4.5.3
 _ZN9Q3Process11socketWriteEi@Base 4:4.5.3
 _ZN9Q3Process12membufStderrEv@Base 4:4.5.3
 _ZN9Q3Process12membufStdoutEv@Base 4:4.5.3
 _ZN9Q3Process12setArgumentsERK11QStringList@Base 4:4.5.3
 _ZN9Q3Process12writeToStdinERK10QByteArray@Base 4:4.5.3
 _ZN9Q3Process12writeToStdinERK7QString@Base 4:4.5.3
 _ZN9Q3Process12wroteToStdinEv@Base 4:4.5.3
 _ZN9Q3Process13connectNotifyEPKc@Base 4:4.5.3
 _ZN9Q3Process13processExitedEv@Base 4:4.5.3
 _ZN9Q3Process14clearArgumentsEv@Base 4:4.5.3
 _ZN9Q3Process14launchFinishedEv@Base 4:4.5.3
 _ZN9Q3Process14readLineStderrEv@Base 4:4.5.3
 _ZN9Q3Process14readLineStdoutEv@Base 4:4.5.3
 _ZN9Q3Process15readyReadStderrEv@Base 4:4.5.3
 _ZN9Q3Process15readyReadStdoutEv@Base 4:4.5.3
 _ZN9Q3Process15setNotifyOnExitEb@Base 4:4.5.3
 _ZN9Q3Process16closeStdinLaunchEv@Base 4:4.5.3
 _ZN9Q3Process16disconnectNotifyEPKc@Base 4:4.5.3
 _ZN9Q3Process16setCommunicationEi@Base 4:4.5.3
 _ZN9Q3Process16setIoRedirectionEb@Base 4:4.5.3
 _ZN9Q3Process16staticMetaObjectE@Base 4:4.5.3
 _ZN9Q3Process17processIdentifierEv@Base 4:4.5.3
 _ZN9Q3Process19setWorkingDirectoryERK4QDir@Base 4:4.5.3
 _ZN9Q3Process22setWroteStdinConnectedEb@Base 4:4.5.3
 _ZN9Q3Process4initEv@Base 4:4.5.3
 _ZN9Q3Process5resetEv@Base 4:4.5.3
 _ZN9Q3Process5startEP11QStringList@Base 4:4.5.3
 _ZN9Q3Process6launchERK10QByteArrayP11QStringList@Base 4:4.5.3
 _ZN9Q3Process6launchERK7QStringP11QStringList@Base 4:4.5.3
 _ZN9Q3Process7timeoutEv@Base 4:4.5.3
 _ZN9Q3ProcessC1EP7QObjectPKc@Base 4:4.5.3
 _ZN9Q3ProcessC1ERK11QStringListP7QObjectPKc@Base 4:4.5.3
 _ZN9Q3ProcessC1ERK7QStringP7QObjectPKc@Base 4:4.5.3
 _ZN9Q3ProcessC2EP7QObjectPKc@Base 4:4.5.3
 _ZN9Q3ProcessC2ERK11QStringListP7QObjectPKc@Base 4:4.5.3
 _ZN9Q3ProcessC2ERK7QStringP7QObjectPKc@Base 4:4.5.3
 _ZN9Q3ProcessD0Ev@Base 4:4.5.3
 _ZN9Q3ProcessD1Ev@Base 4:4.5.3
 _ZN9Q3ProcessD2Ev@Base 4:4.5.3
 _ZN9Q3SqlForm10readFieldsEv@Base 4:4.5.3
 _ZN9Q3SqlForm10writeFieldEP7QWidget@Base 4:4.5.3
 _ZN9Q3SqlForm11clearValuesEv@Base 4:4.5.3
 _ZN9Q3SqlForm11qt_metacallEN11QMetaObject4CallEiPPv@Base 4:4.5.3
 _ZN9Q3SqlForm11qt_metacastEPKc@Base 4:4.5.3
 _ZN9Q3SqlForm11writeFieldsEv@Base 4:4.5.3
 _ZN9Q3SqlForm16staticMetaObjectE@Base 4:4.5.3
 _ZN9Q3SqlForm18installPropertyMapEP16Q3SqlPropertyMap@Base 4:4.5.3
 _ZN9Q3SqlForm4syncEv@Base 4:4.5.3
 _ZN9Q3SqlForm5clearEv@Base 4:4.5.3
 _ZN9Q3SqlForm6insertEP7QWidgetP9QSqlField@Base 4:4.5.3
 _ZN9Q3SqlForm6insertEP7QWidgetRK7QString@Base 4:4.5.3
 _ZN9Q3SqlForm6removeEP7QWidget@Base 4:4.5.3
 _ZN9Q3SqlForm6removeERK7QString@Base 4:4.5.3
 _ZN9Q3SqlForm8clearMapEv@Base 4:4.5.3
 _ZN9Q3SqlForm9readFieldEP7QWidget@Base 4:4.5.3
 _ZN9Q3SqlForm9setRecordEP10QSqlRecord@Base 4:4.5.3
 _ZN9Q3SqlFormC1EP7QObject@Base 4:4.5.3
 _ZN9Q3SqlFormC2EP7QObject@Base 4:4.5.3
 _ZN9Q3SqlFormD0Ev@Base 4:4.5.3
 _ZN9Q3SqlFormD1Ev@Base 4:4.5.3
 _ZN9Q3SqlFormD2Ev@Base 4:4.5.3
 _ZN9Q3ToolBar10setVisibleEb@Base 4:4.5.3
 _ZN9Q3ToolBar11actionEventEP12QActionEvent@Base 4:4.5.3
 _ZN9Q3ToolBar11createPopupEv@Base 4:4.5.3
 _ZN9Q3ToolBar11qt_metacallEN11QMetaObject4CallEiPPv@Base 4:4.5.3
 _ZN9Q3ToolBar11qt_metacastEPKc@Base 4:4.5.3
 _ZN9Q3ToolBar11resizeEventEP12QResizeEvent@Base 4:4.5.3
 _ZN9Q3ToolBar11styleChangeER6QStyle@Base 4:4.5.3
 _ZN9Q3ToolBar12addSeparatorEv@Base 4:4.5.3
 _ZN9Q3ToolBar14setMinimumSizeEii@Base 4:4.5.3
 _ZN9Q3ToolBar14setOrientationEN2Qt11OrientationE@Base 4:4.5.3
 _ZN9Q3ToolBar16staticMetaObjectE@Base 4:4.5.3
 _ZN9Q3ToolBar17checkForExtensionERK5QSize@Base 4:4.5.3
 _ZN9Q3ToolBar20setStretchableWidgetEP7QWidget@Base 4:4.5.3
 _ZN9Q3ToolBar4initEv@Base 4:4.5.3
 _ZN9Q3ToolBar5clearEv@Base 4:4.5.3
 _ZN9Q3ToolBar5eventEP6QEvent@Base 4:4.5.3
 _ZN9Q3ToolBar8setLabelERK7QString@Base 4:4.5.3
 _ZN9Q3ToolBarC1EP12Q3MainWindowPKc@Base 4:4.5.3
 _ZN9Q3ToolBarC1ERK7QStringP12Q3MainWindowN2Qt4DockEbPKc@Base 4:4.5.3
 _ZN9Q3ToolBarC1ERK7QStringP12Q3MainWindowP7QWidgetbPKc6QFlagsIN2Qt10WindowTypeEE@Base 4:4.5.3
 _ZN9Q3ToolBarC2EP12Q3MainWindowPKc@Base 4:4.5.3
 _ZN9Q3ToolBarC2ERK7QStringP12Q3MainWindowN2Qt4DockEbPKc@Base 4:4.5.3
 _ZN9Q3ToolBarC2ERK7QStringP12Q3MainWindowP7QWidgetbPKc6QFlagsIN2Qt10WindowTypeEE@Base 4:4.5.3
 _ZN9Q3ToolBarD0Ev@Base 4:4.5.3
 _ZN9Q3ToolBarD1Ev@Base 4:4.5.3
 _ZN9Q3ToolBarD2Ev@Base 4:4.5.3
 _ZN9Q3UriDrag11qt_metacallEN11QMetaObject4CallEiPPv@Base 4:4.5.3
 _ZN9Q3UriDrag11qt_metacastEPKc@Base 4:4.5.3
 _ZN9Q3UriDrag12setFileNamesERK11QStringList@Base 4:4.5.3
 _ZN9Q3UriDrag14localFileToUriERK7QString@Base 4:4.5.3
 _ZN9Q3UriDrag14setUnicodeUrisERK11QStringList@Base 4:4.5.3
 _ZN9Q3UriDrag14uriToLocalFileEPKc@Base 4:4.5.3
 _ZN9Q3UriDrag15unicodeUriToUriERK7QString@Base 4:4.5.3
 _ZN9Q3UriDrag15uriToUnicodeUriEPKc@Base 4:4.5.3
 _ZN9Q3UriDrag16decodeLocalFilesEPK11QMimeSourceR11QStringList@Base 4:4.5.3
 _ZN9Q3UriDrag16staticMetaObjectE@Base 4:4.5.3
 _ZN9Q3UriDrag19decodeToUnicodeUrisEPK11QMimeSourceR11QStringList@Base 4:4.5.3
 _ZN9Q3UriDrag6decodeEPK11QMimeSourceR9Q3StrList@Base 4:4.5.3
 _ZN9Q3UriDrag7setUrisERK5QListI10QByteArrayE@Base 4:4.5.3
 _ZN9Q3UriDrag9canDecodeEPK11QMimeSource@Base 4:4.5.3
 _ZN9Q3UriDragC1EP7QWidgetPKc@Base 4:4.5.3
 _ZN9Q3UriDragC1ERK9Q3StrListP7QWidgetPKc@Base 4:4.5.3
 _ZN9Q3UriDragC2EP7QWidgetPKc@Base 4:4.5.3
 _ZN9Q3UriDragC2ERK9Q3StrListP7QWidgetPKc@Base 4:4.5.3
 _ZN9Q3UriDragD0Ev@Base 4:4.5.3
 _ZN9Q3UriDragD1Ev@Base 4:4.5.3
 _ZN9Q3UriDragD2Ev@Base 4:4.5.3
 (optional=external|arch=amd64 hurd-i386 i386 kfreebsd-amd64 kfreebsd-i386)_ZN9QBitArrayD1Ev@Base 4:4.8.1
 (optional=external|arch=amd64 hurd-i386 i386 kfreebsd-amd64 kfreebsd-i386)_ZN9QBitArrayD2Ev@Base 4:4.8.1
 _ZNK10Q3ComboBox10autoResizeEv@Base 4:4.5.3
 _ZNK10Q3ComboBox10metaObjectEv@Base 4:4.5.3
 _ZNK10Q3ComboBox11currentItemEv@Base 4:4.5.3
 _ZNK10Q3ComboBox11currentTextEv@Base 4:4.5.3
 _ZNK10Q3ComboBox14autoCompletionEv@Base 4:4.5.3
 _ZNK10Q3ComboBox15completionIndexERK7QStringi@Base 4:4.5.3
 _ZNK10Q3ComboBox15insertionPolicyEv@Base 4:4.5.3
 _ZNK10Q3ComboBox17duplicatesEnabledEv@Base 4:4.5.3
 _ZNK10Q3ComboBox4textEi@Base 4:4.5.3
 _ZNK10Q3ComboBox5countEv@Base 4:4.5.3
 _ZNK10Q3ComboBox6pixmapEi@Base 4:4.5.3
 _ZNK10Q3ComboBox7listBoxEv@Base 4:4.5.3
 _ZNK10Q3ComboBox8editableEv@Base 4:4.5.3
 _ZNK10Q3ComboBox8lineEditEv@Base 4:4.5.3
 _ZNK10Q3ComboBox8maxCountEv@Base 4:4.5.3
 _ZNK10Q3ComboBox8sizeHintEv@Base 4:4.5.3
 _ZNK10Q3ComboBox9sizeLimitEv@Base 4:4.5.3
 _ZNK10Q3ComboBox9validatorEv@Base 4:4.5.3
 _ZNK10Q3DataView10metaObjectEv@Base 4:4.5.3
 _ZNK10Q3DateEdit10metaObjectEv@Base 4:4.5.3
 _ZNK10Q3DateEdit10outOfRangeEiii@Base 4:4.5.3
 _ZNK10Q3DateEdit11autoAdvanceEv@Base 4:4.5.3
 _ZNK10Q3DateEdit11sectionTextEi@Base 4:4.5.3
 _ZNK10Q3DateEdit13sectionLengthEi@Base 4:4.5.3
 _ZNK10Q3DateEdit15minimumSizeHintEv@Base 4:4.5.3
 _ZNK10Q3DateEdit16sectionOffsetEndEi@Base 4:4.5.3
 _ZNK10Q3DateEdit4dateEv@Base 4:4.5.3
 _ZNK10Q3DateEdit5orderEv@Base 4:4.5.3
 _ZNK10Q3DateEdit8maxValueEv@Base 4:4.5.3
 _ZNK10Q3DateEdit8minValueEv@Base 4:4.5.3
 _ZNK10Q3DateEdit8sizeHintEv@Base 4:4.5.3
 _ZNK10Q3DateEdit9separatorEv@Base 4:4.5.3
 _ZNK10Q3DockArea10metaObjectEv@Base 4:4.5.3
 _ZNK10Q3DockArea14dockWindowListEv@Base 4:4.5.3
 _ZNK10Q3DockArea5countEv@Base 4:4.5.3
 _ZNK10Q3DockArea7isEmptyEv@Base 4:4.5.3
 _ZNK10Q3GridView10metaObjectEv@Base 4:4.5.3
 _ZNK10Q3GroupBox10frameShapeEv@Base 4:4.5.3
 _ZNK10Q3GroupBox10frameStyleEv@Base 4:4.5.3
 _ZNK10Q3GroupBox10frameWidthEv@Base 4:4.5.3
 _ZNK10Q3GroupBox10metaObjectEv@Base 4:4.5.3
 _ZNK10Q3GroupBox11frameShadowEv@Base 4:4.5.3
 _ZNK10Q3GroupBox11orientationEv@Base 4:4.5.3
 _ZNK10Q3GroupBox12insideMarginEv@Base 4:4.5.3
 _ZNK10Q3GroupBox12midLineWidthEv@Base 4:4.5.3
 _ZNK10Q3GroupBox13insideSpacingEv@Base 4:4.5.3
 _ZNK10Q3GroupBox7columnsEv@Base 4:4.5.3
 _ZNK10Q3GroupBox9frameRectEv@Base 4:4.5.3
 _ZNK10Q3GroupBox9lineWidthEv@Base 4:4.5.3
 _ZNK10Q3IconDrag10metaObjectEv@Base 4:4.5.3
 _ZNK10Q3IconDrag11encodedDataEPKc@Base 4:4.5.3
 _ZNK10Q3IconDrag6formatEi@Base 4:4.5.3
 _ZNK10Q3IconView10isRenamingEv@Base 4:4.5.3
 _ZNK10Q3IconView10metaObjectEv@Base 4:4.5.3
 _ZNK10Q3IconView10resizeModeEv@Base 4:4.5.3
 _ZNK10Q3IconView11arrangementEv@Base 4:4.5.3
 _ZNK10Q3IconView11autoArrangeEv@Base 4:4.5.3
 _ZNK10Q3IconView11calcGridNumEii@Base 4:4.5.3
 _ZNK10Q3IconView11currentItemEv@Base 4:4.5.3
 _ZNK10Q3IconView11itemTextPosEv@Base 4:4.5.3
 _ZNK10Q3IconView12itemsMovableEv@Base 4:4.5.3
 _ZNK10Q3IconView12maxItemWidthEv@Base 4:4.5.3
 _ZNK10Q3IconView12showToolTipsEv@Base 4:4.5.3
 _ZNK10Q3IconView13neighbourItemENS_9DirectionERK6QPointPK14Q3IconViewItem@Base 4:4.5.3
 _ZNK10Q3IconView13selectionModeEv@Base 4:4.5.3
 _ZNK10Q3IconView13sortDirectionEv@Base 4:4.5.3
 _ZNK10Q3IconView15minimumSizeHintEv@Base 4:4.5.3
 _ZNK10Q3IconView16inputMethodQueryEN2Qt16InputMethodQueryE@Base 4:4.5.3
 _ZNK10Q3IconView16wordWrapIconTextEv@Base 4:4.5.3
 _ZNK10Q3IconView17maxItemTextLengthEv@Base 4:4.5.3
 _ZNK10Q3IconView18itemTextBackgroundEv@Base 4:4.5.3
 _ZNK10Q3IconView19findLastVisibleItemERK5QRect@Base 4:4.5.3
 _ZNK10Q3IconView20findFirstVisibleItemERK5QRect@Base 4:4.5.3
 _ZNK10Q3IconView4maskEP7QPixmap@Base 4:4.5.3
 _ZNK10Q3IconView5countEv@Base 4:4.5.3
 _ZNK10Q3IconView5gridXEv@Base 4:4.5.3
 _ZNK10Q3IconView5gridYEv@Base 4:4.5.3
 _ZNK10Q3IconView5indexEPK14Q3IconViewItem@Base 4:4.5.3
 _ZNK10Q3IconView7sortingEv@Base 4:4.5.3
 _ZNK10Q3IconView7spacingEv@Base 4:4.5.3
 _ZNK10Q3IconView8findItemENS_9DirectionERK6QPointRK5QRect@Base 4:4.5.3
 _ZNK10Q3IconView8findItemERK6QPoint@Base 4:4.5.3
 _ZNK10Q3IconView8findItemERK7QStringj@Base 4:4.5.3
 _ZNK10Q3IconView8lastItemEv@Base 4:4.5.3
 _ZNK10Q3IconView8rowBeginEP14Q3IconViewItem@Base 4:4.5.3
 _ZNK10Q3IconView8sizeHintEv@Base 4:4.5.3
 _ZNK10Q3IconView9firstItemEv@Base 4:4.5.3
 _ZNK10Q3ListView10childCountEv@Base 4:4.5.3
 _ZNK10Q3ListView10columnTextEi@Base 4:4.5.3
 _ZNK10Q3ListView10firstChildEv@Base 4:4.5.3
 _ZNK10Q3ListView10isRenamingEv@Base 4:4.5.3
 _ZNK10Q3ListView10isSelectedEPK14Q3ListViewItem@Base 4:4.5.3
 _ZNK10Q3ListView10itemMarginEv@Base 4:4.5.3
 _ZNK10Q3ListView10metaObjectEv@Base 4:4.5.3
 _ZNK10Q3ListView10resizeModeEv@Base 4:4.5.3
 _ZNK10Q3ListView10sortColumnEv@Base 4:4.5.3
 _ZNK10Q3ListView11columnWidthEi@Base 4:4.5.3
 _ZNK10Q3ListView11currentItemEv@Base 4:4.5.3
 _ZNK10Q3ListView11repaintItemEPK14Q3ListViewItem@Base 4:4.5.3
 _ZNK10Q3ListView12selectedItemEv@Base 4:4.5.3
 _ZNK10Q3ListView12showToolTipsEv@Base 4:4.5.3
 _ZNK10Q3ListView12treeStepSizeEv@Base 4:4.5.3
 _ZNK10Q3ListView13selectionModeEv@Base 4:4.5.3
 _ZNK10Q3ListView15columnAlignmentEi@Base 4:4.5.3
 _ZNK10Q3ListView15columnWidthModeEi@Base 4:4.5.3
 _ZNK10Q3ListView15minimumSizeHintEv@Base 4:4.5.3
 _ZNK10Q3ListView15rootIsDecoratedEv@Base 4:4.5.3
 _ZNK10Q3ListView16inputMethodQueryEN2Qt16InputMethodQueryE@Base 4:4.5.3
 _ZNK10Q3ListView16isMultiSelectionEv@Base 4:4.5.3
 _ZNK10Q3ListView17buildDrawableListEv@Base 4:4.5.3
 _ZNK10Q3ListView17showSortIndicatorEv@Base 4:4.5.3
 _ZNK10Q3ListView19allColumnsShowFocusEv@Base 4:4.5.3
 _ZNK10Q3ListView19defaultRenameActionEv@Base 4:4.5.3
 _ZNK10Q3ListView6headerEv@Base 4:4.5.3
 _ZNK10Q3ListView6isOpenEPK14Q3ListViewItem@Base 4:4.5.3
 _ZNK10Q3ListView6itemAtERK6QPoint@Base 4:4.5.3
 _ZNK10Q3ListView7columnsEv@Base 4:4.5.3
 _ZNK10Q3ListView8findItemERK7QStringij@Base 4:4.5.3
 _ZNK10Q3ListView8itemRectEPK14Q3ListViewItem@Base 4:4.5.3
 _ZNK10Q3ListView8lastItemEv@Base 4:4.5.3
 _ZNK10Q3ListView8sizeHintEv@Base 4:4.5.3
 _ZNK10Q3ListView9sortOrderEv@Base 4:4.5.3
 _ZNK10Q3TextDrag10metaObjectEv@Base 4:4.5.3
 _ZNK10Q3TextDrag11encodedDataEPKc@Base 4:4.5.3
 _ZNK10Q3TextDrag6formatEi@Base 4:4.5.3
 _ZNK10Q3TextEdit10dragObjectEP7QWidget@Base 4:4.5.3
 _ZNK10Q3TextEdit10isModifiedEv@Base 4:4.5.3
 _ZNK10Q3TextEdit10metaObjectEv@Base 4:4.5.3
 _ZNK10Q3TextEdit10paragraphsEv@Base 4:4.5.3
 _ZNK10Q3TextEdit10styleSheetEv@Base 4:4.5.3
 _ZNK10Q3TextEdit10textFormatEv@Base 4:4.5.3
 _ZNK10Q3TextEdit10wrapPolicyEv@Base 4:4.5.3
 _ZNK10Q3TextEdit11currentFontEv@Base 4:4.5.3
 _ZNK10Q3TextEdit11maxLogLinesEv@Base 4:4.5.3
 _ZNK10Q3TextEdit11paragraphAtERK6QPoint@Base 4:4.5.3
 _ZNK10Q3TextEdit12UndoRedoInfo5validEv@Base 4:4.5.3
 _ZNK10Q3TextEdit12getSelectionEPiS0_S0_S0_i@Base 4:4.5.3
 _ZNK10Q3TextEdit12selectedTextEv@Base 4:4.5.3
 _ZNK10Q3TextEdit12tabStopWidthEv@Base 4:4.5.3
 _ZNK10Q3TextEdit13documentTitleEv@Base 4:4.5.3
 _ZNK10Q3TextEdit13linkUnderlineEv@Base 4:4.5.3
 _ZNK10Q3TextEdit13paragraphRectEi@Base 4:4.5.3
 _ZNK10Q3TextEdit14autoFormattingEv@Base 4:4.5.3
 _ZNK10Q3TextEdit14heightForWidthEi@Base 4:4.5.3
 _ZNK10Q3TextEdit14optimCharIndexERK7QStringi@Base 4:4.5.3
 _ZNK10Q3TextEdit15hasSelectedTextEv@Base 4:4.5.3
 _ZNK10Q3TextEdit15isRedoAvailableEv@Base 4:4.5.3
 _ZNK10Q3TextEdit15isUndoAvailableEv@Base 4:4.5.3
 _ZNK10Q3TextEdit15paragraphLengthEi@Base 4:4.5.3
 _ZNK10Q3TextEdit15tabChangesFocusEv@Base 4:4.5.3
 _ZNK10Q3TextEdit16inputMethodQueryEN2Qt16InputMethodQueryE@Base 4:4.5.3
 _ZNK10Q3TextEdit16linesOfParagraphEi@Base 4:4.5.3
 _ZNK10Q3TextEdit17getCursorPositionEPiS0_@Base 4:4.5.3
 _ZNK10Q3TextEdit17isUndoRedoEnabledEv@Base 4:4.5.3
 _ZNK10Q3TextEdit17mimeSourceFactoryEv@Base 4:4.5.3
 _ZNK10Q3TextEdit17optimHasSelectionEv@Base 4:4.5.3
 _ZNK10Q3TextEdit17optimSelectedTextEv@Base 4:4.5.3
 _ZNK10Q3TextEdit17syntaxHighlighterEv@Base 4:4.5.3
 _ZNK10Q3TextEdit17verticalAlignmentEv@Base 4:4.5.3
 _ZNK10Q3TextEdit17wrapColumnOrWidthEv@Base 4:4.5.3
 _ZNK10Q3TextEdit24paragraphBackgroundColorEi@Base 4:4.5.3
 _ZNK10Q3TextEdit4boldEv@Base 4:4.5.3
 _ZNK10Q3TextEdit4fontEv@Base 4:4.5.3
 _ZNK10Q3TextEdit4textEi@Base 4:4.5.3
 _ZNK10Q3TextEdit4textEv@Base 4:4.5.3
 _ZNK10Q3TextEdit5colorEv@Base 4:4.5.3
 _ZNK10Q3TextEdit5linesEv@Base 4:4.5.3
 _ZNK10Q3TextEdit5paperEv@Base 4:4.5.3
 _ZNK10Q3TextEdit6charAtERK6QPointPi@Base 4:4.5.3
 _ZNK10Q3TextEdit6familyEv@Base 4:4.5.3
 _ZNK10Q3TextEdit6italicEv@Base 4:4.5.3
 _ZNK10Q3TextEdit6lengthEv@Base 4:4.5.3
 _ZNK10Q3TextEdit7contextEv@Base 4:4.5.3
 _ZNK10Q3TextEdit8sizeHintEv@Base 4:4.5.3
 _ZNK10Q3TextEdit8wordWrapEv@Base 4:4.5.3
 _ZNK10Q3TextEdit9alignmentEv@Base 4:4.5.3
 _ZNK10Q3TextEdit9optimTextEv@Base 4:4.5.3
 _ZNK10Q3TextEdit9pointSizeEv@Base 4:4.5.3
 _ZNK10Q3TextEdit9underlineEv@Base 4:4.5.3
 _ZNK10Q3TextEdit9undoDepthEv@Base 4:4.5.3
 _ZNK10Q3TextFlow12boundingRectEv@Base 4:4.5.3
 _ZNK10Q3TextView10metaObjectEv@Base 4:4.5.3
 _ZNK10Q3TimeEdit10metaObjectEv@Base 4:4.5.3
 _ZNK10Q3TimeEdit10outOfRangeEiii@Base 4:4.5.3
 _ZNK10Q3TimeEdit11autoAdvanceEv@Base 4:4.5.3
 _ZNK10Q3TimeEdit15minimumSizeHintEv@Base 4:4.5.3
 _ZNK10Q3TimeEdit4timeEv@Base 4:4.5.3
 _ZNK10Q3TimeEdit7displayEv@Base 4:4.5.3
 _ZNK10Q3TimeEdit8maxValueEv@Base 4:4.5.3
 _ZNK10Q3TimeEdit8minValueEv@Base 4:4.5.3
 _ZNK10Q3TimeEdit8sizeHintEv@Base 4:4.5.3
 _ZNK10Q3TimeEdit9separatorEv@Base 4:4.5.3
 _ZNK10Q3TitleBar10metaObjectEv@Base 4:4.5.3
 _ZNK10Q3TitleBar14getStyleOptionEv@Base 4:4.5.3
 _ZNK10Q3TitleBar15fakeWindowFlagsEv@Base 4:4.5.3
 _ZNK10Q3TitleBar15usesActiveColorEv@Base 4:4.5.3
 _ZNK10Q3TitleBar6isToolEv@Base 4:4.5.3
 _ZNK10Q3TitleBar6windowEv@Base 4:4.5.3
 _ZNK10Q3TitleBar8isActiveEv@Base 4:4.5.3
 _ZNK10Q3TitleBar8sizeHintEv@Base 4:4.5.3
 _ZNK10Q3TitleBar9autoRaiseEv@Base 4:4.5.3
 _ZNK10Q3TitleBar9isMovableEv@Base 4:4.5.3
 _ZNK11Q3ColorDrag10metaObjectEv@Base 4:4.5.3
 _ZNK11Q3DataTable10autoDeleteEv@Base 4:4.5.3
 _ZNK11Q3DataTable10dateFormatEv@Base 4:4.5.3
 _ZNK11Q3DataTable10metaObjectEv@Base 4:4.5.3
 _ZNK11Q3DataTable12confirmEditsEv@Base 4:4.5.3
 _ZNK11Q3DataTable12createEditorEiib@Base 4:4.5.3
 _ZNK11Q3DataTable13confirmDeleteEv@Base 4:4.5.3
 _ZNK11Q3DataTable13confirmInsertEv@Base 4:4.5.3
 _ZNK11Q3DataTable13confirmUpdateEv@Base 4:4.5.3
 _ZNK11Q3DataTable13currentRecordEv@Base 4:4.5.3
 _ZNK11Q3DataTable14confirmCancelsEv@Base 4:4.5.3
 _ZNK11Q3DataTable4itemEii@Base 4:4.5.3
 _ZNK11Q3DataTable4sortEv@Base 4:4.5.3
 _ZNK11Q3DataTable4textEii@Base 4:4.5.3
 _ZNK11Q3DataTable5valueEii@Base 4:4.5.3
 _ZNK11Q3DataTable6filterEv@Base 4:4.5.3
 _ZNK11Q3DataTable7indexOfEj@Base 4:4.5.3
 _ZNK11Q3DataTable7numColsEv@Base 4:4.5.3
 _ZNK11Q3DataTable7numRowsEv@Base 4:4.5.3
 _ZNK11Q3DataTable8autoEditEv@Base 4:4.5.3
 _ZNK11Q3DataTable8nullTextEv@Base 4:4.5.3
 _ZNK11Q3DataTable8trueTextEv@Base 4:4.5.3
 _ZNK11Q3DataTable9falseTextEv@Base 4:4.5.3
 _ZNK11Q3DataTable9sqlCursorEv@Base 4:4.5.3
 _ZNK11Q3HGroupBox10metaObjectEv@Base 4:4.5.3
 _ZNK11Q3ImageDrag10metaObjectEv@Base 4:4.5.3
 _ZNK11Q3ImageDrag11encodedDataEPKc@Base 4:4.5.3
 _ZNK11Q3ImageDrag6formatEi@Base 4:4.5.3
 _ZNK11Q3PopupMenu10metaObjectEv@Base 4:4.5.3
 _ZNK11Q3Semaphore5totalEv@Base 4:4.5.3
 _ZNK11Q3Semaphore9availableEv@Base 4:4.5.3
 _ZNK11Q3SqlCursor10isReadOnlyEv@Base 4:4.5.3
 _ZNK11Q3SqlCursor12isCalculatedERK7QString@Base 4:4.5.3
 _ZNK11Q3SqlCursor12primaryIndexEb@Base 4:4.5.3
 _ZNK11Q3SqlCursor4modeEv@Base 4:4.5.3
 _ZNK11Q3SqlCursor4nameEv@Base 4:4.5.3
 _ZNK11Q3SqlCursor4sortEv@Base 4:4.5.3
 _ZNK11Q3SqlCursor5indexERK11QStringList@Base 4:4.5.3
 _ZNK11Q3SqlCursor5indexERK7QString@Base 4:4.5.3
 _ZNK11Q3SqlCursor5valueEi@Base 4:4.5.3
 _ZNK11Q3SqlCursor6filterEv@Base 4:4.5.3
 _ZNK11Q3SqlCursor6isNullERK7QString@Base 4:4.5.3
 _ZNK11Q3SqlCursor6isNullEi@Base 4:4.5.3
 _ZNK11Q3SqlCursor8toStringEP10QSqlRecordRK7QStringS4_S4_@Base 4:4.5.3
 _ZNK11Q3SqlCursor8toStringERK7QStringP9QSqlFieldS2_@Base 4:4.5.3
 _ZNK11Q3SqlCursor8toStringERK7QStringS2_@Base 4:4.5.3
 _ZNK11Q3SqlCursor8toStringERK9QSqlIndexP10QSqlRecordRK7QStringS7_S7_@Base 4:4.5.3
 _ZNK11Q3SqlCursor9canDeleteEv@Base 4:4.5.3
 _ZNK11Q3SqlCursor9canInsertEv@Base 4:4.5.3
 _ZNK11Q3SqlCursor9canUpdateEv@Base 4:4.5.3
 _ZNK11Q3SqlCursor9isTrimmedERK7QString@Base 4:4.5.3
 _ZNK11Q3TabDialog10metaObjectEv@Base 4:4.5.3
 _ZNK11Q3TabDialog11currentPageEv@Base 4:4.5.3
 _ZNK11Q3TabDialog11hasOkButtonEv@Base 4:4.5.3
 _ZNK11Q3TabDialog12isTabEnabledEP7QWidget@Base 4:4.5.3
 _ZNK11Q3TabDialog12isTabEnabledEPKc@Base 4:4.5.3
 _ZNK11Q3TabDialog13hasHelpButtonEv@Base 4:4.5.3
 _ZNK11Q3TabDialog14hasApplyButtonEv@Base 4:4.5.3
 _ZNK11Q3TabDialog15hasCancelButtonEv@Base 4:4.5.3
 _ZNK11Q3TabDialog16hasDefaultButtonEv@Base 4:4.5.3
 _ZNK11Q3TabDialog6tabBarEv@Base 4:4.5.3
 _ZNK11Q3TableItem12createEditorEv@Base 4:4.5.3
 _ZNK11Q3TableItem13isReplaceableEv@Base 4:4.5.3
 _ZNK11Q3TableItem3colEv@Base 4:4.5.3
 _ZNK11Q3TableItem3keyEv@Base 4:4.5.3
 _ZNK11Q3TableItem3rowEv@Base 4:4.5.3
 _ZNK11Q3TableItem4rttiEv@Base 4:4.5.3
 _ZNK11Q3TableItem4textEv@Base 4:4.5.3
 _ZNK11Q3TableItem6pixmapEv@Base 4:4.5.3
 _ZNK11Q3TableItem7colSpanEv@Base 4:4.5.3
 _ZNK11Q3TableItem7rowSpanEv@Base 4:4.5.3
 _ZNK11Q3TableItem8editTypeEv@Base 4:4.5.3
 _ZNK11Q3TableItem8sizeHintEv@Base 4:4.5.3
 _ZNK11Q3TableItem8wordWrapEv@Base 4:4.5.3
 _ZNK11Q3TableItem9alignmentEv@Base 4:4.5.3
 _ZNK11Q3TableItem9isEnabledEv@Base 4:4.5.3
 _ZNK11Q3TextImage8richTextEv@Base 4:4.5.3
 _ZNK11Q3TextTable12minimumWidthEv@Base 4:4.5.3
 _ZNK11Q3TextTable8richTextEv@Base 4:4.5.3
 _ZNK11Q3VGroupBox10metaObjectEv@Base 4:4.5.3
 _ZNK11Q3WhatsThis10metaObjectEv@Base 4:4.5.3
 _ZNK12Q3CanvasItem10collisionsEb@Base 4:4.5.3
 _ZNK12Q3CanvasItem20boundingRectAdvancedEv@Base 4:4.5.3
 _ZNK12Q3CanvasItem4rttiEv@Base 4:4.5.3
 _ZNK12Q3CanvasItem6chunksEv@Base 4:4.5.3
 _ZNK12Q3CanvasItem8animatedEv@Base 4:4.5.3
 _ZNK12Q3CanvasItem9xVelocityEv@Base 4:4.5.3
 _ZNK12Q3CanvasItem9yVelocityEv@Base 4:4.5.3
 _ZNK12Q3CanvasLine10areaPointsEv@Base 4:4.5.3
 _ZNK12Q3CanvasLine4rttiEv@Base 4:4.5.3
 _ZNK12Q3CanvasText12boundingRectEv@Base 4:4.5.3
 _ZNK12Q3CanvasText12collidesWithEPK12Q3CanvasItem@Base 4:4.5.3
 _ZNK12Q3CanvasText12collidesWithEPK14Q3CanvasSpritePK21Q3CanvasPolygonalItemPK17Q3CanvasRectanglePK15Q3CanvasEllipsePKS_@Base 4:4.5.3
 _ZNK12Q3CanvasText4fontEv@Base 4:4.5.3
 _ZNK12Q3CanvasText4rttiEv@Base 4:4.5.3
 _ZNK12Q3CanvasText4textEv@Base 4:4.5.3
 _ZNK12Q3CanvasText5colorEv@Base 4:4.5.3
 _ZNK12Q3CanvasView10metaObjectEv@Base 4:4.5.3
 _ZNK12Q3CanvasView11worldMatrixEv@Base 4:4.5.3
 _ZNK12Q3CanvasView18inverseWorldMatrixEv@Base 4:4.5.3
 _ZNK12Q3CanvasView8sizeHintEv@Base 4:4.5.3
 _ZNK12Q3DockWindow10metaObjectEv@Base 4:4.5.3
 _ZNK12Q3DockWindow11fixedExtentEv@Base 4:4.5.3
 _ZNK12Q3DockWindow11minimumSizeEv@Base 4:4.5.3
 _ZNK12Q3DockWindow11orientationEv@Base 4:4.5.3
 _ZNK12Q3DockWindow11windowTitleEv@Base 4:4.5.3
 _ZNK12Q3DockWindow12opaqueMovingEv@Base 4:4.5.3
 _ZNK12Q3DockWindow13isStretchableEv@Base 4:4.5.3
 _ZNK12Q3DockWindow14isCloseEnabledEv@Base 4:4.5.3
 _ZNK12Q3DockWindow15isMovingEnabledEv@Base 4:4.5.3
 _ZNK12Q3DockWindow15isResizeEnabledEv@Base 4:4.5.3
 _ZNK12Q3DockWindow15minimumSizeHintEv@Base 4:4.5.3
 _ZNK12Q3DockWindow23isVerticallyStretchableEv@Base 4:4.5.3
 _ZNK12Q3DockWindow25isHorizontallyStretchableEv@Base 4:4.5.3
 _ZNK12Q3DockWindow6offsetEv@Base 4:4.5.3
 _ZNK12Q3DockWindow6widgetEv@Base 4:4.5.3
 _ZNK12Q3DockWindow7newLineEv@Base 4:4.5.3
 _ZNK12Q3DockWindow8sizeHintEv@Base 4:4.5.3
 _ZNK12Q3DockWindow9closeModeEv@Base 4:4.5.3
 _ZNK12Q3DragObject10metaObjectEv@Base 4:4.5.3
 _ZNK12Q3DragObject13pixmapHotSpotEv@Base 4:4.5.3
 _ZNK12Q3DragObject6pixmapEv@Base 4:4.5.3
 _ZNK12Q3FileDialog10metaObjectEv@Base 4:4.5.3
 _ZNK12Q3FileDialog11previewModeEv@Base 4:4.5.3
 _ZNK12Q3FileDialog12selectedFileEv@Base 4:4.5.3
 _ZNK12Q3FileDialog13selectedFilesEv@Base 4:4.5.3
 _ZNK12Q3FileDialog14selectedFilterEv@Base 4:4.5.3
 _ZNK12Q3FileDialog15showHiddenFilesEv@Base 4:4.5.3
 _ZNK12Q3FileDialog20isInfoPreviewEnabledEv@Base 4:4.5.3
 _ZNK12Q3FileDialog24isContentsPreviewEnabledEv@Base 4:4.5.3
 _ZNK12Q3FileDialog3dirEv@Base 4:4.5.3
 _ZNK12Q3FileDialog3urlEv@Base 4:4.5.3
 _ZNK12Q3FileDialog4modeEv@Base 4:4.5.3
 _ZNK12Q3FileDialog7dirPathEv@Base 4:4.5.3
 _ZNK12Q3FileDialog8viewModeEv@Base 4:4.5.3
 _ZNK12Q3HttpHeader11contentTypeEv@Base 4:4.5.3
 _ZNK12Q3HttpHeader13contentLengthEv@Base 4:4.5.3
 _ZNK12Q3HttpHeader14hasContentTypeEv@Base 4:4.5.3
 _ZNK12Q3HttpHeader16hasContentLengthEv@Base 4:4.5.3
 _ZNK12Q3HttpHeader4keysEv@Base 4:4.5.3
 _ZNK12Q3HttpHeader5valueERK7QString@Base 4:4.5.3
 _ZNK12Q3HttpHeader6hasKeyERK7QString@Base 4:4.5.3
 _ZNK12Q3HttpHeader7isValidEv@Base 4:4.5.3
 _ZNK12Q3HttpHeader8toStringEv@Base 4:4.5.3
 _ZNK12Q3MainWindow10bottomDockEv@Base 4:4.5.3
 _ZNK12Q3MainWindow10metaObjectEv@Base 4:4.5.3
 _ZNK12Q3MainWindow11appropriateEP12Q3DockWindow@Base 4:4.5.3
 _ZNK12Q3MainWindow11dockWindowsEN2Qt4DockE@Base 4:4.5.3
 _ZNK12Q3MainWindow11dockWindowsEv@Base 4:4.5.3
 _ZNK12Q3MainWindow11getLocationEP12Q3DockWindowRN2Qt4DockERiRbS5_@Base 4:4.5.3
 _ZNK12Q3MainWindow12opaqueMovingEv@Base 4:4.5.3
 _ZNK12Q3MainWindow13centralWidgetEv@Base 4:4.5.3
 _ZNK12Q3MainWindow13isDockEnabledEN2Qt4DockE@Base 4:4.5.3
 _ZNK12Q3MainWindow13isDockEnabledEP10Q3DockArea@Base 4:4.5.3
 _ZNK12Q3MainWindow13isDockEnabledEP12Q3DockWindowN2Qt4DockE@Base 4:4.5.3
 _ZNK12Q3MainWindow13isDockEnabledEP12Q3DockWindowP10Q3DockArea@Base 4:4.5.3
 _ZNK12Q3MainWindow13usesTextLabelEv@Base 4:4.5.3
 _ZNK12Q3MainWindow14dockMainWindowEP7QObject@Base 4:4.5.3
 _ZNK12Q3MainWindow14isCustomizableEv@Base 4:4.5.3
 _ZNK12Q3MainWindow14usesBigPixmapsEv@Base 4:4.5.3
 _ZNK12Q3MainWindow15minimumSizeHintEv@Base 4:4.5.3
 _ZNK12Q3MainWindow17isDockMenuEnabledEv@Base 4:4.5.3
 _ZNK12Q3MainWindow18dockWindowsMovableEv@Base 4:4.5.3
 _ZNK12Q3MainWindow18rightJustificationEv@Base 4:4.5.3
 _ZNK12Q3MainWindow20createDockWindowMenuENS_11DockWindowsE@Base 4:4.5.3
 _ZNK12Q3MainWindow7menuBarEv@Base 4:4.5.3
 _ZNK12Q3MainWindow7topDockEv@Base 4:4.5.3
 _ZNK12Q3MainWindow8leftDockEv@Base 4:4.5.3
 _ZNK12Q3MainWindow8sizeHintEv@Base 4:4.5.3
 _ZNK12Q3MainWindow8toolBarsEN2Qt4DockE@Base 4:4.5.3
 _ZNK12Q3MainWindow9rightDockEv@Base 4:4.5.3
 _ZNK12Q3MainWindow9statusBarEv@Base 4:4.5.3
 _ZNK12Q3PointArray11cubicBezierEv@Base 4:4.5.3
 _ZNK12Q3ScrollView10leftMarginEv@Base 4:4.5.3
 _ZNK12Q3ScrollView10metaObjectEv@Base 4:4.5.3
 _ZNK12Q3ScrollView11rightMarginEv@Base 4:4.5.3
 _ZNK12Q3ScrollView12bottomMarginEv@Base 4:4.5.3
 _ZNK12Q3ScrollView12cornerWidgetEv@Base 4:4.5.3
 _ZNK12Q3ScrollView12resizePolicyEv@Base 4:4.5.3
 _ZNK12Q3ScrollView12viewportSizeEii@Base 4:4.5.3
 _ZNK12Q3ScrollView12visibleWidthEv@Base 4:4.5.3
 _ZNK12Q3ScrollView13contentsWidthEv@Base 4:4.5.3
 _ZNK12Q3ScrollView13visibleHeightEv@Base 4:4.5.3
 _ZNK12Q3ScrollView14cachedSizeHintEv@Base 4:4.5.3
 _ZNK12Q3ScrollView14contentsHeightEv@Base 4:4.5.3
 _ZNK12Q3ScrollView14dragAutoScrollEv@Base 4:4.5.3
 _ZNK12Q3ScrollView14hScrollBarModeEv@Base 4:4.5.3
 _ZNK12Q3ScrollView14vScrollBarModeEv@Base 4:4.5.3
 _ZNK12Q3ScrollView15minimumSizeHintEv@Base 4:4.5.3
 _ZNK12Q3ScrollView17setCachedSizeHintERK5QSize@Base 4:4.5.3
 _ZNK12Q3ScrollView17verticalScrollBarEv@Base 4:4.5.3
 _ZNK12Q3ScrollView18contentsToViewportERK6QPoint@Base 4:4.5.3
 _ZNK12Q3ScrollView18contentsToViewportEiiRiS0_@Base 4:4.5.3
 _ZNK12Q3ScrollView18viewportToContentsERK6QPoint@Base 4:4.5.3
 _ZNK12Q3ScrollView18viewportToContentsEiiRiS0_@Base 4:4.5.3
 _ZNK12Q3ScrollView19hasStaticBackgroundEv@Base 4:4.5.3
 _ZNK12Q3ScrollView19horizontalScrollBarEv@Base 4:4.5.3
 _ZNK12Q3ScrollView7clipperEv@Base 4:4.5.3
 _ZNK12Q3ScrollView8sizeHintEv@Base 4:4.5.3
 _ZNK12Q3ScrollView8viewportEv@Base 4:4.5.3
 _ZNK12Q3ScrollView9contentsXEv@Base 4:4.5.3
 _ZNK12Q3ScrollView9contentsYEv@Base 4:4.5.3
 _ZNK12Q3ScrollView9topMarginEv@Base 4:4.5.3
 _ZNK12Q3SpinWidget10metaObjectEv@Base 4:4.5.3
 _ZNK12Q3SpinWidget11isUpEnabledEv@Base 4:4.5.3
 _ZNK12Q3SpinWidget13buttonSymbolsEv@Base 4:4.5.3
 _ZNK12Q3SpinWidget13isDownEnabledEv@Base 4:4.5.3
 _ZNK12Q3SpinWidget6upRectEv@Base 4:4.5.3
 _ZNK12Q3SpinWidget8downRectEv@Base 4:4.5.3
 _ZNK12Q3StoredDrag10metaObjectEv@Base 4:4.5.3
 _ZNK12Q3StoredDrag11encodedDataEPKc@Base 4:4.5.3
 _ZNK12Q3StoredDrag6formatEi@Base 4:4.5.3
 _ZNK12Q3StyleSheet10metaObjectEv@Base 4:4.5.3
 _ZNK12Q3StyleSheet4itemERK7QString@Base 4:4.5.3
 _ZNK12Q3StyleSheet5errorERK7QString@Base 4:4.5.3
 _ZNK12Q3StyleSheet9scaleFontER5QFonti@Base 4:4.5.3
 _ZNK12Q3TextCursor12totalOffsetXEv@Base 4:4.5.3
 _ZNK12Q3TextCursor12totalOffsetYEv@Base 4:4.5.3
 _ZNK12Q3TextCursor1xEv@Base 4:4.5.3
 _ZNK12Q3TextCursor1yEv@Base 4:4.5.3
 _ZNK12Q3TextCursor7globalXEv@Base 4:4.5.3
 _ZNK12Q3TextCursor7globalYEv@Base 4:4.5.3
 _ZNK12Q3TextCursor8documentEv@Base 4:4.5.3
 _ZNK12Q3TextCursoreqERKS_@Base 4:4.5.3
 _ZNK12Q3TextFormat14makeTextFormatEPK16Q3StyleSheetItemRK4QMapI7QStringS4_Ed@Base 4:4.5.3
 _ZNK12Q3TextFormat14minLeftBearingEv@Base 4:4.5.3
 _ZNK12Q3TextFormat15minRightBearingEv@Base 4:4.5.3
 _ZNK12Q3TextFormat17makeFormatEndTagsEPS_RK7QString@Base 4:4.5.3
 _ZNK12Q3TextFormat20makeFormatChangeTagsEPS_S0_RK7QStringS3_@Base 4:4.5.3
 _ZNK12Q3TextFormat5widthERK5QChar@Base 4:4.5.3
 _ZNK12Q3TextFormat5widthERK7QStringi@Base 4:4.5.3
 _ZNK12Q3TextFormat6ascentEv@Base 4:4.5.3
 _ZNK12Q3TextFormat6heightEv@Base 4:4.5.3
 _ZNK12Q3TextFormat7descentEv@Base 4:4.5.3
 _ZNK12Q3TextFormat7leadingEv@Base 4:4.5.3
 _ZNK12Q3TextString5widthEi@Base 4:4.5.3
 (arch=armel)_ZNK12Q3TextString8toStringEv@Base 4:4.8.0
 _ZNK12Q3TextString9checkBidiEv@Base 4:4.5.3
 _ZNK12QPaintDevice7devTypeEv@Base 4:4.5.3
 _ZNK13Q3ActionGroup10metaObjectEv@Base 4:4.5.3
 _ZNK13Q3ActionGroup11isExclusiveEv@Base 4:4.5.3
 _ZNK13Q3ActionGroup12usesDropDownEv@Base 4:4.5.3
 _ZNK13Q3ButtonGroup10metaObjectEv@Base 4:4.5.3
 _ZNK13Q3ButtonGroup10selectedIdEv@Base 4:4.5.3
 _ZNK13Q3ButtonGroup11fixChildrenEv@Base 4:4.5.3
 _ZNK13Q3ButtonGroup11isExclusiveEv@Base 4:4.5.3
 _ZNK13Q3ButtonGroup2idEP15QAbstractButton@Base 4:4.5.3
 _ZNK13Q3ButtonGroup4findEi@Base 4:4.5.3
 _ZNK13Q3ButtonGroup5countEv@Base 4:4.5.3
 _ZNK13Q3ButtonGroup8selectedEv@Base 4:4.5.3
 _ZNK13Q3DataBrowser10isReadOnlyEv@Base 4:4.5.3
 _ZNK13Q3DataBrowser10metaObjectEv@Base 4:4.5.3
 _ZNK13Q3DataBrowser12confirmEditsEv@Base 4:4.5.3
 _ZNK13Q3DataBrowser13confirmDeleteEv@Base 4:4.5.3
 _ZNK13Q3DataBrowser13confirmInsertEv@Base 4:4.5.3
 _ZNK13Q3DataBrowser13confirmUpdateEv@Base 4:4.5.3
 _ZNK13Q3DataBrowser14confirmCancelsEv@Base 4:4.5.3
 _ZNK13Q3DataBrowser16boundaryCheckingEv@Base 4:4.5.3
 _ZNK13Q3DataBrowser4sortEv@Base 4:4.5.3
 _ZNK13Q3DataBrowser6filterEv@Base 4:4.5.3
 _ZNK13Q3DataBrowser8autoEditEv@Base 4:4.5.3
 _ZNK13Q3DataBrowser9sqlCursorEv@Base 4:4.5.3
 _ZNK13Q3DataManager12confirmEditsEv@Base 4:4.5.3
 _ZNK13Q3DataManager13confirmDeleteEv@Base 4:4.5.3
 _ZNK13Q3DataManager13confirmInsertEv@Base 4:4.5.3
 _ZNK13Q3DataManager13confirmUpdateEv@Base 4:4.5.3
 _ZNK13Q3DataManager14confirmCancelsEv@Base 4:4.5.3
 _ZNK13Q3DataManager4modeEv@Base 4:4.5.3
 _ZNK13Q3DataManager8autoEditEv@Base 4:4.5.3
 _ZNK13Q3ListBoxItem4nextEv@Base 4:4.5.3
 _ZNK13Q3ListBoxItem4prevEv@Base 4:4.5.3
 _ZNK13Q3ListBoxItem4rttiEv@Base 4:4.5.3
 _ZNK13Q3ListBoxItem4textEv@Base 4:4.5.3
 _ZNK13Q3ListBoxItem5widthEPK9Q3ListBox@Base 4:4.5.3
 _ZNK13Q3ListBoxItem6heightEPK9Q3ListBox@Base 4:4.5.3
 _ZNK13Q3ListBoxItem6pixmapEv@Base 4:4.5.3
 _ZNK13Q3ListBoxItem7listBoxEv@Base 4:4.5.3
 _ZNK13Q3ListBoxItem9isCurrentEv@Base 4:4.5.3
 _ZNK13Q3ListBoxText4rttiEv@Base 4:4.5.3
 _ZNK13Q3ListBoxText5widthEPK9Q3ListBox@Base 4:4.5.3
 _ZNK13Q3ListBoxText6heightEPK9Q3ListBox@Base 4:4.5.3
 _ZNK13Q3ProgressBar10metaObjectEv@Base 4:4.5.3
 _ZNK13Q3ProgressBar15minimumSizeHintEv@Base 4:4.5.3
 _ZNK13Q3ProgressBar8sizeHintEv@Base 4:4.5.3
 _ZNK13Q3TableHeader10metaObjectEv@Base 4:4.5.3
 _ZNK13Q3TableHeader10sectionPosEi@Base 4:4.5.3
 _ZNK13Q3TableHeader11sectionSizeEi@Base 4:4.5.3
 _ZNK13Q3TableHeader12sectionStateEi@Base 4:4.5.3
 _ZNK13Q3TableHeader20isSectionStretchableEi@Base 4:4.5.3
 _ZNK13Q3TableHeader9sectionAtEi@Base 4:4.5.3
 _ZNK13Q3TextBrowser10metaObjectEv@Base 4:4.5.3
 _ZNK13Q3TextBrowser6sourceEv@Base 4:4.5.3
 _ZNK13Q3TextCommand4typeEv@Base 4:4.5.3
 _ZNK13Q3UrlOperator10metaObjectEv@Base 4:4.5.3
 _ZNK13Q3UrlOperator10nameFilterEv@Base 4:4.5.3
 _ZNK13Q3UrlOperator4infoERK7QString@Base 4:4.5.3
 _ZNK13Q3WidgetStack10metaObjectEv@Base 4:4.5.3
 _ZNK13Q3WidgetStack13visibleWidgetEv@Base 4:4.5.3
 _ZNK13Q3WidgetStack15minimumSizeHintEv@Base 4:4.5.3
 _ZNK13Q3WidgetStack2idEP7QWidget@Base 4:4.5.3
 _ZNK13Q3WidgetStack6widgetEi@Base 4:4.5.3
 _ZNK13Q3WidgetStack8sizeHintEv@Base 4:4.5.3
 _ZNK14Q3CanvasSpline13controlPointsEv@Base 4:4.5.3
 _ZNK14Q3CanvasSpline4rttiEv@Base 4:4.5.3
 _ZNK14Q3CanvasSpline6closedEv@Base 4:4.5.3
 _ZNK14Q3CanvasSprite10bottomEdgeEi@Base 4:4.5.3
 _ZNK14Q3CanvasSprite10bottomEdgeEv@Base 4:4.5.3
 _ZNK14Q3CanvasSprite12boundingRectEv@Base 4:4.5.3
 _ZNK14Q3CanvasSprite12collidesWithEPK12Q3CanvasItem@Base 4:4.5.3
 _ZNK14Q3CanvasSprite12collidesWithEPKS_PK21Q3CanvasPolygonalItemPK17Q3CanvasRectanglePK15Q3CanvasEllipsePK12Q3CanvasText@Base 4:4.5.3
 _ZNK14Q3CanvasSprite13imageAdvancedEv@Base 4:4.5.3
 _ZNK14Q3CanvasSprite4rttiEv@Base 4:4.5.3
 _ZNK14Q3CanvasSprite5widthEv@Base 4:4.5.3
 _ZNK14Q3CanvasSprite6heightEv@Base 4:4.5.3
 _ZNK14Q3CanvasSprite7topEdgeEi@Base 4:4.5.3
 _ZNK14Q3CanvasSprite7topEdgeEv@Base 4:4.5.3
 _ZNK14Q3CanvasSprite8leftEdgeEi@Base 4:4.5.3
 _ZNK14Q3CanvasSprite8leftEdgeEv@Base 4:4.5.3
 _ZNK14Q3CanvasSprite9rightEdgeEi@Base 4:4.5.3
 _ZNK14Q3CanvasSprite9rightEdgeEv@Base 4:4.5.3
 _ZNK14Q3DateTimeEdit10metaObjectEv@Base 4:4.5.3
 _ZNK14Q3DateTimeEdit11autoAdvanceEv@Base 4:4.5.3
 _ZNK14Q3DateTimeEdit15minimumSizeHintEv@Base 4:4.5.3
 _ZNK14Q3DateTimeEdit8dateTimeEv@Base 4:4.5.3
 _ZNK14Q3DateTimeEdit8sizeHintEv@Base 4:4.5.3
 _ZNK14Q3HButtonGroup10metaObjectEv@Base 4:4.5.3
 _ZNK14Q3IconDragData10pixmapRectEv@Base 4:4.5.3
 _ZNK14Q3IconDragData8textRectEv@Base 4:4.5.3
 _ZNK14Q3IconDragDataeqERKS_@Base 4:4.5.3
 _ZNK14Q3IconDragItem4dataEv@Base 4:4.5.3
 _ZNK14Q3IconDragItemeqERKS_@Base 4:4.5.3
 _ZNK14Q3IconViewItem10acceptDropEPK11QMimeSource@Base 4:4.5.3
 _ZNK14Q3IconViewItem10intersectsERK5QRect@Base 4:4.5.3
 _ZNK14Q3IconViewItem10isSelectedEv@Base 4:4.5.3
 _ZNK14Q3IconViewItem10pixmapRectEb@Base 4:4.5.3
 _ZNK14Q3IconViewItem11dragEnabledEv@Base 4:4.5.3
 _ZNK14Q3IconViewItem11dropEnabledEv@Base 4:4.5.3
 _ZNK14Q3IconViewItem12isSelectableEv@Base 4:4.5.3
 _ZNK14Q3IconViewItem13renameEnabledEv@Base 4:4.5.3
 _ZNK14Q3IconViewItem1xEv@Base 4:4.5.3
 _ZNK14Q3IconViewItem1yEv@Base 4:4.5.3
 _ZNK14Q3IconViewItem3keyEv@Base 4:4.5.3
 _ZNK14Q3IconViewItem3posEv@Base 4:4.5.3
 _ZNK14Q3IconViewItem4rectEv@Base 4:4.5.3
 _ZNK14Q3IconViewItem4rttiEv@Base 4:4.5.3
 _ZNK14Q3IconViewItem4sizeEv@Base 4:4.5.3
 _ZNK14Q3IconViewItem4textEv@Base 4:4.5.3
 _ZNK14Q3IconViewItem5indexEv@Base 4:4.5.3
 _ZNK14Q3IconViewItem5widthEv@Base 4:4.5.3
 _ZNK14Q3IconViewItem6heightEv@Base 4:4.5.3
 _ZNK14Q3IconViewItem6pixmapEv@Base 4:4.5.3
 _ZNK14Q3IconViewItem7compareEPS_@Base 4:4.5.3
 _ZNK14Q3IconViewItem7pictureEv@Base 4:4.5.3
 _ZNK14Q3IconViewItem8containsERK6QPoint@Base 4:4.5.3
 _ZNK14Q3IconViewItem8iconViewEv@Base 4:4.5.3
 _ZNK14Q3IconViewItem8nextItemEv@Base 4:4.5.3
 _ZNK14Q3IconViewItem8prevItemEv@Base 4:4.5.3
 _ZNK14Q3IconViewItem8tempTextEv@Base 4:4.5.3
 _ZNK14Q3IconViewItem8textRectEb@Base 4:4.5.3
 _ZNK14Q3ListViewItem10acceptDropEPK11QMimeSource@Base 4:4.5.3
 _ZNK14Q3ListViewItem10firstChildEv@Base 4:4.5.3
 _ZNK14Q3ListViewItem11dragEnabledEv@Base 4:4.5.3
 _ZNK14Q3ListViewItem11dropEnabledEv@Base 4:4.5.3
 _ZNK14Q3ListViewItem11totalHeightEv@Base 4:4.5.3
 _ZNK14Q3ListViewItem12widthChangedEi@Base 4:4.5.3
 _ZNK14Q3ListViewItem13renameEnabledEi@Base 4:4.5.3
 _ZNK14Q3ListViewItem16enforceSortOrderEv@Base 4:4.5.3
 _ZNK14Q3ListViewItem17multiLinesEnabledEv@Base 4:4.5.3
 _ZNK14Q3ListViewItem3keyEib@Base 4:4.5.3
 _ZNK14Q3ListViewItem4rttiEv@Base 4:4.5.3
 _ZNK14Q3ListViewItem4textEi@Base 4:4.5.3
 _ZNK14Q3ListViewItem5depthEv@Base 4:4.5.3
 _ZNK14Q3ListViewItem5widthERK12QFontMetricsPK10Q3ListViewi@Base 4:4.5.3
 _ZNK14Q3ListViewItem6heightEv@Base 4:4.5.3
 _ZNK14Q3ListViewItem6parentEv@Base 4:4.5.3
 _ZNK14Q3ListViewItem6pixmapEi@Base 4:4.5.3
 _ZNK14Q3ListViewItem7compareEPS_ib@Base 4:4.5.3
 _ZNK14Q3ListViewItem7itemPosEv@Base 4:4.5.3
 _ZNK14Q3ListViewItem7repaintEv@Base 4:4.5.3
 _ZNK14Q3ListViewItem8listViewEv@Base 4:4.5.3
 _ZNK14Q3ListViewItem9isEnabledEv@Base 4:4.5.3
 _ZNK14Q3ListViewItem9isVisibleEv@Base 4:4.5.3
 _ZNK14Q3ListViewItem9itemAboveEv@Base 4:4.5.3
 _ZNK14Q3ListViewItem9itemBelowEv@Base 4:4.5.3
 _ZNK14Q3RangeControl17positionFromValueEii@Base 4:4.5.3
 _ZNK14Q3RangeControl17valueFromPositionEii@Base 4:4.5.3
 _ZNK14Q3RangeControl5boundEi@Base 4:4.5.3
 _ZNK14Q3ServerSocket10metaObjectEv@Base 4:4.5.3
 _ZNK14Q3ServerSocket2okEv@Base 4:4.5.3
 _ZNK14Q3ServerSocket4portEv@Base 4:4.5.3
 _ZNK14Q3ServerSocket6socketEv@Base 4:4.5.3
 _ZNK14Q3ServerSocket7addressEv@Base 4:4.5.3
 _ZNK14Q3SocketDevice11getProtocolEv@Base 4:4.5.3
 _ZNK14Q3SocketDevice11peerAddressEv@Base 4:4.5.3
 _ZNK14Q3SocketDevice11waitForMoreEiPb@Base 4:4.5.3
 _ZNK14Q3SocketDevice14bytesAvailableEv@Base 4:4.5.3
 _ZNK14Q3SocketDevice14sendBufferSizeEv@Base 4:4.5.3
 _ZNK14Q3SocketDevice15addressReusableEv@Base 4:4.5.3
 _ZNK14Q3SocketDevice17receiveBufferSizeEv@Base 4:4.5.3
 _ZNK14Q3SocketDevice2atEv@Base 4:4.5.3
 _ZNK14Q3SocketDevice4portEv@Base 4:4.5.3
 _ZNK14Q3SocketDevice4sizeEv@Base 4:4.5.3
 _ZNK14Q3SocketDevice4typeEv@Base 4:4.5.3
 _ZNK14Q3SocketDevice5atEndEv@Base 4:4.5.3
 _ZNK14Q3SocketDevice5errorEv@Base 4:4.5.3
 _ZNK14Q3SocketDevice6optionENS_6OptionE@Base 4:4.5.3
 _ZNK14Q3SocketDevice6socketEv@Base 4:4.5.3
 _ZNK14Q3SocketDevice7addressEv@Base 4:4.5.3
 _ZNK14Q3SocketDevice7isValidEv@Base 4:4.5.3
 _ZNK14Q3SocketDevice8blockingEv@Base 4:4.5.3
 _ZNK14Q3SocketDevice8peerPortEv@Base 4:4.5.3
 _ZNK14Q3SocketDevice8protocolEv@Base 4:4.5.3
 _ZNK14Q3TextDocument10metaObjectEv@Base 4:4.5.3
 _ZNK14Q3TextDocument10textFormatEv@Base 4:4.5.3
 _ZNK14Q3TextDocument11inSelectionEiRK6QPoint@Base 4:4.5.3
 _ZNK14Q3TextDocument12hasSelectionEib@Base 4:4.5.3
 _ZNK14Q3TextDocument12selectedTextEib@Base 4:4.5.3
 _ZNK14Q3TextDocument17hasFocusParagraphEv@Base 4:4.5.3
 _ZNK14Q3TextDocument4textEi@Base 4:4.5.3
 _ZNK14Q3TextDocument4textEv@Base 4:4.5.3
 _ZNK14Q3TextDocument6heightEv@Base 4:4.5.3
 _ZNK14Q3TextDocument6lengthEv@Base 4:4.5.3
 _ZNK14Q3TextDocument7paragAtEi@Base 4:4.5.3
 _ZNK14Q3TextDocument8richTextEv@Base 4:4.5.3
 _ZNK14Q3TextDocument9focusHrefEv@Base 4:4.5.3
 _ZNK14Q3TextDocument9focusNameEv@Base 4:4.5.3
 _ZNK14Q3TextDocument9plainTextEv@Base 4:4.5.3
 _ZNK14Q3TextDocument9widthUsedEv@Base 4:4.5.3
 _ZNK14Q3VButtonGroup10metaObjectEv@Base 4:4.5.3
 _ZNK15Q3CanvasEllipse10areaPointsEv@Base 4:4.5.3
 _ZNK15Q3CanvasEllipse12collidesWithEPK12Q3CanvasItem@Base 4:4.5.3
 _ZNK15Q3CanvasEllipse12collidesWithEPK14Q3CanvasSpritePK21Q3CanvasPolygonalItemPK17Q3CanvasRectanglePKS_PK12Q3CanvasText@Base 4:4.5.3
 _ZNK15Q3CanvasEllipse4rttiEv@Base 4:4.5.3
 _ZNK15Q3CanvasEllipse5widthEv@Base 4:4.5.3
 _ZNK15Q3CanvasEllipse6heightEv@Base 4:4.5.3
 _ZNK15Q3CanvasPolygon10areaPointsEv@Base 4:4.5.3
 _ZNK15Q3CanvasPolygon4rttiEv@Base 4:4.5.3
 _ZNK15Q3CanvasPolygon6pointsEv@Base 4:4.5.3
 _ZNK15Q3CheckListItem10isTristateEv@Base 4:4.5.3
 _ZNK15Q3CheckListItem11storedStateEPS_@Base 4:4.5.3
 _ZNK15Q3CheckListItem13internalStateEv@Base 4:4.5.3
 _ZNK15Q3CheckListItem4rttiEv@Base 4:4.5.3
 _ZNK15Q3CheckListItem5stateEv@Base 4:4.5.3
 _ZNK15Q3CheckListItem5widthERK12QFontMetricsPK10Q3ListViewi@Base 4:4.5.3
 _ZNK15Q3ListBoxPixmap4rttiEv@Base 4:4.5.3
 _ZNK15Q3ListBoxPixmap5widthEPK9Q3ListBox@Base 4:4.5.3
 _ZNK15Q3ListBoxPixmap6heightEPK9Q3ListBox@Base 4:4.5.3
 _ZNK15Q3MultiLineEdit10lineLengthEi@Base 4:4.5.3
 _ZNK15Q3MultiLineEdit10markedTextEv@Base 4:4.5.3
 _ZNK15Q3MultiLineEdit10metaObjectEv@Base 4:4.5.3
 _ZNK15Q3MultiLineEdit11atBeginningEv@Base 4:4.5.3
 _ZNK15Q3MultiLineEdit11cursorPointEv@Base 4:4.5.3
 _ZNK15Q3MultiLineEdit13hasMarkedTextEv@Base 4:4.5.3
 _ZNK15Q3MultiLineEdit15getMarkedRegionEPiS0_S0_S0_@Base 4:4.5.3
 _ZNK15Q3MultiLineEdit5atEndEv@Base 4:4.5.3
 _ZNK15Q3MultiLineEdit6editedEv@Base 4:4.5.3
 _ZNK15Q3MultiLineEdit8numLinesEv@Base 4:4.5.3
 _ZNK15Q3MultiLineEdit8textLineEi@Base 4:4.5.3
 _ZNK15Q3MultiLineEdit9alignmentEv@Base 4:4.5.3
 _ZNK15Q3TextParagraph10leftMarginEv@Base 4:4.5.3
 _ZNK15Q3TextParagraph10lineHeightEi@Base 4:4.5.3
 _ZNK15Q3TextParagraph10selectionsEv@Base 4:4.5.3
 _ZNK15Q3TextParagraph11lineSpacingEv@Base 4:4.5.3
 _ZNK15Q3TextParagraph11rightMarginEv@Base 4:4.5.3
 _ZNK15Q3TextParagraph12bottomMarginEv@Base 4:4.5.3
 _ZNK15Q3TextParagraph12fullSelectedEi@Base 4:4.5.3
 _ZNK15Q3TextParagraph12hasSelectionEi@Base 4:4.5.3
 _ZNK15Q3TextParagraph12lineBaseLineEi@Base 4:4.5.3
 _ZNK15Q3TextParagraph12selectionEndEi@Base 4:4.5.3
 _ZNK15Q3TextParagraph13floatingItemsEv@Base 4:4.5.3
 _ZNK15Q3TextParagraph14selectionStartEi@Base 4:4.5.3
 _ZNK15Q3TextParagraph15firstLineMarginEv@Base 4:4.5.3
 _ZNK15Q3TextParagraph15lineStartOfCharEiPiS0_@Base 4:4.5.3
 _ZNK15Q3TextParagraph15lineStartOfLineEiPi@Base 4:4.5.3
 _ZNK15Q3TextParagraph16formatCollectionEv@Base 4:4.5.3
 _ZNK15Q3TextParagraph16lineHeightOfCharEiPiS0_@Base 4:4.5.3
 _ZNK15Q3TextParagraph21writeStyleInformationER11QDataStream@Base 4:4.5.3
 _ZNK15Q3TextParagraph5lineYEi@Base 4:4.5.3
 _ZNK15Q3TextParagraph5linesEv@Base 4:4.5.3
 _ZNK15Q3TextParagraph7leftGapEv@Base 4:4.5.3
 _ZNK15Q3TextParagraph8lineInfoEiRiS0_S0_@Base 4:4.5.3
 _ZNK15Q3TextParagraph8richTextEv@Base 4:4.5.3
 _ZNK15Q3TextParagraph8tabArrayEv@Base 4:4.5.3
 _ZNK15Q3TextParagraph9directionEv@Base 4:4.5.3
 _ZNK15Q3TextParagraph9formatterEv@Base 4:4.5.3
 _ZNK15Q3TextParagraph9topMarginEv@Base 4:4.5.3
 _ZNK15Q3TextTableCell11maximumSizeEv@Base 4:4.5.3
 _ZNK15Q3TextTableCell11minimumSizeEv@Base 4:4.5.3
 _ZNK15Q3TextTableCell14heightForWidthEi@Base 4:4.5.3
 _ZNK15Q3TextTableCell17hasHeightForWidthEv@Base 4:4.5.3
 _ZNK15Q3TextTableCell19expandingDirectionsEv@Base 4:4.5.3
 _ZNK15Q3TextTableCell23verticalAlignmentOffsetEv@Base 4:4.5.3
 _ZNK15Q3TextTableCell25horizontalAlignmentOffsetEv@Base 4:4.5.3
 _ZNK15Q3TextTableCell7isEmptyEv@Base 4:4.5.3
 _ZNK15Q3TextTableCell8geometryEv@Base 4:4.5.3
 _ZNK15Q3TextTableCell8sizeHintEv@Base 4:4.5.3
 _ZNK16Q3CanvasItemListplERKS_@Base 4:4.5.3
 _ZNK16Q3CheckTableItem12createEditorEv@Base 4:4.5.3
 _ZNK16Q3CheckTableItem4rttiEv@Base 4:4.5.3
 _ZNK16Q3CheckTableItem8sizeHintEv@Base 4:4.5.3
 _ZNK16Q3CheckTableItem9isCheckedEv@Base 4:4.5.3
 _ZNK16Q3ComboTableItem10isEditableEv@Base 4:4.5.3
 _ZNK16Q3ComboTableItem11currentItemEv@Base 4:4.5.3
 _ZNK16Q3ComboTableItem11currentTextEv@Base 4:4.5.3
 _ZNK16Q3ComboTableItem12createEditorEv@Base 4:4.5.3
 _ZNK16Q3ComboTableItem4rttiEv@Base 4:4.5.3
 _ZNK16Q3ComboTableItem4textEi@Base 4:4.5.3
 _ZNK16Q3ComboTableItem5countEv@Base 4:4.5.3
 _ZNK16Q3ComboTableItem8sizeHintEv@Base 4:4.5.3
 _ZNK16Q3DockAreaLayout10metaObjectEv@Base 4:4.5.3
 _ZNK16Q3DockAreaLayout11minimumSizeEv@Base 4:4.5.3
 _ZNK16Q3DockAreaLayout14heightForWidthEi@Base 4:4.5.3
 _ZNK16Q3DockAreaLayout14widthForHeightEi@Base 4:4.5.3
 _ZNK16Q3DockAreaLayout17hasHeightForWidthEv@Base 4:4.5.3
 _ZNK16Q3DockAreaLayout5countEv@Base 4:4.5.3
 _ZNK16Q3DockAreaLayout6itemAtEi@Base 4:4.5.3
 _ZNK16Q3DockAreaLayout8sizeHintEv@Base 4:4.5.3
 _ZNK16Q3GCacheIterator11getKeyAsciiEv@Base 4:4.5.3
 _ZNK16Q3GCacheIterator12getKeyStringEv@Base 4:4.5.3
 _ZNK16Q3GCacheIterator3getEv@Base 4:4.5.3
 _ZNK16Q3GCacheIterator5countEv@Base 4:4.5.3
 _ZNK16Q3GCacheIterator6atLastEv@Base 4:4.5.3
 _ZNK16Q3GCacheIterator7atFirstEv@Base 4:4.5.3
 _ZNK16Q3GCacheIterator9getKeyIntEv@Base 4:4.5.3
 _ZNK16Q3ProgressDialog10metaObjectEv@Base 4:4.5.3
 _ZNK16Q3ProgressDialog10totalStepsEv@Base 4:4.5.3
 _ZNK16Q3ProgressDialog11wasCanceledEv@Base 4:4.5.3
 _ZNK16Q3ProgressDialog12wasCancelledEv@Base 4:4.5.3
 _ZNK16Q3ProgressDialog15minimumDurationEv@Base 4:4.5.3
 _ZNK16Q3ProgressDialog3barEv@Base 4:4.5.3
 _ZNK16Q3ProgressDialog5labelEv@Base 4:4.5.3
 _ZNK16Q3ProgressDialog8progressEv@Base 4:4.5.3
 _ZNK16Q3ProgressDialog8sizeHintEv@Base 4:4.5.3
 _ZNK16Q3ProgressDialog9autoCloseEv@Base 4:4.5.3
 _ZNK16Q3ProgressDialog9autoResetEv@Base 4:4.5.3
 _ZNK16Q3ProgressDialog9labelTextEv@Base 4:4.5.3
 _ZNK16Q3SimpleRichText4drawEP8QPainteriiRK5QRectRK11QColorGroupPK6QBrush@Base 4:4.5.3
 _ZNK16Q3SimpleRichText5widthEv@Base 4:4.5.3
 _ZNK16Q3SimpleRichText6heightEv@Base 4:4.5.3
 _ZNK16Q3SimpleRichText6inTextERK6QPoint@Base 4:4.5.3
 _ZNK16Q3SimpleRichText7contextEv@Base 4:4.5.3
 _ZNK16Q3SimpleRichText8anchorAtERK6QPoint@Base 4:4.5.3
 _ZNK16Q3SimpleRichText9widthUsedEv@Base 4:4.5.3
 _ZNK16Q3StyleSheetItem10fontFamilyEv@Base 4:4.5.3
 _ZNK16Q3StyleSheetItem10fontItalicEv@Base 4:4.5.3
 _ZNK16Q3StyleSheetItem10fontWeightEv@Base 4:4.5.3
 _ZNK16Q3StyleSheetItem10styleSheetEv@Base 4:4.5.3
 _ZNK16Q3StyleSheetItem11displayModeEv@Base 4:4.5.3
 _ZNK16Q3StyleSheetItem11lineSpacingEv@Base 4:4.5.3
 _ZNK16Q3StyleSheetItem11selfNestingEv@Base 4:4.5.3
 _ZNK16Q3StyleSheetItem13fontStrikeOutEv@Base 4:4.5.3
 _ZNK16Q3StyleSheetItem13fontUnderlineEv@Base 4:4.5.3
 _ZNK16Q3StyleSheetItem14whiteSpaceModeEv@Base 4:4.5.3
 _ZNK16Q3StyleSheetItem15logicalFontSizeEv@Base 4:4.5.3
 _ZNK16Q3StyleSheetItem15numberOfColumnsEv@Base 4:4.5.3
 _ZNK16Q3StyleSheetItem16allowedInContextEPKS_@Base 4:4.5.3
 _ZNK16Q3StyleSheetItem17definesFontItalicEv@Base 4:4.5.3
 _ZNK16Q3StyleSheetItem17verticalAlignmentEv@Base 4:4.5.3
 _ZNK16Q3StyleSheetItem19logicalFontSizeStepEv@Base 4:4.5.3
 _ZNK16Q3StyleSheetItem20definesFontStrikeOutEv@Base 4:4.5.3
 _ZNK16Q3StyleSheetItem20definesFontUnderlineEv@Base 4:4.5.3
 _ZNK16Q3StyleSheetItem4nameEv@Base 4:4.5.3
 _ZNK16Q3StyleSheetItem5colorEv@Base 4:4.5.3
 _ZNK16Q3StyleSheetItem6marginENS_6MarginE@Base 4:4.5.3
 _ZNK16Q3StyleSheetItem8contextsEv@Base 4:4.5.3
 _ZNK16Q3StyleSheetItem8fontSizeEv@Base 4:4.5.3
 _ZNK16Q3StyleSheetItem8isAnchorEv@Base 4:4.5.3
 _ZNK16Q3StyleSheetItem9alignmentEv@Base 4:4.5.3
 _ZNK16Q3StyleSheetItem9listStyleEv@Base 4:4.5.3
 _ZNK16Q3TableSelection7numColsEv@Base 4:4.5.3
 _ZNK16Q3TableSelection7numRowsEv@Base 4:4.5.3
 _ZNK16Q3TableSelectioneqERKS_@Base 4:4.5.3
 _ZNK16Q3TextCustomItem12minimumWidthEv@Base 4:4.5.3
 _ZNK16Q3TextCustomItem7ownLineEv@Base 4:4.5.3
 _ZNK16Q3TextCustomItem8isNestedEv@Base 4:4.5.3
 _ZNK16Q3TextCustomItem8richTextEv@Base 4:4.5.3
 _ZNK16Q3TextCustomItem9placementEv@Base 4:4.5.3
 _ZNK16Q3TextStringChar10anchorHrefEv@Base 4:4.5.3
 _ZNK16Q3TextStringChar10anchorNameEv@Base 4:4.5.3
 _ZNK17Q3CanvasRectangle10areaPointsEv@Base 4:4.5.3
 _ZNK17Q3CanvasRectangle12collidesWithEPK12Q3CanvasItem@Base 4:4.5.3
 _ZNK17Q3CanvasRectangle12collidesWithEPK14Q3CanvasSpritePK21Q3CanvasPolygonalItemPKS_PK15Q3CanvasEllipsePK12Q3CanvasText@Base 4:4.5.3
 _ZNK17Q3CanvasRectangle4rttiEv@Base 4:4.5.3
 _ZNK17Q3CanvasRectangle5widthEv@Base 4:4.5.3
 _ZNK17Q3CanvasRectangle6chunksEv@Base 4:4.5.3
 _ZNK17Q3CanvasRectangle6heightEv@Base 4:4.5.3
 _ZNK17Q3NetworkProtocol10autoDeleteEv@Base 4:4.5.3
 _ZNK17Q3NetworkProtocol10metaObjectEv@Base 4:4.5.3
 _ZNK17Q3NetworkProtocol19operationInProgressEv@Base 4:4.5.3
 _ZNK17Q3NetworkProtocol19supportedOperationsEv@Base 4:4.5.3
 _ZNK17Q3NetworkProtocol3urlEv@Base 4:4.5.3
 _ZNK18Q3DateTimeEditBase10metaObjectEv@Base 4:4.5.3
 _ZNK18Q3FileIconProvider10metaObjectEv@Base 4:4.5.3
 _ZNK18Q3IconDragDataItemeqERKS_@Base 4:4.5.3
 _ZNK18Q3NetworkOperation10metaObjectEv@Base 4:4.5.3
 _ZNK18Q3NetworkOperation14protocolDetailEv@Base 4:4.5.3
 _ZNK18Q3NetworkOperation3argEi@Base 4:4.5.3
 _ZNK18Q3NetworkOperation3rawEi@Base 4:4.5.3
 _ZNK18Q3NetworkOperation5stateEv@Base 4:4.5.3
 _ZNK18Q3NetworkOperation6rawArgEi@Base 4:4.5.3
 _ZNK18Q3NetworkOperation9errorCodeEv@Base 4:4.5.3
 _ZNK18Q3NetworkOperation9operationEv@Base 4:4.5.3
 _ZNK18Q3SqlCursorManager10autoDeleteEv@Base 4:4.5.3
 _ZNK18Q3SqlCursorManager4sortEv@Base 4:4.5.3
 _ZNK18Q3SqlCursorManager6cursorEv@Base 4:4.5.3
 _ZNK18Q3SqlCursorManager6filterEv@Base 4:4.5.3
 _ZNK19Q3CanvasPixmapArray7isValidEv@Base 4:4.5.3
 _ZNK19Q3HttpRequestHeader12majorVersionEv@Base 4:4.5.3
 _ZNK19Q3HttpRequestHeader12minorVersionEv@Base 4:4.5.3
 _ZNK19Q3HttpRequestHeader4pathEv@Base 4:4.5.3
 _ZNK19Q3HttpRequestHeader6methodEv@Base 4:4.5.3
 _ZNK19Q3HttpRequestHeader8toStringEv@Base 4:4.5.3
 _ZNK19Q3MimeSourceFactory12dataInternalERK7QStringRK4QMapIS0_S0_E@Base 4:4.5.3
 _ZNK19Q3MimeSourceFactory12makeAbsoluteERK7QStringS2_@Base 4:4.5.3
 _ZNK19Q3MimeSourceFactory4dataERK7QString@Base 4:4.5.3
 _ZNK19Q3MimeSourceFactory4dataERK7QStringS2_@Base 4:4.5.3
 _ZNK19Q3MimeSourceFactory8filePathEv@Base 4:4.5.3
 _ZNK19Q3SyntaxHighlighter16currentParagraphEv@Base 4:4.5.3
 _ZNK20Q3HttpResponseHeader10statusCodeEv@Base 4:4.5.3
 _ZNK20Q3HttpResponseHeader12majorVersionEv@Base 4:4.5.3
 _ZNK20Q3HttpResponseHeader12minorVersionEv@Base 4:4.5.3
 _ZNK20Q3HttpResponseHeader12reasonPhraseEv@Base 4:4.5.3
 _ZNK20Q3HttpResponseHeader8toStringEv@Base 4:4.5.3
 _ZNK20Q3TextHorizontalLine8richTextEv@Base 4:4.5.3
 _ZNK21Q3CanvasPolygonalItem11scanPolygonERK12Q3PointArrayiR19QPolygonalProcessor@Base 4:4.5.3
 _ZNK21Q3CanvasPolygonalItem12boundingRectEv@Base 4:4.5.3
 _ZNK21Q3CanvasPolygonalItem12collidesWithEPK12Q3CanvasItem@Base 4:4.5.3
 _ZNK21Q3CanvasPolygonalItem12collidesWithEPK14Q3CanvasSpritePKS_PK17Q3CanvasRectanglePK15Q3CanvasEllipsePK12Q3CanvasText@Base 4:4.5.3
 _ZNK21Q3CanvasPolygonalItem18areaPointsAdvancedEv@Base 4:4.5.3
 _ZNK21Q3CanvasPolygonalItem4rttiEv@Base 4:4.5.3
 _ZNK21Q3CanvasPolygonalItem6chunksEv@Base 4:4.5.3
 _ZNK21Q3CanvasPolygonalItem7windingEv@Base 4:4.5.3
 _ZNK22Q3ListViewItemIterator12matchesFlagsEPK14Q3ListViewItem@Base 4:4.5.3
 _ZNK22Q3ListViewItemIterator7currentEv@Base 4:4.5.3
 _ZNK22Q3ListViewItemIterator9isCheckedEPK14Q3ListViewItem@Base 4:4.5.3
 _ZNK5Q3Dns10metaObjectEv@Base 4:4.5.3
 _ZNK5Q3Dns11mailServersEv@Base 4:4.5.3
 _ZNK5Q3Dns13canonicalNameEv@Base 4:4.5.3
 _ZNK5Q3Dns5textsEv@Base 4:4.5.3
 _ZNK5Q3Dns7serversEv@Base 4:4.5.3
 _ZNK5Q3Dns9addressesEv@Base 4:4.5.3
 _ZNK5Q3Dns9hostNamesEv@Base 4:4.5.3
 _ZNK5Q3Dns9isWorkingEv@Base 4:4.5.3
 _ZNK5Q3Ftp10metaObjectEv@Base 4:4.5.3
 _ZNK5Q3Ftp11errorStringEv@Base 4:4.5.3
 _ZNK5Q3Ftp13currentDeviceEv@Base 4:4.5.3
 _ZNK5Q3Ftp14bytesAvailableEv@Base 4:4.5.3
 _ZNK5Q3Ftp14currentCommandEv@Base 4:4.5.3
 _ZNK5Q3Ftp18hasPendingCommandsEv@Base 4:4.5.3
 _ZNK5Q3Ftp19supportedOperationsEv@Base 4:4.5.3
 _ZNK5Q3Ftp5errorEv@Base 4:4.5.3
 _ZNK5Q3Ftp5stateEv@Base 4:4.5.3
 _ZNK5Q3Ftp9currentIdEv@Base 4:4.5.3
 _ZNK5Q3Url11hasPasswordEv@Base 4:4.5.3
 _ZNK5Q3Url11isLocalFileEv@Base 4:4.5.3
 _ZNK5Q3Url3refEv@Base 4:4.5.3
 _ZNK5Q3Url4hostEv@Base 4:4.5.3
 _ZNK5Q3Url4pathEb@Base 4:4.5.3
 _ZNK5Q3Url4portEv@Base 4:4.5.3
 _ZNK5Q3Url4userEv@Base 4:4.5.3
 _ZNK5Q3Url5queryEv@Base 4:4.5.3
 _ZNK5Q3Url6hasRefEv@Base 4:4.5.3
 _ZNK5Q3Url7dirPathEv@Base 4:4.5.3
 _ZNK5Q3Url7hasHostEv@Base 4:4.5.3
 _ZNK5Q3Url7hasPathEv@Base 4:4.5.3
 _ZNK5Q3Url7hasPortEv@Base 4:4.5.3
 _ZNK5Q3Url7hasUserEv@Base 4:4.5.3
 _ZNK5Q3Url7isValidEv@Base 4:4.5.3
 _ZNK5Q3Url8fileNameEv@Base 4:4.5.3
 _ZNK5Q3Url8passwordEv@Base 4:4.5.3
 _ZNK5Q3Url8protocolEv@Base 4:4.5.3
 _ZNK5Q3Url8toStringEbb@Base 4:4.5.3
 _ZNK5Q3Urlcv7QStringEv@Base 4:4.5.3
 _ZNK5Q3UrleqERK7QString@Base 4:4.5.3
 _ZNK5Q3UrleqERKS_@Base 4:4.5.3
 _ZNK6Q3Grid10metaObjectEv@Base 4:4.5.3
 _ZNK6Q3Grid8sizeHintEv@Base 4:4.5.3
 _ZNK6Q3HBox10metaObjectEv@Base 4:4.5.3
 _ZNK6Q3HBox8sizeHintEv@Base 4:4.5.3
 _ZNK6Q3Http10metaObjectEv@Base 4:4.5.3
 _ZNK6Q3Http11errorStringEv@Base 4:4.5.3
 _ZNK6Q3Http14bytesAvailableEv@Base 4:4.5.3
 _ZNK6Q3Http14currentRequestEv@Base 4:4.5.3
 _ZNK6Q3Http18hasPendingRequestsEv@Base 4:4.5.3
 _ZNK6Q3Http19currentSourceDeviceEv@Base 4:4.5.3
 _ZNK6Q3Http19supportedOperationsEv@Base 4:4.5.3
 _ZNK6Q3Http24currentDestinationDeviceEv@Base 4:4.5.3
 _ZNK6Q3Http5errorEv@Base 4:4.5.3
 _ZNK6Q3Http5stateEv@Base 4:4.5.3
 _ZNK6Q3Http9currentIdEv@Base 4:4.5.3
 _ZNK6Q3VBox10metaObjectEv@Base 4:4.5.3
 _ZNK7Q3Accel10metaObjectEv@Base 4:4.5.3
 _ZNK7Q3Accel13isItemEnabledEi@Base 4:4.5.3
 _ZNK7Q3Accel15ignoreWhatsThisEv@Base 4:4.5.3
 _ZNK7Q3Accel5countEv@Base 4:4.5.3
 _ZNK7Q3Accel7findKeyERK12QKeySequence@Base 4:4.5.3
 _ZNK7Q3Accel9isEnabledEv@Base 4:4.5.3
 _ZNK7Q3Accel9whatsThisEi@Base 4:4.5.3
 _ZNK7Q3Frame10frameWidthEv@Base 4:4.5.3
 _ZNK7Q3Frame10metaObjectEv@Base 4:4.5.3
 _ZNK7Q3Frame12contentsRectEv@Base 4:4.5.3
 _ZNK7Q3GDict10statisticsEv@Base 4:4.5.3
 _ZNK7Q3GDict5writeER11QDataStream@Base 4:4.5.3
 _ZNK7Q3GDict5writeER11QDataStreamPv@Base 4:4.5.3
 _ZNK7Q3GList11containsRefEPv@Base 4:4.5.3
 _ZNK7Q3GList5countEv@Base 4:4.5.3
 _ZNK7Q3GList5writeER11QDataStream@Base 4:4.5.3
 _ZNK7Q3GList5writeER11QDataStreamPv@Base 4:4.5.3
 _ZNK7Q3GList8containsEPv@Base 4:4.5.3
 _ZNK7Q3GList8toVectorEP9Q3GVector@Base 4:4.5.3
 _ZNK7Q3GListeqERKS_@Base 4:4.5.3
 _ZNK7Q3Table10cellWidgetEii@Base 4:4.5.3
 _ZNK7Q3Table10focusStyleEv@Base 4:4.5.3
 _ZNK7Q3Table10isReadOnlyEv@Base 4:4.5.3
 _ZNK7Q3Table10isSelectedEii@Base 4:4.5.3
 _ZNK7Q3Table10isSelectedEiib@Base 4:4.5.3
 _ZNK7Q3Table10metaObjectEv@Base 4:4.5.3
 _ZNK7Q3Table11columnWidthEi@Base 4:4.5.3
 _ZNK7Q3Table11currEditColEv@Base 4:4.5.3
 _ZNK7Q3Table11currEditRowEv@Base 4:4.5.3
 _ZNK7Q3Table11dragEnabledEv@Base 4:4.5.3
 _ZNK7Q3Table11isRowHiddenEi@Base 4:4.5.3
 _ZNK7Q3Table12cellGeometryEii@Base 4:4.5.3
 _ZNK7Q3Table12createEditorEiib@Base 4:4.5.3
 _ZNK7Q3Table13isRowReadOnlyEi@Base 4:4.5.3
 _ZNK7Q3Table13isRowSelectedEib@Base 4:4.5.3
 _ZNK7Q3Table13numSelectionsEv@Base 4:4.5.3
 _ZNK7Q3Table13selectionModeEv@Base 4:4.5.3
 _ZNK7Q3Table14isColumnHiddenEi@Base 4:4.5.3
 _ZNK7Q3Table14verticalHeaderEv@Base 4:4.5.3
 _ZNK7Q3Table16currentSelectionEv@Base 4:4.5.3
 _ZNK7Q3Table16horizontalHeaderEv@Base 4:4.5.3
 _ZNK7Q3Table16inputMethodQueryEN2Qt16InputMethodQueryE@Base 4:4.5.3
 _ZNK7Q3Table16isColumnReadOnlyEi@Base 4:4.5.3
 _ZNK7Q3Table16isColumnSelectedEib@Base 4:4.5.3
 _ZNK7Q3Table16isRowStretchableEi@Base 4:4.5.3
 _ZNK7Q3Table16rowMovingEnabledEv@Base 4:4.5.3
 _ZNK7Q3Table19columnMovingEnabledEv@Base 4:4.5.3
 _ZNK7Q3Table19isColumnStretchableEi@Base 4:4.5.3
 _ZNK7Q3Table4itemEii@Base 4:4.5.3
 _ZNK7Q3Table4textEii@Base 4:4.5.3
 _ZNK7Q3Table5rowAtEi@Base 4:4.5.3
 _ZNK7Q3Table6pixmapEii@Base 4:4.5.3
 _ZNK7Q3Table6rowPosEi@Base 4:4.5.3
 _ZNK7Q3Table7indexOfEii@Base 4:4.5.3
 _ZNK7Q3Table7numColsEv@Base 4:4.5.3
 _ZNK7Q3Table7numRowsEv@Base 4:4.5.3
 _ZNK7Q3Table7sortingEv@Base 4:4.5.3
 _ZNK7Q3Table8cellRectEii@Base 4:4.5.3
 _ZNK7Q3Table8columnAtEi@Base 4:4.5.3
 _ZNK7Q3Table8editModeEv@Base 4:4.5.3
 _ZNK7Q3Table8showGridEv@Base 4:4.5.3
 _ZNK7Q3Table8sizeHintEv@Base 4:4.5.3
 _ZNK7Q3Table9columnPosEi@Base 4:4.5.3
 _ZNK7Q3Table9isEditingEv@Base 4:4.5.3
 _ZNK7Q3Table9rowHeightEi@Base 4:4.5.3
 _ZNK7Q3Table9selectionEi@Base 4:4.5.3
 _ZNK7Q3Table9tableSizeEv@Base 4:4.5.3
 _ZNK8Q3Action10metaObjectEv@Base 4:4.5.3
 _ZNK8Q3Action14isToggleActionEv@Base 4:4.5.3
 _ZNK8Q3Action4isOnEv@Base 4:4.5.3
 _ZNK8Q3Action4textEv@Base 4:4.5.3
 _ZNK8Q3Action5accelEv@Base 4:4.5.3
 _ZNK8Q3Action7iconSetEv@Base 4:4.5.3
 _ZNK8Q3Action7toolTipEv@Base 4:4.5.3
 _ZNK8Q3Action8menuTextEv@Base 4:4.5.3
 _ZNK8Q3Action9isEnabledEv@Base 4:4.5.3
 _ZNK8Q3Action9isVisibleEv@Base 4:4.5.3
 _ZNK8Q3Action9statusTipEv@Base 4:4.5.3
 _ZNK8Q3Action9whatsThisEv@Base 4:4.5.3
 _ZNK8Q3Button10metaObjectEv@Base 4:4.5.3
 _ZNK8Q3Canvas10collisionsERK12Q3PointArrayPK12Q3CanvasItemb@Base 4:4.5.3
 _ZNK8Q3Canvas10collisionsERK5QRect@Base 4:4.5.3
 _ZNK8Q3Canvas10collisionsERK6QPoint@Base 4:4.5.3
 _ZNK8Q3Canvas10metaObjectEv@Base 4:4.5.3
 _ZNK8Q3Canvas15backgroundColorEv@Base 4:4.5.3
 _ZNK8Q3Canvas15chunkContainingEii@Base 4:4.5.3
 _ZNK8Q3Canvas16backgroundPixmapEv@Base 4:4.5.3
 _ZNK8Q3Canvas5chunkEii@Base 4:4.5.3
 _ZNK8Q3GArray4findEPKcjj@Base 4:4.5.3
 _ZNK8Q3GArray7bsearchEPKcj@Base 4:4.5.3
 _ZNK8Q3GArray7isEqualERKS_@Base 4:4.5.3
 _ZNK8Q3GArray8containsEPKcj@Base 4:4.5.3
 _ZNK8Q3GCache10find_otherEPKcb@Base 4:4.5.3
 _ZNK8Q3GCache10statisticsEv@Base 4:4.5.3
 _ZNK8Q3GCache11find_stringERK7QStringb@Base 4:4.5.3
 _ZNK8Q3GCache4sizeEv@Base 4:4.5.3
 _ZNK8Q3GCache5countEv@Base 4:4.5.3
 _ZNK8Q3Header10mapToIndexEi@Base 4:4.5.3
 _ZNK8Q3Header10metaObjectEv@Base 4:4.5.3
 _ZNK8Q3Header10sectionPosEi@Base 4:4.5.3
 _ZNK8Q3Header11headerWidthEv@Base 4:4.5.3
 _ZNK8Q3Header11mapToActualEi@Base 4:4.5.3
 _ZNK8Q3Header11sectionRectEi@Base 4:4.5.3
 _ZNK8Q3Header11sectionSizeEi@Base 4:4.5.3
 _ZNK8Q3Header12mapToLogicalEi@Base 4:4.5.3
 _ZNK8Q3Header12mapToSectionEi@Base 4:4.5.3
 _ZNK8Q3Header14isClickEnabledEi@Base 4:4.5.3
 _ZNK8Q3Header15isMovingEnabledEv@Base 4:4.5.3
 _ZNK8Q3Header15isResizeEnabledEi@Base 4:4.5.3
 _ZNK8Q3Header15sectionSizeHintEiRK12QFontMetrics@Base 4:4.5.3
 _ZNK8Q3Header16isStretchEnabledEi@Base 4:4.5.3
 _ZNK8Q3Header16isStretchEnabledEv@Base 4:4.5.3
 _ZNK8Q3Header18sortIndicatorOrderEv@Base 4:4.5.3
 _ZNK8Q3Header20sortIndicatorSectionEv@Base 4:4.5.3
 _ZNK8Q3Header4pPosEi@Base 4:4.5.3
 _ZNK8Q3Header5countEv@Base 4:4.5.3
 _ZNK8Q3Header5labelEi@Base 4:4.5.3
 _ZNK8Q3Header5pSizeEi@Base 4:4.5.3
 _ZNK8Q3Header6offsetEv@Base 4:4.5.3
 _ZNK8Q3Header7cellPosEi@Base 4:4.5.3
 _ZNK8Q3Header7iconSetEi@Base 4:4.5.3
 _ZNK8Q3Header7reverseEv@Base 4:4.5.3
 _ZNK8Q3Header8sizeHintEv@Base 4:4.5.3
 _ZNK8Q3Header9sectionAtEi@Base 4:4.5.3
 _ZNK8Q3Signal10metaObjectEv@Base 4:4.5.3
 _ZNK8Q3Signal5valueEv@Base 4:4.5.3
 _ZNK8Q3Signal9parameterEv@Base 4:4.5.3
 _ZNK8Q3Socket10metaObjectEv@Base 4:4.5.3
 _ZNK8Q3Socket11canReadLineEv@Base 4:4.5.3
 _ZNK8Q3Socket11peerAddressEv@Base 4:4.5.3
 _ZNK8Q3Socket11waitForMoreEi@Base 4:4.5.3
 _ZNK8Q3Socket11waitForMoreEiPb@Base 4:4.5.3
 _ZNK8Q3Socket12bytesToWriteEv@Base 4:4.5.3
 _ZNK8Q3Socket14bytesAvailableEv@Base 4:4.5.3
 _ZNK8Q3Socket14readBufferSizeEv@Base 4:4.5.3
 _ZNK8Q3Socket2atEv@Base 4:4.5.3
 _ZNK8Q3Socket4portEv@Base 4:4.5.3
 _ZNK8Q3Socket4sizeEv@Base 4:4.5.3
 _ZNK8Q3Socket5atEndEv@Base 4:4.5.3
 _ZNK8Q3Socket5stateEv@Base 4:4.5.3
 _ZNK8Q3Socket6socketEv@Base 4:4.5.3
 _ZNK8Q3Socket7addressEv@Base 4:4.5.3
 _ZNK8Q3Socket8peerNameEv@Base 4:4.5.3
 _ZNK8Q3Socket8peerPortEv@Base 4:4.5.3
 _ZNK8Q3Wizard10backButtonEv@Base 4:4.5.3
 _ZNK8Q3Wizard10helpButtonEv@Base 4:4.5.3
 _ZNK8Q3Wizard10metaObjectEv@Base 4:4.5.3
 _ZNK8Q3Wizard10nextButtonEv@Base 4:4.5.3
 _ZNK8Q3Wizard11appropriateEP7QWidget@Base 4:4.5.3
 _ZNK8Q3Wizard11currentPageEv@Base 4:4.5.3
 _ZNK8Q3Wizard12cancelButtonEv@Base 4:4.5.3
 _ZNK8Q3Wizard12finishButtonEv@Base 4:4.5.3
 _ZNK8Q3Wizard4pageEi@Base 4:4.5.3
 _ZNK8Q3Wizard5titleEP7QWidget@Base 4:4.5.3
 _ZNK8Q3Wizard7indexOfEP7QWidget@Base 4:4.5.3
 _ZNK8Q3Wizard9pageCountEv@Base 4:4.5.3
 _ZNK8Q3Wizard9titleFontEv@Base 4:4.5.3
 _ZNK9Q3CString11leftJustifyEjcb@Base 4:4.5.3
 _ZNK9Q3CString12rightJustifyEjcb@Base 4:4.5.3
 _ZNK9Q3CString5toIntEPb@Base 4:4.5.3
 _ZNK9Q3CString6toLongEPb@Base 4:4.5.3
 _ZNK9Q3CString6toUIntEPb@Base 4:4.5.3
 _ZNK9Q3CString7toFloatEPb@Base 4:4.5.3
 _ZNK9Q3CString7toShortEPb@Base 4:4.5.3
 _ZNK9Q3CString7toULongEPb@Base 4:4.5.3
 _ZNK9Q3CString8toDoubleEPb@Base 4:4.5.3
 _ZNK9Q3CString8toUShortEPb@Base 4:4.5.3
 _ZNK9Q3GVector11containsRefEPv@Base 4:4.5.3
 _ZNK9Q3GVector4findEPvj@Base 4:4.5.3
 _ZNK9Q3GVector5writeER11QDataStream@Base 4:4.5.3
 _ZNK9Q3GVector5writeER11QDataStreamPv@Base 4:4.5.3
 _ZNK9Q3GVector6toListEP7Q3GList@Base 4:4.5.3
 _ZNK9Q3GVector7bsearchEPv@Base 4:4.5.3
 _ZNK9Q3GVector7findRefEPvj@Base 4:4.5.3
 _ZNK9Q3GVector8containsEPv@Base 4:4.5.3
 _ZNK9Q3GVectoreqERKS_@Base 4:4.5.3
 _ZNK9Q3ListBox10columnModeEv@Base 4:4.5.3
 _ZNK9Q3ListBox10currentRowEv@Base 4:4.5.3
 _ZNK9Q3ListBox10isSelectedEPK13Q3ListBoxItem@Base 4:4.5.3
 _ZNK9Q3ListBox10isSelectedEi@Base 4:4.5.3
 _ZNK9Q3ListBox10itemHeightEi@Base 4:4.5.3
 _ZNK9Q3ListBox10metaObjectEv@Base 4:4.5.3
 _ZNK9Q3ListBox10numColumnsEv@Base 4:4.5.3
 _ZNK9Q3ListBox11currentItemEv@Base 4:4.5.3
 _ZNK9Q3ListBox11tryGeometryEii@Base 4:4.5.3
 _ZNK9Q3ListBox12maxItemWidthEv@Base 4:4.5.3
 _ZNK9Q3ListBox12selectedItemEv@Base 4:4.5.3
 _ZNK9Q3ListBox13currentColumnEv@Base 4:4.5.3
 _ZNK9Q3ListBox13selectionModeEv@Base 4:4.5.3
 _ZNK9Q3ListBox13variableWidthEv@Base 4:4.5.3
 _ZNK9Q3ListBox14variableHeightEv@Base 4:4.5.3
 _ZNK9Q3ListBox15minimumSizeHintEv@Base 4:4.5.3
 _ZNK9Q3ListBox15numItemsVisibleEv@Base 4:4.5.3
 _ZNK9Q3ListBox16inputMethodQueryEN2Qt16InputMethodQueryE@Base 4:4.5.3
 _ZNK9Q3ListBox16isMultiSelectionEv@Base 4:4.5.3
 _ZNK9Q3ListBox17isRubberSelectingEv@Base 4:4.5.3
 _ZNK9Q3ListBox4itemEi@Base 4:4.5.3
 _ZNK9Q3ListBox4textEi@Base 4:4.5.3
 _ZNK9Q3ListBox5countEv@Base 4:4.5.3
 _ZNK9Q3ListBox5indexEPK13Q3ListBoxItem@Base 4:4.5.3
 _ZNK9Q3ListBox5rowAtEi@Base 4:4.5.3
 _ZNK9Q3ListBox6itemAtERK6QPoint@Base 4:4.5.3
 _ZNK9Q3ListBox6pixmapEi@Base 4:4.5.3
 _ZNK9Q3ListBox7numRowsEv@Base 4:4.5.3
 _ZNK9Q3ListBox7rowModeEv@Base 4:4.5.3
 _ZNK9Q3ListBox7topItemEv@Base 4:4.5.3
 _ZNK9Q3ListBox8columnAtEi@Base 4:4.5.3
 _ZNK9Q3ListBox8doLayoutEv@Base 4:4.5.3
 _ZNK9Q3ListBox8findItemERK7QStringj@Base 4:4.5.3
 _ZNK9Q3ListBox8itemRectEP13Q3ListBoxItem@Base 4:4.5.3
 _ZNK9Q3ListBox8sizeHintEv@Base 4:4.5.3
 _ZNK9Q3ListBox9firstItemEv@Base 4:4.5.3
 _ZNK9Q3LocalFs10metaObjectEv@Base 4:4.5.3
 _ZNK9Q3LocalFs13calcBlockSizeEi@Base 4:4.5.3
 _ZNK9Q3LocalFs19supportedOperationsEv@Base 4:4.5.3
 _ZNK9Q3Process10exitStatusEv@Base 4:4.5.3
 _ZNK9Q3Process10metaObjectEv@Base 4:4.5.3
 _ZNK9Q3Process10normalExitEv@Base 4:4.5.3
 _ZNK9Q3Process12tryTerminateEv@Base 4:4.5.3
 _ZNK9Q3Process13communicationEv@Base 4:4.5.3
 _ZNK9Q3Process16workingDirectoryEv@Base 4:4.5.3
 _ZNK9Q3Process17canReadLineStderrEv@Base 4:4.5.3
 _ZNK9Q3Process17canReadLineStdoutEv@Base 4:4.5.3
 _ZNK9Q3Process4killEv@Base 4:4.5.3
 _ZNK9Q3Process9argumentsEv@Base 4:4.5.3
 _ZNK9Q3Process9isRunningEv@Base 4:4.5.3
 _ZNK9Q3SqlForm10metaObjectEv@Base 4:4.5.3
 _ZNK9Q3SqlForm13fieldToWidgetEP9QSqlField@Base 4:4.5.3
 _ZNK9Q3SqlForm13widgetToFieldEP7QWidget@Base 4:4.5.3
 _ZNK9Q3SqlForm5countEv@Base 4:4.5.3
 _ZNK9Q3SqlForm6widgetEi@Base 4:4.5.3
 _ZNK9Q3ToolBar10mainWindowEv@Base 4:4.5.3
 _ZNK9Q3ToolBar10metaObjectEv@Base 4:4.5.3
 _ZNK9Q3ToolBar11minimumSizeEv@Base 4:4.5.3
 _ZNK9Q3ToolBar15minimumSizeHintEv@Base 4:4.5.3
 _ZNK9Q3ToolBar5labelEv@Base 4:4.5.3
 _ZNK9Q3UriDrag10metaObjectEv@Base 4:4.5.3
 _ZTI10Q3ComboBox@Base 4:4.5.3
 _ZTI10Q3DataView@Base 4:4.5.3
 _ZTI10Q3DateEdit@Base 4:4.5.3
 _ZTI10Q3DockArea@Base 4:4.5.3
 _ZTI10Q3DropSite@Base 4:4.5.3
 _ZTI10Q3GridView@Base 4:4.5.3
 _ZTI10Q3GroupBox@Base 4:4.5.3
 _ZTI10Q3IconDrag@Base 4:4.5.3
 _ZTI10Q3IconView@Base 4:4.5.3
 _ZTI10Q3ListView@Base 4:4.5.3
 _ZTI10Q3TextDrag@Base 4:4.5.3
 _ZTI10Q3TextEdit@Base 4:4.5.3
 _ZTI10Q3TextFlow@Base 4:4.5.3
 _ZTI10Q3TextView@Base 4:4.5.3
 _ZTI10Q3TimeEdit@Base 4:4.5.3
 _ZTI10Q3TitleBar@Base 4:4.5.3
 _ZTI10QSqlRecord@Base 4:4.5.3
 _ZTI11Q3ColorDrag@Base 4:4.5.3
 _ZTI11Q3DataTable@Base 4:4.5.3
 _ZTI11Q3HGroupBox@Base 4:4.5.3
 _ZTI11Q3ImageDrag@Base 4:4.5.3
 _ZTI11Q3PopupMenu@Base 4:4.5.3
 _ZTI11Q3Semaphore@Base 4:4.5.3
 _ZTI11Q3SqlCursor@Base 4:4.5.3
 _ZTI11Q3TabDialog@Base 4:4.5.3
 _ZTI11Q3TableItem@Base 4:4.5.3
 _ZTI11Q3TextImage@Base 4:4.5.3
 _ZTI11Q3TextTable@Base 4:4.5.3
 _ZTI11Q3VGroupBox@Base 4:4.5.3
 _ZTI11Q3WhatsThis@Base 4:4.5.3
 _ZTI12Q3CanvasItem@Base 4:4.5.3
 _ZTI12Q3CanvasLine@Base 4:4.5.3
 _ZTI12Q3CanvasText@Base 4:4.5.3
 _ZTI12Q3CanvasView@Base 4:4.5.3
 _ZTI12Q3DockWindow@Base 4:4.5.3
 _ZTI12Q3DragObject@Base 4:4.5.3
 _ZTI12Q3FileDialog@Base 4:4.5.3
 _ZTI12Q3HttpHeader@Base 4:4.5.3
 _ZTI12Q3MainWindow@Base 4:4.5.3
 _ZTI12Q3ScrollView@Base 4:4.5.3
 _ZTI12Q3SpinWidget@Base 4:4.5.3
 _ZTI12Q3StoredDrag@Base 4:4.5.3
 _ZTI12Q3StyleSheet@Base 4:4.5.3
 _ZTI12Q3TextCursor@Base 4:4.5.3
 _ZTI12Q3TextFormat@Base 4:4.5.3
 _ZTI12Q3TextIndent@Base 4:4.5.3
 _ZTI12Q3TextStream@Base 4:4.5.3
 _ZTI12Q3TextString@Base 4:4.5.3
 (arch=!armel !armhf)_ZTI12QDashStroker@Base 4:4.5.3
 _ZTI13Q3ActionGroup@Base 4:4.5.3
 _ZTI13Q3ButtonGroup@Base 4:4.5.3
 _ZTI13Q3DataBrowser@Base 4:4.5.3
 _ZTI13Q3DataManager@Base 4:4.5.3
 _ZTI13Q3FilePreview@Base 4:4.5.3
 _ZTI13Q3ListBoxItem@Base 4:4.5.3
 _ZTI13Q3ListBoxText@Base 4:4.5.3
 _ZTI13Q3ProgressBar@Base 4:4.5.3
 _ZTI13Q3TableHeader@Base 4:4.5.3
 _ZTI13Q3TextBrowser@Base 4:4.5.3
 _ZTI13Q3TextCommand@Base 4:4.5.3
 _ZTI13Q3UrlOperator@Base 4:4.5.3
 _ZTI13Q3WidgetStack@Base 4:4.5.3
 _ZTI14Q3CanvasPixmap@Base 4:4.5.3
 _ZTI14Q3CanvasSpline@Base 4:4.5.3
 _ZTI14Q3CanvasSprite@Base 4:4.5.3
 _ZTI14Q3DateTimeEdit@Base 4:4.5.3
 _ZTI14Q3HButtonGroup@Base 4:4.5.3
 _ZTI14Q3IconDragItem@Base 4:4.5.3
 _ZTI14Q3IconViewItem@Base 4:4.5.3
 _ZTI14Q3ListViewItem@Base 4:4.5.3
 _ZTI14Q3RangeControl@Base 4:4.5.3
 _ZTI14Q3ServerSocket@Base 4:4.5.3
 _ZTI14Q3SocketDevice@Base 4:4.5.3
 _ZTI14Q3SqlFieldInfo@Base 4:4.5.3
 _ZTI14Q3TextDocument@Base 4:4.5.3
 _ZTI14Q3VButtonGroup@Base 4:4.5.3
 _ZTI15Q3CanvasEllipse@Base 4:4.5.3
 _ZTI15Q3CanvasPolygon@Base 4:4.5.3
 _ZTI15Q3CheckListItem@Base 4:4.5.3
 _ZTI15Q3EditorFactory@Base 4:4.5.3
 _ZTI15Q3ListBoxPixmap@Base 4:4.5.3
 _ZTI15Q3MultiLineEdit@Base 4:4.5.3
 _ZTI15Q3PtrCollection@Base 4:4.5.3
 _ZTI15Q3TextFormatter@Base 4:4.5.3
 _ZTI15Q3TextTableCell@Base 4:4.5.3
 _ZTI16Q3CheckTableItem@Base 4:4.5.3
 _ZTI16Q3ComboTableItem@Base 4:4.5.3
 _ZTI16Q3DockAreaLayout@Base 4:4.5.3
 _ZTI16Q3PolygonScanner@Base 4:4.5.3
 _ZTI16Q3ProgressDialog@Base 4:4.5.3
 _ZTI16Q3SqlFormManager@Base 4:4.5.3
 _ZTI16Q3SqlPropertyMap@Base 4:4.5.3
 _ZTI16Q3TextCustomItem@Base 4:4.5.3
 _ZTI17Q3CanvasRectangle@Base 4:4.5.3
 _ZTI17Q3NetworkProtocol@Base 4:4.5.3
 _ZTI17Q3SqlSelectCursor@Base 4:4.5.3
 _ZTI18Q3DateTimeEditBase@Base 4:4.5.3
 _ZTI18Q3FileIconProvider@Base 4:4.5.3
 _ZTI18Q3NetworkOperation@Base 4:4.5.3
 _ZTI18Q3SqlCursorManager@Base 4:4.5.3
 _ZTI18Q3SqlEditorFactory@Base 4:4.5.3
 _ZTI18Q3TextPreProcessor@Base 4:4.5.3
 _ZTI18Q3TextStyleCommand@Base 4:4.5.3
 _ZTI19Q3HttpRequestHeader@Base 4:4.5.3
 _ZTI19Q3MimeSourceFactory@Base 4:4.5.3
 _ZTI19Q3SyntaxHighlighter@Base 4:4.5.3
 _ZTI19Q3TextDeleteCommand@Base 4:4.5.3
 _ZTI19Q3TextFormatCommand@Base 4:4.5.3
 _ZTI19Q3TextInsertCommand@Base 4:4.5.3
 _ZTI19Q3TextParagraphData@Base 4:4.5.3
 _ZTI20Q3HttpResponseHeader@Base 4:4.5.3
 _ZTI20Q3TextCommandHistory@Base 4:4.5.3
 _ZTI20Q3TextHorizontalLine@Base 4:4.5.3
 _ZTI21Q3CanvasPolygonalItem@Base 4:4.5.3
 _ZTI22Q3TextFormatCollection@Base 4:4.5.3
 _ZTI25Q3TextFormatterBreakWords@Base 4:4.5.3
 _ZTI27Q3TextFormatterBreakInWords@Base 4:4.5.3
 _ZTI28Q3NetworkProtocolFactoryBase@Base 4:4.5.3
 _ZTI5Q3Dns@Base 4:4.5.3
 _ZTI5Q3Ftp@Base 4:4.5.3
 _ZTI5Q3Url@Base 4:4.5.3
 _ZTI6Q3Grid@Base 4:4.5.3
 _ZTI6Q3HBox@Base 4:4.5.3
 _ZTI6Q3Http@Base 4:4.5.3
 _ZTI6Q3VBox@Base 4:4.5.3
 _ZTI7Q3Accel@Base 4:4.5.3
 _ZTI7Q3Frame@Base 4:4.5.3
 _ZTI7Q3GDict@Base 4:4.5.3
 _ZTI7Q3GList@Base 4:4.5.3
 _ZTI7Q3Table@Base 4:4.5.3
 _ZTI8Q3Action@Base 4:4.5.3
 _ZTI8Q3Button@Base 4:4.5.3
 _ZTI8Q3Canvas@Base 4:4.5.3
 _ZTI8Q3GArray@Base 4:4.5.3
 _ZTI8Q3GCache@Base 4:4.5.3
 _ZTI8Q3Header@Base 4:4.5.3
 _ZTI8Q3Signal@Base 4:4.5.3
 _ZTI8Q3Socket@Base 4:4.5.3
 _ZTI8Q3Wizard@Base 4:4.5.3
 _ZTI9Q3GVector@Base 4:4.5.3
 _ZTI9Q3ListBox@Base 4:4.5.3
 _ZTI9Q3LocalFs@Base 4:4.5.3
 _ZTI9Q3Process@Base 4:4.5.3
 _ZTI9Q3SqlForm@Base 4:4.5.3
 _ZTI9Q3StrList@Base 4:4.5.3
 _ZTI9Q3ToolBar@Base 4:4.5.3
 _ZTI9Q3UriDrag@Base 4:4.5.3
 _ZTI9QSqlQuery@Base 4:4.5.3
 _ZTS10Q3ComboBox@Base 4:4.5.3
 _ZTS10Q3DataView@Base 4:4.5.3
 _ZTS10Q3DateEdit@Base 4:4.5.3
 _ZTS10Q3DockArea@Base 4:4.5.3
 _ZTS10Q3DropSite@Base 4:4.5.3
 _ZTS10Q3GridView@Base 4:4.5.3
 _ZTS10Q3GroupBox@Base 4:4.5.3
 _ZTS10Q3IconDrag@Base 4:4.5.3
 _ZTS10Q3IconView@Base 4:4.5.3
 _ZTS10Q3ListView@Base 4:4.5.3
 _ZTS10Q3TextDrag@Base 4:4.5.3
 _ZTS10Q3TextEdit@Base 4:4.5.3
 _ZTS10Q3TextFlow@Base 4:4.5.3
 _ZTS10Q3TextView@Base 4:4.5.3
 _ZTS10Q3TimeEdit@Base 4:4.5.3
 _ZTS10Q3TitleBar@Base 4:4.5.3
 _ZTS10QSqlRecord@Base 4:4.5.3
 _ZTS11Q3ColorDrag@Base 4:4.5.3
 _ZTS11Q3DataTable@Base 4:4.5.3
 _ZTS11Q3HGroupBox@Base 4:4.5.3
 _ZTS11Q3ImageDrag@Base 4:4.5.3
 _ZTS11Q3PopupMenu@Base 4:4.5.3
 _ZTS11Q3Semaphore@Base 4:4.5.3
 _ZTS11Q3SqlCursor@Base 4:4.5.3
 _ZTS11Q3TabDialog@Base 4:4.5.3
 _ZTS11Q3TableItem@Base 4:4.5.3
 _ZTS11Q3TextImage@Base 4:4.5.3
 _ZTS11Q3TextTable@Base 4:4.5.3
 _ZTS11Q3VGroupBox@Base 4:4.5.3
 _ZTS11Q3WhatsThis@Base 4:4.5.3
 _ZTS12Q3CanvasItem@Base 4:4.5.3
 _ZTS12Q3CanvasLine@Base 4:4.5.3
 _ZTS12Q3CanvasText@Base 4:4.5.3
 _ZTS12Q3CanvasView@Base 4:4.5.3
 _ZTS12Q3DockWindow@Base 4:4.5.3
 _ZTS12Q3DragObject@Base 4:4.5.3
 _ZTS12Q3FileDialog@Base 4:4.5.3
 _ZTS12Q3HttpHeader@Base 4:4.5.3
 _ZTS12Q3MainWindow@Base 4:4.5.3
 _ZTS12Q3ScrollView@Base 4:4.5.3
 _ZTS12Q3SpinWidget@Base 4:4.5.3
 _ZTS12Q3StoredDrag@Base 4:4.5.3
 _ZTS12Q3StyleSheet@Base 4:4.5.3
 _ZTS12Q3TextCursor@Base 4:4.5.3
 _ZTS12Q3TextFormat@Base 4:4.5.3
 _ZTS12Q3TextIndent@Base 4:4.5.3
 _ZTS12Q3TextStream@Base 4:4.5.3
 _ZTS12Q3TextString@Base 4:4.5.3
 (arch=!armel !armhf)_ZTS12QDashStroker@Base 4:4.5.3
 _ZTS13Q3ActionGroup@Base 4:4.5.3
 _ZTS13Q3ButtonGroup@Base 4:4.5.3
 _ZTS13Q3DataBrowser@Base 4:4.5.3
 _ZTS13Q3DataManager@Base 4:4.5.3
 _ZTS13Q3FilePreview@Base 4:4.5.3
 _ZTS13Q3ListBoxItem@Base 4:4.5.3
 _ZTS13Q3ListBoxText@Base 4:4.5.3
 _ZTS13Q3ProgressBar@Base 4:4.5.3
 _ZTS13Q3TableHeader@Base 4:4.5.3
 _ZTS13Q3TextBrowser@Base 4:4.5.3
 _ZTS13Q3TextCommand@Base 4:4.5.3
 _ZTS13Q3UrlOperator@Base 4:4.5.3
 _ZTS13Q3WidgetStack@Base 4:4.5.3
 _ZTS14Q3CanvasPixmap@Base 4:4.5.3
 _ZTS14Q3CanvasSpline@Base 4:4.5.3
 _ZTS14Q3CanvasSprite@Base 4:4.5.3
 _ZTS14Q3DateTimeEdit@Base 4:4.5.3
 _ZTS14Q3HButtonGroup@Base 4:4.5.3
 _ZTS14Q3IconDragItem@Base 4:4.5.3
 _ZTS14Q3IconViewItem@Base 4:4.5.3
 _ZTS14Q3ListViewItem@Base 4:4.5.3
 _ZTS14Q3RangeControl@Base 4:4.5.3
 _ZTS14Q3ServerSocket@Base 4:4.5.3
 _ZTS14Q3SocketDevice@Base 4:4.5.3
 _ZTS14Q3SqlFieldInfo@Base 4:4.5.3
 _ZTS14Q3TextDocument@Base 4:4.5.3
 _ZTS14Q3VButtonGroup@Base 4:4.5.3
 _ZTS15Q3CanvasEllipse@Base 4:4.5.3
 _ZTS15Q3CanvasPolygon@Base 4:4.5.3
 _ZTS15Q3CheckListItem@Base 4:4.5.3
 _ZTS15Q3EditorFactory@Base 4:4.5.3
 _ZTS15Q3ListBoxPixmap@Base 4:4.5.3
 _ZTS15Q3MultiLineEdit@Base 4:4.5.3
 _ZTS15Q3PtrCollection@Base 4:4.5.3
 _ZTS15Q3TextFormatter@Base 4:4.5.3
 _ZTS15Q3TextTableCell@Base 4:4.5.3
 _ZTS16Q3CheckTableItem@Base 4:4.5.3
 _ZTS16Q3ComboTableItem@Base 4:4.5.3
 _ZTS16Q3DockAreaLayout@Base 4:4.5.3
 _ZTS16Q3PolygonScanner@Base 4:4.5.3
 _ZTS16Q3ProgressDialog@Base 4:4.5.3
 _ZTS16Q3SqlFormManager@Base 4:4.5.3
 _ZTS16Q3SqlPropertyMap@Base 4:4.5.3
 _ZTS16Q3TextCustomItem@Base 4:4.5.3
 _ZTS17Q3CanvasRectangle@Base 4:4.5.3
 _ZTS17Q3NetworkProtocol@Base 4:4.5.3
 _ZTS17Q3SqlSelectCursor@Base 4:4.5.3
 _ZTS18Q3DateTimeEditBase@Base 4:4.5.3
 _ZTS18Q3FileIconProvider@Base 4:4.5.3
 _ZTS18Q3NetworkOperation@Base 4:4.5.3
 _ZTS18Q3SqlCursorManager@Base 4:4.5.3
 _ZTS18Q3SqlEditorFactory@Base 4:4.5.3
 _ZTS18Q3TextPreProcessor@Base 4:4.5.3
 _ZTS18Q3TextStyleCommand@Base 4:4.5.3
 _ZTS19Q3HttpRequestHeader@Base 4:4.5.3
 _ZTS19Q3MimeSourceFactory@Base 4:4.5.3
 _ZTS19Q3SyntaxHighlighter@Base 4:4.5.3
 _ZTS19Q3TextDeleteCommand@Base 4:4.5.3
 _ZTS19Q3TextFormatCommand@Base 4:4.5.3
 _ZTS19Q3TextInsertCommand@Base 4:4.5.3
 _ZTS19Q3TextParagraphData@Base 4:4.5.3
 _ZTS20Q3HttpResponseHeader@Base 4:4.5.3
 _ZTS20Q3TextCommandHistory@Base 4:4.5.3
 _ZTS20Q3TextHorizontalLine@Base 4:4.5.3
 _ZTS21Q3CanvasPolygonalItem@Base 4:4.5.3
 _ZTS22Q3TextFormatCollection@Base 4:4.5.3
 _ZTS25Q3TextFormatterBreakWords@Base 4:4.5.3
 _ZTS27Q3TextFormatterBreakInWords@Base 4:4.5.3
 _ZTS28Q3NetworkProtocolFactoryBase@Base 4:4.5.3
 _ZTS5Q3Dns@Base 4:4.5.3
 _ZTS5Q3Ftp@Base 4:4.5.3
 _ZTS5Q3Url@Base 4:4.5.3
 _ZTS6Q3Grid@Base 4:4.5.3
 _ZTS6Q3HBox@Base 4:4.5.3
 _ZTS6Q3Http@Base 4:4.5.3
 _ZTS6Q3VBox@Base 4:4.5.3
 _ZTS7Q3Accel@Base 4:4.5.3
 _ZTS7Q3Frame@Base 4:4.5.3
 _ZTS7Q3GDict@Base 4:4.5.3
 _ZTS7Q3GList@Base 4:4.5.3
 _ZTS7Q3Table@Base 4:4.5.3
 _ZTS8Q3Action@Base 4:4.5.3
 _ZTS8Q3Button@Base 4:4.5.3
 _ZTS8Q3Canvas@Base 4:4.5.3
 _ZTS8Q3GArray@Base 4:4.5.3
 _ZTS8Q3GCache@Base 4:4.5.3
 _ZTS8Q3Header@Base 4:4.5.3
 _ZTS8Q3Signal@Base 4:4.5.3
 _ZTS8Q3Socket@Base 4:4.5.3
 _ZTS8Q3Wizard@Base 4:4.5.3
 _ZTS9Q3GVector@Base 4:4.5.3
 _ZTS9Q3ListBox@Base 4:4.5.3
 _ZTS9Q3LocalFs@Base 4:4.5.3
 _ZTS9Q3Process@Base 4:4.5.3
 _ZTS9Q3SqlForm@Base 4:4.5.3
 _ZTS9Q3StrList@Base 4:4.5.3
 _ZTS9Q3ToolBar@Base 4:4.5.3
 _ZTS9Q3UriDrag@Base 4:4.5.3
 _ZTS9QSqlQuery@Base 4:4.5.3
 _ZTV10Q3ComboBox@Base 4:4.5.3
 _ZTV10Q3DataView@Base 4:4.5.3
 _ZTV10Q3DateEdit@Base 4:4.5.3
 _ZTV10Q3DockArea@Base 4:4.5.3
 _ZTV10Q3DropSite@Base 4:4.5.3
 _ZTV10Q3GridView@Base 4:4.5.3
 _ZTV10Q3GroupBox@Base 4:4.5.3
 _ZTV10Q3IconDrag@Base 4:4.5.3
 _ZTV10Q3IconView@Base 4:4.5.3
 _ZTV10Q3ListView@Base 4:4.5.3
 _ZTV10Q3TextDrag@Base 4:4.5.3
 _ZTV10Q3TextEdit@Base 4:4.5.3
 _ZTV10Q3TextFlow@Base 4:4.5.3
 _ZTV10Q3TextView@Base 4:4.5.3
 _ZTV10Q3TimeEdit@Base 4:4.5.3
 _ZTV10Q3TitleBar@Base 4:4.5.3
 _ZTV11Q3ColorDrag@Base 4:4.5.3
 _ZTV11Q3DataTable@Base 4:4.5.3
 _ZTV11Q3HGroupBox@Base 4:4.5.3
 _ZTV11Q3ImageDrag@Base 4:4.5.3
 _ZTV11Q3PopupMenu@Base 4:4.5.3
 _ZTV11Q3Semaphore@Base 4:4.5.3
 _ZTV11Q3SqlCursor@Base 4:4.5.3
 _ZTV11Q3TabDialog@Base 4:4.5.3
 _ZTV11Q3TableItem@Base 4:4.5.3
 _ZTV11Q3TextImage@Base 4:4.5.3
 _ZTV11Q3TextTable@Base 4:4.5.3
 _ZTV11Q3VGroupBox@Base 4:4.5.3
 _ZTV11Q3WhatsThis@Base 4:4.5.3
 _ZTV12Q3CanvasItem@Base 4:4.5.3
 _ZTV12Q3CanvasLine@Base 4:4.5.3
 _ZTV12Q3CanvasText@Base 4:4.5.3
 _ZTV12Q3CanvasView@Base 4:4.5.3
 _ZTV12Q3DockWindow@Base 4:4.5.3
 _ZTV12Q3DragObject@Base 4:4.5.3
 _ZTV12Q3FileDialog@Base 4:4.5.3
 _ZTV12Q3HttpHeader@Base 4:4.5.3
 _ZTV12Q3MainWindow@Base 4:4.5.3
 _ZTV12Q3ScrollView@Base 4:4.5.3
 _ZTV12Q3SpinWidget@Base 4:4.5.3
 _ZTV12Q3StoredDrag@Base 4:4.5.3
 _ZTV12Q3StyleSheet@Base 4:4.5.3
 _ZTV12Q3TextCursor@Base 4:4.5.3
 _ZTV12Q3TextFormat@Base 4:4.5.3
 _ZTV12Q3TextIndent@Base 4:4.5.3
 _ZTV12Q3TextStream@Base 4:4.5.3
 _ZTV12Q3TextString@Base 4:4.5.3
 (arch=!armel !armhf)_ZTV12QDashStroker@Base 4:4.5.3
 _ZTV13Q3ActionGroup@Base 4:4.5.3
 _ZTV13Q3ButtonGroup@Base 4:4.5.3
 _ZTV13Q3DataBrowser@Base 4:4.5.3
 _ZTV13Q3DataManager@Base 4:4.5.3
 _ZTV13Q3FilePreview@Base 4:4.5.3
 _ZTV13Q3ListBoxItem@Base 4:4.5.3
 _ZTV13Q3ListBoxText@Base 4:4.5.3
 _ZTV13Q3ProgressBar@Base 4:4.5.3
 _ZTV13Q3TableHeader@Base 4:4.5.3
 _ZTV13Q3TextBrowser@Base 4:4.5.3
 _ZTV13Q3TextCommand@Base 4:4.5.3
 _ZTV13Q3UrlOperator@Base 4:4.5.3
 _ZTV13Q3WidgetStack@Base 4:4.5.3
 _ZTV14Q3CanvasPixmap@Base 4:4.5.3
 _ZTV14Q3CanvasSpline@Base 4:4.5.3
 _ZTV14Q3CanvasSprite@Base 4:4.5.3
 _ZTV14Q3DateTimeEdit@Base 4:4.5.3
 _ZTV14Q3HButtonGroup@Base 4:4.5.3
 _ZTV14Q3IconDragItem@Base 4:4.5.3
 _ZTV14Q3IconViewItem@Base 4:4.5.3
 _ZTV14Q3ListViewItem@Base 4:4.5.3
 _ZTV14Q3RangeControl@Base 4:4.5.3
 _ZTV14Q3ServerSocket@Base 4:4.5.3
 _ZTV14Q3SocketDevice@Base 4:4.5.3
 _ZTV14Q3SqlFieldInfo@Base 4:4.5.3
 _ZTV14Q3TextDocument@Base 4:4.5.3
 _ZTV14Q3VButtonGroup@Base 4:4.5.3
 _ZTV15Q3CanvasEllipse@Base 4:4.5.3
 _ZTV15Q3CanvasPolygon@Base 4:4.5.3
 _ZTV15Q3CheckListItem@Base 4:4.5.3
 _ZTV15Q3EditorFactory@Base 4:4.5.3
 _ZTV15Q3ListBoxPixmap@Base 4:4.5.3
 _ZTV15Q3MultiLineEdit@Base 4:4.5.3
 _ZTV15Q3PtrCollection@Base 4:4.5.3
 _ZTV15Q3TextFormatter@Base 4:4.5.3
 _ZTV15Q3TextTableCell@Base 4:4.5.3
 _ZTV16Q3CheckTableItem@Base 4:4.5.3
 _ZTV16Q3ComboTableItem@Base 4:4.5.3
 _ZTV16Q3DockAreaLayout@Base 4:4.5.3
 _ZTV16Q3PolygonScanner@Base 4:4.5.3
 _ZTV16Q3ProgressDialog@Base 4:4.5.3
 _ZTV16Q3SqlFormManager@Base 4:4.5.3
 _ZTV16Q3SqlPropertyMap@Base 4:4.5.3
 _ZTV16Q3TextCustomItem@Base 4:4.5.3
 _ZTV17Q3CanvasRectangle@Base 4:4.5.3
 _ZTV17Q3NetworkProtocol@Base 4:4.5.3
 _ZTV17Q3SqlSelectCursor@Base 4:4.5.3
 _ZTV18Q3DateTimeEditBase@Base 4:4.5.3
 _ZTV18Q3FileIconProvider@Base 4:4.5.3
 _ZTV18Q3NetworkOperation@Base 4:4.5.3
 _ZTV18Q3SqlCursorManager@Base 4:4.5.3
 _ZTV18Q3SqlEditorFactory@Base 4:4.5.3
 _ZTV18Q3TextPreProcessor@Base 4:4.5.3
 _ZTV18Q3TextStyleCommand@Base 4:4.5.3
 _ZTV19Q3HttpRequestHeader@Base 4:4.5.3
 _ZTV19Q3MimeSourceFactory@Base 4:4.5.3
 _ZTV19Q3SyntaxHighlighter@Base 4:4.5.3
 _ZTV19Q3TextDeleteCommand@Base 4:4.5.3
 _ZTV19Q3TextFormatCommand@Base 4:4.5.3
 _ZTV19Q3TextInsertCommand@Base 4:4.5.3
 _ZTV19Q3TextParagraphData@Base 4:4.5.3
 _ZTV20Q3HttpResponseHeader@Base 4:4.5.3
 _ZTV20Q3TextCommandHistory@Base 4:4.5.3
 _ZTV20Q3TextHorizontalLine@Base 4:4.5.3
 _ZTV21Q3CanvasPolygonalItem@Base 4:4.5.3
 _ZTV22Q3TextFormatCollection@Base 4:4.5.3
 _ZTV25Q3TextFormatterBreakWords@Base 4:4.5.3
 _ZTV27Q3TextFormatterBreakInWords@Base 4:4.5.3
 _ZTV28Q3NetworkProtocolFactoryBase@Base 4:4.5.3
 _ZTV5Q3Dns@Base 4:4.5.3
 _ZTV5Q3Ftp@Base 4:4.5.3
 _ZTV5Q3Url@Base 4:4.5.3
 _ZTV6Q3Grid@Base 4:4.5.3
 _ZTV6Q3HBox@Base 4:4.5.3
 _ZTV6Q3Http@Base 4:4.5.3
 _ZTV6Q3VBox@Base 4:4.5.3
 _ZTV7Q3Accel@Base 4:4.5.3
 _ZTV7Q3Frame@Base 4:4.5.3
 _ZTV7Q3GDict@Base 4:4.5.3
 _ZTV7Q3GList@Base 4:4.5.3
 _ZTV7Q3Table@Base 4:4.5.3
 _ZTV8Q3Action@Base 4:4.5.3
 _ZTV8Q3Button@Base 4:4.5.3
 _ZTV8Q3Canvas@Base 4:4.5.3
 _ZTV8Q3GArray@Base 4:4.5.3
 _ZTV8Q3GCache@Base 4:4.5.3
 _ZTV8Q3Header@Base 4:4.5.3
 _ZTV8Q3Signal@Base 4:4.5.3
 _ZTV8Q3Socket@Base 4:4.5.3
 _ZTV8Q3Wizard@Base 4:4.5.3
 _ZTV9Q3GVector@Base 4:4.5.3
 _ZTV9Q3ListBox@Base 4:4.5.3
 _ZTV9Q3LocalFs@Base 4:4.5.3
 _ZTV9Q3Process@Base 4:4.5.3
 _ZTV9Q3SqlForm@Base 4:4.5.3
 _ZTV9Q3StrList@Base 4:4.5.3
 _ZTV9Q3ToolBar@Base 4:4.5.3
 _ZTV9Q3UriDrag@Base 4:4.5.3
 _ZlsR11QDataStreamRK7Q3GList@Base 4:4.5.3
 _ZlsR11QDataStreamRK9Q3CString@Base 4:4.5.3
 _ZlsR11QDataStreamRK9Q3GVector@Base 4:4.5.3
 _ZlsR11QTextStreamRK10Q3DockArea@Base 4:4.5.3
 _ZlsR11QTextStreamRK12Q3MainWindow@Base 4:4.5.3
 (optional=external|arch=amd64 hurd-i386 i386 kfreebsd-amd64 kfreebsd-i386)_ZneRK5QRectS1_@Base 4:4.8.1
 _ZrsR11QDataStreamR7Q3GList@Base 4:4.5.3
 _ZrsR11QDataStreamR9Q3CString@Base 4:4.5.3
 _ZrsR11QDataStreamR9Q3GVector@Base 4:4.5.3
 _ZrsR11QTextStreamR10Q3DockArea@Base 4:4.5.3
 _ZrsR11QTextStreamR12Q3MainWindow@Base 4:4.5.3
 (c++)"non-virtual thunk to Q3Button::~Q3Button()@Base" 4:4.5.3
 (c++)"non-virtual thunk to Q3ButtonGroup::~Q3ButtonGroup()@Base" 4:4.5.3
 (c++)"non-virtual thunk to Q3CanvasView::~Q3CanvasView()@Base" 4:4.5.3
 (c++)"non-virtual thunk to Q3ColorDrag::~Q3ColorDrag()@Base" 4:4.7.4
 (c++)"non-virtual thunk to Q3ComboBox::~Q3ComboBox()@Base" 4:4.5.3
 (c++)"non-virtual thunk to Q3DataBrowser::~Q3DataBrowser()@Base" 4:4.5.3
 (c++)"non-virtual thunk to Q3DataTable::~Q3DataTable()@Base" 4:4.5.3
 (c++)"non-virtual thunk to Q3DataView::~Q3DataView()@Base" 4:4.5.3
 (c++)"non-virtual thunk to Q3DateEdit::~Q3DateEdit()@Base" 4:4.5.3
 (c++)"non-virtual thunk to Q3DateTimeEdit::~Q3DateTimeEdit()@Base" 4:4.5.3
 (c++)"non-virtual thunk to Q3DateTimeEditBase::~Q3DateTimeEditBase()@Base" 4:4.7.4
 (c++)"non-virtual thunk to Q3DockArea::~Q3DockArea()@Base" 4:4.5.3
 (c++)"non-virtual thunk to Q3DockAreaLayout::hasHeightForWidth() const@Base" 4:4.5.3
 (c++)"non-virtual thunk to Q3DockAreaLayout::heightForWidth(int) const@Base" 4:4.5.3
 (c++)"non-virtual thunk to Q3DockAreaLayout::invalidate()@Base" 4:4.5.3
 (c++)"non-virtual thunk to Q3DockAreaLayout::minimumSize() const@Base" 4:4.5.3
 (c++)"non-virtual thunk to Q3DockAreaLayout::setGeometry(QRect const&)@Base" 4:4.5.3
 (c++)"non-virtual thunk to Q3DockAreaLayout::sizeHint() const@Base" 4:4.5.3
 (c++)"non-virtual thunk to Q3DockWindow::~Q3DockWindow()@Base" 4:4.5.3
 (c++)"non-virtual thunk to Q3DragObject::~Q3DragObject()@Base" 4:4.5.3
 (c++)"non-virtual thunk to Q3FileDialog::~Q3FileDialog()@Base" 4:4.5.3
 (c++)"non-virtual thunk to Q3Frame::~Q3Frame()@Base" 4:4.5.3
 (c++)"non-virtual thunk to Q3Grid::~Q3Grid()@Base" 4:4.7.4
 (c++)"non-virtual thunk to Q3GridView::~Q3GridView()@Base" 4:4.5.3
 (c++)"non-virtual thunk to Q3GroupBox::~Q3GroupBox()@Base" 4:4.5.3
 (c++)"non-virtual thunk to Q3HBox::~Q3HBox()@Base" 4:4.7.4
 (c++)"non-virtual thunk to Q3HButtonGroup::~Q3HButtonGroup()@Base" 4:4.7.4
 (c++)"non-virtual thunk to Q3HGroupBox::~Q3HGroupBox()@Base" 4:4.5.3
 (c++)"non-virtual thunk to Q3Header::~Q3Header()@Base" 4:4.5.3
 (c++)"non-virtual thunk to Q3IconDrag::encodedData(char const*) const@Base" 4:4.5.3
 (c++)"non-virtual thunk to Q3IconDrag::format(int) const@Base" 4:4.5.3
 (c++)"non-virtual thunk to Q3IconDrag::~Q3IconDrag()@Base" 4:4.5.3
 (c++)"non-virtual thunk to Q3IconView::~Q3IconView()@Base" 4:4.5.3
 (c++)"non-virtual thunk to Q3ImageDrag::encodedData(char const*) const@Base" 4:4.5.3
 (c++)"non-virtual thunk to Q3ImageDrag::format(int) const@Base" 4:4.5.3
 (c++)"non-virtual thunk to Q3ImageDrag::~Q3ImageDrag()@Base" 4:4.5.3
 (c++)"non-virtual thunk to Q3ListBox::~Q3ListBox()@Base" 4:4.5.3
 (c++)"non-virtual thunk to Q3ListView::~Q3ListView()@Base" 4:4.5.3
 (c++)"non-virtual thunk to Q3MainWindow::~Q3MainWindow()@Base" 4:4.5.3
 (c++)"non-virtual thunk to Q3MultiLineEdit::~Q3MultiLineEdit()@Base" 4:4.5.3
 (c++)"non-virtual thunk to Q3PopupMenu::~Q3PopupMenu()@Base" 4:4.7.4
 (c++)"non-virtual thunk to Q3ProgressBar::~Q3ProgressBar()@Base" 4:4.7.4
 (c++)"non-virtual thunk to Q3ProgressDialog::~Q3ProgressDialog()@Base" 4:4.5.3
 (c++)"non-virtual thunk to Q3ScrollView::~Q3ScrollView()@Base" 4:4.5.3
 (c++)"non-virtual thunk to Q3SpinWidget::~Q3SpinWidget()@Base" 4:4.5.3
 (c++)"non-virtual thunk to Q3StoredDrag::encodedData(char const*) const@Base" 4:4.5.3
 (c++)"non-virtual thunk to Q3StoredDrag::format(int) const@Base" 4:4.5.3
 (c++)"non-virtual thunk to Q3StoredDrag::~Q3StoredDrag()@Base" 4:4.5.3
 (c++)"non-virtual thunk to Q3TabDialog::~Q3TabDialog()@Base" 4:4.5.3
 (c++)"non-virtual thunk to Q3Table::~Q3Table()@Base" 4:4.5.3
 (c++)"non-virtual thunk to Q3TextBrowser::~Q3TextBrowser()@Base" 4:4.5.3
 (c++)"non-virtual thunk to Q3TextDrag::encodedData(char const*) const@Base" 4:4.5.3
 (c++)"non-virtual thunk to Q3TextDrag::format(int) const@Base" 4:4.5.3
 (c++)"non-virtual thunk to Q3TextDrag::~Q3TextDrag()@Base" 4:4.5.3
 (c++)"non-virtual thunk to Q3TextEdit::~Q3TextEdit()@Base" 4:4.5.3
 (c++)"non-virtual thunk to Q3TextView::~Q3TextView()@Base" 4:4.5.3
 (c++)"non-virtual thunk to Q3TimeEdit::~Q3TimeEdit()@Base" 4:4.5.3
 (c++)"non-virtual thunk to Q3TitleBar::~Q3TitleBar()@Base" 4:4.5.3
 (c++)"non-virtual thunk to Q3ToolBar::~Q3ToolBar()@Base" 4:4.5.3
 (c++)"non-virtual thunk to Q3UriDrag::~Q3UriDrag()@Base" 4:4.5.3
 (c++)"non-virtual thunk to Q3UrlOperator::cdUp()@Base" 4:4.5.3
 (c++)"non-virtual thunk to Q3UrlOperator::parse(QString const&)@Base" 4:4.5.3
 (c++)"non-virtual thunk to Q3UrlOperator::reset()@Base" 4:4.5.3
 (c++)"non-virtual thunk to Q3UrlOperator::setPath(QString const&)@Base" 4:4.5.3
 (c++)"non-virtual thunk to Q3UrlOperator::~Q3UrlOperator()@Base" 4:4.5.3
 (c++)"non-virtual thunk to Q3VBox::~Q3VBox()@Base" 4:4.7.4
 (c++)"non-virtual thunk to Q3VButtonGroup::~Q3VButtonGroup()@Base" 4:4.7.4
 (c++)"non-virtual thunk to Q3VGroupBox::~Q3VGroupBox()@Base" 4:4.5.3
 (c++)"non-virtual thunk to Q3WidgetStack::~Q3WidgetStack()@Base" 4:4.5.3
 (c++)"non-virtual thunk to Q3Wizard::~Q3Wizard()@Base" 4:4.5.3
 q3networkProtocolRegister@Base 4:4.5.3
 qt_ftp_filename_codec@Base 4:4.5.3
 qt_qheader_label_return_null_strings@Base 4:4.5.3
