libgrantlee_gui.so.0 libgrantlee-gui0 #MINVER#
 _ZN8Grantlee14MarkupDirector11processListEN10QTextFrame8iteratorERK10QTextBlockP9QTextList@Base 0.1.4
 _ZN8Grantlee14MarkupDirector12processBlockEN10QTextFrame8iteratorERK10QTextBlock@Base 0.1.4
 _ZN8Grantlee14MarkupDirector12processFrameEN10QTextFrame8iteratorEPS1_@Base 0.1.4
 _ZN8Grantlee14MarkupDirector12processImageEN10QTextBlock8iteratorERK16QTextImageFormatP13QTextDocument@Base 0.1.4
 _ZN8Grantlee14MarkupDirector12processTableEN10QTextFrame8iteratorEP10QTextTable@Base 0.1.4
 _ZN8Grantlee14MarkupDirector13processObjectEN10QTextFrame8iteratorERK10QTextBlockP11QTextObject@Base 0.1.4
 _ZN8Grantlee14MarkupDirector14skipBlockGroupEN10QTextFrame8iteratorERK10QTextBlockP15QTextBlockGroup@Base 0.1.4
 _ZN8Grantlee14MarkupDirector15processDocumentEP13QTextDocument@Base 0.1.4
 _ZN8Grantlee14MarkupDirector15processFragmentEN10QTextBlock8iteratorERK13QTextFragmentPK13QTextDocument@Base 0.1.4
 _ZN8Grantlee14MarkupDirector16processTableCellERK14QTextTableCellP10QTextTable@Base 0.1.4
 _ZN8Grantlee14MarkupDirector17getElementsToOpenEN10QTextBlock8iteratorE@Base 0.1.4
 _ZN8Grantlee14MarkupDirector17processBlockGroupEN10QTextFrame8iteratorERK10QTextBlockP15QTextBlockGroup@Base 0.1.4
 _ZN8Grantlee14MarkupDirector20processBlockContentsEN10QTextFrame8iteratorERK10QTextBlock@Base 0.1.4
 _ZN8Grantlee14MarkupDirector21processCharTextObjectEN10QTextBlock8iteratorERK13QTextFragmentP11QTextObject@Base 0.1.4
 _ZN8Grantlee14MarkupDirector21processCustomFragmentERK13QTextFragmentPK13QTextDocument@Base 0.1.4
 _ZN8Grantlee14MarkupDirector22processClosingElementsEN10QTextBlock8iteratorE@Base 0.1.4
 _ZN8Grantlee14MarkupDirector22processOpeningElementsEN10QTextBlock8iteratorE@Base 0.1.4
 _ZN8Grantlee14MarkupDirector23processDocumentContentsEN10QTextFrame8iteratorES2_@Base 0.1.4
 _ZN8Grantlee14MarkupDirectorC1EPNS_21AbstractMarkupBuilderE@Base 0.1.4
 _ZN8Grantlee14MarkupDirectorC2EPNS_21AbstractMarkupBuilderE@Base 0.1.4
 _ZN8Grantlee14MarkupDirectorD0Ev@Base 0.1.4
 _ZN8Grantlee14MarkupDirectorD1Ev@Base 0.1.4
 _ZN8Grantlee14MarkupDirectorD2Ev@Base 0.1.4
 _ZN8Grantlee15TextHTMLBuilder10addNewlineEv@Base 0.1.4
 _ZN8Grantlee15TextHTMLBuilder10beginTableEddRK7QString@Base 0.1.4
 _ZN8Grantlee15TextHTMLBuilder11beginAnchorERK7QStringS3_@Base 0.1.4
 _ZN8Grantlee15TextHTMLBuilder11beginHeaderEi@Base 0.1.4
 _ZN8Grantlee15TextHTMLBuilder11beginStrongEv@Base 0.1.4
 _ZN8Grantlee15TextHTMLBuilder11endListItemEv@Base 0.1.4
 _ZN8Grantlee15TextHTMLBuilder11endTableRowEv@Base 0.1.4
 _ZN8Grantlee15TextHTMLBuilder11insertImageERK7QStringdd@Base 0.1.4
 _ZN8Grantlee15TextHTMLBuilder12endParagraphEv@Base 0.1.4
 _ZN8Grantlee15TextHTMLBuilder12endStrikeoutEv@Base 0.1.4
 _ZN8Grantlee15TextHTMLBuilder12endSubscriptEv@Base 0.1.4
 _ZN8Grantlee15TextHTMLBuilder12endTableCellEv@Base 0.1.4
 _ZN8Grantlee15TextHTMLBuilder12endUnderlineEv@Base 0.1.4
 _ZN8Grantlee15TextHTMLBuilder13appendRawTextERK7QString@Base 0.1.4
 _ZN8Grantlee15TextHTMLBuilder13beginListItemEv@Base 0.1.4
 _ZN8Grantlee15TextHTMLBuilder13beginTableRowEv@Base 0.1.4
 _ZN8Grantlee15TextHTMLBuilder13endBackgroundEv@Base 0.1.4
 _ZN8Grantlee15TextHTMLBuilder13endFontFamilyEv@Base 0.1.4
 _ZN8Grantlee15TextHTMLBuilder13endForegroundEv@Base 0.1.4
 _ZN8Grantlee15TextHTMLBuilder14beginParagraphE6QFlagsIN2Qt13AlignmentFlagEEdddd@Base 0.1.4
 _ZN8Grantlee15TextHTMLBuilder14beginStrikeoutEv@Base 0.1.4
 _ZN8Grantlee15TextHTMLBuilder14beginSubscriptEv@Base 0.1.4
 _ZN8Grantlee15TextHTMLBuilder14beginTableCellERK7QStringii@Base 0.1.4
 _ZN8Grantlee15TextHTMLBuilder14beginUnderlineEv@Base 0.1.4
 _ZN8Grantlee15TextHTMLBuilder14endSuperscriptEv@Base 0.1.4
 _ZN8Grantlee15TextHTMLBuilder15beginBackgroundERK6QBrush@Base 0.1.4
 _ZN8Grantlee15TextHTMLBuilder15beginFontFamilyERK7QString@Base 0.1.4
 _ZN8Grantlee15TextHTMLBuilder15beginForegroundERK6QBrush@Base 0.1.4
 _ZN8Grantlee15TextHTMLBuilder16beginSuperscriptEv@Base 0.1.4
 _ZN8Grantlee15TextHTMLBuilder16endFontPointSizeEv@Base 0.1.4
 _ZN8Grantlee15TextHTMLBuilder17appendLiteralTextERK7QString@Base 0.1.4
 _ZN8Grantlee15TextHTMLBuilder18beginFontPointSizeEi@Base 0.1.4
 _ZN8Grantlee15TextHTMLBuilder18endTableHeaderCellEv@Base 0.1.4
 _ZN8Grantlee15TextHTMLBuilder20beginTableHeaderCellERK7QStringii@Base 0.1.4
 _ZN8Grantlee15TextHTMLBuilder20insertHorizontalRuleEi@Base 0.1.4
 _ZN8Grantlee15TextHTMLBuilder7endEmphEv@Base 0.1.4
 _ZN8Grantlee15TextHTMLBuilder7endListEv@Base 0.1.4
 _ZN8Grantlee15TextHTMLBuilder8endTableEv@Base 0.1.4
 _ZN8Grantlee15TextHTMLBuilder9beginEmphEv@Base 0.1.4
 _ZN8Grantlee15TextHTMLBuilder9beginListEN15QTextListFormat5StyleE@Base 0.1.4
 _ZN8Grantlee15TextHTMLBuilder9endAnchorEv@Base 0.1.4
 _ZN8Grantlee15TextHTMLBuilder9endHeaderEi@Base 0.1.4
 _ZN8Grantlee15TextHTMLBuilder9endStrongEv@Base 0.1.4
 _ZN8Grantlee15TextHTMLBuilder9getResultEv@Base 0.1.4
 _ZN8Grantlee15TextHTMLBuilderC1Ev@Base 0.1.4
 _ZN8Grantlee15TextHTMLBuilderC2Ev@Base 0.1.4
 _ZN8Grantlee15TextHTMLBuilderD0Ev@Base 0.1.4
 _ZN8Grantlee15TextHTMLBuilderD1Ev@Base 0.1.4
 _ZN8Grantlee15TextHTMLBuilderD2Ev@Base 0.1.4
 _ZN8Grantlee22PlainTextMarkupBuilder10addNewlineEv@Base 0.1.4
 _ZN8Grantlee22PlainTextMarkupBuilder10beginTableEddRK7QString@Base 0.1.4
 _ZN8Grantlee22PlainTextMarkupBuilder11beginAnchorERK7QStringS3_@Base 0.1.4
 _ZN8Grantlee22PlainTextMarkupBuilder11beginHeaderEi@Base 0.1.4
 _ZN8Grantlee22PlainTextMarkupBuilder11beginStrongEv@Base 0.1.4
 _ZN8Grantlee22PlainTextMarkupBuilder11endListItemEv@Base 0.1.4
 _ZN8Grantlee22PlainTextMarkupBuilder11endTableRowEv@Base 0.1.4
 _ZN8Grantlee22PlainTextMarkupBuilder11insertImageERK7QStringdd@Base 0.1.4
 _ZN8Grantlee22PlainTextMarkupBuilder12addReferenceERK7QString@Base 0.1.4
 _ZN8Grantlee22PlainTextMarkupBuilder12endParagraphEv@Base 0.1.4
 _ZN8Grantlee22PlainTextMarkupBuilder12endStrikeoutEv@Base 0.1.4
 _ZN8Grantlee22PlainTextMarkupBuilder12endSubscriptEv@Base 0.1.4
 _ZN8Grantlee22PlainTextMarkupBuilder12endTableCellEv@Base 0.1.4
 _ZN8Grantlee22PlainTextMarkupBuilder12endUnderlineEv@Base 0.1.4
 _ZN8Grantlee22PlainTextMarkupBuilder13appendRawTextERK7QString@Base 0.1.4
 _ZN8Grantlee22PlainTextMarkupBuilder13beginListItemEv@Base 0.1.4
 _ZN8Grantlee22PlainTextMarkupBuilder13beginTableRowEv@Base 0.1.4
 _ZN8Grantlee22PlainTextMarkupBuilder13endBackgroundEv@Base 0.1.4
 _ZN8Grantlee22PlainTextMarkupBuilder13endFontFamilyEv@Base 0.1.4
 _ZN8Grantlee22PlainTextMarkupBuilder13endForegroundEv@Base 0.1.4
 _ZN8Grantlee22PlainTextMarkupBuilder14beginParagraphE6QFlagsIN2Qt13AlignmentFlagEEdddd@Base 0.1.4
 _ZN8Grantlee22PlainTextMarkupBuilder14beginStrikeoutEv@Base 0.1.4
 _ZN8Grantlee22PlainTextMarkupBuilder14beginSubscriptEv@Base 0.1.4
 _ZN8Grantlee22PlainTextMarkupBuilder14beginTableCellERK7QStringii@Base 0.1.4
 _ZN8Grantlee22PlainTextMarkupBuilder14beginUnderlineEv@Base 0.1.4
 _ZN8Grantlee22PlainTextMarkupBuilder14endSuperscriptEv@Base 0.1.4
 _ZN8Grantlee22PlainTextMarkupBuilder15beginBackgroundERK6QBrush@Base 0.1.4
 _ZN8Grantlee22PlainTextMarkupBuilder15beginFontFamilyERK7QString@Base 0.1.4
 _ZN8Grantlee22PlainTextMarkupBuilder15beginForegroundERK6QBrush@Base 0.1.4
 _ZN8Grantlee22PlainTextMarkupBuilder16beginSuperscriptEv@Base 0.1.4
 _ZN8Grantlee22PlainTextMarkupBuilder16endFontPointSizeEv@Base 0.1.4
 _ZN8Grantlee22PlainTextMarkupBuilder17appendLiteralTextERK7QString@Base 0.1.4
 _ZN8Grantlee22PlainTextMarkupBuilder18beginFontPointSizeEi@Base 0.1.4
 _ZN8Grantlee22PlainTextMarkupBuilder18endTableHeaderCellEv@Base 0.1.4
 _ZN8Grantlee22PlainTextMarkupBuilder20beginTableHeaderCellERK7QStringii@Base 0.1.4
 _ZN8Grantlee22PlainTextMarkupBuilder20insertHorizontalRuleEi@Base 0.1.4
 _ZN8Grantlee22PlainTextMarkupBuilder7endEmphEv@Base 0.1.4
 _ZN8Grantlee22PlainTextMarkupBuilder7endListEv@Base 0.1.4
 _ZN8Grantlee22PlainTextMarkupBuilder8endTableEv@Base 0.1.4
 _ZN8Grantlee22PlainTextMarkupBuilder9beginEmphEv@Base 0.1.4
 _ZN8Grantlee22PlainTextMarkupBuilder9beginListEN15QTextListFormat5StyleE@Base 0.1.4
 _ZN8Grantlee22PlainTextMarkupBuilder9endAnchorEv@Base 0.1.4
 _ZN8Grantlee22PlainTextMarkupBuilder9endHeaderEi@Base 0.1.4
 _ZN8Grantlee22PlainTextMarkupBuilder9endStrongEv@Base 0.1.4
 _ZN8Grantlee22PlainTextMarkupBuilder9getResultEv@Base 0.1.4
 _ZN8Grantlee22PlainTextMarkupBuilderC1Ev@Base 0.1.4
 _ZN8Grantlee22PlainTextMarkupBuilderC2Ev@Base 0.1.4
 _ZN8Grantlee22PlainTextMarkupBuilderD0Ev@Base 0.1.4
 _ZN8Grantlee22PlainTextMarkupBuilderD1Ev@Base 0.1.4
 _ZN8Grantlee22PlainTextMarkupBuilderD2Ev@Base 0.1.4
 _ZNK8Grantlee14MarkupDirector16sortOpeningOrderE4QSetIiEN10QTextBlock8iteratorE@Base 0.1.4
 _ZNK8Grantlee14MarkupDirector18getElementsToCloseEN10QTextBlock8iteratorE@Base 0.1.4
 _ZTIN8Grantlee14MarkupDirectorE@Base 0.1.4
 _ZTIN8Grantlee15TextHTMLBuilderE@Base 0.1.4
 _ZTIN8Grantlee21AbstractMarkupBuilderE@Base 0.1.4
 _ZTIN8Grantlee22PlainTextMarkupBuilderE@Base 0.1.4
 _ZTSN8Grantlee14MarkupDirectorE@Base 0.1.4
 _ZTSN8Grantlee15TextHTMLBuilderE@Base 0.1.4
 _ZTSN8Grantlee21AbstractMarkupBuilderE@Base 0.1.4
 _ZTSN8Grantlee22PlainTextMarkupBuilderE@Base 0.1.4
 _ZTTN8Grantlee15TextHTMLBuilderE@Base 0.1.4
 _ZTTN8Grantlee22PlainTextMarkupBuilderE@Base 0.1.4
 _ZTVN8Grantlee14MarkupDirectorE@Base 0.1.4
 _ZTVN8Grantlee15TextHTMLBuilderE@Base 0.1.4
 _ZTVN8Grantlee21AbstractMarkupBuilderE@Base 0.1.4
 _ZTVN8Grantlee22PlainTextMarkupBuilderE@Base 0.1.4
 _ZTv0_n104_N8Grantlee15TextHTMLBuilder13endForegroundEv@Base 0.1.4
 _ZTv0_n104_N8Grantlee22PlainTextMarkupBuilder13endForegroundEv@Base 0.1.4
 _ZTv0_n112_N8Grantlee15TextHTMLBuilder15beginBackgroundERK6QBrush@Base 0.1.4
 _ZTv0_n112_N8Grantlee22PlainTextMarkupBuilder15beginBackgroundERK6QBrush@Base 0.1.4
 _ZTv0_n120_N8Grantlee15TextHTMLBuilder13endBackgroundEv@Base 0.1.4
 _ZTv0_n120_N8Grantlee22PlainTextMarkupBuilder13endBackgroundEv@Base 0.1.4
 _ZTv0_n128_N8Grantlee15TextHTMLBuilder11beginAnchorERK7QStringS3_@Base 0.1.4
 _ZTv0_n128_N8Grantlee22PlainTextMarkupBuilder11beginAnchorERK7QStringS3_@Base 0.1.4
 _ZTv0_n136_N8Grantlee15TextHTMLBuilder9endAnchorEv@Base 0.1.4
 _ZTv0_n136_N8Grantlee22PlainTextMarkupBuilder9endAnchorEv@Base 0.1.4
 _ZTv0_n144_N8Grantlee15TextHTMLBuilder15beginFontFamilyERK7QString@Base 0.1.4
 _ZTv0_n144_N8Grantlee22PlainTextMarkupBuilder15beginFontFamilyERK7QString@Base 0.1.4
 _ZTv0_n152_N8Grantlee15TextHTMLBuilder13endFontFamilyEv@Base 0.1.4
 _ZTv0_n152_N8Grantlee22PlainTextMarkupBuilder13endFontFamilyEv@Base 0.1.4
 _ZTv0_n160_N8Grantlee15TextHTMLBuilder18beginFontPointSizeEi@Base 0.1.4
 _ZTv0_n160_N8Grantlee22PlainTextMarkupBuilder18beginFontPointSizeEi@Base 0.1.4
 _ZTv0_n168_N8Grantlee15TextHTMLBuilder16endFontPointSizeEv@Base 0.1.4
 _ZTv0_n168_N8Grantlee22PlainTextMarkupBuilder16endFontPointSizeEv@Base 0.1.4
 _ZTv0_n176_N8Grantlee15TextHTMLBuilder14beginParagraphE6QFlagsIN2Qt13AlignmentFlagEEdddd@Base 0.1.4
 _ZTv0_n176_N8Grantlee22PlainTextMarkupBuilder14beginParagraphE6QFlagsIN2Qt13AlignmentFlagEEdddd@Base 0.1.4
 _ZTv0_n184_N8Grantlee15TextHTMLBuilder12endParagraphEv@Base 0.1.4
 _ZTv0_n184_N8Grantlee22PlainTextMarkupBuilder12endParagraphEv@Base 0.1.4
 _ZTv0_n192_N8Grantlee15TextHTMLBuilder10addNewlineEv@Base 0.1.4
 _ZTv0_n192_N8Grantlee22PlainTextMarkupBuilder10addNewlineEv@Base 0.1.4
 _ZTv0_n200_N8Grantlee15TextHTMLBuilder20insertHorizontalRuleEi@Base 0.1.4
 _ZTv0_n200_N8Grantlee22PlainTextMarkupBuilder20insertHorizontalRuleEi@Base 0.1.4
 _ZTv0_n208_N8Grantlee15TextHTMLBuilder11insertImageERK7QStringdd@Base 0.1.4
 _ZTv0_n208_N8Grantlee22PlainTextMarkupBuilder11insertImageERK7QStringdd@Base 0.1.4
 _ZTv0_n216_N8Grantlee15TextHTMLBuilder9beginListEN15QTextListFormat5StyleE@Base 0.1.4
 _ZTv0_n216_N8Grantlee22PlainTextMarkupBuilder9beginListEN15QTextListFormat5StyleE@Base 0.1.4
 _ZTv0_n224_N8Grantlee15TextHTMLBuilder7endListEv@Base 0.1.4
 _ZTv0_n224_N8Grantlee22PlainTextMarkupBuilder7endListEv@Base 0.1.4
 _ZTv0_n232_N8Grantlee15TextHTMLBuilder13beginListItemEv@Base 0.1.4
 _ZTv0_n232_N8Grantlee22PlainTextMarkupBuilder13beginListItemEv@Base 0.1.4
 _ZTv0_n240_N8Grantlee15TextHTMLBuilder11endListItemEv@Base 0.1.4
 _ZTv0_n240_N8Grantlee22PlainTextMarkupBuilder11endListItemEv@Base 0.1.4
 _ZTv0_n248_N8Grantlee15TextHTMLBuilder16beginSuperscriptEv@Base 0.1.4
 _ZTv0_n248_N8Grantlee22PlainTextMarkupBuilder16beginSuperscriptEv@Base 0.1.4
 _ZTv0_n24_N8Grantlee15TextHTMLBuilderD0Ev@Base 0.1.4
 _ZTv0_n24_N8Grantlee15TextHTMLBuilderD1Ev@Base 0.1.4
 _ZTv0_n24_N8Grantlee22PlainTextMarkupBuilderD0Ev@Base 0.1.4
 _ZTv0_n24_N8Grantlee22PlainTextMarkupBuilderD1Ev@Base 0.1.4
 _ZTv0_n256_N8Grantlee15TextHTMLBuilder14endSuperscriptEv@Base 0.1.4
 _ZTv0_n256_N8Grantlee22PlainTextMarkupBuilder14endSuperscriptEv@Base 0.1.4
 _ZTv0_n264_N8Grantlee15TextHTMLBuilder14beginSubscriptEv@Base 0.1.4
 _ZTv0_n264_N8Grantlee22PlainTextMarkupBuilder14beginSubscriptEv@Base 0.1.4
 _ZTv0_n272_N8Grantlee15TextHTMLBuilder12endSubscriptEv@Base 0.1.4
 _ZTv0_n272_N8Grantlee22PlainTextMarkupBuilder12endSubscriptEv@Base 0.1.4
 _ZTv0_n280_N8Grantlee15TextHTMLBuilder10beginTableEddRK7QString@Base 0.1.4
 _ZTv0_n280_N8Grantlee22PlainTextMarkupBuilder10beginTableEddRK7QString@Base 0.1.4
 _ZTv0_n288_N8Grantlee15TextHTMLBuilder13beginTableRowEv@Base 0.1.4
 _ZTv0_n288_N8Grantlee22PlainTextMarkupBuilder13beginTableRowEv@Base 0.1.4
 _ZTv0_n296_N8Grantlee15TextHTMLBuilder20beginTableHeaderCellERK7QStringii@Base 0.1.4
 _ZTv0_n296_N8Grantlee22PlainTextMarkupBuilder20beginTableHeaderCellERK7QStringii@Base 0.1.4
 _ZTv0_n304_N8Grantlee15TextHTMLBuilder14beginTableCellERK7QStringii@Base 0.1.4
 _ZTv0_n304_N8Grantlee22PlainTextMarkupBuilder14beginTableCellERK7QStringii@Base 0.1.4
 _ZTv0_n312_N8Grantlee15TextHTMLBuilder8endTableEv@Base 0.1.4
 _ZTv0_n312_N8Grantlee22PlainTextMarkupBuilder8endTableEv@Base 0.1.4
 _ZTv0_n320_N8Grantlee15TextHTMLBuilder11endTableRowEv@Base 0.1.4
 _ZTv0_n320_N8Grantlee22PlainTextMarkupBuilder11endTableRowEv@Base 0.1.4
 _ZTv0_n328_N8Grantlee15TextHTMLBuilder18endTableHeaderCellEv@Base 0.1.4
 _ZTv0_n328_N8Grantlee22PlainTextMarkupBuilder18endTableHeaderCellEv@Base 0.1.4
 _ZTv0_n32_N8Grantlee15TextHTMLBuilder11beginStrongEv@Base 0.1.4
 _ZTv0_n32_N8Grantlee22PlainTextMarkupBuilder11beginStrongEv@Base 0.1.4
 _ZTv0_n336_N8Grantlee15TextHTMLBuilder12endTableCellEv@Base 0.1.4
 _ZTv0_n336_N8Grantlee22PlainTextMarkupBuilder12endTableCellEv@Base 0.1.4
 _ZTv0_n344_N8Grantlee15TextHTMLBuilder11beginHeaderEi@Base 0.1.4
 _ZTv0_n344_N8Grantlee22PlainTextMarkupBuilder11beginHeaderEi@Base 0.1.4
 _ZTv0_n352_N8Grantlee15TextHTMLBuilder9endHeaderEi@Base 0.1.4
 _ZTv0_n352_N8Grantlee22PlainTextMarkupBuilder9endHeaderEi@Base 0.1.4
 _ZTv0_n360_N8Grantlee15TextHTMLBuilder17appendLiteralTextERK7QString@Base 0.1.4
 _ZTv0_n360_N8Grantlee22PlainTextMarkupBuilder17appendLiteralTextERK7QString@Base 0.1.4
 _ZTv0_n368_N8Grantlee15TextHTMLBuilder13appendRawTextERK7QString@Base 0.1.4
 _ZTv0_n368_N8Grantlee22PlainTextMarkupBuilder13appendRawTextERK7QString@Base 0.1.4
 _ZTv0_n376_N8Grantlee15TextHTMLBuilder9getResultEv@Base 0.1.4
 _ZTv0_n376_N8Grantlee22PlainTextMarkupBuilder9getResultEv@Base 0.1.4
 _ZTv0_n40_N8Grantlee15TextHTMLBuilder9endStrongEv@Base 0.1.4
 _ZTv0_n40_N8Grantlee22PlainTextMarkupBuilder9endStrongEv@Base 0.1.4
 _ZTv0_n48_N8Grantlee15TextHTMLBuilder9beginEmphEv@Base 0.1.4
 _ZTv0_n48_N8Grantlee22PlainTextMarkupBuilder9beginEmphEv@Base 0.1.4
 _ZTv0_n56_N8Grantlee15TextHTMLBuilder7endEmphEv@Base 0.1.4
 _ZTv0_n56_N8Grantlee22PlainTextMarkupBuilder7endEmphEv@Base 0.1.4
 _ZTv0_n64_N8Grantlee15TextHTMLBuilder14beginUnderlineEv@Base 0.1.4
 _ZTv0_n64_N8Grantlee22PlainTextMarkupBuilder14beginUnderlineEv@Base 0.1.4
 _ZTv0_n72_N8Grantlee15TextHTMLBuilder12endUnderlineEv@Base 0.1.4
 _ZTv0_n72_N8Grantlee22PlainTextMarkupBuilder12endUnderlineEv@Base 0.1.4
 _ZTv0_n80_N8Grantlee15TextHTMLBuilder14beginStrikeoutEv@Base 0.1.4
 _ZTv0_n80_N8Grantlee22PlainTextMarkupBuilder14beginStrikeoutEv@Base 0.1.4
 _ZTv0_n88_N8Grantlee15TextHTMLBuilder12endStrikeoutEv@Base 0.1.4
 _ZTv0_n88_N8Grantlee22PlainTextMarkupBuilder12endStrikeoutEv@Base 0.1.4
 _ZTv0_n96_N8Grantlee15TextHTMLBuilder15beginForegroundERK6QBrush@Base 0.1.4
 _ZTv0_n96_N8Grantlee22PlainTextMarkupBuilder15beginForegroundERK6QBrush@Base 0.1.4
