# SymbolsHelper-Confirmed: 4:4.7.4 amd64
libkcddb.so.4 libkcddb4 #MINVER#
 _ZN10ConfigBase10setReplyToERK7QString@Base 4:4.3.4
 _ZN10ConfigBase11setHostnameERK7QString@Base 4:4.3.4
 _ZN10ConfigBase11setSmtpPortEi@Base 4:4.3.4
 _ZN10ConfigBase15setEmailAddressERK7QString@Base 4:4.3.4
 _ZN10ConfigBase15setSmtpHostnameERK7QString@Base 4:4.3.4
 _ZN10ConfigBase15setSmtpUsernameERK7QString@Base 4:4.3.4
 _ZN10ConfigBase16setSubmitAddressERK7QString@Base 4:4.3.4
 _ZN10ConfigBase17setCacheLocationsERK11QStringList@Base 4:4.3.4
 _ZN10ConfigBase17setHttpSubmitPortEi@Base 4:4.3.4
 _ZN10ConfigBase17setUseGlobalEmailEb@Base 4:4.3.4
 _ZN10ConfigBase19setHttpSubmitServerERK7QString@Base 4:4.3.4
 _ZN10ConfigBase21setCacheLookupEnabledEb@Base 4:4.3.4
 _ZN10ConfigBase22setFreedbLookupEnabledEb@Base 4:4.3.4
 _ZN10ConfigBase24setFreedbLookupTransportEi@Base 4:4.3.4
 _ZN10ConfigBase24setFreedbSubmitTransportEi@Base 4:4.3.4
 _ZN10ConfigBase27setMusicBrainzLookupEnabledEb@Base 4:4.3.4
 _ZN10ConfigBase7setPortEi@Base 4:4.3.4
 _ZN10ConfigBaseC1Ev@Base 4:4.3.4
 _ZN10ConfigBaseC2Ev@Base 4:4.3.4
 _ZN10ConfigBaseD0Ev@Base 4:4.3.4
 _ZN10ConfigBaseD1Ev@Base 4:4.3.4
 _ZN10ConfigBaseD2Ev@Base 4:4.3.4
 _ZN19KCoreConfigSkeleton8ItemEnum7Choice2D1Ev@Base 4:4.6.5
 _ZN19KCoreConfigSkeleton8ItemEnum7Choice2D2Ev@Base 4:4.6.5
 _ZN5KCDDB12CDInfoDialog10framesTimeEj@Base 4:4.3.4
 _ZN5KCDDB12CDInfoDialog11qt_metacallEN11QMetaObject4CallEiPPv@Base 4:4.3.4
 _ZN5KCDDB12CDInfoDialog11qt_metacastEPKc@Base 4:4.3.4
 _ZN5KCDDB12CDInfoDialog12genreChangedERK7QString@Base 4:4.3.4
 _ZN5KCDDB12CDInfoDialog13artistChangedERK7QString@Base 4:4.3.4
 _ZN5KCDDB12CDInfoDialog13slotNextTrackEv@Base 4:4.3.4
 _ZN5KCDDB12CDInfoDialog16staticMetaObjectE@Base 4:4.3.4
 _ZN5KCDDB12CDInfoDialog17slotTrackSelectedERK11QModelIndex@Base 4:4.5.1
 _ZN5KCDDB12CDInfoDialog18slotChangeEncodingEv@Base 4:4.3.4
 _ZN5KCDDB12CDInfoDialog19slotMultipleArtistsEb@Base 4:4.3.4
 _ZN5KCDDB12CDInfoDialog22slotTrackDoubleClickedERK11QModelIndex@Base 4:4.5.1
 _ZN5KCDDB12CDInfoDialog4playEi@Base 4:4.3.4
 _ZN5KCDDB12CDInfoDialog7Private9SEPARATORE@Base 4:4.3.4
 _ZN5KCDDB12CDInfoDialog7setInfoERKNS_6CDInfoERK5QListIjE@Base 4:4.3.4
 _ZN5KCDDB12CDInfoDialogC1EP7QWidget@Base 4:4.3.4
 _ZN5KCDDB12CDInfoDialogC2EP7QWidget@Base 4:4.3.4
 _ZN5KCDDB12CDInfoDialogD0Ev@Base 4:4.3.4
 _ZN5KCDDB12CDInfoDialogD1Ev@Base 4:4.3.4
 _ZN5KCDDB12CDInfoDialogD2Ev@Base 4:4.3.4
 _ZN5KCDDB14resultToStringENS_6ResultE@Base 4:4.3.4
 _ZN5KCDDB5Cache5storeERK5QListIjERKNS_6CDInfoERKNS_6ConfigE@Base 4:4.3.4
 _ZN5KCDDB5Cache5storeERK5QListIjERKS1_INS_6CDInfoEERKNS_6ConfigE@Base 4:4.3.4
 _ZN5KCDDB5Cache6lookupERK5QListIjERKNS_6ConfigE@Base 4:4.3.4
 _ZN5KCDDB5Sites8readDataERK10QByteArray@Base 4:4.3.4
 _ZN5KCDDB5Sites8siteListEv@Base 4:4.3.4
 _ZN5KCDDB5Sites9parseLineERK7QString@Base 4:4.3.4
 _ZN5KCDDB5SitesC1Ev@Base 4:4.3.4
 _ZN5KCDDB5SitesC2Ev@Base 4:4.3.4
 _ZN5KCDDB6CDInfo10checkTrackEi@Base 4:4.3.4
 _ZN5KCDDB6CDInfo3setENS_4TypeERK8QVariant@Base 4:4.3.4
 _ZN5KCDDB6CDInfo3setERK7QStringRK8QVariant@Base 4:4.3.4
 _ZN5KCDDB6CDInfo4loadERK11QStringList@Base 4:4.3.4
 _ZN5KCDDB6CDInfo4loadERK7QString@Base 4:4.3.4
 _ZN5KCDDB6CDInfo5clearEv@Base 4:4.3.4
 _ZN5KCDDB6CDInfo5trackEi@Base 4:4.3.4
 _ZN5KCDDB6CDInfoC1ERKS0_@Base 4:4.3.4
 _ZN5KCDDB6CDInfoC1Ev@Base 4:4.3.4
 _ZN5KCDDB6CDInfoC2ERKS0_@Base 4:4.3.4
 _ZN5KCDDB6CDInfoC2Ev@Base 4:4.3.4
 _ZN5KCDDB6CDInfoD0Ev@Base 4:4.3.4
 _ZN5KCDDB6CDInfoD1Ev@Base 4:4.3.4
 _ZN5KCDDB6CDInfoD2Ev@Base 4:4.3.4
 _ZN5KCDDB6CDInfoaSERKS0_@Base 4:4.3.4
 _ZN5KCDDB6Client11qt_metacallEN11QMetaObject4CallEiPPv@Base 4:4.3.4
 _ZN5KCDDB6Client11qt_metacastEPKc@Base 4:4.3.4
 _ZN5KCDDB6Client12slotFinishedENS_6ResultE@Base 4:4.3.4
 _ZN5KCDDB6Client15setBlockingModeEb@Base 4:4.3.4
 _ZN5KCDDB6Client16staticMetaObjectE@Base 4:4.3.4
 _ZN5KCDDB6Client17runPendingLookupsEv@Base 4:4.3.4
 _ZN5KCDDB6Client18slotSubmitFinishedENS_6ResultE@Base 4:4.3.4
 _ZN5KCDDB6Client5storeERKNS_6CDInfoERK5QListIjE@Base 4:4.3.4
 _ZN5KCDDB6Client6lookupERK5QListIjE@Base 4:4.3.4
 _ZN5KCDDB6Client6submitERKNS_6CDInfoERK5QListIjE@Base 4:4.3.4
 _ZN5KCDDB6Client8finishedENS_6ResultE@Base 4:4.3.4
 _ZN5KCDDB6ClientC1Ev@Base 4:4.3.4
 _ZN5KCDDB6ClientC2Ev@Base 4:4.3.4
 _ZN5KCDDB6ClientD0Ev@Base 4:4.3.4
 _ZN5KCDDB6ClientD1Ev@Base 4:4.3.4
 _ZN5KCDDB6ClientD2Ev@Base 4:4.3.4
 _ZN5KCDDB6Config17loadEmailSettingsEv@Base 4:4.3.4
 _ZN5KCDDB6Config7reparseEv@Base 4:4.3.4
 _ZN5KCDDB6ConfigC1Ev@Base 4:4.3.4
 _ZN5KCDDB6ConfigC2Ev@Base 4:4.3.4
 _ZN5KCDDB6ConfigD0Ev@Base 4:4.6.5
 _ZN5KCDDB6ConfigD1Ev@Base 4:4.6.5
 _ZN5KCDDB6ConfigD2Ev@Base 4:4.6.5
 _ZN5KCDDB6GenresC1ERKS0_@Base 4:4.3.4
 _ZN5KCDDB6GenresC1Ev@Base 4:4.3.4
 _ZN5KCDDB6GenresC2ERKS0_@Base 4:4.3.4
 _ZN5KCDDB6GenresC2Ev@Base 4:4.3.4
 _ZN5KCDDB6GenresD1Ev@Base 4:4.3.4
 _ZN5KCDDB6GenresD2Ev@Base 4:4.3.4
 _ZN5KCDDB6GenresaSERKS0_@Base 4:4.3.4
 _ZN5KCDDB9TrackInfo3setENS_4TypeERK8QVariant@Base 4:4.3.4
 _ZN5KCDDB9TrackInfo3setERK7QStringRK8QVariant@Base 4:4.3.4
 _ZN5KCDDB9TrackInfo5clearEv@Base 4:4.3.4
 _ZN5KCDDB9TrackInfoC1ERKS0_@Base 4:4.3.4
 _ZN5KCDDB9TrackInfoC1Ev@Base 4:4.3.4
 _ZN5KCDDB9TrackInfoC2ERKS0_@Base 4:4.3.4
 _ZN5KCDDB9TrackInfoC2Ev@Base 4:4.3.4
 _ZN5KCDDB9TrackInfoD0Ev@Base 4:4.3.4
 _ZN5KCDDB9TrackInfoD1Ev@Base 4:4.3.4
 _ZN5KCDDB9TrackInfoD2Ev@Base 4:4.3.4
 _ZN5KCDDB9TrackInfoaSERKS0_@Base 4:4.3.4
 _ZNK10ConfigBase12emailAddressEv@Base 4:4.3.4
 _ZNK10ConfigBase12smtpHostnameEv@Base 4:4.3.4
 _ZNK10ConfigBase12smtpUsernameEv@Base 4:4.3.4
 _ZNK10ConfigBase13submitAddressEv@Base 4:4.3.4
 _ZNK10ConfigBase14cacheLocationsEv@Base 4:4.3.4
 _ZNK10ConfigBase14httpSubmitPortEv@Base 4:4.3.4
 _ZNK10ConfigBase14useGlobalEmailEv@Base 4:4.3.4
 _ZNK10ConfigBase16httpSubmitServerEv@Base 4:4.3.4
 _ZNK10ConfigBase18cacheLookupEnabledEv@Base 4:4.3.4
 _ZNK10ConfigBase19freedbLookupEnabledEv@Base 4:4.3.4
 _ZNK10ConfigBase21freedbLookupTransportEv@Base 4:4.3.4
 _ZNK10ConfigBase21freedbSubmitTransportEv@Base 4:4.3.4
 _ZNK10ConfigBase24musicBrainzLookupEnabledEv@Base 4:4.3.4
 _ZNK10ConfigBase4portEv@Base 4:4.3.4
 _ZNK10ConfigBase7replyToEv@Base 4:4.3.4
 _ZNK10ConfigBase8hostnameEv@Base 4:4.3.4
 _ZNK10ConfigBase8smtpPortEv@Base 4:4.3.4
 _ZNK5KCDDB12CDInfoDialog10metaObjectEv@Base 4:4.3.4
 _ZNK5KCDDB12CDInfoDialog4infoEv@Base 4:4.3.4
 _ZNK5KCDDB6CDInfo14numberOfTracksEv@Base 4:4.3.4
 _ZNK5KCDDB6CDInfo3getENS_4TypeE@Base 4:4.3.4
 _ZNK5KCDDB6CDInfo3getERK7QString@Base 4:4.3.4
 _ZNK5KCDDB6CDInfo5trackEi@Base 4:4.3.4
 _ZNK5KCDDB6CDInfo7isValidEv@Base 4:4.3.4
 _ZNK5KCDDB6CDInfo8toStringEb@Base 4:4.3.4
 _ZNK5KCDDB6CDInfoeqERKS0_@Base 4:4.3.4
 _ZNK5KCDDB6CDInfoneERKS0_@Base 4:4.3.4
 _ZNK5KCDDB6Client10metaObjectEv@Base 4:4.3.4
 _ZNK5KCDDB6Client12blockingModeEv@Base 4:4.3.4
 _ZNK5KCDDB6Client14lookupResponseEv@Base 4:4.3.4
 _ZNK5KCDDB6Client6configEv@Base 4:4.3.4
 _ZNK5KCDDB6Genres8cddbListEv@Base 4:4.3.4
 _ZNK5KCDDB6Genres8i18nListEv@Base 4:4.3.4
 _ZNK5KCDDB6Genres9cddb2i18nERK7QString@Base 4:4.3.4
 _ZNK5KCDDB6Genres9i18n2cddbERK7QString@Base 4:4.3.4
 _ZNK5KCDDB9TrackInfo3getENS_4TypeE@Base 4:4.3.4
 _ZNK5KCDDB9TrackInfo3getERK7QString@Base 4:4.3.4
 _ZNK5KCDDB9TrackInfo8toStringEv@Base 4:4.3.4
 _ZNK5KCDDB9TrackInfoeqERKS0_@Base 4:4.3.4
 _ZNK5KCDDB9TrackInfoneERKS0_@Base 4:4.3.4
 (optional=templinst)_ZNSt12_Destroy_auxILb0EE9__destroyIPSt4pairISsSsEEEvT_S5_@Base 4:4.7.4
 (optional=templinst)_ZNSt6vectorIPN11MusicBrainz13ReleaseResultESaIS2_EEaSERKS4_@Base 4:4.5.95
 (optional=templinst)_ZSt8_DestroyIPSt4pairISsSsEEvT_S3_@Base 4:4.6.3
 _ZTI10ConfigBase@Base 4:4.3.4
 _ZTIN5KCDDB12CDInfoDialogE@Base 4:4.3.4
 _ZTIN5KCDDB6CDInfoE@Base 4:4.3.4
 _ZTIN5KCDDB6ClientE@Base 4:4.3.4
 _ZTIN5KCDDB6ConfigE@Base 4:4.3.4
 _ZTIN5KCDDB9TrackInfoE@Base 4:4.3.4
 _ZTS10ConfigBase@Base 4:4.3.4
 _ZTSN5KCDDB12CDInfoDialogE@Base 4:4.3.4
 _ZTSN5KCDDB6CDInfoE@Base 4:4.3.4
 _ZTSN5KCDDB6ClientE@Base 4:4.3.4
 _ZTSN5KCDDB6ConfigE@Base 4:4.3.4
 _ZTSN5KCDDB9TrackInfoE@Base 4:4.3.4
 _ZTV10ConfigBase@Base 4:4.3.4
 _ZTVN5KCDDB12CDInfoDialogE@Base 4:4.3.4
 _ZTVN5KCDDB6CDInfoE@Base 4:4.3.4
 _ZTVN5KCDDB6ClientE@Base 4:4.3.4
 _ZTVN5KCDDB6ConfigE@Base 4:4.3.4
 _ZTVN5KCDDB9TrackInfoE@Base 4:4.3.4
 (c++)"non-virtual thunk to KCDDB::CDInfoDialog::~CDInfoDialog()@Base" 4:4.3.4
libkcompactdisc.so.4 libkcddb4 #MINVER#
 _ZN12KCompactDisc10deviceNameEv@Base 4:4.3.4
 _ZN12KCompactDisc10discArtistEv@Base 4:4.3.4
 _ZN12KCompactDisc10discLengthEv@Base 4:4.3.4
 _ZN12KCompactDisc10discStatusEv@Base 4:4.3.4
 _ZN12KCompactDisc10setBalanceEj@Base 4:4.3.4
 _ZN12KCompactDisc10trackTitleEj@Base 4:4.3.4
 _ZN12KCompactDisc10trackTitleEv@Base 4:4.3.4
 _ZN12KCompactDisc11deviceModelEv@Base 4:4.3.4
 _ZN12KCompactDisc11discChangedEj@Base 4:4.3.4
 _ZN12KCompactDisc11qt_metacallEN11QMetaObject4CallEiPPv@Base 4:4.3.4
 _ZN12KCompactDisc11qt_metacastEPKc@Base 4:4.3.4
 _ZN12KCompactDisc11trackArtistEj@Base 4:4.3.4
 _ZN12KCompactDisc11trackArtistEv@Base 4:4.3.4
 _ZN12KCompactDisc11trackLengthEj@Base 4:4.3.4
 _ZN12KCompactDisc11trackLengthEv@Base 4:4.3.4
 _ZN12KCompactDisc11urlToDeviceERK4KUrl@Base 4:4.3.4
 _ZN12KCompactDisc12audioSystemsEv@Base 4:4.3.4
 _ZN12KCompactDisc12deviceVendorEv@Base 4:4.3.4
 _ZN12KCompactDisc12discPositionEv@Base 4:4.3.4
 _ZN12KCompactDisc12playPositionEj@Base 4:4.3.4
 _ZN12KCompactDisc13discSignatureEv@Base 4:4.3.4
 _ZN12KCompactDisc13trackPositionEv@Base 4:4.3.4
 _ZN12KCompactDisc13volumeChangedEj@Base 4:4.3.4
 _ZN12KCompactDisc14balanceChangedEj@Base 4:4.3.4
 _ZN12KCompactDisc14cdromDeviceUdiERK7QString@Base 4:4.3.4
 _ZN12KCompactDisc14cdromDeviceUrlERK7QString@Base 4:4.3.4
 _ZN12KCompactDisc14deviceRevisionEv@Base 4:4.3.4
 _ZN12KCompactDisc14metadataLookupEv@Base 4:4.3.4
 _ZN12KCompactDisc15discInformationENS_8DiscInfoE@Base 4:4.3.4
 _ZN12KCompactDisc15setLoopPlaylistEb@Base 4:4.3.4
 _ZN12KCompactDisc16cdromDeviceNamesEv@Base 4:4.3.4
 _ZN12KCompactDisc16discStatusStringENS_10DiscStatusE@Base 4:4.3.4
 _ZN12KCompactDisc16staticMetaObjectE@Base 4:4.3.4
 _ZN12KCompactDisc17discStatusChangedENS_10DiscStatusE@Base 4:4.3.4
 _ZN12KCompactDisc17setRandomPlaylistEb@Base 4:4.3.4
 _ZN12KCompactDisc19loopPlaylistChangedEb@Base 4:4.3.4
 _ZN12KCompactDisc19playoutTrackChangedEj@Base 4:4.3.4
 _ZN12KCompactDisc21defaultCdromDeviceUdiEv@Base 4:4.3.4
 _ZN12KCompactDisc21defaultCdromDeviceUrlEv@Base 4:4.3.4
 _ZN12KCompactDisc21randomPlaylistChangedEb@Base 4:4.3.4
 _ZN12KCompactDisc21setAutoMetadataLookupEb@Base 4:4.3.4
 _ZN12KCompactDisc22defaultCdromDeviceNameEv@Base 4:4.3.4
 _ZN12KCompactDisc22playoutPositionChangedEj@Base 4:4.3.4
 _ZN12KCompactDisc4loopEv@Base 4:4.3.4
 _ZN12KCompactDisc4nextEv@Base 4:4.3.4
 _ZN12KCompactDisc4playEv@Base 4:4.3.4
 _ZN12KCompactDisc4prevEv@Base 4:4.3.4
 _ZN12KCompactDisc4stopEv@Base 4:4.3.4
 _ZN12KCompactDisc5ejectEv@Base 4:4.3.4
 _ZN12KCompactDisc5pauseEv@Base 4:4.3.4
 _ZN12KCompactDisc5trackEv@Base 4:4.3.4
 _ZN12KCompactDisc6discIdEv@Base 4:4.3.4
 _ZN12KCompactDisc6randomEv@Base 4:4.3.4
 _ZN12KCompactDisc6tracksEv@Base 4:4.3.4
 _ZN12KCompactDisc7isAudioEj@Base 4:4.3.4
 _ZN12KCompactDisc8isNoDiscEv@Base 4:4.3.4
 _ZN12KCompactDisc8isPausedEv@Base 4:4.3.4
 _ZN12KCompactDisc9deviceUrlEv@Base 4:4.3.4
 _ZN12KCompactDisc9discTitleEv@Base 4:4.3.4
 _ZN12KCompactDisc9doCommandENS_11DiscCommandE@Base 4:4.3.4
 _ZN12KCompactDisc9isPlayingEv@Base 4:4.3.4
 _ZN12KCompactDisc9playTrackEj@Base 4:4.3.4
 _ZN12KCompactDisc9setDeviceERK7QStringjbS2_S2_@Base 4:4.3.4
 _ZN12KCompactDisc9setVolumeEj@Base 4:4.3.4
 _ZN12KCompactDiscC1ENS_15InformationModeE@Base 4:4.3.4
 _ZN12KCompactDiscC2ENS_15InformationModeE@Base 4:4.3.4
 _ZN12KCompactDiscD0Ev@Base 4:4.3.4
 _ZN12KCompactDiscD1Ev@Base 4:4.3.4
 _ZN12KCompactDiscD2Ev@Base 4:4.3.4
 _ZNK12KCompactDisc10metaObjectEv@Base 4:4.3.4
 _ZTI12KCompactDisc@Base 4:4.3.4
 _ZTS12KCompactDisc@Base 4:4.3.4
 _ZTV12KCompactDisc@Base 4:4.3.4
 (arch=linux-any)alsa_close@Base 4:4.3.4
 (arch=linux-any)alsa_open@Base 4:4.3.4
 (arch=linux-any)alsa_play@Base 4:4.3.4
 (arch=linux-any)alsa_stop@Base 4:4.3.4
 (arch=linux-any)buffer_size@Base 4:4.3.4
 (arch=linux-any)buffer_time@Base 4:4.3.4
 cddb_discid@Base 4:4.3.4
 (arch=linux-any)channels@Base 4:4.3.4
 free_cdtext@Base 4:4.3.4
 free_cdtext_info@Base 4:4.3.4
 free_cdtext_info_block@Base 4:4.3.4
 freeup@Base 4:4.3.4
 (arch=linux-any)gen_cdda_close@Base 4:4.3.4
 (arch=linux-any)gen_cdda_init@Base 4:4.3.4
 (arch=linux-any)gen_cdda_open@Base 4:4.3.4
 (arch=linux-any)gen_cdda_read@Base 4:4.3.4
 gen_close@Base 4:4.3.4
 gen_closetray@Base 4:4.3.4
 gen_eject@Base 4:4.3.4
 gen_get_cdlen@Base 4:4.3.4
 gen_get_drive_status@Base 4:4.3.4
 gen_get_trackcount@Base 4:4.3.4
 gen_get_trackinfo@Base 4:4.3.4
 gen_get_volume@Base 4:4.3.4
 gen_init@Base 4:4.3.4
 gen_open@Base 4:4.3.4
 gen_pause@Base 4:4.3.4
 gen_play@Base 4:4.3.4
 gen_resume@Base 4:4.3.4
 gen_scale_volume@Base 4:4.3.4
 gen_scsi@Base 4:4.3.4
 gen_set_volume@Base 4:4.3.4
 gen_stop@Base 4:4.3.4
 gen_unscale_volume@Base 4:4.3.4
 get_data_from_cdtext_pack@Base 4:4.3.4
 get_glob_cdtext@Base 4:4.3.4
 intermittent_dev@Base 4:4.3.4
 malloc_cdtext_info_block@Base 4:4.3.4
 (arch=kfreebsd-amd64 kfreebsd-i386)max_volume@Base 4:4.3.4
 (arch=kfreebsd-amd64 kfreebsd-i386)min_volume@Base 4:4.3.4
 (arch=linux-any)new_rate@Base 4:4.3.4
 (arch=linux-any)period_size@Base 4:4.3.4
 (arch=linux-any)period_time@Base 4:4.3.4
 (arch=linux-any)rate@Base 4:4.3.4
 sendscsi@Base 4:4.3.4
 (arch=linux-any)setup_alsa@Base 4:4.3.4
 setup_soundsystem@Base 4:4.3.4
 sony_fixup@Base 4:4.3.4
 toshiba_fixup@Base 4:4.3.4
 wm_cd_closetray@Base 4:4.3.4
 wm_cd_destroy@Base 4:4.3.4
 wm_cd_eject@Base 4:4.3.4
 wm_cd_get_cdtext@Base 4:4.3.4
 wm_cd_getbalance@Base 4:4.3.4
 wm_cd_getcountoftracks@Base 4:4.3.4
 wm_cd_getcurtrack@Base 4:4.3.4
 wm_cd_getcurtracklen@Base 4:4.3.4
 wm_cd_gettrackdata@Base 4:4.3.4
 wm_cd_gettracklen@Base 4:4.3.4
 wm_cd_gettrackstart@Base 4:4.3.4
 wm_cd_getvolume@Base 4:4.3.4
 wm_cd_init@Base 4:4.3.4
 wm_cd_pause@Base 4:4.3.4
 wm_cd_play@Base 4:4.3.4
 wm_cd_set_verbosity@Base 4:4.3.4
 wm_cd_status@Base 4:4.3.4
 wm_cd_stop@Base 4:4.3.4
 wm_cd_volume@Base 4:4.3.4
 wm_cdda_destroy@Base 4:4.3.4
 wm_cdda_init@Base 4:4.3.4
 wm_cddb_discid@Base 4:4.3.4
 wm_cdtext_info@Base 4:4.3.4
 wm_drive_default_device@Base 4:4.3.4
 wm_drive_model@Base 4:4.3.4
 wm_drive_revision@Base 4:4.3.4
 wm_drive_vendor@Base 4:4.3.4
 wm_get_cur_pos_abs@Base 4:4.3.4
 wm_get_cur_pos_rel@Base 4:4.3.4
 wm_lib_get_verbosity@Base 4:4.3.4
 wm_lib_message@Base 4:4.3.4
 wm_lib_set_verbosity@Base 4:4.3.4
 wm_lib_verbosity@Base 4:4.3.4
 wm_libver_date@Base 4:4.3.4
 wm_libver_major@Base 4:4.3.4
 wm_libver_minor@Base 4:4.3.4
 wm_libver_name@Base 4:4.3.4
 wm_libver_number@Base 4:4.3.4
 wm_libver_pl@Base 4:4.3.4
 wm_libver_string@Base 4:4.3.4
 wm_scsi2_closetray@Base 4:4.3.4
 wm_scsi2_eject@Base 4:4.3.4
 wm_scsi2_get_cdlen@Base 4:4.3.4
 wm_scsi2_get_drive_status@Base 4:4.3.4
 wm_scsi2_get_trackcount@Base 4:4.3.4
 wm_scsi2_get_trackinfo@Base 4:4.3.4
 wm_scsi2_get_volume@Base 4:4.3.4
 wm_scsi2_pause@Base 4:4.3.4
 wm_scsi2_pause_resume@Base 4:4.3.4
 wm_scsi2_play@Base 4:4.3.4
 wm_scsi2_prevent@Base 4:4.3.4
 wm_scsi2_resume@Base 4:4.3.4
 wm_scsi2_set_volume@Base 4:4.3.4
 wm_scsi2_stop@Base 4:4.3.4
 wm_scsi_get_cdtext@Base 4:4.3.4
 wm_scsi_get_drive_type@Base 4:4.3.4
 wm_scsi_mode_select@Base 4:4.3.4
 wm_scsi_mode_sense@Base 4:4.3.4
 wm_scsi_set_speed@Base 4:4.3.4
 wm_strdup@Base 4:4.3.4
 wm_strmcat@Base 4:4.3.4
 wm_strmcpy@Base 4:4.3.4
 wm_susleep@Base 4:4.3.4
