libopenraw.so.1 libopenraw1 #MINVER#
 _Z17bimedian_demosaicPtjj14or_cfa_patternPh@Base 0.0.9
 _ZGVZN7OpenRaw9Internals14RawFileFactory10extensionsEvE18rawExtensionsTable@Base 0.0.9
 _ZGVZN7OpenRaw9Internals14RawFileFactory5tableEvE15rawFactoryTable@Base 0.0.9
 _ZN5Debug5Trace10debugLevelE@Base 0.0.9
 _ZN5Debug5Trace13setDebugLevelE12_debug_level@Base 0.0.9
 _ZN5Debug5Trace5printEi@Base 0.0.9
 _ZN5Debug5TracelsEPKc@Base 0.0.9
 _ZN5Debug5TracelsEPv@Base 0.0.9
 _ZN5Debug5TracelsERKSs@Base 0.0.9
 _ZN5Debug5TracelsEi@Base 0.0.9
 _ZN5boost10shared_ptrIN7OpenRaw9Internals3MRW9DataBlockEED1Ev@Base 0.0.9
 _ZN5boost10shared_ptrIN7OpenRaw9Internals3MRW9DataBlockEED2Ev@Base 0.0.9
 _ZN5boost10shared_ptrIN7OpenRaw9Internals4CIFF4HeapEED1Ev@Base 0.0.9
 _ZN5boost10shared_ptrIN7OpenRaw9Internals4CIFF4HeapEED2Ev@Base 0.0.9
 _ZN5boost10shared_ptrIN7OpenRaw9Internals6IFDDirEED1Ev@Base 0.0.9
 _ZN5boost10shared_ptrIN7OpenRaw9Internals6IFDDirEED2Ev@Base 0.0.9
 _ZN5boost10shared_ptrIN7OpenRaw9Internals8IFDEntryEED1Ev@Base 0.0.9
 _ZN5boost10shared_ptrIN7OpenRaw9Internals8IFDEntryEED2Ev@Base 0.0.9
 _ZN5boost12basic_formatIcSt11char_traitsIcESaIcEE18make_or_reuse_dataEm@Base 0.0.9
 _ZN5boost12basic_formatIcSt11char_traitsIcESaIcEE5clearEv@Base 0.0.9
 _ZN5boost12basic_formatIcSt11char_traitsIcESaIcEE5parseERKSs@Base 0.0.9
 _ZN5boost12basic_formatIcSt11char_traitsIcESaIcEEC1EPKc@Base 0.0.9
 _ZN5boost12basic_formatIcSt11char_traitsIcESaIcEEC2EPKc@Base 0.0.9
 _ZN5boost12basic_formatIcSt11char_traitsIcESaIcEED1Ev@Base 0.0.9
 _ZN5boost12basic_formatIcSt11char_traitsIcESaIcEED2Ev@Base 0.0.9
 _ZN5boost14checked_deleteIN7OpenRaw9Internals4CIFF4HeapEEEvPT_@Base 0.0.9
 _ZN5boost15throw_exceptionINS_17bad_function_callEEEvRKT_@Base 0.0.9
 _ZN5boost15throw_exceptionINS_2io12too_few_argsEEEvRKT_@Base 0.0.9
 _ZN5boost15throw_exceptionINS_2io13too_many_argsEEEvRKT_@Base 0.0.9
 _ZN5boost15throw_exceptionINS_2io17bad_format_stringEEEvRKT_@Base 0.0.9
 _ZN5boost16base_from_memberINS_10shared_ptrINS_2io18basic_altstringbufIcSt11char_traitsIcESaIcEEEEELi0EED1Ev@Base 0.0.9
 _ZN5boost16base_from_memberINS_10shared_ptrINS_2io18basic_altstringbufIcSt11char_traitsIcESaIcEEEEELi0EED2Ev@Base 0.0.9
 _ZN5boost16exception_detail10clone_baseD0Ev@Base 0.0.9
 _ZN5boost16exception_detail10clone_baseD1Ev@Base 0.0.9
 _ZN5boost16exception_detail10clone_baseD2Ev@Base 0.0.9
 _ZN5boost16exception_detail10clone_implINS0_19error_info_injectorINS_17bad_function_callEEEED0Ev@Base 0.0.9
 _ZN5boost16exception_detail10clone_implINS0_19error_info_injectorINS_17bad_function_callEEEED1Ev@Base 0.0.9
 _ZN5boost16exception_detail10clone_implINS0_19error_info_injectorINS_2io12too_few_argsEEEED0Ev@Base 0.0.9
 _ZN5boost16exception_detail10clone_implINS0_19error_info_injectorINS_2io12too_few_argsEEEED1Ev@Base 0.0.9
 _ZN5boost16exception_detail10clone_implINS0_19error_info_injectorINS_2io13too_many_argsEEEED0Ev@Base 0.0.9
 _ZN5boost16exception_detail10clone_implINS0_19error_info_injectorINS_2io13too_many_argsEEEED1Ev@Base 0.0.9
 _ZN5boost16exception_detail10clone_implINS0_19error_info_injectorINS_2io17bad_format_stringEEEED0Ev@Base 0.0.9
 _ZN5boost16exception_detail10clone_implINS0_19error_info_injectorINS_2io17bad_format_stringEEEED1Ev@Base 0.0.9
 _ZN5boost16exception_detail12refcount_ptrINS0_20error_info_containerEE7releaseEv@Base 0.0.9
 _ZN5boost16exception_detail19error_info_injectorINS_17bad_function_callEED0Ev@Base 0.0.9
 _ZN5boost16exception_detail19error_info_injectorINS_17bad_function_callEED1Ev@Base 0.0.9
 _ZN5boost16exception_detail19error_info_injectorINS_17bad_function_callEED2Ev@Base 0.0.9
 _ZN5boost16exception_detail19error_info_injectorINS_2io12too_few_argsEED0Ev@Base 0.0.9
 _ZN5boost16exception_detail19error_info_injectorINS_2io12too_few_argsEED1Ev@Base 0.0.9
 _ZN5boost16exception_detail19error_info_injectorINS_2io12too_few_argsEED2Ev@Base 0.0.9
 _ZN5boost16exception_detail19error_info_injectorINS_2io13too_many_argsEED0Ev@Base 0.0.9
 _ZN5boost16exception_detail19error_info_injectorINS_2io13too_many_argsEED1Ev@Base 0.0.9
 _ZN5boost16exception_detail19error_info_injectorINS_2io13too_many_argsEED2Ev@Base 0.0.9
 _ZN5boost16exception_detail19error_info_injectorINS_2io17bad_format_stringEED0Ev@Base 0.0.9
 _ZN5boost16exception_detail19error_info_injectorINS_2io17bad_format_stringEED1Ev@Base 0.0.9
 _ZN5boost16exception_detail19error_info_injectorINS_2io17bad_format_stringEED2Ev@Base 0.0.9
 _ZN5boost17bad_function_callC1Ev@Base 0.0.9
 _ZN5boost17bad_function_callC2Ev@Base 0.0.9
 _ZN5boost17bad_function_callD0Ev@Base 0.0.9
 _ZN5boost17bad_function_callD1Ev@Base 0.0.9
 _ZN5boost17bad_function_callD2Ev@Base 0.0.9
 _ZN5boost2io12format_errorD0Ev@Base 0.0.9
 _ZN5boost2io12format_errorD1Ev@Base 0.0.9
 _ZN5boost2io12format_errorD2Ev@Base 0.0.9
 _ZN5boost2io12too_few_argsD0Ev@Base 0.0.9
 _ZN5boost2io12too_few_argsD1Ev@Base 0.0.9
 _ZN5boost2io12too_few_argsD2Ev@Base 0.0.9
 _ZN5boost2io13too_many_argsD0Ev@Base 0.0.9
 _ZN5boost2io13too_many_argsD1Ev@Base 0.0.9
 _ZN5boost2io13too_many_argsD2Ev@Base 0.0.9
 _ZN5boost2io17bad_format_stringD0Ev@Base 0.0.9
 _ZN5boost2io17bad_format_stringD1Ev@Base 0.0.9
 _ZN5boost2io17bad_format_stringD2Ev@Base 0.0.9
 _ZN5boost2io18basic_altstringbufIcSt11char_traitsIcESaIcEE12clear_bufferEv@Base 0.0.9
 _ZN5boost2io18basic_altstringbufIcSt11char_traitsIcESaIcEE7seekoffElSt12_Ios_SeekdirSt13_Ios_Openmode@Base 0.0.9
 _ZN5boost2io18basic_altstringbufIcSt11char_traitsIcESaIcEE7seekposESt4fposI11__mbstate_tESt13_Ios_Openmode@Base 0.0.9
 _ZN5boost2io18basic_altstringbufIcSt11char_traitsIcESaIcEE8overflowEi@Base 0.0.9
 _ZN5boost2io18basic_altstringbufIcSt11char_traitsIcESaIcEE9pbackfailEi@Base 0.0.9
 _ZN5boost2io18basic_altstringbufIcSt11char_traitsIcESaIcEE9underflowEv@Base 0.0.9
 _ZN5boost2io18basic_altstringbufIcSt11char_traitsIcESaIcEED0Ev@Base 0.0.9
 _ZN5boost2io18basic_altstringbufIcSt11char_traitsIcESaIcEED1Ev@Base 0.0.9
 _ZN5boost2io18basic_altstringbufIcSt11char_traitsIcESaIcEED2Ev@Base 0.0.9
 _ZN5boost2io22basic_oaltstringstreamIcSt11char_traitsIcESaIcEED0Ev@Base 0.0.9
 _ZN5boost2io22basic_oaltstringstreamIcSt11char_traitsIcESaIcEED1Ev@Base 0.0.9
 _ZN5boost2io6detail11format_itemIcSt11char_traitsIcESaIcEED1Ev@Base 0.0.9
 _ZN5boost2io6detail11format_itemIcSt11char_traitsIcESaIcEED2Ev@Base 0.0.9
 _ZN5boost2io6detail13skip_asteriskIN9__gnu_cxx17__normal_iteratorIPKcSsEESt5ctypeIcEEET_SA_SA_RKT0_@Base 0.0.9
 _ZN5boost2io6detail22parse_printf_directiveIcSt11char_traitsIcESaIcEN9__gnu_cxx17__normal_iteratorIPKcSsEESt5ctypeIcEEEbRT2_RKSD_PNS1_11format_itemIT_T0_T1_EERKT3_mh@Base 0.0.9
 _ZN5boost2io6detail24upper_bound_from_fstringISsSt5ctypeIcEEEiRKT_NS5_10value_typeERKT0_h@Base 0.0.9
 _ZN5boost2io6detail3putIcSt11char_traitsIcESaIcERiEEvT2_RKNS1_11format_itemIT_T0_T1_EERNS_12basic_formatIS9_SA_SB_E11string_typeERNSG_20internal_streambuf_tEPSt6locale@Base 0.0.9
 _ZN5boost2io6detail4feedIcSt11char_traitsIcESaIcERiEERNS_12basic_formatIT_T0_T1_EESC_T2_@Base 0.0.9
 _ZN5boost2io6detail6mk_strIcSt11char_traitsIcESaIcEEEvRSbIT_T0_T1_EPKS6_NS9_9size_typeElS6_St13_Ios_FmtflagsS6_b@Base 0.0.9
 _ZN5boost2io6detail7str2intIlN9__gnu_cxx17__normal_iteratorIPKcSsEESt5ctypeIcEEET0_RKSA_SC_RT_RKT1_@Base 0.0.9
 _ZN5boost4bindIbN7OpenRaw9Internals4CIFF11RecordEntryEtNS_3argILi1EEEtEENS_3_bi6bind_tIT_NS_4_mfi4cmf1IS9_T0_T1_EENS7_9list_av_2IT2_T3_E4typeEEEMSC_KFS9_SD_ESG_SH_@Base 0.0.9
 _ZN5boost6detail12shared_countD1Ev@Base 0.0.9
 _ZN5boost6detail12shared_countD2Ev@Base 0.0.9
 _ZN5boost6detail15sp_counted_base7destroyEv@Base 0.0.9
 _ZN5boost6detail15sp_counted_baseD0Ev@Base 0.0.9
 _ZN5boost6detail15sp_counted_baseD1Ev@Base 0.0.9
 _ZN5boost6detail15sp_counted_baseD2Ev@Base 0.0.9
 _ZN5boost6detail17sp_counted_impl_pIN7OpenRaw9Internals3MRW9DataBlockEE11get_deleterERKSt9type_info@Base 0.0.9
 _ZN5boost6detail17sp_counted_impl_pIN7OpenRaw9Internals3MRW9DataBlockEE7disposeEv@Base 0.0.9
 _ZN5boost6detail17sp_counted_impl_pIN7OpenRaw9Internals3MRW9DataBlockEED0Ev@Base 0.0.9
 _ZN5boost6detail17sp_counted_impl_pIN7OpenRaw9Internals3MRW9DataBlockEED1Ev@Base 0.0.9
 _ZN5boost6detail17sp_counted_impl_pIN7OpenRaw9Internals3MRW9DataBlockEED2Ev@Base 0.0.9
 _ZN5boost6detail17sp_counted_impl_pIN7OpenRaw9Internals4CIFF4HeapEE11get_deleterERKSt9type_info@Base 0.0.9
 _ZN5boost6detail17sp_counted_impl_pIN7OpenRaw9Internals4CIFF4HeapEE7disposeEv@Base 0.0.9
 _ZN5boost6detail17sp_counted_impl_pIN7OpenRaw9Internals4CIFF4HeapEED0Ev@Base 0.0.9
 _ZN5boost6detail17sp_counted_impl_pIN7OpenRaw9Internals4CIFF4HeapEED1Ev@Base 0.0.9
 _ZN5boost6detail17sp_counted_impl_pIN7OpenRaw9Internals4CIFF4HeapEED2Ev@Base 0.0.9
 _ZN5boost6detail17sp_counted_impl_pIN7OpenRaw9Internals6IFDDirEE11get_deleterERKSt9type_info@Base 0.0.9
 _ZN5boost6detail17sp_counted_impl_pIN7OpenRaw9Internals6IFDDirEE7disposeEv@Base 0.0.9
 _ZN5boost6detail17sp_counted_impl_pIN7OpenRaw9Internals6IFDDirEED0Ev@Base 0.0.9
 _ZN5boost6detail17sp_counted_impl_pIN7OpenRaw9Internals6IFDDirEED1Ev@Base 0.0.9
 _ZN5boost6detail17sp_counted_impl_pIN7OpenRaw9Internals6IFDDirEED2Ev@Base 0.0.9
 _ZN5boost6detail17sp_counted_impl_pIN7OpenRaw9Internals8IFDEntryEE11get_deleterERKSt9type_info@Base 0.0.9
 _ZN5boost6detail17sp_counted_impl_pIN7OpenRaw9Internals8IFDEntryEE7disposeEv@Base 0.0.9
 _ZN5boost6detail17sp_counted_impl_pIN7OpenRaw9Internals8IFDEntryEED0Ev@Base 0.0.9
 _ZN5boost6detail17sp_counted_impl_pIN7OpenRaw9Internals8IFDEntryEED1Ev@Base 0.0.9
 _ZN5boost6detail17sp_counted_impl_pIN7OpenRaw9Internals8IFDEntryEED2Ev@Base 0.0.9
 _ZN5boost6detail18sp_counted_impl_pdIPNS_2io18basic_altstringbufIcSt11char_traitsIcESaIcEEENS2_22basic_oaltstringstreamIcS5_S6_E5No_OpEE11get_deleterERKSt9type_info@Base 0.0.9
 _ZN5boost6detail18sp_counted_impl_pdIPNS_2io18basic_altstringbufIcSt11char_traitsIcESaIcEEENS2_22basic_oaltstringstreamIcS5_S6_E5No_OpEE7disposeEv@Base 0.0.9
 _ZN5boost6detail18sp_counted_impl_pdIPNS_2io18basic_altstringbufIcSt11char_traitsIcESaIcEEENS2_22basic_oaltstringstreamIcS5_S6_E5No_OpEED0Ev@Base 0.0.9
 _ZN5boost6detail18sp_counted_impl_pdIPNS_2io18basic_altstringbufIcSt11char_traitsIcESaIcEEENS2_22basic_oaltstringstreamIcS5_S6_E5No_OpEED1Ev@Base 0.0.9
 _ZN5boost6detail18sp_counted_impl_pdIPNS_2io18basic_altstringbufIcSt11char_traitsIcESaIcEEENS2_22basic_oaltstringstreamIcS5_S6_E5No_OpEED2Ev@Base 0.0.9
 _ZN5boost6detail8function15functor_managerINS_3_bi6bind_tIPN7OpenRaw7RawFileEPFS7_PNS5_2IO6StreamEENS3_5list1INS_3argILi1EEEEEEEE6manageERKNS1_15function_bufferERSJ_NS1_30functor_manager_operation_typeE@Base 0.0.9
 _ZN5boost6detail8function16has_empty_targetEz@Base 0.0.9
 _ZN5boost6detail8function21function_obj_invoker1INS_3_bi6bind_tIPN7OpenRaw7RawFileEPFS7_PNS5_2IO6StreamEENS3_5list1INS_3argILi1EEEEEEES7_SA_E6invokeERNS1_15function_bufferESA_@Base 0.0.9
 _ZN5boost7bad_getD0Ev@Base 0.0.9
 _ZN5boost7bad_getD1Ev@Base 0.0.9
 _ZN5boost7bad_getD2Ev@Base 0.0.9
 _ZN5boost7variantISsjNS_6detail7variant5void_ES3_S3_S3_S3_S3_S3_S3_S3_S3_S3_S3_S3_S3_S3_S3_S3_S3_E22internal_apply_visitorINS2_9destroyerEEENT_11result_typeERS7_@Base 0.0.9
 _ZN5boost8functionIFPN7OpenRaw7RawFileEPNS1_2IO6StreamEEED1Ev@Base 0.0.9
 _ZN5boost8functionIFPN7OpenRaw7RawFileEPNS1_2IO6StreamEEED2Ev@Base 0.0.9
 _ZN5boost9function1IPN7OpenRaw7RawFileEPNS1_2IO6StreamEE5clearEv@Base 0.0.9
 _ZN7OpenRaw10BitmapData11setDataTypeE12or_data_type@Base 0.0.9
 _ZN7OpenRaw10BitmapData13setDimensionsEjj@Base 0.0.9
 _ZN7OpenRaw10BitmapData4swapERS0_@Base 0.0.9
 _ZN7OpenRaw10BitmapData6setBpcEj@Base 0.0.9
 _ZN7OpenRaw10BitmapData9allocDataEm@Base 0.0.9
 _ZN7OpenRaw10BitmapDataC1Ev@Base 0.0.9
 _ZN7OpenRaw10BitmapDataC2Ev@Base 0.0.9
 _ZN7OpenRaw10BitmapDataD0Ev@Base 0.0.9
 _ZN7OpenRaw10BitmapDataD1Ev@Base 0.0.9
 _ZN7OpenRaw10BitmapDataD2Ev@Base 0.0.9
 _ZN7OpenRaw2IO11StreamClone4openEv@Base 0.0.9
 _ZN7OpenRaw2IO11StreamClone4readEPvm@Base 0.0.9
 _ZN7OpenRaw2IO11StreamClone4seekEli@Base 0.0.9
 _ZN7OpenRaw2IO11StreamClone5closeEv@Base 0.0.9
 _ZN7OpenRaw2IO11StreamClone8filesizeEv@Base 0.0.9
 _ZN7OpenRaw2IO11StreamCloneC1EPNS0_6StreamEl@Base 0.0.9
 _ZN7OpenRaw2IO11StreamCloneC2EPNS0_6StreamEl@Base 0.0.9
 _ZN7OpenRaw2IO11StreamCloneD0Ev@Base 0.0.9
 _ZN7OpenRaw2IO11StreamCloneD1Ev@Base 0.0.9
 _ZN7OpenRaw2IO11StreamCloneD2Ev@Base 0.0.9
 _ZN7OpenRaw2IO4File4openEv@Base 0.0.9
 _ZN7OpenRaw2IO4File4readEPvm@Base 0.0.9
 _ZN7OpenRaw2IO4File4seekEli@Base 0.0.9
 _ZN7OpenRaw2IO4File5closeEv@Base 0.0.9
 _ZN7OpenRaw2IO4File8filesizeEv@Base 0.0.9
 _ZN7OpenRaw2IO4FileC1EPKc@Base 0.0.9
 _ZN7OpenRaw2IO4FileC2EPKc@Base 0.0.9
 _ZN7OpenRaw2IO4FileD0Ev@Base 0.0.9
 _ZN7OpenRaw2IO4FileD1Ev@Base 0.0.9
 _ZN7OpenRaw2IO4FileD2Ev@Base 0.0.9
 _ZN7OpenRaw2IO6Stream8readByteEv@Base 0.0.9
 _ZN7OpenRaw2IO6StreamC1EPKc@Base 0.0.9
 _ZN7OpenRaw2IO6StreamC2EPKc@Base 0.0.9
 _ZN7OpenRaw2IO6StreamD0Ev@Base 0.0.9
 _ZN7OpenRaw2IO6StreamD1Ev@Base 0.0.9
 _ZN7OpenRaw2IO6StreamD2Ev@Base 0.0.9
 _ZN7OpenRaw2IO9MemStream4openEv@Base 0.0.9
 _ZN7OpenRaw2IO9MemStream4readEPvm@Base 0.0.9
 _ZN7OpenRaw2IO9MemStream4seekEli@Base 0.0.9
 _ZN7OpenRaw2IO9MemStream5closeEv@Base 0.0.9
 _ZN7OpenRaw2IO9MemStream8filesizeEv@Base 0.0.9
 _ZN7OpenRaw2IO9MemStreamC1EPvm@Base 0.0.9
 _ZN7OpenRaw2IO9MemStreamC2EPvm@Base 0.0.9
 _ZN7OpenRaw2IO9MemStreamD0Ev@Base 0.0.9
 _ZN7OpenRaw2IO9MemStreamD1Ev@Base 0.0.9
 _ZN7OpenRaw2IO9MemStreamD2Ev@Base 0.0.9
 _ZN7OpenRaw4initEv@Base 0.0.9
 _ZN7OpenRaw7RawData10cfaPatternEv@Base 0.0.9
 _ZN7OpenRaw7RawData11compressionEv@Base 0.0.9
 _ZN7OpenRaw7RawData13setCfaPatternE14or_cfa_pattern@Base 0.0.9
 _ZN7OpenRaw7RawData13setDimensionsEjj@Base 0.0.9
 _ZN7OpenRaw7RawData14setCompressionEj@Base 0.0.9
 _ZN7OpenRaw7RawData20getAndExtractRawDataEPKcjR8or_error@Base 0.0.9
 _ZN7OpenRaw7RawData3maxEv@Base 0.0.9
 _ZN7OpenRaw7RawData3minEv@Base 0.0.9
 _ZN7OpenRaw7RawData4swapERS0_@Base 0.0.9
 _ZN7OpenRaw7RawData6appendEt@Base 0.0.9
 _ZN7OpenRaw7RawData6setMaxEt@Base 0.0.9
 _ZN7OpenRaw7RawData6setMinEt@Base 0.0.9
 _ZN7OpenRaw7RawData7Private7advanceEm@Base 0.0.9
 _ZN7OpenRaw7RawData7Private7nextRowEv@Base 0.0.9
 _ZN7OpenRaw7RawData7Private9nextSliceEv@Base 0.0.9
 _ZN7OpenRaw7RawData7nextRowEv@Base 0.0.9
 _ZN7OpenRaw7RawData9allocDataEm@Base 0.0.9
 _ZN7OpenRaw7RawData9setSlicesERKSt6vectorItSaItEE@Base 0.0.9
 _ZN7OpenRaw7RawDataC1Ev@Base 0.0.9
 _ZN7OpenRaw7RawDataC2Ev@Base 0.0.9
 _ZN7OpenRaw7RawDataD0Ev@Base 0.0.9
 _ZN7OpenRaw7RawDataD1Ev@Base 0.0.9
 _ZN7OpenRaw7RawDataD2Ev@Base 0.0.9
 _ZN7OpenRaw7RawFile10_setTypeIdEj@Base 0.0.9
 _ZN7OpenRaw7RawFile10getRawDataERNS_7RawDataEj@Base 0.0.9
 _ZN7OpenRaw7RawFile10newRawFileEPKc15or_rawfile_type@Base 0.0.9
 _ZN7OpenRaw7RawFile12getMetaValueEi@Base 0.0.9
 _ZN7OpenRaw7RawFile12getThumbnailEjRNS_9ThumbnailE@Base 0.0.9
 _ZN7OpenRaw7RawFile14fileExtensionsEv@Base 0.0.9
 _ZN7OpenRaw7RawFile14getOrientationEv@Base 0.0.9
 _ZN7OpenRaw7RawFile14identifyBufferEPKhmR15or_rawfile_type@Base 0.0.9
 _ZN7OpenRaw7RawFile16_typeIdFromModelERKSs@Base 0.0.9
 _ZN7OpenRaw7RawFile16getRenderedImageERNS_10BitmapDataEj@Base 0.0.9
 _ZN7OpenRaw7RawFile18listThumbnailSizesEv@Base 0.0.9
 _ZN7OpenRaw7RawFile20newRawFileFromMemoryEPKhj15or_rawfile_type@Base 0.0.9
 _ZN7OpenRaw7RawFile6typeIdEv@Base 0.0.9
 _ZN7OpenRaw7RawFile8identifyEPKc@Base 0.0.9
 _ZN7OpenRaw7RawFile9_setIdMapEPKNS0_12camera_ids_tE@Base 0.0.9
 _ZN7OpenRaw7RawFileC1EPNS_2IO6StreamE15or_rawfile_type@Base 0.0.9
 _ZN7OpenRaw7RawFileC2EPNS_2IO6StreamE15or_rawfile_type@Base 0.0.9
 _ZN7OpenRaw7RawFileD0Ev@Base 0.0.9
 _ZN7OpenRaw7RawFileD1Ev@Base 0.0.9
 _ZN7OpenRaw7RawFileD2Ev@Base 0.0.9
 _ZN7OpenRaw9Internals10FixHuffTblEPNS0_12HuffmanTableE@Base 0.0.9
 _ZN7OpenRaw9Internals10TiffEpFile11_getRawDataERNS_7RawDataEj@Base 0.0.9
 _ZN7OpenRaw9Internals10TiffEpFile13_locateCfaIfdEv@Base 0.0.9
 _ZN7OpenRaw9Internals10TiffEpFile14_locateMainIfdEv@Base 0.0.9
 _ZN7OpenRaw9Internals10TiffEpFileC1EPNS_2IO6StreamE15or_rawfile_type@Base 0.0.9
 _ZN7OpenRaw9Internals10TiffEpFileC2EPNS_2IO6StreamE15or_rawfile_type@Base 0.0.9
 _ZN7OpenRaw9Internals10TiffEpFileD0Ev@Base 0.0.9
 _ZN7OpenRaw9Internals10TiffEpFileD1Ev@Base 0.0.9
 _ZN7OpenRaw9Internals10TiffEpFileD2Ev@Base 0.0.9
 _ZN7OpenRaw9Internals11BitIterator3getEm@Base 0.0.9
 _ZN7OpenRaw9Internals11BitIterator4loadEm@Base 0.0.9
 _ZN7OpenRaw9Internals11BitIteratorC1EPKv@Base 0.0.9
 _ZN7OpenRaw9Internals11BitIteratorC2EPKv@Base 0.0.9
 _ZN7OpenRaw9Internals11IOExceptionD0Ev@Base 0.0.9
 _ZN7OpenRaw9Internals11IOExceptionD1Ev@Base 0.0.9
 _ZN7OpenRaw9Internals11IOExceptionD2Ev@Base 0.0.9
 _ZN7OpenRaw9Internals12DecompressorC1EPNS_2IO6StreamEPNS0_12RawContainerE@Base 0.0.9
 _ZN7OpenRaw9Internals12DecompressorC2EPNS_2IO6StreamEPNS0_12RawContainerE@Base 0.0.9
 _ZN7OpenRaw9Internals12DecompressorD0Ev@Base 0.0.9
 _ZN7OpenRaw9Internals12DecompressorD1Ev@Base 0.0.9
 _ZN7OpenRaw9Internals12DecompressorD2Ev@Base 0.0.9
 _ZN7OpenRaw9Internals12IFDThumbDescD1Ev@Base 0.0.9
 _ZN7OpenRaw9Internals12IFDThumbDescD2Ev@Base 0.0.9
 _ZN7OpenRaw9Internals12IFDTypeTraitISsE3getERNS0_8IFDEntryEjb@Base 0.0.9
 _ZN7OpenRaw9Internals12IFDTypeTraitISsE4sizeE@Base 0.0.9
 _ZN7OpenRaw9Internals12IFDTypeTraitISsE4typeE@Base 0.0.9
 _ZN7OpenRaw9Internals12IFDTypeTraitIhE3getERNS0_8IFDEntryEjb@Base 0.0.9
 _ZN7OpenRaw9Internals12IFDTypeTraitIhE4sizeE@Base 0.0.9
 _ZN7OpenRaw9Internals12IFDTypeTraitIhE4typeE@Base 0.0.9
 _ZN7OpenRaw9Internals12IFDTypeTraitIjE3getERNS0_8IFDEntryEjb@Base 0.0.9
 _ZN7OpenRaw9Internals12IFDTypeTraitIjE4sizeE@Base 0.0.9
 _ZN7OpenRaw9Internals12IFDTypeTraitIjE4typeE@Base 0.0.9
 _ZN7OpenRaw9Internals12IFDTypeTraitItE3getERNS0_8IFDEntryEjb@Base 0.0.9
 _ZN7OpenRaw9Internals12IFDTypeTraitItE4sizeE@Base 0.0.9
 _ZN7OpenRaw9Internals12IFDTypeTraitItE4typeE@Base 0.0.9
 _ZN7OpenRaw9Internals12MRWContainer13isMagicHeaderEPKci@Base 0.0.9
 _ZN7OpenRaw9Internals12MRWContainer17locateDirsPreHookEv@Base 0.0.9
 _ZN7OpenRaw9Internals12MRWContainerC1EPNS_2IO6StreamEl@Base 0.0.9
 _ZN7OpenRaw9Internals12MRWContainerC2EPNS_2IO6StreamEl@Base 0.0.9
 _ZN7OpenRaw9Internals12MRWContainerD0Ev@Base 0.0.9
 _ZN7OpenRaw9Internals12MRWContainerD1Ev@Base 0.0.9
 _ZN7OpenRaw9Internals12MRWContainerD2Ev@Base 0.0.9
 _ZN7OpenRaw9Internals12OrfContainer13isMagicHeaderEPKci@Base 0.0.9
 _ZN7OpenRaw9Internals12OrfContainerC1EPNS_2IO6StreamEl@Base 0.0.9
 _ZN7OpenRaw9Internals12OrfContainerC2EPNS_2IO6StreamEl@Base 0.0.9
 _ZN7OpenRaw9Internals12OrfContainerD0Ev@Base 0.0.9
 _ZN7OpenRaw9Internals12OrfContainerD1Ev@Base 0.0.9
 _ZN7OpenRaw9Internals12OrfContainerD2Ev@Base 0.0.9
 _ZN7OpenRaw9Internals12RawContainer10readUInt16EPNS_2IO6StreamERt@Base 0.0.9
 _ZN7OpenRaw9Internals12RawContainer10readUInt32EPNS_2IO6StreamERj@Base 0.0.9
 _ZN7OpenRaw9Internals12RawContainer8readInt8EPNS_2IO6StreamERa@Base 0.0.9
 _ZN7OpenRaw9Internals12RawContainer9fetchDataEPvlm@Base 0.0.9
 _ZN7OpenRaw9Internals12RawContainer9readInt16EPNS_2IO6StreamERs@Base 0.0.9
 _ZN7OpenRaw9Internals12RawContainer9readInt32EPNS_2IO6StreamERi@Base 0.0.9
 _ZN7OpenRaw9Internals12RawContainer9readUInt8EPNS_2IO6StreamERh@Base 0.0.9
 _ZN7OpenRaw9Internals12RawContainerC1EPNS_2IO6StreamEl@Base 0.0.9
 _ZN7OpenRaw9Internals12RawContainerC2EPNS_2IO6StreamEl@Base 0.0.9
 _ZN7OpenRaw9Internals12RawContainerD0Ev@Base 0.0.9
 _ZN7OpenRaw9Internals12RawContainerD1Ev@Base 0.0.9
 _ZN7OpenRaw9Internals12RawContainerD2Ev@Base 0.0.9
 _ZN7OpenRaw9Internals13CIFFContainer11_readHeaderEv@Base 0.0.9
 _ZN7OpenRaw9Internals13CIFFContainer12getImageSpecEv@Base 0.0.9
 _ZN7OpenRaw9Internals13CIFFContainer13getImagePropsEv@Base 0.0.9
 _ZN7OpenRaw9Internals13CIFFContainer14getCameraPropsEv@Base 0.0.9
 _ZN7OpenRaw9Internals13CIFFContainer4heapEv@Base 0.0.9
 _ZN7OpenRaw9Internals13CIFFContainer9_loadHeapEv@Base 0.0.9
 _ZN7OpenRaw9Internals13CIFFContainerC1EPNS_2IO6StreamE@Base 0.0.9
 _ZN7OpenRaw9Internals13CIFFContainerC2EPNS_2IO6StreamE@Base 0.0.9
 _ZN7OpenRaw9Internals13CIFFContainerD0Ev@Base 0.0.9
 _ZN7OpenRaw9Internals13CIFFContainerD1Ev@Base 0.0.9
 _ZN7OpenRaw9Internals13CIFFContainerD2Ev@Base 0.0.9
 _ZN7OpenRaw9Internals13JFIFContainer11_loadHeaderEv@Base 0.0.9
 _ZN7OpenRaw9Internals13JFIFContainer12j_error_exitEPN4JPEG18jpeg_common_structE@Base 0.0.9
 _ZN7OpenRaw9Internals13JFIFContainer13getDimensionsERjS2_@Base 0.0.9
 _ZN7OpenRaw9Internals13JFIFContainer13j_init_sourceEPN4JPEG22jpeg_decompress_structE@Base 0.0.9
 _ZN7OpenRaw9Internals13JFIFContainer13j_term_sourceEPN4JPEG22jpeg_decompress_structE@Base 0.0.9
 _ZN7OpenRaw9Internals13JFIFContainer17j_skip_input_dataEPN4JPEG22jpeg_decompress_structEl@Base 0.0.9
 _ZN7OpenRaw9Internals13JFIFContainer19getDecompressedDataERNS_10BitmapDataE@Base 0.0.9
 _ZN7OpenRaw9Internals13JFIFContainer19j_fill_input_bufferEPN4JPEG22jpeg_decompress_structE@Base 0.0.9
 _ZN7OpenRaw9Internals13JFIFContainerC1EPNS_2IO6StreamEl@Base 0.0.9
 _ZN7OpenRaw9Internals13JFIFContainerC2EPNS_2IO6StreamEl@Base 0.0.9
 _ZN7OpenRaw9Internals13JFIFContainerD0Ev@Base 0.0.9
 _ZN7OpenRaw9Internals13JFIFContainerD1Ev@Base 0.0.9
 _ZN7OpenRaw9Internals13JFIFContainerD2Ev@Base 0.0.9
 _ZN7OpenRaw9Internals14HuffmanDecoder6decodeERNS0_11BitIteratorE@Base 0.0.9
 _ZN7OpenRaw9Internals14HuffmanDecoderC1EPKNS0_11HuffmanNodeE@Base 0.0.9
 _ZN7OpenRaw9Internals14HuffmanDecoderC2EPKNS0_11HuffmanNodeE@Base 0.0.9
 _ZN7OpenRaw9Internals14NefCfaIterator3getEv@Base 0.0.9
 _ZN7OpenRaw9Internals14NefCfaIteratorC1ERKNS0_15NefDiffIteratorEmmPA2_Kt@Base 0.0.9
 _ZN7OpenRaw9Internals14NefCfaIteratorC2ERKNS0_15NefDiffIteratorEmmPA2_Kt@Base 0.0.9
 _ZN7OpenRaw9Internals14RawFileFactory12registerTypeE15or_rawfile_typeRKN5boost8functionIFPNS_7RawFileEPNS_2IO6StreamEEEEPKc@Base 0.0.9
 _ZN7OpenRaw9Internals14RawFileFactory14fileExtensionsEv@Base 0.0.9
 _ZN7OpenRaw9Internals14RawFileFactory14unRegisterTypeE15or_rawfile_type@Base 0.0.9
 _ZN7OpenRaw9Internals14RawFileFactoryC1E15or_rawfile_typeRKN5boost8functionIFPNS_7RawFileEPNS_2IO6StreamEEEEPKc@Base 0.0.9
 _ZN7OpenRaw9Internals14RawFileFactoryC2E15or_rawfile_typeRKN5boost8functionIFPNS_7RawFileEPNS_2IO6StreamEEEEPKc@Base 0.0.9
 _ZN7OpenRaw9Internals15CrwDecompressor10decompressEPNS_7RawDataE@Base 0.0.9
 _ZN7OpenRaw9Internals15CrwDecompressor11init_tablesEj@Base 0.0.9
 _ZN7OpenRaw9Internals15CrwDecompressor12make_decoderEPNS1_8decode_tEPKhi@Base 0.0.9
 _ZN7OpenRaw9Internals15CrwDecompressor7getbitsEPNS_2IO6StreamEi@Base 0.0.9
 _ZN7OpenRaw9Internals15CrwDecompressorC1EPNS_2IO6StreamEPNS0_12RawContainerE@Base 0.0.9
 _ZN7OpenRaw9Internals15CrwDecompressorC2EPNS_2IO6StreamEPNS0_12RawContainerE@Base 0.0.9
 _ZN7OpenRaw9Internals15CrwDecompressorD0Ev@Base 0.0.9
 _ZN7OpenRaw9Internals15CrwDecompressorD1Ev@Base 0.0.9
 _ZN7OpenRaw9Internals15CrwDecompressorD2Ev@Base 0.0.9
 _ZN7OpenRaw9Internals15NefDiffIterator10Lossy12BitE@Base 0.0.9
 _ZN7OpenRaw9Internals15NefDiffIterator13LossLess14BitE@Base 0.0.9
 _ZN7OpenRaw9Internals15NefDiffIterator3getEv@Base 0.0.9
 _ZN7OpenRaw9Internals15NefDiffIteratorC1EPKNS0_11HuffmanNodeEPKv@Base 0.0.9
 _ZN7OpenRaw9Internals15NefDiffIteratorC2EPKNS0_11HuffmanNodeEPKv@Base 0.0.9
 _ZN7OpenRaw9Internals15TooBigExceptionD0Ev@Base 0.0.9
 _ZN7OpenRaw9Internals15TooBigExceptionD1Ev@Base 0.0.9
 _ZN7OpenRaw9Internals15TooBigExceptionD2Ev@Base 0.0.9
 _ZN7OpenRaw9Internals16BadTypeExceptionD0Ev@Base 0.0.9
 _ZN7OpenRaw9Internals16BadTypeExceptionD1Ev@Base 0.0.9
 _ZN7OpenRaw9Internals16BadTypeExceptionD2Ev@Base 0.0.9
 _ZN7OpenRaw9Internals16IFDFileContainer11_locateDirsEv@Base 0.0.9
 _ZN7OpenRaw9Internals16IFDFileContainer11directoriesEv@Base 0.0.9
 _ZN7OpenRaw9Internals16IFDFileContainer12setDirectoryEi@Base 0.0.9
 _ZN7OpenRaw9Internals16IFDFileContainer13isMagicHeaderEPKci@Base 0.0.9
 _ZN7OpenRaw9Internals16IFDFileContainer16countDirectoriesEv@Base 0.0.9
 _ZN7OpenRaw9Internals16IFDFileContainer17locateDirsPreHookEv@Base 0.0.9
 _ZN7OpenRaw9Internals16IFDFileContainer20getDirectoryDataSizeEv@Base 0.0.9
 _ZN7OpenRaw9Internals16IFDFileContainerC1EPNS_2IO6StreamEl@Base 0.0.9
 _ZN7OpenRaw9Internals16IFDFileContainerC2EPNS_2IO6StreamEl@Base 0.0.9
 _ZN7OpenRaw9Internals16IFDFileContainerD0Ev@Base 0.0.9
 _ZN7OpenRaw9Internals16IFDFileContainerD1Ev@Base 0.0.9
 _ZN7OpenRaw9Internals16IFDFileContainerD2Ev@Base 0.0.9
 _ZN7OpenRaw9Internals17DecodingExceptionC1ERKSs@Base 0.0.9
 _ZN7OpenRaw9Internals17DecodingExceptionC2ERKSs@Base 0.0.9
 _ZN7OpenRaw9Internals17DecodingExceptionD0Ev@Base 0.0.9
 _ZN7OpenRaw9Internals17DecodingExceptionD1Ev@Base 0.0.9
 _ZN7OpenRaw9Internals17DecodingExceptionD2Ev@Base 0.0.9
 _ZN7OpenRaw9Internals17LJpegDecompressor10decompressEPNS_7RawDataE@Base 0.0.9
 _ZN7OpenRaw9Internals17LJpegDecompressor11DecodeImageEPNS0_14DecompressInfoE@Base 0.0.9
 _ZN7OpenRaw9Internals17LJpegDecompressor13ProcessTablesEPNS0_14DecompressInfoE@Base 0.0.9
 _ZN7OpenRaw9Internals17LJpegDecompressor13fillBitBufferEPNS_2IO6StreamEt@Base 0.0.9
 _ZN7OpenRaw9Internals17LJpegDecompressor14DecodeFirstRowEPNS0_14DecompressInfoEPPs@Base 0.0.9
 _ZN7OpenRaw9Internals17LJpegDecompressor14ProcessRestartEPNS0_14DecompressInfoE@Base 0.0.9
 _ZN7OpenRaw9Internals17LJpegDecompressor14ReadFileHeaderEPNS0_14DecompressInfoE@Base 0.0.9
 _ZN7OpenRaw9Internals17LJpegDecompressor14ReadScanHeaderEPNS0_14DecompressInfoE@Base 0.0.9
 _ZN7OpenRaw9Internals17LJpegDecompressor15HuffDecoderInitEPNS0_14DecompressInfoE@Base 0.0.9
 _ZN7OpenRaw9Internals17LJpegDecompressor17DecoderStructInitEPNS0_14DecompressInfoE@Base 0.0.9
 _ZN7OpenRaw9Internals17LJpegDecompressor6GetDhtEPNS0_14DecompressInfoE@Base 0.0.9
 _ZN7OpenRaw9Internals17LJpegDecompressor6GetDriEPNS0_14DecompressInfoE@Base 0.0.9
 _ZN7OpenRaw9Internals17LJpegDecompressor6GetSofEPNS0_14DecompressInfoE@Base 0.0.9
 _ZN7OpenRaw9Internals17LJpegDecompressor6GetSosEPNS0_14DecompressInfoE@Base 0.0.9
 _ZN7OpenRaw9Internals17LJpegDecompressor9setSlicesERKSt6vectorItSaItEE@Base 0.0.9
 _ZN7OpenRaw9Internals17LJpegDecompressorC1EPNS_2IO6StreamEPNS0_12RawContainerE@Base 0.0.9
 _ZN7OpenRaw9Internals17LJpegDecompressorC2EPNS_2IO6StreamEPNS0_12RawContainerE@Base 0.0.9
 _ZN7OpenRaw9Internals17LJpegDecompressorD0Ev@Base 0.0.9
 _ZN7OpenRaw9Internals17LJpegDecompressorD1Ev@Base 0.0.9
 _ZN7OpenRaw9Internals17LJpegDecompressorD2Ev@Base 0.0.9
 _ZN7OpenRaw9Internals19OutOfRangeExceptionD0Ev@Base 0.0.9
 _ZN7OpenRaw9Internals19OutOfRangeExceptionD1Ev@Base 0.0.9
 _ZN7OpenRaw9Internals19OutOfRangeExceptionD2Ev@Base 0.0.9
 _ZN7OpenRaw9Internals3MRW9DataBlock10string_valEl@Base 0.0.9
 _ZN7OpenRaw9Internals3MRW9DataBlock10uint16_valEl@Base 0.0.9
 _ZN7OpenRaw9Internals3MRW9DataBlock8int8_valEl@Base 0.0.9
 _ZN7OpenRaw9Internals3MRW9DataBlock9uint8_valEl@Base 0.0.9
 _ZN7OpenRaw9Internals3MRW9DataBlockC1ElPNS0_12MRWContainerE@Base 0.0.9
 _ZN7OpenRaw9Internals3MRW9DataBlockC2ElPNS0_12MRWContainerE@Base 0.0.9
 _ZN7OpenRaw9Internals4CIFF11RecordEntry8readFromEPNS0_13CIFFContainerE@Base 0.0.9
 _ZN7OpenRaw9Internals4CIFF11RecordEntryC1Ev@Base 0.0.9
 _ZN7OpenRaw9Internals4CIFF11RecordEntryC2Ev@Base 0.0.9
 _ZN7OpenRaw9Internals4CIFF14HeapFileHeader8readFromEPNS0_13CIFFContainerE@Base 0.0.9
 _ZN7OpenRaw9Internals4CIFF4Heap12_loadRecordsEv@Base 0.0.9
 _ZN7OpenRaw9Internals4CIFF4Heap7recordsEv@Base 0.0.9
 _ZN7OpenRaw9Internals4CIFF4HeapC1EllPNS0_13CIFFContainerE@Base 0.0.9
 _ZN7OpenRaw9Internals4CIFF4HeapC2EllPNS0_13CIFFContainerE@Base 0.0.9
 _ZN7OpenRaw9Internals4CIFF9ImageSpec8readFromElPNS0_13CIFFContainerE@Base 0.0.9
 _ZN7OpenRaw9Internals6IFDDir10getExifIFDEv@Base 0.0.9
 _ZN7OpenRaw9Internals6IFDDir10getSubIFDsERSt6vectorIN5boost10shared_ptrIS1_EESaIS5_EE@Base 0.0.9
 _ZN7OpenRaw9Internals6IFDDir11isThumbnailclERKN5boost10shared_ptrIS1_EE@Base 0.0.9
 _ZN7OpenRaw9Internals6IFDDir15getIntegerValueEtRj@Base 0.0.9
 _ZN7OpenRaw9Internals6IFDDir4loadEv@Base 0.0.9
 _ZN7OpenRaw9Internals6IFDDir7nextIFDEv@Base 0.0.9
 _ZN7OpenRaw9Internals6IFDDir9isPrimaryclERKN5boost10shared_ptrIS1_EE@Base 0.0.9
 _ZN7OpenRaw9Internals6IFDDirC1ElRNS0_16IFDFileContainerE@Base 0.0.9
 _ZN7OpenRaw9Internals6IFDDirC2ElRNS0_16IFDFileContainerE@Base 0.0.9
 _ZN7OpenRaw9Internals6IFDDirD0Ev@Base 0.0.9
 _ZN7OpenRaw9Internals6IFDDirD1Ev@Base 0.0.9
 _ZN7OpenRaw9Internals6IFDDirD2Ev@Base 0.0.9
 _ZN7OpenRaw9Internals6Unpack10block_sizeEv@Base 0.0.9
 _ZN7OpenRaw9Internals6Unpack15unpack_be12to16EPhPKhm@Base 0.0.9
 _ZN7OpenRaw9Internals6UnpackC1Ejj@Base 0.0.9
 _ZN7OpenRaw9Internals6UnpackC2Ejj@Base 0.0.9
 _ZN7OpenRaw9Internals7ARWFile11_getRawDataERNS_7RawDataEj@Base 0.0.9
 _ZN7OpenRaw9Internals7ARWFile13_locateCfaIfdEv@Base 0.0.9
 _ZN7OpenRaw9Internals7ARWFile14_locateMainIfdEv@Base 0.0.9
 _ZN7OpenRaw9Internals7ARWFile5s_defE@Base 0.0.9
 _ZN7OpenRaw9Internals7ARWFile7factoryEPNS_2IO6StreamE@Base 0.0.9
 _ZN7OpenRaw9Internals7ARWFileC1EPNS_2IO6StreamE@Base 0.0.9
 _ZN7OpenRaw9Internals7ARWFileC2EPNS_2IO6StreamE@Base 0.0.9
 _ZN7OpenRaw9Internals7ARWFileD0Ev@Base 0.0.9
 _ZN7OpenRaw9Internals7ARWFileD1Ev@Base 0.0.9
 _ZN7OpenRaw9Internals7ARWFileD2Ev@Base 0.0.9
 _ZN7OpenRaw9Internals7CRWFile11_getRawDataERNS_7RawDataEj@Base 0.0.9
 _ZN7OpenRaw9Internals7CRWFile11_identifyIdEv@Base 0.0.9
 _ZN7OpenRaw9Internals7CRWFile13_getMetaValueEi@Base 0.0.9
 _ZN7OpenRaw9Internals7CRWFile13_getThumbnailEjRNS_9ThumbnailE@Base 0.0.9
 _ZN7OpenRaw9Internals7CRWFile19_enumThumbnailSizesERSt6vectorIjSaIjEE@Base 0.0.9
 _ZN7OpenRaw9Internals7CRWFile5s_defE@Base 0.0.9
 _ZN7OpenRaw9Internals7CRWFile7factoryEPNS_2IO6StreamE@Base 0.0.9
 _ZN7OpenRaw9Internals7CRWFileC1EPNS_2IO6StreamE@Base 0.0.9
 _ZN7OpenRaw9Internals7CRWFileC2EPNS_2IO6StreamE@Base 0.0.9
 _ZN7OpenRaw9Internals7CRWFileD0Ev@Base 0.0.9
 _ZN7OpenRaw9Internals7CRWFileD1Ev@Base 0.0.9
 _ZN7OpenRaw9Internals7CRWFileD2Ev@Base 0.0.9
 _ZN7OpenRaw9Internals7Cr2File11_getRawDataERNS_7RawDataEj@Base 0.0.9
 _ZN7OpenRaw9Internals7Cr2File13_locateCfaIfdEv@Base 0.0.9
 _ZN7OpenRaw9Internals7Cr2File14_locateMainIfdEv@Base 0.0.9
 _ZN7OpenRaw9Internals7Cr2File5s_defE@Base 0.0.9
 _ZN7OpenRaw9Internals7Cr2File7factoryEPNS_2IO6StreamE@Base 0.0.9
 _ZN7OpenRaw9Internals7Cr2FileC1EPNS_2IO6StreamE@Base 0.0.9
 _ZN7OpenRaw9Internals7Cr2FileC2EPNS_2IO6StreamE@Base 0.0.9
 _ZN7OpenRaw9Internals7Cr2FileD0Ev@Base 0.0.9
 _ZN7OpenRaw9Internals7Cr2FileD1Ev@Base 0.0.9
 _ZN7OpenRaw9Internals7Cr2FileD2Ev@Base 0.0.9
 _ZN7OpenRaw9Internals7DNGFile11_getRawDataERNS_7RawDataEj@Base 0.0.9
 _ZN7OpenRaw9Internals7DNGFile5s_defE@Base 0.0.9
 _ZN7OpenRaw9Internals7DNGFile7factoryEPNS_2IO6StreamE@Base 0.0.9
 _ZN7OpenRaw9Internals7DNGFileC1EPNS_2IO6StreamE@Base 0.0.9
 _ZN7OpenRaw9Internals7DNGFileC2EPNS_2IO6StreamE@Base 0.0.9
 _ZN7OpenRaw9Internals7DNGFileD0Ev@Base 0.0.9
 _ZN7OpenRaw9Internals7DNGFileD1Ev@Base 0.0.9
 _ZN7OpenRaw9Internals7DNGFileD2Ev@Base 0.0.9
 _ZN7OpenRaw9Internals7ERFFile11_getRawDataERNS_7RawDataEj@Base 0.0.9
 _ZN7OpenRaw9Internals7ERFFile5s_defE@Base 0.0.9
 _ZN7OpenRaw9Internals7ERFFile7factoryEPNS_2IO6StreamE@Base 0.0.9
 _ZN7OpenRaw9Internals7ERFFileC1EPNS_2IO6StreamE@Base 0.0.9
 _ZN7OpenRaw9Internals7ERFFileC2EPNS_2IO6StreamE@Base 0.0.9
 _ZN7OpenRaw9Internals7ERFFileD0Ev@Base 0.0.9
 _ZN7OpenRaw9Internals7ERFFileD1Ev@Base 0.0.9
 _ZN7OpenRaw9Internals7ERFFileD2Ev@Base 0.0.9
 _ZN7OpenRaw9Internals7IFDFile11_identifyIdEv@Base 0.0.9
 _ZN7OpenRaw9Internals7IFDFile13_getMetaValueEi@Base 0.0.9
 _ZN7OpenRaw9Internals7IFDFile13_getThumbnailEjRNS_9ThumbnailE@Base 0.0.9
 _ZN7OpenRaw9Internals7IFDFile14_locateExifIfdEv@Base 0.0.9
 _ZN7OpenRaw9Internals7IFDFile16_locateThumbnailERKN5boost10shared_ptrINS0_6IFDDirEEERSt6vectorIjSaIjEE@Base 0.0.9
 _ZN7OpenRaw9Internals7IFDFile18_getRawDataFromDirERNS_7RawDataERN5boost10shared_ptrINS0_6IFDDirEEE@Base 0.0.9
 _ZN7OpenRaw9Internals7IFDFile19_enumThumbnailSizesERSt6vectorIjSaIjEE@Base 0.0.9
 _ZN7OpenRaw9Internals7IFDFileC1EPNS_2IO6StreamE15or_rawfile_typeb@Base 0.0.9
 _ZN7OpenRaw9Internals7IFDFileC2EPNS_2IO6StreamE15or_rawfile_typeb@Base 0.0.9
 _ZN7OpenRaw9Internals7IFDFileD0Ev@Base 0.0.9
 _ZN7OpenRaw9Internals7IFDFileD1Ev@Base 0.0.9
 _ZN7OpenRaw9Internals7IFDFileD2Ev@Base 0.0.9
 _ZN7OpenRaw9Internals7MRWFile11_getRawDataERNS_7RawDataEj@Base 0.0.9
 _ZN7OpenRaw9Internals7MRWFile11_identifyIdEv@Base 0.0.9
 _ZN7OpenRaw9Internals7MRWFile13_getThumbnailEjRNS_9ThumbnailE@Base 0.0.9
 _ZN7OpenRaw9Internals7MRWFile13_locateCfaIfdEv@Base 0.0.9
 _ZN7OpenRaw9Internals7MRWFile14_locateMainIfdEv@Base 0.0.9
 _ZN7OpenRaw9Internals7MRWFile19_enumThumbnailSizesERSt6vectorIjSaIjEE@Base 0.0.9
 _ZN7OpenRaw9Internals7MRWFile5s_defE@Base 0.0.9
 _ZN7OpenRaw9Internals7MRWFile7factoryEPNS_2IO6StreamE@Base 0.0.9
 _ZN7OpenRaw9Internals7MRWFileC1EPNS_2IO6StreamE@Base 0.0.9
 _ZN7OpenRaw9Internals7MRWFileC2EPNS_2IO6StreamE@Base 0.0.9
 _ZN7OpenRaw9Internals7MRWFileD0Ev@Base 0.0.9
 _ZN7OpenRaw9Internals7MRWFileD1Ev@Base 0.0.9
 _ZN7OpenRaw9Internals7MRWFileD2Ev@Base 0.0.9
 _ZN7OpenRaw9Internals7NEFFile11_getRawDataERNS_7RawDataEj@Base 0.0.9
 _ZN7OpenRaw9Internals7NEFFile12isCompressedERNS0_12RawContainerEj@Base 0.0.9
 _ZN7OpenRaw9Internals7NEFFile19_decompressIfNeededERNS_7RawDataEj@Base 0.0.9
 _ZN7OpenRaw9Internals7NEFFile20_getCompressionCurveERNS_7RawDataERNS1_18NEFCompressionInfoE@Base 0.0.9
 _ZN7OpenRaw9Internals7NEFFile25_decompressNikonQuantizedERNS_7RawDataE@Base 0.0.9
 _ZN7OpenRaw9Internals7NEFFile5s_defE@Base 0.0.9
 _ZN7OpenRaw9Internals7NEFFile7factoryEPNS_2IO6StreamE@Base 0.0.9
 _ZN7OpenRaw9Internals7NEFFileC1EPNS_2IO6StreamE@Base 0.0.9
 _ZN7OpenRaw9Internals7NEFFileC2EPNS_2IO6StreamE@Base 0.0.9
 _ZN7OpenRaw9Internals7NEFFileD0Ev@Base 0.0.9
 _ZN7OpenRaw9Internals7NEFFileD1Ev@Base 0.0.9
 _ZN7OpenRaw9Internals7NEFFileD2Ev@Base 0.0.9
 _ZN7OpenRaw9Internals7OrfFile11_getRawDataERNS_7RawDataEj@Base 0.0.9
 _ZN7OpenRaw9Internals7OrfFile13_locateCfaIfdEv@Base 0.0.9
 _ZN7OpenRaw9Internals7OrfFile14_locateMainIfdEv@Base 0.0.9
 _ZN7OpenRaw9Internals7OrfFile5s_defE@Base 0.0.9
 _ZN7OpenRaw9Internals7OrfFile7factoryEPNS_2IO6StreamE@Base 0.0.9
 _ZN7OpenRaw9Internals7OrfFileC1EPNS_2IO6StreamE@Base 0.0.9
 _ZN7OpenRaw9Internals7OrfFileC2EPNS_2IO6StreamE@Base 0.0.9
 _ZN7OpenRaw9Internals7OrfFileD0Ev@Base 0.0.9
 _ZN7OpenRaw9Internals7OrfFileD1Ev@Base 0.0.9
 _ZN7OpenRaw9Internals7OrfFileD2Ev@Base 0.0.9
 _ZN7OpenRaw9Internals7PEFFile11_getRawDataERNS_7RawDataEj@Base 0.0.9
 _ZN7OpenRaw9Internals7PEFFile13_locateCfaIfdEv@Base 0.0.9
 _ZN7OpenRaw9Internals7PEFFile14_locateMainIfdEv@Base 0.0.9
 _ZN7OpenRaw9Internals7PEFFile5s_defE@Base 0.0.9
 _ZN7OpenRaw9Internals7PEFFile7factoryEPNS_2IO6StreamE@Base 0.0.9
 _ZN7OpenRaw9Internals7PEFFileC1EPNS_2IO6StreamE@Base 0.0.9
 _ZN7OpenRaw9Internals7PEFFileC2EPNS_2IO6StreamE@Base 0.0.9
 _ZN7OpenRaw9Internals7PEFFileD0Ev@Base 0.0.9
 _ZN7OpenRaw9Internals7PEFFileD1Ev@Base 0.0.9
 _ZN7OpenRaw9Internals7PEFFileD2Ev@Base 0.0.9
 _ZN7OpenRaw9Internals8IFDEntry8loadDataEm@Base 0.0.9
 _ZN7OpenRaw9Internals8IFDEntryC1EtsijRNS0_16IFDFileContainerE@Base 0.0.9
 _ZN7OpenRaw9Internals8IFDEntryC2EtsijRNS0_16IFDFileContainerE@Base 0.0.9
 _ZN7OpenRaw9Internals8IFDEntryD0Ev@Base 0.0.9
 _ZN7OpenRaw9Internals8IFDEntryD1Ev@Base 0.0.9
 _ZN7OpenRaw9Internals8IFDEntryD2Ev@Base 0.0.9
 _ZN7OpenRaw9Internals9ExceptionD0Ev@Base 0.0.9
 _ZN7OpenRaw9Internals9ExceptionD1Ev@Base 0.0.9
 _ZN7OpenRaw9Internals9ExceptionD2Ev@Base 0.0.9
 _ZN7OpenRaw9MetaValueC1ERKN5boost10shared_ptrINS_9Internals8IFDEntryEEE@Base 0.0.9
 _ZN7OpenRaw9MetaValueC1ERKN5boost7variantISsjNS1_6detail7variant5void_ES5_S5_S5_S5_S5_S5_S5_S5_S5_S5_S5_S5_S5_S5_S5_S5_S5_EE@Base 0.0.9
 _ZN7OpenRaw9MetaValueC1ERKS0_@Base 0.0.9
 _ZN7OpenRaw9MetaValueC2ERKN5boost10shared_ptrINS_9Internals8IFDEntryEEE@Base 0.0.9
 _ZN7OpenRaw9MetaValueC2ERKN5boost7variantISsjNS1_6detail7variant5void_ES5_S5_S5_S5_S5_S5_S5_S5_S5_S5_S5_S5_S5_S5_S5_S5_S5_EE@Base 0.0.9
 _ZN7OpenRaw9MetaValueC2ERKS0_@Base 0.0.9
 _ZN7OpenRaw9Thumbnail22getAndExtractThumbnailEPKcjR8or_error@Base 0.0.9
 _ZN7OpenRaw9ThumbnailC1Ev@Base 0.0.9
 _ZN7OpenRaw9ThumbnailC2Ev@Base 0.0.9
 _ZN7OpenRaw9ThumbnailD0Ev@Base 0.0.9
 _ZN7OpenRaw9ThumbnailD1Ev@Base 0.0.9
 _ZN7OpenRaw9ThumbnailD2Ev@Base 0.0.9
 _ZNK5boost12basic_formatIcSt11char_traitsIcESaIcEE3strEv@Base 0.0.9
 _ZNK5boost12basic_formatIcSt11char_traitsIcESaIcEE6getlocEv@Base 0.0.9
 _ZNK5boost15optional_detail13optional_baseISt6localeE14is_initializedEv@Base 0.0.9
 _ZNK5boost16exception_detail10clone_implINS0_19error_info_injectorINS_17bad_function_callEEEE5cloneEv@Base 0.0.9
 _ZNK5boost16exception_detail10clone_implINS0_19error_info_injectorINS_17bad_function_callEEEE7rethrowEv@Base 0.0.9
 _ZNK5boost16exception_detail10clone_implINS0_19error_info_injectorINS_2io12too_few_argsEEEE5cloneEv@Base 0.0.9
 _ZNK5boost16exception_detail10clone_implINS0_19error_info_injectorINS_2io12too_few_argsEEEE7rethrowEv@Base 0.0.9
 _ZNK5boost16exception_detail10clone_implINS0_19error_info_injectorINS_2io13too_many_argsEEEE5cloneEv@Base 0.0.9
 _ZNK5boost16exception_detail10clone_implINS0_19error_info_injectorINS_2io13too_many_argsEEEE7rethrowEv@Base 0.0.9
 _ZNK5boost16exception_detail10clone_implINS0_19error_info_injectorINS_2io17bad_format_stringEEEE5cloneEv@Base 0.0.9
 _ZNK5boost16exception_detail10clone_implINS0_19error_info_injectorINS_2io17bad_format_stringEEEE7rethrowEv@Base 0.0.9
 _ZNK5boost2io12format_error4whatEv@Base 0.0.9
 _ZNK5boost2io12too_few_args4whatEv@Base 0.0.9
 _ZNK5boost2io13too_many_args4whatEv@Base 0.0.9
 _ZNK5boost2io17bad_format_string4whatEv@Base 0.0.9
 _ZNK5boost2io6detail19stream_format_stateIcSt11char_traitsIcEE8apply_onERSt9basic_iosIcS4_EPSt6locale@Base 0.0.9
 _ZNK5boost7bad_get4whatEv@Base 0.0.9
 _ZNK7OpenRaw10BitmapData1xEv@Base 0.0.9
 _ZNK7OpenRaw10BitmapData1yEv@Base 0.0.9
 _ZNK7OpenRaw10BitmapData3bpcEv@Base 0.0.9
 _ZNK7OpenRaw10BitmapData4dataEv@Base 0.0.9
 _ZNK7OpenRaw10BitmapData4sizeEv@Base 0.0.9
 _ZNK7OpenRaw10BitmapData8dataTypeEv@Base 0.0.9
 _ZNK7OpenRaw7RawFile4typeEv@Base 0.0.9
 _ZNK7OpenRaw9Internals13CIFFContainer16getRawDataRecordEv@Base 0.0.9
 _ZNK7OpenRaw9Internals14HuffmanDecoder10printTableEv@Base 0.0.9
 _ZNK7OpenRaw9Internals14HuffmanDecoder11printTable_ESsj@Base 0.0.9
 _ZNK7OpenRaw9Internals4CIFF11RecordEntry3isAEt@Base 0.0.9
 _ZNK7OpenRaw9Internals4CIFF11RecordEntry9fetchDataEPNS1_4HeapEPvm@Base 0.0.9
 _ZNK7OpenRaw9Internals4CIFF9ImageSpec15exifOrientationEv@Base 0.0.9
 _ZNK7OpenRaw9Internals6IFDDir8getEntryEt@Base 0.0.9
 _ZNK7OpenRaw9Internals6IFDDir9getSubIFDEj@Base 0.0.9
 _ZNK7OpenRaw9Internals8IFDEntry6endianEv@Base 0.0.9
 _ZNK7OpenRaw9Internals9Exception4whatEv@Base 0.0.9
 _ZNK7OpenRaw9MetaValue10getIntegerEv@Base 0.0.9
 _ZNK7OpenRaw9MetaValue9getStringEv@Base 0.0.9
 _ZNSt12_Destroy_auxILb0EE9__destroyIPN5boost2io6detail11format_itemIcSt11char_traitsIcESaIcEEEEEvT_SB_@Base 0.0.9
 _ZNSt3mapI15or_rawfile_typeN5boost8functionIFPN7OpenRaw7RawFileEPNS3_2IO6StreamEEEESt4lessIS0_ESaISt4pairIKS0_SA_EEED1Ev@Base 0.0.9
 _ZNSt3mapI15or_rawfile_typeN5boost8functionIFPN7OpenRaw7RawFileEPNS3_2IO6StreamEEEESt4lessIS0_ESaISt4pairIKS0_SA_EEED2Ev@Base 0.0.9
 _ZNSt3mapISs15or_rawfile_typeSt4lessISsESaISt4pairIKSsS0_EEED1Ev@Base 0.0.9
 _ZNSt3mapISs15or_rawfile_typeSt4lessISsESaISt4pairIKSsS0_EEED2Ev@Base 0.0.9
 _ZNSt4pairIKtN5boost10shared_ptrIN7OpenRaw9Internals8IFDEntryEEEED1Ev@Base 0.0.9
 _ZNSt4pairIKtN5boost10shared_ptrIN7OpenRaw9Internals8IFDEntryEEEED2Ev@Base 0.0.9
 _ZNSt6vectorIN5boost10shared_ptrIN7OpenRaw9Internals6IFDDirEEESaIS5_EE13_M_insert_auxEN9__gnu_cxx17__normal_iteratorIPS5_S7_EERKS5_@Base 0.0.9
 _ZNSt6vectorIN5boost10shared_ptrIN7OpenRaw9Internals6IFDDirEEESaIS5_EED1Ev@Base 0.0.9
 _ZNSt6vectorIN5boost10shared_ptrIN7OpenRaw9Internals6IFDDirEEESaIS5_EED2Ev@Base 0.0.9
 _ZNSt6vectorIN5boost2io6detail11format_itemIcSt11char_traitsIcESaIcEEESaIS7_EE14_M_fill_assignEmRKS7_@Base 0.0.9
 _ZNSt6vectorIN5boost2io6detail11format_itemIcSt11char_traitsIcESaIcEEESaIS7_EE14_M_fill_insertEN9__gnu_cxx17__normal_iteratorIPS7_S9_EEmRKS7_@Base 0.0.9
 _ZNSt6vectorIN5boost2io6detail11format_itemIcSt11char_traitsIcESaIcEEESaIS7_EED1Ev@Base 0.0.9
 _ZNSt6vectorIN5boost2io6detail11format_itemIcSt11char_traitsIcESaIcEEESaIS7_EED2Ev@Base 0.0.9
 _ZNSt6vectorIN7OpenRaw9Internals4CIFF11RecordEntryESaIS3_EE13_M_insert_auxEN9__gnu_cxx17__normal_iteratorIPS3_S5_EERKS3_@Base 0.0.9
 _ZNSt6vectorIbSaIbEE14_M_fill_insertESt13_Bit_iteratormb@Base 0.0.9
 _ZNSt6vectorIhSaIhEE13_M_insert_auxEN9__gnu_cxx17__normal_iteratorIPhS1_EERKh@Base 0.0.9
 _ZNSt6vectorIhSaIhEED1Ev@Base 0.0.9
 _ZNSt6vectorIhSaIhEED2Ev@Base 0.0.9
 _ZNSt6vectorIjSaIjEE13_M_insert_auxEN9__gnu_cxx17__normal_iteratorIPjS1_EERKj@Base 0.0.9
 _ZNSt6vectorIjSaIjEED1Ev@Base 0.0.9
 _ZNSt6vectorIjSaIjEED2Ev@Base 0.0.9
 _ZNSt6vectorItSaItEE13_M_insert_auxEN9__gnu_cxx17__normal_iteratorIPtS1_EERKt@Base 0.0.9
 _ZNSt6vectorItSaItEE14_M_fill_insertEN9__gnu_cxx17__normal_iteratorIPtS1_EEmRKt@Base 0.0.9
 _ZNSt6vectorItSaItEEaSERKS1_@Base 0.0.9
 _ZNSt8_Rb_treeI15or_rawfile_typeSt4pairIKS0_N5boost8functionIFPN7OpenRaw7RawFileEPNS5_2IO6StreamEEEEESt10_Select1stISD_ESt4lessIS0_ESaISD_EE10_M_insert_EPKSt18_Rb_tree_node_baseSM_RKSD_@Base 0.0.9
 _ZNSt8_Rb_treeI15or_rawfile_typeSt4pairIKS0_N5boost8functionIFPN7OpenRaw7RawFileEPNS5_2IO6StreamEEEEESt10_Select1stISD_ESt4lessIS0_ESaISD_EE16_M_insert_uniqueERKSD_@Base 0.0.9
 _ZNSt8_Rb_treeI15or_rawfile_typeSt4pairIKS0_N5boost8functionIFPN7OpenRaw7RawFileEPNS5_2IO6StreamEEEEESt10_Select1stISD_ESt4lessIS0_ESaISD_EE17_M_insert_unique_ESt23_Rb_tree_const_iteratorISD_ERKSD_@Base 0.0.9
 _ZNSt8_Rb_treeI15or_rawfile_typeSt4pairIKS0_N5boost8functionIFPN7OpenRaw7RawFileEPNS5_2IO6StreamEEEEESt10_Select1stISD_ESt4lessIS0_ESaISD_EE4findERS2_@Base 0.0.9
 _ZNSt8_Rb_treeI15or_rawfile_typeSt4pairIKS0_N5boost8functionIFPN7OpenRaw7RawFileEPNS5_2IO6StreamEEEEESt10_Select1stISD_ESt4lessIS0_ESaISD_EE8_M_eraseEPSt13_Rb_tree_nodeISD_E@Base 0.0.9
 _ZNSt8_Rb_treeISsSt4pairIKSs15or_rawfile_typeESt10_Select1stIS3_ESt4lessISsESaIS3_EE10_M_insert_EPKSt18_Rb_tree_node_baseSC_RKS3_@Base 0.0.9
 _ZNSt8_Rb_treeISsSt4pairIKSs15or_rawfile_typeESt10_Select1stIS3_ESt4lessISsESaIS3_EE16_M_insert_uniqueERKS3_@Base 0.0.9
 _ZNSt8_Rb_treeISsSt4pairIKSs15or_rawfile_typeESt10_Select1stIS3_ESt4lessISsESaIS3_EE17_M_insert_unique_ESt23_Rb_tree_const_iteratorIS3_ERKS3_@Base 0.0.9
 _ZNSt8_Rb_treeISsSt4pairIKSs15or_rawfile_typeESt10_Select1stIS3_ESt4lessISsESaIS3_EE4findERS1_@Base 0.0.9
 _ZNSt8_Rb_treeISsSt4pairIKSs15or_rawfile_typeESt10_Select1stIS3_ESt4lessISsESaIS3_EE8_M_eraseEPSt13_Rb_tree_nodeIS3_E@Base 0.0.9
 _ZNSt8_Rb_treeIiSt4pairIKiPN7OpenRaw9MetaValueEESt10_Select1stIS5_ESt4lessIiESaIS5_EE10_M_insert_EPKSt18_Rb_tree_node_baseSE_RKS5_@Base 0.0.9
 _ZNSt8_Rb_treeIiSt4pairIKiPN7OpenRaw9MetaValueEESt10_Select1stIS5_ESt4lessIiESaIS5_EE16_M_insert_uniqueERKS5_@Base 0.0.9
 _ZNSt8_Rb_treeIiSt4pairIKiPN7OpenRaw9MetaValueEESt10_Select1stIS5_ESt4lessIiESaIS5_EE17_M_insert_unique_ESt23_Rb_tree_const_iteratorIS5_ERKS5_@Base 0.0.9
 _ZNSt8_Rb_treeIiSt4pairIKiPN7OpenRaw9MetaValueEESt10_Select1stIS5_ESt4lessIiESaIS5_EE8_M_eraseEPSt13_Rb_tree_nodeIS5_E@Base 0.0.9
 _ZNSt8_Rb_treeIjSt4pairIKjN7OpenRaw9Internals12IFDThumbDescEESt10_Select1stIS5_ESt4lessIjESaIS5_EE10_M_insert_EPKSt18_Rb_tree_node_baseSE_RKS5_@Base 0.0.9
 _ZNSt8_Rb_treeIjSt4pairIKjN7OpenRaw9Internals12IFDThumbDescEESt10_Select1stIS5_ESt4lessIjESaIS5_EE16_M_insert_uniqueERKS5_@Base 0.0.9
 _ZNSt8_Rb_treeIjSt4pairIKjN7OpenRaw9Internals12IFDThumbDescEESt10_Select1stIS5_ESt4lessIjESaIS5_EE17_M_insert_unique_ESt23_Rb_tree_const_iteratorIS5_ERKS5_@Base 0.0.9
 _ZNSt8_Rb_treeIjSt4pairIKjN7OpenRaw9Internals12IFDThumbDescEESt10_Select1stIS5_ESt4lessIjESaIS5_EE8_M_eraseEPSt13_Rb_tree_nodeIS5_E@Base 0.0.9
 _ZNSt8_Rb_treeItSt4pairIKtN5boost10shared_ptrIN7OpenRaw9Internals8IFDEntryEEEESt10_Select1stIS8_ESt4lessItESaIS8_EE10_M_insert_EPKSt18_Rb_tree_node_baseSH_RKS8_@Base 0.0.9
 _ZNSt8_Rb_treeItSt4pairIKtN5boost10shared_ptrIN7OpenRaw9Internals8IFDEntryEEEESt10_Select1stIS8_ESt4lessItESaIS8_EE16_M_insert_uniqueERKS8_@Base 0.0.9
 _ZNSt8_Rb_treeItSt4pairIKtN5boost10shared_ptrIN7OpenRaw9Internals8IFDEntryEEEESt10_Select1stIS8_ESt4lessItESaIS8_EE17_M_insert_unique_ESt23_Rb_tree_const_iteratorIS8_ERKS8_@Base 0.0.9
 _ZNSt8_Rb_treeItSt4pairIKtN5boost10shared_ptrIN7OpenRaw9Internals8IFDEntryEEEESt10_Select1stIS8_ESt4lessItESaIS8_EE8_M_eraseEPSt13_Rb_tree_nodeIS8_E@Base 0.0.9
 _ZSt9__find_ifIN9__gnu_cxx17__normal_iteratorIPKN7OpenRaw9Internals4CIFF11RecordEntryESt6vectorIS5_SaIS5_EEEEN5boost3_bi6bind_tIbNSC_4_mfi4cmf1IbS5_tEENSD_5list2INSC_3argILi1EEENSD_5valueItEEEEEEET_SP_SP_T0_St26random_access_iterator_tag@Base 0.0.9
 _ZSt9__find_ifIN9__gnu_cxx17__normal_iteratorIPN5boost10shared_ptrIN7OpenRaw9Internals6IFDDirEEESt6vectorIS7_SaIS7_EEEENS6_9isPrimaryEET_SE_SE_T0_St26random_access_iterator_tag@Base 0.0.9
 _ZTCN5boost2io22basic_oaltstringstreamIcSt11char_traitsIcESaIcEEE0_So@Base 0.0.9
 _ZTIN5boost12noncopyable_11noncopyableE@Base 0.0.9
 _ZTIN5boost16base_from_memberINS_10shared_ptrINS_2io18basic_altstringbufIcSt11char_traitsIcESaIcEEEEELi0EEE@Base 0.0.9
 _ZTIN5boost16exception_detail10clone_baseE@Base 0.0.9
 _ZTIN5boost16exception_detail10clone_implINS0_19error_info_injectorINS_17bad_function_callEEEEE@Base 0.0.9
 _ZTIN5boost16exception_detail10clone_implINS0_19error_info_injectorINS_2io12too_few_argsEEEEE@Base 0.0.9
 _ZTIN5boost16exception_detail10clone_implINS0_19error_info_injectorINS_2io13too_many_argsEEEEE@Base 0.0.9
 _ZTIN5boost16exception_detail10clone_implINS0_19error_info_injectorINS_2io17bad_format_stringEEEEE@Base 0.0.9
 _ZTIN5boost16exception_detail19error_info_injectorINS_17bad_function_callEEE@Base 0.0.9
 _ZTIN5boost16exception_detail19error_info_injectorINS_2io12too_few_argsEEE@Base 0.0.9
 _ZTIN5boost16exception_detail19error_info_injectorINS_2io13too_many_argsEEE@Base 0.0.9
 _ZTIN5boost16exception_detail19error_info_injectorINS_2io17bad_format_stringEEE@Base 0.0.9
 _ZTIN5boost17bad_function_callE@Base 0.0.9
 _ZTIN5boost2io12format_errorE@Base 0.0.9
 _ZTIN5boost2io12too_few_argsE@Base 0.0.9
 _ZTIN5boost2io13too_many_argsE@Base 0.0.9
 _ZTIN5boost2io17bad_format_stringE@Base 0.0.9
 _ZTIN5boost2io18basic_altstringbufIcSt11char_traitsIcESaIcEEE@Base 0.0.9
 _ZTIN5boost2io22basic_oaltstringstreamIcSt11char_traitsIcESaIcEEE@Base 0.0.9
 _ZTIN5boost3_bi6bind_tIPN7OpenRaw7RawFileEPFS4_PNS2_2IO6StreamEENS0_5list1INS_3argILi1EEEEEEE@Base 0.0.9
 _ZTIN5boost6detail15sp_counted_baseE@Base 0.0.9
 _ZTIN5boost6detail17sp_counted_impl_pIN7OpenRaw9Internals3MRW9DataBlockEEE@Base 0.0.9
 _ZTIN5boost6detail17sp_counted_impl_pIN7OpenRaw9Internals4CIFF4HeapEEE@Base 0.0.9
 _ZTIN5boost6detail17sp_counted_impl_pIN7OpenRaw9Internals6IFDDirEEE@Base 0.0.9
 _ZTIN5boost6detail17sp_counted_impl_pIN7OpenRaw9Internals8IFDEntryEEE@Base 0.0.9
 _ZTIN5boost6detail18sp_counted_impl_pdIPNS_2io18basic_altstringbufIcSt11char_traitsIcESaIcEEENS2_22basic_oaltstringstreamIcS5_S6_E5No_OpEEE@Base 0.0.9
 _ZTIN5boost7bad_getE@Base 0.0.9
 _ZTIN5boost9exceptionE@Base 0.0.9
 _ZTIN7OpenRaw10BitmapDataE@Base 0.0.9
 _ZTIN7OpenRaw2IO11StreamCloneE@Base 0.0.9
 _ZTIN7OpenRaw2IO4FileE@Base 0.0.9
 _ZTIN7OpenRaw2IO6StreamE@Base 0.0.9
 _ZTIN7OpenRaw2IO9MemStreamE@Base 0.0.9
 _ZTIN7OpenRaw7RawDataE@Base 0.0.9
 _ZTIN7OpenRaw7RawFileE@Base 0.0.9
 _ZTIN7OpenRaw9Internals10TiffEpFileE@Base 0.0.9
 _ZTIN7OpenRaw9Internals11IOExceptionE@Base 0.0.9
 _ZTIN7OpenRaw9Internals12DecompressorE@Base 0.0.9
 _ZTIN7OpenRaw9Internals12MRWContainerE@Base 0.0.9
 _ZTIN7OpenRaw9Internals12OrfContainerE@Base 0.0.9
 _ZTIN7OpenRaw9Internals12RawContainerE@Base 0.0.9
 _ZTIN7OpenRaw9Internals13CIFFContainerE@Base 0.0.9
 _ZTIN7OpenRaw9Internals13JFIFContainerE@Base 0.0.9
 _ZTIN7OpenRaw9Internals15CrwDecompressorE@Base 0.0.9
 _ZTIN7OpenRaw9Internals15TooBigExceptionE@Base 0.0.9
 _ZTIN7OpenRaw9Internals16BadTypeExceptionE@Base 0.0.9
 _ZTIN7OpenRaw9Internals16IFDFileContainerE@Base 0.0.9
 _ZTIN7OpenRaw9Internals17DecodingExceptionE@Base 0.0.9
 _ZTIN7OpenRaw9Internals17LJpegDecompressorE@Base 0.0.9
 _ZTIN7OpenRaw9Internals19OutOfRangeExceptionE@Base 0.0.9
 _ZTIN7OpenRaw9Internals6IFDDirE@Base 0.0.9
 _ZTIN7OpenRaw9Internals7ARWFileE@Base 0.0.9
 _ZTIN7OpenRaw9Internals7CRWFileE@Base 0.0.9
 _ZTIN7OpenRaw9Internals7Cr2FileE@Base 0.0.9
 _ZTIN7OpenRaw9Internals7DNGFileE@Base 0.0.9
 _ZTIN7OpenRaw9Internals7ERFFileE@Base 0.0.9
 _ZTIN7OpenRaw9Internals7IFDFileE@Base 0.0.9
 _ZTIN7OpenRaw9Internals7MRWFileE@Base 0.0.9
 _ZTIN7OpenRaw9Internals7NEFFileE@Base 0.0.9
 _ZTIN7OpenRaw9Internals7OrfFileE@Base 0.0.9
 _ZTIN7OpenRaw9Internals7PEFFileE@Base 0.0.9
 _ZTIN7OpenRaw9Internals8IFDEntryE@Base 0.0.9
 _ZTIN7OpenRaw9Internals9ExceptionE@Base 0.0.9
 _ZTIN7OpenRaw9ThumbnailE@Base 0.0.9
 _ZTSN5boost12noncopyable_11noncopyableE@Base 0.0.9
 _ZTSN5boost16base_from_memberINS_10shared_ptrINS_2io18basic_altstringbufIcSt11char_traitsIcESaIcEEEEELi0EEE@Base 0.0.9
 _ZTSN5boost16exception_detail10clone_baseE@Base 0.0.9
 _ZTSN5boost16exception_detail10clone_implINS0_19error_info_injectorINS_17bad_function_callEEEEE@Base 0.0.9
 _ZTSN5boost16exception_detail10clone_implINS0_19error_info_injectorINS_2io12too_few_argsEEEEE@Base 0.0.9
 _ZTSN5boost16exception_detail10clone_implINS0_19error_info_injectorINS_2io13too_many_argsEEEEE@Base 0.0.9
 _ZTSN5boost16exception_detail10clone_implINS0_19error_info_injectorINS_2io17bad_format_stringEEEEE@Base 0.0.9
 _ZTSN5boost16exception_detail19error_info_injectorINS_17bad_function_callEEE@Base 0.0.9
 _ZTSN5boost16exception_detail19error_info_injectorINS_2io12too_few_argsEEE@Base 0.0.9
 _ZTSN5boost16exception_detail19error_info_injectorINS_2io13too_many_argsEEE@Base 0.0.9
 _ZTSN5boost16exception_detail19error_info_injectorINS_2io17bad_format_stringEEE@Base 0.0.9
 _ZTSN5boost17bad_function_callE@Base 0.0.9
 _ZTSN5boost2io12format_errorE@Base 0.0.9
 _ZTSN5boost2io12too_few_argsE@Base 0.0.9
 _ZTSN5boost2io13too_many_argsE@Base 0.0.9
 _ZTSN5boost2io17bad_format_stringE@Base 0.0.9
 _ZTSN5boost2io18basic_altstringbufIcSt11char_traitsIcESaIcEEE@Base 0.0.9
 _ZTSN5boost2io22basic_oaltstringstreamIcSt11char_traitsIcESaIcEE5No_OpE@Base 0.0.9
 _ZTSN5boost2io22basic_oaltstringstreamIcSt11char_traitsIcESaIcEEE@Base 0.0.9
 _ZTSN5boost3_bi6bind_tIPN7OpenRaw7RawFileEPFS4_PNS2_2IO6StreamEENS0_5list1INS_3argILi1EEEEEEE@Base 0.0.9
 _ZTSN5boost6detail15sp_counted_baseE@Base 0.0.9
 _ZTSN5boost6detail17sp_counted_impl_pIN7OpenRaw9Internals3MRW9DataBlockEEE@Base 0.0.9
 _ZTSN5boost6detail17sp_counted_impl_pIN7OpenRaw9Internals4CIFF4HeapEEE@Base 0.0.9
 _ZTSN5boost6detail17sp_counted_impl_pIN7OpenRaw9Internals6IFDDirEEE@Base 0.0.9
 _ZTSN5boost6detail17sp_counted_impl_pIN7OpenRaw9Internals8IFDEntryEEE@Base 0.0.9
 _ZTSN5boost6detail18sp_counted_impl_pdIPNS_2io18basic_altstringbufIcSt11char_traitsIcESaIcEEENS2_22basic_oaltstringstreamIcS5_S6_E5No_OpEEE@Base 0.0.9
 _ZTSN5boost7bad_getE@Base 0.0.9
 _ZTSN5boost9exceptionE@Base 0.0.9
 _ZTSN7OpenRaw10BitmapDataE@Base 0.0.9
 _ZTSN7OpenRaw2IO11StreamCloneE@Base 0.0.9
 _ZTSN7OpenRaw2IO4FileE@Base 0.0.9
 _ZTSN7OpenRaw2IO6StreamE@Base 0.0.9
 _ZTSN7OpenRaw2IO9MemStreamE@Base 0.0.9
 _ZTSN7OpenRaw7RawDataE@Base 0.0.9
 _ZTSN7OpenRaw7RawFileE@Base 0.0.9
 _ZTSN7OpenRaw9Internals10TiffEpFileE@Base 0.0.9
 _ZTSN7OpenRaw9Internals11IOExceptionE@Base 0.0.9
 _ZTSN7OpenRaw9Internals12DecompressorE@Base 0.0.9
 _ZTSN7OpenRaw9Internals12MRWContainerE@Base 0.0.9
 _ZTSN7OpenRaw9Internals12OrfContainerE@Base 0.0.9
 _ZTSN7OpenRaw9Internals12RawContainerE@Base 0.0.9
 _ZTSN7OpenRaw9Internals13CIFFContainerE@Base 0.0.9
 _ZTSN7OpenRaw9Internals13JFIFContainerE@Base 0.0.9
 _ZTSN7OpenRaw9Internals15CrwDecompressorE@Base 0.0.9
 _ZTSN7OpenRaw9Internals15TooBigExceptionE@Base 0.0.9
 _ZTSN7OpenRaw9Internals16BadTypeExceptionE@Base 0.0.9
 _ZTSN7OpenRaw9Internals16IFDFileContainerE@Base 0.0.9
 _ZTSN7OpenRaw9Internals17DecodingExceptionE@Base 0.0.9
 _ZTSN7OpenRaw9Internals17LJpegDecompressorE@Base 0.0.9
 _ZTSN7OpenRaw9Internals19OutOfRangeExceptionE@Base 0.0.9
 _ZTSN7OpenRaw9Internals6IFDDirE@Base 0.0.9
 _ZTSN7OpenRaw9Internals7ARWFileE@Base 0.0.9
 _ZTSN7OpenRaw9Internals7CRWFileE@Base 0.0.9
 _ZTSN7OpenRaw9Internals7Cr2FileE@Base 0.0.9
 _ZTSN7OpenRaw9Internals7DNGFileE@Base 0.0.9
 _ZTSN7OpenRaw9Internals7ERFFileE@Base 0.0.9
 _ZTSN7OpenRaw9Internals7IFDFileE@Base 0.0.9
 _ZTSN7OpenRaw9Internals7MRWFileE@Base 0.0.9
 _ZTSN7OpenRaw9Internals7NEFFileE@Base 0.0.9
 _ZTSN7OpenRaw9Internals7OrfFileE@Base 0.0.9
 _ZTSN7OpenRaw9Internals7PEFFileE@Base 0.0.9
 _ZTSN7OpenRaw9Internals8IFDEntryE@Base 0.0.9
 _ZTSN7OpenRaw9Internals9ExceptionE@Base 0.0.9
 _ZTSN7OpenRaw9ThumbnailE@Base 0.0.9
 _ZTSPKN7OpenRaw9Internals9ExceptionE@Base 0.0.9
 _ZTTN5boost16exception_detail10clone_implINS0_19error_info_injectorINS_17bad_function_callEEEEE@Base 0.0.9
 _ZTTN5boost16exception_detail10clone_implINS0_19error_info_injectorINS_2io12too_few_argsEEEEE@Base 0.0.9
 _ZTTN5boost16exception_detail10clone_implINS0_19error_info_injectorINS_2io13too_many_argsEEEEE@Base 0.0.9
 _ZTTN5boost16exception_detail10clone_implINS0_19error_info_injectorINS_2io17bad_format_stringEEEEE@Base 0.0.9
 _ZTTN5boost2io22basic_oaltstringstreamIcSt11char_traitsIcESaIcEEE@Base 0.0.9
 _ZTVN5boost16exception_detail10clone_baseE@Base 0.0.9
 _ZTVN5boost16exception_detail10clone_implINS0_19error_info_injectorINS_17bad_function_callEEEEE@Base 0.0.9
 _ZTVN5boost16exception_detail10clone_implINS0_19error_info_injectorINS_2io12too_few_argsEEEEE@Base 0.0.9
 _ZTVN5boost16exception_detail10clone_implINS0_19error_info_injectorINS_2io13too_many_argsEEEEE@Base 0.0.9
 _ZTVN5boost16exception_detail10clone_implINS0_19error_info_injectorINS_2io17bad_format_stringEEEEE@Base 0.0.9
 _ZTVN5boost16exception_detail19error_info_injectorINS_17bad_function_callEEE@Base 0.0.9
 _ZTVN5boost16exception_detail19error_info_injectorINS_2io12too_few_argsEEE@Base 0.0.9
 _ZTVN5boost16exception_detail19error_info_injectorINS_2io13too_many_argsEEE@Base 0.0.9
 _ZTVN5boost16exception_detail19error_info_injectorINS_2io17bad_format_stringEEE@Base 0.0.9
 _ZTVN5boost17bad_function_callE@Base 0.0.9
 _ZTVN5boost2io12format_errorE@Base 0.0.9
 _ZTVN5boost2io12too_few_argsE@Base 0.0.9
 _ZTVN5boost2io13too_many_argsE@Base 0.0.9
 _ZTVN5boost2io17bad_format_stringE@Base 0.0.9
 _ZTVN5boost2io18basic_altstringbufIcSt11char_traitsIcESaIcEEE@Base 0.0.9
 _ZTVN5boost2io22basic_oaltstringstreamIcSt11char_traitsIcESaIcEEE@Base 0.0.9
 _ZTVN5boost6detail15sp_counted_baseE@Base 0.0.9
 _ZTVN5boost6detail17sp_counted_impl_pIN7OpenRaw9Internals3MRW9DataBlockEEE@Base 0.0.9
 _ZTVN5boost6detail17sp_counted_impl_pIN7OpenRaw9Internals4CIFF4HeapEEE@Base 0.0.9
 _ZTVN5boost6detail17sp_counted_impl_pIN7OpenRaw9Internals6IFDDirEEE@Base 0.0.9
 _ZTVN5boost6detail17sp_counted_impl_pIN7OpenRaw9Internals8IFDEntryEEE@Base 0.0.9
 _ZTVN5boost6detail18sp_counted_impl_pdIPNS_2io18basic_altstringbufIcSt11char_traitsIcESaIcEEENS2_22basic_oaltstringstreamIcS5_S6_E5No_OpEEE@Base 0.0.9
 _ZTVN5boost7bad_getE@Base 0.0.9
 _ZTVN5boost9exceptionE@Base 0.0.9
 _ZTVN7OpenRaw10BitmapDataE@Base 0.0.9
 _ZTVN7OpenRaw2IO11StreamCloneE@Base 0.0.9
 _ZTVN7OpenRaw2IO4FileE@Base 0.0.9
 _ZTVN7OpenRaw2IO6StreamE@Base 0.0.9
 _ZTVN7OpenRaw2IO9MemStreamE@Base 0.0.9
 _ZTVN7OpenRaw7RawDataE@Base 0.0.9
 _ZTVN7OpenRaw7RawFileE@Base 0.0.9
 _ZTVN7OpenRaw9Internals10TiffEpFileE@Base 0.0.9
 _ZTVN7OpenRaw9Internals11IOExceptionE@Base 0.0.9
 _ZTVN7OpenRaw9Internals12DecompressorE@Base 0.0.9
 _ZTVN7OpenRaw9Internals12MRWContainerE@Base 0.0.9
 _ZTVN7OpenRaw9Internals12OrfContainerE@Base 0.0.9
 _ZTVN7OpenRaw9Internals12RawContainerE@Base 0.0.9
 _ZTVN7OpenRaw9Internals13CIFFContainerE@Base 0.0.9
 _ZTVN7OpenRaw9Internals13JFIFContainerE@Base 0.0.9
 _ZTVN7OpenRaw9Internals15CrwDecompressorE@Base 0.0.9
 _ZTVN7OpenRaw9Internals15TooBigExceptionE@Base 0.0.9
 _ZTVN7OpenRaw9Internals16BadTypeExceptionE@Base 0.0.9
 _ZTVN7OpenRaw9Internals16IFDFileContainerE@Base 0.0.9
 _ZTVN7OpenRaw9Internals17DecodingExceptionE@Base 0.0.9
 _ZTVN7OpenRaw9Internals17LJpegDecompressorE@Base 0.0.9
 _ZTVN7OpenRaw9Internals19OutOfRangeExceptionE@Base 0.0.9
 _ZTVN7OpenRaw9Internals6IFDDirE@Base 0.0.9
 _ZTVN7OpenRaw9Internals7ARWFileE@Base 0.0.9
 _ZTVN7OpenRaw9Internals7CRWFileE@Base 0.0.9
 _ZTVN7OpenRaw9Internals7Cr2FileE@Base 0.0.9
 _ZTVN7OpenRaw9Internals7DNGFileE@Base 0.0.9
 _ZTVN7OpenRaw9Internals7ERFFileE@Base 0.0.9
 _ZTVN7OpenRaw9Internals7IFDFileE@Base 0.0.9
 _ZTVN7OpenRaw9Internals7MRWFileE@Base 0.0.9
 _ZTVN7OpenRaw9Internals7NEFFileE@Base 0.0.9
 _ZTVN7OpenRaw9Internals7OrfFileE@Base 0.0.9
 _ZTVN7OpenRaw9Internals7PEFFileE@Base 0.0.9
 _ZTVN7OpenRaw9Internals8IFDEntryE@Base 0.0.9
 _ZTVN7OpenRaw9Internals9ExceptionE@Base 0.0.9
 _ZTVN7OpenRaw9ThumbnailE@Base 0.0.9
 _ZThn16_N5boost16exception_detail10clone_implINS0_19error_info_injectorINS_17bad_function_callEEEED0Ev@Base 0.0.9
 _ZThn16_N5boost16exception_detail10clone_implINS0_19error_info_injectorINS_17bad_function_callEEEED1Ev@Base 0.0.9
 _ZThn16_N5boost16exception_detail19error_info_injectorINS_17bad_function_callEED0Ev@Base 0.0.9
 _ZThn16_N5boost16exception_detail19error_info_injectorINS_17bad_function_callEED1Ev@Base 0.0.9
 _ZThn24_N5boost16exception_detail10clone_implINS0_19error_info_injectorINS_2io12too_few_argsEEEED0Ev@Base 0.0.9
 _ZThn24_N5boost16exception_detail10clone_implINS0_19error_info_injectorINS_2io12too_few_argsEEEED1Ev@Base 0.0.9
 _ZThn24_N5boost16exception_detail10clone_implINS0_19error_info_injectorINS_2io13too_many_argsEEEED0Ev@Base 0.0.9
 _ZThn24_N5boost16exception_detail10clone_implINS0_19error_info_injectorINS_2io13too_many_argsEEEED1Ev@Base 0.0.9
 _ZThn24_N5boost16exception_detail10clone_implINS0_19error_info_injectorINS_2io17bad_format_stringEEEED0Ev@Base 0.0.9
 _ZThn24_N5boost16exception_detail10clone_implINS0_19error_info_injectorINS_2io17bad_format_stringEEEED1Ev@Base 0.0.9
 _ZThn24_N5boost16exception_detail19error_info_injectorINS_2io12too_few_argsEED0Ev@Base 0.0.9
 _ZThn24_N5boost16exception_detail19error_info_injectorINS_2io12too_few_argsEED1Ev@Base 0.0.9
 _ZThn24_N5boost16exception_detail19error_info_injectorINS_2io13too_many_argsEED0Ev@Base 0.0.9
 _ZThn24_N5boost16exception_detail19error_info_injectorINS_2io13too_many_argsEED1Ev@Base 0.0.9
 _ZThn24_N5boost16exception_detail19error_info_injectorINS_2io17bad_format_stringEED0Ev@Base 0.0.9
 _ZThn24_N5boost16exception_detail19error_info_injectorINS_2io17bad_format_stringEED1Ev@Base 0.0.9
 _ZTv0_n24_N5boost2io22basic_oaltstringstreamIcSt11char_traitsIcESaIcEED0Ev@Base 0.0.9
 _ZTv0_n24_N5boost2io22basic_oaltstringstreamIcSt11char_traitsIcESaIcEED1Ev@Base 0.0.9
 _ZTv0_n24_NK5boost16exception_detail10clone_implINS0_19error_info_injectorINS_17bad_function_callEEEE5cloneEv@Base 0.0.9
 _ZTv0_n24_NK5boost16exception_detail10clone_implINS0_19error_info_injectorINS_2io12too_few_argsEEEE5cloneEv@Base 0.0.9
 _ZTv0_n24_NK5boost16exception_detail10clone_implINS0_19error_info_injectorINS_2io13too_many_argsEEEE5cloneEv@Base 0.0.9
 _ZTv0_n24_NK5boost16exception_detail10clone_implINS0_19error_info_injectorINS_2io17bad_format_stringEEEE5cloneEv@Base 0.0.9
 _ZTv0_n32_NK5boost16exception_detail10clone_implINS0_19error_info_injectorINS_17bad_function_callEEEE7rethrowEv@Base 0.0.9
 _ZTv0_n32_NK5boost16exception_detail10clone_implINS0_19error_info_injectorINS_2io12too_few_argsEEEE7rethrowEv@Base 0.0.9
 _ZTv0_n32_NK5boost16exception_detail10clone_implINS0_19error_info_injectorINS_2io13too_many_argsEEEE7rethrowEv@Base 0.0.9
 _ZTv0_n32_NK5boost16exception_detail10clone_implINS0_19error_info_injectorINS_2io17bad_format_stringEEEE7rethrowEv@Base 0.0.9
 _ZTv0_n40_N5boost16exception_detail10clone_implINS0_19error_info_injectorINS_17bad_function_callEEEED0Ev@Base 0.0.9
 _ZTv0_n40_N5boost16exception_detail10clone_implINS0_19error_info_injectorINS_17bad_function_callEEEED1Ev@Base 0.0.9
 _ZTv0_n40_N5boost16exception_detail10clone_implINS0_19error_info_injectorINS_2io12too_few_argsEEEED0Ev@Base 0.0.9
 _ZTv0_n40_N5boost16exception_detail10clone_implINS0_19error_info_injectorINS_2io12too_few_argsEEEED1Ev@Base 0.0.9
 _ZTv0_n40_N5boost16exception_detail10clone_implINS0_19error_info_injectorINS_2io13too_many_argsEEEED0Ev@Base 0.0.9
 _ZTv0_n40_N5boost16exception_detail10clone_implINS0_19error_info_injectorINS_2io13too_many_argsEEEED1Ev@Base 0.0.9
 _ZTv0_n40_N5boost16exception_detail10clone_implINS0_19error_info_injectorINS_2io17bad_format_stringEEEED0Ev@Base 0.0.9
 _ZTv0_n40_N5boost16exception_detail10clone_implINS0_19error_info_injectorINS_2io17bad_format_stringEEEED1Ev@Base 0.0.9
 _ZZN5boost9function1IPN7OpenRaw7RawFileEPNS1_2IO6StreamEE9assign_toINS_3_bi6bind_tIS3_PFS3_S6_ENS9_5list1INS_3argILi1EEEEEEEEEvT_E13stored_vtable@Base 0.0.9
 _ZZN7OpenRaw9Internals14RawFileFactory10extensionsEvE18rawExtensionsTable@Base 0.0.9
 _ZZN7OpenRaw9Internals14RawFileFactory5tableEvE15rawFactoryTable@Base 0.0.9
 get_default_io_methods@Base 0.0.9
 or_bitmapdata_bpc@Base 0.0.9
 or_bitmapdata_data@Base 0.0.9
 or_bitmapdata_data_size@Base 0.0.9
 or_bitmapdata_dimensions@Base 0.0.9
 or_bitmapdata_format@Base 0.0.9
 or_bitmapdata_new@Base 0.0.9
 or_bitmapdata_release@Base 0.0.9
 or_debug@Base 0.0.9
 or_debug_set_level@Base 0.0.9
 or_get_extract_rawdata@Base 0.0.9
 or_get_extract_thumbnail@Base 0.0.9
 or_get_file_extensions@Base 0.0.9
 or_rawdata_bpc@Base 0.0.9
 or_rawdata_data@Base 0.0.9
 or_rawdata_data_size@Base 0.0.9
 or_rawdata_dimensions@Base 0.0.9
 or_rawdata_format@Base 0.0.9
 or_rawdata_get_cfa_pattern@Base 0.0.9
 or_rawdata_get_minmax@Base 0.0.9
 or_rawdata_new@Base 0.0.9
 or_rawdata_release@Base 0.0.9
 or_rawfile_get_orientation@Base 0.0.9
 or_rawfile_get_rawdata@Base 0.0.9
 or_rawfile_get_rendered_image@Base 0.0.9
 or_rawfile_get_thumbnail@Base 0.0.9
 or_rawfile_get_type@Base 0.0.9
 or_rawfile_new@Base 0.0.9
 or_rawfile_new_from_memory@Base 0.0.9
 or_rawfile_release@Base 0.0.9
 or_thumbnail_data@Base 0.0.9
 or_thumbnail_data_size@Base 0.0.9
 or_thumbnail_dimensions@Base 0.0.9
 or_thumbnail_format@Base 0.0.9
 or_thumbnail_new@Base 0.0.9
 or_thumbnail_release@Base 0.0.9
 posix_io_methods@Base 0.0.9
 raw_close@Base 0.0.9
 raw_filesize@Base 0.0.9
 raw_get_error@Base 0.0.9
 raw_get_path@Base 0.0.9
 raw_mmap@Base 0.0.9
 raw_munmap@Base 0.0.9
 raw_open@Base 0.0.9
 raw_read@Base 0.0.9
 raw_seek@Base 0.0.9
