# SymbolsHelper-Confirmed: 0.10.2 amd64
libQtGLib-2.0.so.0 libqtglib-2.0-0 #MINVER#
* Build-Depends-Package: libqtgstreamer-dev
 _ZN5QGlib10ObjectBase11setPropertyEPKcRKNS_5ValueE@Base 0.10.1
 _ZN5QGlib10ObjectBase12setQuarkDataERKNS_5QuarkEPvPFvS4_E@Base 0.10.1
 _ZN5QGlib10ObjectBase3refEb@Base 0.10.1
 _ZN5QGlib10ObjectBase5unrefEv@Base 0.10.1
 _ZN5QGlib10ObjectBase7setDataEPKcPvPFvS3_E@Base 0.10.1
 _ZN5QGlib11GetTypeImplI6QFlagsINS_9ParamSpec9ParamFlagEEEcvNS_4TypeEEv@Base 0.10.1
 _ZN5QGlib11GetTypeImplINS_4TypeEEcvS1_Ev@Base 0.10.1
 _ZN5QGlib11GetTypeImplINS_5ValueEEcvNS_4TypeEEv@Base 0.10.1
 _ZN5QGlib11GetTypeImplINS_6ObjectEEcvNS_4TypeEEv@Base 0.10.1
 _ZN5QGlib11GetTypeImplINS_9InterfaceEEcvNS_4TypeEEv@Base 0.10.1
 _ZN5QGlib11GetTypeImplINS_9ParamSpecEEcvNS_4TypeEEv@Base 0.10.1
 _ZN5QGlib16constructWrapperENS_4TypeEPv@Base 0.10.1
 _ZN5QGlib4Type12fromInstanceEPv@Base 0.10.1
 _ZN5QGlib4Type12setQuarkDataERKNS_5QuarkEPv@Base 0.10.1
 _ZN5QGlib4Type8fromNameEPKc@Base 0.10.1
 _ZN5QGlib4initEv@Base 0.10.1
 _ZN5QGlib5ErrorC1ENS_5QuarkEiRK7QString@Base 0.10.1
 _ZN5QGlib5ErrorC1EP7_GError@Base 0.10.1
 _ZN5QGlib5ErrorC1ERKS0_@Base 0.10.1
 _ZN5QGlib5ErrorC2ENS_5QuarkEiRK7QString@Base 0.10.1
 _ZN5QGlib5ErrorC2EP7_GError@Base 0.10.1
 _ZN5QGlib5ErrorC2ERKS0_@Base 0.10.1
 _ZN5QGlib5ErrorD0Ev@Base 0.10.1
 _ZN5QGlib5ErrorD1Ev@Base 0.10.1
 _ZN5QGlib5ErrorD2Ev@Base 0.10.1
 _ZN5QGlib5ErroraSERKS0_@Base 0.10.1
 _ZN5QGlib5ErrorcvP7_GErrorEv@Base 0.10.1
 _ZN5QGlib5Quark10fromStringEPKc@Base 0.10.1
 _ZN5QGlib5Quark9tryStringEPKc@Base 0.10.1
 _ZN5QGlib5Value19registerValueVTableENS_4TypeERKNS_11ValueVTableE@Base 0.10.1
 (optional=templinst)_ZN5QGlib5Value3setI10QByteArrayEEvRKT_@Base 0.10.1
 (optional=templinst)_ZN5QGlib5Value3setI7QStringEEvRKT_@Base 0.10.1
 (optional=templinst)_ZN5QGlib5Value3setIPKcEEvRKT_@Base 0.10.2
 (optional=templinst)_ZN5QGlib5Value3setIbEEvRKT_@Base 0.10.1
 (optional=templinst)_ZN5QGlib5Value3setIcEEvRKT_@Base 0.10.1
 (optional=templinst)_ZN5QGlib5Value3setIdEEvRKT_@Base 0.10.1
 (optional=templinst)_ZN5QGlib5Value3setIfEEvRKT_@Base 0.10.1
 (optional=templinst)_ZN5QGlib5Value3setIhEEvRKT_@Base 0.10.1
 (optional=templinst)_ZN5QGlib5Value3setIiEEvRKT_@Base 0.10.1
 (optional=templinst)_ZN5QGlib5Value3setIjEEvRKT_@Base 0.10.1
 (optional=templinst)_ZN5QGlib5Value3setIlEEvRKT_@Base 0.10.1
 (optional=templinst)_ZN5QGlib5Value3setImEEvRKT_@Base 0.10.1
 (optional=templinst)_ZN5QGlib5Value3setIxEEvRKT_@Base 0.10.1
 (optional=templinst)_ZN5QGlib5Value3setIyEEvRKT_@Base 0.10.1
 _ZN5QGlib5Value4initENS_4TypeE@Base 0.10.1
 _ZN5QGlib5Value5clearEv@Base 0.10.1
 _ZN5QGlib5Value7setDataENS_4TypeEPKv@Base 0.10.1
 _ZN5QGlib5ValueC1ENS_4TypeE@Base 0.10.1
 _ZN5QGlib5ValueC1EPK7_GValue@Base 0.10.1
 _ZN5QGlib5ValueC1EPKc@Base 0.10.1
 _ZN5QGlib5ValueC1ERK10QByteArray@Base 0.10.1
 _ZN5QGlib5ValueC1ERK7QString@Base 0.10.1
 _ZN5QGlib5ValueC1ERKS0_@Base 0.10.1
 _ZN5QGlib5ValueC1Eb@Base 0.10.1
 _ZN5QGlib5ValueC1Ec@Base 0.10.1
 _ZN5QGlib5ValueC1Ed@Base 0.10.1
 _ZN5QGlib5ValueC1Ef@Base 0.10.1
 _ZN5QGlib5ValueC1Eh@Base 0.10.1
 _ZN5QGlib5ValueC1Ei@Base 0.10.1
 _ZN5QGlib5ValueC1Ej@Base 0.10.1
 _ZN5QGlib5ValueC1El@Base 0.10.1
 _ZN5QGlib5ValueC1Em@Base 0.10.1
 _ZN5QGlib5ValueC1Ev@Base 0.10.1
 _ZN5QGlib5ValueC1Ex@Base 0.10.1
 _ZN5QGlib5ValueC1Ey@Base 0.10.1
 _ZN5QGlib5ValueC2ENS_4TypeE@Base 0.10.1
 _ZN5QGlib5ValueC2EPK7_GValue@Base 0.10.1
 _ZN5QGlib5ValueC2EPKc@Base 0.10.1
 _ZN5QGlib5ValueC2ERK10QByteArray@Base 0.10.1
 _ZN5QGlib5ValueC2ERK7QString@Base 0.10.1
 _ZN5QGlib5ValueC2ERKS0_@Base 0.10.1
 _ZN5QGlib5ValueC2Eb@Base 0.10.1
 _ZN5QGlib5ValueC2Ec@Base 0.10.1
 _ZN5QGlib5ValueC2Ed@Base 0.10.1
 _ZN5QGlib5ValueC2Ef@Base 0.10.1
 _ZN5QGlib5ValueC2Eh@Base 0.10.1
 _ZN5QGlib5ValueC2Ei@Base 0.10.1
 _ZN5QGlib5ValueC2Ej@Base 0.10.1
 _ZN5QGlib5ValueC2El@Base 0.10.1
 _ZN5QGlib5ValueC2Em@Base 0.10.1
 _ZN5QGlib5ValueC2Ev@Base 0.10.1
 _ZN5QGlib5ValueC2Ex@Base 0.10.1
 _ZN5QGlib5ValueC2Ey@Base 0.10.1
 _ZN5QGlib5ValueD0Ev@Base 0.10.1
 _ZN5QGlib5ValueD1Ev@Base 0.10.1
 _ZN5QGlib5ValueD2Ev@Base 0.10.1
 _ZN5QGlib5ValueaSERKS0_@Base 0.10.1
 _ZN5QGlib5ValuecvP7_GValueEv@Base 0.10.1
 _ZN5QGlib6Signal11listSignalsENS_4TypeE@Base 0.10.1
 _ZN5QGlib6Signal6lookupEPKcNS_4TypeE@Base 0.10.1
 _ZN5QGlib6SignalC1ERKS0_@Base 0.10.1
 _ZN5QGlib6SignalC2ERKS0_@Base 0.10.1
 _ZN5QGlib6SignalD0Ev@Base 0.10.1
 _ZN5QGlib6SignalD1Ev@Base 0.10.1
 _ZN5QGlib6SignalD2Ev@Base 0.10.1
 _ZN5QGlib6SignalaSERKS0_@Base 0.10.1
 _ZN5QGlib7Private10disconnectEPvPKcNS_5QuarkES1_jm@Base 0.10.1
 _ZN5QGlib7Private10wrapObjectEPv@Base 0.10.1
 _ZN5QGlib7Private13wrapInterfaceENS_4TypeEPv@Base 0.10.1
 _ZN5QGlib7Private13wrapParamSpecEPv@Base 0.10.1
 _ZN5QGlib7Private20InvalidTypeExceptionD0Ev@Base 0.10.2
 _ZN5QGlib7Private20InvalidTypeExceptionD1Ev@Base 0.10.2
 _ZN5QGlib7Private20InvalidTypeExceptionD2Ev@Base 0.10.2
 _ZN5QGlib7Private21InvalidValueExceptionD0Ev@Base 0.10.2
 _ZN5QGlib7Private21InvalidValueExceptionD1Ev@Base 0.10.2
 _ZN5QGlib7Private21InvalidValueExceptionD2Ev@Base 0.10.2
 _ZN5QGlib7Private22QObjectDestroyNotifier10disconnectEPvP7QObject@Base 0.10.1
 _ZN5QGlib7Private22QObjectDestroyNotifier7connectEPvP7QObjectPKc@Base 0.10.1
 _ZN5QGlib7Private22QObjectDestroyNotifier8instanceEv@Base 0.10.1
 _ZN5QGlib7Private22QObjectDestroyNotifierD0Ev@Base 0.10.2
 _ZN5QGlib7Private22QObjectDestroyNotifierD1Ev@Base 0.10.2
 _ZN5QGlib7Private22QObjectDestroyNotifierD2Ev@Base 0.10.2
 _ZN5QGlib7Private25UnregisteredTypeExceptionD0Ev@Base 0.10.2
 _ZN5QGlib7Private25UnregisteredTypeExceptionD1Ev@Base 0.10.2
 _ZN5QGlib7Private25UnregisteredTypeExceptionD2Ev@Base 0.10.2
 _ZN5QGlib7Private29TransformationFailedExceptionD0Ev@Base 0.10.2
 _ZN5QGlib7Private29TransformationFailedExceptionD1Ev@Base 0.10.2
 _ZN5QGlib7Private29TransformationFailedExceptionD2Ev@Base 0.10.2
 _ZN5QGlib7Private4emitEPvPKcNS_5QuarkERK5QListINS_5ValueEE@Base 0.10.1
 _ZN5QGlib7Private7connectEPvPKcNS_5QuarkES1_RK14QSharedPointerINS0_20DestroyNotifierIfaceEEjPNS0_15ClosureDataBaseE6QFlagsINS_11ConnectFlagEE@Base 0.10.1
 _ZN5QGlib9ParamSpec12setQuarkDataERKNS_5QuarkEPvPFvS4_E@Base 0.10.1
 _ZN5QGlib9ParamSpec3refEb@Base 0.10.1
 _ZN5QGlib9ParamSpec5unrefEv@Base 0.10.1
 _ZN5QGliblsE6QDebugRKNS_5ErrorE@Base 0.10.1
 _ZN5QGliblsE6QDebugRKNS_5ValueE@Base 0.10.1
 _ZNK5QGlib10ObjectBase12findPropertyEPKc@Base 0.10.1
 _ZNK5QGlib10ObjectBase14listPropertiesEv@Base 0.10.1
 _ZNK5QGlib10ObjectBase14stealQuarkDataERKNS_5QuarkE@Base 0.10.1
 _ZNK5QGlib10ObjectBase4dataEPKc@Base 0.10.1
 _ZNK5QGlib10ObjectBase8propertyEPKc@Base 0.10.1
 _ZNK5QGlib10ObjectBase9quarkDataERKNS_5QuarkE@Base 0.10.1
 _ZNK5QGlib10ObjectBase9stealDataEPKc@Base 0.10.1
 _ZNK5QGlib4Type10interfacesEv@Base 0.10.1
 _ZNK5QGlib4Type10isAbstractEv@Base 0.10.1
 _ZNK5QGlib4Type11fundamentalEv@Base 0.10.1
 _ZNK5QGlib4Type11isDerivableEv@Base 0.10.1
 _ZNK5QGlib4Type11isInterfaceEv@Base 0.10.1
 _ZNK5QGlib4Type11isValueTypeEv@Base 0.10.1
 _ZNK5QGlib4Type13hasValueTableEv@Base 0.10.1
 _ZNK5QGlib4Type13isFundamentalEv@Base 0.10.1
 _ZNK5QGlib4Type15isDeepDerivableEv@Base 0.10.1
 _ZNK5QGlib4Type16isInstantiatableEv@Base 0.10.1
 _ZNK5QGlib4Type22interfacePrerequisitesEv@Base 0.10.1
 _ZNK5QGlib4Type3isAES0_@Base 0.10.1
 _ZNK5QGlib4Type4nameEv@Base 0.10.1
 _ZNK5QGlib4Type5depthEv@Base 0.10.1
 _ZNK5QGlib4Type6parentEv@Base 0.10.1
 _ZNK5QGlib4Type7isValidEv@Base 0.10.1
 _ZNK5QGlib4Type8childrenEv@Base 0.10.1
 _ZNK5QGlib4Type8nextBaseES0_@Base 0.10.1
 _ZNK5QGlib4Type9isClassedEv@Base 0.10.1
 _ZNK5QGlib4Type9isDerivedEv@Base 0.10.1
 _ZNK5QGlib4Type9nameQuarkEv@Base 0.10.1
 _ZNK5QGlib4Type9quarkDataERKNS_5QuarkE@Base 0.10.1
 _ZNK5QGlib5Error4codeEv@Base 0.10.1
 _ZNK5QGlib5Error4whatEv@Base 0.10.1
 _ZNK5QGlib5Error6domainEv@Base 0.10.1
 _ZNK5QGlib5Error7messageEv@Base 0.10.1
 _ZNK5QGlib5ErrorcvPK7_GErrorEv@Base 0.10.1
 _ZNK5QGlib5Quark8toStringEv@Base 0.10.1
 _ZNK5QGlib5Value11transformToENS_4TypeE@Base 0.10.1
 _ZNK5QGlib5Value14canTransformToENS_4TypeE@Base 0.10.1
 (optional=templinst)_ZNK5QGlib5Value3getI7QStringEET_Pb@Base 0.10.1
 _ZNK5QGlib5Value4typeEv@Base 0.10.1
 _ZNK5QGlib5Value7getDataENS_4TypeEPv@Base 0.10.1
 _ZNK5QGlib5Value7isValidEv@Base 0.10.1
 _ZNK5QGlib5ValuecvPK7_GValueEv@Base 0.10.1
 _ZNK5QGlib6Signal10paramTypesEv@Base 0.10.1
 _ZNK5QGlib6Signal10returnTypeEv@Base 0.10.1
 _ZNK5QGlib6Signal12instanceTypeEv@Base 0.10.1
 _ZNK5QGlib6Signal2idEv@Base 0.10.1
 _ZNK5QGlib6Signal4nameEv@Base 0.10.1
 _ZNK5QGlib6Signal5flagsEv@Base 0.10.1
 _ZNK5QGlib6Signal7isValidEv@Base 0.10.1
 _ZNK5QGlib9ParamSpec11descriptionEv@Base 0.10.1
 _ZNK5QGlib9ParamSpec14stealQuarkDataERKNS_5QuarkE@Base 0.10.1
 _ZNK5QGlib9ParamSpec4nameEv@Base 0.10.1
 _ZNK5QGlib9ParamSpec4nickEv@Base 0.10.1
 _ZNK5QGlib9ParamSpec5flagsEv@Base 0.10.1
 _ZNK5QGlib9ParamSpec9ownerTypeEv@Base 0.10.1
 _ZNK5QGlib9ParamSpec9quarkDataERKNS_5QuarkE@Base 0.10.1
 _ZNK5QGlib9ParamSpec9valueTypeEv@Base 0.10.1
 (optional=templinst)_ZSt13__adjust_heapIPN5boost11multi_index6detail14copy_map_entryINS2_20sequenced_index_nodeINS2_18ordered_index_nodeINS5_INS5_INS2_15index_node_baseIN5QGlib7Private16ConnectionsStore10ConnectionESaISA_EEEEEEEEEEEEElSH_EvT_T0_SK_T1_@Base 0.10.1
 (optional=templinst)_ZSt16__insertion_sortIPN5boost11multi_index6detail14copy_map_entryINS2_20sequenced_index_nodeINS2_18ordered_index_nodeINS5_INS5_INS2_15index_node_baseIN5QGlib7Private16ConnectionsStore10ConnectionESaISA_EEEEEEEEEEEEEEvT_SJ_@Base 0.10.1
 (optional=templinst)_ZSt16__introsort_loopIPN5boost11multi_index6detail14copy_map_entryINS2_20sequenced_index_nodeINS2_18ordered_index_nodeINS5_INS5_INS2_15index_node_baseIN5QGlib7Private16ConnectionsStore10ConnectionESaISA_EEEEEEEEEEEEElEvT_SJ_T0_@Base 0.10.1
 (optional=templinst)_ZSt19__move_median_firstIPN5boost11multi_index6detail14copy_map_entryINS2_20sequenced_index_nodeINS2_18ordered_index_nodeINS5_INS5_INS2_15index_node_baseIN5QGlib7Private16ConnectionsStore10ConnectionESaISA_EEEEEEEEEEEEEEvT_SJ_SJ_@Base 0.10.1
 (optional=templinst)_ZStplIcSt11char_traitsIcESaIcEESbIT_T0_T1_EPKS3_RKS6_@Base 0.10.1
 _ZTIN5QGlib10ObjectBaseE@Base 0.10.1
 _ZTIN5QGlib16RefCountedObjectE@Base 0.10.1
 _ZTIN5QGlib5ErrorE@Base 0.10.1
 _ZTIN5QGlib5ValueE@Base 0.10.1
 _ZTIN5QGlib6ObjectE@Base 0.10.1
 _ZTIN5QGlib6SignalE@Base 0.10.1
 _ZTIN5QGlib7Private20DestroyNotifierIfaceE@Base 0.10.1
 _ZTIN5QGlib7Private20InvalidTypeExceptionE@Base 0.10.1
 _ZTIN5QGlib7Private21InvalidValueExceptionE@Base 0.10.1
 _ZTIN5QGlib7Private22QObjectDestroyNotifierE@Base 0.10.1
 _ZTIN5QGlib7Private25UnregisteredTypeExceptionE@Base 0.10.1
 _ZTIN5QGlib7Private29TransformationFailedExceptionE@Base 0.10.1
 _ZTIN5QGlib9InterfaceE@Base 0.10.1
 _ZTIN5QGlib9ParamSpecE@Base 0.10.1
 _ZTSN5QGlib10ObjectBaseE@Base 0.10.1
 _ZTSN5QGlib16RefCountedObjectE@Base 0.10.1
 _ZTSN5QGlib5ErrorE@Base 0.10.1
 _ZTSN5QGlib5ValueE@Base 0.10.1
 _ZTSN5QGlib6ObjectE@Base 0.10.1
 _ZTSN5QGlib6SignalE@Base 0.10.1
 _ZTSN5QGlib7Private20DestroyNotifierIfaceE@Base 0.10.1
 _ZTSN5QGlib7Private20InvalidTypeExceptionE@Base 0.10.1
 _ZTSN5QGlib7Private21InvalidValueExceptionE@Base 0.10.1
 _ZTSN5QGlib7Private22QObjectDestroyNotifierE@Base 0.10.1
 _ZTSN5QGlib7Private25UnregisteredTypeExceptionE@Base 0.10.1
 _ZTSN5QGlib7Private29TransformationFailedExceptionE@Base 0.10.1
 _ZTSN5QGlib9InterfaceE@Base 0.10.1
 _ZTSN5QGlib9ParamSpecE@Base 0.10.1
 _ZTTN5QGlib6ObjectE@Base 0.10.1
 _ZTTN5QGlib9InterfaceE@Base 0.10.1
 _ZTVN5QGlib10ObjectBaseE@Base 0.10.1
 _ZTVN5QGlib16RefCountedObjectE@Base 0.10.1
 _ZTVN5QGlib5ErrorE@Base 0.10.1
 _ZTVN5QGlib5ValueE@Base 0.10.1
 _ZTVN5QGlib6ObjectE@Base 0.10.1
 _ZTVN5QGlib6SignalE@Base 0.10.1
 _ZTVN5QGlib7Private20DestroyNotifierIfaceE@Base 0.10.1
 _ZTVN5QGlib7Private20InvalidTypeExceptionE@Base 0.10.1
 _ZTVN5QGlib7Private21InvalidValueExceptionE@Base 0.10.1
 _ZTVN5QGlib7Private22QObjectDestroyNotifierE@Base 0.10.1
 _ZTVN5QGlib7Private25UnregisteredTypeExceptionE@Base 0.10.1
 _ZTVN5QGlib7Private29TransformationFailedExceptionE@Base 0.10.1
 _ZTVN5QGlib9InterfaceE@Base 0.10.1
 _ZTVN5QGlib9ParamSpecE@Base 0.10.1
