# SymbolsHelper-Confirmed: 0.10.2 amd64
libQtGStreamerUi-0.10.so.0 libqtgstreamerui-0.10-0 #MINVER#
* Build-Depends-Package: libqtgstreamer-dev
 _ZN4QGst2Ui11VideoWidget10paintEventEP11QPaintEvent@Base 0.10.1
 _ZN4QGst2Ui11VideoWidget11qt_metacallEN11QMetaObject4CallEiPPv@Base 0.10.1
 _ZN4QGst2Ui11VideoWidget11qt_metacastEPKc@Base 0.10.1
 _ZN4QGst2Ui11VideoWidget12setVideoSinkERKN5QGlib10RefPointerINS_7ElementEEE@Base 0.10.1
 _ZN4QGst2Ui11VideoWidget13watchPipelineERKN5QGlib10RefPointerINS_8PipelineEEE@Base 0.10.1
 _ZN4QGst2Ui11VideoWidget16releaseVideoSinkEv@Base 0.10.1
 _ZN4QGst2Ui11VideoWidget16staticMetaObjectE@Base 0.10.1
 _ZN4QGst2Ui11VideoWidget17stopPipelineWatchEv@Base 0.10.1
 _ZN4QGst2Ui11VideoWidgetC1EP7QWidget6QFlagsIN2Qt10WindowTypeEE@Base 0.10.1
 _ZN4QGst2Ui11VideoWidgetC2EP7QWidget6QFlagsIN2Qt10WindowTypeEE@Base 0.10.1
 _ZN4QGst2Ui11VideoWidgetD0Ev@Base 0.10.1
 _ZN4QGst2Ui11VideoWidgetD1Ev@Base 0.10.1
 _ZN4QGst2Ui11VideoWidgetD2Ev@Base 0.10.1
 _ZN4QGst2Ui19GraphicsVideoWidget10setSurfaceEPNS0_20GraphicsVideoSurfaceE@Base 0.10.2
 _ZN4QGst2Ui19GraphicsVideoWidget11qt_metacallEN11QMetaObject4CallEiPPv@Base 0.10.2
 _ZN4QGst2Ui19GraphicsVideoWidget11qt_metacastEPKc@Base 0.10.2
 _ZN4QGst2Ui19GraphicsVideoWidget16staticMetaObjectE@Base 0.10.2
 _ZN4QGst2Ui19GraphicsVideoWidget5paintEP8QPainterPK24QStyleOptionGraphicsItemP7QWidget@Base 0.10.2
 _ZN4QGst2Ui19GraphicsVideoWidgetC1EP13QGraphicsItem6QFlagsIN2Qt10WindowTypeEE@Base 0.10.2
 _ZN4QGst2Ui19GraphicsVideoWidgetC2EP13QGraphicsItem6QFlagsIN2Qt10WindowTypeEE@Base 0.10.2
 _ZN4QGst2Ui19GraphicsVideoWidgetD0Ev@Base 0.10.2
 _ZN4QGst2Ui19GraphicsVideoWidgetD1Ev@Base 0.10.2
 _ZN4QGst2Ui19GraphicsVideoWidgetD2Ev@Base 0.10.2
 _ZN4QGst2Ui20GraphicsVideoSurface11qt_metacallEN11QMetaObject4CallEiPPv@Base 0.10.2
 _ZN4QGst2Ui20GraphicsVideoSurface11qt_metacastEPKc@Base 0.10.2
 _ZN4QGst2Ui20GraphicsVideoSurface16staticMetaObjectE@Base 0.10.2
 _ZN4QGst2Ui20GraphicsVideoSurfaceC1EP13QGraphicsView@Base 0.10.2
 _ZN4QGst2Ui20GraphicsVideoSurfaceC2EP13QGraphicsView@Base 0.10.2
 _ZN4QGst2Ui20GraphicsVideoSurfaceD0Ev@Base 0.10.2
 _ZN4QGst2Ui20GraphicsVideoSurfaceD1Ev@Base 0.10.2
 _ZN4QGst2Ui20GraphicsVideoSurfaceD2Ev@Base 0.10.2
 _ZNK4QGst2Ui11VideoWidget10metaObjectEv@Base 0.10.1
 _ZNK4QGst2Ui11VideoWidget9videoSinkEv@Base 0.10.1
 _ZNK4QGst2Ui19GraphicsVideoWidget10metaObjectEv@Base 0.10.2
 _ZNK4QGst2Ui19GraphicsVideoWidget7surfaceEv@Base 0.10.2
 _ZNK4QGst2Ui20GraphicsVideoSurface10metaObjectEv@Base 0.10.2
 _ZNK4QGst2Ui20GraphicsVideoSurface9videoSinkEv@Base 0.10.2
 _ZTIN4QGst2Ui11VideoWidgetE@Base 0.10.1
 _ZTIN4QGst2Ui19GraphicsVideoWidgetE@Base 0.10.2
 _ZTIN4QGst2Ui20GraphicsVideoSurfaceE@Base 0.10.2
 _ZTSN4QGst2Ui11VideoWidgetE@Base 0.10.1
 _ZTSN4QGst2Ui19GraphicsVideoWidgetE@Base 0.10.2
 _ZTSN4QGst2Ui20GraphicsVideoSurfaceE@Base 0.10.2
 _ZTVN4QGst2Ui11VideoWidgetE@Base 0.10.1
 _ZTVN4QGst2Ui19GraphicsVideoWidgetE@Base 0.10.2
 _ZTVN4QGst2Ui20GraphicsVideoSurfaceE@Base 0.10.2
 (c++)"non-virtual thunk to QGst::Ui::GraphicsVideoWidget::paint(QPainter*, QStyleOptionGraphicsItem const*, QWidget*)@Base" 0.10.2
 (c++)"non-virtual thunk to QGst::Ui::GraphicsVideoWidget::~GraphicsVideoWidget()@Base" 0.10.2
 (c++)"non-virtual thunk to QGst::Ui::VideoWidget::~VideoWidget()@Base" 0.10.1
