# SymbolsHelper-Confirmed: 0.10.1 amd64
libQtGStreamerUtils-0.10.so.0 libqtgstreamerutils-0.10-0 #MINVER#
* Build-Depends-Package: libqtgstreamer-dev
 _ZN4QGst5Utils15ApplicationSink10enableDropEb@Base 0.10.1
 _ZN4QGst5Utils15ApplicationSink10newPrerollEv@Base 0.10.1
 _ZN4QGst5Utils15ApplicationSink10pullBufferEv@Base 0.10.1
 _ZN4QGst5Utils15ApplicationSink10setElementERKN5QGlib10RefPointerINS_7ElementEEE@Base 0.10.1
 _ZN4QGst5Utils15ApplicationSink11pullPrerollEv@Base 0.10.1
 _ZN4QGst5Utils15ApplicationSink13newBufferListEv@Base 0.10.1
 _ZN4QGst5Utils15ApplicationSink13setMaxBuffersEj@Base 0.10.1
 _ZN4QGst5Utils15ApplicationSink14pullBufferListEv@Base 0.10.1
 _ZN4QGst5Utils15ApplicationSink3eosEv@Base 0.10.1
 _ZN4QGst5Utils15ApplicationSink7setCapsERKN5QGlib10RefPointerINS_4CapsEEE@Base 0.10.1
 _ZN4QGst5Utils15ApplicationSink9newBufferEv@Base 0.10.1
 _ZN4QGst5Utils15ApplicationSinkC1Ev@Base 0.10.1
 _ZN4QGst5Utils15ApplicationSinkC2Ev@Base 0.10.1
 _ZN4QGst5Utils15ApplicationSinkD0Ev@Base 0.10.1
 _ZN4QGst5Utils15ApplicationSinkD1Ev@Base 0.10.1
 _ZN4QGst5Utils15ApplicationSinkD2Ev@Base 0.10.1
 _ZN4QGst5Utils17ApplicationSource10enoughDataEv@Base 0.10.1
 _ZN4QGst5Utils17ApplicationSource10pushBufferERKN5QGlib10RefPointerINS_6BufferEEE@Base 0.10.1
 _ZN4QGst5Utils17ApplicationSource10setElementERKN5QGlib10RefPointerINS_7ElementEEE@Base 0.10.1
 _ZN4QGst5Utils17ApplicationSource10setLatencyEyy@Base 0.10.1
 _ZN4QGst5Utils17ApplicationSource11enableBlockEb@Base 0.10.1
 _ZN4QGst5Utils17ApplicationSource11endOfStreamEv@Base 0.10.1
 _ZN4QGst5Utils17ApplicationSource11setMaxBytesEy@Base 0.10.1
 _ZN4QGst5Utils17ApplicationSource13setMinPercentEj@Base 0.10.1
 _ZN4QGst5Utils17ApplicationSource13setStreamTypeENS_13AppStreamTypeE@Base 0.10.1
 _ZN4QGst5Utils17ApplicationSource7setCapsERKN5QGlib10RefPointerINS_4CapsEEE@Base 0.10.1
 _ZN4QGst5Utils17ApplicationSource7setLiveEb@Base 0.10.1
 _ZN4QGst5Utils17ApplicationSource7setSizeEx@Base 0.10.1
 _ZN4QGst5Utils17ApplicationSource8needDataEj@Base 0.10.1
 _ZN4QGst5Utils17ApplicationSource8seekDataEy@Base 0.10.1
 _ZN4QGst5Utils17ApplicationSource9setFormatENS_6FormatE@Base 0.10.1
 _ZN4QGst5Utils17ApplicationSourceC1Ev@Base 0.10.1
 _ZN4QGst5Utils17ApplicationSourceC2Ev@Base 0.10.1
 _ZN4QGst5Utils17ApplicationSourceD0Ev@Base 0.10.1
 _ZN4QGst5Utils17ApplicationSourceD1Ev@Base 0.10.1
 _ZN4QGst5Utils17ApplicationSourceD2Ev@Base 0.10.1
 _ZNK4QGst5Utils15ApplicationSink10maxBuffersEv@Base 0.10.1
 _ZNK4QGst5Utils15ApplicationSink11dropEnabledEv@Base 0.10.1
 _ZNK4QGst5Utils15ApplicationSink4capsEv@Base 0.10.1
 _ZNK4QGst5Utils15ApplicationSink5isEosEv@Base 0.10.1
 _ZNK4QGst5Utils15ApplicationSink7elementEv@Base 0.10.1
 _ZNK4QGst5Utils17ApplicationSource10maxLatencyEv@Base 0.10.1
 _ZNK4QGst5Utils17ApplicationSource10minLatencyEv@Base 0.10.1
 _ZNK4QGst5Utils17ApplicationSource10minPercentEv@Base 0.10.1
 _ZNK4QGst5Utils17ApplicationSource10streamTypeEv@Base 0.10.1
 _ZNK4QGst5Utils17ApplicationSource12blockEnabledEv@Base 0.10.1
 _ZNK4QGst5Utils17ApplicationSource4capsEv@Base 0.10.1
 _ZNK4QGst5Utils17ApplicationSource4sizeEv@Base 0.10.1
 _ZNK4QGst5Utils17ApplicationSource6formatEv@Base 0.10.1
 _ZNK4QGst5Utils17ApplicationSource6isLiveEv@Base 0.10.1
 _ZNK4QGst5Utils17ApplicationSource7elementEv@Base 0.10.1
 _ZNK4QGst5Utils17ApplicationSource8maxBytesEv@Base 0.10.1
 _ZTIN4QGst5Utils15ApplicationSinkE@Base 0.10.1
 _ZTIN4QGst5Utils17ApplicationSourceE@Base 0.10.1
 _ZTSN4QGst5Utils15ApplicationSinkE@Base 0.10.1
 _ZTSN4QGst5Utils17ApplicationSourceE@Base 0.10.1
 _ZTVN4QGst5Utils15ApplicationSinkE@Base 0.10.1
 _ZTVN4QGst5Utils17ApplicationSourceE@Base 0.10.1
