# SymbolsHelper-Confirmed: 0.10.2 amd64
libQtGStreamer-0.10.so.0 libqtgstreamer-0.10-0 #MINVER#
* Build-Depends-Package: libqtgstreamer-dev
 _ZN4QGst10BufferList6createEv@Base 0.10.1
 _ZN4QGst10EosMessage6createERKN5QGlib10RefPointerINS_6ObjectEEE@Base 0.10.1
 _ZN4QGst10MiniObject3refEb@Base 0.10.1
 _ZN4QGst10MiniObject5unrefEv@Base 0.10.1
 _ZN4QGst10QosMessage6createERKN5QGlib10RefPointerINS_6ObjectEEEbyyyy@Base 0.10.1
 _ZN4QGst10QosMessage8setStatsENS_6FormatEyy@Base 0.10.1
 _ZN4QGst10QosMessage9setValuesExdi@Base 0.10.1
 _ZN4QGst10TagMessage6createERKN5QGlib10RefPointerINS_6ObjectEEERKNS_7TagListE@Base 0.10.1
 _ZN4QGst10UriHandler11makeFromUriENS_7UriTypeERK4QUrlPKc@Base 0.10.1
 _ZN4QGst10UriHandler19protocolIsSupportedENS_7UriTypeEPKc@Base 0.10.1
 _ZN4QGst10UriHandler6setUriERK4QUrl@Base 0.10.1
 _ZN4QGst11InfoMessage6createERKN5QGlib10RefPointerINS_6ObjectEEERKNS1_5ErrorEPKc@Base 0.10.1
 _ZN4QGst12ColorBalance8setValueERKN5QGlib10RefPointerINS_19ColorBalanceChannelEEEi@Base 0.10.1
 _ZN4QGst12ConvertQuery6createENS_6FormatExS1_@Base 0.10.1
 _ZN4QGst12ConvertQuery9setValuesENS_6FormatExS1_x@Base 0.10.1
 _ZN4QGst12ErrorMessage6createERKN5QGlib10RefPointerINS_6ObjectEEERKNS1_5ErrorEPKc@Base 0.10.1
 _ZN4QGst12FormatsQuery10setFormatsERK5QListINS_6FormatEE@Base 0.10.1
 _ZN4QGst12FormatsQuery6createEv@Base 0.10.1
 _ZN4QGst12LatencyEvent6createENS_9ClockTimeE@Base 0.10.1
 _ZN4QGst12LatencyQuery6createEv@Base 0.10.1
 _ZN4QGst12LatencyQuery9setValuesEbNS_9ClockTimeES1_@Base 0.10.1
 _ZN4QGst12SeekingQuery6createENS_6FormatE@Base 0.10.1
 _ZN4QGst12SeekingQuery9setValuesENS_6FormatEbxx@Base 0.10.1
 _ZN4QGst12SegmentQuery6createENS_6FormatE@Base 0.10.1
 _ZN4QGst12SegmentQuery9setValuesENS_6FormatEdxx@Base 0.10.1
 _ZN4QGst12StreamVolume7convertENS_18StreamVolumeFormatES1_d@Base 0.10.1
 _ZN4QGst12StreamVolume8setMutedEb@Base 0.10.1
 _ZN4QGst12StreamVolume9setVolumeEdNS_18StreamVolumeFormatE@Base 0.10.1
 _ZN4QGst13DurationQuery6createENS_6FormatE@Base 0.10.1
 _ZN4QGst13DurationQuery9setValuesENS_6FormatEx@Base 0.10.1
 _ZN4QGst13PluginFeature4loadEv@Base 0.10.1
 _ZN4QGst13PluginFeature7setNameEPKc@Base 0.10.1
 _ZN4QGst13PluginFeature7setRankEj@Base 0.10.1
 _ZN4QGst13PositionQuery6createENS_6FormatE@Base 0.10.1
 _ZN4QGst13PositionQuery9setValuesENS_6FormatEx@Base 0.10.1
 _ZN4QGst13PropertyProbe17probeAndGetValuesEPKc@Base 0.10.1
 _ZN4QGst13PropertyProbe17probeAndGetValuesERKN5QGlib10RefPointerINS1_9ParamSpecEEE@Base 0.10.1
 _ZN4QGst13PropertyProbe5probeEPKc@Base 0.10.1
 _ZN4QGst13PropertyProbe5probeERKN5QGlib10RefPointerINS1_9ParamSpecEEE@Base 0.10.1
 _ZN4QGst14BufferingQuery17setBufferingRangeENS_6FormatExxx@Base 0.10.1
 _ZN4QGst14BufferingQuery17setBufferingStatsENS_13BufferingModeEiix@Base 0.10.1
 _ZN4QGst14BufferingQuery19setBufferingPercentEbi@Base 0.10.1
 _ZN4QGst14BufferingQuery6createENS_6FormatE@Base 0.10.1
 _ZN4QGst14ElementFactory4findEPKc@Base 0.10.1
 _ZN4QGst14ElementFactory4makeEPKcS2_@Base 0.10.1
 _ZN4QGst14ElementMessage6createERKN5QGlib10RefPointerINS_6ObjectEEERKNS_9StructureE@Base 0.10.1
 _ZN4QGst14FlushStopEvent6createEv@Base 0.10.1
 _ZN4QGst14LatencyMessage6createERKN5QGlib10RefPointerINS_6ObjectEEE@Base 0.10.1
 _ZN4QGst14WarningMessage6createERKN5QGlib10RefPointerINS_6ObjectEEERKNS1_5ErrorEPKc@Base 0.10.1
 _ZN4QGst15BufferSizeEvent6createENS_6FormatExxb@Base 0.10.1
 _ZN4QGst15DurationMessage6createERKN5QGlib10RefPointerINS_6ObjectEEENS_6FormatEx@Base 0.10.1
 _ZN4QGst15FlushStartEvent6createEv@Base 0.10.1
 _ZN4QGst15NavigationEvent6createERKNS_9StructureE@Base 0.10.1
 _ZN4QGst15NewSegmentEvent6createEbddNS_6FormatExxx@Base 0.10.1
 _ZN4QGst15SharedStructureD0Ev@Base 0.10.1
 _ZN4QGst15SharedStructureD1Ev@Base 0.10.1
 _ZN4QGst15SharedStructureD2Ev@Base 0.10.1
 _ZN4QGst15StepDoneMessage6createERKN5QGlib10RefPointerINS_6ObjectEEENS_6FormatEydbbyb@Base 0.10.1
 _ZN4QGst16AsyncDoneMessage6createERKN5QGlib10RefPointerINS_6ObjectEEE@Base 0.10.1
 _ZN4QGst16BufferingMessage6createERKN5QGlib10RefPointerINS_6ObjectEEEi@Base 0.10.1
 _ZN4QGst16BufferingMessage8setStatsENS_13BufferingModeEiix@Base 0.10.1
 _ZN4QGst16SinkMessageEvent6createERKN5QGlib10RefPointerINS_7MessageEEE@Base 0.10.1
 _ZN4QGst16StepStartMessage6createERKN5QGlib10RefPointerINS_6ObjectEEEbNS_6FormatEydbb@Base 0.10.1
 _ZN4QGst16VideoOrientation17setVerticalCenterEi@Base 0.10.1
 _ZN4QGst16VideoOrientation18enableVerticalFlipEb@Base 0.10.1
 _ZN4QGst16VideoOrientation19setHorizontalCenterEi@Base 0.10.1
 _ZN4QGst16VideoOrientation20enableHorizontalFlipEb@Base 0.10.1
 _ZN4QGst18ApplicationMessage6createERKN5QGlib10RefPointerINS_6ObjectEEERKNS_9StructureE@Base 0.10.1
 _ZN4QGst18BufferListIterator4nextEv@Base 0.10.1
 _ZN4QGst18BufferListIterator4takeEv@Base 0.10.1
 _ZN4QGst18BufferListIterator6insertERKN5QGlib10RefPointerINS_6BufferEEE@Base 0.10.1
 _ZN4QGst18BufferListIterator6removeEv@Base 0.10.1
 _ZN4QGst18BufferListIterator7replaceERKN5QGlib10RefPointerINS_6BufferEEE@Base 0.10.1
 _ZN4QGst18BufferListIterator8addGroupEv@Base 0.10.1
 _ZN4QGst18BufferListIterator9nextGroupEv@Base 0.10.1
 _ZN4QGst18BufferListIteratorC1ERKN5QGlib10RefPointerINS_10BufferListEEE@Base 0.10.1
 _ZN4QGst18BufferListIteratorC2ERKN5QGlib10RefPointerINS_10BufferListEEE@Base 0.10.1
 _ZN4QGst18BufferListIteratorD1Ev@Base 0.10.1
 _ZN4QGst18BufferListIteratorD2Ev@Base 0.10.1
 _ZN4QGst18SegmentDoneMessage6createERKN5QGlib10RefPointerINS_6ObjectEEENS_6FormatEx@Base 0.10.1
 _ZN4QGst19RequestStateMessage6createERKN5QGlib10RefPointerINS_6ObjectEEENS_5StateE@Base 0.10.1
 _ZN4QGst19StateChangedMessage6createERKN5QGlib10RefPointerINS_6ObjectEEENS_5StateES7_S7_@Base 0.10.1
 _ZN4QGst19StreamStatusMessage21setStreamStatusObjectERKN5QGlib5ValueE@Base 0.10.1
 _ZN4QGst19StreamStatusMessage6createERKN5QGlib10RefPointerINS_6ObjectEEENS_16StreamStatusTypeERKNS2_INS_7ElementEEE@Base 0.10.1
 _ZN4QGst3Bin15fromDescriptionEPKcNS0_24BinFromDescriptionOptionE@Base 0.10.1
 _ZN4QGst3Bin18recalculateLatencyEv@Base 0.10.1
 _ZN4QGst3Bin3addERKN5QGlib10RefPointerINS_7ElementEEE@Base 0.10.1
 _ZN4QGst3Bin6createEPKc@Base 0.10.1
 _ZN4QGst3Bin6removeERKN5QGlib10RefPointerINS_7ElementEEE@Base 0.10.1
 _ZN4QGst3Bus11setFlushingEb@Base 0.10.1
 _ZN4QGst3Bus14addSignalWatchEv@Base 0.10.1
 _ZN4QGst3Bus17removeSignalWatchEv@Base 0.10.1
 _ZN4QGst3Bus25enableSyncMessageEmissionEv@Base 0.10.1
 _ZN4QGst3Bus26disableSyncMessageEmissionEv@Base 0.10.1
 _ZN4QGst3Bus3popENS_11MessageTypeENS_9ClockTimeE@Base 0.10.1
 _ZN4QGst3Bus3popENS_9ClockTimeE@Base 0.10.1
 _ZN4QGst3Bus4postERKN5QGlib10RefPointerINS_7MessageEEE@Base 0.10.1
 _ZN4QGst3Bus6createEv@Base 0.10.1
 _ZN4QGst3Pad10setBlockedEb@Base 0.10.1
 _ZN4QGst3Pad4linkERKN5QGlib10RefPointerIS0_EE@Base 0.10.1
 _ZN4QGst3Pad5queryERKN5QGlib10RefPointerINS_5QueryEEE@Base 0.10.1
 _ZN4QGst3Pad6createENS_12PadDirectionEPKc@Base 0.10.1
 _ZN4QGst3Pad6unlinkERKN5QGlib10RefPointerIS0_EE@Base 0.10.1
 _ZN4QGst3Pad7setCapsERKN5QGlib10RefPointerINS_4CapsEEE@Base 0.10.1
 _ZN4QGst3Pad9sendEventERKN5QGlib10RefPointerINS_5EventEEE@Base 0.10.1
 _ZN4QGst3Pad9setActiveEb@Base 0.10.2
 _ZN4QGst4Caps10fromStringEPKc@Base 0.10.1
 _ZN4QGst4Caps11createEmptyEv@Base 0.10.1
 _ZN4QGst4Caps12createSimpleEPKc@Base 0.10.1
 _ZN4QGst4Caps14mergeStructureERKNS_9StructureE@Base 0.10.1
 _ZN4QGst4Caps15appendStructureERKNS_9StructureE@Base 0.10.1
 _ZN4QGst4Caps15removeStructureEj@Base 0.10.1
 _ZN4QGst4Caps17internalStructureEj@Base 0.10.1
 _ZN4QGst4Caps3refEb@Base 0.10.1
 _ZN4QGst4Caps5mergeERKN5QGlib10RefPointerIS0_EE@Base 0.10.1
 _ZN4QGst4Caps5unrefEv@Base 0.10.1
 _ZN4QGst4Caps6appendERKN5QGlib10RefPointerIS0_EE@Base 0.10.1
 _ZN4QGst4Caps8setValueEPKcRKN5QGlib5ValueE@Base 0.10.1
 _ZN4QGst4Caps8simplifyEv@Base 0.10.1
 _ZN4QGst4Caps8truncateEv@Base 0.10.1
 _ZN4QGst4Caps9createAnyEv@Base 0.10.1
 _ZN4QGst4initEPiPPPc@Base 0.10.1
 _ZN4QGst4initEv@Base 0.10.1
 _ZN4QGst5Clock11systemClockEv@Base 0.10.1
 _ZN4QGst5Event17internalStructureEv@Base 0.10.1
 _ZN4QGst5Event17setSequenceNumberEj@Base 0.10.1
 _ZN4QGst5Parse6launchEPKc@Base 0.10.1
 _ZN4QGst5Parse6launchEPPKc@Base 0.10.1
 _ZN4QGst5Query17internalStructureEv@Base 0.10.1
 _ZN4QGst6Buffer6createEj@Base 0.10.1
 _ZN4QGst6Buffer7setCapsERKN5QGlib10RefPointerINS_4CapsEEE@Base 0.10.1
 _ZN4QGst6Buffer8setFlagsE6QFlagsINS_10BufferFlagEE@Base 0.10.1
 _ZN4QGst6Object3refEb@Base 0.10.1
 _ZN4QGst6Object5unrefEv@Base 0.10.1
 _ZN4QGst6Object7setNameEPKc@Base 0.10.1
 _ZN4QGst6Object8unparentEv@Base 0.10.1
 _ZN4QGst6Object9setParentERKN5QGlib10RefPointerIS0_EE@Base 0.10.1
 _ZN4QGst7Element12getStaticPadEPKc@Base 0.10.1
 _ZN4QGst7Element13getRequestPadEPKc@Base 0.10.1
 _ZN4QGst7Element14setStateLockedEb@Base 0.10.1
 _ZN4QGst7Element17releaseRequestPadERKN5QGlib10RefPointerINS_3PadEEE@Base 0.10.1
 _ZN4QGst7Element19syncStateWithParentEv@Base 0.10.1
 _ZN4QGst7Element4linkEPKcRKN5QGlib10RefPointerIS0_EERKNS4_INS_4CapsEEE@Base 0.10.1
 _ZN4QGst7Element4linkEPKcRKN5QGlib10RefPointerIS0_EES2_RKNS4_INS_4CapsEEE@Base 0.10.1
 _ZN4QGst7Element4linkERKN5QGlib10RefPointerIS0_EEPKcRKNS2_INS_4CapsEEE@Base 0.10.1
 _ZN4QGst7Element4linkERKN5QGlib10RefPointerIS0_EERKNS2_INS_4CapsEEE@Base 0.10.1
 _ZN4QGst7Element4seekENS_6FormatE6QFlagsINS_8SeekFlagEEy@Base 0.10.1
 _ZN4QGst7Element5queryERKN5QGlib10RefPointerINS_5QueryEEE@Base 0.10.1
 _ZN4QGst7Element6addPadERKN5QGlib10RefPointerINS_3PadEEE@Base 0.10.1
 _ZN4QGst7Element6unlinkEPKcRKN5QGlib10RefPointerIS0_EES2_@Base 0.10.1
 _ZN4QGst7Element6unlinkERKN5QGlib10RefPointerIS0_EEPKc@Base 0.10.1
 _ZN4QGst7Element8setClockERKN5QGlib10RefPointerINS_5ClockEEE@Base 0.10.1
 _ZN4QGst7Element8setStateENS_5StateE@Base 0.10.1
 _ZN4QGst7Element9removePadERKN5QGlib10RefPointerINS_3PadEEE@Base 0.10.2
 _ZN4QGst7Element9sendEventERKN5QGlib10RefPointerINS_5EventEEE@Base 0.10.1
 _ZN4QGst7Message17internalStructureEv@Base 0.10.1
 _ZN4QGst7Message17setSequenceNumberEj@Base 0.10.1
 _ZN4QGst7Private14wrapMiniObjectEPv@Base 0.10.1
 _ZN4QGst7Private8wrapCapsEPv@Base 0.10.1
 _ZN4QGst7TagList10setBitrateEj@Base 0.10.1
 _ZN4QGst7TagList10setCommentERK7QStringNS_12TagMergeModeE@Base 0.10.1
 _ZN4QGst7TagList10setContactERK7QStringNS_12TagMergeModeE@Base 0.10.1
 _ZN4QGst7TagList10setEncoderERK7QString@Base 0.10.1
 _ZN4QGst7TagList10setLicenseERK7QString@Base 0.10.1
 _ZN4QGst7TagList10setVersionERK7QString@Base 0.10.1
 _ZN4QGst7TagList11setComposerERK7QStringNS_12TagMergeModeE@Base 0.10.1
 _ZN4QGst7TagList11setDateTimeERK9QDateTime@Base 0.10.1
 _ZN4QGst7TagList11setDurationEy@Base 0.10.1
 _ZN4QGst7TagList11setGroupingERK7QString@Base 0.10.1
 _ZN4QGst7TagList11setHomepageERK7QStringNS_12TagMergeModeE@Base 0.10.1
 _ZN4QGst7TagList11setKeywordsERK7QStringNS_12TagMergeModeE@Base 0.10.1
 _ZN4QGst7TagList11setLocationERK7QStringNS_12TagMergeModeE@Base 0.10.1
 _ZN4QGst7TagList11setShowNameERK7QStringNS_12TagMergeModeE@Base 0.10.1
 _ZN4QGst7TagList11setTagValueEPKcRKN5QGlib5ValueENS_12TagMergeModeE@Base 0.10.1
 _ZN4QGst7TagList12setAlbumGainEd@Base 0.10.1
 _ZN4QGst7TagList12setAlbumPeakEd@Base 0.10.1
 _ZN4QGst7TagList12setCopyrightERK7QString@Base 0.10.1
 _ZN4QGst7TagList12setPerformerERK7QStringNS_12TagMergeModeE@Base 0.10.1
 _ZN4QGst7TagList12setTrackGainEd@Base 0.10.1
 _ZN4QGst7TagList12setTrackPeakEd@Base 0.10.1
 _ZN4QGst7TagList13setAttachmentERKN5QGlib10RefPointerINS_6BufferEEENS_12TagMergeModeE@Base 0.10.1
 _ZN4QGst7TagList13setAudioCodecERK7QString@Base 0.10.1
 _ZN4QGst7TagList13setLicenseUriERK7QString@Base 0.10.1
 _ZN4QGst7TagList13setTrackCountEj@Base 0.10.1
 _ZN4QGst7TagList13setUserRatingEj@Base 0.10.1
 _ZN4QGst7TagList13setVideoCodecERK7QString@Base 0.10.1
 _ZN4QGst7TagList14setDescriptionERK7QStringNS_12TagMergeModeE@Base 0.10.1
 _ZN4QGst7TagList14setDeviceModelERK7QString@Base 0.10.1
 _ZN4QGst7TagList14setTrackNumberEj@Base 0.10.1
 _ZN4QGst7TagList15setCopyrightUriERK7QString@Base 0.10.1
 _ZN4QGst7TagList15setLanguageCodeERK7QString@Base 0.10.1
 _ZN4QGst7TagList15setOrganizationERK7QStringNS_12TagMergeModeE@Base 0.10.1
 _ZN4QGst7TagList15setPreviewImageERKN5QGlib10RefPointerINS_6BufferEEE@Base 0.10.1
 _ZN4QGst7TagList15setShowSortNameERK7QString@Base 0.10.1
 _ZN4QGst7TagList16setSubtitleCodecERK7QString@Base 0.10.1
 _ZN4QGst7TagList16setTitleSortNameERK7QString@Base 0.10.1
 _ZN4QGst7TagList17seGeoLocationNameERK7QString@Base 0.10.1
 _ZN4QGst7TagList17setArtistSortNameERK7QString@Base 0.10.1
 _ZN4QGst7TagList17setBeatsPerMinuteEd@Base 0.10.1
 _ZN4QGst7TagList17setEncoderVersionEj@Base 0.10.1
 _ZN4QGst7TagList17setMaximumBitrateEj@Base 0.10.1
 _ZN4QGst7TagList17setMinimumBitrateEj@Base 0.10.1
 _ZN4QGst7TagList17setNominalBitrateEj@Base 0.10.1
 _ZN4QGst7TagList17setReferenceLevelEd@Base 0.10.1
 _ZN4QGst7TagList18setApplicationDataERKN5QGlib10RefPointerINS_6BufferEEE@Base 0.10.1
 _ZN4QGst7TagList18setApplicationNameERK7QString@Base 0.10.1
 _ZN4QGst7TagList18setContainerFormatERK7QString@Base 0.10.1
 _ZN4QGst7TagList18setExtendedCommentERK7QStringNS_12TagMergeModeE@Base 0.10.1
 _ZN4QGst7TagList18setGeoLocationCityERK7QString@Base 0.10.1
 _ZN4QGst7TagList19setAlbumVolumeCountEj@Base 0.10.1
 _ZN4QGst7TagList19setComposerSortNameERK7QString@Base 0.10.1
 _ZN4QGst7TagList19setImageOrientationERK7QString@Base 0.10.1
 _ZN4QGst7TagList19setShowSeasonNumberEj@Base 0.10.1
 _ZN4QGst7TagList20setAlbumVolumeNumberEj@Base 0.10.1
 _ZN4QGst7TagList20setShowEpisodeNumberEj@Base 0.10.1
 _ZN4QGst7TagList21setDeviceManufacturerERK7QString@Base 0.10.1
 _ZN4QGst7TagList21setGeoLocationCountryERK7QString@Base 0.10.1
 _ZN4QGst7TagList22setGeoLocationLatitudeEd@Base 0.10.1
 _ZN4QGst7TagList23setGeoLocationElevationEd@Base 0.10.1
 _ZN4QGst7TagList23setGeoLocationLongitudeEd@Base 0.10.1
 _ZN4QGst7TagList25setGeoLocationSublocationERK7QString@Base 0.10.1
 _ZN4QGst7TagList27setGeoLocationMovementSpeedEd@Base 0.10.1
 _ZN4QGst7TagList29setGeoLocationCaptureDirectorEd@Base 0.10.1
 _ZN4QGst7TagList29setGeoLocationHorizontalErrorEd@Base 0.10.1
 _ZN4QGst7TagList31setGeoLocationMovementDirectionEd@Base 0.10.1
 _ZN4QGst7TagList5clearEv@Base 0.10.1
 _ZN4QGst7TagList5mergeERKS0_S2_NS_12TagMergeModeE@Base 0.10.1
 _ZN4QGst7TagList6insertERKS0_NS_12TagMergeModeE@Base 0.10.1
 _ZN4QGst7TagList7setDateERK5QDate@Base 0.10.1
 _ZN4QGst7TagList7setIsrcERK7QString@Base 0.10.1
 _ZN4QGst7TagList8setCodecERK7QString@Base 0.10.1
 _ZN4QGst7TagList8setGenreERK7QStringNS_12TagMergeModeE@Base 0.10.1
 _ZN4QGst7TagList8setImageERKN5QGlib10RefPointerINS_6BufferEEENS_12TagMergeModeE@Base 0.10.1
 _ZN4QGst7TagList8setTitleERK7QStringNS_12TagMergeModeE@Base 0.10.1
 _ZN4QGst7TagList9removeTagEPKc@Base 0.10.1
 _ZN4QGst7TagList9setArtistERK7QStringNS_12TagMergeModeE@Base 0.10.1
 _ZN4QGst7TagList9setLyricsERK7QStringNS_12TagMergeModeE@Base 0.10.1
 _ZN4QGst7TagList9setSerialEj@Base 0.10.1
 _ZN4QGst7TagListC1EPK13_GstStructure@Base 0.10.1
 _ZN4QGst7TagListC1ERKS0_@Base 0.10.1
 _ZN4QGst7TagListC1Ev@Base 0.10.1
 _ZN4QGst7TagListC2EPK13_GstStructure@Base 0.10.1
 _ZN4QGst7TagListC2ERKS0_@Base 0.10.1
 _ZN4QGst7TagListC2Ev@Base 0.10.1
 _ZN4QGst7TagListD0Ev@Base 0.10.1
 _ZN4QGst7TagListD1Ev@Base 0.10.1
 _ZN4QGst7TagListD2Ev@Base 0.10.1
 _ZN4QGst7TagListaSERKS0_@Base 0.10.1
 _ZN4QGst7TagListcvP13_GstStructureEv@Base 0.10.1
 _ZN4QGst7cleanupEv@Base 0.10.1
 _ZN4QGst8EosEvent6createEv@Base 0.10.1
 _ZN4QGst8GhostPad6createENS_12PadDirectionEPKc@Base 0.10.1
 _ZN4QGst8GhostPad6createERKN5QGlib10RefPointerINS_3PadEEEPKc@Base 0.10.1
 _ZN4QGst8GhostPad9setTargetERKN5QGlib10RefPointerINS_3PadEEE@Base 0.10.1
 _ZN4QGst8Pipeline15enableAutoClockEv@Base 0.10.1
 _ZN4QGst8Pipeline6createEPKc@Base 0.10.1
 _ZN4QGst8Pipeline8setClockERKN5QGlib10RefPointerINS_5ClockEEE@Base 0.10.1
 _ZN4QGst8Pipeline8useClockERKN5QGlib10RefPointerINS_5ClockEEE@Base 0.10.1
 _ZN4QGst8QosEvent6createEdxNS_9ClockTimeE@Base 0.10.1
 _ZN4QGst8TagEvent6createERKNS_7TagListE@Base 0.10.1
 _ZN4QGst8UriQuery6createEv@Base 0.10.1
 _ZN4QGst8UriQuery6setUriERK4QUrl@Base 0.10.1
 _ZN4QGst8XOverlay15setWindowHandleEm@Base 0.10.1
 _ZN4QGst8XOverlay18setRenderRectangleERK5QRect@Base 0.10.1
 _ZN4QGst8XOverlay18setRenderRectangleEiiii@Base 0.10.1
 _ZN4QGst8XOverlay19enableEventHandlingEb@Base 0.10.1
 _ZN4QGst8XOverlay6exposeEv@Base 0.10.1
 _ZN4QGst9ClockTime8fromTimeERK5QTime@Base 0.10.1
 _ZN4QGst9SeekEvent6createEdNS_6FormatE6QFlagsINS_8SeekFlagEENS_8SeekTypeExS5_x@Base 0.10.1
 _ZN4QGst9StepEvent6createENS_6FormatEydbb@Base 0.10.1
 _ZN4QGst9Structure10fromStringEPKc@Base 0.10.1
 _ZN4QGst9Structure11removeFieldEPKc@Base 0.10.1
 _ZN4QGst9Structure15removeAllFieldsEv@Base 0.10.1
 _ZN4QGst9Structure7setNameEPKc@Base 0.10.1
 _ZN4QGst9Structure8setValueEPKcRKN5QGlib5ValueE@Base 0.10.1
 _ZN4QGst9StructureC1EPK13_GstStructure@Base 0.10.1
 _ZN4QGst9StructureC1EPKc@Base 0.10.1
 _ZN4QGst9StructureC1ERKS0_@Base 0.10.1
 _ZN4QGst9StructureC1Ev@Base 0.10.1
 _ZN4QGst9StructureC2EPK13_GstStructure@Base 0.10.1
 _ZN4QGst9StructureC2EPKc@Base 0.10.1
 _ZN4QGst9StructureC2ERKS0_@Base 0.10.1
 _ZN4QGst9StructureC2Ev@Base 0.10.1
 _ZN4QGst9StructureD0Ev@Base 0.10.1
 _ZN4QGst9StructureD1Ev@Base 0.10.1
 _ZN4QGst9StructureD2Ev@Base 0.10.1
 _ZN4QGst9StructureaSERKS0_@Base 0.10.1
 _ZN4QGst9StructurecvP13_GstStructureEv@Base 0.10.1
 _ZN4QGstlsE6QDebugRKN5QGlib10RefPointerINS_4CapsEEE@Base 0.10.1
 _ZN4QGstlsE6QDebugRKNS_7TagListE@Base 0.10.1
 _ZN4QGstlsE6QDebugRKNS_9StructureE@Base 0.10.1
 _ZN5QGlib11GetTypeImplI5QDateEcvNS_4TypeEEv@Base 0.10.1
 _ZN5QGlib11GetTypeImplI6QFlagsIN4QGst10BufferFlagEEEcvNS_4TypeEEv@Base 0.10.1
 _ZN5QGlib11GetTypeImplI6QFlagsIN4QGst10ObjectFlagEEEcvNS_4TypeEEv@Base 0.10.1
 _ZN5QGlib11GetTypeImplI6QFlagsIN4QGst13EventTypeFlagEEEcvNS_4TypeEEv@Base 0.10.1
 _ZN5QGlib11GetTypeImplI6QFlagsIN4QGst14MiniObjectFlagEEEcvNS_4TypeEEv@Base 0.10.1
 _ZN5QGlib11GetTypeImplI6QFlagsIN4QGst7PadFlagEEEcvNS_4TypeEEv@Base 0.10.1
 _ZN5QGlib11GetTypeImplI6QFlagsIN4QGst7TagFlagEEEcvNS_4TypeEEv@Base 0.10.1
 _ZN5QGlib11GetTypeImplI6QFlagsIN4QGst8SeekFlagEEEcvNS_4TypeEEv@Base 0.10.1
 _ZN5QGlib11GetTypeImplI9QDateTimeEcvNS_4TypeEEv@Base 0.10.1
 _ZN5QGlib11GetTypeImplIN4QGst10BufferListEEcvNS_4TypeEEv@Base 0.10.1
 _ZN5QGlib11GetTypeImplIN4QGst10ChildProxyEEcvNS_4TypeEEv@Base 0.10.1
 _ZN5QGlib11GetTypeImplIN4QGst10FlowReturnEEcvNS_4TypeEEv@Base 0.10.1
 _ZN5QGlib11GetTypeImplIN4QGst10MiniObjectEEcvNS_4TypeEEv@Base 0.10.1
 _ZN5QGlib11GetTypeImplIN4QGst10ParseErrorEEcvNS_4TypeEEv@Base 0.10.1
 _ZN5QGlib11GetTypeImplIN4QGst10UriHandlerEEcvNS_4TypeEEv@Base 0.10.1
 _ZN5QGlib11GetTypeImplIN4QGst11MessageTypeEEcvNS_4TypeEEv@Base 0.10.1
 _ZN5QGlib11GetTypeImplIN4QGst11StateChangeEEcvNS_4TypeEEv@Base 0.10.1
 _ZN5QGlib11GetTypeImplIN4QGst12ActivateModeEEcvNS_4TypeEEv@Base 0.10.1
 _ZN5QGlib11GetTypeImplIN4QGst12ColorBalanceEEcvNS_4TypeEEv@Base 0.10.1
 _ZN5QGlib11GetTypeImplIN4QGst12PadDirectionEEcvNS_4TypeEEv@Base 0.10.1
 _ZN5QGlib11GetTypeImplIN4QGst12StreamVolumeEEcvNS_4TypeEEv@Base 0.10.1
 _ZN5QGlib11GetTypeImplIN4QGst12TagMergeModeEEcvNS_4TypeEEv@Base 0.10.1
 _ZN5QGlib11GetTypeImplIN4QGst13BufferingModeEEcvNS_4TypeEEv@Base 0.10.1
 _ZN5QGlib11GetTypeImplIN4QGst13PadLinkReturnEEcvNS_4TypeEEv@Base 0.10.1
 _ZN5QGlib11GetTypeImplIN4QGst13PluginFeatureEEcvNS_4TypeEEv@Base 0.10.1
 _ZN5QGlib11GetTypeImplIN4QGst13PropertyProbeEEcvNS_4TypeEEv@Base 0.10.1
 _ZN5QGlib11GetTypeImplIN4QGst14ElementFactoryEEcvNS_4TypeEEv@Base 0.10.1
 _ZN5QGlib11GetTypeImplIN4QGst16ColorBalanceTypeEEcvNS_4TypeEEv@Base 0.10.1
 _ZN5QGlib11GetTypeImplIN4QGst16StreamStatusTypeEEcvNS_4TypeEEv@Base 0.10.1
 _ZN5QGlib11GetTypeImplIN4QGst16VideoOrientationEEcvNS_4TypeEEv@Base 0.10.1
 _ZN5QGlib11GetTypeImplIN4QGst17StateChangeReturnEEcvNS_4TypeEEv@Base 0.10.1
 _ZN5QGlib11GetTypeImplIN4QGst18StreamVolumeFormatEEcvNS_4TypeEEv@Base 0.10.1
 _ZN5QGlib11GetTypeImplIN4QGst19ColorBalanceChannelEEcvNS_4TypeEEv@Base 0.10.1
 _ZN5QGlib11GetTypeImplIN4QGst3BinEEcvNS_4TypeEEv@Base 0.10.1
 _ZN5QGlib11GetTypeImplIN4QGst3BusEEcvNS_4TypeEEv@Base 0.10.1
 _ZN5QGlib11GetTypeImplIN4QGst3PadEEcvNS_4TypeEEv@Base 0.10.1
 _ZN5QGlib11GetTypeImplIN4QGst4CapsEEcvNS_4TypeEEv@Base 0.10.1
 _ZN5QGlib11GetTypeImplIN4QGst4RankEEcvNS_4TypeEEv@Base 0.10.1
 _ZN5QGlib11GetTypeImplIN4QGst5ClockEEcvNS_4TypeEEv@Base 0.10.1
 _ZN5QGlib11GetTypeImplIN4QGst5EventEEcvNS_4TypeEEv@Base 0.10.1
 _ZN5QGlib11GetTypeImplIN4QGst5QueryEEcvNS_4TypeEEv@Base 0.10.1
 _ZN5QGlib11GetTypeImplIN4QGst5StateEEcvNS_4TypeEEv@Base 0.10.1
 _ZN5QGlib11GetTypeImplIN4QGst6BufferEEcvNS_4TypeEEv@Base 0.10.1
 _ZN5QGlib11GetTypeImplIN4QGst6FormatEEcvNS_4TypeEEv@Base 0.10.1
 _ZN5QGlib11GetTypeImplIN4QGst6FourccEEcvNS_4TypeEEv@Base 0.10.1
 _ZN5QGlib11GetTypeImplIN4QGst6ObjectEEcvNS_4TypeEEv@Base 0.10.1
 _ZN5QGlib11GetTypeImplIN4QGst7ElementEEcvNS_4TypeEEv@Base 0.10.1
 _ZN5QGlib11GetTypeImplIN4QGst7MessageEEcvNS_4TypeEEv@Base 0.10.1
 _ZN5QGlib11GetTypeImplIN4QGst7Private5RangeINS1_8FractionEEEEcvNS_4TypeEEv@Base 0.10.1
 _ZN5QGlib11GetTypeImplIN4QGst7Private5RangeIdEEEcvNS_4TypeEEv@Base 0.10.1
 _ZN5QGlib11GetTypeImplIN4QGst7Private5RangeIiEEEcvNS_4TypeEEv@Base 0.10.1
 _ZN5QGlib11GetTypeImplIN4QGst7Private5RangeIxEEEcvNS_4TypeEEv@Base 0.10.1
 _ZN5QGlib11GetTypeImplIN4QGst7TagListEEcvNS_4TypeEEv@Base 0.10.1
 _ZN5QGlib11GetTypeImplIN4QGst7UriTypeEEcvNS_4TypeEEv@Base 0.10.1
 _ZN5QGlib11GetTypeImplIN4QGst8FractionEEcvNS_4TypeEEv@Base 0.10.1
 _ZN5QGlib11GetTypeImplIN4QGst8GhostPadEEcvNS_4TypeEEv@Base 0.10.1
 _ZN5QGlib11GetTypeImplIN4QGst8PipelineEEcvNS_4TypeEEv@Base 0.10.1
 _ZN5QGlib11GetTypeImplIN4QGst8SeekTypeEEcvNS_4TypeEEv@Base 0.10.1
 _ZN5QGlib11GetTypeImplIN4QGst8XOverlayEEcvNS_4TypeEEv@Base 0.10.1
 _ZN5QGlib11GetTypeImplIN4QGst9ClockTimeEEcvNS_4TypeEEv@Base 0.10.1
 _ZN5QGlib11GetTypeImplIN4QGst9EventTypeEEcvNS_4TypeEEv@Base 0.10.1
 _ZN5QGlib11GetTypeImplIN4QGst9QueryTypeEEcvNS_4TypeEEv@Base 0.10.1
 _ZN5QGlib11GetTypeImplIN4QGst9StructureEEcvNS_4TypeEEv@Base 0.10.1
 _ZNK4QGst10BufferList11groupsCountEv@Base 0.10.1
 _ZNK4QGst10BufferList8bufferAtEjj@Base 0.10.1
 _ZNK4QGst10ChildProxy11childByNameEPKc@Base 0.10.1
 _ZNK4QGst10ChildProxy12childByIndexEj@Base 0.10.1
 _ZNK4QGst10ChildProxy13childPropertyEPKc@Base 0.10.1
 _ZNK4QGst10ChildProxy13childrenCountEv@Base 0.10.1
 _ZNK4QGst10ChildProxy17findChildPropertyEPKcPN5QGlib10RefPointerINS_6ObjectEEEPNS4_INS3_9ParamSpecEEE@Base 0.10.1
 _ZNK4QGst10MiniObject10isWritableEv@Base 0.10.1
 _ZNK4QGst10MiniObject12makeWritableEv@Base 0.10.1
 _ZNK4QGst10MiniObject4copyEv@Base 0.10.1
 _ZNK4QGst10QosMessage10proportionEv@Base 0.10.1
 _ZNK4QGst10QosMessage10streamTimeEv@Base 0.10.1
 _ZNK4QGst10QosMessage11runningTimeEv@Base 0.10.1
 _ZNK4QGst10QosMessage4liveEv@Base 0.10.1
 _ZNK4QGst10QosMessage6formatEv@Base 0.10.1
 _ZNK4QGst10QosMessage6jitterEv@Base 0.10.1
 _ZNK4QGst10QosMessage7droppedEv@Base 0.10.1
 _ZNK4QGst10QosMessage7qualityEv@Base 0.10.1
 _ZNK4QGst10QosMessage8durationEv@Base 0.10.1
 _ZNK4QGst10QosMessage9processedEv@Base 0.10.1
 _ZNK4QGst10QosMessage9timestampEv@Base 0.10.1
 _ZNK4QGst10TagMessage7taglistEv@Base 0.10.1
 _ZNK4QGst10UriHandler18supportedProtocolsEv@Base 0.10.1
 _ZNK4QGst10UriHandler3uriEv@Base 0.10.1
 _ZNK4QGst10UriHandler7uriTypeEv@Base 0.10.1
 _ZNK4QGst11InfoMessage12debugMessageEv@Base 0.10.1
 _ZNK4QGst11InfoMessage5errorEv@Base 0.10.1
 _ZNK4QGst12ColorBalance4typeEv@Base 0.10.1
 _ZNK4QGst12ColorBalance5valueERKN5QGlib10RefPointerINS_19ColorBalanceChannelEEE@Base 0.10.1
 _ZNK4QGst12ColorBalance8channelsEv@Base 0.10.1
 _ZNK4QGst12ConvertQuery11sourceValueEv@Base 0.10.1
 _ZNK4QGst12ConvertQuery12sourceFormatEv@Base 0.10.1
 _ZNK4QGst12ConvertQuery16destinationValueEv@Base 0.10.1
 _ZNK4QGst12ConvertQuery17destinationFormatEv@Base 0.10.1
 _ZNK4QGst12ErrorMessage12debugMessageEv@Base 0.10.1
 _ZNK4QGst12ErrorMessage5errorEv@Base 0.10.1
 _ZNK4QGst12FormatsQuery7formatsEv@Base 0.10.1
 _ZNK4QGst12LatencyEvent7latencyEv@Base 0.10.1
 _ZNK4QGst12LatencyQuery14maximumLatencyEv@Base 0.10.1
 _ZNK4QGst12LatencyQuery14minimumLatencyEv@Base 0.10.1
 _ZNK4QGst12LatencyQuery7hasLiveEv@Base 0.10.1
 _ZNK4QGst12SeekingQuery10segmentEndEv@Base 0.10.1
 _ZNK4QGst12SeekingQuery12segmentStartEv@Base 0.10.1
 _ZNK4QGst12SeekingQuery6formatEv@Base 0.10.1
 _ZNK4QGst12SeekingQuery8seekableEv@Base 0.10.1
 _ZNK4QGst12SegmentQuery10startValueEv@Base 0.10.1
 _ZNK4QGst12SegmentQuery4rateEv@Base 0.10.1
 _ZNK4QGst12SegmentQuery6formatEv@Base 0.10.1
 _ZNK4QGst12SegmentQuery9stopValueEv@Base 0.10.1
 _ZNK4QGst12StreamVolume6volumeENS_18StreamVolumeFormatE@Base 0.10.1
 _ZNK4QGst12StreamVolume7isMutedEv@Base 0.10.1
 _ZNK4QGst13DurationQuery6formatEv@Base 0.10.1
 _ZNK4QGst13DurationQuery8durationEv@Base 0.10.1
 _ZNK4QGst13PluginFeature16isAtLeastVersionEjjj@Base 0.10.1
 _ZNK4QGst13PluginFeature4nameEv@Base 0.10.1
 _ZNK4QGst13PluginFeature4rankEv@Base 0.10.1
 _ZNK4QGst13PositionQuery6formatEv@Base 0.10.1
 _ZNK4QGst13PositionQuery8positionEv@Base 0.10.1
 _ZNK4QGst13PropertyProbe10needsProbeEPKc@Base 0.10.1
 _ZNK4QGst13PropertyProbe10needsProbeERKN5QGlib10RefPointerINS1_9ParamSpecEEE@Base 0.10.1
 _ZNK4QGst13PropertyProbe10propertiesEv@Base 0.10.1
 _ZNK4QGst13PropertyProbe21propertySupportsProbeEPKc@Base 0.10.1
 _ZNK4QGst13PropertyProbe21propertySupportsProbeERKN5QGlib10RefPointerINS1_9ParamSpecEEE@Base 0.10.1
 _ZNK4QGst13PropertyProbe6valuesEPKc@Base 0.10.1
 _ZNK4QGst13PropertyProbe6valuesERKN5QGlib10RefPointerINS1_9ParamSpecEEE@Base 0.10.1
 _ZNK4QGst14BufferingQuery10averageOutEv@Base 0.10.1
 _ZNK4QGst14BufferingQuery10rangeStartEv@Base 0.10.1
 _ZNK4QGst14BufferingQuery11rangeFormatEv@Base 0.10.1
 _ZNK4QGst14BufferingQuery13bufferingLeftEv@Base 0.10.1
 _ZNK4QGst14BufferingQuery14estimatedTotalEv@Base 0.10.1
 _ZNK4QGst14BufferingQuery4modeEv@Base 0.10.1
 _ZNK4QGst14BufferingQuery6isBusyEv@Base 0.10.1
 _ZNK4QGst14BufferingQuery7percentEv@Base 0.10.1
 _ZNK4QGst14BufferingQuery9averageInEv@Base 0.10.1
 _ZNK4QGst14BufferingQuery9rangeStopEv@Base 0.10.1
 _ZNK4QGst14ElementFactory10canSrcCapsERKN5QGlib10RefPointerINS_4CapsEEE@Base 0.10.1
 _ZNK4QGst14ElementFactory11canSinkCapsERKN5QGlib10RefPointerINS_4CapsEEE@Base 0.10.1
 _ZNK4QGst14ElementFactory11descriptionEv@Base 0.10.1
 _ZNK4QGst14ElementFactory11elementTypeEv@Base 0.10.1
 _ZNK4QGst14ElementFactory12hasInterfaceEPKc@Base 0.10.1
 _ZNK4QGst14ElementFactory16documentationUriEv@Base 0.10.1
 _ZNK4QGst14ElementFactory17padTemplatesCountEv@Base 0.10.1
 _ZNK4QGst14ElementFactory5klassEv@Base 0.10.1
 _ZNK4QGst14ElementFactory6authorEv@Base 0.10.1
 _ZNK4QGst14ElementFactory6createEPKc@Base 0.10.1
 _ZNK4QGst14ElementFactory7uriTypeEv@Base 0.10.1
 _ZNK4QGst14ElementFactory8iconNameEv@Base 0.10.1
 _ZNK4QGst14ElementFactory8longNameEv@Base 0.10.1
 _ZNK4QGst14WarningMessage12debugMessageEv@Base 0.10.1
 _ZNK4QGst14WarningMessage5errorEv@Base 0.10.1
 _ZNK4QGst15BufferSizeEvent6formatEv@Base 0.10.1
 _ZNK4QGst15BufferSizeEvent7isAsyncEv@Base 0.10.1
 _ZNK4QGst15BufferSizeEvent7maxSizeEv@Base 0.10.1
 _ZNK4QGst15BufferSizeEvent7minSizeEv@Base 0.10.1
 _ZNK4QGst15DurationMessage6formatEv@Base 0.10.1
 _ZNK4QGst15DurationMessage8durationEv@Base 0.10.1
 _ZNK4QGst15NewSegmentEvent11appliedRateEv@Base 0.10.1
 _ZNK4QGst15NewSegmentEvent4rateEv@Base 0.10.1
 _ZNK4QGst15NewSegmentEvent4stopEv@Base 0.10.1
 _ZNK4QGst15NewSegmentEvent5startEv@Base 0.10.1
 _ZNK4QGst15NewSegmentEvent6formatEv@Base 0.10.1
 _ZNK4QGst15NewSegmentEvent8isUpdateEv@Base 0.10.1
 _ZNK4QGst15NewSegmentEvent8positionEv@Base 0.10.1
 _ZNK4QGst15SharedStructure4copyEv@Base 0.10.1
 _ZNK4QGst15StepDoneMessage14isFlushingStepEv@Base 0.10.1
 _ZNK4QGst15StepDoneMessage18isIntermediateStepEv@Base 0.10.1
 _ZNK4QGst15StepDoneMessage4rateEv@Base 0.10.1
 _ZNK4QGst15StepDoneMessage6amountEv@Base 0.10.1
 _ZNK4QGst15StepDoneMessage6formatEv@Base 0.10.1
 _ZNK4QGst15StepDoneMessage8durationEv@Base 0.10.1
 _ZNK4QGst15StepDoneMessage9causedEosEv@Base 0.10.1
 _ZNK4QGst16BufferingMessage16averageInputRateEv@Base 0.10.1
 _ZNK4QGst16BufferingMessage17averageOutputRateEv@Base 0.10.1
 _ZNK4QGst16BufferingMessage17bufferingTimeLeftEv@Base 0.10.1
 _ZNK4QGst16BufferingMessage4modeEv@Base 0.10.1
 _ZNK4QGst16BufferingMessage7percentEv@Base 0.10.1
 _ZNK4QGst16SinkMessageEvent7messageEv@Base 0.10.1
 _ZNK4QGst16StepStartMessage14isFlushingStepEv@Base 0.10.1
 _ZNK4QGst16StepStartMessage18isIntermediateStepEv@Base 0.10.1
 _ZNK4QGst16StepStartMessage4rateEv@Base 0.10.1
 _ZNK4QGst16StepStartMessage6amountEv@Base 0.10.1
 _ZNK4QGst16StepStartMessage6formatEv@Base 0.10.1
 _ZNK4QGst16StepStartMessage8isActiveEv@Base 0.10.1
 _ZNK4QGst16VideoOrientation14verticalCenterEv@Base 0.10.1
 _ZNK4QGst16VideoOrientation16horizontalCenterEv@Base 0.10.1
 _ZNK4QGst16VideoOrientation19verticalFlipEnabledEv@Base 0.10.1
 _ZNK4QGst16VideoOrientation21horizontalFlipEnabledEv@Base 0.10.1
 _ZNK4QGst18BufferListIterator10mergeGroupEv@Base 0.10.1
 _ZNK4QGst18BufferListIterator21buffersInCurrentGroupEv@Base 0.10.1
 _ZNK4QGst18SegmentDoneMessage6formatEv@Base 0.10.1
 _ZNK4QGst18SegmentDoneMessage8positionEv@Base 0.10.1
 _ZNK4QGst19ColorBalanceChannel5labelEv@Base 0.10.1
 _ZNK4QGst19ColorBalanceChannel8maxValueEv@Base 0.10.1
 _ZNK4QGst19ColorBalanceChannel8minValueEv@Base 0.10.1
 _ZNK4QGst19RequestStateMessage5stateEv@Base 0.10.1
 _ZNK4QGst19StateChangedMessage12pendingStateEv@Base 0.10.1
 _ZNK4QGst19StateChangedMessage8newStateEv@Base 0.10.1
 _ZNK4QGst19StateChangedMessage8oldStateEv@Base 0.10.1
 _ZNK4QGst19StreamStatusMessage10statusTypeEv@Base 0.10.1
 _ZNK4QGst19StreamStatusMessage18streamStatusObjectEv@Base 0.10.1
 _ZNK4QGst19StreamStatusMessage5ownerEv@Base 0.10.1
 _ZNK4QGst3Bin15findUnlinkedPadENS_12PadDirectionE@Base 0.10.1
 _ZNK4QGst3Bin16getElementByNameEPKcNS0_13RecursionTypeE@Base 0.10.1
 _ZNK4QGst3Bin21getElementByInterfaceEN5QGlib4TypeE@Base 0.10.1
 _ZNK4QGst3Bus18hasPendingMessagesEv@Base 0.10.1
 _ZNK4QGst3Bus4peekEv@Base 0.10.1
 _ZNK4QGst3Pad10isBlockingEv@Base 0.10.1
 _ZNK4QGst3Pad11allowedCapsEv@Base 0.10.1
 _ZNK4QGst3Pad13parentElementEv@Base 0.10.1
 _ZNK4QGst3Pad14negotiatedCapsEv@Base 0.10.1
 _ZNK4QGst3Pad4capsEv@Base 0.10.1
 _ZNK4QGst3Pad4peerEv@Base 0.10.1
 _ZNK4QGst3Pad7canLinkERKN5QGlib10RefPointerIS0_EE@Base 0.10.1
 _ZNK4QGst3Pad8isActiveEv@Base 0.10.1
 _ZNK4QGst3Pad8isLinkedEv@Base 0.10.1
 _ZNK4QGst3Pad9directionEv@Base 0.10.1
 _ZNK4QGst3Pad9isBlockedEv@Base 0.10.1
 _ZNK4QGst4Caps10isSubsetOfERKN5QGlib10RefPointerIS0_EE@Base 0.10.1
 _ZNK4QGst4Caps10isWritableEv@Base 0.10.1
 _ZNK4QGst4Caps12canIntersectERKN5QGlib10RefPointerIS0_EE@Base 0.10.1
 _ZNK4QGst4Caps12makeWritableEv@Base 0.10.1
 _ZNK4QGst4Caps15getIntersectionERKN5QGlib10RefPointerIS0_EE@Base 0.10.1
 _ZNK4QGst4Caps22isAlwaysCompatibleWithERKN5QGlib10RefPointerIS0_EE@Base 0.10.1
 _ZNK4QGst4Caps4copyEv@Base 0.10.1
 _ZNK4QGst4Caps4sizeEv@Base 0.10.1
 _ZNK4QGst4Caps5isAnyEv@Base 0.10.1
 _ZNK4QGst4Caps6equalsERKN5QGlib10RefPointerIS0_EE@Base 0.10.1
 _ZNK4QGst4Caps7copyNthEj@Base 0.10.1
 _ZNK4QGst4Caps7isEmptyEv@Base 0.10.1
 _ZNK4QGst4Caps7isFixedEv@Base 0.10.1
 _ZNK4QGst4Caps8getUnionERKN5QGlib10RefPointerIS0_EE@Base 0.10.1
 _ZNK4QGst4Caps8isSimpleEv@Base 0.10.1
 _ZNK4QGst4Caps8subtractERKN5QGlib10RefPointerIS0_EE@Base 0.10.1
 _ZNK4QGst4Caps8toStringEv@Base 0.10.1
 _ZNK4QGst4Caps9getNormalEv@Base 0.10.1
 _ZNK4QGst5Clock10resolutionEv@Base 0.10.1
 _ZNK4QGst5Clock4timeEv@Base 0.10.1
 _ZNK4QGst5Clock9clockTimeEv@Base 0.10.1
 _ZNK4QGst5Event14sequenceNumberEv@Base 0.10.1
 _ZNK4QGst5Event4copyEv@Base 0.10.1
 _ZNK4QGst5Event4typeEv@Base 0.10.1
 _ZNK4QGst5Event6sourceEv@Base 0.10.1
 _ZNK4QGst5Event8typeNameEv@Base 0.10.1
 _ZNK4QGst5Event9timestampEv@Base 0.10.1
 _ZNK4QGst5Query4typeEv@Base 0.10.1
 _ZNK4QGst5Query8typeNameEv@Base 0.10.1
 _ZNK4QGst6Buffer4capsEv@Base 0.10.1
 _ZNK4QGst6Buffer4copyEv@Base 0.10.1
 _ZNK4QGst6Buffer4dataEv@Base 0.10.1
 _ZNK4QGst6Buffer4sizeEv@Base 0.10.1
 _ZNK4QGst6Buffer5flagsEv@Base 0.10.1
 _ZNK4QGst6Buffer6offsetEv@Base 0.10.1
 _ZNK4QGst6Buffer8durationEv@Base 0.10.1
 _ZNK4QGst6Buffer9offsetEndEv@Base 0.10.1
 _ZNK4QGst6Buffer9timeStampEv@Base 0.10.1
 _ZNK4QGst6Object10pathStringEv@Base 0.10.1
 _ZNK4QGst6Object12isAncestorOfERKN5QGlib10RefPointerIS0_EE@Base 0.10.1
 _ZNK4QGst6Object4nameEv@Base 0.10.1
 _ZNK4QGst6Object6parentEv@Base 0.10.1
 _ZNK4QGst7Element12currentStateEv@Base 0.10.1
 _ZNK4QGst7Element12pendingStateEv@Base 0.10.1
 _ZNK4QGst7Element13stateIsLockedEv@Base 0.10.1
 _ZNK4QGst7Element5clockEv@Base 0.10.1
 _ZNK4QGst7Element8getStateEPNS_5StateES2_NS_9ClockTimeE@Base 0.10.1
 _ZNK4QGst7Message14sequenceNumberEv@Base 0.10.1
 _ZNK4QGst7Message4typeEv@Base 0.10.1
 _ZNK4QGst7Message6sourceEv@Base 0.10.1
 _ZNK4QGst7Message8typeNameEv@Base 0.10.1
 _ZNK4QGst7Message9timestampEv@Base 0.10.1
 _ZNK4QGst7TagList10attachmentEi@Base 0.10.1
 _ZNK4QGst7TagList10audioCodecEv@Base 0.10.1
 _ZNK4QGst7TagList10genreCountEv@Base 0.10.1
 _ZNK4QGst7TagList10imageCountEv@Base 0.10.1
 _ZNK4QGst7TagList10licenseUriEv@Base 0.10.1
 _ZNK4QGst7TagList10titleCountEv@Base 0.10.1
 _ZNK4QGst7TagList10trackCountEv@Base 0.10.1
 _ZNK4QGst7TagList10userRatingEv@Base 0.10.1
 _ZNK4QGst7TagList10videoCodecEv@Base 0.10.1
 _ZNK4QGst7TagList11artistCountEv@Base 0.10.1
 _ZNK4QGst7TagList11descriptionEi@Base 0.10.1
 _ZNK4QGst7TagList11deviceModelEv@Base 0.10.1
 _ZNK4QGst7TagList11lyricsCountEv@Base 0.10.1
 _ZNK4QGst7TagList11trackNumberEv@Base 0.10.1
 _ZNK4QGst7TagList12commentCountEv@Base 0.10.1
 _ZNK4QGst7TagList12contactCountEv@Base 0.10.1
 _ZNK4QGst7TagList12copyrightUriEv@Base 0.10.1
 _ZNK4QGst7TagList12languageCodeEv@Base 0.10.1
 _ZNK4QGst7TagList12organizationEi@Base 0.10.1
 _ZNK4QGst7TagList12previewImageEv@Base 0.10.1
 _ZNK4QGst7TagList12showSortNameEv@Base 0.10.1
 _ZNK4QGst7TagList13composerCountEv@Base 0.10.1
 _ZNK4QGst7TagList13homepageCountEv@Base 0.10.1
 _ZNK4QGst7TagList13keywordsCountEv@Base 0.10.1
 _ZNK4QGst7TagList13locationCountEv@Base 0.10.1
 _ZNK4QGst7TagList13showNameCountEv@Base 0.10.1
 _ZNK4QGst7TagList13subtitleCodecEv@Base 0.10.1
 _ZNK4QGst7TagList13tagValueCountEPKc@Base 0.10.1
 _ZNK4QGst7TagList13titleSortNameEv@Base 0.10.1
 _ZNK4QGst7TagList14artistSortNameEv@Base 0.10.1
 _ZNK4QGst7TagList14beatsPerMinuteEv@Base 0.10.1
 _ZNK4QGst7TagList14encoderVersionEv@Base 0.10.1
 _ZNK4QGst7TagList14maximumBitrateEv@Base 0.10.1
 _ZNK4QGst7TagList14minimumBitrateEv@Base 0.10.1
 _ZNK4QGst7TagList14nominalBitrateEv@Base 0.10.1
 _ZNK4QGst7TagList14performerCountEv@Base 0.10.1
 _ZNK4QGst7TagList14referenceLevelEv@Base 0.10.1
 _ZNK4QGst7TagList15applicationDataEv@Base 0.10.1
 _ZNK4QGst7TagList15applicationNameEv@Base 0.10.1
 _ZNK4QGst7TagList15attachmentCountEv@Base 0.10.1
 _ZNK4QGst7TagList15containerFormatEv@Base 0.10.1
 _ZNK4QGst7TagList15extendedCommentEi@Base 0.10.1
 _ZNK4QGst7TagList15geoLocationCityEv@Base 0.10.1
 _ZNK4QGst7TagList15geoLocationNameEv@Base 0.10.1
 _ZNK4QGst7TagList16albumVolumeCountEv@Base 0.10.1
 _ZNK4QGst7TagList16composerSortNameEv@Base 0.10.1
 _ZNK4QGst7TagList16descriptionCountEv@Base 0.10.1
 _ZNK4QGst7TagList16imageOrientationEv@Base 0.10.1
 _ZNK4QGst7TagList16showSeasonNumberEv@Base 0.10.1
 _ZNK4QGst7TagList17albumVolumeNumberEv@Base 0.10.1
 _ZNK4QGst7TagList17organizationCountEv@Base 0.10.1
 _ZNK4QGst7TagList17showEpisodeNumberEv@Base 0.10.1
 _ZNK4QGst7TagList18deviceManufacturerEv@Base 0.10.1
 _ZNK4QGst7TagList18geoLocationCountryEv@Base 0.10.1
 _ZNK4QGst7TagList19geoLocationLatitudeEv@Base 0.10.1
 _ZNK4QGst7TagList20extendedCommentCountEv@Base 0.10.1
 _ZNK4QGst7TagList20geoLocationElevationEv@Base 0.10.1
 _ZNK4QGst7TagList20geoLocationLongitudeEv@Base 0.10.1
 _ZNK4QGst7TagList22geoLocationSublocationEv@Base 0.10.1
 _ZNK4QGst7TagList24geoLocationMovementSpeedEv@Base 0.10.1
 _ZNK4QGst7TagList26geoLocationHorizontalErrorEv@Base 0.10.1
 _ZNK4QGst7TagList27geoLocationCaptureDirectionEv@Base 0.10.1
 _ZNK4QGst7TagList28geoLocationMovementDirectionEv@Base 0.10.1
 _ZNK4QGst7TagList4dateEv@Base 0.10.1
 _ZNK4QGst7TagList4isrcEv@Base 0.10.1
 _ZNK4QGst7TagList5codecEv@Base 0.10.1
 _ZNK4QGst7TagList5genreEi@Base 0.10.1
 _ZNK4QGst7TagList5imageEi@Base 0.10.1
 _ZNK4QGst7TagList5titleEi@Base 0.10.1
 _ZNK4QGst7TagList6artistEi@Base 0.10.1
 _ZNK4QGst7TagList6lyricsEi@Base 0.10.1
 _ZNK4QGst7TagList6serialEv@Base 0.10.1
 _ZNK4QGst7TagList7bitrateEv@Base 0.10.1
 _ZNK4QGst7TagList7commentEi@Base 0.10.1
 _ZNK4QGst7TagList7contactEi@Base 0.10.1
 _ZNK4QGst7TagList7encoderEv@Base 0.10.1
 _ZNK4QGst7TagList7isEmptyEv@Base 0.10.1
 _ZNK4QGst7TagList7licenseEv@Base 0.10.1
 _ZNK4QGst7TagList7versionEv@Base 0.10.1
 _ZNK4QGst7TagList8composerEi@Base 0.10.1
 _ZNK4QGst7TagList8dateTimeEv@Base 0.10.1
 _ZNK4QGst7TagList8durationEv@Base 0.10.1
 _ZNK4QGst7TagList8groupingEv@Base 0.10.1
 _ZNK4QGst7TagList8homepageEi@Base 0.10.1
 _ZNK4QGst7TagList8keywordsEi@Base 0.10.1
 _ZNK4QGst7TagList8locationEi@Base 0.10.1
 _ZNK4QGst7TagList8showNameEi@Base 0.10.1
 _ZNK4QGst7TagList8tagValueEPKci@Base 0.10.1
 _ZNK4QGst7TagList9albumGainEv@Base 0.10.1
 _ZNK4QGst7TagList9albumPeakEv@Base 0.10.1
 _ZNK4QGst7TagList9copyrightEv@Base 0.10.1
 _ZNK4QGst7TagList9performerEi@Base 0.10.1
 _ZNK4QGst7TagList9trackGainEv@Base 0.10.1
 _ZNK4QGst7TagList9trackPeakEv@Base 0.10.1
 _ZNK4QGst7TagListcvPK13_GstStructureEv@Base 0.10.1
 _ZNK4QGst8GhostPad6targetEv@Base 0.10.1
 _ZNK4QGst8Pipeline3busEv@Base 0.10.1
 _ZNK4QGst8Pipeline5clockEv@Base 0.10.1
 _ZNK4QGst8QosEvent10proportionEv@Base 0.10.1
 _ZNK4QGst8QosEvent4diffEv@Base 0.10.1
 _ZNK4QGst8QosEvent9timestampEv@Base 0.10.1
 _ZNK4QGst8TagEvent7taglistEv@Base 0.10.1
 _ZNK4QGst8UriQuery3uriEv@Base 0.10.1
 _ZNK4QGst9ClockTime6toTimeEv@Base 0.10.1
 _ZNK4QGst9SeekEvent4rateEv@Base 0.10.1
 _ZNK4QGst9SeekEvent4stopEv@Base 0.10.1
 _ZNK4QGst9SeekEvent5flagsEv@Base 0.10.1
 _ZNK4QGst9SeekEvent5startEv@Base 0.10.1
 _ZNK4QGst9SeekEvent6formatEv@Base 0.10.1
 _ZNK4QGst9SeekEvent8stopTypeEv@Base 0.10.1
 _ZNK4QGst9SeekEvent9startTypeEv@Base 0.10.1
 _ZNK4QGst9StepEvent12intermediateEv@Base 0.10.1
 _ZNK4QGst9StepEvent4rateEv@Base 0.10.1
 _ZNK4QGst9StepEvent5flushEv@Base 0.10.1
 _ZNK4QGst9StepEvent6amountEv@Base 0.10.1
 _ZNK4QGst9StepEvent6formatEv@Base 0.10.1
 _ZNK4QGst9Structure13hasFieldTypedEPKcN5QGlib4TypeE@Base 0.10.1
 _ZNK4QGst9Structure14numberOfFieldsEv@Base 0.10.1
 _ZNK4QGst9Structure4nameEv@Base 0.10.1
 _ZNK4QGst9Structure5valueEPKc@Base 0.10.1
 _ZNK4QGst9Structure7isValidEv@Base 0.10.1
 _ZNK4QGst9Structure8hasFieldEPKc@Base 0.10.1
 _ZNK4QGst9Structure8toStringEv@Base 0.10.1
 _ZNK4QGst9Structure9fieldNameEj@Base 0.10.1
 _ZNK4QGst9Structure9fieldTypeEPKc@Base 0.10.1
 _ZNK4QGst9StructurecvPK13_GstStructureEv@Base 0.10.1
 _ZTIN4QGst10BufferListE@Base 0.10.1
 _ZTIN4QGst10ChildProxyE@Base 0.10.1
 _ZTIN4QGst10EosMessageE@Base 0.10.1
 _ZTIN4QGst10MiniObjectE@Base 0.10.1
 _ZTIN4QGst10QosMessageE@Base 0.10.1
 _ZTIN4QGst10TagMessageE@Base 0.10.1
 _ZTIN4QGst10UriHandlerE@Base 0.10.1
 _ZTIN4QGst11InfoMessageE@Base 0.10.1
 _ZTIN4QGst12ColorBalanceE@Base 0.10.1
 _ZTIN4QGst12ConvertQueryE@Base 0.10.1
 _ZTIN4QGst12ErrorMessageE@Base 0.10.1
 _ZTIN4QGst12FormatsQueryE@Base 0.10.1
 _ZTIN4QGst12LatencyEventE@Base 0.10.1
 _ZTIN4QGst12LatencyQueryE@Base 0.10.1
 _ZTIN4QGst12SeekingQueryE@Base 0.10.1
 _ZTIN4QGst12SegmentQueryE@Base 0.10.1
 _ZTIN4QGst12StreamVolumeE@Base 0.10.1
 _ZTIN4QGst13DurationQueryE@Base 0.10.1
 _ZTIN4QGst13PluginFeatureE@Base 0.10.1
 _ZTIN4QGst13PositionQueryE@Base 0.10.1
 _ZTIN4QGst13PropertyProbeE@Base 0.10.1
 _ZTIN4QGst14BufferingQueryE@Base 0.10.1
 _ZTIN4QGst14ElementFactoryE@Base 0.10.1
 _ZTIN4QGst14ElementMessageE@Base 0.10.1
 _ZTIN4QGst14FlushStopEventE@Base 0.10.1
 _ZTIN4QGst14LatencyMessageE@Base 0.10.1
 _ZTIN4QGst14WarningMessageE@Base 0.10.1
 _ZTIN4QGst15BufferSizeEventE@Base 0.10.1
 _ZTIN4QGst15DurationMessageE@Base 0.10.1
 _ZTIN4QGst15FlushStartEventE@Base 0.10.1
 _ZTIN4QGst15NavigationEventE@Base 0.10.1
 _ZTIN4QGst15NewSegmentEventE@Base 0.10.1
 _ZTIN4QGst15SharedStructureE@Base 0.10.1
 _ZTIN4QGst15StepDoneMessageE@Base 0.10.1
 _ZTIN4QGst16AsyncDoneMessageE@Base 0.10.1
 _ZTIN4QGst16BufferingMessageE@Base 0.10.1
 _ZTIN4QGst16SinkMessageEventE@Base 0.10.1
 _ZTIN4QGst16StepStartMessageE@Base 0.10.1
 _ZTIN4QGst16VideoOrientationE@Base 0.10.1
 _ZTIN4QGst18ApplicationMessageE@Base 0.10.1
 _ZTIN4QGst18SegmentDoneMessageE@Base 0.10.1
 _ZTIN4QGst19ColorBalanceChannelE@Base 0.10.1
 _ZTIN4QGst19RequestStateMessageE@Base 0.10.1
 _ZTIN4QGst19StateChangedMessageE@Base 0.10.1
 _ZTIN4QGst19StreamStatusMessageE@Base 0.10.1
 _ZTIN4QGst3BinE@Base 0.10.1
 _ZTIN4QGst3BusE@Base 0.10.1
 _ZTIN4QGst3PadE@Base 0.10.1
 _ZTIN4QGst4CapsE@Base 0.10.1
 _ZTIN4QGst5ClockE@Base 0.10.1
 _ZTIN4QGst5EventE@Base 0.10.1
 _ZTIN4QGst5QueryE@Base 0.10.1
 _ZTIN4QGst6BufferE@Base 0.10.1
 _ZTIN4QGst6ObjectE@Base 0.10.1
 _ZTIN4QGst7ElementE@Base 0.10.1
 _ZTIN4QGst7MessageE@Base 0.10.1
 _ZTIN4QGst7TagListE@Base 0.10.1
 _ZTIN4QGst8EosEventE@Base 0.10.1
 _ZTIN4QGst8GhostPadE@Base 0.10.1
 _ZTIN4QGst8PipelineE@Base 0.10.1
 _ZTIN4QGst8QosEventE@Base 0.10.1
 _ZTIN4QGst8TagEventE@Base 0.10.1
 _ZTIN4QGst8UriQueryE@Base 0.10.1
 _ZTIN4QGst8XOverlayE@Base 0.10.1
 _ZTIN4QGst9SeekEventE@Base 0.10.1
 _ZTIN4QGst9StepEventE@Base 0.10.1
 _ZTIN4QGst9StructureE@Base 0.10.1
 _ZTSN4QGst10BufferListE@Base 0.10.1
 _ZTSN4QGst10ChildProxyE@Base 0.10.1
 _ZTSN4QGst10EosMessageE@Base 0.10.1
 _ZTSN4QGst10MiniObjectE@Base 0.10.1
 _ZTSN4QGst10QosMessageE@Base 0.10.1
 _ZTSN4QGst10TagMessageE@Base 0.10.1
 _ZTSN4QGst10UriHandlerE@Base 0.10.1
 _ZTSN4QGst11InfoMessageE@Base 0.10.1
 _ZTSN4QGst12ColorBalanceE@Base 0.10.1
 _ZTSN4QGst12ConvertQueryE@Base 0.10.1
 _ZTSN4QGst12ErrorMessageE@Base 0.10.1
 _ZTSN4QGst12FormatsQueryE@Base 0.10.1
 _ZTSN4QGst12LatencyEventE@Base 0.10.1
 _ZTSN4QGst12LatencyQueryE@Base 0.10.1
 _ZTSN4QGst12SeekingQueryE@Base 0.10.1
 _ZTSN4QGst12SegmentQueryE@Base 0.10.1
 _ZTSN4QGst12StreamVolumeE@Base 0.10.1
 _ZTSN4QGst13DurationQueryE@Base 0.10.1
 _ZTSN4QGst13PluginFeatureE@Base 0.10.1
 _ZTSN4QGst13PositionQueryE@Base 0.10.1
 _ZTSN4QGst13PropertyProbeE@Base 0.10.1
 _ZTSN4QGst14BufferingQueryE@Base 0.10.1
 _ZTSN4QGst14ElementFactoryE@Base 0.10.1
 _ZTSN4QGst14ElementMessageE@Base 0.10.1
 _ZTSN4QGst14FlushStopEventE@Base 0.10.1
 _ZTSN4QGst14LatencyMessageE@Base 0.10.1
 _ZTSN4QGst14WarningMessageE@Base 0.10.1
 _ZTSN4QGst15BufferSizeEventE@Base 0.10.1
 _ZTSN4QGst15DurationMessageE@Base 0.10.1
 _ZTSN4QGst15FlushStartEventE@Base 0.10.1
 _ZTSN4QGst15NavigationEventE@Base 0.10.1
 _ZTSN4QGst15NewSegmentEventE@Base 0.10.1
 _ZTSN4QGst15SharedStructureE@Base 0.10.1
 _ZTSN4QGst15StepDoneMessageE@Base 0.10.1
 _ZTSN4QGst16AsyncDoneMessageE@Base 0.10.1
 _ZTSN4QGst16BufferingMessageE@Base 0.10.1
 _ZTSN4QGst16SinkMessageEventE@Base 0.10.1
 _ZTSN4QGst16StepStartMessageE@Base 0.10.1
 _ZTSN4QGst16VideoOrientationE@Base 0.10.1
 _ZTSN4QGst18ApplicationMessageE@Base 0.10.1
 _ZTSN4QGst18SegmentDoneMessageE@Base 0.10.1
 _ZTSN4QGst19ColorBalanceChannelE@Base 0.10.1
 _ZTSN4QGst19RequestStateMessageE@Base 0.10.1
 _ZTSN4QGst19StateChangedMessageE@Base 0.10.1
 _ZTSN4QGst19StreamStatusMessageE@Base 0.10.1
 _ZTSN4QGst3BinE@Base 0.10.1
 _ZTSN4QGst3BusE@Base 0.10.1
 _ZTSN4QGst3PadE@Base 0.10.1
 _ZTSN4QGst4CapsE@Base 0.10.1
 _ZTSN4QGst5ClockE@Base 0.10.1
 _ZTSN4QGst5EventE@Base 0.10.1
 _ZTSN4QGst5QueryE@Base 0.10.1
 _ZTSN4QGst6BufferE@Base 0.10.1
 _ZTSN4QGst6ObjectE@Base 0.10.1
 _ZTSN4QGst7ElementE@Base 0.10.1
 _ZTSN4QGst7MessageE@Base 0.10.1
 _ZTSN4QGst7TagListE@Base 0.10.1
 _ZTSN4QGst8EosEventE@Base 0.10.1
 _ZTSN4QGst8GhostPadE@Base 0.10.1
 _ZTSN4QGst8PipelineE@Base 0.10.1
 _ZTSN4QGst8QosEventE@Base 0.10.1
 _ZTSN4QGst8TagEventE@Base 0.10.1
 _ZTSN4QGst8UriQueryE@Base 0.10.1
 _ZTSN4QGst8XOverlayE@Base 0.10.1
 _ZTSN4QGst9SeekEventE@Base 0.10.1
 _ZTSN4QGst9StepEventE@Base 0.10.1
 _ZTSN4QGst9StructureE@Base 0.10.1
 _ZTTN4QGst10ChildProxyE@Base 0.10.1
 _ZTTN4QGst10UriHandlerE@Base 0.10.1
 _ZTTN4QGst12ColorBalanceE@Base 0.10.1
 _ZTTN4QGst12StreamVolumeE@Base 0.10.1
 _ZTTN4QGst13PluginFeatureE@Base 0.10.1
 _ZTTN4QGst13PropertyProbeE@Base 0.10.1
 _ZTTN4QGst14ElementFactoryE@Base 0.10.1
 _ZTTN4QGst16VideoOrientationE@Base 0.10.1
 _ZTTN4QGst19ColorBalanceChannelE@Base 0.10.1
 _ZTTN4QGst3BinE@Base 0.10.1
 _ZTTN4QGst3BusE@Base 0.10.1
 _ZTTN4QGst3PadE@Base 0.10.1
 _ZTTN4QGst5ClockE@Base 0.10.1
 _ZTTN4QGst6ObjectE@Base 0.10.1
 _ZTTN4QGst7ElementE@Base 0.10.1
 _ZTTN4QGst8GhostPadE@Base 0.10.1
 _ZTTN4QGst8PipelineE@Base 0.10.1
 _ZTTN4QGst8XOverlayE@Base 0.10.1
 _ZTVN4QGst10BufferListE@Base 0.10.1
 _ZTVN4QGst10ChildProxyE@Base 0.10.1
 _ZTVN4QGst10EosMessageE@Base 0.10.1
 _ZTVN4QGst10MiniObjectE@Base 0.10.1
 _ZTVN4QGst10QosMessageE@Base 0.10.1
 _ZTVN4QGst10TagMessageE@Base 0.10.1
 _ZTVN4QGst10UriHandlerE@Base 0.10.1
 _ZTVN4QGst11InfoMessageE@Base 0.10.1
 _ZTVN4QGst12ColorBalanceE@Base 0.10.1
 _ZTVN4QGst12ConvertQueryE@Base 0.10.1
 _ZTVN4QGst12ErrorMessageE@Base 0.10.1
 _ZTVN4QGst12FormatsQueryE@Base 0.10.1
 _ZTVN4QGst12LatencyEventE@Base 0.10.1
 _ZTVN4QGst12LatencyQueryE@Base 0.10.1
 _ZTVN4QGst12SeekingQueryE@Base 0.10.1
 _ZTVN4QGst12SegmentQueryE@Base 0.10.1
 _ZTVN4QGst12StreamVolumeE@Base 0.10.1
 _ZTVN4QGst13DurationQueryE@Base 0.10.1
 _ZTVN4QGst13PluginFeatureE@Base 0.10.1
 _ZTVN4QGst13PositionQueryE@Base 0.10.1
 _ZTVN4QGst13PropertyProbeE@Base 0.10.1
 _ZTVN4QGst14BufferingQueryE@Base 0.10.1
 _ZTVN4QGst14ElementFactoryE@Base 0.10.1
 _ZTVN4QGst14ElementMessageE@Base 0.10.1
 _ZTVN4QGst14FlushStopEventE@Base 0.10.1
 _ZTVN4QGst14LatencyMessageE@Base 0.10.1
 _ZTVN4QGst14WarningMessageE@Base 0.10.1
 _ZTVN4QGst15BufferSizeEventE@Base 0.10.1
 _ZTVN4QGst15DurationMessageE@Base 0.10.1
 _ZTVN4QGst15FlushStartEventE@Base 0.10.1
 _ZTVN4QGst15NavigationEventE@Base 0.10.1
 _ZTVN4QGst15NewSegmentEventE@Base 0.10.1
 _ZTVN4QGst15SharedStructureE@Base 0.10.1
 _ZTVN4QGst15StepDoneMessageE@Base 0.10.1
 _ZTVN4QGst16AsyncDoneMessageE@Base 0.10.1
 _ZTVN4QGst16BufferingMessageE@Base 0.10.1
 _ZTVN4QGst16SinkMessageEventE@Base 0.10.1
 _ZTVN4QGst16StepStartMessageE@Base 0.10.1
 _ZTVN4QGst16VideoOrientationE@Base 0.10.1
 _ZTVN4QGst18ApplicationMessageE@Base 0.10.1
 _ZTVN4QGst18SegmentDoneMessageE@Base 0.10.1
 _ZTVN4QGst19ColorBalanceChannelE@Base 0.10.1
 _ZTVN4QGst19RequestStateMessageE@Base 0.10.1
 _ZTVN4QGst19StateChangedMessageE@Base 0.10.1
 _ZTVN4QGst19StreamStatusMessageE@Base 0.10.1
 _ZTVN4QGst3BinE@Base 0.10.1
 _ZTVN4QGst3BusE@Base 0.10.1
 _ZTVN4QGst3PadE@Base 0.10.1
 _ZTVN4QGst4CapsE@Base 0.10.1
 _ZTVN4QGst5ClockE@Base 0.10.1
 _ZTVN4QGst5EventE@Base 0.10.1
 _ZTVN4QGst5QueryE@Base 0.10.1
 _ZTVN4QGst6BufferE@Base 0.10.1
 _ZTVN4QGst6ObjectE@Base 0.10.1
 _ZTVN4QGst7ElementE@Base 0.10.1
 _ZTVN4QGst7MessageE@Base 0.10.1
 _ZTVN4QGst7TagListE@Base 0.10.1
 _ZTVN4QGst8EosEventE@Base 0.10.1
 _ZTVN4QGst8GhostPadE@Base 0.10.1
 _ZTVN4QGst8PipelineE@Base 0.10.1
 _ZTVN4QGst8QosEventE@Base 0.10.1
 _ZTVN4QGst8TagEventE@Base 0.10.1
 _ZTVN4QGst8UriQueryE@Base 0.10.1
 _ZTVN4QGst8XOverlayE@Base 0.10.1
 _ZTVN4QGst9SeekEventE@Base 0.10.1
 _ZTVN4QGst9StepEventE@Base 0.10.1
 _ZTVN4QGst9StructureE@Base 0.10.1
 (c++)"construction vtable for QGlib::Interface-in-QGst::Bin@Base" 0.10.1
 (c++)"construction vtable for QGlib::Interface-in-QGst::ChildProxy@Base" 0.10.1
 (c++)"construction vtable for QGlib::Interface-in-QGst::ColorBalance@Base" 0.10.1
 (c++)"construction vtable for QGlib::Interface-in-QGst::Pipeline@Base" 0.10.1
 (c++)"construction vtable for QGlib::Interface-in-QGst::PropertyProbe@Base" 0.10.1
 (c++)"construction vtable for QGlib::Interface-in-QGst::StreamVolume@Base" 0.10.1
 (c++)"construction vtable for QGlib::Interface-in-QGst::UriHandler@Base" 0.10.1
 (c++)"construction vtable for QGlib::Interface-in-QGst::VideoOrientation@Base" 0.10.1
 (c++)"construction vtable for QGlib::Interface-in-QGst::XOverlay@Base" 0.10.1
 (c++)"construction vtable for QGlib::Object-in-QGst::Bin@Base" 0.10.1
 (c++)"construction vtable for QGlib::Object-in-QGst::Bus@Base" 0.10.1
 (c++)"construction vtable for QGlib::Object-in-QGst::Clock@Base" 0.10.1
 (c++)"construction vtable for QGlib::Object-in-QGst::ColorBalanceChannel@Base" 0.10.1
 (c++)"construction vtable for QGlib::Object-in-QGst::Element@Base" 0.10.1
 (c++)"construction vtable for QGlib::Object-in-QGst::ElementFactory@Base" 0.10.1
 (c++)"construction vtable for QGlib::Object-in-QGst::GhostPad@Base" 0.10.1
 (c++)"construction vtable for QGlib::Object-in-QGst::Object@Base" 0.10.1
 (c++)"construction vtable for QGlib::Object-in-QGst::Pad@Base" 0.10.1
 (c++)"construction vtable for QGlib::Object-in-QGst::Pipeline@Base" 0.10.1
 (c++)"construction vtable for QGlib::Object-in-QGst::PluginFeature@Base" 0.10.1
 (c++)"construction vtable for QGst::Bin-in-QGst::Pipeline@Base" 0.10.1
 (c++)"construction vtable for QGst::ChildProxy-in-QGst::Bin@Base" 0.10.1
 (c++)"construction vtable for QGst::ChildProxy-in-QGst::Pipeline@Base" 0.10.1
 (c++)"construction vtable for QGst::Element-in-QGst::Bin@Base" 0.10.1
 (c++)"construction vtable for QGst::Element-in-QGst::Pipeline@Base" 0.10.1
 (c++)"construction vtable for QGst::Object-in-QGst::Bin@Base" 0.10.1
 (c++)"construction vtable for QGst::Object-in-QGst::Bus@Base" 0.10.1
 (c++)"construction vtable for QGst::Object-in-QGst::Clock@Base" 0.10.1
 (c++)"construction vtable for QGst::Object-in-QGst::Element@Base" 0.10.1
 (c++)"construction vtable for QGst::Object-in-QGst::ElementFactory@Base" 0.10.1
 (c++)"construction vtable for QGst::Object-in-QGst::GhostPad@Base" 0.10.1
 (c++)"construction vtable for QGst::Object-in-QGst::Pad@Base" 0.10.1
 (c++)"construction vtable for QGst::Object-in-QGst::Pipeline@Base" 0.10.1
 (c++)"construction vtable for QGst::Object-in-QGst::PluginFeature@Base" 0.10.1
 (c++)"construction vtable for QGst::Pad-in-QGst::GhostPad@Base" 0.10.1
 (c++)"construction vtable for QGst::PluginFeature-in-QGst::ElementFactory@Base" 0.10.1
 (c++)"virtual thunk to QGst::Object::ref(bool)@Base" 0.10.1
 (c++)"virtual thunk to QGst::Object::unref()@Base" 0.10.1
