ccopy_reg
_reconstructor
p1
(cdebian_linux.config
ConfigCore
p2
c__builtin__
dict
p3
(dp4
(S'image'
S'amd64'
p5
tp6
(dp7
S'configs'
p8
(lp9
sS'bootloaders'
p10
(lp11
S'grub-pc'
p12
aS'extlinux'
p13
aS'lilo'
p14
ass(S'description'
S'i386'
p15
NS'amd64'
tp16
(dp17
S'hardware'
p18
S'64-bit PCs'
p19
sS'parts'
p20
(lp21
S'xen'
p22
asS'hardware-long'
p23
S'PCs with AMD64, Intel 64 or VIA Nano processors'
p24
ss(S'base'
p25
g5
S'none'
p26
tp27
(dp28
S'implicit-flavour'
p29
I01
sS'flavours'
p30
(lp31
S'amd64'
p32
ass(S'image'
g5
NS'amd64'
tp33
(dp34
S'configs'
p35
(lp36
S'kernelarch-x86/config-arch-64'
p37
ass(S'image'
S'ia64'
p38
tp39
(dp40
S'suggests'
p41
S'fdutils'
p42
sS'bootloaders'
p43
(lp44
S'elilo'
p45
ass(S'abi'
tp46
(dp47
S'abiname'
p48
S'trunk'
p49
ss(S'image'
S'sparc64'
p50
NS'sparc64-smp'
tp51
(dp52
S'configs'
p53
(lp54
S'sparc/config.sparc64-smp'
p55
ass(S'abi'
NS'rt'
p56
tp57
(dp58
S'ignore-changes'
p59
(lp60
S'*'
ass(S'description'
S'powerpc'
p61
NS'powerpc'
tp62
(dp63
S'hardware'
p64
S'uniprocessor 32-bit PowerPC'
p65
ss(g25
S'ppc64'
p66
g26
tp67
(dp68
g29
I01
sg30
(lp69
S'powerpc64'
p70
ass(S'image'
S'mipsel'
p71
NS'sb1-bcm91250a'
tp72
(dp73
S'configs'
p74
(lp75
S'mips/config.sb1-bcm91250a'
p76
ass(S'description'
g71
NS'5kc-malta'
tp77
(dp78
S'hardware'
p79
S'MIPS Malta (64-bit)'
p80
sS'hardware-long'
p81
S'MIPS Malta boards (64-bit)'
p82
ss(S'build'
S's390'
p83
NS's390x'
tp84
(dp85
S'debug-info'
p86
I01
ss(S'image'
S'sh4'
p87
NS'sh7785lcr'
tp88
(dp89
S'check-size'
p90
S'4194304'
p91
sS'recommends'
p92
S'uboot-mkimage'
p93
ss(S'image'
g71
NS'5kc-malta'
tp94
(dp95
S'configs'
p96
(lp97
S'mips/config.5kc-malta'
p98
ass(g25
S'armhf'
p99
g26
tp100
(dp101
g29
I01
sg30
(lp102
S'mx5'
p103
aS'omap'
p104
aS'vexpress'
p105
ass(S'base'
g15
S'rt'
p106
tp107
(dp108
S'flavours'
p109
(lp110
S'686-pae'
p111
ass(S'description'
S'm68k'
p112
NS'bvme6000'
tp113
(dp114
S'hardware'
p115
S'BVM BVME4000 and BVME6000'
p116
ss(S'image'
S'armel'
p117
NS'ixp4xx'
tp118
(dp119
S'check-size'
p120
S'1441760'
p121
ss(S'description'
S'mips'
p122
NS'sb1a-bcm91480b'
tp123
(dp124
S'hardware'
p125
S'BCM91480B'
p126
sS'hardware-long'
p127
S'Broadcom BCM91480B systems (aka BigSur)'
p128
ss(g25
g61
g26
tp129
(dp130
g29
I01
sg30
(lp131
S'powerpc'
p132
aS'powerpc-smp'
p133
aS'powerpc64'
p134
ass(S'image'
g61
tp135
(dp136
S'suggests'
p137
S'mkvmlinuz'
p138
ss(S'description'
S'alpha'
p139
NS'alpha-legacy'
tp140
(dp141
S'hardware'
p142
S'Alpha Legacy'
p143
sS'hardware-long'
p144
S'DEC Alpha systems with legacy kernel start address'
p145
ss(S'description'
g38
NS'itanium'
tp146
(dp147
S'hardware'
p148
S'Itanium'
p149
ss(S'base'
g5
S'rt'
p150
tp151
(dp152
S'flavours'
p153
(lp154
S'amd64'
p155
ass(S'image'
g50
NS'sparc64'
tp156
(dp157
S'configs'
p158
(lp159
S'sparc/config.sparc64'
p160
ass(S'description'
g99
NS'omap'
tp161
(dp162
S'hardware'
p163
S'TI OMAP3+'
p164
sS'hardware-long'
p165
S'Texas Instruments OMAP3 or OMAP4 based systems'
p166
ss(S'image'
g71
NS'sb1a-bcm91480b'
tp167
(dp168
S'configs'
p169
(lp170
S'mips/config.sb1a-bcm91480b'
p171
ass(S'description'
g122
NS'r5k-ip32'
tp172
(dp173
S'hardware'
p174
S'SGI IP32'
p175
sS'hardware-long'
p176
S'SGI IP32 systems (O2)'
p177
ss(S'base'
g15
tp178
(dp179
S'kernel-arch'
p180
S'x86'
p181
sS'featuresets'
p182
(lp183
g26
ag106
ass(S'base'
g71
tp184
(dp185
S'kernel-arch'
p186
S'mips'
p187
sS'featuresets'
p188
(lp189
g26
ass(S'description'
S'hppa'
p190
NS'parisc-smp'
tp191
(dp192
S'hardware'
p193
S'multiprocessor 32-bit PA-RISC'
p194
ss(S'build'
g99
NS'omap'
tp195
(dp196
S'image-file'
p197
S'arch/arm/boot/zImage'
p198
ss(S'description'
g117
NS'iop32x'
tp199
(dp200
S'hardware'
p201
S'IOP32x'
p202
sS'hardware-long'
p203
S'IOP32x based systems (Thecus N2100, etc)'
p204
ss(S'build'
g15
NS'686-pae'
tp205
(dp206
S'debug-info'
p207
I01
ss(S'image'
g117
NS'orion5x'
tp208
(dp209
S'check-size'
p210
S'1572792'
p211
sS'recommends'
p212
S'uboot-mkimage'
p213
ss(g25
g71
g26
tp214
(dp215
g29
I01
sg30
(lp216
S'r5k-cobalt'
p217
aS'sb1-bcm91250a'
p218
aS'sb1a-bcm91480b'
p219
aS'4kc-malta'
p220
aS'5kc-malta'
p221
aS'loongson-2f'
p222
ass(S'image'
g15
NS'686-pae'
tp223
(dp224
S'configs'
p225
(lp226
S'kernelarch-x86/config-arch-32'
p227
aS'i386/config.686-pae'
p228
asS'recommends'
p229
S'libc6-i686'
p230
ss(S'description'
g190
NS'parisc64'
tp231
(dp232
S'hardware'
p233
S'64-bit PA-RISC'
p234
ss(S'description'
g83
NS's390'
tp235
(dp236
S'hardware'
p237
S'IBM S/390'
p238
ss(S'relations'
tp239
(dp240
S'initramfs-fallback'
p241
S'linux-initramfs-tool'
p242
sS'gcc-4.7'
p243
S'gcc-4.7'
p244
sS'gcc-4.6'
p245
S'gcc-4.6'
p246
sS'initramfs-tools'
p247
S'initramfs-tools (>= 0.99~)'
p248
sS'gcc-4.4'
p249
S'gcc-4.4'
p250
ss(S'description'
g71
NS'r5k-cobalt'
tp251
(dp252
S'hardware'
p253
S'Cobalt'
p254
sS'hardware-long'
p255
S'Cobalt systems (Qube, RaQ, Qube2, RaQ2)'
p256
ss(S'description'
g71
NS'loongson-2f'
tp257
(dp258
S'hardware'
p259
S'Loongson 2F'
p260
sS'hardware-long'
p261
S'Lemote Loongson 2F systems'
p262
ss(g25
g87
g26
tp263
(dp264
g29
I01
sg30
(lp265
S'sh7751r'
p266
aS'sh7785lcr'
p267
ass(S'description'
S's390x'
p268
NS's390x'
tp269
(dp270
S'hardware'
p271
S'IBM zSeries'
p272
ss(S'description'
g15
NS'486'
tp273
(dp274
S'hardware'
p275
S'older PCs'
p276
sS'parts'
p277
(lp278
S'up'
p279
asS'hardware-long'
p280
S'PCs with a single processor not supporting PAE'
p281
ss(S'description'
g112
NS'atari'
tp282
(dp283
S'hardware'
p284
S'Atari'
p285
ss(S'base'
g117
tp286
(dp287
S'kernel-arch'
p288
S'arm'
p289
sg188
(lp290
g26
ass(S'description'
g122
NS'4kc-malta'
tp291
(dp292
S'hardware'
p293
S'MIPS Malta'
p294
sS'hardware-long'
p295
S'MIPS Malta boards'
p296
ss(S'base'
g139
tp297
(dp298
S'kernel-arch'
p299
S'alpha'
p300
sg188
(lp301
g26
ass(S'version'
p302
tp303
(dp304
S'abiname'
p305
S'3.7-trunk'
p306
sS'source'
p307
V3.7.1-1~experimental.2
p308
ss(S'image'
g61
NS'powerpc-smp'
tp309
(dp310
S'configs'
p311
(lp312
S'powerpc/config.powerpc'
p313
aS'powerpc/config.powerpc-smp'
p314
ass(g25
g83
g26
tp315
(dp316
g29
I01
sg30
(lp317
S's390x'
p318
ass(g25
g268
g26
tp319
(dp320
g29
I01
sg30
(lp321
S's390x'
p322
ass(S'base'
g122
tp323
(dp324
S'kernel-arch'
p325
S'mips'
p326
sg188
(lp327
g26
ass(S'build'
g5
tp328
(dp329
S'debug-info'
p330
I01
ss(S'description'
g117
NS'orion5x'
tp331
(dp332
S'hardware'
p333
S'Marvell Orion'
p334
sS'hardware-long'
p335
S'Marvell Orion 5181, 5182 and 5281 based systems (QNAP TS-109/TS-209, etc)'
p336
ss(S'image'
g71
tp337
(dp338
S'initramfs'
p339
I00
ss(S'description'
g122
NS'octeon'
tp340
(dp341
S'hardware'
p342
S'Octeon'
p343
sS'hardware-long'
p344
S'Cavium Networks Octeon'
p345
ss(S'description'
g50
NS'sparc64'
tp346
(dp347
S'hardware'
p348
S'uniprocessor 64-bit UltraSPARC'
p349
ss(S'image'
g66
NS'powerpc64'
tp350
(dp351
S'configs'
p352
(lp353
S'powerpc/config.powerpc64'
p354
ass(S'description'
g112
NS'mac'
tp355
(dp356
S'hardware'
p357
S'Macintosh'
p358
ss(S'build'
g87
NS'sh7751r'
tp359
(dp360
S'image-file'
p361
S'arch/sh/boot/zImage'
p362
ss(S'base'
g5
tp363
(dp364
S'kernel-arch'
p365
S'x86'
p366
sS'featuresets'
p367
(lp368
g26
ag150
ass(S'base'
g38
tp369
(dp370
S'kernel-arch'
p371
S'ia64'
p372
sg188
(lp373
g26
ass(S'description'
g15
NS'686-pae'
tp374
(dp375
S'hardware'
p376
S'modern PCs'
p377
sS'parts'
p378
(lp379
S'pae'
p380
aS'xen'
p381
asS'hardware-long'
p382
S'PCs with one or more processors supporting PAE'
p383
ss(S'base'
g83
tp384
(dp385
S'kernel-arch'
p386
S's390'
p387
sg188
(lp388
g26
ass(S'description'
g112
NS'amiga'
tp389
(dp390
S'hardware'
p391
S'Amiga'
p392
ss(S'image'
g117
NS'iop32x'
tp393
(dp394
S'check-size'
p395
S'1441784'
p396
ss(S'description'
S'sparc'
p397
NS'sparc32'
tp398
(dp399
S'hardware'
p400
S'uniprocessor sparc32 (sun4m)'
p401
ss(S'description'
g71
NS'sb1-bcm91250a'
tp402
(dp403
S'hardware'
p404
S'BCM91250A'
p405
sS'hardware-long'
p406
S'Broadcom BCM91250A systems (aka SWARM)'
p407
ss(S'description'
g117
NS'ixp4xx'
tp408
(dp409
S'hardware'
p410
S'IXP4xx'
p411
sS'hardware-long'
p412
S'IXP4xx based systems (Linksys NSLU2, etc)'
p413
ss(S'description'
g15
tp414
(dp415
S'part-long-pae'
p416
S'This kernel requires PAE (Physical Address Extension).\nThis feature is supported by the Intel Pentium Pro/II/III/4/4M/D, Xeon,\nCore and Atom; AMD Geode NX, Athlon (K7), Duron, Opteron, Sempron,\nTurion or Phenom; Transmeta Efficeon; VIA C7; and some other processors.'
p417
ss(S'xen'
g15
NS'amd64'
tp418
(dp419
S'flavours'
p420
(lp421
S'amd64'
p422
ass(S'image'
g99
tp423
(dp424
S'suggests'
p425
S'fdutils'
p426
sS'configs'
p427
(lp428
S'armel/config'
p429
aS'armhf/config'
p430
ass(S'image'
g117
tp431
(dp432
S'suggests'
p433
S'fdutils'
p434
ss(S'image'
g83
tp435
(dp436
S'bootloaders'
p437
(lp438
S's390-tools'
p439
ass(S'image'
g190
tp440
(dp441
S'suggests'
p442
S'palo'
p443
ss(S'description'
g71
NS'4kc-malta'
tp444
(dp445
S'hardware'
p446
S'MIPS Malta'
p447
sS'hardware-long'
p448
S'MIPS Malta boards'
p449
ss(S'relations'
g190
tp450
(dp451
S'gcc-4.4'
p452
S'gcc-4.4, binutils-hppa64, gcc-4.4-hppa64'
p453
ss(S'base'
g190
NS'parisc64-smp'
tp454
(dp455
S'override-host-type'
p456
S'hppa64-linux-gnu'
p457
sS'cflags'
p458
S'-fno-cse-follow-jumps'
p459
ss(S'build'
g117
NS'kirkwood'
tp460
(dp461
S'image-file'
p462
S'arch/arm/boot/zImage'
p463
ss(S'xen'
g5
NS'amd64'
tp464
(dp465
S'flavours'
p466
(lp467
S'amd64'
p468
ass(S'description'
g71
NS'sb1a-bcm91480b'
tp469
(dp470
S'hardware'
p471
S'BCM91480B'
p472
sS'hardware-long'
p473
S'Broadcom BCM91480B systems (aka BigSur)'
p474
ss(g25
g190
g26
tp475
(dp476
g29
I01
sg30
(lp477
S'parisc'
p478
aS'parisc-smp'
p479
aS'parisc64'
p480
aS'parisc64-smp'
p481
ass(S'image'
g139
tp482
(dp483
S'suggests'
p484
S'aboot, fdutils'
p485
ss(S'base'
g50
tp486
(dp487
S'kernel-arch'
p488
S'sparc'
p489
sg188
(lp490
g26
ass(S'base'
g268
tp491
(dp492
S'kernel-arch'
p493
S's390'
p494
sg188
(lp495
g26
ass(S'build'
g117
NS'orion5x'
tp496
(dp497
S'image-file'
p498
S'arch/arm/boot/zImage'
p499
ss(g25
g117
g26
tp500
(dp501
g29
I01
sg30
(lp502
S'iop32x'
p503
aS'ixp4xx'
p504
aS'kirkwood'
p505
aS'mv78xx0'
p506
aS'orion5x'
p507
aS'versatile'
p508
ass(S'image'
g66
tp509
(dp510
S'suggests'
p511
S'mkvmlinuz'
p512
sS'configs'
p513
(lp514
S'powerpc/config'
p515
ass(S'image'
g122
tp516
(dp517
S'initramfs'
p518
I00
ss(S'image'
g15
tp519
(dp520
S'configs'
p521
(lp522
sS'bootloaders'
p523
(lp524
S'grub-pc'
p525
aS'extlinux'
p526
aS'lilo'
p527
ass(S'description'
g87
NS'sh7785lcr'
tp528
(dp529
S'hardware'
p530
S'sh7785lcr'
p531
sS'hardware-long'
p532
S'Renesas SH7785 reference board'
p533
ss(g25
g397
g26
tp534
(dp535
g29
I01
sg30
(lp536
S'sparc64'
p537
aS'sparc64-smp'
p538
ass(S'base'
g66
tp539
(dp540
S'kernel-arch'
p541
S'powerpc'
p542
sg188
(lp543
g26
ass(g25
g122
g26
tp544
(dp545
g29
I01
sg30
(lp546
S'r4k-ip22'
p547
aS'r5k-ip32'
p548
aS'sb1-bcm91250a'
p549
aS'sb1a-bcm91480b'
p550
aS'4kc-malta'
p551
aS'5kc-malta'
p552
aS'octeon'
p553
ass(g25
g38
g26
tp554
(dp555
g29
I01
sg30
(lp556
S'itanium'
p557
aS'mckinley'
p558
ass(S'image'
g268
NS's390x'
tp559
(dp560
S'configs'
p561
(lp562
S's390/config.s390x'
p563
ass(S'image'
g71
NS'loongson-2f'
tp564
(dp565
S'recommends'
p566
S'libc6-loongson2f'
p567
ss(S'description'
g122
NS'sb1-bcm91250a'
tp568
(dp569
S'hardware'
p570
S'BCM91250A'
p571
sS'hardware-long'
p572
S'Broadcom BCM91250A systems (aka SWARM)'
p573
ss(g25
g139
g26
tp574
(dp575
g29
I01
sg30
(lp576
S'alpha-generic'
p577
aS'alpha-smp'
p578
aS'alpha-legacy'
p579
ass(S'build'
g87
NS'sh7785lcr'
tp580
(dp581
S'image-file'
p582
S'arch/sh/boot/zImage'
p583
ss(S'base'
g190
NS'parisc64'
tp584
(dp585
S'override-host-type'
p586
S'hppa64-linux-gnu'
p587
sS'cflags'
p588
S'-fno-cse-follow-jumps'
p589
ss(S'description'
g5
NS'amd64'
tp590
(dp591
S'hardware'
p592
S'64-bit PCs'
p593
sS'parts'
p594
(lp595
S'xen'
p596
asS'hardware-long'
p597
S'PCs with AMD64, Intel 64 or VIA Nano processors'
p598
ss(S'base'
S'x32'
tp599
(dp600
S'kernel-arch'
p601
S'x86'
p602
sS'featuresets'
p603
(lp604
ss(S'image'
g112
tp605
(dp606
S'suggests'
p607
S'vmelilo, fdutils'
p608
sS'initramfs'
p609
I00
ss(S'image'
g15
NS'486'
tp610
(dp611
S'configs'
p612
(lp613
S'kernelarch-x86/config-arch-32'
p614
aS'i386/config.486'
p615
ass(S'description'
g117
NS'mv78xx0'
tp616
(dp617
S'hardware'
p618
S'Marvell 78xx0'
p619
sS'hardware-long'
p620
S'Marvell DB-78xx0-BP Development Board'
p621
ss(S'base'
g99
tp622
(dp623
S'kernel-arch'
p624
S'arm'
p625
sg188
(lp626
g26
ass(S'description'
g190
NS'parisc64-smp'
tp627
(dp628
S'hardware'
p629
S'multiprocessor 64-bit PA-RISC'
p630
ss(S'build'
g117
NS'ixp4xx'
tp631
(dp632
S'image-file'
p633
S'arch/arm/boot/zImage'
p634
ss(S'build'
g268
NS's390x'
tp635
(dp636
S'debug-info'
p637
I01
ss(S'image'
g87
tp638
(dp639
S'suggests'
p640
S'fdutils'
p641
ss(S'base'
g190
tp642
(dp643
S'kernel-arch'
p644
S'parisc'
p645
sg188
(lp646
g26
asS'compiler'
p647
S'gcc-4.4'
p648
ss(S'description'
g61
NS'powerpc64'
tp649
(dp650
S'hardware'
p651
S'64-bit PowerPC'
p652
ss(S'description'
g122
NS'5kc-malta'
tp653
(dp654
S'hardware'
p655
S'MIPS Malta (64-bit)'
p656
sS'hardware-long'
p657
S'MIPS Malta boards (64-bit)'
p658
ss(S'base'
g87
tp659
(dp660
S'kernel-arch'
p661
S'sh'
p662
sg188
(lp663
g26
ass(S'image'
g397
tp664
(dp665
S'suggests'
p666
S'silo, fdutils'
p667
ss(S'description'
tp668
(dp669
S'part-long-up'
p670
S'This kernel is not suitable for SMP (multi-processor,\nmulti-core or hyper-threaded) systems.'
p671
sS'part-long-xen'
p672
S'This kernel also runs on a Xen hypervisor.\nIt supports both privileged (dom0) and unprivileged (domU) operation.'
p673
ss(S'description'
g190
NS'parisc'
tp674
(dp675
S'hardware'
p676
S'32-bit PA-RISC'
p677
ss(S'xen'
g15
NS'686-pae'
tp678
(dp679
S'flavours'
p680
(lp681
S'i386'
p682
aS'amd64'
p683
ass(S'description'
g117
NS'kirkwood'
tp684
(dp685
S'hardware'
p686
S'Marvell Kirkwood'
p687
sS'hardware-long'
p688
S'Marvell Kirkwood based systems (SheevaPlug, QNAP TS-119/TS-219, etc)'
p689
ss(S'image'
g117
NS'kirkwood'
tp690
(dp691
S'check-size'
p692
S'2097080'
p693
sS'recommends'
p694
S'uboot-mkimage'
p695
ss(S'build'
g99
NS'vexpress'
tp696
(dp697
S'image-file'
p698
S'arch/arm/boot/zImage'
p699
ss(S'description'
g83
NS's390x'
tp700
(dp701
S'hardware'
p702
S'IBM zSeries'
p703
ss(S'image'
g50
tp704
(dp705
S'suggests'
p706
S'silo, fdutils'
p707
sS'configs'
p708
(lp709
S'sparc/config'
p710
ass(S'description'
g112
NS'mvme147'
tp711
(dp712
S'hardware'
p713
S'Motorola MVME147'
p714
ss(S'description'
g99
NS'vexpress'
tp715
(dp716
S'hardware'
p717
S'ARM Ltd. Versatile Express'
p718
sS'hardware-long'
p719
S'ARM Ltd. Versatile Express family of processors'
p720
ss(S'base'
g61
tp721
(dp722
S'kernel-arch'
p723
S'powerpc'
p724
sg188
(lp725
g26
ass(S'image'
g15
NS'amd64'
tp726
(dp727
S'configs'
p728
(lp729
S'kernelarch-x86/config-arch-64'
p730
asS'recommends'
p731
S'libc6-i686'
p732
ss(S'description'
g117
NS'versatile'
tp733
(dp734
S'hardware'
p735
S'Versatile'
p736
sS'hardware-long'
p737
S'Versatile systems (PB, AB, Qemu)'
p738
ss(S'image'
g99
NS'omap'
tp739
(dp740
S'recommends'
p741
S'uboot-mkimage'
p742
ss(S'description'
g122
NS'r4k-ip22'
tp743
(dp744
S'hardware'
p745
S'SGI IP22'
p746
sS'hardware-long'
p747
S'SGI IP22 systems (Indy, Indigo2)'
p748
ss(S'description'
g38
NS'mckinley'
tp749
(dp750
S'hardware'
p751
S'Itanium II'
p752
ss(S'description'
g50
NS'sparc64-smp'
tp753
(dp754
S'hardware'
p755
S'multiprocessor 64-bit UltraSPARC'
p756
ss(g25
g15
g26
tp757
(dp758
g29
I01
sg30
(lp759
S'486'
p760
aS'686-pae'
p761
aS'amd64'
p762
ass(S'image'
g71
NS'4kc-malta'
tp763
(dp764
S'configs'
p765
(lp766
S'mips/config.4kc-malta'
p767
ass(S'description'
g61
NS'powerpc-smp'
tp768
(dp769
S'hardware'
p770
S'multiprocessor 32-bit PowerPC'
p771
ss(g25
g112
g26
tp772
(dp773
g29
I01
sg30
(lp774
S'amiga'
p775
aS'atari'
p776
aS'bvme6000'
p777
aS'mac'
p778
aS'mvme147'
p779
aS'mvme16x'
p780
ass(S'description'
g139
NS'alpha-smp'
tp781
(dp782
S'hardware'
p783
S'Alpha SMP'
p784
sS'hardware-long'
p785
S'DEC Alpha SMP systems with extended kernel start address (Wildfire, Titan, Marvel)'
p786
ss(S'description'
g87
NS'sh7751r'
tp787
(dp788
S'hardware'
p789
S'sh7751r'
p790
sS'hardware-long'
p791
S'Renesas SH7751R R2D plus board'
p792
ss(S'description'
g112
NS'mvme16x'
tp793
(dp794
S'hardware'
p795
S'Motorola MVME162/6/7, MVME172/7'
p796
ss(S'base'
tp797
(dp798
S'arches'
p799
(lp800
S'alpha'
p801
aS'amd64'
p802
aS'armel'
p803
aS'armhf'
p804
aS'hppa'
p805
aS'i386'
p806
aS'ia64'
p807
aS'm68k'
p808
aS'mips'
p809
aS'mipsel'
p810
aS'powerpc'
p811
aS'ppc64'
p812
aS's390'
p813
aS's390x'
p814
aS'sh4'
p815
aS'sparc'
p816
aS'sparc64'
p817
aS'x32'
p818
asS'featuresets'
p819
(lp820
S'none'
p821
aS'rt'
p822
asS'compiler'
p823
S'gcc-4.7'
p824
ss(S'base'
NS'rt'
tp825
(dp826
S'enabled'
p827
I00
ss(S'description'
Ng56
tp828
(dp829
S'part-long-rt'
p830
S'This kernel includes the PREEMPT_RT realtime patch set.'
p831
sS'parts'
p832
(lp833
S'rt'
p834
asS'part-short-rt'
p835
S'PREEMPT_RT'
p836
ss(S'description'
g397
NS'sparc64-smp'
tp837
(dp838
S'hardware'
p839
S'multiprocessor 64-bit UltraSPARC'
p840
ss(S'build'
g117
NS'mv78xx0'
tp841
(dp842
S'image-file'
p843
S'arch/arm/boot/zImage'
p844
ss(S'base'
g397
tp845
(dp846
S'kernel-arch'
p847
S'sparc'
p848
sg188
(lp849
g26
ass(S'base'
g112
tp850
(dp851
S'kernel-arch'
p852
S'm68k'
p853
sg188
(lp854
g26
asS'cflags'
p855
S'-ffreestanding'
p856
sS'compiler'
p857
S'gcc-4.6'
p858
ss(S'description'
g139
NS'alpha-generic'
tp859
(dp860
S'hardware'
p861
S'Alpha'
p862
sS'hardware-long'
p863
S'DEC Alpha systems with extended kernel start address (Wildfire, Titan, Marvel)'
p864
ss(S'image'
tp865
(dp866
S'initramfs-generators'
p867
(lp868
S'initramfs-tools'
p869
aS'initramfs-fallback'
p870
asS'type'
p871
S'plain'
p872
ss(g25
g50
g26
tp873
(dp874
g29
I01
sg30
(lp875
S'sparc64'
p876
aS'sparc64-smp'
p877
ass(S'build'
g99
NS'mx5'
tp878
(dp879
S'image-file'
p880
S'arch/arm/boot/zImage'
p881
ss(S'description'
g66
NS'powerpc64'
tp882
(dp883
S'hardware'
p884
S'64-bit PowerPC'
p885
ss(S'description'
g397
NS'sparc64'
tp886
(dp887
S'hardware'
p888
S'uniprocessor 64-bit UltraSPARC'
p889
ss(S'image'
g397
NS'sparc32'
tp890
(dp891
S'image-postproc'
p892
S'sparc32-image-postproc'
p893
ss(S'description'
g99
NS'mx5'
tp894
(dp895
S'hardware'
p896
S'Freescale i.MX51'
p897
sS'hardware-long'
p898
S'Support for Freescale i.MX51 family of processors'
p899
ss(S'image'
g268
tp900
(dp901
S'configs'
p902
(lp903
S's390/config'
p904
asS'bootloaders'
p905
(lp906
S's390-tools'
p907
ass(S'build'
g117
NS'iop32x'
tp908
(dp909
S'image-file'
p910
S'arch/arm/boot/zImage'
p911
sstRp912
.