# SymbolsHelper-Confirmed: 1.0 amd64
libprison.so.0 libprison0 #MINVER#
 _ZN6prison11BarcodeItem10setBarcodeEPNS_15AbstractBarcodeE@Base 1.0
 _ZN6prison11BarcodeItem5paintEP8QPainterPK24QStyleOptionGraphicsItemP7QWidget@Base 1.0
 _ZN6prison11BarcodeItem7setDataERK7QString@Base 1.0
 _ZN6prison11BarcodeItemC1EP13QGraphicsItem@Base 1.0
 _ZN6prison11BarcodeItemC1EPNS_15AbstractBarcodeEP13QGraphicsItem@Base 1.0
 _ZN6prison11BarcodeItemC2EP13QGraphicsItem@Base 1.0
 _ZN6prison11BarcodeItemC2EPNS_15AbstractBarcodeEP13QGraphicsItem@Base 1.0
 _ZN6prison11BarcodeItemD0Ev@Base 1.0
 _ZN6prison11BarcodeItemD1Ev@Base 1.0
 _ZN6prison11BarcodeItemD2Ev@Base 1.0
 _ZN6prison13BarcodeWidget10paintEventEP11QPaintEvent@Base 1.0
 _ZN6prison13BarcodeWidget10setBarcodeEPNS_15AbstractBarcodeE@Base 1.0
 _ZN6prison13BarcodeWidget11resizeEventEP12QResizeEvent@Base 1.0
 _ZN6prison13BarcodeWidget15mousePressEventEP11QMouseEvent@Base 1.0
 _ZN6prison13BarcodeWidget7setDataE7QString@Base 1.0
 _ZN6prison13BarcodeWidgetC1EP7QWidget@Base 1.0
 _ZN6prison13BarcodeWidgetC1EPNS_15AbstractBarcodeEP7QWidget@Base 1.0
 _ZN6prison13BarcodeWidgetC2EP7QWidget@Base 1.0
 _ZN6prison13BarcodeWidgetC2EPNS_15AbstractBarcodeEP7QWidget@Base 1.0
 _ZN6prison13BarcodeWidgetD0Ev@Base 1.0
 _ZN6prison13BarcodeWidgetD1Ev@Base 1.0
 _ZN6prison13BarcodeWidgetD2Ev@Base 1.0
 _ZN6prison13QRCodeBarcode7toImageERK6QSizeF@Base 1.0
 _ZN6prison13QRCodeBarcodeC1Ev@Base 1.0
 _ZN6prison13QRCodeBarcodeC2Ev@Base 1.0
 _ZN6prison13QRCodeBarcodeD0Ev@Base 1.0
 _ZN6prison13QRCodeBarcodeD1Ev@Base 1.0
 _ZN6prison13QRCodeBarcodeD2Ev@Base 1.0
 _ZN6prison15AbstractBarcode14setMinimumSizeERK6QSizeF@Base 1.0
 _ZN6prison15AbstractBarcode5paintEP8QPainterRK6QRectF@Base 1.0
 _ZN6prison15AbstractBarcode7setDataERK7QString@Base 1.0
 _ZN6prison15AbstractBarcodeC1Ev@Base 1.0
 _ZN6prison15AbstractBarcodeC2Ev@Base 1.0
 _ZN6prison15AbstractBarcodeD0Ev@Base 1.0
 _ZN6prison15AbstractBarcodeD1Ev@Base 1.0
 _ZN6prison15AbstractBarcodeD2Ev@Base 1.0
 _ZN6prison17DataMatrixBarcode7toImageERK6QSizeF@Base 1.0
 _ZN6prison17DataMatrixBarcodeC1Ev@Base 1.0
 _ZN6prison17DataMatrixBarcodeC2Ev@Base 1.0
 _ZN6prison17DataMatrixBarcodeD0Ev@Base 1.0
 _ZN6prison17DataMatrixBarcodeD1Ev@Base 1.0
 _ZN6prison17DataMatrixBarcodeD2Ev@Base 1.0
 _ZNK6prison11BarcodeItem12boundingRectEv@Base 1.0
 _ZNK6prison13BarcodeWidget15minimumSizeHintEv@Base 1.0
 _ZNK6prison15AbstractBarcode11minimumSizeEv@Base 1.0
 _ZNK6prison15AbstractBarcode4dataEv@Base 1.0
 _ZTIN6prison11BarcodeItemE@Base 1.0
 _ZTIN6prison13BarcodeWidgetE@Base 1.0
 _ZTIN6prison13QRCodeBarcodeE@Base 1.0
 _ZTIN6prison15AbstractBarcodeE@Base 1.0
 _ZTIN6prison17DataMatrixBarcodeE@Base 1.0
 _ZTSN6prison11BarcodeItemE@Base 1.0
 _ZTSN6prison13BarcodeWidgetE@Base 1.0
 _ZTSN6prison13QRCodeBarcodeE@Base 1.0
 _ZTSN6prison15AbstractBarcodeE@Base 1.0
 _ZTSN6prison17DataMatrixBarcodeE@Base 1.0
 _ZTVN6prison11BarcodeItemE@Base 1.0
 _ZTVN6prison13BarcodeWidgetE@Base 1.0
 _ZTVN6prison13QRCodeBarcodeE@Base 1.0
 _ZTVN6prison15AbstractBarcodeE@Base 1.0
 _ZTVN6prison17DataMatrixBarcodeE@Base 1.0
 (c++)"non-virtual thunk to prison::BarcodeWidget::~BarcodeWidget()@Base" 1.0
