# SymbolsHelper-Confirmed: 0.4.0 amd64
libattica.so.0.4 libattica0.4 #MINVER#
* Build-Depends-Package: libattica-dev
 (optional=templinst)_ZN6Attica10ItemPutJobINS_11AchievementEE5parseERK7QString@Base 0.4.0
 (optional=templinst)_ZN6Attica10ItemPutJobINS_11AchievementEEC1EPNS_17PlatformDependentERK15QNetworkRequestP9QIODevice@Base 0.4.0
 (optional=templinst)_ZN6Attica10ItemPutJobINS_11AchievementEEC1EPNS_17PlatformDependentERK15QNetworkRequestRK4QMapI7QStringS9_E@Base 0.4.0
 (optional=templinst)_ZN6Attica10ItemPutJobINS_11AchievementEEC2EPNS_17PlatformDependentERK15QNetworkRequestP9QIODevice@Base 0.4.0
 (optional=templinst)_ZN6Attica10ItemPutJobINS_11AchievementEEC2EPNS_17PlatformDependentERK15QNetworkRequestRK4QMapI7QStringS9_E@Base 0.4.0
 (optional=templinst)_ZN6Attica10ItemPutJobINS_11AchievementEED0Ev@Base 0.4.0
 (optional=templinst)_ZN6Attica10ItemPutJobINS_11AchievementEED1Ev@Base 0.4.0
 (optional=templinst)_ZN6Attica10ItemPutJobINS_11AchievementEED2Ev@Base 0.4.0
 _ZN6Attica11Achievement10setOptionsERK11QStringList@Base 0.4.0
 _ZN6Attica11Achievement11setProgressERK8QVariant@Base 0.4.0
 _ZN6Attica11Achievement12removeOptionERK7QString@Base 0.4.0
 _ZN6Attica11Achievement12setContentIdERK7QString@Base 0.4.0
 _ZN6Attica11Achievement13addDependencyERK7QString@Base 0.4.0
 _ZN6Attica11Achievement13setVisibilityENS0_10VisibilityE@Base 0.4.0
 _ZN6Attica11Achievement14setDescriptionERK7QString@Base 0.4.0
 _ZN6Attica11Achievement14setExplanationERK7QString@Base 0.4.0
 _ZN6Attica11Achievement15setDependenciesERK11QStringList@Base 0.4.0
 _ZN6Attica11Achievement16removeDependencyERK7QString@Base 0.4.0
 _ZN6Attica11Achievement23achievementTypeToStringENS0_4TypeE@Base 0.4.0
 _ZN6Attica11Achievement23stringToAchievementTypeERK7QString@Base 0.4.0
 _ZN6Attica11Achievement29achievementVisibilityToStringENS0_10VisibilityE@Base 0.4.0
 _ZN6Attica11Achievement29stringToAchievementVisibilityERK7QString@Base 0.4.0
 _ZN6Attica11Achievement5setIdERK7QString@Base 0.4.0
 _ZN6Attica11Achievement6Parser15parseXmlOptionsER16QXmlStreamReader@Base 0.4.0
 _ZN6Attica11Achievement6Parser16parseXmlProgressER16QXmlStreamReader@Base 0.4.0
 _ZN6Attica11Achievement6Parser20parseXmlDependenciesER16QXmlStreamReader@Base 0.4.0
 _ZN6Attica11Achievement6Parser8parseXmlER16QXmlStreamReader@Base 0.4.0
 _ZN6Attica11Achievement6ParserD0Ev@Base 0.4.0
 _ZN6Attica11Achievement6ParserD1Ev@Base 0.4.0
 _ZN6Attica11Achievement6ParserD2Ev@Base 0.4.0
 _ZN6Attica11Achievement7setNameERK7QString@Base 0.4.0
 _ZN6Attica11Achievement7setTypeENS0_4TypeE@Base 0.4.0
 _ZN6Attica11Achievement8setImageERK4QUrl@Base 0.4.0
 _ZN6Attica11Achievement8setStepsEi@Base 0.4.0
 _ZN6Attica11Achievement9addOptionERK7QString@Base 0.4.0
 _ZN6Attica11Achievement9setPointsEi@Base 0.4.0
 _ZN6Attica11AchievementC1ERKS0_@Base 0.4.0
 _ZN6Attica11AchievementC1Ev@Base 0.4.0
 _ZN6Attica11AchievementC2ERKS0_@Base 0.4.0
 _ZN6Attica11AchievementC2Ev@Base 0.4.0
 _ZN6Attica11AchievementD1Ev@Base 0.4.0
 _ZN6Attica11AchievementD2Ev@Base 0.4.0
 _ZN6Attica11AchievementaSERKS0_@Base 0.4.0
 (optional=templinst)_ZN6Attica11ItemPostJobINS_11AchievementEE5parseERK7QString@Base 0.4.0
 (optional=templinst)_ZN6Attica11ItemPostJobINS_11AchievementEEC1EPNS_17PlatformDependentERK15QNetworkRequestP9QIODevice@Base 0.4.0
 (optional=templinst)_ZN6Attica11ItemPostJobINS_11AchievementEEC1EPNS_17PlatformDependentERK15QNetworkRequestRK4QMapI7QStringS9_E@Base 0.4.0
 (optional=templinst)_ZN6Attica11ItemPostJobINS_11AchievementEEC2EPNS_17PlatformDependentERK15QNetworkRequestP9QIODevice@Base 0.4.0
 (optional=templinst)_ZN6Attica11ItemPostJobINS_11AchievementEEC2EPNS_17PlatformDependentERK15QNetworkRequestRK4QMapI7QStringS9_E@Base 0.4.0
 (optional=templinst)_ZN6Attica11ItemPostJobINS_11AchievementEED0Ev@Base 0.4.0
 (optional=templinst)_ZN6Attica11ItemPostJobINS_11AchievementEED1Ev@Base 0.4.0
 (optional=templinst)_ZN6Attica11ItemPostJobINS_11AchievementEED2Ev@Base 0.4.0
 (optional=templinst)_ZN6Attica11ItemPostJobINS_12BuildServiceEE5parseERK7QString@Base 0.4.0
 (optional=templinst)_ZN6Attica11ItemPostJobINS_12BuildServiceEEC1EPNS_17PlatformDependentERK15QNetworkRequestP9QIODevice@Base 0.4.0
 (optional=templinst)_ZN6Attica11ItemPostJobINS_12BuildServiceEEC1EPNS_17PlatformDependentERK15QNetworkRequestRK4QMapI7QStringS9_E@Base 0.4.0
 (optional=templinst)_ZN6Attica11ItemPostJobINS_12BuildServiceEEC2EPNS_17PlatformDependentERK15QNetworkRequestP9QIODevice@Base 0.4.0
 (optional=templinst)_ZN6Attica11ItemPostJobINS_12BuildServiceEEC2EPNS_17PlatformDependentERK15QNetworkRequestRK4QMapI7QStringS9_E@Base 0.4.0
 (optional=templinst)_ZN6Attica11ItemPostJobINS_12BuildServiceEED0Ev@Base 0.4.0
 (optional=templinst)_ZN6Attica11ItemPostJobINS_12BuildServiceEED1Ev@Base 0.4.0
 (optional=templinst)_ZN6Attica11ItemPostJobINS_12BuildServiceEED2Ev@Base 0.4.0
 (optional=templinst)_ZN6Attica11ItemPostJobINS_13RemoteAccountEE5parseERK7QString@Base 0.4.0
 (optional=templinst)_ZN6Attica11ItemPostJobINS_13RemoteAccountEEC1EPNS_17PlatformDependentERK15QNetworkRequestP9QIODevice@Base 0.4.0
 (optional=templinst)_ZN6Attica11ItemPostJobINS_13RemoteAccountEEC1EPNS_17PlatformDependentERK15QNetworkRequestRK4QMapI7QStringS9_E@Base 0.4.0
 (optional=templinst)_ZN6Attica11ItemPostJobINS_13RemoteAccountEEC2EPNS_17PlatformDependentERK15QNetworkRequestP9QIODevice@Base 0.4.0
 (optional=templinst)_ZN6Attica11ItemPostJobINS_13RemoteAccountEEC2EPNS_17PlatformDependentERK15QNetworkRequestRK4QMapI7QStringS9_E@Base 0.4.0
 (optional=templinst)_ZN6Attica11ItemPostJobINS_13RemoteAccountEED0Ev@Base 0.4.0
 (optional=templinst)_ZN6Attica11ItemPostJobINS_13RemoteAccountEED1Ev@Base 0.4.0
 (optional=templinst)_ZN6Attica11ItemPostJobINS_13RemoteAccountEED2Ev@Base 0.4.0
 (optional=templinst)_ZN6Attica11ItemPostJobINS_15BuildServiceJobEE5parseERK7QString@Base 0.4.0
 (optional=templinst)_ZN6Attica11ItemPostJobINS_15BuildServiceJobEEC1EPNS_17PlatformDependentERK15QNetworkRequestP9QIODevice@Base 0.4.0
 (optional=templinst)_ZN6Attica11ItemPostJobINS_15BuildServiceJobEEC1EPNS_17PlatformDependentERK15QNetworkRequestRK4QMapI7QStringS9_E@Base 0.4.0
 (optional=templinst)_ZN6Attica11ItemPostJobINS_15BuildServiceJobEEC2EPNS_17PlatformDependentERK15QNetworkRequestP9QIODevice@Base 0.4.0
 (optional=templinst)_ZN6Attica11ItemPostJobINS_15BuildServiceJobEEC2EPNS_17PlatformDependentERK15QNetworkRequestRK4QMapI7QStringS9_E@Base 0.4.0
 (optional=templinst)_ZN6Attica11ItemPostJobINS_15BuildServiceJobEED0Ev@Base 0.4.0
 (optional=templinst)_ZN6Attica11ItemPostJobINS_15BuildServiceJobEED1Ev@Base 0.4.0
 (optional=templinst)_ZN6Attica11ItemPostJobINS_15BuildServiceJobEED2Ev@Base 0.4.0
 (optional=templinst)_ZN6Attica11ItemPostJobINS_5ForumEE5parseERK7QString@Base 0.4.0
 (optional=templinst)_ZN6Attica11ItemPostJobINS_5ForumEEC1EPNS_17PlatformDependentERK15QNetworkRequestP9QIODevice@Base 0.4.0
 (optional=templinst)_ZN6Attica11ItemPostJobINS_5ForumEEC1EPNS_17PlatformDependentERK15QNetworkRequestRK4QMapI7QStringS9_E@Base 0.4.0
 (optional=templinst)_ZN6Attica11ItemPostJobINS_5ForumEEC2EPNS_17PlatformDependentERK15QNetworkRequestP9QIODevice@Base 0.4.0
 (optional=templinst)_ZN6Attica11ItemPostJobINS_5ForumEEC2EPNS_17PlatformDependentERK15QNetworkRequestRK4QMapI7QStringS9_E@Base 0.4.0
 (optional=templinst)_ZN6Attica11ItemPostJobINS_5ForumEED0Ev@Base 0.4.0
 (optional=templinst)_ZN6Attica11ItemPostJobINS_5ForumEED1Ev@Base 0.4.0
 (optional=templinst)_ZN6Attica11ItemPostJobINS_5ForumEED2Ev@Base 0.4.0
 (optional=templinst)_ZN6Attica11ItemPostJobINS_7CommentEE5parseERK7QString@Base 0.4.0
 (optional=templinst)_ZN6Attica11ItemPostJobINS_7CommentEEC1EPNS_17PlatformDependentERK15QNetworkRequestP9QIODevice@Base 0.4.0
 (optional=templinst)_ZN6Attica11ItemPostJobINS_7CommentEEC1EPNS_17PlatformDependentERK15QNetworkRequestRK4QMapI7QStringS9_E@Base 0.4.0
 (optional=templinst)_ZN6Attica11ItemPostJobINS_7CommentEEC2EPNS_17PlatformDependentERK15QNetworkRequestP9QIODevice@Base 0.4.0
 (optional=templinst)_ZN6Attica11ItemPostJobINS_7CommentEEC2EPNS_17PlatformDependentERK15QNetworkRequestRK4QMapI7QStringS9_E@Base 0.4.0
 (optional=templinst)_ZN6Attica11ItemPostJobINS_7CommentEED0Ev@Base 0.4.0
 (optional=templinst)_ZN6Attica11ItemPostJobINS_7CommentEED1Ev@Base 0.4.0
 (optional=templinst)_ZN6Attica11ItemPostJobINS_7CommentEED2Ev@Base 0.4.0
 (optional=templinst)_ZN6Attica11ItemPostJobINS_7ContentEE5parseERK7QString@Base 0.4.0
 (optional=templinst)_ZN6Attica11ItemPostJobINS_7ContentEEC1EPNS_17PlatformDependentERK15QNetworkRequestP9QIODevice@Base 0.4.0
 (optional=templinst)_ZN6Attica11ItemPostJobINS_7ContentEEC1EPNS_17PlatformDependentERK15QNetworkRequestRK4QMapI7QStringS9_E@Base 0.4.0
 (optional=templinst)_ZN6Attica11ItemPostJobINS_7ContentEEC2EPNS_17PlatformDependentERK15QNetworkRequestP9QIODevice@Base 0.4.0
 (optional=templinst)_ZN6Attica11ItemPostJobINS_7ContentEEC2EPNS_17PlatformDependentERK15QNetworkRequestRK4QMapI7QStringS9_E@Base 0.4.0
 (optional=templinst)_ZN6Attica11ItemPostJobINS_7ContentEED0Ev@Base 0.4.0
 (optional=templinst)_ZN6Attica11ItemPostJobINS_7ContentEED1Ev@Base 0.4.0
 (optional=templinst)_ZN6Attica11ItemPostJobINS_7ContentEED2Ev@Base 0.4.0
 (optional=templinst)_ZN6Attica11ItemPostJobINS_7ProjectEE5parseERK7QString@Base 0.4.0
 (optional=templinst)_ZN6Attica11ItemPostJobINS_7ProjectEEC1EPNS_17PlatformDependentERK15QNetworkRequestP9QIODevice@Base 0.4.0
 (optional=templinst)_ZN6Attica11ItemPostJobINS_7ProjectEEC1EPNS_17PlatformDependentERK15QNetworkRequestRK4QMapI7QStringS9_E@Base 0.4.0
 (optional=templinst)_ZN6Attica11ItemPostJobINS_7ProjectEEC2EPNS_17PlatformDependentERK15QNetworkRequestP9QIODevice@Base 0.4.0
 (optional=templinst)_ZN6Attica11ItemPostJobINS_7ProjectEEC2EPNS_17PlatformDependentERK15QNetworkRequestRK4QMapI7QStringS9_E@Base 0.4.0
 (optional=templinst)_ZN6Attica11ItemPostJobINS_7ProjectEED0Ev@Base 0.4.0
 (optional=templinst)_ZN6Attica11ItemPostJobINS_7ProjectEED1Ev@Base 0.4.0
 (optional=templinst)_ZN6Attica11ItemPostJobINS_7ProjectEED2Ev@Base 0.4.0
 (optional=templinst)_ZN6Attica11ItemPostJobINS_9PublisherEE5parseERK7QString@Base 0.4.0
 (optional=templinst)_ZN6Attica11ItemPostJobINS_9PublisherEEC1EPNS_17PlatformDependentERK15QNetworkRequestP9QIODevice@Base 0.4.0
 (optional=templinst)_ZN6Attica11ItemPostJobINS_9PublisherEEC1EPNS_17PlatformDependentERK15QNetworkRequestRK4QMapI7QStringS9_E@Base 0.4.0
 (optional=templinst)_ZN6Attica11ItemPostJobINS_9PublisherEEC2EPNS_17PlatformDependentERK15QNetworkRequestP9QIODevice@Base 0.4.0
 (optional=templinst)_ZN6Attica11ItemPostJobINS_9PublisherEEC2EPNS_17PlatformDependentERK15QNetworkRequestRK4QMapI7QStringS9_E@Base 0.4.0
 (optional=templinst)_ZN6Attica11ItemPostJobINS_9PublisherEED0Ev@Base 0.4.0
 (optional=templinst)_ZN6Attica11ItemPostJobINS_9PublisherEED1Ev@Base 0.4.0
 (optional=templinst)_ZN6Attica11ItemPostJobINS_9PublisherEED2Ev@Base 0.4.0
 _ZN6Attica11PrivateData12setAttributeERK7QStringS3_@Base 0.4.0
 _ZN6Attica11PrivateData12setTimestampERK7QStringRK9QDateTime@Base 0.4.0
 _ZN6Attica11PrivateData6Parser8parseXmlER16QXmlStreamReader@Base 0.4.0
 _ZN6Attica11PrivateData6ParserD0Ev@Base 0.4.0
 _ZN6Attica11PrivateData6ParserD1Ev@Base 0.4.0
 _ZN6Attica11PrivateData6ParserD2Ev@Base 0.4.0
 _ZN6Attica11PrivateDataC1ERKS0_@Base 0.4.0
 _ZN6Attica11PrivateDataC1Ev@Base 0.4.0
 _ZN6Attica11PrivateDataC2ERKS0_@Base 0.4.0
 _ZN6Attica11PrivateDataC2Ev@Base 0.4.0
 _ZN6Attica11PrivateDataD1Ev@Base 0.4.0
 _ZN6Attica11PrivateDataD2Ev@Base 0.4.0
 _ZN6Attica11PrivateDataaSERKS0_@Base 0.4.0
 _ZN6Attica12BuildService5setIdERK7QString@Base 0.4.0
 _ZN6Attica12BuildService6Parser8parseXmlER16QXmlStreamReader@Base 0.4.0
 _ZN6Attica12BuildService6ParserD0Ev@Base 0.4.0
 _ZN6Attica12BuildService6ParserD1Ev@Base 0.4.0
 _ZN6Attica12BuildService6ParserD2Ev@Base 0.4.0
 _ZN6Attica12BuildService6setUrlERK7QString@Base 0.4.0
 _ZN6Attica12BuildService7setNameERK7QString@Base 0.4.0
 _ZN6Attica12BuildService9addTargetERKNS_6TargetE@Base 0.4.0
 _ZN6Attica12BuildServiceC1ERKS0_@Base 0.4.0
 _ZN6Attica12BuildServiceC1Ev@Base 0.4.0
 _ZN6Attica12BuildServiceC2ERKS0_@Base 0.4.0
 _ZN6Attica12BuildServiceC2Ev@Base 0.4.0
 _ZN6Attica12BuildServiceD1Ev@Base 0.4.0
 _ZN6Attica12BuildServiceD2Ev@Base 0.4.0
 _ZN6Attica12BuildServiceaSERKS0_@Base 0.4.0
 _ZN6Attica12Distribution5setIdEj@Base 0.4.0
 _ZN6Attica12Distribution6Parser8parseXmlER16QXmlStreamReader@Base 0.4.0
 _ZN6Attica12Distribution6ParserD0Ev@Base 0.4.0
 _ZN6Attica12Distribution6ParserD1Ev@Base 0.4.0
 _ZN6Attica12Distribution6ParserD2Ev@Base 0.4.0
 _ZN6Attica12Distribution7setNameERK7QString@Base 0.4.0
 _ZN6Attica12DistributionC1ERKS0_@Base 0.4.0
 _ZN6Attica12DistributionC1Ev@Base 0.4.0
 _ZN6Attica12DistributionC2ERKS0_@Base 0.4.0
 _ZN6Attica12DistributionC2Ev@Base 0.4.0
 _ZN6Attica12DistributionD1Ev@Base 0.4.0
 _ZN6Attica12DistributionD2Ev@Base 0.4.0
 _ZN6Attica12DistributionaSERKS0_@Base 0.4.0
 _ZN6Attica12DownloadItem11setMimeTypeERK7QString@Base 0.4.0
 _ZN6Attica12DownloadItem14setPackageNameERK7QString@Base 0.4.0
 _ZN6Attica12DownloadItem15setGpgSignatureERK7QString@Base 0.4.0
 _ZN6Attica12DownloadItem17setGpgFingerprintERK7QString@Base 0.4.0
 _ZN6Attica12DownloadItem20setPackageRepositoryERK7QString@Base 0.4.0
 _ZN6Attica12DownloadItem4typeEv@Base 0.4.0
 _ZN6Attica12DownloadItem6Parser8parseXmlER16QXmlStreamReader@Base 0.4.0
 _ZN6Attica12DownloadItem6ParserD0Ev@Base 0.4.0
 _ZN6Attica12DownloadItem6ParserD1Ev@Base 0.4.0
 _ZN6Attica12DownloadItem6ParserD2Ev@Base 0.4.0
 _ZN6Attica12DownloadItem6setUrlERK4QUrl@Base 0.4.0
 _ZN6Attica12DownloadItem7setTypeENS_19DownloadDescription4TypeE@Base 0.4.0
 _ZN6Attica12DownloadItemC1ERKS0_@Base 0.4.0
 _ZN6Attica12DownloadItemC1Ev@Base 0.4.0
 _ZN6Attica12DownloadItemC2ERKS0_@Base 0.4.0
 _ZN6Attica12DownloadItemC2Ev@Base 0.4.0
 _ZN6Attica12DownloadItemD1Ev@Base 0.4.0
 _ZN6Attica12DownloadItemD2Ev@Base 0.4.0
 _ZN6Attica12DownloadItemaSERKS0_@Base 0.4.0
 _ZN6Attica12HomePageType5setIdEj@Base 0.4.0
 _ZN6Attica12HomePageType6Parser8parseXmlER16QXmlStreamReader@Base 0.4.0
 _ZN6Attica12HomePageType6ParserD0Ev@Base 0.4.0
 _ZN6Attica12HomePageType6ParserD1Ev@Base 0.4.0
 _ZN6Attica12HomePageType6ParserD2Ev@Base 0.4.0
 _ZN6Attica12HomePageType7setNameERK7QString@Base 0.4.0
 _ZN6Attica12HomePageTypeC1ERKS0_@Base 0.4.0
 _ZN6Attica12HomePageTypeC1Ev@Base 0.4.0
 _ZN6Attica12HomePageTypeC2ERKS0_@Base 0.4.0
 _ZN6Attica12HomePageTypeC2Ev@Base 0.4.0
 _ZN6Attica12HomePageTypeD1Ev@Base 0.4.0
 _ZN6Attica12HomePageTypeD2Ev@Base 0.4.0
 _ZN6Attica12HomePageTypeaSERKS0_@Base 0.4.0
 _ZN6Attica13HomePageEntry6setUrlERK4QUrl@Base 0.4.0
 _ZN6Attica13HomePageEntry7setTypeERK7QString@Base 0.4.0
 _ZN6Attica13HomePageEntryC1ERKS0_@Base 0.4.0
 _ZN6Attica13HomePageEntryC1Ev@Base 0.4.0
 _ZN6Attica13HomePageEntryC2ERKS0_@Base 0.4.0
 _ZN6Attica13HomePageEntryC2Ev@Base 0.4.0
 _ZN6Attica13HomePageEntryD1Ev@Base 0.4.0
 _ZN6Attica13HomePageEntryD2Ev@Base 0.4.0
 _ZN6Attica13HomePageEntryaSERKS0_@Base 0.4.0
 (optional=templinst)_ZN6Attica13ItemDeleteJobINS_11AchievementEE5parseERK7QString@Base 0.4.0
 (optional=templinst)_ZN6Attica13ItemDeleteJobINS_11AchievementEEC1EPNS_17PlatformDependentERK15QNetworkRequest@Base 0.4.0
 (optional=templinst)_ZN6Attica13ItemDeleteJobINS_11AchievementEEC2EPNS_17PlatformDependentERK15QNetworkRequest@Base 0.4.0
 (optional=templinst)_ZN6Attica13ItemDeleteJobINS_11AchievementEED0Ev@Base 0.4.0
 (optional=templinst)_ZN6Attica13ItemDeleteJobINS_11AchievementEED1Ev@Base 0.4.0
 (optional=templinst)_ZN6Attica13ItemDeleteJobINS_11AchievementEED2Ev@Base 0.4.0
 _ZN6Attica13RemoteAccount11setPasswordERK7QString@Base 0.4.0
 _ZN6Attica13RemoteAccount18setRemoteServiceIdERK7QString@Base 0.4.0
 _ZN6Attica13RemoteAccount5setIdERK7QString@Base 0.4.0
 _ZN6Attica13RemoteAccount6Parser8parseXmlER16QXmlStreamReader@Base 0.4.0
 _ZN6Attica13RemoteAccount6ParserD0Ev@Base 0.4.0
 _ZN6Attica13RemoteAccount6ParserD1Ev@Base 0.4.0
 _ZN6Attica13RemoteAccount6ParserD2Ev@Base 0.4.0
 _ZN6Attica13RemoteAccount7setDataERK7QString@Base 0.4.0
 _ZN6Attica13RemoteAccount7setTypeERK7QString@Base 0.4.0
 _ZN6Attica13RemoteAccount8setLoginERK7QString@Base 0.4.0
 _ZN6Attica13RemoteAccountC1ERKS0_@Base 0.4.0
 _ZN6Attica13RemoteAccountC1Ev@Base 0.4.0
 _ZN6Attica13RemoteAccountC2ERKS0_@Base 0.4.0
 _ZN6Attica13RemoteAccountC2Ev@Base 0.4.0
 _ZN6Attica13RemoteAccountD1Ev@Base 0.4.0
 _ZN6Attica13RemoteAccountD2Ev@Base 0.4.0
 _ZN6Attica13RemoteAccountaSERKS0_@Base 0.4.0
 _ZN6Attica14AccountBalance10setBalanceERK7QString@Base 0.4.0
 _ZN6Attica14AccountBalance11setCurrencyERK7QString@Base 0.4.0
 _ZN6Attica14AccountBalance6Parser8parseXmlER16QXmlStreamReader@Base 0.4.0
 _ZN6Attica14AccountBalance6ParserD0Ev@Base 0.4.0
 _ZN6Attica14AccountBalance6ParserD1Ev@Base 0.4.0
 _ZN6Attica14AccountBalance6ParserD2Ev@Base 0.4.0
 _ZN6Attica14AccountBalanceC1ERKS0_@Base 0.4.0
 _ZN6Attica14AccountBalanceC1Ev@Base 0.4.0
 _ZN6Attica14AccountBalanceC2ERKS0_@Base 0.4.0
 _ZN6Attica14AccountBalanceC2Ev@Base 0.4.0
 _ZN6Attica14AccountBalanceD1Ev@Base 0.4.0
 _ZN6Attica14AccountBalanceD2Ev@Base 0.4.0
 _ZN6Attica14AccountBalanceaSERKS0_@Base 0.4.0
 _ZN6Attica14PublisherField6Parser8parseXmlER16QXmlStreamReader@Base 0.4.0
 _ZN6Attica14PublisherField6ParserD0Ev@Base 0.4.0
 _ZN6Attica14PublisherField6ParserD1Ev@Base 0.4.0
 _ZN6Attica14PublisherField6ParserD2Ev@Base 0.4.0
 _ZN6Attica14PublisherField7setDataERK7QString@Base 0.4.0
 _ZN6Attica14PublisherField7setNameERK7QString@Base 0.4.0
 _ZN6Attica14PublisherField7setTypeERK7QString@Base 0.4.0
 _ZN6Attica14PublisherFieldC1ERKS0_@Base 0.4.0
 _ZN6Attica14PublisherFieldC1Ev@Base 0.4.0
 _ZN6Attica14PublisherFieldC2ERKS0_@Base 0.4.0
 _ZN6Attica14PublisherFieldC2Ev@Base 0.4.0
 _ZN6Attica14PublisherFieldD1Ev@Base 0.4.0
 _ZN6Attica14PublisherFieldD2Ev@Base 0.4.0
 _ZN6Attica14PublisherFieldaSERKS0_@Base 0.4.0
 _ZN6Attica15BuildServiceJob10setMessageERK7QString@Base 0.4.0
 (subst)_ZN6Attica15BuildServiceJob11setProgressE{qreal}@Base 0.4.0
 _ZN6Attica15BuildServiceJob12setProjectIdERK7QString@Base 0.4.0
 _ZN6Attica15BuildServiceJob17setBuildServiceIdERK7QString@Base 0.4.0
 _ZN6Attica15BuildServiceJob5setIdERK7QString@Base 0.4.0
 _ZN6Attica15BuildServiceJob6Parser8parseXmlER16QXmlStreamReader@Base 0.4.0
 _ZN6Attica15BuildServiceJob6ParserD0Ev@Base 0.4.0
 _ZN6Attica15BuildServiceJob6ParserD1Ev@Base 0.4.0
 _ZN6Attica15BuildServiceJob6ParserD2Ev@Base 0.4.0
 _ZN6Attica15BuildServiceJob6setUrlERK7QString@Base 0.4.0
 _ZN6Attica15BuildServiceJob7setNameERK7QString@Base 0.4.0
 _ZN6Attica15BuildServiceJob9setStatusEi@Base 0.4.0
 _ZN6Attica15BuildServiceJob9setTargetERK7QString@Base 0.4.0
 _ZN6Attica15BuildServiceJobC1ERKS0_@Base 0.4.0
 _ZN6Attica15BuildServiceJobC1Ev@Base 0.4.0
 _ZN6Attica15BuildServiceJobC2ERKS0_@Base 0.4.0
 _ZN6Attica15BuildServiceJobC2Ev@Base 0.4.0
 _ZN6Attica15BuildServiceJobD1Ev@Base 0.4.0
 _ZN6Attica15BuildServiceJobD2Ev@Base 0.4.0
 _ZN6Attica15BuildServiceJobaSERKS0_@Base 0.4.0
 _ZN6Attica15ProviderManager11qt_metacallEN11QMetaObject4CallEiPPv@Base 0.4.0
 _ZN6Attica15ProviderManager11qt_metacastEPKc@Base 0.4.0
 _ZN6Attica15ProviderManager12authenticateEP13QNetworkReplyP14QAuthenticator@Base 0.4.0
 _ZN6Attica15ProviderManager12fileFinishedERK7QString@Base 0.4.0
 _ZN6Attica15ProviderManager13providerAddedERKNS_8ProviderE@Base 0.4.0
 _ZN6Attica15ProviderManager15addProviderFileERK4QUrl@Base 0.4.0
 _ZN6Attica15ProviderManager16staticMetaObjectE@Base 0.4.0
 _ZN6Attica15ProviderManager17parseProviderFileERK7QStringS3_@Base 0.4.0
 _ZN6Attica15ProviderManager18addProviderFromXmlERK7QString@Base 0.4.0
 _ZN6Attica15ProviderManager20defaultProviderFilesEv@Base 0.4.0
 _ZN6Attica15ProviderManager20loadDefaultProvidersEv@Base 0.4.0
 _ZN6Attica15ProviderManager21loadPlatformDependentERK6QFlagsINS0_12ProviderFlagEE@Base 0.4.0
 _ZN6Attica15ProviderManager22defaultProvidersLoadedEv@Base 0.4.0
 _ZN6Attica15ProviderManager25initNetworkAccesssManagerEv@Base 0.4.0
 _ZN6Attica15ProviderManager27proxyAuthenticationRequiredERK13QNetworkProxyP14QAuthenticator@Base 0.4.0
 _ZN6Attica15ProviderManager27setAuthenticationSuppressedEb@Base 0.4.0
 _ZN6Attica15ProviderManager32authenticationCredentialsMissingERKNS_8ProviderE@Base 0.4.0
 _ZN6Attica15ProviderManager32slotLoadDefaultProvidersInternalEv@Base 0.4.0
 _ZN6Attica15ProviderManager33addProviderFileToDefaultProvidersERK4QUrl@Base 0.4.0
 _ZN6Attica15ProviderManager38removeProviderFileFromDefaultProvidersERK4QUrl@Base 0.4.0
 _ZN6Attica15ProviderManager5clearEv@Base 0.4.0
 _ZN6Attica15ProviderManagerC1ERK6QFlagsINS0_12ProviderFlagEE@Base 0.4.0
 _ZN6Attica15ProviderManagerC2ERK6QFlagsINS0_12ProviderFlagEE@Base 0.4.0
 _ZN6Attica15ProviderManagerD0Ev@Base 0.4.0
 _ZN6Attica15ProviderManagerD1Ev@Base 0.4.0
 _ZN6Attica15ProviderManagerD2Ev@Base 0.4.0
 _ZN6Attica18KnowledgeBaseEntry10setChangedERK9QDateTime@Base 0.4.0
 _ZN6Attica18KnowledgeBaseEntry11setCommentsEi@Base 0.4.0
 _ZN6Attica18KnowledgeBaseEntry12setContentIdEi@Base 0.4.0
 _ZN6Attica18KnowledgeBaseEntry13setDetailPageERK4QUrl@Base 0.4.0
 _ZN6Attica18KnowledgeBaseEntry14setDescriptionERK7QString@Base 0.4.0
 _ZN6Attica18KnowledgeBaseEntry20addExtendedAttributeERK7QStringS3_@Base 0.4.0
 _ZN6Attica18KnowledgeBaseEntry5setIdE7QString@Base 0.4.0
 _ZN6Attica18KnowledgeBaseEntry6Parser8parseXmlER16QXmlStreamReader@Base 0.4.0
 _ZN6Attica18KnowledgeBaseEntry6ParserD0Ev@Base 0.4.0
 _ZN6Attica18KnowledgeBaseEntry6ParserD1Ev@Base 0.4.0
 _ZN6Attica18KnowledgeBaseEntry6ParserD2Ev@Base 0.4.0
 _ZN6Attica18KnowledgeBaseEntry7setNameERK7QString@Base 0.4.0
 _ZN6Attica18KnowledgeBaseEntry7setUserERK7QString@Base 0.4.0
 _ZN6Attica18KnowledgeBaseEntry9setAnswerERK7QString@Base 0.4.0
 _ZN6Attica18KnowledgeBaseEntry9setStatusERK7QString@Base 0.4.0
 _ZN6Attica18KnowledgeBaseEntryC1ERKS0_@Base 0.4.0
 _ZN6Attica18KnowledgeBaseEntryC1Ev@Base 0.4.0
 _ZN6Attica18KnowledgeBaseEntryC2ERKS0_@Base 0.4.0
 _ZN6Attica18KnowledgeBaseEntryC2Ev@Base 0.4.0
 _ZN6Attica18KnowledgeBaseEntryD1Ev@Base 0.4.0
 _ZN6Attica18KnowledgeBaseEntryD2Ev@Base 0.4.0
 _ZN6Attica18KnowledgeBaseEntryaSERKS0_@Base 0.4.0
 _ZN6Attica19DownloadDescription10repositoryEv@Base 0.4.0
 _ZN6Attica19DownloadDescription11packageNameEv@Base 0.4.0
 _ZN6Attica19DownloadDescription11priceAmountEv@Base 0.4.0
 _ZN6Attica19DownloadDescription11priceReasonEv@Base 0.4.0
 _ZN6Attica19DownloadDescription11setCategoryERK7QString@Base 0.4.0
 _ZN6Attica19DownloadDescription11setHasPriceEb@Base 0.4.0
 _ZN6Attica19DownloadDescription12gpgSignatureEv@Base 0.4.0
 _ZN6Attica19DownloadDescription13setRepositoryERK7QString@Base 0.4.0
 _ZN6Attica19DownloadDescription14gpgFingerprintEv@Base 0.4.0
 _ZN6Attica19DownloadDescription14setPackageNameERK7QString@Base 0.4.0
 _ZN6Attica19DownloadDescription14setPriceAmountERK7QString@Base 0.4.0
 _ZN6Attica19DownloadDescription14setPriceReasonERK7QString@Base 0.4.0
 _ZN6Attica19DownloadDescription15setGpgSignatureERK7QString@Base 0.4.0
 _ZN6Attica19DownloadDescription16distributionTypeEv@Base 0.4.0
 _ZN6Attica19DownloadDescription17isDownloadtypLinkEv@Base 0.4.0
 _ZN6Attica19DownloadDescription17setGpgFingerprintERK7QString@Base 0.4.0
 _ZN6Attica19DownloadDescription18setDownloadtypLinkEb@Base 0.4.0
 _ZN6Attica19DownloadDescription19setDistributionTypeERK7QString@Base 0.4.0
 _ZN6Attica19DownloadDescription2idEv@Base 0.4.0
 _ZN6Attica19DownloadDescription4linkEv@Base 0.4.0
 _ZN6Attica19DownloadDescription4nameEv@Base 0.4.0
 _ZN6Attica19DownloadDescription4sizeEv@Base 0.4.0
 _ZN6Attica19DownloadDescription4typeEv@Base 0.4.0
 _ZN6Attica19DownloadDescription5setIdEi@Base 0.4.0
 (optional=gccinternal)_ZN6Attica19DownloadDescription7PrivateD1Ev@Base 0.4.0
 (optional=gccinternal)_ZN6Attica19DownloadDescription7PrivateD2Ev@Base 0.4.0
 _ZN6Attica19DownloadDescription7setLinkERK7QString@Base 0.4.0
 _ZN6Attica19DownloadDescription7setNameERK7QString@Base 0.4.0
 _ZN6Attica19DownloadDescription7setSizeEj@Base 0.4.0
 _ZN6Attica19DownloadDescription7setTypeENS0_4TypeE@Base 0.4.0
 _ZN6Attica19DownloadDescription8categoryEv@Base 0.4.0
 _ZN6Attica19DownloadDescription8hasPriceEv@Base 0.4.0
 _ZN6Attica19DownloadDescriptionC1ERKS0_@Base 0.4.0
 _ZN6Attica19DownloadDescriptionC1Ev@Base 0.4.0
 _ZN6Attica19DownloadDescriptionC2ERKS0_@Base 0.4.0
 _ZN6Attica19DownloadDescriptionC2Ev@Base 0.4.0
 _ZN6Attica19DownloadDescriptionD1Ev@Base 0.4.0
 _ZN6Attica19DownloadDescriptionD2Ev@Base 0.4.0
 _ZN6Attica19DownloadDescriptionaSERKS0_@Base 0.4.0
 _ZN6Attica21BuildServiceJobOutput6Parser8parseXmlER16QXmlStreamReader@Base 0.4.0
 _ZN6Attica21BuildServiceJobOutput6ParserD0Ev@Base 0.4.0
 _ZN6Attica21BuildServiceJobOutput6ParserD1Ev@Base 0.4.0
 _ZN6Attica21BuildServiceJobOutput6ParserD2Ev@Base 0.4.0
 _ZN6Attica21BuildServiceJobOutput9setOutputERK7QString@Base 0.4.0
 _ZN6Attica21BuildServiceJobOutputC1ERKS0_@Base 0.4.0
 _ZN6Attica21BuildServiceJobOutputC1Ev@Base 0.4.0
 _ZN6Attica21BuildServiceJobOutputC2ERKS0_@Base 0.4.0
 _ZN6Attica21BuildServiceJobOutputC2Ev@Base 0.4.0
 _ZN6Attica21BuildServiceJobOutputD1Ev@Base 0.4.0
 _ZN6Attica21BuildServiceJobOutputD2Ev@Base 0.4.0
 _ZN6Attica21BuildServiceJobOutputaSERKS0_@Base 0.4.0
 _ZN6Attica4Icon6setUrlERK4QUrl@Base 0.4.0
 _ZN6Attica4Icon8setWidthEj@Base 0.4.0
 _ZN6Attica4Icon9setHeightEj@Base 0.4.0
 _ZN6Attica4IconC1ERKS0_@Base 0.4.0
 _ZN6Attica4IconC1Ev@Base 0.4.0
 _ZN6Attica4IconC2ERKS0_@Base 0.4.0
 _ZN6Attica4IconC2Ev@Base 0.4.0
 _ZN6Attica4IconD1Ev@Base 0.4.0
 _ZN6Attica4IconD2Ev@Base 0.4.0
 _ZN6Attica4IconaSERKS0_@Base 0.4.0
 _ZN6Attica5Event10setCountryERK7QString@Base 0.4.0
 _ZN6Attica5Event10setEndDateERK5QDate@Base 0.4.0
 _ZN6Attica5Event11setHomepageERK4QUrl@Base 0.4.0
 (subst)_ZN6Attica5Event11setLatitudeE{qreal}@Base 0.4.0
 (subst)_ZN6Attica5Event12setLongitudeE{qreal}@Base 0.4.0
 _ZN6Attica5Event12setStartDateERK5QDate@Base 0.4.0
 _ZN6Attica5Event14setDescriptionERK7QString@Base 0.4.0
 _ZN6Attica5Event20addExtendedAttributeERK7QStringS3_@Base 0.4.0
 _ZN6Attica5Event5setIdERK7QString@Base 0.4.0
 _ZN6Attica5Event6Parser8parseXmlER16QXmlStreamReader@Base 0.4.0
 _ZN6Attica5Event6ParserD0Ev@Base 0.4.0
 _ZN6Attica5Event6ParserD1Ev@Base 0.4.0
 _ZN6Attica5Event6ParserD2Ev@Base 0.4.0
 _ZN6Attica5Event7setCityERK7QString@Base 0.4.0
 _ZN6Attica5Event7setNameERK7QString@Base 0.4.0
 _ZN6Attica5Event7setUserERK7QString@Base 0.4.0
 _ZN6Attica5EventC1ERKS0_@Base 0.4.0
 _ZN6Attica5EventC1Ev@Base 0.4.0
 _ZN6Attica5EventC2ERKS0_@Base 0.4.0
 _ZN6Attica5EventC2Ev@Base 0.4.0
 _ZN6Attica5EventD1Ev@Base 0.4.0
 _ZN6Attica5EventD2Ev@Base 0.4.0
 _ZN6Attica5EventaSERKS0_@Base 0.4.0
 _ZN6Attica5Forum11setChildrenE5QListIS0_E@Base 0.4.0
 _ZN6Attica5Forum13setChildCountEi@Base 0.4.0
 _ZN6Attica5Forum14setDescriptionERK7QString@Base 0.4.0
 _ZN6Attica5Forum5setIdERK7QString@Base 0.4.0
 _ZN6Attica5Forum6Parser16parseXmlChildrenER16QXmlStreamReader@Base 0.4.0
 _ZN6Attica5Forum6Parser8parseXmlER16QXmlStreamReader@Base 0.4.0
 _ZN6Attica5Forum6ParserD0Ev@Base 0.4.0
 _ZN6Attica5Forum6ParserD1Ev@Base 0.4.0
 _ZN6Attica5Forum6ParserD2Ev@Base 0.4.0
 _ZN6Attica5Forum7setDateERK9QDateTime@Base 0.4.0
 _ZN6Attica5Forum7setIconERK4QUrl@Base 0.4.0
 _ZN6Attica5Forum7setNameERK7QString@Base 0.4.0
 _ZN6Attica5Forum9setTopicsEi@Base 0.4.0
 _ZN6Attica5ForumC1ERKS0_@Base 0.4.0
 _ZN6Attica5ForumC1Ev@Base 0.4.0
 _ZN6Attica5ForumC2ERKS0_@Base 0.4.0
 _ZN6Attica5ForumC2Ev@Base 0.4.0
 _ZN6Attica5ForumD1Ev@Base 0.4.0
 _ZN6Attica5ForumD2Ev@Base 0.4.0
 _ZN6Attica5ForumaSERKS0_@Base 0.4.0
 _ZN6Attica5Topic10setContentERK7QString@Base 0.4.0
 _ZN6Attica5Topic10setForumIdERK7QString@Base 0.4.0
 _ZN6Attica5Topic10setSubjectERK7QString@Base 0.4.0
 _ZN6Attica5Topic11setCommentsEi@Base 0.4.0
 _ZN6Attica5Topic5setIdERK7QString@Base 0.4.0
 _ZN6Attica5Topic6Parser8parseXmlER16QXmlStreamReader@Base 0.4.0
 _ZN6Attica5Topic6ParserD0Ev@Base 0.4.0
 _ZN6Attica5Topic6ParserD1Ev@Base 0.4.0
 _ZN6Attica5Topic6ParserD2Ev@Base 0.4.0
 _ZN6Attica5Topic7setDateERK9QDateTime@Base 0.4.0
 _ZN6Attica5Topic7setUserERK7QString@Base 0.4.0
 _ZN6Attica5TopicC1ERKS0_@Base 0.4.0
 _ZN6Attica5TopicC1Ev@Base 0.4.0
 _ZN6Attica5TopicC2ERKS0_@Base 0.4.0
 _ZN6Attica5TopicC2Ev@Base 0.4.0
 _ZN6Attica5TopicD1Ev@Base 0.4.0
 _ZN6Attica5TopicD2Ev@Base 0.4.0
 _ZN6Attica5TopicaSERKS0_@Base 0.4.0
 _ZN6Attica6Folder15setMessageCountEi@Base 0.4.0
 _ZN6Attica6Folder5setIdERK7QString@Base 0.4.0
 _ZN6Attica6Folder6Parser8parseXmlER16QXmlStreamReader@Base 0.4.0
 _ZN6Attica6Folder6ParserD0Ev@Base 0.4.0
 _ZN6Attica6Folder6ParserD1Ev@Base 0.4.0
 _ZN6Attica6Folder6ParserD2Ev@Base 0.4.0
 _ZN6Attica6Folder7setNameERK7QString@Base 0.4.0
 _ZN6Attica6Folder7setTypeERK7QString@Base 0.4.0
 _ZN6Attica6FolderC1ERKS0_@Base 0.4.0
 _ZN6Attica6FolderC1Ev@Base 0.4.0
 _ZN6Attica6FolderC2ERKS0_@Base 0.4.0
 _ZN6Attica6FolderC2Ev@Base 0.4.0
 _ZN6Attica6FolderD1Ev@Base 0.4.0
 _ZN6Attica6FolderD2Ev@Base 0.4.0
 _ZN6Attica6FolderaSERKS0_@Base 0.4.0
 _ZN6Attica6GetJob11qt_metacallEN11QMetaObject4CallEiPPv@Base 0.4.0
 _ZN6Attica6GetJob11qt_metacastEPKc@Base 0.4.0
 _ZN6Attica6GetJob14executeRequestEv@Base 0.4.0
 _ZN6Attica6GetJob16staticMetaObjectE@Base 0.4.0
 _ZN6Attica6GetJobC1EPNS_17PlatformDependentERK15QNetworkRequest@Base 0.4.0
 _ZN6Attica6GetJobC2EPNS_17PlatformDependentERK15QNetworkRequest@Base 0.4.0
 _ZN6Attica6GetJobD0Ev@Base 0.4.0
 _ZN6Attica6GetJobD1Ev@Base 0.4.0
 _ZN6Attica6GetJobD2Ev@Base 0.4.0
 _ZN6Attica6Person10setCountryERK7QString@Base 0.4.0
 _ZN6Attica6Person11setBirthdayERK5QDate@Base 0.4.0
 _ZN6Attica6Person11setHomepageERK7QString@Base 0.4.0
 _ZN6Attica6Person11setLastNameERK7QString@Base 0.4.0
 (subst)_ZN6Attica6Person11setLatitudeE{qreal}@Base 0.4.0
 _ZN6Attica6Person12setAvatarUrlERK4QUrl@Base 0.4.0
 _ZN6Attica6Person12setFirstNameERK7QString@Base 0.4.0
 (subst)_ZN6Attica6Person12setLongitudeE{qreal}@Base 0.4.0
 _ZN6Attica6Person20addExtendedAttributeERK7QStringS3_@Base 0.4.0
 _ZN6Attica6Person5setIdERK7QString@Base 0.4.0
 _ZN6Attica6Person6Parser8parseXmlER16QXmlStreamReader@Base 0.4.0
 _ZN6Attica6Person6ParserD0Ev@Base 0.4.0
 _ZN6Attica6Person6ParserD1Ev@Base 0.4.0
 _ZN6Attica6Person6ParserD2Ev@Base 0.4.0
 _ZN6Attica6Person7setCityERK7QString@Base 0.4.0
 _ZN6Attica6PersonC1ERKS0_@Base 0.4.0
 _ZN6Attica6PersonC1Ev@Base 0.4.0
 _ZN6Attica6PersonC2ERKS0_@Base 0.4.0
 _ZN6Attica6PersonC2Ev@Base 0.4.0
 _ZN6Attica6PersonD1Ev@Base 0.4.0
 _ZN6Attica6PersonD2Ev@Base 0.4.0
 _ZN6Attica6PersonaSERKS0_@Base 0.4.0
 _ZN6Attica6PutJob11qt_metacallEN11QMetaObject4CallEiPPv@Base 0.4.0
 _ZN6Attica6PutJob11qt_metacastEPKc@Base 0.4.0
 _ZN6Attica6PutJob14executeRequestEv@Base 0.4.0
 _ZN6Attica6PutJob16staticMetaObjectE@Base 0.4.0
 _ZN6Attica6PutJob5parseERK7QString@Base 0.4.0
 _ZN6Attica6PutJobC1EPNS_17PlatformDependentERK15QNetworkRequestP9QIODevice@Base 0.4.0
 _ZN6Attica6PutJobC1EPNS_17PlatformDependentERK15QNetworkRequestRK10QByteArray@Base 0.4.0
 _ZN6Attica6PutJobC1EPNS_17PlatformDependentERK15QNetworkRequestRK4QMapI7QStringS7_E@Base 0.4.0
 _ZN6Attica6PutJobC2EPNS_17PlatformDependentERK15QNetworkRequestP9QIODevice@Base 0.4.0
 _ZN6Attica6PutJobC2EPNS_17PlatformDependentERK15QNetworkRequestRK10QByteArray@Base 0.4.0
 _ZN6Attica6PutJobC2EPNS_17PlatformDependentERK15QNetworkRequestRK4QMapI7QStringS7_E@Base 0.4.0
 _ZN6Attica6PutJobD0Ev@Base 0.4.0
 _ZN6Attica6PutJobD1Ev@Base 0.4.0
 _ZN6Attica6PutJobD2Ev@Base 0.4.0
 _ZN6Attica7BaseJob11qt_metacallEN11QMetaObject4CallEiPPv@Base 0.4.0
 _ZN6Attica7BaseJob11qt_metacastEPKc@Base 0.4.0
 _ZN6Attica7BaseJob12dataFinishedEv@Base 0.4.0
 _ZN6Attica7BaseJob16staticMetaObjectE@Base 0.4.0
 _ZN6Attica7BaseJob5abortEv@Base 0.4.0
 _ZN6Attica7BaseJob5startEv@Base 0.4.0
 _ZN6Attica7BaseJob6doWorkEv@Base 0.4.0
 _ZN6Attica7BaseJob8finishedEPS0_@Base 0.4.0
 _ZN6Attica7BaseJob9internalsEv@Base 0.4.0
 _ZN6Attica7BaseJobC1EPNS_17PlatformDependentE@Base 0.4.0
 _ZN6Attica7BaseJobC2EPNS_17PlatformDependentE@Base 0.4.0
 _ZN6Attica7BaseJobD0Ev@Base 0.4.0
 _ZN6Attica7BaseJobD1Ev@Base 0.4.0
 _ZN6Attica7BaseJobD2Ev@Base 0.4.0
 _ZN6Attica7Comment10setSubjectERK7QString@Base 0.4.0
 _ZN6Attica7Comment11setChildrenE5QListIS0_E@Base 0.4.0
 _ZN6Attica7Comment13setChildCountEi@Base 0.4.0
 _ZN6Attica7Comment19commentTypeToStringENS0_4TypeE@Base 0.4.0
 _ZN6Attica7Comment5setIdERK7QString@Base 0.4.0
 _ZN6Attica7Comment6Parser16parseXmlChildrenER16QXmlStreamReader@Base 0.4.0
 _ZN6Attica7Comment6Parser8parseXmlER16QXmlStreamReader@Base 0.4.0
 _ZN6Attica7Comment6ParserD0Ev@Base 0.4.0
 _ZN6Attica7Comment6ParserD1Ev@Base 0.4.0
 _ZN6Attica7Comment6ParserD2Ev@Base 0.4.0
 _ZN6Attica7Comment7setDateERK9QDateTime@Base 0.4.0
 _ZN6Attica7Comment7setTextERK7QString@Base 0.4.0
 _ZN6Attica7Comment7setUserERK7QString@Base 0.4.0
 _ZN6Attica7Comment8setScoreEi@Base 0.4.0
 _ZN6Attica7CommentC1ERKS0_@Base 0.4.0
 _ZN6Attica7CommentC1Ev@Base 0.4.0
 _ZN6Attica7CommentC2ERKS0_@Base 0.4.0
 _ZN6Attica7CommentC2Ev@Base 0.4.0
 _ZN6Attica7CommentD1Ev@Base 0.4.0
 _ZN6Attica7CommentD2Ev@Base 0.4.0
 _ZN6Attica7CommentaSERKS0_@Base 0.4.0
 _ZN6Attica7Content10setCreatedERK9QDateTime@Base 0.4.0
 _ZN6Attica7Content10setUpdatedERK9QDateTime@Base 0.4.0
 _ZN6Attica7Content12addAttributeERK7QStringS3_@Base 0.4.0
 _ZN6Attica7Content12setDownloadsEi@Base 0.4.0
 _ZN6Attica7Content15homePageEntriesEv@Base 0.4.0
 _ZN6Attica7Content19setNumberOfCommentsEi@Base 0.4.0
 _ZN6Attica7Content5iconsEv@Base 0.4.0
 _ZN6Attica7Content5setIdERK7QString@Base 0.4.0
 _ZN6Attica7Content6Parser8parseXmlER16QXmlStreamReader@Base 0.4.0
 _ZN6Attica7Content6ParserD0Ev@Base 0.4.0
 _ZN6Attica7Content6ParserD1Ev@Base 0.4.0
 _ZN6Attica7Content6ParserD2Ev@Base 0.4.0
 _ZN6Attica7Content6videosEv@Base 0.4.0
 _ZN6Attica7Content7setNameERK7QString@Base 0.4.0
 _ZN6Attica7Content8setIconsE5QListINS_4IconEE@Base 0.4.0
 _ZN6Attica7Content9setRatingEi@Base 0.4.0
 _ZN6Attica7Content9setVideosE5QListI4QUrlE@Base 0.4.0
 _ZN6Attica7ContentC1ERKS0_@Base 0.4.0
 _ZN6Attica7ContentC1Ev@Base 0.4.0
 _ZN6Attica7ContentC2ERKS0_@Base 0.4.0
 _ZN6Attica7ContentC2Ev@Base 0.4.0
 _ZN6Attica7ContentD1Ev@Base 0.4.0
 _ZN6Attica7ContentD2Ev@Base 0.4.0
 _ZN6Attica7ContentaSERKS0_@Base 0.4.0
 (optional=templinst)_ZN6Attica7ItemJobINS_11AchievementEE5parseERK7QString@Base 0.4.0
 (optional=templinst)_ZN6Attica7ItemJobINS_11AchievementEEC1EPNS_17PlatformDependentERK15QNetworkRequest@Base 0.4.0
 (optional=templinst)_ZN6Attica7ItemJobINS_11AchievementEEC2EPNS_17PlatformDependentERK15QNetworkRequest@Base 0.4.0
 (optional=templinst)_ZN6Attica7ItemJobINS_11AchievementEED0Ev@Base 0.4.0
 (optional=templinst)_ZN6Attica7ItemJobINS_11AchievementEED1Ev@Base 0.4.0
 (optional=templinst)_ZN6Attica7ItemJobINS_11AchievementEED2Ev@Base 0.4.0
 (optional=templinst)_ZN6Attica7ItemJobINS_11PrivateDataEE5parseERK7QString@Base 0.4.0
 (optional=templinst)_ZN6Attica7ItemJobINS_11PrivateDataEEC1EPNS_17PlatformDependentERK15QNetworkRequest@Base 0.4.0
 (optional=templinst)_ZN6Attica7ItemJobINS_11PrivateDataEEC2EPNS_17PlatformDependentERK15QNetworkRequest@Base 0.4.0
 (optional=templinst)_ZN6Attica7ItemJobINS_11PrivateDataEED0Ev@Base 0.4.0
 (optional=templinst)_ZN6Attica7ItemJobINS_11PrivateDataEED1Ev@Base 0.4.0
 (optional=templinst)_ZN6Attica7ItemJobINS_11PrivateDataEED2Ev@Base 0.4.0
 (optional=templinst)_ZN6Attica7ItemJobINS_12BuildServiceEE5parseERK7QString@Base 0.4.0
 (optional=templinst)_ZN6Attica7ItemJobINS_12BuildServiceEEC1EPNS_17PlatformDependentERK15QNetworkRequest@Base 0.4.0
 (optional=templinst)_ZN6Attica7ItemJobINS_12BuildServiceEEC2EPNS_17PlatformDependentERK15QNetworkRequest@Base 0.4.0
 (optional=templinst)_ZN6Attica7ItemJobINS_12BuildServiceEED0Ev@Base 0.4.0
 (optional=templinst)_ZN6Attica7ItemJobINS_12BuildServiceEED1Ev@Base 0.4.0
 (optional=templinst)_ZN6Attica7ItemJobINS_12BuildServiceEED2Ev@Base 0.4.0
 (optional=templinst)_ZN6Attica7ItemJobINS_12DownloadItemEE5parseERK7QString@Base 0.4.0
 (optional=templinst)_ZN6Attica7ItemJobINS_12DownloadItemEEC1EPNS_17PlatformDependentERK15QNetworkRequest@Base 0.4.0
 (optional=templinst)_ZN6Attica7ItemJobINS_12DownloadItemEEC2EPNS_17PlatformDependentERK15QNetworkRequest@Base 0.4.0
 (optional=templinst)_ZN6Attica7ItemJobINS_12DownloadItemEED0Ev@Base 0.4.0
 (optional=templinst)_ZN6Attica7ItemJobINS_12DownloadItemEED1Ev@Base 0.4.0
 (optional=templinst)_ZN6Attica7ItemJobINS_12DownloadItemEED2Ev@Base 0.4.0
 (optional=templinst)_ZN6Attica7ItemJobINS_13RemoteAccountEE5parseERK7QString@Base 0.4.0
 (optional=templinst)_ZN6Attica7ItemJobINS_13RemoteAccountEEC1EPNS_17PlatformDependentERK15QNetworkRequest@Base 0.4.0
 (optional=templinst)_ZN6Attica7ItemJobINS_13RemoteAccountEEC2EPNS_17PlatformDependentERK15QNetworkRequest@Base 0.4.0
 (optional=templinst)_ZN6Attica7ItemJobINS_13RemoteAccountEED0Ev@Base 0.4.0
 (optional=templinst)_ZN6Attica7ItemJobINS_13RemoteAccountEED1Ev@Base 0.4.0
 (optional=templinst)_ZN6Attica7ItemJobINS_13RemoteAccountEED2Ev@Base 0.4.0
 (optional=templinst)_ZN6Attica7ItemJobINS_14AccountBalanceEE5parseERK7QString@Base 0.4.0
 (optional=templinst)_ZN6Attica7ItemJobINS_14AccountBalanceEEC1EPNS_17PlatformDependentERK15QNetworkRequest@Base 0.4.0
 (optional=templinst)_ZN6Attica7ItemJobINS_14AccountBalanceEEC2EPNS_17PlatformDependentERK15QNetworkRequest@Base 0.4.0
 (optional=templinst)_ZN6Attica7ItemJobINS_14AccountBalanceEED0Ev@Base 0.4.0
 (optional=templinst)_ZN6Attica7ItemJobINS_14AccountBalanceEED1Ev@Base 0.4.0
 (optional=templinst)_ZN6Attica7ItemJobINS_14AccountBalanceEED2Ev@Base 0.4.0
 (optional=templinst)_ZN6Attica7ItemJobINS_15BuildServiceJobEE5parseERK7QString@Base 0.4.0
 (optional=templinst)_ZN6Attica7ItemJobINS_15BuildServiceJobEEC1EPNS_17PlatformDependentERK15QNetworkRequest@Base 0.4.0
 (optional=templinst)_ZN6Attica7ItemJobINS_15BuildServiceJobEEC2EPNS_17PlatformDependentERK15QNetworkRequest@Base 0.4.0
 (optional=templinst)_ZN6Attica7ItemJobINS_15BuildServiceJobEED0Ev@Base 0.4.0
 (optional=templinst)_ZN6Attica7ItemJobINS_15BuildServiceJobEED1Ev@Base 0.4.0
 (optional=templinst)_ZN6Attica7ItemJobINS_15BuildServiceJobEED2Ev@Base 0.4.0
 (optional=templinst)_ZN6Attica7ItemJobINS_18KnowledgeBaseEntryEE5parseERK7QString@Base 0.4.0
 (optional=templinst)_ZN6Attica7ItemJobINS_18KnowledgeBaseEntryEEC1EPNS_17PlatformDependentERK15QNetworkRequest@Base 0.4.0
 (optional=templinst)_ZN6Attica7ItemJobINS_18KnowledgeBaseEntryEEC2EPNS_17PlatformDependentERK15QNetworkRequest@Base 0.4.0
 (optional=templinst)_ZN6Attica7ItemJobINS_18KnowledgeBaseEntryEED0Ev@Base 0.4.0
 (optional=templinst)_ZN6Attica7ItemJobINS_18KnowledgeBaseEntryEED1Ev@Base 0.4.0
 (optional=templinst)_ZN6Attica7ItemJobINS_18KnowledgeBaseEntryEED2Ev@Base 0.4.0
 (optional=templinst)_ZN6Attica7ItemJobINS_21BuildServiceJobOutputEE5parseERK7QString@Base 0.4.0
 (optional=templinst)_ZN6Attica7ItemJobINS_21BuildServiceJobOutputEEC1EPNS_17PlatformDependentERK15QNetworkRequest@Base 0.4.0
 (optional=templinst)_ZN6Attica7ItemJobINS_21BuildServiceJobOutputEEC2EPNS_17PlatformDependentERK15QNetworkRequest@Base 0.4.0
 (optional=templinst)_ZN6Attica7ItemJobINS_21BuildServiceJobOutputEED0Ev@Base 0.4.0
 (optional=templinst)_ZN6Attica7ItemJobINS_21BuildServiceJobOutputEED1Ev@Base 0.4.0
 (optional=templinst)_ZN6Attica7ItemJobINS_21BuildServiceJobOutputEED2Ev@Base 0.4.0
 (optional=templinst)_ZN6Attica7ItemJobINS_5EventEE5parseERK7QString@Base 0.4.0
 (optional=templinst)_ZN6Attica7ItemJobINS_5EventEEC1EPNS_17PlatformDependentERK15QNetworkRequest@Base 0.4.0
 (optional=templinst)_ZN6Attica7ItemJobINS_5EventEEC2EPNS_17PlatformDependentERK15QNetworkRequest@Base 0.4.0
 (optional=templinst)_ZN6Attica7ItemJobINS_5EventEED0Ev@Base 0.4.0
 (optional=templinst)_ZN6Attica7ItemJobINS_5EventEED1Ev@Base 0.4.0
 (optional=templinst)_ZN6Attica7ItemJobINS_5EventEED2Ev@Base 0.4.0
 (optional=templinst)_ZN6Attica7ItemJobINS_5ForumEE5parseERK7QString@Base 0.4.0
 (optional=templinst)_ZN6Attica7ItemJobINS_5ForumEEC1EPNS_17PlatformDependentERK15QNetworkRequest@Base 0.4.0
 (optional=templinst)_ZN6Attica7ItemJobINS_5ForumEEC2EPNS_17PlatformDependentERK15QNetworkRequest@Base 0.4.0
 (optional=templinst)_ZN6Attica7ItemJobINS_5ForumEED0Ev@Base 0.4.0
 (optional=templinst)_ZN6Attica7ItemJobINS_5ForumEED1Ev@Base 0.4.0
 (optional=templinst)_ZN6Attica7ItemJobINS_5ForumEED2Ev@Base 0.4.0
 (optional=templinst)_ZN6Attica7ItemJobINS_6PersonEE5parseERK7QString@Base 0.4.0
 (optional=templinst)_ZN6Attica7ItemJobINS_6PersonEEC1EPNS_17PlatformDependentERK15QNetworkRequest@Base 0.4.0
 (optional=templinst)_ZN6Attica7ItemJobINS_6PersonEEC2EPNS_17PlatformDependentERK15QNetworkRequest@Base 0.4.0
 (optional=templinst)_ZN6Attica7ItemJobINS_6PersonEED0Ev@Base 0.4.0
 (optional=templinst)_ZN6Attica7ItemJobINS_6PersonEED1Ev@Base 0.4.0
 (optional=templinst)_ZN6Attica7ItemJobINS_6PersonEED2Ev@Base 0.4.0
 (optional=templinst)_ZN6Attica7ItemJobINS_7ContentEE5parseERK7QString@Base 0.4.0
 (optional=templinst)_ZN6Attica7ItemJobINS_7ContentEEC1EPNS_17PlatformDependentERK15QNetworkRequest@Base 0.4.0
 (optional=templinst)_ZN6Attica7ItemJobINS_7ContentEEC2EPNS_17PlatformDependentERK15QNetworkRequest@Base 0.4.0
 (optional=templinst)_ZN6Attica7ItemJobINS_7ContentEED0Ev@Base 0.4.0
 (optional=templinst)_ZN6Attica7ItemJobINS_7ContentEED1Ev@Base 0.4.0
 (optional=templinst)_ZN6Attica7ItemJobINS_7ContentEED2Ev@Base 0.4.0
 (optional=templinst)_ZN6Attica7ItemJobINS_7MessageEE5parseERK7QString@Base 0.4.0
 (optional=templinst)_ZN6Attica7ItemJobINS_7MessageEEC1EPNS_17PlatformDependentERK15QNetworkRequest@Base 0.4.0
 (optional=templinst)_ZN6Attica7ItemJobINS_7MessageEEC2EPNS_17PlatformDependentERK15QNetworkRequest@Base 0.4.0
 (optional=templinst)_ZN6Attica7ItemJobINS_7MessageEED0Ev@Base 0.4.0
 (optional=templinst)_ZN6Attica7ItemJobINS_7MessageEED1Ev@Base 0.4.0
 (optional=templinst)_ZN6Attica7ItemJobINS_7MessageEED2Ev@Base 0.4.0
 (optional=templinst)_ZN6Attica7ItemJobINS_7ProjectEE5parseERK7QString@Base 0.4.0
 (optional=templinst)_ZN6Attica7ItemJobINS_7ProjectEEC1EPNS_17PlatformDependentERK15QNetworkRequest@Base 0.4.0
 (optional=templinst)_ZN6Attica7ItemJobINS_7ProjectEEC2EPNS_17PlatformDependentERK15QNetworkRequest@Base 0.4.0
 (optional=templinst)_ZN6Attica7ItemJobINS_7ProjectEED0Ev@Base 0.4.0
 (optional=templinst)_ZN6Attica7ItemJobINS_7ProjectEED1Ev@Base 0.4.0
 (optional=templinst)_ZN6Attica7ItemJobINS_7ProjectEED2Ev@Base 0.4.0
 (optional=templinst)_ZN6Attica7ItemJobINS_9PublisherEE5parseERK7QString@Base 0.4.0
 (optional=templinst)_ZN6Attica7ItemJobINS_9PublisherEEC1EPNS_17PlatformDependentERK15QNetworkRequest@Base 0.4.0
 (optional=templinst)_ZN6Attica7ItemJobINS_9PublisherEEC2EPNS_17PlatformDependentERK15QNetworkRequest@Base 0.4.0
 (optional=templinst)_ZN6Attica7ItemJobINS_9PublisherEED0Ev@Base 0.4.0
 (optional=templinst)_ZN6Attica7ItemJobINS_9PublisherEED1Ev@Base 0.4.0
 (optional=templinst)_ZN6Attica7ItemJobINS_9PublisherEED2Ev@Base 0.4.0
 _ZN6Attica7License5setIdEj@Base 0.4.0
 _ZN6Attica7License6Parser8parseXmlER16QXmlStreamReader@Base 0.4.0
 _ZN6Attica7License6ParserD0Ev@Base 0.4.0
 _ZN6Attica7License6ParserD1Ev@Base 0.4.0
 _ZN6Attica7License6ParserD2Ev@Base 0.4.0
 _ZN6Attica7License6setUrlERK4QUrl@Base 0.4.0
 _ZN6Attica7License7setNameERK7QString@Base 0.4.0
 _ZN6Attica7LicenseC1ERKS0_@Base 0.4.0
 _ZN6Attica7LicenseC1Ev@Base 0.4.0
 _ZN6Attica7LicenseC2ERKS0_@Base 0.4.0
 _ZN6Attica7LicenseC2Ev@Base 0.4.0
 _ZN6Attica7LicenseD1Ev@Base 0.4.0
 _ZN6Attica7LicenseD2Ev@Base 0.4.0
 _ZN6Attica7LicenseaSERKS0_@Base 0.4.0
 (optional=templinst)_ZN6Attica7ListJobINS_11AchievementEE5parseERK7QString@Base 0.4.0
 (optional=templinst)_ZN6Attica7ListJobINS_11AchievementEEC1EPNS_17PlatformDependentERK15QNetworkRequest@Base 0.4.0
 (optional=templinst)_ZN6Attica7ListJobINS_11AchievementEEC2EPNS_17PlatformDependentERK15QNetworkRequest@Base 0.4.0
 (optional=templinst)_ZN6Attica7ListJobINS_11AchievementEED0Ev@Base 0.4.0
 (optional=templinst)_ZN6Attica7ListJobINS_11AchievementEED1Ev@Base 0.4.0
 (optional=templinst)_ZN6Attica7ListJobINS_11AchievementEED2Ev@Base 0.4.0
 (optional=templinst)_ZN6Attica7ListJobINS_12BuildServiceEE5parseERK7QString@Base 0.4.0
 (optional=templinst)_ZN6Attica7ListJobINS_12BuildServiceEEC1EPNS_17PlatformDependentERK15QNetworkRequest@Base 0.4.0
 (optional=templinst)_ZN6Attica7ListJobINS_12BuildServiceEEC2EPNS_17PlatformDependentERK15QNetworkRequest@Base 0.4.0
 (optional=templinst)_ZN6Attica7ListJobINS_12BuildServiceEED0Ev@Base 0.4.0
 (optional=templinst)_ZN6Attica7ListJobINS_12BuildServiceEED1Ev@Base 0.4.0
 (optional=templinst)_ZN6Attica7ListJobINS_12BuildServiceEED2Ev@Base 0.4.0
 (optional=templinst)_ZN6Attica7ListJobINS_12DistributionEE5parseERK7QString@Base 0.4.0
 (optional=templinst)_ZN6Attica7ListJobINS_12DistributionEEC1EPNS_17PlatformDependentERK15QNetworkRequest@Base 0.4.0
 (optional=templinst)_ZN6Attica7ListJobINS_12DistributionEEC2EPNS_17PlatformDependentERK15QNetworkRequest@Base 0.4.0
 (optional=templinst)_ZN6Attica7ListJobINS_12DistributionEED0Ev@Base 0.4.0
 (optional=templinst)_ZN6Attica7ListJobINS_12DistributionEED1Ev@Base 0.4.0
 (optional=templinst)_ZN6Attica7ListJobINS_12DistributionEED2Ev@Base 0.4.0
 (optional=templinst)_ZN6Attica7ListJobINS_12DownloadItemEE5parseERK7QString@Base 0.4.0
 (optional=templinst)_ZN6Attica7ListJobINS_12DownloadItemEEC1EPNS_17PlatformDependentERK15QNetworkRequest@Base 0.4.0
 (optional=templinst)_ZN6Attica7ListJobINS_12DownloadItemEEC2EPNS_17PlatformDependentERK15QNetworkRequest@Base 0.4.0
 (optional=templinst)_ZN6Attica7ListJobINS_12DownloadItemEED0Ev@Base 0.4.0
 (optional=templinst)_ZN6Attica7ListJobINS_12DownloadItemEED1Ev@Base 0.4.0
 (optional=templinst)_ZN6Attica7ListJobINS_12DownloadItemEED2Ev@Base 0.4.0
 (optional=templinst)_ZN6Attica7ListJobINS_12HomePageTypeEE5parseERK7QString@Base 0.4.0
 (optional=templinst)_ZN6Attica7ListJobINS_12HomePageTypeEEC1EPNS_17PlatformDependentERK15QNetworkRequest@Base 0.4.0
 (optional=templinst)_ZN6Attica7ListJobINS_12HomePageTypeEEC2EPNS_17PlatformDependentERK15QNetworkRequest@Base 0.4.0
 (optional=templinst)_ZN6Attica7ListJobINS_12HomePageTypeEED0Ev@Base 0.4.0
 (optional=templinst)_ZN6Attica7ListJobINS_12HomePageTypeEED1Ev@Base 0.4.0
 (optional=templinst)_ZN6Attica7ListJobINS_12HomePageTypeEED2Ev@Base 0.4.0
 (optional=templinst)_ZN6Attica7ListJobINS_13RemoteAccountEE5parseERK7QString@Base 0.4.0
 (optional=templinst)_ZN6Attica7ListJobINS_13RemoteAccountEEC1EPNS_17PlatformDependentERK15QNetworkRequest@Base 0.4.0
 (optional=templinst)_ZN6Attica7ListJobINS_13RemoteAccountEEC2EPNS_17PlatformDependentERK15QNetworkRequest@Base 0.4.0
 (optional=templinst)_ZN6Attica7ListJobINS_13RemoteAccountEED0Ev@Base 0.4.0
 (optional=templinst)_ZN6Attica7ListJobINS_13RemoteAccountEED1Ev@Base 0.4.0
 (optional=templinst)_ZN6Attica7ListJobINS_13RemoteAccountEED2Ev@Base 0.4.0
 (optional=templinst)_ZN6Attica7ListJobINS_14PublisherFieldEE5parseERK7QString@Base 0.4.0
 (optional=templinst)_ZN6Attica7ListJobINS_14PublisherFieldEEC1EPNS_17PlatformDependentERK15QNetworkRequest@Base 0.4.0
 (optional=templinst)_ZN6Attica7ListJobINS_14PublisherFieldEEC2EPNS_17PlatformDependentERK15QNetworkRequest@Base 0.4.0
 (optional=templinst)_ZN6Attica7ListJobINS_14PublisherFieldEED0Ev@Base 0.4.0
 (optional=templinst)_ZN6Attica7ListJobINS_14PublisherFieldEED1Ev@Base 0.4.0
 (optional=templinst)_ZN6Attica7ListJobINS_14PublisherFieldEED2Ev@Base 0.4.0
 (optional=templinst)_ZN6Attica7ListJobINS_15BuildServiceJobEE5parseERK7QString@Base 0.4.0
 (optional=templinst)_ZN6Attica7ListJobINS_15BuildServiceJobEEC1EPNS_17PlatformDependentERK15QNetworkRequest@Base 0.4.0
 (optional=templinst)_ZN6Attica7ListJobINS_15BuildServiceJobEEC2EPNS_17PlatformDependentERK15QNetworkRequest@Base 0.4.0
 (optional=templinst)_ZN6Attica7ListJobINS_15BuildServiceJobEED0Ev@Base 0.4.0
 (optional=templinst)_ZN6Attica7ListJobINS_15BuildServiceJobEED1Ev@Base 0.4.0
 (optional=templinst)_ZN6Attica7ListJobINS_15BuildServiceJobEED2Ev@Base 0.4.0
 (optional=templinst)_ZN6Attica7ListJobINS_18KnowledgeBaseEntryEE5parseERK7QString@Base 0.4.0
 (optional=templinst)_ZN6Attica7ListJobINS_18KnowledgeBaseEntryEEC1EPNS_17PlatformDependentERK15QNetworkRequest@Base 0.4.0
 (optional=templinst)_ZN6Attica7ListJobINS_18KnowledgeBaseEntryEEC2EPNS_17PlatformDependentERK15QNetworkRequest@Base 0.4.0
 (optional=templinst)_ZN6Attica7ListJobINS_18KnowledgeBaseEntryEED0Ev@Base 0.4.0
 (optional=templinst)_ZN6Attica7ListJobINS_18KnowledgeBaseEntryEED1Ev@Base 0.4.0
 (optional=templinst)_ZN6Attica7ListJobINS_18KnowledgeBaseEntryEED2Ev@Base 0.4.0
 (optional=templinst)_ZN6Attica7ListJobINS_5EventEE5parseERK7QString@Base 0.4.0
 (optional=templinst)_ZN6Attica7ListJobINS_5EventEEC1EPNS_17PlatformDependentERK15QNetworkRequest@Base 0.4.0
 (optional=templinst)_ZN6Attica7ListJobINS_5EventEEC2EPNS_17PlatformDependentERK15QNetworkRequest@Base 0.4.0
 (optional=templinst)_ZN6Attica7ListJobINS_5EventEED0Ev@Base 0.4.0
 (optional=templinst)_ZN6Attica7ListJobINS_5EventEED1Ev@Base 0.4.0
 (optional=templinst)_ZN6Attica7ListJobINS_5EventEED2Ev@Base 0.4.0
 (optional=templinst)_ZN6Attica7ListJobINS_5ForumEE5parseERK7QString@Base 0.4.0
 (optional=templinst)_ZN6Attica7ListJobINS_5ForumEEC1EPNS_17PlatformDependentERK15QNetworkRequest@Base 0.4.0
 (optional=templinst)_ZN6Attica7ListJobINS_5ForumEEC2EPNS_17PlatformDependentERK15QNetworkRequest@Base 0.4.0
 (optional=templinst)_ZN6Attica7ListJobINS_5ForumEED0Ev@Base 0.4.0
 (optional=templinst)_ZN6Attica7ListJobINS_5ForumEED1Ev@Base 0.4.0
 (optional=templinst)_ZN6Attica7ListJobINS_5ForumEED2Ev@Base 0.4.0
 (optional=templinst)_ZN6Attica7ListJobINS_5TopicEE5parseERK7QString@Base 0.4.0
 (optional=templinst)_ZN6Attica7ListJobINS_5TopicEEC1EPNS_17PlatformDependentERK15QNetworkRequest@Base 0.4.0
 (optional=templinst)_ZN6Attica7ListJobINS_5TopicEEC2EPNS_17PlatformDependentERK15QNetworkRequest@Base 0.4.0
 (optional=templinst)_ZN6Attica7ListJobINS_5TopicEED0Ev@Base 0.4.0
 (optional=templinst)_ZN6Attica7ListJobINS_5TopicEED1Ev@Base 0.4.0
 (optional=templinst)_ZN6Attica7ListJobINS_5TopicEED2Ev@Base 0.4.0
 (optional=templinst)_ZN6Attica7ListJobINS_6FolderEE5parseERK7QString@Base 0.4.0
 (optional=templinst)_ZN6Attica7ListJobINS_6FolderEEC1EPNS_17PlatformDependentERK15QNetworkRequest@Base 0.4.0
 (optional=templinst)_ZN6Attica7ListJobINS_6FolderEEC2EPNS_17PlatformDependentERK15QNetworkRequest@Base 0.4.0
 (optional=templinst)_ZN6Attica7ListJobINS_6FolderEED0Ev@Base 0.4.0
 (optional=templinst)_ZN6Attica7ListJobINS_6FolderEED1Ev@Base 0.4.0
 (optional=templinst)_ZN6Attica7ListJobINS_6FolderEED2Ev@Base 0.4.0
 (optional=templinst)_ZN6Attica7ListJobINS_6PersonEE5parseERK7QString@Base 0.4.0
 (optional=templinst)_ZN6Attica7ListJobINS_6PersonEEC1EPNS_17PlatformDependentERK15QNetworkRequest@Base 0.4.0
 (optional=templinst)_ZN6Attica7ListJobINS_6PersonEEC2EPNS_17PlatformDependentERK15QNetworkRequest@Base 0.4.0
 (optional=templinst)_ZN6Attica7ListJobINS_6PersonEED0Ev@Base 0.4.0
 (optional=templinst)_ZN6Attica7ListJobINS_6PersonEED1Ev@Base 0.4.0
 (optional=templinst)_ZN6Attica7ListJobINS_6PersonEED2Ev@Base 0.4.0
 (optional=templinst)_ZN6Attica7ListJobINS_7CommentEE5parseERK7QString@Base 0.4.0
 (optional=templinst)_ZN6Attica7ListJobINS_7CommentEEC1EPNS_17PlatformDependentERK15QNetworkRequest@Base 0.4.0
 (optional=templinst)_ZN6Attica7ListJobINS_7CommentEEC2EPNS_17PlatformDependentERK15QNetworkRequest@Base 0.4.0
 (optional=templinst)_ZN6Attica7ListJobINS_7CommentEED0Ev@Base 0.4.0
 (optional=templinst)_ZN6Attica7ListJobINS_7CommentEED1Ev@Base 0.4.0
 (optional=templinst)_ZN6Attica7ListJobINS_7CommentEED2Ev@Base 0.4.0
 (optional=templinst)_ZN6Attica7ListJobINS_7ContentEE5parseERK7QString@Base 0.4.0
 (optional=templinst)_ZN6Attica7ListJobINS_7ContentEEC1EPNS_17PlatformDependentERK15QNetworkRequest@Base 0.4.0
 (optional=templinst)_ZN6Attica7ListJobINS_7ContentEEC2EPNS_17PlatformDependentERK15QNetworkRequest@Base 0.4.0
 (optional=templinst)_ZN6Attica7ListJobINS_7ContentEED0Ev@Base 0.4.0
 (optional=templinst)_ZN6Attica7ListJobINS_7ContentEED1Ev@Base 0.4.0
 (optional=templinst)_ZN6Attica7ListJobINS_7ContentEED2Ev@Base 0.4.0
 (optional=templinst)_ZN6Attica7ListJobINS_7LicenseEE5parseERK7QString@Base 0.4.0
 (optional=templinst)_ZN6Attica7ListJobINS_7LicenseEEC1EPNS_17PlatformDependentERK15QNetworkRequest@Base 0.4.0
 (optional=templinst)_ZN6Attica7ListJobINS_7LicenseEEC2EPNS_17PlatformDependentERK15QNetworkRequest@Base 0.4.0
 (optional=templinst)_ZN6Attica7ListJobINS_7LicenseEED0Ev@Base 0.4.0
 (optional=templinst)_ZN6Attica7ListJobINS_7LicenseEED1Ev@Base 0.4.0
 (optional=templinst)_ZN6Attica7ListJobINS_7LicenseEED2Ev@Base 0.4.0
 (optional=templinst)_ZN6Attica7ListJobINS_7MessageEE5parseERK7QString@Base 0.4.0
 (optional=templinst)_ZN6Attica7ListJobINS_7MessageEEC1EPNS_17PlatformDependentERK15QNetworkRequest@Base 0.4.0
 (optional=templinst)_ZN6Attica7ListJobINS_7MessageEEC2EPNS_17PlatformDependentERK15QNetworkRequest@Base 0.4.0
 (optional=templinst)_ZN6Attica7ListJobINS_7MessageEED0Ev@Base 0.4.0
 (optional=templinst)_ZN6Attica7ListJobINS_7MessageEED1Ev@Base 0.4.0
 (optional=templinst)_ZN6Attica7ListJobINS_7MessageEED2Ev@Base 0.4.0
 (optional=templinst)_ZN6Attica7ListJobINS_7ProjectEE5parseERK7QString@Base 0.4.0
 (optional=templinst)_ZN6Attica7ListJobINS_7ProjectEEC1EPNS_17PlatformDependentERK15QNetworkRequest@Base 0.4.0
 (optional=templinst)_ZN6Attica7ListJobINS_7ProjectEEC2EPNS_17PlatformDependentERK15QNetworkRequest@Base 0.4.0
 (optional=templinst)_ZN6Attica7ListJobINS_7ProjectEED0Ev@Base 0.4.0
 (optional=templinst)_ZN6Attica7ListJobINS_7ProjectEED1Ev@Base 0.4.0
 (optional=templinst)_ZN6Attica7ListJobINS_7ProjectEED2Ev@Base 0.4.0
 (optional=templinst)_ZN6Attica7ListJobINS_8ActivityEE5parseERK7QString@Base 0.4.0
 (optional=templinst)_ZN6Attica7ListJobINS_8ActivityEEC1EPNS_17PlatformDependentERK15QNetworkRequest@Base 0.4.0
 (optional=templinst)_ZN6Attica7ListJobINS_8ActivityEEC2EPNS_17PlatformDependentERK15QNetworkRequest@Base 0.4.0
 (optional=templinst)_ZN6Attica7ListJobINS_8ActivityEED0Ev@Base 0.4.0
 (optional=templinst)_ZN6Attica7ListJobINS_8ActivityEED1Ev@Base 0.4.0
 (optional=templinst)_ZN6Attica7ListJobINS_8ActivityEED2Ev@Base 0.4.0
 (optional=templinst)_ZN6Attica7ListJobINS_8CategoryEE5parseERK7QString@Base 0.4.0
 (optional=templinst)_ZN6Attica7ListJobINS_8CategoryEEC1EPNS_17PlatformDependentERK15QNetworkRequest@Base 0.4.0
 (optional=templinst)_ZN6Attica7ListJobINS_8CategoryEEC2EPNS_17PlatformDependentERK15QNetworkRequest@Base 0.4.0
 (optional=templinst)_ZN6Attica7ListJobINS_8CategoryEED0Ev@Base 0.4.0
 (optional=templinst)_ZN6Attica7ListJobINS_8CategoryEED1Ev@Base 0.4.0
 (optional=templinst)_ZN6Attica7ListJobINS_8CategoryEED2Ev@Base 0.4.0
 (optional=templinst)_ZN6Attica7ListJobINS_9PublisherEE5parseERK7QString@Base 0.4.0
 (optional=templinst)_ZN6Attica7ListJobINS_9PublisherEEC1EPNS_17PlatformDependentERK15QNetworkRequest@Base 0.4.0
 (optional=templinst)_ZN6Attica7ListJobINS_9PublisherEEC2EPNS_17PlatformDependentERK15QNetworkRequest@Base 0.4.0
 (optional=templinst)_ZN6Attica7ListJobINS_9PublisherEED0Ev@Base 0.4.0
 (optional=templinst)_ZN6Attica7ListJobINS_9PublisherEED1Ev@Base 0.4.0
 (optional=templinst)_ZN6Attica7ListJobINS_9PublisherEED2Ev@Base 0.4.0
 _ZN6Attica7Message10setSubjectERK7QString@Base 0.4.0
 _ZN6Attica7Message5setIdERK7QString@Base 0.4.0
 _ZN6Attica7Message5setToERK7QString@Base 0.4.0
 _ZN6Attica7Message6Parser8parseXmlER16QXmlStreamReader@Base 0.4.0
 _ZN6Attica7Message6ParserD0Ev@Base 0.4.0
 _ZN6Attica7Message6ParserD1Ev@Base 0.4.0
 _ZN6Attica7Message6ParserD2Ev@Base 0.4.0
 _ZN6Attica7Message7setBodyERK7QString@Base 0.4.0
 _ZN6Attica7Message7setFromERK7QString@Base 0.4.0
 _ZN6Attica7Message7setSentERK9QDateTime@Base 0.4.0
 _ZN6Attica7Message9setStatusENS0_6StatusE@Base 0.4.0
 _ZN6Attica7MessageC1ERKS0_@Base 0.4.0
 _ZN6Attica7MessageC1Ev@Base 0.4.0
 _ZN6Attica7MessageC2ERKS0_@Base 0.4.0
 _ZN6Attica7MessageC2Ev@Base 0.4.0
 _ZN6Attica7MessageD1Ev@Base 0.4.0
 _ZN6Attica7MessageD2Ev@Base 0.4.0
 _ZN6Attica7MessageaSERKS0_@Base 0.4.0
 _ZN6Attica7PostJob11qt_metacallEN11QMetaObject4CallEiPPv@Base 0.4.0
 _ZN6Attica7PostJob11qt_metacastEPKc@Base 0.4.0
 _ZN6Attica7PostJob14executeRequestEv@Base 0.4.0
 _ZN6Attica7PostJob16staticMetaObjectE@Base 0.4.0
 _ZN6Attica7PostJob5parseERK7QString@Base 0.4.0
 _ZN6Attica7PostJobC1EPNS_17PlatformDependentERK15QNetworkRequestP9QIODevice@Base 0.4.0
 _ZN6Attica7PostJobC1EPNS_17PlatformDependentERK15QNetworkRequestRK10QByteArray@Base 0.4.0
 _ZN6Attica7PostJobC1EPNS_17PlatformDependentERK15QNetworkRequestRK4QMapI7QStringS7_E@Base 0.4.0
 _ZN6Attica7PostJobC2EPNS_17PlatformDependentERK15QNetworkRequestP9QIODevice@Base 0.4.0
 _ZN6Attica7PostJobC2EPNS_17PlatformDependentERK15QNetworkRequestRK10QByteArray@Base 0.4.0
 _ZN6Attica7PostJobC2EPNS_17PlatformDependentERK15QNetworkRequestRK4QMapI7QStringS7_E@Base 0.4.0
 _ZN6Attica7PostJobD0Ev@Base 0.4.0
 _ZN6Attica7PostJobD1Ev@Base 0.4.0
 _ZN6Attica7PostJobD2Ev@Base 0.4.0
 _ZN6Attica7Project10setLicenseERK7QString@Base 0.4.0
 _ZN6Attica7Project10setSummaryERK7QString@Base 0.4.0
 _ZN6Attica7Project10setVersionERK7QString@Base 0.4.0
 _ZN6Attica7Project11setSpecFileERK7QString@Base 0.4.0
 _ZN6Attica7Project13setDevelopersERK11QStringList@Base 0.4.0
 _ZN6Attica7Project14setDescriptionERK7QString@Base 0.4.0
 _ZN6Attica7Project15setRequirementsERK7QString@Base 0.4.0
 _ZN6Attica7Project20addExtendedAttributeERK7QStringS3_@Base 0.4.0
 _ZN6Attica7Project5setIdERK7QString@Base 0.4.0
 _ZN6Attica7Project6Parser8parseXmlER16QXmlStreamReader@Base 0.4.0
 _ZN6Attica7Project6ParserD0Ev@Base 0.4.0
 _ZN6Attica7Project6ParserD1Ev@Base 0.4.0
 _ZN6Attica7Project6ParserD2Ev@Base 0.4.0
 _ZN6Attica7Project6setUrlERK7QString@Base 0.4.0
 _ZN6Attica7Project7setNameERK7QString@Base 0.4.0
 _ZN6Attica7ProjectC1ERKS0_@Base 0.4.0
 _ZN6Attica7ProjectC1Ev@Base 0.4.0
 _ZN6Attica7ProjectC2ERKS0_@Base 0.4.0
 _ZN6Attica7ProjectC2Ev@Base 0.4.0
 _ZN6Attica7ProjectD1Ev@Base 0.4.0
 _ZN6Attica7ProjectD2Ev@Base 0.4.0
 _ZN6Attica7ProjectaSERKS0_@Base 0.4.0
 _ZN6Attica8Activity10setMessageERK7QString@Base 0.4.0
 _ZN6Attica8Activity12setTimestampERK9QDateTime@Base 0.4.0
 _ZN6Attica8Activity19setAssociatedPersonERKNS_6PersonE@Base 0.4.0
 _ZN6Attica8Activity5setIdERK7QString@Base 0.4.0
 _ZN6Attica8Activity6Parser8parseXmlER16QXmlStreamReader@Base 0.4.0
 _ZN6Attica8Activity6ParserD0Ev@Base 0.4.0
 _ZN6Attica8Activity6ParserD1Ev@Base 0.4.0
 _ZN6Attica8Activity6ParserD2Ev@Base 0.4.0
 _ZN6Attica8Activity7setLinkERK4QUrl@Base 0.4.0
 _ZN6Attica8ActivityC1ERKS0_@Base 0.4.0
 _ZN6Attica8ActivityC1Ev@Base 0.4.0
 _ZN6Attica8ActivityC2ERKS0_@Base 0.4.0
 _ZN6Attica8ActivityC2Ev@Base 0.4.0
 _ZN6Attica8ActivityD1Ev@Base 0.4.0
 _ZN6Attica8ActivityD2Ev@Base 0.4.0
 _ZN6Attica8ActivityaSERKS0_@Base 0.4.0
 _ZN6Attica8Category5setIdERK7QString@Base 0.4.0
 _ZN6Attica8Category6Parser8parseXmlER16QXmlStreamReader@Base 0.4.0
 _ZN6Attica8Category6ParserD0Ev@Base 0.4.0
 _ZN6Attica8Category6ParserD1Ev@Base 0.4.0
 _ZN6Attica8Category6ParserD2Ev@Base 0.4.0
 _ZN6Attica8Category7setNameERK7QString@Base 0.4.0
 _ZN6Attica8CategoryC1ERKS0_@Base 0.4.0
 _ZN6Attica8CategoryC1Ev@Base 0.4.0
 _ZN6Attica8CategoryC2ERKS0_@Base 0.4.0
 _ZN6Attica8CategoryC2Ev@Base 0.4.0
 _ZN6Attica8CategoryD1Ev@Base 0.4.0
 _ZN6Attica8CategoryD2Ev@Base 0.4.0
 _ZN6Attica8CategoryaSERKS0_@Base 0.4.0
 _ZN6Attica8Metadata10setMessageERK7QString@Base 0.4.0
 _ZN6Attica8Metadata10totalItemsEv@Base 0.4.0
 _ZN6Attica8Metadata11resultingIdEv@Base 0.4.0
 _ZN6Attica8Metadata12itemsPerPageEv@Base 0.4.0
 _ZN6Attica8Metadata13setStatusCodeEi@Base 0.4.0
 _ZN6Attica8Metadata13setTotalItemsEi@Base 0.4.0
 _ZN6Attica8Metadata14setResultingIdERK7QString@Base 0.4.0
 _ZN6Attica8Metadata15setItemsPerPageEi@Base 0.4.0
 _ZN6Attica8Metadata15setStatusStringERK7QString@Base 0.4.0
 _ZN6Attica8Metadata7messageEv@Base 0.4.0
 _ZN6Attica8Metadata8setErrorENS0_5ErrorE@Base 0.4.0
 _ZN6Attica8MetadataC1ERKS0_@Base 0.4.0
 _ZN6Attica8MetadataC1Ev@Base 0.4.0
 _ZN6Attica8MetadataC2ERKS0_@Base 0.4.0
 _ZN6Attica8MetadataC2Ev@Base 0.4.0
 _ZN6Attica8MetadataD1Ev@Base 0.4.0
 _ZN6Attica8MetadataD2Ev@Base 0.4.0
 _ZN6Attica8MetadataaSERKS0_@Base 0.4.0
 _ZN6Attica8Provider10checkLoginERK7QStringS3_@Base 0.4.0
 _ZN6Attica8Provider10setEnabledEb@Base 0.4.0
 _ZN6Attica8Provider11editContentERKNS_8CategoryERK7QStringRKNS_7ContentE@Base 0.4.0
 _ZN6Attica8Provider11editProjectERKNS_7ProjectE@Base 0.4.0
 _ZN6Attica8Provider11postMessageERKNS_7MessageE@Base 0.4.0
 _ZN6Attica8Provider11requestFansERK7QStringjj@Base 0.4.0
 _ZN6Attica8Provider12downloadLinkERK7QStringS3_@Base 0.4.0
 _ZN6Attica8Provider12inviteFriendERK7QStringS3_@Base 0.4.0
 _ZN6Attica8Provider12postActivityERK7QString@Base 0.4.0
 (subst)_ZN6Attica8Provider12postLocationE{qreal}{qreal}RK7QStringS3_@Base 0.4.0
 _ZN6Attica8Provider12requestEventERK7QString@Base 0.4.0
 _ZN6Attica8Provider12requestEventERK7QStringS3_RK5QDateNS0_8SortModeEii@Base 0.4.0
 _ZN6Attica8Provider13addNewCommentENS_7Comment4TypeERK7QStringS5_S5_S5_S5_@Base 0.4.0
 _ZN6Attica8Provider13addNewContentERKNS_8CategoryERKNS_7ContentE@Base 0.4.0
 _ZN6Attica8Provider13createProjectERKNS_7ProjectE@Base 0.4.0
 _ZN6Attica8Provider13createRequestERK4QUrl@Base 0.4.0
 _ZN6Attica8Provider13createRequestERK7QString@Base 0.4.0
 _ZN6Attica8Provider13deleteContentERK7QString@Base 0.4.0
 _ZN6Attica8Provider13deleteProjectERKNS_7ProjectE@Base 0.4.0
 _ZN6Attica8Provider13requestForumsEjj@Base 0.4.0
 _ZN6Attica8Provider13requestPersonERK7QString@Base 0.4.0
 _ZN6Attica8Provider13requestTopicsERK7QStringS3_S3_NS0_8SortModeEii@Base 0.4.0
 _ZN6Attica8Provider14hasCredentialsEv@Base 0.4.0
 _ZN6Attica8Provider14requestContentERK7QString@Base 0.4.0
 _ZN6Attica8Provider14requestFoldersEv@Base 0.4.0
 _ZN6Attica8Provider14requestFriendsERK7QStringii@Base 0.4.0
 _ZN6Attica8Provider14requestMessageERKNS_6FolderERK7QString@Base 0.4.0
 _ZN6Attica8Provider14requestProjectERK7QString@Base 0.4.0
 _ZN6Attica8Provider14searchContentsERK5QListINS_8CategoryEERK7QStringNS0_8SortModeEjj@Base 0.4.0
 _ZN6Attica8Provider14searchContentsERK5QListINS_8CategoryEERK7QStringRKS1_INS_12DistributionEERKS1_INS_7LicenseEES8_NS0_8SortModeEjj@Base 0.4.0
 _ZN6Attica8Provider14setPrivateDataERK7QStringS3_S3_@Base 0.4.0
 _ZN6Attica8Provider14voteForCommentERK7QStringj@Base 0.4.0
 _ZN6Attica8Provider14voteForContentERK7QStringb@Base 0.4.0
 _ZN6Attica8Provider14voteForContentERK7QStringj@Base 0.4.0
 _ZN6Attica8Provider15doRequestPersonERK4QUrl@Base 0.4.0
 _ZN6Attica8Provider15editAchievementERK7QStringS3_RKNS_11AchievementE@Base 0.4.0
 _ZN6Attica8Provider15loadCredentialsER7QStringS2_@Base 0.4.0
 _ZN6Attica8Provider15publishBuildJobERKNS_15BuildServiceJobERKNS_9PublisherE@Base 0.4.0
 _ZN6Attica8Provider15registerAccountERK7QStringS3_S3_S3_S3_@Base 0.4.0
 _ZN6Attica8Provider15requestCommentsENS_7Comment4TypeERK7QStringS5_ii@Base 0.4.0
 _ZN6Attica8Provider15requestLicensesEv@Base 0.4.0
 _ZN6Attica8Provider15requestMessagesERKNS_6FolderE@Base 0.4.0
 _ZN6Attica8Provider15requestMessagesERKNS_6FolderENS_7Message6StatusE@Base 0.4.0
 _ZN6Attica8Provider15requestProjectsEv@Base 0.4.0
 _ZN6Attica8Provider15saveCredentialsERK7QStringS3_@Base 0.4.0
 _ZN6Attica8Provider15setDownloadFileERK7QStringS3_RK10QByteArray@Base 0.4.0
 _ZN6Attica8Provider15setPreviewImageERK7QStringS3_S3_RK10QByteArray@Base 0.4.0
 _ZN6Attica8Provider16cancelFriendshipERK7QString@Base 0.4.0
 _ZN6Attica8Provider16requestPublisherERK7QString@Base 0.4.0
 _ZN6Attica8Provider17addNewAchievementERK7QStringRKNS_11AchievementE@Base 0.4.0
 _ZN6Attica8Provider17approveFriendshipERK7QString@Base 0.4.0
 _ZN6Attica8Provider17declineFriendshipERK7QString@Base 0.4.0
 _ZN6Attica8Provider17deleteAchievementERK7QStringS3_@Base 0.4.0
 _ZN6Attica8Provider17editRemoteAccountERKNS_13RemoteAccountE@Base 0.4.0
 _ZN6Attica8Provider17requestActivitiesEv@Base 0.4.0
 _ZN6Attica8Provider17requestCategoriesEv@Base 0.4.0
 _ZN6Attica8Provider17requestPersonSelfEv@Base 0.4.0
 _ZN6Attica8Provider17requestPublishersEv@Base 0.4.0
 _ZN6Attica8Provider18deleteDownloadFileERK7QString@Base 0.4.0
 _ZN6Attica8Provider18deletePreviewImageERK7QStringS3_@Base 0.4.0
 _ZN6Attica8Provider18doRequestForumListERK4QUrl@Base 0.4.0
 _ZN6Attica8Provider18doRequestTopicListERK4QUrl@Base 0.4.0
 _ZN6Attica8Provider18requestPrivateDataERK7QStringS3_@Base 0.4.0
 _ZN6Attica8Provider18savePublisherFieldERKNS_7ProjectERKNS_14PublisherFieldE@Base 0.4.0
 _ZN6Attica8Provider19createRemoteAccountERKNS_13RemoteAccountE@Base 0.4.0
 _ZN6Attica8Provider19deleteRemoteAccountERK7QString@Base 0.4.0
 _ZN6Attica8Provider19doRequestFolderListERK4QUrl@Base 0.4.0
 _ZN6Attica8Provider19doRequestPersonListERK4QUrl@Base 0.4.0
 _ZN6Attica8Provider19requestAchievementsERK7QStringS3_S3_@Base 0.4.0
 _ZN6Attica8Provider19requestBuildServiceERK7QString@Base 0.4.0
 _ZN6Attica8Provider19searchKnowledgeBaseERKNS_7ContentERK7QStringNS0_8SortModeEii@Base 0.4.0
 _ZN6Attica8Provider20doRequestMessageListERK4QUrl@Base 0.4.0
 _ZN6Attica8Provider20requestBuildServicesEv@Base 0.4.0
 _ZN6Attica8Provider20requestDistributionsEv@Base 0.4.0
 _ZN6Attica8Provider20requestHomePageTypesEv@Base 0.4.0
 _ZN6Attica8Provider20requestRemoteAccountERK7QString@Base 0.4.0
 _ZN6Attica8Provider21cancelBuildServiceJobERKNS_15BuildServiceJobE@Base 0.4.0
 _ZN6Attica8Provider21createBuildServiceJobERKNS_15BuildServiceJobE@Base 0.4.0
 _ZN6Attica8Provider21doRequestActivityListERK4QUrl@Base 0.4.0
 _ZN6Attica8Provider21requestAccountBalanceEv@Base 0.4.0
 _ZN6Attica8Provider21requestRemoteAccountsEv@Base 0.4.0
 _ZN6Attica8Provider22requestBuildServiceJobERK7QString@Base 0.4.0
 _ZN6Attica8Provider22requestSentInvitationsEii@Base 0.4.0
 _ZN6Attica8Provider22searchContentsByPersonERK5QListINS_8CategoryEERK7QStringS8_NS0_8SortModeEjj@Base 0.4.0
 _ZN6Attica8Provider22setAchievementProgressERK7QStringRK8QVariantRK9QDateTime@Base 0.4.0
 _ZN6Attica8Provider23doRequestAccountBalanceERK4QUrl@Base 0.4.0
 _ZN6Attica8Provider23requestBuildServiceJobsERKNS_7ProjectE@Base 0.4.0
 _ZN6Attica8Provider24doRequestAchievementListERK4QUrl@Base 0.4.0
 _ZN6Attica8Provider24resetAchievementProgressERK7QString@Base 0.4.0
 _ZN6Attica8Provider25requestKnowledgeBaseEntryERK7QString@Base 0.4.0
 _ZN6Attica8Provider25requestPersonSearchByNameERK7QString@Base 0.4.0
 _ZN6Attica8Provider26requestReceivedInvitationsEii@Base 0.4.0
 _ZN6Attica8Provider27uploadTarballToBuildServiceERK7QStringS3_RK10QByteArray@Base 0.4.0
 _ZN6Attica8Provider28requestBuildServiceJobOutputERK7QString@Base 0.4.0
 (subst)_ZN6Attica8Provider29requestPersonSearchByLocationE{qreal}{qreal}{qreal}ii@Base 0.4.0
 _ZN6Attica8Provider9becomeFanERK7QString@Base 0.4.0
 _ZN6Attica8Provider9createUrlERK7QString@Base 0.4.0
 _ZN6Attica8Provider9postTopicERK7QStringS3_S3_@Base 0.4.0
 _ZN6Attica8ProviderC1EPNS_17PlatformDependentERK4QUrlRK7QStringS5_S8_S8_S8_S8_S8_S8_S8_S8_S8_S8_S8_@Base 0.4.0
 _ZN6Attica8ProviderC1ERKS0_@Base 0.4.0
 _ZN6Attica8ProviderC1Ev@Base 0.4.0
 _ZN6Attica8ProviderC2EPNS_17PlatformDependentERK4QUrlRK7QStringS5_S8_S8_S8_S8_S8_S8_S8_S8_S8_S8_S8_@Base 0.4.0
 _ZN6Attica8ProviderC2ERKS0_@Base 0.4.0
 _ZN6Attica8ProviderC2Ev@Base 0.4.0
 _ZN6Attica8ProviderD1Ev@Base 0.4.0
 _ZN6Attica8ProviderD2Ev@Base 0.4.0
 _ZN6Attica8ProvideraSERKS0_@Base 0.4.0
 _ZN6Attica9DeleteJob11qt_metacallEN11QMetaObject4CallEiPPv@Base 0.4.0
 _ZN6Attica9DeleteJob11qt_metacastEPKc@Base 0.4.0
 _ZN6Attica9DeleteJob14executeRequestEv@Base 0.4.0
 _ZN6Attica9DeleteJob16staticMetaObjectE@Base 0.4.0
 _ZN6Attica9DeleteJobC1EPNS_17PlatformDependentERK15QNetworkRequest@Base 0.4.0
 _ZN6Attica9DeleteJobC2EPNS_17PlatformDependentERK15QNetworkRequest@Base 0.4.0
 _ZN6Attica9DeleteJobD0Ev@Base 0.4.0
 _ZN6Attica9DeleteJobD1Ev@Base 0.4.0
 _ZN6Attica9DeleteJobD2Ev@Base 0.4.0
 _ZN6Attica9Publisher5setIdERK7QString@Base 0.4.0
 _ZN6Attica9Publisher6Parser8parseXmlER16QXmlStreamReader@Base 0.4.0
 _ZN6Attica9Publisher6ParserD0Ev@Base 0.4.0
 _ZN6Attica9Publisher6ParserD1Ev@Base 0.4.0
 _ZN6Attica9Publisher6ParserD2Ev@Base 0.4.0
 _ZN6Attica9Publisher6setUrlERK7QString@Base 0.4.0
 _ZN6Attica9Publisher7setNameERK7QString@Base 0.4.0
 _ZN6Attica9Publisher8addFieldERKNS_5FieldE@Base 0.4.0
 _ZN6Attica9Publisher9addTargetERKNS_6TargetE@Base 0.4.0
 _ZN6Attica9PublisherC1ERKS0_@Base 0.4.0
 _ZN6Attica9PublisherC1Ev@Base 0.4.0
 _ZN6Attica9PublisherC2ERKS0_@Base 0.4.0
 _ZN6Attica9PublisherC2Ev@Base 0.4.0
 _ZN6Attica9PublisherD1Ev@Base 0.4.0
 _ZN6Attica9PublisherD2Ev@Base 0.4.0
 _ZN6Attica9PublisheraSERKS0_@Base 0.4.0
 (optional=templinst)_ZNK6Attica10ItemPutJobINS_11AchievementEE6resultEv@Base 0.4.0
 _ZNK6Attica11Achievement10visibilityEv@Base 0.4.0
 _ZNK6Attica11Achievement11descriptionEv@Base 0.4.0
 _ZNK6Attica11Achievement11explanationEv@Base 0.4.0
 _ZNK6Attica11Achievement12dependenciesEv@Base 0.4.0
 _ZNK6Attica11Achievement2idEv@Base 0.4.0
 _ZNK6Attica11Achievement4nameEv@Base 0.4.0
 _ZNK6Attica11Achievement4typeEv@Base 0.4.0
 _ZNK6Attica11Achievement5imageEv@Base 0.4.0
 _ZNK6Attica11Achievement5stepsEv@Base 0.4.0
 _ZNK6Attica11Achievement6Parser10xmlElementEv@Base 0.4.0
 _ZNK6Attica11Achievement6pointsEv@Base 0.4.0
 _ZNK6Attica11Achievement7isValidEv@Base 0.4.0
 _ZNK6Attica11Achievement7optionsEv@Base 0.4.0
 _ZNK6Attica11Achievement8progressEv@Base 0.4.0
 _ZNK6Attica11Achievement9contentIdEv@Base 0.4.0
 (optional=templinst)_ZNK6Attica11ItemPostJobINS_11AchievementEE6resultEv@Base 0.4.0
 (optional=templinst)_ZNK6Attica11ItemPostJobINS_12BuildServiceEE6resultEv@Base 0.4.0
 (optional=templinst)_ZNK6Attica11ItemPostJobINS_13RemoteAccountEE6resultEv@Base 0.4.0
 (optional=templinst)_ZNK6Attica11ItemPostJobINS_15BuildServiceJobEE6resultEv@Base 0.4.0
 (optional=templinst)_ZNK6Attica11ItemPostJobINS_5ForumEE6resultEv@Base 0.4.0
 (optional=templinst)_ZNK6Attica11ItemPostJobINS_7CommentEE6resultEv@Base 0.4.0
 (optional=templinst)_ZNK6Attica11ItemPostJobINS_7ContentEE6resultEv@Base 0.4.0
 (optional=templinst)_ZNK6Attica11ItemPostJobINS_7ProjectEE6resultEv@Base 0.4.0
 (optional=templinst)_ZNK6Attica11ItemPostJobINS_9PublisherEE6resultEv@Base 0.4.0
 _ZNK6Attica11PrivateData4keysEv@Base 0.4.0
 _ZNK6Attica11PrivateData6Parser10xmlElementEv@Base 0.4.0
 _ZNK6Attica11PrivateData9attributeERK7QString@Base 0.4.0
 _ZNK6Attica11PrivateData9timestampERK7QString@Base 0.4.0
 _ZNK6Attica12BuildService2idEv@Base 0.4.0
 _ZNK6Attica12BuildService3urlEv@Base 0.4.0
 _ZNK6Attica12BuildService4nameEv@Base 0.4.0
 _ZNK6Attica12BuildService6Parser10xmlElementEv@Base 0.4.0
 _ZNK6Attica12BuildService7isValidEv@Base 0.4.0
 _ZNK6Attica12BuildService7targetsEv@Base 0.4.0
 _ZNK6Attica12Distribution2idEv@Base 0.4.0
 _ZNK6Attica12Distribution4nameEv@Base 0.4.0
 _ZNK6Attica12Distribution6Parser10xmlElementEv@Base 0.4.0
 _ZNK6Attica12DownloadItem11packageNameEv@Base 0.4.0
 _ZNK6Attica12DownloadItem12gpgSignatureEv@Base 0.4.0
 _ZNK6Attica12DownloadItem14gpgFingerprintEv@Base 0.4.0
 _ZNK6Attica12DownloadItem17packageRepositoryEv@Base 0.4.0
 _ZNK6Attica12DownloadItem3urlEv@Base 0.4.0
 _ZNK6Attica12DownloadItem6Parser10xmlElementEv@Base 0.4.0
 _ZNK6Attica12DownloadItem8mimeTypeEv@Base 0.4.0
 _ZNK6Attica12HomePageType2idEv@Base 0.4.0
 _ZNK6Attica12HomePageType4nameEv@Base 0.4.0
 _ZNK6Attica12HomePageType6Parser10xmlElementEv@Base 0.4.0
 _ZNK6Attica13HomePageEntry3urlEv@Base 0.4.0
 _ZNK6Attica13HomePageEntry4typeEv@Base 0.4.0
 (optional=templinst)_ZNK6Attica13ItemDeleteJobINS_11AchievementEE6resultEv@Base 0.4.0
 _ZNK6Attica13RemoteAccount15remoteServiceIdEv@Base 0.4.0
 _ZNK6Attica13RemoteAccount2idEv@Base 0.4.0
 _ZNK6Attica13RemoteAccount4dataEv@Base 0.4.0
 _ZNK6Attica13RemoteAccount4typeEv@Base 0.4.0
 _ZNK6Attica13RemoteAccount5loginEv@Base 0.4.0
 _ZNK6Attica13RemoteAccount6Parser10xmlElementEv@Base 0.4.0
 _ZNK6Attica13RemoteAccount7isValidEv@Base 0.4.0
 _ZNK6Attica13RemoteAccount8passwordEv@Base 0.4.0
 _ZNK6Attica14AccountBalance6Parser10xmlElementEv@Base 0.4.0
 _ZNK6Attica14AccountBalance7balanceEv@Base 0.4.0
 _ZNK6Attica14AccountBalance8currencyEv@Base 0.4.0
 _ZNK6Attica14PublisherField4dataEv@Base 0.4.0
 _ZNK6Attica14PublisherField4nameEv@Base 0.4.0
 _ZNK6Attica14PublisherField4typeEv@Base 0.4.0
 _ZNK6Attica14PublisherField6Parser10xmlElementEv@Base 0.4.0
 _ZNK6Attica14PublisherField7isValidEv@Base 0.4.0
 _ZNK6Attica15BuildServiceJob11isCompletedEv@Base 0.4.0
 _ZNK6Attica15BuildServiceJob14buildServiceIdEv@Base 0.4.0
 _ZNK6Attica15BuildServiceJob2idEv@Base 0.4.0
 _ZNK6Attica15BuildServiceJob3urlEv@Base 0.4.0
 _ZNK6Attica15BuildServiceJob4nameEv@Base 0.4.0
 _ZNK6Attica15BuildServiceJob6Parser10xmlElementEv@Base 0.4.0
 _ZNK6Attica15BuildServiceJob6targetEv@Base 0.4.0
 _ZNK6Attica15BuildServiceJob7isValidEv@Base 0.4.0
 _ZNK6Attica15BuildServiceJob7messageEv@Base 0.4.0
 _ZNK6Attica15BuildServiceJob8isFailedEv@Base 0.4.0
 _ZNK6Attica15BuildServiceJob8progressEv@Base 0.4.0
 _ZNK6Attica15BuildServiceJob9isRunningEv@Base 0.4.0
 _ZNK6Attica15BuildServiceJob9projectIdEv@Base 0.4.0
 _ZNK6Attica15ProviderManager10metaObjectEv@Base 0.4.0
 _ZNK6Attica15ProviderManager13providerByUrlERK4QUrl@Base 0.4.0
 _ZNK6Attica15ProviderManager13providerFilesEv@Base 0.4.0
 _ZNK6Attica15ProviderManager8containsERK7QString@Base 0.4.0
 _ZNK6Attica15ProviderManager9providersEv@Base 0.4.0
 _ZNK6Attica18KnowledgeBaseEntry10detailPageEv@Base 0.4.0
 _ZNK6Attica18KnowledgeBaseEntry11descriptionEv@Base 0.4.0
 _ZNK6Attica18KnowledgeBaseEntry17extendedAttributeERK7QString@Base 0.4.0
 _ZNK6Attica18KnowledgeBaseEntry18extendedAttributesEv@Base 0.4.0
 _ZNK6Attica18KnowledgeBaseEntry2idEv@Base 0.4.0
 _ZNK6Attica18KnowledgeBaseEntry4nameEv@Base 0.4.0
 _ZNK6Attica18KnowledgeBaseEntry4userEv@Base 0.4.0
 _ZNK6Attica18KnowledgeBaseEntry6Parser10xmlElementEv@Base 0.4.0
 _ZNK6Attica18KnowledgeBaseEntry6answerEv@Base 0.4.0
 _ZNK6Attica18KnowledgeBaseEntry6statusEv@Base 0.4.0
 _ZNK6Attica18KnowledgeBaseEntry7changedEv@Base 0.4.0
 _ZNK6Attica18KnowledgeBaseEntry7isValidEv@Base 0.4.0
 _ZNK6Attica18KnowledgeBaseEntry8commentsEv@Base 0.4.0
 _ZNK6Attica18KnowledgeBaseEntry9contentIdEv@Base 0.4.0
 _ZNK6Attica21BuildServiceJobOutput6Parser10xmlElementEv@Base 0.4.0
 _ZNK6Attica21BuildServiceJobOutput6outputEv@Base 0.4.0
 _ZNK6Attica21BuildServiceJobOutput7isValidEv@Base 0.4.0
 _ZNK6Attica4Icon3urlEv@Base 0.4.0
 _ZNK6Attica4Icon5widthEv@Base 0.4.0
 _ZNK6Attica4Icon6heightEv@Base 0.4.0
 _ZNK6Attica5Event11descriptionEv@Base 0.4.0
 _ZNK6Attica5Event17extendedAttributeERK7QString@Base 0.4.0
 _ZNK6Attica5Event18extendedAttributesEv@Base 0.4.0
 _ZNK6Attica5Event2idEv@Base 0.4.0
 _ZNK6Attica5Event4cityEv@Base 0.4.0
 _ZNK6Attica5Event4nameEv@Base 0.4.0
 _ZNK6Attica5Event4userEv@Base 0.4.0
 _ZNK6Attica5Event6Parser10xmlElementEv@Base 0.4.0
 _ZNK6Attica5Event7countryEv@Base 0.4.0
 _ZNK6Attica5Event7endDateEv@Base 0.4.0
 _ZNK6Attica5Event7isValidEv@Base 0.4.0
 _ZNK6Attica5Event8homepageEv@Base 0.4.0
 _ZNK6Attica5Event8latitudeEv@Base 0.4.0
 _ZNK6Attica5Event9longitudeEv@Base 0.4.0
 _ZNK6Attica5Event9startDateEv@Base 0.4.0
 _ZNK6Attica5Forum10childCountEv@Base 0.4.0
 _ZNK6Attica5Forum11descriptionEv@Base 0.4.0
 _ZNK6Attica5Forum2idEv@Base 0.4.0
 _ZNK6Attica5Forum4dateEv@Base 0.4.0
 _ZNK6Attica5Forum4iconEv@Base 0.4.0
 _ZNK6Attica5Forum4nameEv@Base 0.4.0
 _ZNK6Attica5Forum6Parser10xmlElementEv@Base 0.4.0
 _ZNK6Attica5Forum6topicsEv@Base 0.4.0
 _ZNK6Attica5Forum7isValidEv@Base 0.4.0
 _ZNK6Attica5Forum8childrenEv@Base 0.4.0
 _ZNK6Attica5Topic2idEv@Base 0.4.0
 _ZNK6Attica5Topic4dateEv@Base 0.4.0
 _ZNK6Attica5Topic4userEv@Base 0.4.0
 _ZNK6Attica5Topic6Parser10xmlElementEv@Base 0.4.0
 _ZNK6Attica5Topic7contentEv@Base 0.4.0
 _ZNK6Attica5Topic7forumIdEv@Base 0.4.0
 _ZNK6Attica5Topic7isValidEv@Base 0.4.0
 _ZNK6Attica5Topic7subjectEv@Base 0.4.0
 _ZNK6Attica5Topic8commentsEv@Base 0.4.0
 _ZNK6Attica6Folder12messageCountEv@Base 0.4.0
 _ZNK6Attica6Folder2idEv@Base 0.4.0
 _ZNK6Attica6Folder4nameEv@Base 0.4.0
 _ZNK6Attica6Folder4typeEv@Base 0.4.0
 _ZNK6Attica6Folder6Parser10xmlElementEv@Base 0.4.0
 _ZNK6Attica6Folder7isValidEv@Base 0.4.0
 _ZNK6Attica6GetJob10metaObjectEv@Base 0.4.0
 _ZNK6Attica6Person17extendedAttributeERK7QString@Base 0.4.0
 _ZNK6Attica6Person18extendedAttributesEv@Base 0.4.0
 _ZNK6Attica6Person2idEv@Base 0.4.0
 _ZNK6Attica6Person4cityEv@Base 0.4.0
 _ZNK6Attica6Person6Parser10xmlElementEv@Base 0.4.0
 _ZNK6Attica6Person7countryEv@Base 0.4.0
 _ZNK6Attica6Person7isValidEv@Base 0.4.0
 _ZNK6Attica6Person8birthdayEv@Base 0.4.0
 _ZNK6Attica6Person8homepageEv@Base 0.4.0
 _ZNK6Attica6Person8lastNameEv@Base 0.4.0
 _ZNK6Attica6Person8latitudeEv@Base 0.4.0
 _ZNK6Attica6Person9avatarUrlEv@Base 0.4.0
 _ZNK6Attica6Person9firstNameEv@Base 0.4.0
 _ZNK6Attica6Person9longitudeEv@Base 0.4.0
 _ZNK6Attica6PutJob10metaObjectEv@Base 0.4.0
 _ZNK6Attica7BaseJob10metaObjectEv@Base 0.4.0
 _ZNK6Attica7BaseJob11setMetadataERKNS_8MetadataE@Base 0.4.0
 _ZNK6Attica7BaseJob8metadataEv@Base 0.4.0
 _ZNK6Attica7Comment10childCountEv@Base 0.4.0
 _ZNK6Attica7Comment2idEv@Base 0.4.0
 _ZNK6Attica7Comment4dateEv@Base 0.4.0
 _ZNK6Attica7Comment4textEv@Base 0.4.0
 _ZNK6Attica7Comment4userEv@Base 0.4.0
 _ZNK6Attica7Comment5scoreEv@Base 0.4.0
 _ZNK6Attica7Comment6Parser10xmlElementEv@Base 0.4.0
 _ZNK6Attica7Comment7isValidEv@Base 0.4.0
 _ZNK6Attica7Comment7subjectEv@Base 0.4.0
 _ZNK6Attica7Comment8childrenEv@Base 0.4.0
 _ZNK6Attica7Content10attributesEv@Base 0.4.0
 _ZNK6Attica7Content10detailpageEv@Base 0.4.0
 _ZNK6Attica7Content11descriptionEv@Base 0.4.0
 _ZNK6Attica7Content11licenseNameEv@Base 0.4.0
 _ZNK6Attica7Content13homePageEntryEi@Base 0.4.0
 _ZNK6Attica7Content14previewPictureERK7QString@Base 0.4.0
 _ZNK6Attica7Content16numberOfCommentsEv@Base 0.4.0
 _ZNK6Attica7Content19smallPreviewPictureERK7QString@Base 0.4.0
 _ZNK6Attica7Content22downloadUrlDescriptionEi@Base 0.4.0
 _ZNK6Attica7Content23downloadUrlDescriptionsEv@Base 0.4.0
 _ZNK6Attica7Content2idEv@Base 0.4.0
 _ZNK6Attica7Content4nameEv@Base 0.4.0
 _ZNK6Attica7Content6Parser10xmlElementEv@Base 0.4.0
 _ZNK6Attica7Content6authorEv@Base 0.4.0
 _ZNK6Attica7Content6dependEv@Base 0.4.0
 _ZNK6Attica7Content6ratingEv@Base 0.4.0
 _ZNK6Attica7Content7createdEv@Base 0.4.0
 _ZNK6Attica7Content7isValidEv@Base 0.4.0
 _ZNK6Attica7Content7licenseEv@Base 0.4.0
 _ZNK6Attica7Content7summaryEv@Base 0.4.0
 _ZNK6Attica7Content7updatedEv@Base 0.4.0
 _ZNK6Attica7Content7versionEv@Base 0.4.0
 _ZNK6Attica7Content9attributeERK7QString@Base 0.4.0
 _ZNK6Attica7Content9changelogEv@Base 0.4.0
 _ZNK6Attica7Content9downloadsEv@Base 0.4.0
 (optional=templinst)_ZNK6Attica7ItemJobINS_11AchievementEE6resultEv@Base 0.4.0
 (optional=templinst)_ZNK6Attica7ItemJobINS_11PrivateDataEE6resultEv@Base 0.4.0
 (optional=templinst)_ZNK6Attica7ItemJobINS_12BuildServiceEE6resultEv@Base 0.4.0
 (optional=templinst)_ZNK6Attica7ItemJobINS_12DownloadItemEE6resultEv@Base 0.4.0
 (optional=templinst)_ZNK6Attica7ItemJobINS_13RemoteAccountEE6resultEv@Base 0.4.0
 (optional=templinst)_ZNK6Attica7ItemJobINS_14AccountBalanceEE6resultEv@Base 0.4.0
 (optional=templinst)_ZNK6Attica7ItemJobINS_15BuildServiceJobEE6resultEv@Base 0.4.0
 (optional=templinst)_ZNK6Attica7ItemJobINS_18KnowledgeBaseEntryEE6resultEv@Base 0.4.0
 (optional=templinst)_ZNK6Attica7ItemJobINS_21BuildServiceJobOutputEE6resultEv@Base 0.4.0
 (optional=templinst)_ZNK6Attica7ItemJobINS_5EventEE6resultEv@Base 0.4.0
 (optional=templinst)_ZNK6Attica7ItemJobINS_5ForumEE6resultEv@Base 0.4.0
 (optional=templinst)_ZNK6Attica7ItemJobINS_6PersonEE6resultEv@Base 0.4.0
 (optional=templinst)_ZNK6Attica7ItemJobINS_7ContentEE6resultEv@Base 0.4.0
 (optional=templinst)_ZNK6Attica7ItemJobINS_7MessageEE6resultEv@Base 0.4.0
 (optional=templinst)_ZNK6Attica7ItemJobINS_7ProjectEE6resultEv@Base 0.4.0
 (optional=templinst)_ZNK6Attica7ItemJobINS_9PublisherEE6resultEv@Base 0.4.0
 _ZNK6Attica7License2idEv@Base 0.4.0
 _ZNK6Attica7License3urlEv@Base 0.4.0
 _ZNK6Attica7License4nameEv@Base 0.4.0
 _ZNK6Attica7License6Parser10xmlElementEv@Base 0.4.0
 (optional=templinst)_ZNK6Attica7ListJobINS_11AchievementEE8itemListEv@Base 0.4.0
 (optional=templinst)_ZNK6Attica7ListJobINS_12BuildServiceEE8itemListEv@Base 0.4.0
 (optional=templinst)_ZNK6Attica7ListJobINS_12DistributionEE8itemListEv@Base 0.4.0
 (optional=templinst)_ZNK6Attica7ListJobINS_12DownloadItemEE8itemListEv@Base 0.4.0
 (optional=templinst)_ZNK6Attica7ListJobINS_12HomePageTypeEE8itemListEv@Base 0.4.0
 (optional=templinst)_ZNK6Attica7ListJobINS_13RemoteAccountEE8itemListEv@Base 0.4.0
 (optional=templinst)_ZNK6Attica7ListJobINS_14PublisherFieldEE8itemListEv@Base 0.4.0
 (optional=templinst)_ZNK6Attica7ListJobINS_15BuildServiceJobEE8itemListEv@Base 0.4.0
 (optional=templinst)_ZNK6Attica7ListJobINS_18KnowledgeBaseEntryEE8itemListEv@Base 0.4.0
 (optional=templinst)_ZNK6Attica7ListJobINS_5EventEE8itemListEv@Base 0.4.0
 (optional=templinst)_ZNK6Attica7ListJobINS_5ForumEE8itemListEv@Base 0.4.0
 (optional=templinst)_ZNK6Attica7ListJobINS_5TopicEE8itemListEv@Base 0.4.0
 (optional=templinst)_ZNK6Attica7ListJobINS_6FolderEE8itemListEv@Base 0.4.0
 (optional=templinst)_ZNK6Attica7ListJobINS_6PersonEE8itemListEv@Base 0.4.0
 (optional=templinst)_ZNK6Attica7ListJobINS_7CommentEE8itemListEv@Base 0.4.0
 (optional=templinst)_ZNK6Attica7ListJobINS_7ContentEE8itemListEv@Base 0.4.0
 (optional=templinst)_ZNK6Attica7ListJobINS_7LicenseEE8itemListEv@Base 0.4.0
 (optional=templinst)_ZNK6Attica7ListJobINS_7MessageEE8itemListEv@Base 0.4.0
 (optional=templinst)_ZNK6Attica7ListJobINS_7ProjectEE8itemListEv@Base 0.4.0
 (optional=templinst)_ZNK6Attica7ListJobINS_8ActivityEE8itemListEv@Base 0.4.0
 (optional=templinst)_ZNK6Attica7ListJobINS_8CategoryEE8itemListEv@Base 0.4.0
 (optional=templinst)_ZNK6Attica7ListJobINS_9PublisherEE8itemListEv@Base 0.4.0
 _ZNK6Attica7Message2idEv@Base 0.4.0
 _ZNK6Attica7Message2toEv@Base 0.4.0
 _ZNK6Attica7Message4bodyEv@Base 0.4.0
 _ZNK6Attica7Message4fromEv@Base 0.4.0
 _ZNK6Attica7Message4sentEv@Base 0.4.0
 _ZNK6Attica7Message6Parser10xmlElementEv@Base 0.4.0
 _ZNK6Attica7Message6statusEv@Base 0.4.0
 _ZNK6Attica7Message7isValidEv@Base 0.4.0
 _ZNK6Attica7Message7subjectEv@Base 0.4.0
 _ZNK6Attica7PostJob10metaObjectEv@Base 0.4.0
 _ZNK6Attica7Project10developersEv@Base 0.4.0
 _ZNK6Attica7Project11descriptionEv@Base 0.4.0
 _ZNK6Attica7Project12requirementsEv@Base 0.4.0
 _ZNK6Attica7Project17extendedAttributeERK7QString@Base 0.4.0
 _ZNK6Attica7Project18extendedAttributesEv@Base 0.4.0
 _ZNK6Attica7Project2idEv@Base 0.4.0
 _ZNK6Attica7Project3urlEv@Base 0.4.0
 _ZNK6Attica7Project4nameEv@Base 0.4.0
 _ZNK6Attica7Project6Parser10xmlElementEv@Base 0.4.0
 _ZNK6Attica7Project7isValidEv@Base 0.4.0
 _ZNK6Attica7Project7licenseEv@Base 0.4.0
 _ZNK6Attica7Project7summaryEv@Base 0.4.0
 _ZNK6Attica7Project7versionEv@Base 0.4.0
 _ZNK6Attica7Project8specFileEv@Base 0.4.0
 _ZNK6Attica8Activity16associatedPersonEv@Base 0.4.0
 _ZNK6Attica8Activity2idEv@Base 0.4.0
 _ZNK6Attica8Activity4linkEv@Base 0.4.0
 _ZNK6Attica8Activity6Parser10xmlElementEv@Base 0.4.0
 _ZNK6Attica8Activity7isValidEv@Base 0.4.0
 _ZNK6Attica8Activity7messageEv@Base 0.4.0
 _ZNK6Attica8Activity9timestampEv@Base 0.4.0
 _ZNK6Attica8Category2idEv@Base 0.4.0
 _ZNK6Attica8Category4nameEv@Base 0.4.0
 _ZNK6Attica8Category6Parser10xmlElementEv@Base 0.4.0
 _ZNK6Attica8Category7isValidEv@Base 0.4.0
 _ZNK6Attica8Metadata10statusCodeEv@Base 0.4.0
 _ZNK6Attica8Metadata12statusStringEv@Base 0.4.0
 _ZNK6Attica8Metadata5errorEv@Base 0.4.0
 _ZNK6Attica8Provider13hasFanServiceEv@Base 0.4.0
 _ZNK6Attica8Provider14hasCredentialsEv@Base 0.4.0
 _ZNK6Attica8Provider15hasForumServiceEv@Base 0.4.0
 _ZNK6Attica8Provider16hasFriendServiceEv@Base 0.4.0
 _ZNK6Attica8Provider16hasPersonServiceEv@Base 0.4.0
 _ZNK6Attica8Provider17fanServiceVersionEv@Base 0.4.0
 _ZNK6Attica8Provider17hasCommentServiceEv@Base 0.4.0
 _ZNK6Attica8Provider17hasContentServiceEv@Base 0.4.0
 _ZNK6Attica8Provider17hasMessageServiceEv@Base 0.4.0
 _ZNK6Attica8Provider18hasActivityServiceEv@Base 0.4.0
 _ZNK6Attica8Provider19forumServiceVersionEv@Base 0.4.0
 _ZNK6Attica8Provider20friendServiceVersionEv@Base 0.4.0
 _ZNK6Attica8Provider20personServiceVersionEv@Base 0.4.0
 _ZNK6Attica8Provider21commentServiceVersionEv@Base 0.4.0
 _ZNK6Attica8Provider21contentServiceVersionEv@Base 0.4.0
 _ZNK6Attica8Provider21hasAchievementServiceEv@Base 0.4.0
 _ZNK6Attica8Provider21messageServiceVersionEv@Base 0.4.0
 _ZNK6Attica8Provider22activityServiceVersionEv@Base 0.4.0
 _ZNK6Attica8Provider23hasKnowledgebaseServiceEv@Base 0.4.0
 _ZNK6Attica8Provider25achievementServiceVersionEv@Base 0.4.0
 _ZNK6Attica8Provider27knowledgebaseServiceVersionEv@Base 0.4.0
 _ZNK6Attica8Provider4nameEv@Base 0.4.0
 _ZNK6Attica8Provider7baseUrlEv@Base 0.4.0
 _ZNK6Attica8Provider7isValidEv@Base 0.4.0
 _ZNK6Attica8Provider9isEnabledEv@Base 0.4.0
 _ZNK6Attica9DeleteJob10metaObjectEv@Base 0.4.0
 _ZNK6Attica9Publisher2idEv@Base 0.4.0
 _ZNK6Attica9Publisher3urlEv@Base 0.4.0
 _ZNK6Attica9Publisher4nameEv@Base 0.4.0
 _ZNK6Attica9Publisher6Parser10xmlElementEv@Base 0.4.0
 _ZNK6Attica9Publisher6fieldsEv@Base 0.4.0
 _ZNK6Attica9Publisher7isValidEv@Base 0.4.0
 _ZNK6Attica9Publisher7targetsEv@Base 0.4.0
 _ZTIN6Attica10ItemPutJobINS_11AchievementEEE@Base 0.4.0
 _ZTIN6Attica11Achievement6ParserE@Base 0.4.0
 _ZTIN6Attica11ItemPostJobINS_11AchievementEEE@Base 0.4.0
 _ZTIN6Attica11ItemPostJobINS_12BuildServiceEEE@Base 0.4.0
 _ZTIN6Attica11ItemPostJobINS_13RemoteAccountEEE@Base 0.4.0
 _ZTIN6Attica11ItemPostJobINS_15BuildServiceJobEEE@Base 0.4.0
 _ZTIN6Attica11ItemPostJobINS_5ForumEEE@Base 0.4.0
 _ZTIN6Attica11ItemPostJobINS_7CommentEEE@Base 0.4.0
 _ZTIN6Attica11ItemPostJobINS_7ContentEEE@Base 0.4.0
 _ZTIN6Attica11ItemPostJobINS_7ProjectEEE@Base 0.4.0
 _ZTIN6Attica11ItemPostJobINS_9PublisherEEE@Base 0.4.0
 _ZTIN6Attica11PrivateData6ParserE@Base 0.4.0
 _ZTIN6Attica12BuildService6ParserE@Base 0.4.0
 _ZTIN6Attica12Distribution6ParserE@Base 0.4.0
 _ZTIN6Attica12DownloadItem6ParserE@Base 0.4.0
 _ZTIN6Attica12HomePageType6ParserE@Base 0.4.0
 _ZTIN6Attica13ItemDeleteJobINS_11AchievementEEE@Base 0.4.0
 _ZTIN6Attica13RemoteAccount6ParserE@Base 0.4.0
 _ZTIN6Attica14AccountBalance6ParserE@Base 0.4.0
 _ZTIN6Attica14PublisherField6ParserE@Base 0.4.0
 _ZTIN6Attica15BuildServiceJob6ParserE@Base 0.4.0
 _ZTIN6Attica15ProviderManagerE@Base 0.4.0
 _ZTIN6Attica18KnowledgeBaseEntry6ParserE@Base 0.4.0
 _ZTIN6Attica21BuildServiceJobOutput6ParserE@Base 0.4.0
 _ZTIN6Attica5Event6ParserE@Base 0.4.0
 _ZTIN6Attica5Forum6ParserE@Base 0.4.0
 _ZTIN6Attica5Topic6ParserE@Base 0.4.0
 _ZTIN6Attica6Folder6ParserE@Base 0.4.0
 _ZTIN6Attica6GetJobE@Base 0.4.0
 _ZTIN6Attica6Person6ParserE@Base 0.4.0
 _ZTIN6Attica6PutJobE@Base 0.4.0
 _ZTIN6Attica7BaseJobE@Base 0.4.0
 _ZTIN6Attica7Comment6ParserE@Base 0.4.0
 _ZTIN6Attica7Content6ParserE@Base 0.4.0
 _ZTIN6Attica7ItemJobINS_11AchievementEEE@Base 0.4.0
 _ZTIN6Attica7ItemJobINS_11PrivateDataEEE@Base 0.4.0
 _ZTIN6Attica7ItemJobINS_12BuildServiceEEE@Base 0.4.0
 _ZTIN6Attica7ItemJobINS_12DownloadItemEEE@Base 0.4.0
 _ZTIN6Attica7ItemJobINS_13RemoteAccountEEE@Base 0.4.0
 _ZTIN6Attica7ItemJobINS_14AccountBalanceEEE@Base 0.4.0
 _ZTIN6Attica7ItemJobINS_15BuildServiceJobEEE@Base 0.4.0
 _ZTIN6Attica7ItemJobINS_18KnowledgeBaseEntryEEE@Base 0.4.0
 _ZTIN6Attica7ItemJobINS_21BuildServiceJobOutputEEE@Base 0.4.0
 _ZTIN6Attica7ItemJobINS_5EventEEE@Base 0.4.0
 _ZTIN6Attica7ItemJobINS_5ForumEEE@Base 0.4.0
 _ZTIN6Attica7ItemJobINS_6PersonEEE@Base 0.4.0
 _ZTIN6Attica7ItemJobINS_7ContentEEE@Base 0.4.0
 _ZTIN6Attica7ItemJobINS_7MessageEEE@Base 0.4.0
 _ZTIN6Attica7ItemJobINS_7ProjectEEE@Base 0.4.0
 _ZTIN6Attica7ItemJobINS_9PublisherEEE@Base 0.4.0
 _ZTIN6Attica7License6ParserE@Base 0.4.0
 _ZTIN6Attica7ListJobINS_11AchievementEEE@Base 0.4.0
 _ZTIN6Attica7ListJobINS_12BuildServiceEEE@Base 0.4.0
 _ZTIN6Attica7ListJobINS_12DistributionEEE@Base 0.4.0
 _ZTIN6Attica7ListJobINS_12DownloadItemEEE@Base 0.4.0
 _ZTIN6Attica7ListJobINS_12HomePageTypeEEE@Base 0.4.0
 _ZTIN6Attica7ListJobINS_13RemoteAccountEEE@Base 0.4.0
 _ZTIN6Attica7ListJobINS_14PublisherFieldEEE@Base 0.4.0
 _ZTIN6Attica7ListJobINS_15BuildServiceJobEEE@Base 0.4.0
 _ZTIN6Attica7ListJobINS_18KnowledgeBaseEntryEEE@Base 0.4.0
 _ZTIN6Attica7ListJobINS_5EventEEE@Base 0.4.0
 _ZTIN6Attica7ListJobINS_5ForumEEE@Base 0.4.0
 _ZTIN6Attica7ListJobINS_5TopicEEE@Base 0.4.0
 _ZTIN6Attica7ListJobINS_6FolderEEE@Base 0.4.0
 _ZTIN6Attica7ListJobINS_6PersonEEE@Base 0.4.0
 _ZTIN6Attica7ListJobINS_7CommentEEE@Base 0.4.0
 _ZTIN6Attica7ListJobINS_7ContentEEE@Base 0.4.0
 _ZTIN6Attica7ListJobINS_7LicenseEEE@Base 0.4.0
 _ZTIN6Attica7ListJobINS_7MessageEEE@Base 0.4.0
 _ZTIN6Attica7ListJobINS_7ProjectEEE@Base 0.4.0
 _ZTIN6Attica7ListJobINS_8ActivityEEE@Base 0.4.0
 _ZTIN6Attica7ListJobINS_8CategoryEEE@Base 0.4.0
 _ZTIN6Attica7ListJobINS_9PublisherEEE@Base 0.4.0
 _ZTIN6Attica7Message6ParserE@Base 0.4.0
 _ZTIN6Attica7PostJobE@Base 0.4.0
 _ZTIN6Attica7Project6ParserE@Base 0.4.0
 _ZTIN6Attica8Activity6ParserE@Base 0.4.0
 _ZTIN6Attica8Category6ParserE@Base 0.4.0
 _ZTIN6Attica9DeleteJobE@Base 0.4.0
 _ZTIN6Attica9Publisher6ParserE@Base 0.4.0
 _ZTSN6Attica10ItemPutJobINS_11AchievementEEE@Base 0.4.0
 _ZTSN6Attica11Achievement6ParserE@Base 0.4.0
 _ZTSN6Attica11ItemPostJobINS_11AchievementEEE@Base 0.4.0
 _ZTSN6Attica11ItemPostJobINS_12BuildServiceEEE@Base 0.4.0
 _ZTSN6Attica11ItemPostJobINS_13RemoteAccountEEE@Base 0.4.0
 _ZTSN6Attica11ItemPostJobINS_15BuildServiceJobEEE@Base 0.4.0
 _ZTSN6Attica11ItemPostJobINS_5ForumEEE@Base 0.4.0
 _ZTSN6Attica11ItemPostJobINS_7CommentEEE@Base 0.4.0
 _ZTSN6Attica11ItemPostJobINS_7ContentEEE@Base 0.4.0
 _ZTSN6Attica11ItemPostJobINS_7ProjectEEE@Base 0.4.0
 _ZTSN6Attica11ItemPostJobINS_9PublisherEEE@Base 0.4.0
 _ZTSN6Attica11PrivateData6ParserE@Base 0.4.0
 _ZTSN6Attica12BuildService6ParserE@Base 0.4.0
 _ZTSN6Attica12Distribution6ParserE@Base 0.4.0
 _ZTSN6Attica12DownloadItem6ParserE@Base 0.4.0
 _ZTSN6Attica12HomePageType6ParserE@Base 0.4.0
 _ZTSN6Attica13ItemDeleteJobINS_11AchievementEEE@Base 0.4.0
 _ZTSN6Attica13RemoteAccount6ParserE@Base 0.4.0
 _ZTSN6Attica14AccountBalance6ParserE@Base 0.4.0
 _ZTSN6Attica14PublisherField6ParserE@Base 0.4.0
 _ZTSN6Attica15BuildServiceJob6ParserE@Base 0.4.0
 _ZTSN6Attica15ProviderManagerE@Base 0.4.0
 _ZTSN6Attica18KnowledgeBaseEntry6ParserE@Base 0.4.0
 _ZTSN6Attica21BuildServiceJobOutput6ParserE@Base 0.4.0
 _ZTSN6Attica5Event6ParserE@Base 0.4.0
 _ZTSN6Attica5Forum6ParserE@Base 0.4.0
 _ZTSN6Attica5Topic6ParserE@Base 0.4.0
 _ZTSN6Attica6Folder6ParserE@Base 0.4.0
 _ZTSN6Attica6GetJobE@Base 0.4.0
 _ZTSN6Attica6Person6ParserE@Base 0.4.0
 _ZTSN6Attica6PutJobE@Base 0.4.0
 _ZTSN6Attica7BaseJobE@Base 0.4.0
 _ZTSN6Attica7Comment6ParserE@Base 0.4.0
 _ZTSN6Attica7Content6ParserE@Base 0.4.0
 _ZTSN6Attica7ItemJobINS_11AchievementEEE@Base 0.4.0
 _ZTSN6Attica7ItemJobINS_11PrivateDataEEE@Base 0.4.0
 _ZTSN6Attica7ItemJobINS_12BuildServiceEEE@Base 0.4.0
 _ZTSN6Attica7ItemJobINS_12DownloadItemEEE@Base 0.4.0
 _ZTSN6Attica7ItemJobINS_13RemoteAccountEEE@Base 0.4.0
 _ZTSN6Attica7ItemJobINS_14AccountBalanceEEE@Base 0.4.0
 _ZTSN6Attica7ItemJobINS_15BuildServiceJobEEE@Base 0.4.0
 _ZTSN6Attica7ItemJobINS_18KnowledgeBaseEntryEEE@Base 0.4.0
 _ZTSN6Attica7ItemJobINS_21BuildServiceJobOutputEEE@Base 0.4.0
 _ZTSN6Attica7ItemJobINS_5EventEEE@Base 0.4.0
 _ZTSN6Attica7ItemJobINS_5ForumEEE@Base 0.4.0
 _ZTSN6Attica7ItemJobINS_6PersonEEE@Base 0.4.0
 _ZTSN6Attica7ItemJobINS_7ContentEEE@Base 0.4.0
 _ZTSN6Attica7ItemJobINS_7MessageEEE@Base 0.4.0
 _ZTSN6Attica7ItemJobINS_7ProjectEEE@Base 0.4.0
 _ZTSN6Attica7ItemJobINS_9PublisherEEE@Base 0.4.0
 _ZTSN6Attica7License6ParserE@Base 0.4.0
 _ZTSN6Attica7ListJobINS_11AchievementEEE@Base 0.4.0
 _ZTSN6Attica7ListJobINS_12BuildServiceEEE@Base 0.4.0
 _ZTSN6Attica7ListJobINS_12DistributionEEE@Base 0.4.0
 _ZTSN6Attica7ListJobINS_12DownloadItemEEE@Base 0.4.0
 _ZTSN6Attica7ListJobINS_12HomePageTypeEEE@Base 0.4.0
 _ZTSN6Attica7ListJobINS_13RemoteAccountEEE@Base 0.4.0
 _ZTSN6Attica7ListJobINS_14PublisherFieldEEE@Base 0.4.0
 _ZTSN6Attica7ListJobINS_15BuildServiceJobEEE@Base 0.4.0
 _ZTSN6Attica7ListJobINS_18KnowledgeBaseEntryEEE@Base 0.4.0
 _ZTSN6Attica7ListJobINS_5EventEEE@Base 0.4.0
 _ZTSN6Attica7ListJobINS_5ForumEEE@Base 0.4.0
 _ZTSN6Attica7ListJobINS_5TopicEEE@Base 0.4.0
 _ZTSN6Attica7ListJobINS_6FolderEEE@Base 0.4.0
 _ZTSN6Attica7ListJobINS_6PersonEEE@Base 0.4.0
 _ZTSN6Attica7ListJobINS_7CommentEEE@Base 0.4.0
 _ZTSN6Attica7ListJobINS_7ContentEEE@Base 0.4.0
 _ZTSN6Attica7ListJobINS_7LicenseEEE@Base 0.4.0
 _ZTSN6Attica7ListJobINS_7MessageEEE@Base 0.4.0
 _ZTSN6Attica7ListJobINS_7ProjectEEE@Base 0.4.0
 _ZTSN6Attica7ListJobINS_8ActivityEEE@Base 0.4.0
 _ZTSN6Attica7ListJobINS_8CategoryEEE@Base 0.4.0
 _ZTSN6Attica7ListJobINS_9PublisherEEE@Base 0.4.0
 _ZTSN6Attica7Message6ParserE@Base 0.4.0
 _ZTSN6Attica7PostJobE@Base 0.4.0
 _ZTSN6Attica7Project6ParserE@Base 0.4.0
 _ZTSN6Attica8Activity6ParserE@Base 0.4.0
 _ZTSN6Attica8Category6ParserE@Base 0.4.0
 _ZTSN6Attica9DeleteJobE@Base 0.4.0
 _ZTSN6Attica9Publisher6ParserE@Base 0.4.0
 _ZTVN6Attica10ItemPutJobINS_11AchievementEEE@Base 0.4.0
 _ZTVN6Attica11Achievement6ParserE@Base 0.4.0
 _ZTVN6Attica11ItemPostJobINS_11AchievementEEE@Base 0.4.0
 _ZTVN6Attica11ItemPostJobINS_12BuildServiceEEE@Base 0.4.0
 _ZTVN6Attica11ItemPostJobINS_13RemoteAccountEEE@Base 0.4.0
 _ZTVN6Attica11ItemPostJobINS_15BuildServiceJobEEE@Base 0.4.0
 _ZTVN6Attica11ItemPostJobINS_5ForumEEE@Base 0.4.0
 _ZTVN6Attica11ItemPostJobINS_7CommentEEE@Base 0.4.0
 _ZTVN6Attica11ItemPostJobINS_7ContentEEE@Base 0.4.0
 _ZTVN6Attica11ItemPostJobINS_7ProjectEEE@Base 0.4.0
 _ZTVN6Attica11ItemPostJobINS_9PublisherEEE@Base 0.4.0
 _ZTVN6Attica11PrivateData6ParserE@Base 0.4.0
 _ZTVN6Attica12BuildService6ParserE@Base 0.4.0
 _ZTVN6Attica12Distribution6ParserE@Base 0.4.0
 _ZTVN6Attica12DownloadItem6ParserE@Base 0.4.0
 _ZTVN6Attica12HomePageType6ParserE@Base 0.4.0
 _ZTVN6Attica13ItemDeleteJobINS_11AchievementEEE@Base 0.4.0
 _ZTVN6Attica13RemoteAccount6ParserE@Base 0.4.0
 _ZTVN6Attica14AccountBalance6ParserE@Base 0.4.0
 _ZTVN6Attica14PublisherField6ParserE@Base 0.4.0
 _ZTVN6Attica15BuildServiceJob6ParserE@Base 0.4.0
 _ZTVN6Attica15ProviderManagerE@Base 0.4.0
 _ZTVN6Attica18KnowledgeBaseEntry6ParserE@Base 0.4.0
 _ZTVN6Attica21BuildServiceJobOutput6ParserE@Base 0.4.0
 _ZTVN6Attica5Event6ParserE@Base 0.4.0
 _ZTVN6Attica5Forum6ParserE@Base 0.4.0
 _ZTVN6Attica5Topic6ParserE@Base 0.4.0
 _ZTVN6Attica6Folder6ParserE@Base 0.4.0
 _ZTVN6Attica6GetJobE@Base 0.4.0
 _ZTVN6Attica6Person6ParserE@Base 0.4.0
 _ZTVN6Attica6PutJobE@Base 0.4.0
 _ZTVN6Attica7BaseJobE@Base 0.4.0
 _ZTVN6Attica7Comment6ParserE@Base 0.4.0
 _ZTVN6Attica7Content6ParserE@Base 0.4.0
 _ZTVN6Attica7ItemJobINS_11AchievementEEE@Base 0.4.0
 _ZTVN6Attica7ItemJobINS_11PrivateDataEEE@Base 0.4.0
 _ZTVN6Attica7ItemJobINS_12BuildServiceEEE@Base 0.4.0
 _ZTVN6Attica7ItemJobINS_12DownloadItemEEE@Base 0.4.0
 _ZTVN6Attica7ItemJobINS_13RemoteAccountEEE@Base 0.4.0
 _ZTVN6Attica7ItemJobINS_14AccountBalanceEEE@Base 0.4.0
 _ZTVN6Attica7ItemJobINS_15BuildServiceJobEEE@Base 0.4.0
 _ZTVN6Attica7ItemJobINS_18KnowledgeBaseEntryEEE@Base 0.4.0
 _ZTVN6Attica7ItemJobINS_21BuildServiceJobOutputEEE@Base 0.4.0
 _ZTVN6Attica7ItemJobINS_5EventEEE@Base 0.4.0
 _ZTVN6Attica7ItemJobINS_5ForumEEE@Base 0.4.0
 _ZTVN6Attica7ItemJobINS_6PersonEEE@Base 0.4.0
 _ZTVN6Attica7ItemJobINS_7ContentEEE@Base 0.4.0
 _ZTVN6Attica7ItemJobINS_7MessageEEE@Base 0.4.0
 _ZTVN6Attica7ItemJobINS_7ProjectEEE@Base 0.4.0
 _ZTVN6Attica7ItemJobINS_9PublisherEEE@Base 0.4.0
 _ZTVN6Attica7License6ParserE@Base 0.4.0
 _ZTVN6Attica7ListJobINS_11AchievementEEE@Base 0.4.0
 _ZTVN6Attica7ListJobINS_12BuildServiceEEE@Base 0.4.0
 _ZTVN6Attica7ListJobINS_12DistributionEEE@Base 0.4.0
 _ZTVN6Attica7ListJobINS_12DownloadItemEEE@Base 0.4.0
 _ZTVN6Attica7ListJobINS_12HomePageTypeEEE@Base 0.4.0
 _ZTVN6Attica7ListJobINS_13RemoteAccountEEE@Base 0.4.0
 _ZTVN6Attica7ListJobINS_14PublisherFieldEEE@Base 0.4.0
 _ZTVN6Attica7ListJobINS_15BuildServiceJobEEE@Base 0.4.0
 _ZTVN6Attica7ListJobINS_18KnowledgeBaseEntryEEE@Base 0.4.0
 _ZTVN6Attica7ListJobINS_5EventEEE@Base 0.4.0
 _ZTVN6Attica7ListJobINS_5ForumEEE@Base 0.4.0
 _ZTVN6Attica7ListJobINS_5TopicEEE@Base 0.4.0
 _ZTVN6Attica7ListJobINS_6FolderEEE@Base 0.4.0
 _ZTVN6Attica7ListJobINS_6PersonEEE@Base 0.4.0
 _ZTVN6Attica7ListJobINS_7CommentEEE@Base 0.4.0
 _ZTVN6Attica7ListJobINS_7ContentEEE@Base 0.4.0
 _ZTVN6Attica7ListJobINS_7LicenseEEE@Base 0.4.0
 _ZTVN6Attica7ListJobINS_7MessageEEE@Base 0.4.0
 _ZTVN6Attica7ListJobINS_7ProjectEEE@Base 0.4.0
 _ZTVN6Attica7ListJobINS_8ActivityEEE@Base 0.4.0
 _ZTVN6Attica7ListJobINS_8CategoryEEE@Base 0.4.0
 _ZTVN6Attica7ListJobINS_9PublisherEEE@Base 0.4.0
 _ZTVN6Attica7Message6ParserE@Base 0.4.0
 _ZTVN6Attica7PostJobE@Base 0.4.0
 _ZTVN6Attica7Project6ParserE@Base 0.4.0
 _ZTVN6Attica8Activity6ParserE@Base 0.4.0
 _ZTVN6Attica8Category6ParserE@Base 0.4.0
 _ZTVN6Attica9DeleteJobE@Base 0.4.0
 _ZTVN6Attica9Publisher6ParserE@Base 0.4.0
