# SymbolsHelper-Confirmed: 4:4.8.4 amd64
libkasten1controllers.so.1 libkasten1controllers1 #MINVER#
 ABI_1_0@ABI_1_0 4:4.8.4
 _ZN7Kasten112TerminalTool11qt_metacallEN11QMetaObject4CallEiPPv@ABI_1_0 4:4.8.4
 _ZN7Kasten112TerminalTool11qt_metacastEPKc@ABI_1_0 4:4.8.4
 _ZN7Kasten112TerminalTool14setTargetModelEPNS_13AbstractModelE@ABI_1_0 4:4.8.4
 _ZN7Kasten112TerminalTool16staticMetaObjectE@ABI_1_0 4:4.8.4
 _ZN7Kasten112TerminalTool17currentUrlChangedERK4KUrl@ABI_1_0 4:4.8.4
 _ZN7Kasten112TerminalToolC1EPNS_19DocumentSyncManagerE@ABI_1_0 4:4.8.4
 _ZN7Kasten112TerminalToolC2EPNS_19DocumentSyncManagerE@ABI_1_0 4:4.8.4
 _ZN7Kasten112TerminalToolD0Ev@ABI_1_0 4:4.8.4
 _ZN7Kasten112TerminalToolD1Ev@ABI_1_0 4:4.8.4
 _ZN7Kasten112TerminalToolD2Ev@ABI_1_0 4:4.8.4
 _ZN7Kasten113DocumentsTool11qt_metacallEN11QMetaObject4CallEiPPv@ABI_1_0 4:4.8.4
 _ZN7Kasten113DocumentsTool11qt_metacastEPKc@ABI_1_0 4:4.8.4
 _ZN7Kasten113DocumentsTool14documentsAddedERK5QListIPNS_16AbstractDocumentEE@ABI_1_0 4:4.8.4
 _ZN7Kasten113DocumentsTool14setTargetModelEPNS_13AbstractModelE@ABI_1_0 4:4.8.4
 _ZN7Kasten113DocumentsTool16documentsClosingERK5QListIPNS_16AbstractDocumentEE@ABI_1_0 4:4.8.4
 _ZN7Kasten113DocumentsTool16staticMetaObjectE@ABI_1_0 4:4.8.4
 _ZN7Kasten113DocumentsTool19setFocussedDocumentEPNS_16AbstractDocumentE@ABI_1_0 4:4.8.4
 _ZN7Kasten113DocumentsTool23focussedDocumentChangedEPNS_16AbstractDocumentE@ABI_1_0 4:4.8.4
 _ZN7Kasten113DocumentsToolC1EPNS_15DocumentManagerE@ABI_1_0 4:4.8.4
 _ZN7Kasten113DocumentsToolC2EPNS_15DocumentManagerE@ABI_1_0 4:4.8.4
 _ZN7Kasten113DocumentsToolD0Ev@ABI_1_0 4:4.8.4
 _ZN7Kasten113DocumentsToolD1Ev@ABI_1_0 4:4.8.4
 _ZN7Kasten113DocumentsToolD2Ev@ABI_1_0 4:4.8.4
 _ZN7Kasten114QuitController11qt_metacallEN11QMetaObject4CallEiPPv@ABI_1_0 4:4.8.4
 _ZN7Kasten114QuitController11qt_metacastEPKc@ABI_1_0 4:4.8.4
 _ZN7Kasten114QuitController14setTargetModelEPNS_13AbstractModelE@ABI_1_0 4:4.8.4
 _ZN7Kasten114QuitController16staticMetaObjectE@ABI_1_0 4:4.8.4
 _ZN7Kasten114QuitController4quitEv@ABI_1_0 4:4.8.4
 _ZN7Kasten114QuitControllerC1EPNS_8KProgramEP13KXmlGuiWindow@ABI_1_0 4:4.8.4
 _ZN7Kasten114QuitControllerC2EPNS_8KProgramEP13KXmlGuiWindow@ABI_1_0 4:4.8.4
 _ZN7Kasten114QuitControllerD0Ev@ABI_1_0 4:4.8.4
 _ZN7Kasten114QuitControllerD1Ev@ABI_1_0 4:4.8.4
 _ZN7Kasten114QuitControllerD2Ev@ABI_1_0 4:4.8.4
 _ZN7Kasten114ZoomController11qt_metacallEN11QMetaObject4CallEiPPv@ABI_1_0 4:4.8.4
 _ZN7Kasten114ZoomController11qt_metacastEPKc@ABI_1_0 4:4.8.4
 _ZN7Kasten114ZoomController14setTargetModelEPNS_13AbstractModelE@ABI_1_0 4:4.8.4
 _ZN7Kasten114ZoomController16staticMetaObjectE@ABI_1_0 4:4.8.4
 _ZN7Kasten114ZoomController17onZoomLevelChangeEd@ABI_1_0 4:4.8.4
 _ZN7Kasten114ZoomController6zoomInEv@ABI_1_0 4:4.8.4
 _ZN7Kasten114ZoomController7zoomOutEv@ABI_1_0 4:4.8.4
 _ZN7Kasten114ZoomControllerC1EP13KXMLGUIClient@ABI_1_0 4:4.8.4
 _ZN7Kasten114ZoomControllerC2EP13KXMLGUIClient@ABI_1_0 4:4.8.4
 _ZN7Kasten114ZoomControllerD0Ev@ABI_1_0 4:4.8.4
 _ZN7Kasten114ZoomControllerD1Ev@ABI_1_0 4:4.8.4
 _ZN7Kasten114ZoomControllerD2Ev@ABI_1_0 4:4.8.4
 _ZN7Kasten115CloseController11qt_metacallEN11QMetaObject4CallEiPPv@ABI_1_0 4:4.8.4
 _ZN7Kasten115CloseController11qt_metacastEPKc@ABI_1_0 4:4.8.4
 _ZN7Kasten115CloseController13closeAllOtherEv@ABI_1_0 4:4.8.4
 _ZN7Kasten115CloseController14setTargetModelEPNS_13AbstractModelE@ABI_1_0 4:4.8.4
 _ZN7Kasten115CloseController16staticMetaObjectE@ABI_1_0 4:4.8.4
 _ZN7Kasten115CloseController18onDocumentsChangedEv@ABI_1_0 4:4.8.4
 _ZN7Kasten115CloseController5closeEv@ABI_1_0 4:4.8.4
 _ZN7Kasten115CloseController8closeAllEv@ABI_1_0 4:4.8.4
 _ZN7Kasten115CloseControllerC1EPNS_24AbstractDocumentStrategyEP13KXMLGUIClientb@ABI_1_0 4:4.8.4
 _ZN7Kasten115CloseControllerC2EPNS_24AbstractDocumentStrategyEP13KXMLGUIClientb@ABI_1_0 4:4.8.4
 _ZN7Kasten115CloseControllerD0Ev@ABI_1_0 4:4.8.4
 _ZN7Kasten115CloseControllerD1Ev@ABI_1_0 4:4.8.4
 _ZN7Kasten115CloseControllerD2Ev@ABI_1_0 4:4.8.4
 _ZN7Kasten115VersionViewTool11qt_metacallEN11QMetaObject4CallEiPPv@ABI_1_0 4:4.8.4
 _ZN7Kasten115VersionViewTool11qt_metacastEPKc@ABI_1_0 4:4.8.4
 _ZN7Kasten115VersionViewTool12modelChangedEPNS_13AbstractModelE@ABI_1_0 4:4.8.4
 _ZN7Kasten115VersionViewTool14setTargetModelEPNS_13AbstractModelE@ABI_1_0 4:4.8.4
 _ZN7Kasten115VersionViewTool16staticMetaObjectE@ABI_1_0 4:4.8.4
 _ZN7Kasten115VersionViewToolC1Ev@ABI_1_0 4:4.8.4
 _ZN7Kasten115VersionViewToolC2Ev@ABI_1_0 4:4.8.4
 _ZN7Kasten115VersionViewToolD0Ev@ABI_1_0 4:4.8.4
 _ZN7Kasten115VersionViewToolD1Ev@ABI_1_0 4:4.8.4
 _ZN7Kasten115VersionViewToolD2Ev@ABI_1_0 4:4.8.4
 _ZN7Kasten116CopyAsController11qt_metacallEN11QMetaObject4CallEiPPv@ABI_1_0 4:4.8.4
 _ZN7Kasten116CopyAsController11qt_metacastEPKc@ABI_1_0 4:4.8.4
 _ZN7Kasten116CopyAsController13updateActionsEv@ABI_1_0 4:4.8.4
 _ZN7Kasten116CopyAsController14setTargetModelEPNS_13AbstractModelE@ABI_1_0 4:4.8.4
 _ZN7Kasten116CopyAsController16staticMetaObjectE@ABI_1_0 4:4.8.4
 _ZN7Kasten116CopyAsController17onActionTriggeredEP7QAction@ABI_1_0 4:4.8.4
 _ZN7Kasten116CopyAsControllerC1EPNS_21ModelCodecViewManagerEPNS_17ModelCodecManagerEP13KXMLGUIClient@ABI_1_0 4:4.8.4
 _ZN7Kasten116CopyAsControllerC2EPNS_21ModelCodecViewManagerEPNS_17ModelCodecManagerEP13KXMLGUIClient@ABI_1_0 4:4.8.4
 _ZN7Kasten116CopyAsControllerD0Ev@ABI_1_0 4:4.8.4
 _ZN7Kasten116CopyAsControllerD1Ev@ABI_1_0 4:4.8.4
 _ZN7Kasten116CopyAsControllerD2Ev@ABI_1_0 4:4.8.4
 _ZN7Kasten116ExportController11qt_metacallEN11QMetaObject4CallEiPPv@ABI_1_0 4:4.8.4
 _ZN7Kasten116ExportController11qt_metacastEPKc@ABI_1_0 4:4.8.4
 _ZN7Kasten116ExportController13updateActionsEv@ABI_1_0 4:4.8.4
 _ZN7Kasten116ExportController14setTargetModelEPNS_13AbstractModelE@ABI_1_0 4:4.8.4
 _ZN7Kasten116ExportController16staticMetaObjectE@ABI_1_0 4:4.8.4
 _ZN7Kasten116ExportController17onActionTriggeredEP7QAction@ABI_1_0 4:4.8.4
 _ZN7Kasten116ExportControllerC1EPNS_21ModelCodecViewManagerEPNS_17ModelCodecManagerEP13KXMLGUIClient@ABI_1_0 4:4.8.4
 _ZN7Kasten116ExportControllerC2EPNS_21ModelCodecViewManagerEPNS_17ModelCodecManagerEP13KXMLGUIClient@ABI_1_0 4:4.8.4
 _ZN7Kasten116ExportControllerD0Ev@ABI_1_0 4:4.8.4
 _ZN7Kasten116ExportControllerD1Ev@ABI_1_0 4:4.8.4
 _ZN7Kasten116ExportControllerD2Ev@ABI_1_0 4:4.8.4
 _ZN7Kasten116InsertController11qt_metacallEN11QMetaObject4CallEiPPv@ABI_1_0 4:4.8.4
 _ZN7Kasten116InsertController11qt_metacastEPKc@ABI_1_0 4:4.8.4
 _ZN7Kasten116InsertController13updateActionsEv@ABI_1_0 4:4.8.4
 _ZN7Kasten116InsertController14setTargetModelEPNS_13AbstractModelE@ABI_1_0 4:4.8.4
 _ZN7Kasten116InsertController16staticMetaObjectE@ABI_1_0 4:4.8.4
 _ZN7Kasten116InsertController17onActionTriggeredEP7QAction@ABI_1_0 4:4.8.4
 _ZN7Kasten116InsertController17onReadOnlyChangedEb@ABI_1_0 4:4.8.4
 _ZN7Kasten116InsertControllerC1EPNS_21ModelCodecViewManagerEPNS_17ModelCodecManagerEP13KXMLGUIClient@ABI_1_0 4:4.8.4
 _ZN7Kasten116InsertControllerC2EPNS_21ModelCodecViewManagerEPNS_17ModelCodecManagerEP13KXMLGUIClient@ABI_1_0 4:4.8.4
 _ZN7Kasten116InsertControllerD0Ev@ABI_1_0 4:4.8.4
 _ZN7Kasten116InsertControllerD1Ev@ABI_1_0 4:4.8.4
 _ZN7Kasten116InsertControllerD2Ev@ABI_1_0 4:4.8.4
 _ZN7Kasten116LoaderController10loadRecentERK4KUrl@ABI_1_0 4:4.8.4
 _ZN7Kasten116LoaderController11qt_metacallEN11QMetaObject4CallEiPPv@ABI_1_0 4:4.8.4
 _ZN7Kasten116LoaderController11qt_metacastEPKc@ABI_1_0 4:4.8.4
 _ZN7Kasten116LoaderController14setTargetModelEPNS_13AbstractModelE@ABI_1_0 4:4.8.4
 _ZN7Kasten116LoaderController16staticMetaObjectE@ABI_1_0 4:4.8.4
 _ZN7Kasten116LoaderController4loadEv@ABI_1_0 4:4.8.4
 _ZN7Kasten116LoaderController9onUrlUsedERK4KUrl@ABI_1_0 4:4.8.4
 _ZN7Kasten116LoaderControllerC1EPNS_24AbstractDocumentStrategyEP13KXMLGUIClient@ABI_1_0 4:4.8.4
 _ZN7Kasten116LoaderControllerC2EPNS_24AbstractDocumentStrategyEP13KXMLGUIClient@ABI_1_0 4:4.8.4
 _ZN7Kasten116LoaderControllerD0Ev@ABI_1_0 4:4.8.4
 _ZN7Kasten116LoaderControllerD1Ev@ABI_1_0 4:4.8.4
 _ZN7Kasten116LoaderControllerD2Ev@ABI_1_0 4:4.8.4
 _ZN7Kasten116SelectController11qt_metacallEN11QMetaObject4CallEiPPv@ABI_1_0 4:4.8.4
 _ZN7Kasten116SelectController11qt_metacastEPKc@ABI_1_0 4:4.8.4
 _ZN7Kasten116SelectController14setTargetModelEPNS_13AbstractModelE@ABI_1_0 4:4.8.4
 _ZN7Kasten116SelectController16staticMetaObjectE@ABI_1_0 4:4.8.4
 _ZN7Kasten116SelectController24onHasSelectedDataChangedEb@ABI_1_0 4:4.8.4
 _ZN7Kasten116SelectController8unselectEv@ABI_1_0 4:4.8.4
 _ZN7Kasten116SelectController9selectAllEv@ABI_1_0 4:4.8.4
 _ZN7Kasten116SelectControllerC1EP13KXMLGUIClient@ABI_1_0 4:4.8.4
 _ZN7Kasten116SelectControllerC2EP13KXMLGUIClient@ABI_1_0 4:4.8.4
 _ZN7Kasten116SelectControllerD0Ev@ABI_1_0 4:4.8.4
 _ZN7Kasten116SelectControllerD1Ev@ABI_1_0 4:4.8.4
 _ZN7Kasten116SelectControllerD2Ev@ABI_1_0 4:4.8.4
 _ZN7Kasten116TerminalToolViewC1EPNS_12TerminalToolE@ABI_1_0 4:4.8.4
 _ZN7Kasten116TerminalToolViewC2EPNS_12TerminalToolE@ABI_1_0 4:4.8.4
 _ZN7Kasten116TerminalToolViewD0Ev@ABI_1_0 4:4.8.4
 _ZN7Kasten116TerminalToolViewD1Ev@ABI_1_0 4:4.8.4
 _ZN7Kasten116TerminalToolViewD2Ev@ABI_1_0 4:4.8.4
 _ZN7Kasten117CreatorController11qt_metacallEN11QMetaObject4CallEiPPv@ABI_1_0 4:4.8.4
 _ZN7Kasten117CreatorController11qt_metacastEPKc@ABI_1_0 4:4.8.4
 _ZN7Kasten117CreatorController14setTargetModelEPNS_13AbstractModelE@ABI_1_0 4:4.8.4
 _ZN7Kasten117CreatorController16staticMetaObjectE@ABI_1_0 4:4.8.4
 _ZN7Kasten117CreatorController20onNewActionTriggeredEv@ABI_1_0 4:4.8.4
 _ZN7Kasten117CreatorController33onNewFromClipboardActionTriggeredEv@ABI_1_0 4:4.8.4
 _ZN7Kasten117CreatorController33onNewFromGeneratorActionTriggeredEv@ABI_1_0 4:4.8.4
 _ZN7Kasten117CreatorControllerC1EPNS_17ModelCodecManagerEPNS_24AbstractDocumentStrategyEP13KXMLGUIClient@ABI_1_0 4:4.8.4
 _ZN7Kasten117CreatorControllerC2EPNS_17ModelCodecManagerEPNS_24AbstractDocumentStrategyEP13KXMLGUIClient@ABI_1_0 4:4.8.4
 _ZN7Kasten117CreatorControllerD0Ev@ABI_1_0 4:4.8.4
 _ZN7Kasten117CreatorControllerD1Ev@ABI_1_0 4:4.8.4
 _ZN7Kasten117CreatorControllerD2Ev@ABI_1_0 4:4.8.4
 _ZN7Kasten117DocumentsToolViewC1EPNS_13DocumentsToolE@ABI_1_0 4:4.8.4
 _ZN7Kasten117DocumentsToolViewC2EPNS_13DocumentsToolE@ABI_1_0 4:4.8.4
 _ZN7Kasten117DocumentsToolViewD0Ev@ABI_1_0 4:4.8.4
 _ZN7Kasten117DocumentsToolViewD1Ev@ABI_1_0 4:4.8.4
 _ZN7Kasten117DocumentsToolViewD2Ev@ABI_1_0 4:4.8.4
 _ZN7Kasten117VersionController11qt_metacallEN11QMetaObject4CallEiPPv@ABI_1_0 4:4.8.4
 _ZN7Kasten117VersionController11qt_metacastEPKc@ABI_1_0 4:4.8.4
 _ZN7Kasten117VersionController14setTargetModelEPNS_13AbstractModelE@ABI_1_0 4:4.8.4
 _ZN7Kasten117VersionController16staticMetaObjectE@ABI_1_0 4:4.8.4
 _ZN7Kasten117VersionController17onReadOnlyChangedEb@ABI_1_0 4:4.8.4
 _ZN7Kasten117VersionController21onVersionIndexChangedEi@ABI_1_0 4:4.8.4
 _ZN7Kasten117VersionController27onNewerVersionMenuTriggeredEP7QAction@ABI_1_0 4:4.8.4
 _ZN7Kasten117VersionController27onOlderVersionMenuTriggeredEP7QAction@ABI_1_0 4:4.8.4
 _ZN7Kasten117VersionController28onSetToNewerVersionTriggeredEv@ABI_1_0 4:4.8.4
 _ZN7Kasten117VersionController28onSetToOlderVersionTriggeredEv@ABI_1_0 4:4.8.4
 _ZN7Kasten117VersionController29onNewerVersionMenuAboutToShowEv@ABI_1_0 4:4.8.4
 _ZN7Kasten117VersionController29onOlderVersionMenuAboutToShowEv@ABI_1_0 4:4.8.4
 _ZN7Kasten117VersionControllerC1EP13KXMLGUIClient@ABI_1_0 4:4.8.4
 _ZN7Kasten117VersionControllerC2EP13KXMLGUIClient@ABI_1_0 4:4.8.4
 _ZN7Kasten117VersionControllerD0Ev@ABI_1_0 4:4.8.4
 _ZN7Kasten117VersionControllerD1Ev@ABI_1_0 4:4.8.4
 _ZN7Kasten117VersionControllerD2Ev@ABI_1_0 4:4.8.4
 _ZN7Kasten117ZoomBarController11qt_metacallEN11QMetaObject4CallEiPPv@ABI_1_0 4:4.8.4
 _ZN7Kasten117ZoomBarController11qt_metacastEPKc@ABI_1_0 4:4.8.4
 _ZN7Kasten117ZoomBarController14setTargetModelEPNS_13AbstractModelE@ABI_1_0 4:4.8.4
 _ZN7Kasten117ZoomBarController16staticMetaObjectE@ABI_1_0 4:4.8.4
 _ZN7Kasten117ZoomBarControllerC1EPNS_9StatusBarE@ABI_1_0 4:4.8.4
 _ZN7Kasten117ZoomBarControllerC2EPNS_9StatusBarE@ABI_1_0 4:4.8.4
 _ZN7Kasten117ZoomBarControllerD0Ev@ABI_1_0 4:4.8.4
 _ZN7Kasten117ZoomBarControllerD1Ev@ABI_1_0 4:4.8.4
 _ZN7Kasten117ZoomBarControllerD2Ev@ABI_1_0 4:4.8.4
 _ZN7Kasten118ReadOnlyController11qt_metacallEN11QMetaObject4CallEiPPv@ABI_1_0 4:4.8.4
 _ZN7Kasten118ReadOnlyController11qt_metacastEPKc@ABI_1_0 4:4.8.4
 _ZN7Kasten118ReadOnlyController11setReadOnlyEb@ABI_1_0 4:4.8.4
 _ZN7Kasten118ReadOnlyController14setTargetModelEPNS_13AbstractModelE@ABI_1_0 4:4.8.4
 _ZN7Kasten118ReadOnlyController16staticMetaObjectE@ABI_1_0 4:4.8.4
 _ZN7Kasten118ReadOnlyControllerC1EP13KXMLGUIClient@ABI_1_0 4:4.8.4
 _ZN7Kasten118ReadOnlyControllerC2EP13KXMLGUIClient@ABI_1_0 4:4.8.4
 _ZN7Kasten118ReadOnlyControllerD0Ev@ABI_1_0 4:4.8.4
 _ZN7Kasten118ReadOnlyControllerD1Ev@ABI_1_0 4:4.8.4
 _ZN7Kasten118ReadOnlyControllerD2Ev@ABI_1_0 4:4.8.4
 _ZN7Kasten119ClipboardController11qt_metacallEN11QMetaObject4CallEiPPv@ABI_1_0 4:4.8.4
 _ZN7Kasten119ClipboardController11qt_metacastEPKc@ABI_1_0 4:4.8.4
 _ZN7Kasten119ClipboardController14setTargetModelEPNS_13AbstractModelE@ABI_1_0 4:4.8.4
 _ZN7Kasten119ClipboardController16staticMetaObjectE@ABI_1_0 4:4.8.4
 _ZN7Kasten119ClipboardController17onReadOnlyChangedEb@ABI_1_0 4:4.8.4
 _ZN7Kasten119ClipboardController22onClipboardDataChangedEv@ABI_1_0 4:4.8.4
 _ZN7Kasten119ClipboardController24onHasSelectedDataChangedEb@ABI_1_0 4:4.8.4
 _ZN7Kasten119ClipboardController3cutEv@ABI_1_0 4:4.8.4
 _ZN7Kasten119ClipboardController4copyEv@ABI_1_0 4:4.8.4
 _ZN7Kasten119ClipboardController5pasteEv@ABI_1_0 4:4.8.4
 _ZN7Kasten119ClipboardControllerC1EP13KXMLGUIClient@ABI_1_0 4:4.8.4
 _ZN7Kasten119ClipboardControllerC2EP13KXMLGUIClient@ABI_1_0 4:4.8.4
 _ZN7Kasten119ClipboardControllerD0Ev@ABI_1_0 4:4.8.4
 _ZN7Kasten119ClipboardControllerD1Ev@ABI_1_0 4:4.8.4
 _ZN7Kasten119ClipboardControllerD2Ev@ABI_1_0 4:4.8.4
 _ZN7Kasten119SetRemoteController11qt_metacallEN11QMetaObject4CallEiPPv@ABI_1_0 4:4.8.4
 _ZN7Kasten119SetRemoteController11qt_metacastEPKc@ABI_1_0 4:4.8.4
 _ZN7Kasten119SetRemoteController14setTargetModelEPNS_13AbstractModelE@ABI_1_0 4:4.8.4
 _ZN7Kasten119SetRemoteController16staticMetaObjectE@ABI_1_0 4:4.8.4
 _ZN7Kasten119SetRemoteController6saveAsEv@ABI_1_0 4:4.8.4
 _ZN7Kasten119SetRemoteControllerC1EPNS_19DocumentSyncManagerEP13KXMLGUIClient@ABI_1_0 4:4.8.4
 _ZN7Kasten119SetRemoteControllerC2EPNS_19DocumentSyncManagerEP13KXMLGUIClient@ABI_1_0 4:4.8.4
 _ZN7Kasten119SetRemoteControllerD0Ev@ABI_1_0 4:4.8.4
 _ZN7Kasten119SetRemoteControllerD1Ev@ABI_1_0 4:4.8.4
 _ZN7Kasten119SetRemoteControllerD2Ev@ABI_1_0 4:4.8.4
 _ZN7Kasten119VersionViewToolViewC1EPNS_15VersionViewToolE@ABI_1_0 4:4.8.4
 _ZN7Kasten119VersionViewToolViewC2EPNS_15VersionViewToolE@ABI_1_0 4:4.8.4
 _ZN7Kasten119VersionViewToolViewD0Ev@ABI_1_0 4:4.8.4
 _ZN7Kasten119VersionViewToolViewD1Ev@ABI_1_0 4:4.8.4
 _ZN7Kasten119VersionViewToolViewD2Ev@ABI_1_0 4:4.8.4
 _ZN7Kasten120FullScreenController11qt_metacallEN11QMetaObject4CallEiPPv@ABI_1_0 4:4.8.4
 _ZN7Kasten120FullScreenController11qt_metacastEPKc@ABI_1_0 4:4.8.4
 _ZN7Kasten120FullScreenController14setTargetModelEPNS_13AbstractModelE@ABI_1_0 4:4.8.4
 _ZN7Kasten120FullScreenController16staticMetaObjectE@ABI_1_0 4:4.8.4
 _ZN7Kasten120FullScreenController16switchFullScreenEb@ABI_1_0 4:4.8.4
 _ZN7Kasten120FullScreenControllerC1EP13KXmlGuiWindow@ABI_1_0 4:4.8.4
 _ZN7Kasten120FullScreenControllerC2EP13KXmlGuiWindow@ABI_1_0 4:4.8.4
 _ZN7Kasten120FullScreenControllerD0Ev@ABI_1_0 4:4.8.4
 _ZN7Kasten120FullScreenControllerD1Ev@ABI_1_0 4:4.8.4
 _ZN7Kasten120FullScreenControllerD2Ev@ABI_1_0 4:4.8.4
 _ZN7Kasten120SwitchViewController11qt_metacallEN11QMetaObject4CallEiPPv@ABI_1_0 4:4.8.4
 _ZN7Kasten120SwitchViewController11qt_metacastEPKc@ABI_1_0 4:4.8.4
 _ZN7Kasten120SwitchViewController13updateActionsEv@ABI_1_0 4:4.8.4
 _ZN7Kasten120SwitchViewController14setTargetModelEPNS_13AbstractModelE@ABI_1_0 4:4.8.4
 _ZN7Kasten120SwitchViewController16staticMetaObjectE@ABI_1_0 4:4.8.4
 _ZN7Kasten120SwitchViewController7forwardEv@ABI_1_0 4:4.8.4
 _ZN7Kasten120SwitchViewController8backwardEv@ABI_1_0 4:4.8.4
 _ZN7Kasten120SwitchViewControllerC1EPNS_20AbstractGroupedViewsEP13KXMLGUIClient@ABI_1_0 4:4.8.4
 _ZN7Kasten120SwitchViewControllerC2EPNS_20AbstractGroupedViewsEP13KXMLGUIClient@ABI_1_0 4:4.8.4
 _ZN7Kasten120SwitchViewControllerD0Ev@ABI_1_0 4:4.8.4
 _ZN7Kasten120SwitchViewControllerD1Ev@ABI_1_0 4:4.8.4
 _ZN7Kasten120SwitchViewControllerD2Ev@ABI_1_0 4:4.8.4
 _ZN7Kasten121FileSystemBrowserTool11qt_metacallEN11QMetaObject4CallEiPPv@ABI_1_0 4:4.8.4
 _ZN7Kasten121FileSystemBrowserTool11qt_metacastEPKc@ABI_1_0 4:4.8.4
 _ZN7Kasten121FileSystemBrowserTool14setTargetModelEPNS_13AbstractModelE@ABI_1_0 4:4.8.4
 _ZN7Kasten121FileSystemBrowserTool16staticMetaObjectE@ABI_1_0 4:4.8.4
 _ZN7Kasten121FileSystemBrowserTool20hasCurrentUrlChangedEb@ABI_1_0 4:4.8.4
 _ZN7Kasten121FileSystemBrowserTool4openERK4KUrl@ABI_1_0 4:4.8.4
 _ZN7Kasten121FileSystemBrowserToolC1EPNS_19DocumentSyncManagerE@ABI_1_0 4:4.8.4
 _ZN7Kasten121FileSystemBrowserToolC2EPNS_19DocumentSyncManagerE@ABI_1_0 4:4.8.4
 _ZN7Kasten121FileSystemBrowserToolD0Ev@ABI_1_0 4:4.8.4
 _ZN7Kasten121FileSystemBrowserToolD1Ev@ABI_1_0 4:4.8.4
 _ZN7Kasten121FileSystemBrowserToolD2Ev@ABI_1_0 4:4.8.4
 _ZN7Kasten121ModifiedBarController11qt_metacallEN11QMetaObject4CallEiPPv@ABI_1_0 4:4.8.4
 _ZN7Kasten121ModifiedBarController11qt_metacastEPKc@ABI_1_0 4:4.8.4
 _ZN7Kasten121ModifiedBarController14setTargetModelEPNS_13AbstractModelE@ABI_1_0 4:4.8.4
 _ZN7Kasten121ModifiedBarController16staticMetaObjectE@ABI_1_0 4:4.8.4
 _ZN7Kasten121ModifiedBarController23onLocalSyncStateChangedENS_14LocalSyncStateE@ABI_1_0 4:4.8.4
 _ZN7Kasten121ModifiedBarController24onRemoteSyncStateChangedENS_15RemoteSyncStateE@ABI_1_0 4:4.8.4
 _ZN7Kasten121ModifiedBarControllerC1EPNS_9StatusBarE@ABI_1_0 4:4.8.4
 _ZN7Kasten121ModifiedBarControllerC2EPNS_9StatusBarE@ABI_1_0 4:4.8.4
 _ZN7Kasten121ModifiedBarControllerD0Ev@ABI_1_0 4:4.8.4
 _ZN7Kasten121ModifiedBarControllerD1Ev@ABI_1_0 4:4.8.4
 _ZN7Kasten121ModifiedBarControllerD2Ev@ABI_1_0 4:4.8.4
 _ZN7Kasten121ReadOnlyBarController11qt_metacallEN11QMetaObject4CallEiPPv@ABI_1_0 4:4.8.4
 _ZN7Kasten121ReadOnlyBarController11qt_metacastEPKc@ABI_1_0 4:4.8.4
 _ZN7Kasten121ReadOnlyBarController11setReadOnlyEb@ABI_1_0 4:4.8.4
 _ZN7Kasten121ReadOnlyBarController14setTargetModelEPNS_13AbstractModelE@ABI_1_0 4:4.8.4
 _ZN7Kasten121ReadOnlyBarController16staticMetaObjectE@ABI_1_0 4:4.8.4
 _ZN7Kasten121ReadOnlyBarControllerC1EPNS_9StatusBarE@ABI_1_0 4:4.8.4
 _ZN7Kasten121ReadOnlyBarControllerC2EPNS_9StatusBarE@ABI_1_0 4:4.8.4
 _ZN7Kasten121ReadOnlyBarControllerD0Ev@ABI_1_0 4:4.8.4
 _ZN7Kasten121ReadOnlyBarControllerD1Ev@ABI_1_0 4:4.8.4
 _ZN7Kasten121ReadOnlyBarControllerD2Ev@ABI_1_0 4:4.8.4
 _ZN7Kasten121SynchronizeController11qt_metacallEN11QMetaObject4CallEiPPv@ABI_1_0 4:4.8.4
 _ZN7Kasten121SynchronizeController11qt_metacastEPKc@ABI_1_0 4:4.8.4
 _ZN7Kasten121SynchronizeController14setTargetModelEPNS_13AbstractModelE@ABI_1_0 4:4.8.4
 _ZN7Kasten121SynchronizeController16staticMetaObjectE@ABI_1_0 4:4.8.4
 _ZN7Kasten121SynchronizeController18onSyncStateChangedEv@ABI_1_0 4:4.8.4
 _ZN7Kasten121SynchronizeController20onSynchronizerChangeEPNS_25AbstractModelSynchronizerE@ABI_1_0 4:4.8.4
 _ZN7Kasten121SynchronizeController4saveEv@ABI_1_0 4:4.8.4
 _ZN7Kasten121SynchronizeController6reloadEv@ABI_1_0 4:4.8.4
 _ZN7Kasten121SynchronizeControllerC1EPNS_19DocumentSyncManagerEP13KXMLGUIClient@ABI_1_0 4:4.8.4
 _ZN7Kasten121SynchronizeControllerC2EPNS_19DocumentSyncManagerEP13KXMLGUIClient@ABI_1_0 4:4.8.4
 _ZN7Kasten121SynchronizeControllerD0Ev@ABI_1_0 4:4.8.4
 _ZN7Kasten121SynchronizeControllerD1Ev@ABI_1_0 4:4.8.4
 _ZN7Kasten121SynchronizeControllerD2Ev@ABI_1_0 4:4.8.4
 _ZN7Kasten122ToolListMenuController11qt_metacallEN11QMetaObject4CallEiPPv@ABI_1_0 4:4.8.4
 _ZN7Kasten122ToolListMenuController11qt_metacastEPKc@ABI_1_0 4:4.8.4
 _ZN7Kasten122ToolListMenuController13updateActionsEv@ABI_1_0 4:4.8.4
 _ZN7Kasten122ToolListMenuController14setTargetModelEPNS_13AbstractModelE@ABI_1_0 4:4.8.4
 _ZN7Kasten122ToolListMenuController16staticMetaObjectE@ABI_1_0 4:4.8.4
 _ZN7Kasten122ToolListMenuControllerC1EPNS_2If15WidgetsDockableEP13KXMLGUIClient@ABI_1_0 4:4.8.4
 _ZN7Kasten122ToolListMenuControllerC2EPNS_2If15WidgetsDockableEP13KXMLGUIClient@ABI_1_0 4:4.8.4
 _ZN7Kasten122ToolListMenuControllerD0Ev@ABI_1_0 4:4.8.4
 _ZN7Kasten122ToolListMenuControllerD1Ev@ABI_1_0 4:4.8.4
 _ZN7Kasten122ToolListMenuControllerD2Ev@ABI_1_0 4:4.8.4
 _ZN7Kasten122ViewListMenuController11qt_metacallEN11QMetaObject4CallEiPPv@ABI_1_0 4:4.8.4
 _ZN7Kasten122ViewListMenuController11qt_metacastEPKc@ABI_1_0 4:4.8.4
 _ZN7Kasten122ViewListMenuController13updateActionsEv@ABI_1_0 4:4.8.4
 _ZN7Kasten122ViewListMenuController14setTargetModelEPNS_13AbstractModelE@ABI_1_0 4:4.8.4
 _ZN7Kasten122ViewListMenuController16staticMetaObjectE@ABI_1_0 4:4.8.4
 _ZN7Kasten122ViewListMenuController17onActionTriggeredEP7QAction@ABI_1_0 4:4.8.4
 _ZN7Kasten122ViewListMenuControllerC1EPNS_11ViewManagerEPNS_20AbstractGroupedViewsEP13KXMLGUIClient@ABI_1_0 4:4.8.4
 _ZN7Kasten122ViewListMenuControllerC2EPNS_11ViewManagerEPNS_20AbstractGroupedViewsEP13KXMLGUIClient@ABI_1_0 4:4.8.4
 _ZN7Kasten122ViewListMenuControllerD0Ev@ABI_1_0 4:4.8.4
 _ZN7Kasten122ViewListMenuControllerD1Ev@ABI_1_0 4:4.8.4
 _ZN7Kasten122ViewListMenuControllerD2Ev@ABI_1_0 4:4.8.4
 _ZN7Kasten123ViewAreaSplitController11qt_metacallEN11QMetaObject4CallEiPPv@ABI_1_0 4:4.8.4
 _ZN7Kasten123ViewAreaSplitController11qt_metacastEPKc@ABI_1_0 4:4.8.4
 _ZN7Kasten123ViewAreaSplitController13splitViewAreaEN2Qt11OrientationE@ABI_1_0 4:4.8.4
 _ZN7Kasten123ViewAreaSplitController14onViewsChangedEv@ABI_1_0 4:4.8.4
 _ZN7Kasten123ViewAreaSplitController14setTargetModelEPNS_13AbstractModelE@ABI_1_0 4:4.8.4
 _ZN7Kasten123ViewAreaSplitController15splitVerticallyEv@ABI_1_0 4:4.8.4
 _ZN7Kasten123ViewAreaSplitController16staticMetaObjectE@ABI_1_0 4:4.8.4
 _ZN7Kasten123ViewAreaSplitController17splitHorizontallyEv@ABI_1_0 4:4.8.4
 _ZN7Kasten123ViewAreaSplitController18onViewAreasChangedEv@ABI_1_0 4:4.8.4
 _ZN7Kasten123ViewAreaSplitController22onViewAreaFocusChangedEPNS_16AbstractViewAreaE@ABI_1_0 4:4.8.4
 _ZN7Kasten123ViewAreaSplitController5closeEv@ABI_1_0 4:4.8.4
 _ZN7Kasten123ViewAreaSplitControllerC1EPNS_11ViewManagerEPNS_20AbstractGroupedViewsEP13KXMLGUIClient@ABI_1_0 4:4.8.4
 _ZN7Kasten123ViewAreaSplitControllerC2EPNS_11ViewManagerEPNS_20AbstractGroupedViewsEP13KXMLGUIClient@ABI_1_0 4:4.8.4
 _ZN7Kasten123ViewAreaSplitControllerD0Ev@ABI_1_0 4:4.8.4
 _ZN7Kasten123ViewAreaSplitControllerD1Ev@ABI_1_0 4:4.8.4
 _ZN7Kasten123ViewAreaSplitControllerD2Ev@ABI_1_0 4:4.8.4
 _ZN7Kasten125FileSystemBrowserToolViewC1EPNS_21FileSystemBrowserToolE@ABI_1_0 4:4.8.4
 _ZN7Kasten125FileSystemBrowserToolViewC2EPNS_21FileSystemBrowserToolE@ABI_1_0 4:4.8.4
 _ZN7Kasten125FileSystemBrowserToolViewD0Ev@ABI_1_0 4:4.8.4
 _ZN7Kasten125FileSystemBrowserToolViewD1Ev@ABI_1_0 4:4.8.4
 _ZN7Kasten125FileSystemBrowserToolViewD2Ev@ABI_1_0 4:4.8.4
 _ZNK7Kasten112TerminalTool10currentUrlEv@ABI_1_0 4:4.8.4
 _ZNK7Kasten112TerminalTool10metaObjectEv@ABI_1_0 4:4.8.4
 _ZNK7Kasten112TerminalTool5titleEv@ABI_1_0 4:4.8.4
 (optional=templinst)_ZNK7Kasten113AbstractModel26findBaseModelWithInterfaceIPNS_2If11VersionableEEEPS0_v@ABI_1_0 4:4.8.4
 _ZNK7Kasten113DocumentsTool10metaObjectEv@ABI_1_0 4:4.8.4
 _ZNK7Kasten113DocumentsTool5titleEv@ABI_1_0 4:4.8.4
 _ZNK7Kasten113DocumentsTool9documentsEv@ABI_1_0 4:4.8.4
 _ZNK7Kasten114QuitController10metaObjectEv@ABI_1_0 4:4.8.4
 _ZNK7Kasten114ZoomController10metaObjectEv@ABI_1_0 4:4.8.4
 _ZNK7Kasten115CloseController10metaObjectEv@ABI_1_0 4:4.8.4
 _ZNK7Kasten115VersionViewTool10metaObjectEv@ABI_1_0 4:4.8.4
 _ZNK7Kasten115VersionViewTool5titleEv@ABI_1_0 4:4.8.4
 _ZNK7Kasten116CopyAsController10metaObjectEv@ABI_1_0 4:4.8.4
 _ZNK7Kasten116ExportController10metaObjectEv@ABI_1_0 4:4.8.4
 _ZNK7Kasten116InsertController10metaObjectEv@ABI_1_0 4:4.8.4
 _ZNK7Kasten116LoaderController10metaObjectEv@ABI_1_0 4:4.8.4
 _ZNK7Kasten116SelectController10metaObjectEv@ABI_1_0 4:4.8.4
 _ZNK7Kasten116TerminalToolView4toolEv@ABI_1_0 4:4.8.4
 _ZNK7Kasten116TerminalToolView5titleEv@ABI_1_0 4:4.8.4
 _ZNK7Kasten116TerminalToolView6widgetEv@ABI_1_0 4:4.8.4
 _ZNK7Kasten117CreatorController10metaObjectEv@ABI_1_0 4:4.8.4
 _ZNK7Kasten117DocumentsToolView4toolEv@ABI_1_0 4:4.8.4
 _ZNK7Kasten117DocumentsToolView5titleEv@ABI_1_0 4:4.8.4
 _ZNK7Kasten117DocumentsToolView6widgetEv@ABI_1_0 4:4.8.4
 _ZNK7Kasten117VersionController10metaObjectEv@ABI_1_0 4:4.8.4
 _ZNK7Kasten117ZoomBarController10metaObjectEv@ABI_1_0 4:4.8.4
 _ZNK7Kasten118ReadOnlyController10metaObjectEv@ABI_1_0 4:4.8.4
 _ZNK7Kasten119ClipboardController10metaObjectEv@ABI_1_0 4:4.8.4
 _ZNK7Kasten119SetRemoteController10metaObjectEv@ABI_1_0 4:4.8.4
 _ZNK7Kasten119VersionViewToolView4toolEv@ABI_1_0 4:4.8.4
 _ZNK7Kasten119VersionViewToolView5titleEv@ABI_1_0 4:4.8.4
 _ZNK7Kasten119VersionViewToolView6widgetEv@ABI_1_0 4:4.8.4
 _ZNK7Kasten120FullScreenController10metaObjectEv@ABI_1_0 4:4.8.4
 _ZNK7Kasten120SwitchViewController10metaObjectEv@ABI_1_0 4:4.8.4
 _ZNK7Kasten121FileSystemBrowserTool10currentUrlEv@ABI_1_0 4:4.8.4
 _ZNK7Kasten121FileSystemBrowserTool10metaObjectEv@ABI_1_0 4:4.8.4
 _ZNK7Kasten121FileSystemBrowserTool13hasCurrentUrlEv@ABI_1_0 4:4.8.4
 _ZNK7Kasten121FileSystemBrowserTool5titleEv@ABI_1_0 4:4.8.4
 _ZNK7Kasten121ModifiedBarController10metaObjectEv@ABI_1_0 4:4.8.4
 _ZNK7Kasten121ReadOnlyBarController10metaObjectEv@ABI_1_0 4:4.8.4
 _ZNK7Kasten121SynchronizeController10metaObjectEv@ABI_1_0 4:4.8.4
 _ZNK7Kasten122ToolListMenuController10metaObjectEv@ABI_1_0 4:4.8.4
 _ZNK7Kasten122ViewListMenuController10metaObjectEv@ABI_1_0 4:4.8.4
 _ZNK7Kasten123ViewAreaSplitController10metaObjectEv@ABI_1_0 4:4.8.4
 _ZNK7Kasten125FileSystemBrowserToolView4toolEv@ABI_1_0 4:4.8.4
 _ZNK7Kasten125FileSystemBrowserToolView5titleEv@ABI_1_0 4:4.8.4
 _ZNK7Kasten125FileSystemBrowserToolView6widgetEv@ABI_1_0 4:4.8.4
 _ZTIN7Kasten112TerminalToolE@ABI_1_0 4:4.8.4
 _ZTIN7Kasten113DocumentsToolE@ABI_1_0 4:4.8.4
 _ZTIN7Kasten114QuitControllerE@ABI_1_0 4:4.8.4
 _ZTIN7Kasten114ZoomControllerE@ABI_1_0 4:4.8.4
 _ZTIN7Kasten115CloseControllerE@ABI_1_0 4:4.8.4
 _ZTIN7Kasten115VersionViewToolE@ABI_1_0 4:4.8.4
 _ZTIN7Kasten116CopyAsControllerE@ABI_1_0 4:4.8.4
 _ZTIN7Kasten116ExportControllerE@ABI_1_0 4:4.8.4
 _ZTIN7Kasten116InsertControllerE@ABI_1_0 4:4.8.4
 _ZTIN7Kasten116LoaderControllerE@ABI_1_0 4:4.8.4
 _ZTIN7Kasten116SelectControllerE@ABI_1_0 4:4.8.4
 _ZTIN7Kasten116TerminalToolViewE@ABI_1_0 4:4.8.4
 _ZTIN7Kasten117CreatorControllerE@ABI_1_0 4:4.8.4
 _ZTIN7Kasten117DocumentsToolViewE@ABI_1_0 4:4.8.4
 _ZTIN7Kasten117VersionControllerE@ABI_1_0 4:4.8.4
 _ZTIN7Kasten117ZoomBarControllerE@ABI_1_0 4:4.8.4
 _ZTIN7Kasten118ReadOnlyControllerE@ABI_1_0 4:4.8.4
 _ZTIN7Kasten119ClipboardControllerE@ABI_1_0 4:4.8.4
 _ZTIN7Kasten119SetRemoteControllerE@ABI_1_0 4:4.8.4
 _ZTIN7Kasten119VersionViewToolViewE@ABI_1_0 4:4.8.4
 _ZTIN7Kasten120FullScreenControllerE@ABI_1_0 4:4.8.4
 _ZTIN7Kasten120SwitchViewControllerE@ABI_1_0 4:4.8.4
 _ZTIN7Kasten121FileSystemBrowserToolE@ABI_1_0 4:4.8.4
 _ZTIN7Kasten121ModifiedBarControllerE@ABI_1_0 4:4.8.4
 _ZTIN7Kasten121ReadOnlyBarControllerE@ABI_1_0 4:4.8.4
 _ZTIN7Kasten121SynchronizeControllerE@ABI_1_0 4:4.8.4
 _ZTIN7Kasten122ToolListMenuControllerE@ABI_1_0 4:4.8.4
 _ZTIN7Kasten122ViewListMenuControllerE@ABI_1_0 4:4.8.4
 _ZTIN7Kasten123ViewAreaSplitControllerE@ABI_1_0 4:4.8.4
 _ZTIN7Kasten125FileSystemBrowserToolViewE@ABI_1_0 4:4.8.4
 _ZTSN7Kasten112TerminalToolE@ABI_1_0 4:4.8.4
 _ZTSN7Kasten113DocumentsToolE@ABI_1_0 4:4.8.4
 _ZTSN7Kasten114QuitControllerE@ABI_1_0 4:4.8.4
 _ZTSN7Kasten114ZoomControllerE@ABI_1_0 4:4.8.4
 _ZTSN7Kasten115CloseControllerE@ABI_1_0 4:4.8.4
 _ZTSN7Kasten115VersionViewToolE@ABI_1_0 4:4.8.4
 _ZTSN7Kasten116CopyAsControllerE@ABI_1_0 4:4.8.4
 _ZTSN7Kasten116ExportControllerE@ABI_1_0 4:4.8.4
 _ZTSN7Kasten116InsertControllerE@ABI_1_0 4:4.8.4
 _ZTSN7Kasten116LoaderControllerE@ABI_1_0 4:4.8.4
 _ZTSN7Kasten116SelectControllerE@ABI_1_0 4:4.8.4
 _ZTSN7Kasten116TerminalToolViewE@ABI_1_0 4:4.8.4
 _ZTSN7Kasten117CreatorControllerE@ABI_1_0 4:4.8.4
 _ZTSN7Kasten117DocumentsToolViewE@ABI_1_0 4:4.8.4
 _ZTSN7Kasten117VersionControllerE@ABI_1_0 4:4.8.4
 _ZTSN7Kasten117ZoomBarControllerE@ABI_1_0 4:4.8.4
 _ZTSN7Kasten118ReadOnlyControllerE@ABI_1_0 4:4.8.4
 _ZTSN7Kasten119ClipboardControllerE@ABI_1_0 4:4.8.4
 _ZTSN7Kasten119SetRemoteControllerE@ABI_1_0 4:4.8.4
 _ZTSN7Kasten119VersionViewToolViewE@ABI_1_0 4:4.8.4
 _ZTSN7Kasten120FullScreenControllerE@ABI_1_0 4:4.8.4
 _ZTSN7Kasten120SwitchViewControllerE@ABI_1_0 4:4.8.4
 _ZTSN7Kasten121FileSystemBrowserToolE@ABI_1_0 4:4.8.4
 _ZTSN7Kasten121ModifiedBarControllerE@ABI_1_0 4:4.8.4
 _ZTSN7Kasten121ReadOnlyBarControllerE@ABI_1_0 4:4.8.4
 _ZTSN7Kasten121SynchronizeControllerE@ABI_1_0 4:4.8.4
 _ZTSN7Kasten122ToolListMenuControllerE@ABI_1_0 4:4.8.4
 _ZTSN7Kasten122ViewListMenuControllerE@ABI_1_0 4:4.8.4
 _ZTSN7Kasten123ViewAreaSplitControllerE@ABI_1_0 4:4.8.4
 _ZTSN7Kasten125FileSystemBrowserToolViewE@ABI_1_0 4:4.8.4
 _ZTVN7Kasten112TerminalToolE@ABI_1_0 4:4.8.4
 _ZTVN7Kasten113DocumentsToolE@ABI_1_0 4:4.8.4
 _ZTVN7Kasten114QuitControllerE@ABI_1_0 4:4.8.4
 _ZTVN7Kasten114ZoomControllerE@ABI_1_0 4:4.8.4
 _ZTVN7Kasten115CloseControllerE@ABI_1_0 4:4.8.4
 _ZTVN7Kasten115VersionViewToolE@ABI_1_0 4:4.8.4
 _ZTVN7Kasten116CopyAsControllerE@ABI_1_0 4:4.8.4
 _ZTVN7Kasten116ExportControllerE@ABI_1_0 4:4.8.4
 _ZTVN7Kasten116InsertControllerE@ABI_1_0 4:4.8.4
 _ZTVN7Kasten116LoaderControllerE@ABI_1_0 4:4.8.4
 _ZTVN7Kasten116SelectControllerE@ABI_1_0 4:4.8.4
 _ZTVN7Kasten116TerminalToolViewE@ABI_1_0 4:4.8.4
 _ZTVN7Kasten117CreatorControllerE@ABI_1_0 4:4.8.4
 _ZTVN7Kasten117DocumentsToolViewE@ABI_1_0 4:4.8.4
 _ZTVN7Kasten117VersionControllerE@ABI_1_0 4:4.8.4
 _ZTVN7Kasten117ZoomBarControllerE@ABI_1_0 4:4.8.4
 _ZTVN7Kasten118ReadOnlyControllerE@ABI_1_0 4:4.8.4
 _ZTVN7Kasten119ClipboardControllerE@ABI_1_0 4:4.8.4
 _ZTVN7Kasten119SetRemoteControllerE@ABI_1_0 4:4.8.4
 _ZTVN7Kasten119VersionViewToolViewE@ABI_1_0 4:4.8.4
 _ZTVN7Kasten120FullScreenControllerE@ABI_1_0 4:4.8.4
 _ZTVN7Kasten120SwitchViewControllerE@ABI_1_0 4:4.8.4
 _ZTVN7Kasten121FileSystemBrowserToolE@ABI_1_0 4:4.8.4
 _ZTVN7Kasten121ModifiedBarControllerE@ABI_1_0 4:4.8.4
 _ZTVN7Kasten121ReadOnlyBarControllerE@ABI_1_0 4:4.8.4
 _ZTVN7Kasten121SynchronizeControllerE@ABI_1_0 4:4.8.4
 _ZTVN7Kasten122ToolListMenuControllerE@ABI_1_0 4:4.8.4
 _ZTVN7Kasten122ViewListMenuControllerE@ABI_1_0 4:4.8.4
 _ZTVN7Kasten123ViewAreaSplitControllerE@ABI_1_0 4:4.8.4
 _ZTVN7Kasten125FileSystemBrowserToolViewE@ABI_1_0 4:4.8.4
