# SymbolsHelper-Confirmed: 4:4.8.4 amd64
libkasten1core.so.1 libkasten1core1 #MINVER#
 ABI_1_0@ABI_1_0 4:4.8.4
 _ZN7Kasten110JobManager10executeJobEP4KJob@ABI_1_0 4:4.8.4
 _ZN7Kasten112AbstractTool11qt_metacallEN11QMetaObject4CallEiPPv@ABI_1_0 4:4.8.4
 _ZN7Kasten112AbstractTool11qt_metacastEPKc@ABI_1_0 4:4.8.4
 _ZN7Kasten112AbstractTool12titleChangedERK7QString@ABI_1_0 4:4.8.4
 _ZN7Kasten112AbstractTool16staticMetaObjectE@ABI_1_0 4:4.8.4
 _ZN7Kasten112AbstractTool7PrivateC1EPS0_@ABI_1_0 4:4.8.4
 _ZN7Kasten112AbstractTool7PrivateC2EPS0_@ABI_1_0 4:4.8.4
 _ZN7Kasten112AbstractToolC1Ev@ABI_1_0 4:4.8.4
 _ZN7Kasten112AbstractToolC2Ev@ABI_1_0 4:4.8.4
 _ZN7Kasten112AbstractToolD0Ev@ABI_1_0 4:4.8.4
 _ZN7Kasten112AbstractToolD1Ev@ABI_1_0 4:4.8.4
 _ZN7Kasten112AbstractToolD2Ev@ABI_1_0 4:4.8.4
 _ZN7Kasten113AbstractModel11qt_metacallEN11QMetaObject4CallEiPPv@ABI_1_0 4:4.8.4
 _ZN7Kasten113AbstractModel11qt_metacastEPKc@ABI_1_0 4:4.8.4
 _ZN7Kasten113AbstractModel11setReadOnlyEb@ABI_1_0 4:4.8.4
 _ZN7Kasten113AbstractModel12setBaseModelEPS0_@ABI_1_0 4:4.8.4
 _ZN7Kasten113AbstractModel12titleChangedERK7QString@ABI_1_0 4:4.8.4
 _ZN7Kasten113AbstractModel15readOnlyChangedEb@ABI_1_0 4:4.8.4
 _ZN7Kasten113AbstractModel16staticMetaObjectE@ABI_1_0 4:4.8.4
 _ZN7Kasten113AbstractModel17modifiableChangedEb@ABI_1_0 4:4.8.4
 _ZN7Kasten113AbstractModelC1EPNS_20AbstractModelPrivateE@ABI_1_0 4:4.8.4
 _ZN7Kasten113AbstractModelC1EPS0_@ABI_1_0 4:4.8.4
 _ZN7Kasten113AbstractModelC2EPNS_20AbstractModelPrivateE@ABI_1_0 4:4.8.4
 _ZN7Kasten113AbstractModelC2EPS0_@ABI_1_0 4:4.8.4
 _ZN7Kasten113AbstractModelD0Ev@ABI_1_0 4:4.8.4
 _ZN7Kasten113AbstractModelD1Ev@ABI_1_0 4:4.8.4
 _ZN7Kasten113AbstractModelD2Ev@ABI_1_0 4:4.8.4
 _ZN7Kasten115AbstractLoadJob11qt_metacallEN11QMetaObject4CallEiPPv@ABI_1_0 4:4.8.4
 _ZN7Kasten115AbstractLoadJob11qt_metacastEPKc@ABI_1_0 4:4.8.4
 _ZN7Kasten115AbstractLoadJob11setDocumentEPNS_16AbstractDocumentE@ABI_1_0 4:4.8.4
 _ZN7Kasten115AbstractLoadJob14documentLoadedEPNS_16AbstractDocumentE@ABI_1_0 4:4.8.4
 _ZN7Kasten115AbstractLoadJob16staticMetaObjectE@ABI_1_0 4:4.8.4
 _ZN7Kasten115AbstractLoadJobC1EPNS_22AbstractLoadJobPrivateE@ABI_1_0 4:4.8.4
 _ZN7Kasten115AbstractLoadJobC1Ev@ABI_1_0 4:4.8.4
 _ZN7Kasten115AbstractLoadJobC2EPNS_22AbstractLoadJobPrivateE@ABI_1_0 4:4.8.4
 _ZN7Kasten115AbstractLoadJobC2Ev@ABI_1_0 4:4.8.4
 _ZN7Kasten115AbstractLoadJobD0Ev@ABI_1_0 4:4.8.4
 _ZN7Kasten115AbstractLoadJobD1Ev@ABI_1_0 4:4.8.4
 _ZN7Kasten115AbstractLoadJobD2Ev@ABI_1_0 4:4.8.4
 _ZN7Kasten115DocumentManager11addDocumentEPNS_16AbstractDocumentE@ABI_1_0 4:4.8.4
 _ZN7Kasten115DocumentManager11canCloseAllEv@ABI_1_0 4:4.8.4
 _ZN7Kasten115DocumentManager11qt_metacallEN11QMetaObject4CallEiPPv@ABI_1_0 4:4.8.4
 _ZN7Kasten115DocumentManager11qt_metacastEPKc@ABI_1_0 4:4.8.4
 _ZN7Kasten115DocumentManager12requestFocusEPNS_16AbstractDocumentE@ABI_1_0 4:4.8.4
 _ZN7Kasten115DocumentManager13closeAllOtherEPNS_16AbstractDocumentE@ABI_1_0 4:4.8.4
 _ZN7Kasten115DocumentManager13closeDocumentEPNS_16AbstractDocumentE@ABI_1_0 4:4.8.4
 _ZN7Kasten115DocumentManager14closeDocumentsERK5QListIPNS_16AbstractDocumentEE@ABI_1_0 4:4.8.4
 _ZN7Kasten115DocumentManager14focusRequestedEPNS_16AbstractDocumentE@ABI_1_0 4:4.8.4
 _ZN7Kasten115DocumentManager16canCloseAllOtherEPNS_16AbstractDocumentE@ABI_1_0 4:4.8.4
 _ZN7Kasten115DocumentManager16staticMetaObjectE@ABI_1_0 4:4.8.4
 _ZN7Kasten115DocumentManager5addedERK5QListIPNS_16AbstractDocumentEE@ABI_1_0 4:4.8.4
 _ZN7Kasten115DocumentManager7closingERK5QListIPNS_16AbstractDocumentEE@ABI_1_0 4:4.8.4
 _ZN7Kasten115DocumentManager8canCloseEPNS_16AbstractDocumentE@ABI_1_0 4:4.8.4
 _ZN7Kasten115DocumentManager8canCloseERK5QListIPNS_16AbstractDocumentEE@ABI_1_0 4:4.8.4
 _ZN7Kasten115DocumentManager8closeAllEv@ABI_1_0 4:4.8.4
 _ZN7Kasten115DocumentManagerC1Ev@ABI_1_0 4:4.8.4
 _ZN7Kasten115DocumentManagerC2Ev@ABI_1_0 4:4.8.4
 _ZN7Kasten115DocumentManagerD0Ev@ABI_1_0 4:4.8.4
 _ZN7Kasten115DocumentManagerD1Ev@ABI_1_0 4:4.8.4
 _ZN7Kasten115DocumentManagerD2Ev@ABI_1_0 4:4.8.4
 _ZN7Kasten116AbstractDocument11qt_metacallEN11QMetaObject4CallEiPPv@ABI_1_0 4:4.8.4
 _ZN7Kasten116AbstractDocument11qt_metacastEPKc@ABI_1_0 4:4.8.4
 _ZN7Kasten116AbstractDocument15setSynchronizerEPNS_25AbstractModelSynchronizerE@ABI_1_0 4:4.8.4
 _ZN7Kasten116AbstractDocument16staticMetaObjectE@ABI_1_0 4:4.8.4
 _ZN7Kasten116AbstractDocument19setLiveSynchronizerEPNS_25AbstractModelSynchronizerE@ABI_1_0 4:4.8.4
 _ZN7Kasten116AbstractDocument19synchronizerChangedEPNS_25AbstractModelSynchronizerE@ABI_1_0 4:4.8.4
 _ZN7Kasten116AbstractDocument21localSyncStateChangedENS_14LocalSyncStateE@ABI_1_0 4:4.8.4
 _ZN7Kasten116AbstractDocument22remoteSyncStateChangedENS_15RemoteSyncStateE@ABI_1_0 4:4.8.4
 _ZN7Kasten116AbstractDocument23liveSynchronizerChangedEPNS_25AbstractModelSynchronizerE@ABI_1_0 4:4.8.4
 _ZN7Kasten116AbstractDocument5setIdERK7QString@ABI_1_0 4:4.8.4
 _ZN7Kasten116AbstractDocumentC1Ev@ABI_1_0 4:4.8.4
 _ZN7Kasten116AbstractDocumentC2Ev@ABI_1_0 4:4.8.4
 _ZN7Kasten116AbstractDocumentD0Ev@ABI_1_0 4:4.8.4
 _ZN7Kasten116AbstractDocumentD1Ev@ABI_1_0 4:4.8.4
 _ZN7Kasten116AbstractDocumentD2Ev@ABI_1_0 4:4.8.4
 _ZN7Kasten117AbstractExportJob11qt_metacallEN11QMetaObject4CallEiPPv@ABI_1_0 4:4.8.4
 _ZN7Kasten117AbstractExportJob11qt_metacastEPKc@ABI_1_0 4:4.8.4
 _ZN7Kasten117AbstractExportJob11setDocumentEPNS_16AbstractDocumentE@ABI_1_0 4:4.8.4
 _ZN7Kasten117AbstractExportJob14documentLoadedEPNS_16AbstractDocumentE@ABI_1_0 4:4.8.4
 _ZN7Kasten117AbstractExportJob16staticMetaObjectE@ABI_1_0 4:4.8.4
 _ZN7Kasten117AbstractExportJobC1EPNS_24AbstractExportJobPrivateE@ABI_1_0 4:4.8.4
 _ZN7Kasten117AbstractExportJobC1Ev@ABI_1_0 4:4.8.4
 _ZN7Kasten117AbstractExportJobC2EPNS_24AbstractExportJobPrivateE@ABI_1_0 4:4.8.4
 _ZN7Kasten117AbstractExportJobC2Ev@ABI_1_0 4:4.8.4
 _ZN7Kasten117AbstractExportJobD0Ev@ABI_1_0 4:4.8.4
 _ZN7Kasten117AbstractExportJobD1Ev@ABI_1_0 4:4.8.4
 _ZN7Kasten117AbstractExportJobD2Ev@ABI_1_0 4:4.8.4
 _ZN7Kasten117ModelCodecManager11qt_metacallEN11QMetaObject4CallEiPPv@ABI_1_0 4:4.8.4
 _ZN7Kasten117ModelCodecManager11qt_metacastEPKc@ABI_1_0 4:4.8.4
 _ZN7Kasten117ModelCodecManager11setDecodersERK5QListIPNS_26AbstractModelStreamDecoderEE@ABI_1_0 4:4.8.4
 _ZN7Kasten117ModelCodecManager11setEncodersERK5QListIPNS_26AbstractModelStreamEncoderEE@ABI_1_0 4:4.8.4
 _ZN7Kasten117ModelCodecManager13setGeneratorsERK5QListIPNS_26AbstractModelDataGeneratorEE@ABI_1_0 4:4.8.4
 _ZN7Kasten117ModelCodecManager14encodeToStreamEPNS_26AbstractModelStreamEncoderEPNS_13AbstractModelEPKNS_22AbstractModelSelectionE@ABI_1_0 4:4.8.4
 _ZN7Kasten117ModelCodecManager14exportDocumentEPNS_21AbstractModelExporterEPNS_13AbstractModelEPKNS_22AbstractModelSelectionE@ABI_1_0 4:4.8.4
 _ZN7Kasten117ModelCodecManager16staticMetaObjectE@ABI_1_0 4:4.8.4
 _ZN7Kasten117ModelCodecManager18setOverwriteDialogEPNS_23AbstractOverwriteDialogE@ABI_1_0 4:4.8.4
 _ZN7Kasten117ModelCodecManagerC1EPNS_15DocumentManagerE@ABI_1_0 4:4.8.4
 _ZN7Kasten117ModelCodecManagerC2EPNS_15DocumentManagerE@ABI_1_0 4:4.8.4
 _ZN7Kasten117ModelCodecManagerD0Ev@ABI_1_0 4:4.8.4
 _ZN7Kasten117ModelCodecManagerD1Ev@ABI_1_0 4:4.8.4
 _ZN7Kasten117ModelCodecManagerD2Ev@ABI_1_0 4:4.8.4
 _ZN7Kasten118AbstractConnectJob11qt_metacallEN11QMetaObject4CallEiPPv@ABI_1_0 4:4.8.4
 _ZN7Kasten118AbstractConnectJob11qt_metacastEPKc@ABI_1_0 4:4.8.4
 _ZN7Kasten118AbstractConnectJob16staticMetaObjectE@ABI_1_0 4:4.8.4
 _ZN7Kasten118AbstractConnectJobC1EPNS_25AbstractConnectJobPrivateE@ABI_1_0 4:4.8.4
 _ZN7Kasten118AbstractConnectJobC1Ev@ABI_1_0 4:4.8.4
 _ZN7Kasten118AbstractConnectJobC2EPNS_25AbstractConnectJobPrivateE@ABI_1_0 4:4.8.4
 _ZN7Kasten118AbstractConnectJobC2Ev@ABI_1_0 4:4.8.4
 _ZN7Kasten118AbstractConnectJobD0Ev@ABI_1_0 4:4.8.4
 _ZN7Kasten118AbstractConnectJobD1Ev@ABI_1_0 4:4.8.4
 _ZN7Kasten118AbstractConnectJobD2Ev@ABI_1_0 4:4.8.4
 _ZN7Kasten119DocumentSyncManager11qt_metacallEN11QMetaObject4CallEiPPv@ABI_1_0 4:4.8.4
 _ZN7Kasten119DocumentSyncManager11qt_metacastEPKc@ABI_1_0 4:4.8.4
 _ZN7Kasten119DocumentSyncManager15setSynchronizerEPNS_16AbstractDocumentE@ABI_1_0 4:4.8.4
 _ZN7Kasten119DocumentSyncManager16onDocumentLoadedEPNS_16AbstractDocumentE@ABI_1_0 4:4.8.4
 _ZN7Kasten119DocumentSyncManager16onDocumentsAddedERK5QListIPNS_16AbstractDocumentEE@ABI_1_0 4:4.8.4
 _ZN7Kasten119DocumentSyncManager16staticMetaObjectE@ABI_1_0 4:4.8.4
 _ZN7Kasten119DocumentSyncManager18onDocumentsClosingERK5QListIPNS_16AbstractDocumentEE@ABI_1_0 4:4.8.4
 _ZN7Kasten119DocumentSyncManager18setOverwriteDialogEPNS_23AbstractOverwriteDialogE@ABI_1_0 4:4.8.4
 _ZN7Kasten119DocumentSyncManager20setSaveDiscardDialogEPNS_25AbstractSaveDiscardDialogE@ABI_1_0 4:4.8.4
 _ZN7Kasten119DocumentSyncManager30setDocumentSynchronizerFactoryEPNS_32AbstractModelSynchronizerFactoryE@ABI_1_0 4:4.8.4
 _ZN7Kasten119DocumentSyncManager4loadERK4KUrl@ABI_1_0 4:4.8.4
 _ZN7Kasten119DocumentSyncManager4saveEPNS_16AbstractDocumentE@ABI_1_0 4:4.8.4
 _ZN7Kasten119DocumentSyncManager6reloadEPNS_16AbstractDocumentE@ABI_1_0 4:4.8.4
 _ZN7Kasten119DocumentSyncManager7urlUsedERK4KUrl@ABI_1_0 4:4.8.4
 _ZN7Kasten119DocumentSyncManager8canCloseEPNS_16AbstractDocumentE@ABI_1_0 4:4.8.4
 _ZN7Kasten119DocumentSyncManagerC1EPNS_15DocumentManagerE@ABI_1_0 4:4.8.4
 _ZN7Kasten119DocumentSyncManagerC2EPNS_15DocumentManagerE@ABI_1_0 4:4.8.4
 _ZN7Kasten119DocumentSyncManagerD0Ev@ABI_1_0 4:4.8.4
 _ZN7Kasten119DocumentSyncManagerD1Ev@ABI_1_0 4:4.8.4
 _ZN7Kasten119DocumentSyncManagerD2Ev@ABI_1_0 4:4.8.4
 _ZN7Kasten119DocumentVersionDataC1EiRK7QString@ABI_1_0 4:4.8.4
 _ZN7Kasten119DocumentVersionDataC2EiRK7QString@ABI_1_0 4:4.8.4
 _ZN7Kasten121AbstractModelExporter11qt_metacallEN11QMetaObject4CallEiPPv@ABI_1_0 4:4.8.4
 _ZN7Kasten121AbstractModelExporter11qt_metacastEPKc@ABI_1_0 4:4.8.4
 _ZN7Kasten121AbstractModelExporter16staticMetaObjectE@ABI_1_0 4:4.8.4
 _ZN7Kasten121AbstractModelExporterC1EPNS_28AbstractModelExporterPrivateE@ABI_1_0 4:4.8.4
 _ZN7Kasten121AbstractModelExporterC1ERK7QStringS3_@ABI_1_0 4:4.8.4
 _ZN7Kasten121AbstractModelExporterC2EPNS_28AbstractModelExporterPrivateE@ABI_1_0 4:4.8.4
 _ZN7Kasten121AbstractModelExporterC2ERK7QStringS3_@ABI_1_0 4:4.8.4
 _ZN7Kasten121AbstractModelExporterD0Ev@ABI_1_0 4:4.8.4
 _ZN7Kasten121AbstractModelExporterD1Ev@ABI_1_0 4:4.8.4
 _ZN7Kasten121AbstractModelExporterD2Ev@ABI_1_0 4:4.8.4
 _ZN7Kasten121DocumentCreateManager11qt_metacallEN11QMetaObject4CallEiPPv@ABI_1_0 4:4.8.4
 _ZN7Kasten121DocumentCreateManager11qt_metacastEPKc@ABI_1_0 4:4.8.4
 _ZN7Kasten121DocumentCreateManager16staticMetaObjectE@ABI_1_0 4:4.8.4
 _ZN7Kasten121DocumentCreateManager17createNewFromDataEPK9QMimeDatab@ABI_1_0 4:4.8.4
 _ZN7Kasten121DocumentCreateManager18setDocumentFactoryEPNS_23AbstractDocumentFactoryE@ABI_1_0 4:4.8.4
 _ZN7Kasten121DocumentCreateManager9createNewEv@ABI_1_0 4:4.8.4
 _ZN7Kasten121DocumentCreateManagerC1EPNS_15DocumentManagerE@ABI_1_0 4:4.8.4
 _ZN7Kasten121DocumentCreateManagerC2EPNS_15DocumentManagerE@ABI_1_0 4:4.8.4
 _ZN7Kasten121DocumentCreateManagerD0Ev@ABI_1_0 4:4.8.4
 _ZN7Kasten121DocumentCreateManagerD1Ev@ABI_1_0 4:4.8.4
 _ZN7Kasten121DocumentCreateManagerD2Ev@ABI_1_0 4:4.8.4
 _ZN7Kasten122AbstractModelSelectionC1Ev@ABI_1_0 4:4.8.4
 _ZN7Kasten122AbstractModelSelectionC2Ev@ABI_1_0 4:4.8.4
 _ZN7Kasten122AbstractModelSelectionD0Ev@ABI_1_0 4:4.8.4
 _ZN7Kasten122AbstractModelSelectionD1Ev@ABI_1_0 4:4.8.4
 _ZN7Kasten122AbstractModelSelectionD2Ev@ABI_1_0 4:4.8.4
 _ZN7Kasten123AbstractDocumentFactory11qt_metacallEN11QMetaObject4CallEiPPv@ABI_1_0 4:4.8.4
 _ZN7Kasten123AbstractDocumentFactory11qt_metacastEPKc@ABI_1_0 4:4.8.4
 _ZN7Kasten123AbstractDocumentFactory14createFromDataEPK9QMimeDatab@ABI_1_0 4:4.8.4
 _ZN7Kasten123AbstractDocumentFactory16staticMetaObjectE@ABI_1_0 4:4.8.4
 _ZN7Kasten123AbstractDocumentFactory17canCreateFromDataEPK9QMimeData@ABI_1_0 4:4.8.4
 _ZN7Kasten123AbstractDocumentFactoryD0Ev@ABI_1_0 4:4.8.4
 _ZN7Kasten123AbstractDocumentFactoryD1Ev@ABI_1_0 4:4.8.4
 _ZN7Kasten123AbstractDocumentFactoryD2Ev@ABI_1_0 4:4.8.4
 _ZN7Kasten123AbstractOverwriteDialogD0Ev@ABI_1_0 4:4.8.4
 _ZN7Kasten123AbstractOverwriteDialogD1Ev@ABI_1_0 4:4.8.4
 _ZN7Kasten123AbstractOverwriteDialogD2Ev@ABI_1_0 4:4.8.4
 _ZN7Kasten123AbstractSyncToRemoteJob11qt_metacallEN11QMetaObject4CallEiPPv@ABI_1_0 4:4.8.4
 _ZN7Kasten123AbstractSyncToRemoteJob11qt_metacastEPKc@ABI_1_0 4:4.8.4
 _ZN7Kasten123AbstractSyncToRemoteJob16staticMetaObjectE@ABI_1_0 4:4.8.4
 _ZN7Kasten123AbstractSyncToRemoteJobC1EPNS_30AbstractSyncToRemoteJobPrivateE@ABI_1_0 4:4.8.4
 _ZN7Kasten123AbstractSyncToRemoteJobC1Ev@ABI_1_0 4:4.8.4
 _ZN7Kasten123AbstractSyncToRemoteJobC2EPNS_30AbstractSyncToRemoteJobPrivateE@ABI_1_0 4:4.8.4
 _ZN7Kasten123AbstractSyncToRemoteJobC2Ev@ABI_1_0 4:4.8.4
 _ZN7Kasten123AbstractSyncToRemoteJobD0Ev@ABI_1_0 4:4.8.4
 _ZN7Kasten123AbstractSyncToRemoteJobD1Ev@ABI_1_0 4:4.8.4
 _ZN7Kasten123AbstractSyncToRemoteJobD2Ev@ABI_1_0 4:4.8.4
 _ZN7Kasten123ModelDataGenerateThread11qt_metacallEN11QMetaObject4CallEiPPv@ABI_1_0 4:4.8.4
 _ZN7Kasten123ModelDataGenerateThread11qt_metacastEPKc@ABI_1_0 4:4.8.4
 _ZN7Kasten123ModelDataGenerateThread16staticMetaObjectE@ABI_1_0 4:4.8.4
 _ZN7Kasten123ModelDataGenerateThread3runEv@ABI_1_0 4:4.8.4
 _ZN7Kasten123ModelDataGenerateThread9generatedEP9QMimeData@ABI_1_0 4:4.8.4
 _ZN7Kasten123ModelDataGenerateThreadD0Ev@ABI_1_0 4:4.8.4
 _ZN7Kasten123ModelDataGenerateThreadD1Ev@ABI_1_0 4:4.8.4
 _ZN7Kasten123ModelDataGenerateThreadD2Ev@ABI_1_0 4:4.8.4
 _ZN7Kasten123ModelStreamEncodeThread11qt_metacallEN11QMetaObject4CallEiPPv@ABI_1_0 4:4.8.4
 _ZN7Kasten123ModelStreamEncodeThread11qt_metacastEPKc@ABI_1_0 4:4.8.4
 _ZN7Kasten123ModelStreamEncodeThread13modelExportedEb@ABI_1_0 4:4.8.4
 _ZN7Kasten123ModelStreamEncodeThread16staticMetaObjectE@ABI_1_0 4:4.8.4
 _ZN7Kasten123ModelStreamEncodeThread3runEv@ABI_1_0 4:4.8.4
 _ZN7Kasten123ModelStreamEncodeThreadD0Ev@ABI_1_0 4:4.8.4
 _ZN7Kasten123ModelStreamEncodeThreadD1Ev@ABI_1_0 4:4.8.4
 _ZN7Kasten123ModelStreamEncodeThreadD2Ev@ABI_1_0 4:4.8.4
 _ZN7Kasten125AbstractFileSystemLoadJob11qt_metacallEN11QMetaObject4CallEiPPv@ABI_1_0 4:4.8.4
 _ZN7Kasten125AbstractFileSystemLoadJob11qt_metacastEPKc@ABI_1_0 4:4.8.4
 _ZN7Kasten125AbstractFileSystemLoadJob11setDocumentEPNS_16AbstractDocumentE@ABI_1_0 4:4.8.4
 _ZN7Kasten125AbstractFileSystemLoadJob16staticMetaObjectE@ABI_1_0 4:4.8.4
 _ZN7Kasten125AbstractFileSystemLoadJob5startEv@ABI_1_0 4:4.8.4
 _ZN7Kasten125AbstractFileSystemLoadJobC1EPNS_35AbstractModelFileSystemSynchronizerERK4KUrl@ABI_1_0 4:4.8.4
 _ZN7Kasten125AbstractFileSystemLoadJobC2EPNS_35AbstractModelFileSystemSynchronizerERK4KUrl@ABI_1_0 4:4.8.4
 _ZN7Kasten125AbstractFileSystemLoadJobD0Ev@ABI_1_0 4:4.8.4
 _ZN7Kasten125AbstractFileSystemLoadJobD1Ev@ABI_1_0 4:4.8.4
 _ZN7Kasten125AbstractFileSystemLoadJobD2Ev@ABI_1_0 4:4.8.4
 _ZN7Kasten125AbstractModelSynchronizer10urlChangedERK4KUrl@ABI_1_0 4:4.8.4
 _ZN7Kasten125AbstractModelSynchronizer11qt_metacallEN11QMetaObject4CallEiPPv@ABI_1_0 4:4.8.4
 _ZN7Kasten125AbstractModelSynchronizer11qt_metacastEPKc@ABI_1_0 4:4.8.4
 _ZN7Kasten125AbstractModelSynchronizer12synchronizedEv@ABI_1_0 4:4.8.4
 _ZN7Kasten125AbstractModelSynchronizer16staticMetaObjectE@ABI_1_0 4:4.8.4
 _ZN7Kasten125AbstractModelSynchronizer22remoteSyncStateChangedENS_15RemoteSyncStateE@ABI_1_0 4:4.8.4
 _ZN7Kasten125AbstractModelSynchronizer6setUrlERK4KUrl@ABI_1_0 4:4.8.4
 _ZN7Kasten125AbstractModelSynchronizerC1EPNS_32AbstractModelSynchronizerPrivateE@ABI_1_0 4:4.8.4
 _ZN7Kasten125AbstractModelSynchronizerC1Ev@ABI_1_0 4:4.8.4
 _ZN7Kasten125AbstractModelSynchronizerC2EPNS_32AbstractModelSynchronizerPrivateE@ABI_1_0 4:4.8.4
 _ZN7Kasten125AbstractModelSynchronizerC2Ev@ABI_1_0 4:4.8.4
 _ZN7Kasten125AbstractModelSynchronizerD0Ev@ABI_1_0 4:4.8.4
 _ZN7Kasten125AbstractModelSynchronizerD1Ev@ABI_1_0 4:4.8.4
 _ZN7Kasten125AbstractModelSynchronizerD2Ev@ABI_1_0 4:4.8.4
 _ZN7Kasten125AbstractSaveDiscardDialogD0Ev@ABI_1_0 4:4.8.4
 _ZN7Kasten125AbstractSaveDiscardDialogD1Ev@ABI_1_0 4:4.8.4
 _ZN7Kasten125AbstractSaveDiscardDialogD2Ev@ABI_1_0 4:4.8.4
 _ZN7Kasten125AbstractSyncFromRemoteJob11qt_metacallEN11QMetaObject4CallEiPPv@ABI_1_0 4:4.8.4
 _ZN7Kasten125AbstractSyncFromRemoteJob11qt_metacastEPKc@ABI_1_0 4:4.8.4
 _ZN7Kasten125AbstractSyncFromRemoteJob16staticMetaObjectE@ABI_1_0 4:4.8.4
 _ZN7Kasten125AbstractSyncFromRemoteJobC1EPNS_32AbstractSyncFromRemoteJobPrivateE@ABI_1_0 4:4.8.4
 _ZN7Kasten125AbstractSyncFromRemoteJobC1Ev@ABI_1_0 4:4.8.4
 _ZN7Kasten125AbstractSyncFromRemoteJobC2EPNS_32AbstractSyncFromRemoteJobPrivateE@ABI_1_0 4:4.8.4
 _ZN7Kasten125AbstractSyncFromRemoteJobC2Ev@ABI_1_0 4:4.8.4
 _ZN7Kasten125AbstractSyncFromRemoteJobD0Ev@ABI_1_0 4:4.8.4
 _ZN7Kasten125AbstractSyncFromRemoteJobD1Ev@ABI_1_0 4:4.8.4
 _ZN7Kasten125AbstractSyncFromRemoteJobD2Ev@ABI_1_0 4:4.8.4
 _ZN7Kasten125AbstractSyncWithRemoteJob11qt_metacallEN11QMetaObject4CallEiPPv@ABI_1_0 4:4.8.4
 _ZN7Kasten125AbstractSyncWithRemoteJob11qt_metacastEPKc@ABI_1_0 4:4.8.4
 _ZN7Kasten125AbstractSyncWithRemoteJob16staticMetaObjectE@ABI_1_0 4:4.8.4
 _ZN7Kasten125AbstractSyncWithRemoteJobC1EPNS_32AbstractSyncWithRemoteJobPrivateE@ABI_1_0 4:4.8.4
 _ZN7Kasten125AbstractSyncWithRemoteJobC1Ev@ABI_1_0 4:4.8.4
 _ZN7Kasten125AbstractSyncWithRemoteJobC2EPNS_32AbstractSyncWithRemoteJobPrivateE@ABI_1_0 4:4.8.4
 _ZN7Kasten125AbstractSyncWithRemoteJobC2Ev@ABI_1_0 4:4.8.4
 _ZN7Kasten125AbstractSyncWithRemoteJobD0Ev@ABI_1_0 4:4.8.4
 _ZN7Kasten125AbstractSyncWithRemoteJobD1Ev@ABI_1_0 4:4.8.4
 _ZN7Kasten125AbstractSyncWithRemoteJobD2Ev@ABI_1_0 4:4.8.4
 _ZN7Kasten126AbstractModelDataGenerator11qt_metacallEN11QMetaObject4CallEiPPv@ABI_1_0 4:4.8.4
 _ZN7Kasten126AbstractModelDataGenerator11qt_metacastEPKc@ABI_1_0 4:4.8.4
 _ZN7Kasten126AbstractModelDataGenerator16staticMetaObjectE@ABI_1_0 4:4.8.4
 _ZN7Kasten126AbstractModelDataGeneratorC1EPNS_33AbstractModelDataGeneratorPrivateE@ABI_1_0 4:4.8.4
 _ZN7Kasten126AbstractModelDataGeneratorC1ERK7QStringS3_NS0_5FlagsE@ABI_1_0 4:4.8.4
 _ZN7Kasten126AbstractModelDataGeneratorC2EPNS_33AbstractModelDataGeneratorPrivateE@ABI_1_0 4:4.8.4
 _ZN7Kasten126AbstractModelDataGeneratorC2ERK7QStringS3_NS0_5FlagsE@ABI_1_0 4:4.8.4
 _ZN7Kasten126AbstractModelDataGeneratorD0Ev@ABI_1_0 4:4.8.4
 _ZN7Kasten126AbstractModelDataGeneratorD1Ev@ABI_1_0 4:4.8.4
 _ZN7Kasten126AbstractModelDataGeneratorD2Ev@ABI_1_0 4:4.8.4
 _ZN7Kasten126AbstractModelStreamEncoder11qt_metacallEN11QMetaObject4CallEiPPv@ABI_1_0 4:4.8.4
 _ZN7Kasten126AbstractModelStreamEncoder11qt_metacastEPKc@ABI_1_0 4:4.8.4
 _ZN7Kasten126AbstractModelStreamEncoder16staticMetaObjectE@ABI_1_0 4:4.8.4
 _ZN7Kasten126AbstractModelStreamEncoderC1EPNS_33AbstractModelStreamEncoderPrivateE@ABI_1_0 4:4.8.4
 _ZN7Kasten126AbstractModelStreamEncoderC1ERK7QStringS3_S3_@ABI_1_0 4:4.8.4
 _ZN7Kasten126AbstractModelStreamEncoderC2EPNS_33AbstractModelStreamEncoderPrivateE@ABI_1_0 4:4.8.4
 _ZN7Kasten126AbstractModelStreamEncoderC2ERK7QStringS3_S3_@ABI_1_0 4:4.8.4
 _ZN7Kasten126AbstractModelStreamEncoderD0Ev@ABI_1_0 4:4.8.4
 _ZN7Kasten126AbstractModelStreamEncoderD1Ev@ABI_1_0 4:4.8.4
 _ZN7Kasten126AbstractModelStreamEncoderD2Ev@ABI_1_0 4:4.8.4
 _ZN7Kasten127AbstractFileSystemExportJob11qt_metacallEN11QMetaObject4CallEiPPv@ABI_1_0 4:4.8.4
 _ZN7Kasten127AbstractFileSystemExportJob11qt_metacastEPKc@ABI_1_0 4:4.8.4
 _ZN7Kasten127AbstractFileSystemExportJob14completeExportEb@ABI_1_0 4:4.8.4
 _ZN7Kasten127AbstractFileSystemExportJob16staticMetaObjectE@ABI_1_0 4:4.8.4
 _ZN7Kasten127AbstractFileSystemExportJob5startEv@ABI_1_0 4:4.8.4
 _ZN7Kasten127AbstractFileSystemExportJobC1EPNS_13AbstractModelEPKNS_22AbstractModelSelectionERK4KUrl@ABI_1_0 4:4.8.4
 _ZN7Kasten127AbstractFileSystemExportJobC1EPNS_34AbstractFileSystemExportJobPrivateE@ABI_1_0 4:4.8.4
 _ZN7Kasten127AbstractFileSystemExportJobC2EPNS_13AbstractModelEPKNS_22AbstractModelSelectionERK4KUrl@ABI_1_0 4:4.8.4
 _ZN7Kasten127AbstractFileSystemExportJobC2EPNS_34AbstractFileSystemExportJobPrivateE@ABI_1_0 4:4.8.4
 _ZN7Kasten127AbstractFileSystemExportJobD0Ev@ABI_1_0 4:4.8.4
 _ZN7Kasten127AbstractFileSystemExportJobD1Ev@ABI_1_0 4:4.8.4
 _ZN7Kasten127AbstractFileSystemExportJobD2Ev@ABI_1_0 4:4.8.4
 _ZN7Kasten128AbstractFileSystemConnectJob11qt_metacallEN11QMetaObject4CallEiPPv@ABI_1_0 4:4.8.4
 _ZN7Kasten128AbstractFileSystemConnectJob11qt_metacastEPKc@ABI_1_0 4:4.8.4
 _ZN7Kasten128AbstractFileSystemConnectJob16staticMetaObjectE@ABI_1_0 4:4.8.4
 _ZN7Kasten128AbstractFileSystemConnectJob5startEv@ABI_1_0 4:4.8.4
 _ZN7Kasten128AbstractFileSystemConnectJob8completeEb@ABI_1_0 4:4.8.4
 _ZN7Kasten128AbstractFileSystemConnectJobC1EPNS_35AbstractModelFileSystemSynchronizerEPNS_16AbstractDocumentERK4KUrlNS_25AbstractModelSynchronizer13ConnectOptionE@ABI_1_0 4:4.8.4
 _ZN7Kasten128AbstractFileSystemConnectJobC2EPNS_35AbstractModelFileSystemSynchronizerEPNS_16AbstractDocumentERK4KUrlNS_25AbstractModelSynchronizer13ConnectOptionE@ABI_1_0 4:4.8.4
 _ZN7Kasten128AbstractFileSystemConnectJobD0Ev@ABI_1_0 4:4.8.4
 _ZN7Kasten128AbstractFileSystemConnectJobD1Ev@ABI_1_0 4:4.8.4
 _ZN7Kasten128AbstractFileSystemConnectJobD2Ev@ABI_1_0 4:4.8.4
 _ZN7Kasten130ModelEncoderFileSystemExporter11qt_metacallEN11QMetaObject4CallEiPPv@ABI_1_0 4:4.8.4
 _ZN7Kasten130ModelEncoderFileSystemExporter11qt_metacastEPKc@ABI_1_0 4:4.8.4
 _ZN7Kasten130ModelEncoderFileSystemExporter11startExportEPNS_13AbstractModelEPKNS_22AbstractModelSelectionERK4KUrl@ABI_1_0 4:4.8.4
 _ZN7Kasten130ModelEncoderFileSystemExporter16staticMetaObjectE@ABI_1_0 4:4.8.4
 _ZN7Kasten130ModelEncoderFileSystemExporterC1EPNS_26AbstractModelStreamEncoderE@ABI_1_0 4:4.8.4
 _ZN7Kasten130ModelEncoderFileSystemExporterC2EPNS_26AbstractModelStreamEncoderE@ABI_1_0 4:4.8.4
 _ZN7Kasten130ModelEncoderFileSystemExporterD0Ev@ABI_1_0 4:4.8.4
 _ZN7Kasten130ModelEncoderFileSystemExporterD1Ev@ABI_1_0 4:4.8.4
 _ZN7Kasten130ModelEncoderFileSystemExporterD2Ev@ABI_1_0 4:4.8.4
 _ZN7Kasten131ModelEncoderFileSystemExportJob11qt_metacallEN11QMetaObject4CallEiPPv@ABI_1_0 4:4.8.4
 _ZN7Kasten131ModelEncoderFileSystemExportJob11qt_metacastEPKc@ABI_1_0 4:4.8.4
 _ZN7Kasten131ModelEncoderFileSystemExportJob16staticMetaObjectE@ABI_1_0 4:4.8.4
 _ZN7Kasten131ModelEncoderFileSystemExportJob17startExportToFileEv@ABI_1_0 4:4.8.4
 _ZN7Kasten131ModelEncoderFileSystemExportJobC1EPNS_13AbstractModelEPKNS_22AbstractModelSelectionERK4KUrlPNS_26AbstractModelStreamEncoderE@ABI_1_0 4:4.8.4
 _ZN7Kasten131ModelEncoderFileSystemExportJobC2EPNS_13AbstractModelEPKNS_22AbstractModelSelectionERK4KUrlPNS_26AbstractModelStreamEncoderE@ABI_1_0 4:4.8.4
 _ZN7Kasten131ModelEncoderFileSystemExportJobD0Ev@ABI_1_0 4:4.8.4
 _ZN7Kasten131ModelEncoderFileSystemExportJobD1Ev@ABI_1_0 4:4.8.4
 _ZN7Kasten131ModelEncoderFileSystemExportJobD2Ev@ABI_1_0 4:4.8.4
 _ZN7Kasten132AbstractModelSynchronizerFactory11qt_metacallEN11QMetaObject4CallEiPPv@ABI_1_0 4:4.8.4
 _ZN7Kasten132AbstractModelSynchronizerFactory11qt_metacastEPKc@ABI_1_0 4:4.8.4
 _ZN7Kasten132AbstractModelSynchronizerFactory16staticMetaObjectE@ABI_1_0 4:4.8.4
 _ZN7Kasten132AbstractModelSynchronizerFactoryD0Ev@ABI_1_0 4:4.8.4
 _ZN7Kasten132AbstractModelSynchronizerFactoryD1Ev@ABI_1_0 4:4.8.4
 _ZN7Kasten132AbstractModelSynchronizerFactoryD2Ev@ABI_1_0 4:4.8.4
 _ZN7Kasten133AbstractFileSystemSyncToRemoteJob11qt_metacallEN11QMetaObject4CallEiPPv@ABI_1_0 4:4.8.4
 _ZN7Kasten133AbstractFileSystemSyncToRemoteJob11qt_metacastEPKc@ABI_1_0 4:4.8.4
 _ZN7Kasten133AbstractFileSystemSyncToRemoteJob13completeWriteEb@ABI_1_0 4:4.8.4
 _ZN7Kasten133AbstractFileSystemSyncToRemoteJob16staticMetaObjectE@ABI_1_0 4:4.8.4
 _ZN7Kasten133AbstractFileSystemSyncToRemoteJob5startEv@ABI_1_0 4:4.8.4
 _ZN7Kasten133AbstractFileSystemSyncToRemoteJobC1EPNS_35AbstractModelFileSystemSynchronizerE@ABI_1_0 4:4.8.4
 _ZN7Kasten133AbstractFileSystemSyncToRemoteJobC2EPNS_35AbstractModelFileSystemSynchronizerE@ABI_1_0 4:4.8.4
 _ZN7Kasten133AbstractFileSystemSyncToRemoteJobD0Ev@ABI_1_0 4:4.8.4
 _ZN7Kasten133AbstractFileSystemSyncToRemoteJobD1Ev@ABI_1_0 4:4.8.4
 _ZN7Kasten133AbstractFileSystemSyncToRemoteJobD2Ev@ABI_1_0 4:4.8.4
 _ZN7Kasten135AbstractFileSystemSyncFromRemoteJob11qt_metacallEN11QMetaObject4CallEiPPv@ABI_1_0 4:4.8.4
 _ZN7Kasten135AbstractFileSystemSyncFromRemoteJob11qt_metacastEPKc@ABI_1_0 4:4.8.4
 _ZN7Kasten135AbstractFileSystemSyncFromRemoteJob12completeReadEb@ABI_1_0 4:4.8.4
 _ZN7Kasten135AbstractFileSystemSyncFromRemoteJob16staticMetaObjectE@ABI_1_0 4:4.8.4
 _ZN7Kasten135AbstractFileSystemSyncFromRemoteJob5startEv@ABI_1_0 4:4.8.4
 _ZN7Kasten135AbstractFileSystemSyncFromRemoteJobC1EPNS_35AbstractModelFileSystemSynchronizerE@ABI_1_0 4:4.8.4
 _ZN7Kasten135AbstractFileSystemSyncFromRemoteJobC2EPNS_35AbstractModelFileSystemSynchronizerE@ABI_1_0 4:4.8.4
 _ZN7Kasten135AbstractFileSystemSyncFromRemoteJobD0Ev@ABI_1_0 4:4.8.4
 _ZN7Kasten135AbstractFileSystemSyncFromRemoteJobD1Ev@ABI_1_0 4:4.8.4
 _ZN7Kasten135AbstractFileSystemSyncFromRemoteJobD2Ev@ABI_1_0 4:4.8.4
 _ZN7Kasten135AbstractFileSystemSyncWithRemoteJob11qt_metacallEN11QMetaObject4CallEiPPv@ABI_1_0 4:4.8.4
 _ZN7Kasten135AbstractFileSystemSyncWithRemoteJob11qt_metacastEPKc@ABI_1_0 4:4.8.4
 _ZN7Kasten135AbstractFileSystemSyncWithRemoteJob12completeSyncEb@ABI_1_0 4:4.8.4
 _ZN7Kasten135AbstractFileSystemSyncWithRemoteJob16staticMetaObjectE@ABI_1_0 4:4.8.4
 _ZN7Kasten135AbstractFileSystemSyncWithRemoteJob5startEv@ABI_1_0 4:4.8.4
 _ZN7Kasten135AbstractFileSystemSyncWithRemoteJobC1EPNS_35AbstractModelFileSystemSynchronizerERK4KUrlNS_25AbstractModelSynchronizer13ConnectOptionE@ABI_1_0 4:4.8.4
 _ZN7Kasten135AbstractFileSystemSyncWithRemoteJobC2EPNS_35AbstractModelFileSystemSynchronizerERK4KUrlNS_25AbstractModelSynchronizer13ConnectOptionE@ABI_1_0 4:4.8.4
 _ZN7Kasten135AbstractFileSystemSyncWithRemoteJobD0Ev@ABI_1_0 4:4.8.4
 _ZN7Kasten135AbstractFileSystemSyncWithRemoteJobD1Ev@ABI_1_0 4:4.8.4
 _ZN7Kasten135AbstractFileSystemSyncWithRemoteJobD2Ev@ABI_1_0 4:4.8.4
 _ZN7Kasten135AbstractModelFileSystemSynchronizer11qt_metacallEN11QMetaObject4CallEiPPv@ABI_1_0 4:4.8.4
 _ZN7Kasten135AbstractModelFileSystemSynchronizer11qt_metacastEPKc@ABI_1_0 4:4.8.4
 _ZN7Kasten135AbstractModelFileSystemSynchronizer14setRemoteStateENS_15RemoteSyncStateE@ABI_1_0 4:4.8.4
 _ZN7Kasten135AbstractModelFileSystemSynchronizer16staticMetaObjectE@ABI_1_0 4:4.8.4
 _ZN7Kasten135AbstractModelFileSystemSynchronizer16stopFileWatchingEv@ABI_1_0 4:4.8.4
 _ZN7Kasten135AbstractModelFileSystemSynchronizer17pauseFileWatchingEv@ABI_1_0 4:4.8.4
 _ZN7Kasten135AbstractModelFileSystemSynchronizer17startFileWatchingEv@ABI_1_0 4:4.8.4
 _ZN7Kasten135AbstractModelFileSystemSynchronizer19stopNetworkWatchingEv@ABI_1_0 4:4.8.4
 _ZN7Kasten135AbstractModelFileSystemSynchronizer19unpauseFileWatchingEv@ABI_1_0 4:4.8.4
 _ZN7Kasten135AbstractModelFileSystemSynchronizer20startNetworkWatchingEv@ABI_1_0 4:4.8.4
 _ZN7Kasten135AbstractModelFileSystemSynchronizer21setFileDateTimeOnSyncERK9QDateTime@ABI_1_0 4:4.8.4
 _ZN7Kasten135AbstractModelFileSystemSynchronizerC1EPNS_42AbstractModelFileSystemSynchronizerPrivateE@ABI_1_0 4:4.8.4
 _ZN7Kasten135AbstractModelFileSystemSynchronizerC1Ev@ABI_1_0 4:4.8.4
 _ZN7Kasten135AbstractModelFileSystemSynchronizerC2EPNS_42AbstractModelFileSystemSynchronizerPrivateE@ABI_1_0 4:4.8.4
 _ZN7Kasten135AbstractModelFileSystemSynchronizerC2Ev@ABI_1_0 4:4.8.4
 _ZN7Kasten135AbstractModelFileSystemSynchronizerD0Ev@ABI_1_0 4:4.8.4
 _ZN7Kasten135AbstractModelFileSystemSynchronizerD1Ev@ABI_1_0 4:4.8.4
 _ZN7Kasten135AbstractModelFileSystemSynchronizerD2Ev@ABI_1_0 4:4.8.4
 _ZN7Kasten16Person8setEgoIdEi@ABI_1_0 4:4.8.4
 _ZN7Kasten16Person9createEgoEv@ABI_1_0 4:4.8.4
 _ZN7Kasten16PersonC1ERK7QStringRK5KIcon@ABI_1_0 4:4.8.4
 _ZN7Kasten16PersonC1ERKS0_@ABI_1_0 4:4.8.4
 _ZN7Kasten16PersonC1Ev@ABI_1_0 4:4.8.4
 _ZN7Kasten16PersonC2ERK7QStringRK5KIcon@ABI_1_0 4:4.8.4
 _ZN7Kasten16PersonC2ERKS0_@ABI_1_0 4:4.8.4
 _ZN7Kasten16PersonC2Ev@ABI_1_0 4:4.8.4
 _ZN7Kasten16PersonD1Ev@ABI_1_0 4:4.8.4
 _ZN7Kasten16PersonD2Ev@ABI_1_0 4:4.8.4
 _ZN7Kasten16PersonaSERKS0_@ABI_1_0 4:4.8.4
 _ZNK7Kasten112AbstractTool10metaObjectEv@ABI_1_0 4:4.8.4
 _ZNK7Kasten113AbstractModel10isReadOnlyEv@ABI_1_0 4:4.8.4
 _ZNK7Kasten113AbstractModel10metaObjectEv@ABI_1_0 4:4.8.4
 _ZNK7Kasten113AbstractModel12isModifiableEv@ABI_1_0 4:4.8.4
 _ZNK7Kasten113AbstractModel9baseModelEv@ABI_1_0 4:4.8.4
 _ZNK7Kasten115AbstractLoadJob10metaObjectEv@ABI_1_0 4:4.8.4
 _ZNK7Kasten115AbstractLoadJob8documentEv@ABI_1_0 4:4.8.4
 _ZNK7Kasten115DocumentManager10metaObjectEv@ABI_1_0 4:4.8.4
 _ZNK7Kasten115DocumentManager7isEmptyEv@ABI_1_0 4:4.8.4
 _ZNK7Kasten115DocumentManager9documentsEv@ABI_1_0 4:4.8.4
 _ZNK7Kasten116AbstractDocument10metaObjectEv@ABI_1_0 4:4.8.4
 _ZNK7Kasten116AbstractDocument12synchronizerEv@ABI_1_0 4:4.8.4
 _ZNK7Kasten116AbstractDocument15remoteSyncStateEv@ABI_1_0 4:4.8.4
 _ZNK7Kasten116AbstractDocument16liveSynchronizerEv@ABI_1_0 4:4.8.4
 _ZNK7Kasten116AbstractDocument2idEv@ABI_1_0 4:4.8.4
 _ZNK7Kasten117AbstractExportJob10metaObjectEv@ABI_1_0 4:4.8.4
 _ZNK7Kasten117AbstractExportJob8documentEv@ABI_1_0 4:4.8.4
 _ZNK7Kasten117ModelCodecManager10metaObjectEv@ABI_1_0 4:4.8.4
 _ZNK7Kasten117ModelCodecManager11decoderListEv@ABI_1_0 4:4.8.4
 _ZNK7Kasten117ModelCodecManager11encoderListEPNS_13AbstractModelEPKNS_22AbstractModelSelectionE@ABI_1_0 4:4.8.4
 _ZNK7Kasten117ModelCodecManager12exporterListEPNS_13AbstractModelEPKNS_22AbstractModelSelectionE@ABI_1_0 4:4.8.4
 _ZNK7Kasten117ModelCodecManager13generatorListEv@ABI_1_0 4:4.8.4
 _ZNK7Kasten118AbstractConnectJob10metaObjectEv@ABI_1_0 4:4.8.4
 _ZNK7Kasten119DocumentSyncManager10metaObjectEv@ABI_1_0 4:4.8.4
 _ZNK7Kasten119DocumentSyncManager20supportedRemoteTypesEv@ABI_1_0 4:4.8.4
 _ZNK7Kasten119DocumentSyncManager23hasSynchronizerForLocalERK7QString@ABI_1_0 4:4.8.4
 _ZNK7Kasten119DocumentSyncManager5urlOfEPNS_16AbstractDocumentE@ABI_1_0 4:4.8.4
 _ZNK7Kasten119DocumentVersionData13changeCommentEv@ABI_1_0 4:4.8.4
 _ZNK7Kasten119DocumentVersionData2idEv@ABI_1_0 4:4.8.4
 _ZNK7Kasten121AbstractModelExporter10metaObjectEv@ABI_1_0 4:4.8.4
 _ZNK7Kasten121AbstractModelExporter14remoteMimeTypeEv@ABI_1_0 4:4.8.4
 _ZNK7Kasten121AbstractModelExporter14remoteTypeNameEv@ABI_1_0 4:4.8.4
 _ZNK7Kasten121DocumentCreateManager10metaObjectEv@ABI_1_0 4:4.8.4
 _ZNK7Kasten121DocumentCreateManager20canCreateNewFromDataEPK9QMimeData@ABI_1_0 4:4.8.4
 _ZNK7Kasten123AbstractDocumentFactory10metaObjectEv@ABI_1_0 4:4.8.4
 _ZNK7Kasten123AbstractSyncToRemoteJob10metaObjectEv@ABI_1_0 4:4.8.4
 _ZNK7Kasten123ModelDataGenerateThread10metaObjectEv@ABI_1_0 4:4.8.4
 _ZNK7Kasten123ModelStreamEncodeThread10metaObjectEv@ABI_1_0 4:4.8.4
 _ZNK7Kasten125AbstractFileSystemLoadJob10metaObjectEv@ABI_1_0 4:4.8.4
 _ZNK7Kasten125AbstractFileSystemLoadJob12synchronizerEv@ABI_1_0 4:4.8.4
 _ZNK7Kasten125AbstractFileSystemLoadJob3urlEv@ABI_1_0 4:4.8.4
 _ZNK7Kasten125AbstractFileSystemLoadJob4fileEv@ABI_1_0 4:4.8.4
 _ZNK7Kasten125AbstractModelSynchronizer10dataPulledEi@ABI_1_0 4:4.8.4
 _ZNK7Kasten125AbstractModelSynchronizer10dataPushedEi@ABI_1_0 4:4.8.4
 _ZNK7Kasten125AbstractModelSynchronizer10metaObjectEv@ABI_1_0 4:4.8.4
 _ZNK7Kasten125AbstractModelSynchronizer3urlEv@ABI_1_0 4:4.8.4
 _ZNK7Kasten125AbstractSyncFromRemoteJob10metaObjectEv@ABI_1_0 4:4.8.4
 _ZNK7Kasten125AbstractSyncWithRemoteJob10metaObjectEv@ABI_1_0 4:4.8.4
 _ZNK7Kasten126AbstractModelDataGenerator10metaObjectEv@ABI_1_0 4:4.8.4
 _ZNK7Kasten126AbstractModelDataGenerator5flagsEv@ABI_1_0 4:4.8.4
 _ZNK7Kasten126AbstractModelDataGenerator8mimeTypeEv@ABI_1_0 4:4.8.4
 _ZNK7Kasten126AbstractModelDataGenerator8typeNameEv@ABI_1_0 4:4.8.4
 _ZNK7Kasten126AbstractModelStreamEncoder10metaObjectEv@ABI_1_0 4:4.8.4
 _ZNK7Kasten126AbstractModelStreamEncoder14remoteMimeTypeEv@ABI_1_0 4:4.8.4
 _ZNK7Kasten126AbstractModelStreamEncoder14remoteTypeNameEv@ABI_1_0 4:4.8.4
 _ZNK7Kasten126AbstractModelStreamEncoder23remoteClipboardMimeTypeEv@ABI_1_0 4:4.8.4
 _ZNK7Kasten127AbstractFileSystemExportJob10metaObjectEv@ABI_1_0 4:4.8.4
 _ZNK7Kasten127AbstractFileSystemExportJob4fileEv@ABI_1_0 4:4.8.4
 _ZNK7Kasten127AbstractFileSystemExportJob5modelEv@ABI_1_0 4:4.8.4
 _ZNK7Kasten127AbstractFileSystemExportJob9selectionEv@ABI_1_0 4:4.8.4
 _ZNK7Kasten128AbstractFileSystemConnectJob10metaObjectEv@ABI_1_0 4:4.8.4
 _ZNK7Kasten128AbstractFileSystemConnectJob12synchronizerEv@ABI_1_0 4:4.8.4
 _ZNK7Kasten128AbstractFileSystemConnectJob4fileEv@ABI_1_0 4:4.8.4
 _ZNK7Kasten128AbstractFileSystemConnectJob8documentEv@ABI_1_0 4:4.8.4
 _ZNK7Kasten130ModelEncoderFileSystemExporter10metaObjectEv@ABI_1_0 4:4.8.4
 _ZNK7Kasten130ModelEncoderFileSystemExporter13modelTypeNameEPNS_13AbstractModelEPKNS_22AbstractModelSelectionE@ABI_1_0 4:4.8.4
 _ZNK7Kasten130ModelEncoderFileSystemExporter7encoderEv@ABI_1_0 4:4.8.4
 _ZNK7Kasten131ModelEncoderFileSystemExportJob10metaObjectEv@ABI_1_0 4:4.8.4
 _ZNK7Kasten132AbstractModelSynchronizerFactory10metaObjectEv@ABI_1_0 4:4.8.4
 _ZNK7Kasten133AbstractFileSystemSyncToRemoteJob10metaObjectEv@ABI_1_0 4:4.8.4
 _ZNK7Kasten133AbstractFileSystemSyncToRemoteJob12synchronizerEv@ABI_1_0 4:4.8.4
 _ZNK7Kasten133AbstractFileSystemSyncToRemoteJob4fileEv@ABI_1_0 4:4.8.4
 _ZNK7Kasten135AbstractFileSystemSyncFromRemoteJob10metaObjectEv@ABI_1_0 4:4.8.4
 _ZNK7Kasten135AbstractFileSystemSyncFromRemoteJob12synchronizerEv@ABI_1_0 4:4.8.4
 _ZNK7Kasten135AbstractFileSystemSyncFromRemoteJob4fileEv@ABI_1_0 4:4.8.4
 _ZNK7Kasten135AbstractFileSystemSyncWithRemoteJob10metaObjectEv@ABI_1_0 4:4.8.4
 _ZNK7Kasten135AbstractFileSystemSyncWithRemoteJob12synchronizerEv@ABI_1_0 4:4.8.4
 _ZNK7Kasten135AbstractFileSystemSyncWithRemoteJob4fileEv@ABI_1_0 4:4.8.4
 _ZNK7Kasten135AbstractModelFileSystemSynchronizer10metaObjectEv@ABI_1_0 4:4.8.4
 _ZNK7Kasten135AbstractModelFileSystemSynchronizer15remoteSyncStateEv@ABI_1_0 4:4.8.4
 _ZNK7Kasten16Person4nameEv@ABI_1_0 4:4.8.4
 _ZNK7Kasten16Person8faceIconEv@ABI_1_0 4:4.8.4
 _ZNK7Kasten16PersoneqERKS0_@ABI_1_0 4:4.8.4
 _ZTIN7Kasten112AbstractToolE@ABI_1_0 4:4.8.4
 _ZTIN7Kasten113AbstractModelE@ABI_1_0 4:4.8.4
 _ZTIN7Kasten115AbstractLoadJobE@ABI_1_0 4:4.8.4
 _ZTIN7Kasten115DocumentManagerE@ABI_1_0 4:4.8.4
 _ZTIN7Kasten116AbstractDocumentE@ABI_1_0 4:4.8.4
 _ZTIN7Kasten117AbstractExportJobE@ABI_1_0 4:4.8.4
 _ZTIN7Kasten117ModelCodecManagerE@ABI_1_0 4:4.8.4
 _ZTIN7Kasten118AbstractConnectJobE@ABI_1_0 4:4.8.4
 _ZTIN7Kasten119DocumentSyncManagerE@ABI_1_0 4:4.8.4
 _ZTIN7Kasten121AbstractModelExporterE@ABI_1_0 4:4.8.4
 _ZTIN7Kasten121DocumentCreateManagerE@ABI_1_0 4:4.8.4
 _ZTIN7Kasten122AbstractModelSelectionE@ABI_1_0 4:4.8.4
 _ZTIN7Kasten123AbstractDocumentFactoryE@ABI_1_0 4:4.8.4
 _ZTIN7Kasten123AbstractOverwriteDialogE@ABI_1_0 4:4.8.4
 _ZTIN7Kasten123AbstractSyncToRemoteJobE@ABI_1_0 4:4.8.4
 _ZTIN7Kasten123ModelDataGenerateThreadE@ABI_1_0 4:4.8.4
 _ZTIN7Kasten123ModelStreamEncodeThreadE@ABI_1_0 4:4.8.4
 _ZTIN7Kasten125AbstractFileSystemLoadJobE@ABI_1_0 4:4.8.4
 _ZTIN7Kasten125AbstractModelSynchronizerE@ABI_1_0 4:4.8.4
 _ZTIN7Kasten125AbstractSaveDiscardDialogE@ABI_1_0 4:4.8.4
 _ZTIN7Kasten125AbstractSyncFromRemoteJobE@ABI_1_0 4:4.8.4
 _ZTIN7Kasten125AbstractSyncWithRemoteJobE@ABI_1_0 4:4.8.4
 _ZTIN7Kasten126AbstractModelDataGeneratorE@ABI_1_0 4:4.8.4
 _ZTIN7Kasten126AbstractModelStreamEncoderE@ABI_1_0 4:4.8.4
 _ZTIN7Kasten127AbstractFileSystemExportJobE@ABI_1_0 4:4.8.4
 _ZTIN7Kasten128AbstractFileSystemConnectJobE@ABI_1_0 4:4.8.4
 _ZTIN7Kasten130ModelEncoderFileSystemExporterE@ABI_1_0 4:4.8.4
 _ZTIN7Kasten131ModelEncoderFileSystemExportJobE@ABI_1_0 4:4.8.4
 _ZTIN7Kasten132AbstractModelSynchronizerFactoryE@ABI_1_0 4:4.8.4
 _ZTIN7Kasten133AbstractFileSystemSyncToRemoteJobE@ABI_1_0 4:4.8.4
 _ZTIN7Kasten135AbstractFileSystemSyncFromRemoteJobE@ABI_1_0 4:4.8.4
 _ZTIN7Kasten135AbstractFileSystemSyncWithRemoteJobE@ABI_1_0 4:4.8.4
 _ZTIN7Kasten135AbstractModelFileSystemSynchronizerE@ABI_1_0 4:4.8.4
 _ZTSN7Kasten112AbstractToolE@ABI_1_0 4:4.8.4
 _ZTSN7Kasten113AbstractModelE@ABI_1_0 4:4.8.4
 _ZTSN7Kasten115AbstractLoadJobE@ABI_1_0 4:4.8.4
 _ZTSN7Kasten115DocumentManagerE@ABI_1_0 4:4.8.4
 _ZTSN7Kasten116AbstractDocumentE@ABI_1_0 4:4.8.4
 _ZTSN7Kasten117AbstractExportJobE@ABI_1_0 4:4.8.4
 _ZTSN7Kasten117ModelCodecManagerE@ABI_1_0 4:4.8.4
 _ZTSN7Kasten118AbstractConnectJobE@ABI_1_0 4:4.8.4
 _ZTSN7Kasten119DocumentSyncManagerE@ABI_1_0 4:4.8.4
 _ZTSN7Kasten121AbstractModelExporterE@ABI_1_0 4:4.8.4
 _ZTSN7Kasten121DocumentCreateManagerE@ABI_1_0 4:4.8.4
 _ZTSN7Kasten122AbstractModelSelectionE@ABI_1_0 4:4.8.4
 _ZTSN7Kasten123AbstractDocumentFactoryE@ABI_1_0 4:4.8.4
 _ZTSN7Kasten123AbstractOverwriteDialogE@ABI_1_0 4:4.8.4
 _ZTSN7Kasten123AbstractSyncToRemoteJobE@ABI_1_0 4:4.8.4
 _ZTSN7Kasten123ModelDataGenerateThreadE@ABI_1_0 4:4.8.4
 _ZTSN7Kasten123ModelStreamEncodeThreadE@ABI_1_0 4:4.8.4
 _ZTSN7Kasten125AbstractFileSystemLoadJobE@ABI_1_0 4:4.8.4
 _ZTSN7Kasten125AbstractModelSynchronizerE@ABI_1_0 4:4.8.4
 _ZTSN7Kasten125AbstractSaveDiscardDialogE@ABI_1_0 4:4.8.4
 _ZTSN7Kasten125AbstractSyncFromRemoteJobE@ABI_1_0 4:4.8.4
 _ZTSN7Kasten125AbstractSyncWithRemoteJobE@ABI_1_0 4:4.8.4
 _ZTSN7Kasten126AbstractModelDataGeneratorE@ABI_1_0 4:4.8.4
 _ZTSN7Kasten126AbstractModelStreamEncoderE@ABI_1_0 4:4.8.4
 _ZTSN7Kasten127AbstractFileSystemExportJobE@ABI_1_0 4:4.8.4
 _ZTSN7Kasten128AbstractFileSystemConnectJobE@ABI_1_0 4:4.8.4
 _ZTSN7Kasten130ModelEncoderFileSystemExporterE@ABI_1_0 4:4.8.4
 _ZTSN7Kasten131ModelEncoderFileSystemExportJobE@ABI_1_0 4:4.8.4
 _ZTSN7Kasten132AbstractModelSynchronizerFactoryE@ABI_1_0 4:4.8.4
 _ZTSN7Kasten133AbstractFileSystemSyncToRemoteJobE@ABI_1_0 4:4.8.4
 _ZTSN7Kasten135AbstractFileSystemSyncFromRemoteJobE@ABI_1_0 4:4.8.4
 _ZTSN7Kasten135AbstractFileSystemSyncWithRemoteJobE@ABI_1_0 4:4.8.4
 _ZTSN7Kasten135AbstractModelFileSystemSynchronizerE@ABI_1_0 4:4.8.4
 _ZTVN7Kasten112AbstractToolE@ABI_1_0 4:4.8.4
 _ZTVN7Kasten113AbstractModelE@ABI_1_0 4:4.8.4
 _ZTVN7Kasten115AbstractLoadJobE@ABI_1_0 4:4.8.4
 _ZTVN7Kasten115DocumentManagerE@ABI_1_0 4:4.8.4
 _ZTVN7Kasten116AbstractDocumentE@ABI_1_0 4:4.8.4
 _ZTVN7Kasten117AbstractExportJobE@ABI_1_0 4:4.8.4
 _ZTVN7Kasten117ModelCodecManagerE@ABI_1_0 4:4.8.4
 _ZTVN7Kasten118AbstractConnectJobE@ABI_1_0 4:4.8.4
 _ZTVN7Kasten119DocumentSyncManagerE@ABI_1_0 4:4.8.4
 _ZTVN7Kasten121AbstractModelExporterE@ABI_1_0 4:4.8.4
 _ZTVN7Kasten121DocumentCreateManagerE@ABI_1_0 4:4.8.4
 _ZTVN7Kasten122AbstractModelSelectionE@ABI_1_0 4:4.8.4
 _ZTVN7Kasten123AbstractDocumentFactoryE@ABI_1_0 4:4.8.4
 _ZTVN7Kasten123AbstractOverwriteDialogE@ABI_1_0 4:4.8.4
 _ZTVN7Kasten123AbstractSyncToRemoteJobE@ABI_1_0 4:4.8.4
 _ZTVN7Kasten123ModelDataGenerateThreadE@ABI_1_0 4:4.8.4
 _ZTVN7Kasten123ModelStreamEncodeThreadE@ABI_1_0 4:4.8.4
 _ZTVN7Kasten125AbstractFileSystemLoadJobE@ABI_1_0 4:4.8.4
 _ZTVN7Kasten125AbstractModelSynchronizerE@ABI_1_0 4:4.8.4
 _ZTVN7Kasten125AbstractSaveDiscardDialogE@ABI_1_0 4:4.8.4
 _ZTVN7Kasten125AbstractSyncFromRemoteJobE@ABI_1_0 4:4.8.4
 _ZTVN7Kasten125AbstractSyncWithRemoteJobE@ABI_1_0 4:4.8.4
 _ZTVN7Kasten126AbstractModelDataGeneratorE@ABI_1_0 4:4.8.4
 _ZTVN7Kasten126AbstractModelStreamEncoderE@ABI_1_0 4:4.8.4
 _ZTVN7Kasten127AbstractFileSystemExportJobE@ABI_1_0 4:4.8.4
 _ZTVN7Kasten128AbstractFileSystemConnectJobE@ABI_1_0 4:4.8.4
 _ZTVN7Kasten130ModelEncoderFileSystemExporterE@ABI_1_0 4:4.8.4
 _ZTVN7Kasten131ModelEncoderFileSystemExportJobE@ABI_1_0 4:4.8.4
 _ZTVN7Kasten132AbstractModelSynchronizerFactoryE@ABI_1_0 4:4.8.4
 _ZTVN7Kasten133AbstractFileSystemSyncToRemoteJobE@ABI_1_0 4:4.8.4
 _ZTVN7Kasten135AbstractFileSystemSyncFromRemoteJobE@ABI_1_0 4:4.8.4
 _ZTVN7Kasten135AbstractFileSystemSyncWithRemoteJobE@ABI_1_0 4:4.8.4
 _ZTVN7Kasten135AbstractModelFileSystemSynchronizerE@ABI_1_0 4:4.8.4
