# SymbolsHelper-Confirmed: 4:4.8.4 amd64
libkasten1okteta1controllers.so.1 libkasten1okteta1controllers1 #MINVER#
 ABI_1_0@ABI_1_0 4:4.8.4
 _ZN7Kasten110FilterTool11qt_metacallEN11QMetaObject4CallEiPPv@ABI_1_0 4:4.8.4
 _ZN7Kasten110FilterTool11qt_metacastEPKc@ABI_1_0 4:4.8.4
 _ZN7Kasten110FilterTool12parameterSetEi@ABI_1_0 4:4.8.4
 _ZN7Kasten110FilterTool14setTargetModelEPNS_13AbstractModelE@ABI_1_0 4:4.8.4
 _ZN7Kasten110FilterTool16charCodecChangedERK7QString@ABI_1_0 4:4.8.4
 _ZN7Kasten110FilterTool16staticMetaObjectE@ABI_1_0 4:4.8.4
 _ZN7Kasten110FilterTool18onApplyableChangedEv@ABI_1_0 4:4.8.4
 _ZN7Kasten110FilterTool19hasWriteableChangedEb@ABI_1_0 4:4.8.4
 _ZN7Kasten110FilterToolC1Ev@ABI_1_0 4:4.8.4
 _ZN7Kasten110FilterToolC2Ev@ABI_1_0 4:4.8.4
 _ZN7Kasten110FilterToolD0Ev@ABI_1_0 4:4.8.4
 _ZN7Kasten110FilterToolD1Ev@ABI_1_0 4:4.8.4
 _ZN7Kasten110FilterToolD2Ev@ABI_1_0 4:4.8.4
 _ZN7Kasten110StructTool10headerDataEii@ABI_1_0 4:4.8.4
 _ZN7Kasten110StructTool10updateDataERKN6Okteta22ArrayChangeMetricsListE@ABI_1_0 4:4.8.4
 _ZN7Kasten110StructTool11dataChangedEiPv@ABI_1_0 4:4.8.4
 _ZN7Kasten110StructTool11dataClearedEv@ABI_1_0 4:4.8.4
 _ZN7Kasten110StructTool11qt_metacallEN11QMetaObject4CallEiPPv@ABI_1_0 4:4.8.4
 _ZN7Kasten110StructTool11qt_metacastEPKc@ABI_1_0 4:4.8.4
 _ZN7Kasten110StructTool12addChildItemEP23TopLevelDataInformation@ABI_1_0 4:4.8.4
 _ZN7Kasten110StructTool12setByteOrderENS_21StructViewPreferences13EnumByteOrder4typeE@ABI_1_0 4:4.8.4
 _ZN7Kasten110StructTool12setByteOrderEi@ABI_1_0 4:4.8.4
 _ZN7Kasten110StructTool13lockStructureERK11QModelIndex@ABI_1_0 4:4.8.4
 _ZN7Kasten110StructTool14setTargetModelEPNS_13AbstractModelE@ABI_1_0 4:4.8.4
 _ZN7Kasten110StructTool15childrenRemovedEPK15DataInformationjj@ABI_1_0 4:4.8.4
 _ZN7Kasten110StructTool15unlockStructureERK11QModelIndex@ABI_1_0 4:4.8.4
 _ZN7Kasten110StructTool16byteOrderChangedEv@ABI_1_0 4:4.8.4
 _ZN7Kasten110StructTool16childrenInsertedEPK15DataInformationjj@ABI_1_0 4:4.8.4
 _ZN7Kasten110StructTool16onContentsChangeERKN6Okteta22ArrayChangeMetricsListE@ABI_1_0 4:4.8.4
 _ZN7Kasten110StructTool16staticMetaObjectE@ABI_1_0 4:4.8.4
 _ZN7Kasten110StructTool18cursorIndexChangedEv@ABI_1_0 4:4.8.4
 _ZN7Kasten110StructTool21byteArrayModelChangedEb@ABI_1_0 4:4.8.4
 _ZN7Kasten110StructTool21validateAllStructuresEv@ABI_1_0 4:4.8.4
 _ZN7Kasten110StructTool22onChildItemDataChangedEv@ABI_1_0 4:4.8.4
 _ZN7Kasten110StructTool22onCursorPositionChangeEi@ABI_1_0 4:4.8.4
 _ZN7Kasten110StructTool24childrenAboutToBeRemovedEP15DataInformationjj@ABI_1_0 4:4.8.4
 _ZN7Kasten110StructTool25childrenAboutToBeInsertedEP15DataInformationjj@ABI_1_0 4:4.8.4
 _ZN7Kasten110StructTool27setSelectedStructuresInViewEv@ABI_1_0 4:4.8.4
 _ZN7Kasten110StructTool4markERK11QModelIndex@ABI_1_0 4:4.8.4
 _ZN7Kasten110StructTool6unmarkEv@ABI_1_0 4:4.8.4
 _ZN7Kasten110StructTool7setDataERK8QVariantiP15DataInformation@ABI_1_0 4:4.8.4
 _ZN7Kasten110StructTool7setDataERK8QVariantiP15DataInformationj@ABI_1_0 4:4.8.4
 _ZN7Kasten110StructToolC1Ev@ABI_1_0 4:4.8.4
 _ZN7Kasten110StructToolC2Ev@ABI_1_0 4:4.8.4
 _ZN7Kasten110StructToolD0Ev@ABI_1_0 4:4.8.4
 _ZN7Kasten110StructToolD1Ev@ABI_1_0 4:4.8.4
 _ZN7Kasten110StructToolD2Ev@ABI_1_0 4:4.8.4
 _ZN7Kasten112ChecksumTool11qt_metacallEN11QMetaObject4CallEiPPv@ABI_1_0 4:4.8.4
 _ZN7Kasten112ChecksumTool11qt_metacastEPKc@ABI_1_0 4:4.8.4
 _ZN7Kasten112ChecksumTool12parameterSetEv@ABI_1_0 4:4.8.4
 _ZN7Kasten112ChecksumTool12setAlgorithmEi@ABI_1_0 4:4.8.4
 _ZN7Kasten112ChecksumTool13checkUptoDateEv@ABI_1_0 4:4.8.4
 _ZN7Kasten112ChecksumTool14setTargetModelEPNS_13AbstractModelE@ABI_1_0 4:4.8.4
 _ZN7Kasten112ChecksumTool15checksumChangedERK7QString@ABI_1_0 4:4.8.4
 _ZN7Kasten112ChecksumTool15onSourceChangedEv@ABI_1_0 4:4.8.4
 _ZN7Kasten112ChecksumTool15resetSourceToolEv@ABI_1_0 4:4.8.4
 _ZN7Kasten112ChecksumTool15uptodateChangedEb@ABI_1_0 4:4.8.4
 _ZN7Kasten112ChecksumTool16staticMetaObjectE@ABI_1_0 4:4.8.4
 _ZN7Kasten112ChecksumTool17calculateChecksumEv@ABI_1_0 4:4.8.4
 _ZN7Kasten112ChecksumTool17onSourceDestroyedEv@ABI_1_0 4:4.8.4
 _ZN7Kasten112ChecksumTool18isApplyableChangedEb@ABI_1_0 4:4.8.4
 _ZN7Kasten112ChecksumTool18onSelectionChangedEv@ABI_1_0 4:4.8.4
 _ZN7Kasten112ChecksumToolC1Ev@ABI_1_0 4:4.8.4
 _ZN7Kasten112ChecksumToolC2Ev@ABI_1_0 4:4.8.4
 _ZN7Kasten112ChecksumToolD0Ev@ABI_1_0 4:4.8.4
 _ZN7Kasten112ChecksumToolD1Ev@ABI_1_0 4:4.8.4
 _ZN7Kasten112ChecksumToolD2Ev@ABI_1_0 4:4.8.4
 _ZN7Kasten112InfoToolViewC1EPNS_8InfoToolE@ABI_1_0 4:4.8.4
 _ZN7Kasten112InfoToolViewC2EPNS_8InfoToolE@ABI_1_0 4:4.8.4
 _ZN7Kasten112InfoToolViewD0Ev@ABI_1_0 4:4.8.4
 _ZN7Kasten112InfoToolViewD1Ev@ABI_1_0 4:4.8.4
 _ZN7Kasten112InfoToolViewD2Ev@ABI_1_0 4:4.8.4
 _ZN7Kasten113BookmarksTool11qt_metacallEN11QMetaObject4CallEiPPv@ABI_1_0 4:4.8.4
 _ZN7Kasten113BookmarksTool11qt_metacastEPKc@ABI_1_0 4:4.8.4
 _ZN7Kasten113BookmarksTool12gotoBookmarkERKN6Okteta8BookmarkE@ABI_1_0 4:4.8.4
 _ZN7Kasten113BookmarksTool14bookmarksAddedERK5QListIN6Okteta8BookmarkEE@ABI_1_0 4:4.8.4
 _ZN7Kasten113BookmarksTool14createBookmarkEv@ABI_1_0 4:4.8.4
 _ZN7Kasten113BookmarksTool14setTargetModelEPNS_13AbstractModelE@ABI_1_0 4:4.8.4
 _ZN7Kasten113BookmarksTool15deleteBookmarksERK5QListIN6Okteta8BookmarkEE@ABI_1_0 4:4.8.4
 _ZN7Kasten113BookmarksTool15setBookmarkNameEjRK7QString@ABI_1_0 4:4.8.4
 _ZN7Kasten113BookmarksTool16bookmarksRemovedERK5QListIN6Okteta8BookmarkEE@ABI_1_0 4:4.8.4
 _ZN7Kasten113BookmarksTool16staticMetaObjectE@ABI_1_0 4:4.8.4
 _ZN7Kasten113BookmarksTool17bookmarksModifiedERK5QListIiE@ABI_1_0 4:4.8.4
 _ZN7Kasten113BookmarksTool19hasBookmarksChangedEb@ABI_1_0 4:4.8.4
 _ZN7Kasten113BookmarksTool19onBookmarksModifiedEv@ABI_1_0 4:4.8.4
 _ZN7Kasten113BookmarksTool23onCursorPositionChangedEi@ABI_1_0 4:4.8.4
 _ZN7Kasten113BookmarksTool24canCreateBookmarkChangedEb@ABI_1_0 4:4.8.4
 _ZN7Kasten113BookmarksToolC1Ev@ABI_1_0 4:4.8.4
 _ZN7Kasten113BookmarksToolC2Ev@ABI_1_0 4:4.8.4
 _ZN7Kasten113BookmarksToolD0Ev@ABI_1_0 4:4.8.4
 _ZN7Kasten113BookmarksToolD1Ev@ABI_1_0 4:4.8.4
 _ZN7Kasten113BookmarksToolD2Ev@ABI_1_0 4:4.8.4
 _ZN7Kasten113ByteTableTool11qt_metacallEN11QMetaObject4CallEiPPv@ABI_1_0 4:4.8.4
 _ZN7Kasten113ByteTableTool11qt_metacastEPKc@ABI_1_0 4:4.8.4
 _ZN7Kasten113ByteTableTool14setTargetModelEPNS_13AbstractModelE@ABI_1_0 4:4.8.4
 _ZN7Kasten113ByteTableTool16staticMetaObjectE@ABI_1_0 4:4.8.4
 _ZN7Kasten113ByteTableTool17onReadOnlyChangedEb@ABI_1_0 4:4.8.4
 _ZN7Kasten113ByteTableTool19hasWriteableChangedEb@ABI_1_0 4:4.8.4
 _ZN7Kasten113ByteTableTool6insertEhi@ABI_1_0 4:4.8.4
 _ZN7Kasten113ByteTableToolC1Ev@ABI_1_0 4:4.8.4
 _ZN7Kasten113ByteTableToolC2Ev@ABI_1_0 4:4.8.4
 _ZN7Kasten113ByteTableToolD0Ev@ABI_1_0 4:4.8.4
 _ZN7Kasten113ByteTableToolD1Ev@ABI_1_0 4:4.8.4
 _ZN7Kasten113ByteTableToolD2Ev@ABI_1_0 4:4.8.4
 _ZN7Kasten114FilterToolViewC1EPNS_10FilterToolE@ABI_1_0 4:4.8.4
 _ZN7Kasten114FilterToolViewC2EPNS_10FilterToolE@ABI_1_0 4:4.8.4
 _ZN7Kasten114FilterToolViewD0Ev@ABI_1_0 4:4.8.4
 _ZN7Kasten114FilterToolViewD1Ev@ABI_1_0 4:4.8.4
 _ZN7Kasten114FilterToolViewD2Ev@ABI_1_0 4:4.8.4
 _ZN7Kasten114PODDecoderTool10updateDataEv@ABI_1_0 4:4.8.4
 _ZN7Kasten114PODDecoderTool11dataChangedEv@ABI_1_0 4:4.8.4
 _ZN7Kasten114PODDecoderTool11qt_metacallEN11QMetaObject4CallEiPPv@ABI_1_0 4:4.8.4
 _ZN7Kasten114PODDecoderTool11qt_metacastEPKc@ABI_1_0 4:4.8.4
 _ZN7Kasten114PODDecoderTool12setByteOrderEi@ABI_1_0 4:4.8.4
 _ZN7Kasten114PODDecoderTool12setupDecoderEv@ABI_1_0 4:4.8.4
 _ZN7Kasten114PODDecoderTool14setTargetModelEPNS_13AbstractModelE@ABI_1_0 4:4.8.4
 _ZN7Kasten114PODDecoderTool15readOnlyChangedEb@ABI_1_0 4:4.8.4
 _ZN7Kasten114PODDecoderTool16onContentsChangeEv@ABI_1_0 4:4.8.4
 _ZN7Kasten114PODDecoderTool16setUnsignedAsHexEb@ABI_1_0 4:4.8.4
 _ZN7Kasten114PODDecoderTool16staticMetaObjectE@ABI_1_0 4:4.8.4
 _ZN7Kasten114PODDecoderTool17onCharCodecChangeERK7QString@ABI_1_0 4:4.8.4
 _ZN7Kasten114PODDecoderTool17onReadOnlyChangedEv@ABI_1_0 4:4.8.4
 _ZN7Kasten114PODDecoderTool18isApplyableChangedEb@ABI_1_0 4:4.8.4
 _ZN7Kasten114PODDecoderTool22onCursorPositionChangeEi@ABI_1_0 4:4.8.4
 _ZN7Kasten114PODDecoderTool22setDifferentSizeDialogEPNS_27AbstractDifferentSizeDialogE@ABI_1_0 4:4.8.4
 _ZN7Kasten114PODDecoderTool7markPODEi@ABI_1_0 4:4.8.4
 _ZN7Kasten114PODDecoderTool7setDataERK8QVarianti@ABI_1_0 4:4.8.4
 _ZN7Kasten114PODDecoderTool9unmarkPODEv@ABI_1_0 4:4.8.4
 _ZN7Kasten114PODDecoderToolC1Ev@ABI_1_0 4:4.8.4
 _ZN7Kasten114PODDecoderToolC2Ev@ABI_1_0 4:4.8.4
 _ZN7Kasten114PODDecoderToolD0Ev@ABI_1_0 4:4.8.4
 _ZN7Kasten114PODDecoderToolD1Ev@ABI_1_0 4:4.8.4
 _ZN7Kasten114PODDecoderToolD2Ev@ABI_1_0 4:4.8.4
 _ZN7Kasten114StructToolViewC1EPNS_10StructToolE@ABI_1_0 4:4.8.4
 _ZN7Kasten114StructToolViewC2EPNS_10StructToolE@ABI_1_0 4:4.8.4
 _ZN7Kasten114StructToolViewD0Ev@ABI_1_0 4:4.8.4
 _ZN7Kasten114StructToolViewD1Ev@ABI_1_0 4:4.8.4
 _ZN7Kasten114StructToolViewD2Ev@ABI_1_0 4:4.8.4
 _ZN7Kasten115InfoToolFactory6createEv@ABI_1_0 4:4.8.4
 _ZN7Kasten115InfoToolFactoryC1Ev@ABI_1_0 4:4.8.4
 _ZN7Kasten115InfoToolFactoryC2Ev@ABI_1_0 4:4.8.4
 _ZN7Kasten115InfoToolFactoryD0Ev@ABI_1_0 4:4.8.4
 _ZN7Kasten115InfoToolFactoryD1Ev@ABI_1_0 4:4.8.4
 _ZN7Kasten115InfoToolFactoryD2Ev@ABI_1_0 4:4.8.4
 _ZN7Kasten115PrintController11qt_metacallEN11QMetaObject4CallEiPPv@ABI_1_0 4:4.8.4
 _ZN7Kasten115PrintController11qt_metacastEPKc@ABI_1_0 4:4.8.4
 _ZN7Kasten115PrintController14setTargetModelEPNS_13AbstractModelE@ABI_1_0 4:4.8.4
 _ZN7Kasten115PrintController16staticMetaObjectE@ABI_1_0 4:4.8.4
 _ZN7Kasten115PrintController5printEv@ABI_1_0 4:4.8.4
 _ZN7Kasten115PrintControllerC1EP13KXMLGUIClient@ABI_1_0 4:4.8.4
 _ZN7Kasten115PrintControllerC2EP13KXMLGUIClient@ABI_1_0 4:4.8.4
 _ZN7Kasten115PrintControllerD0Ev@ABI_1_0 4:4.8.4
 _ZN7Kasten115PrintControllerD1Ev@ABI_1_0 4:4.8.4
 _ZN7Kasten115PrintControllerD2Ev@ABI_1_0 4:4.8.4
 _ZN7Kasten116ChecksumToolViewC1EPNS_12ChecksumToolE@ABI_1_0 4:4.8.4
 _ZN7Kasten116ChecksumToolViewC2EPNS_12ChecksumToolE@ABI_1_0 4:4.8.4
 _ZN7Kasten116ChecksumToolViewD0Ev@ABI_1_0 4:4.8.4
 _ZN7Kasten116ChecksumToolViewD1Ev@ABI_1_0 4:4.8.4
 _ZN7Kasten116ChecksumToolViewD2Ev@ABI_1_0 4:4.8.4
 _ZN7Kasten116DocumentInfoTool11qt_metacallEN11QMetaObject4CallEiPPv@ABI_1_0 4:4.8.4
 _ZN7Kasten116DocumentInfoTool11qt_metacastEPKc@ABI_1_0 4:4.8.4
 _ZN7Kasten116DocumentInfoTool12onUrlChangedERK4KUrl@ABI_1_0 4:4.8.4
 _ZN7Kasten116DocumentInfoTool14onSynchronizedEv@ABI_1_0 4:4.8.4
 _ZN7Kasten116DocumentInfoTool14setTargetModelEPNS_13AbstractModelE@ABI_1_0 4:4.8.4
 _ZN7Kasten116DocumentInfoTool14updateMimeTypeEv@ABI_1_0 4:4.8.4
 _ZN7Kasten116DocumentInfoTool15locationChangedERK7QString@ABI_1_0 4:4.8.4
 _ZN7Kasten116DocumentInfoTool16staticMetaObjectE@ABI_1_0 4:4.8.4
 _ZN7Kasten116DocumentInfoTool17onContentsChangedEv@ABI_1_0 4:4.8.4
 _ZN7Kasten116DocumentInfoTool19documentSizeChangedEi@ABI_1_0 4:4.8.4
 _ZN7Kasten116DocumentInfoTool20documentTitleChangedERK7QString@ABI_1_0 4:4.8.4
 _ZN7Kasten116DocumentInfoTool21onSynchronizerChangedEPNS_25AbstractModelSynchronizerE@ABI_1_0 4:4.8.4
 _ZN7Kasten116DocumentInfoTool23documentMimeTypeChangedE10KSharedPtrI9KMimeTypeE@ABI_1_0 4:4.8.4
 _ZN7Kasten116DocumentInfoToolC1EPNS_19DocumentSyncManagerE@ABI_1_0 4:4.8.4
 _ZN7Kasten116DocumentInfoToolC2EPNS_19DocumentSyncManagerE@ABI_1_0 4:4.8.4
 _ZN7Kasten116DocumentInfoToolD0Ev@ABI_1_0 4:4.8.4
 _ZN7Kasten116DocumentInfoToolD1Ev@ABI_1_0 4:4.8.4
 _ZN7Kasten116DocumentInfoToolD2Ev@ABI_1_0 4:4.8.4
 _ZN7Kasten116SearchController10showDialogENS_14KFindDirectionE@ABI_1_0 4:4.8.4
 _ZN7Kasten116SearchController11qt_metacallEN11QMetaObject4CallEiPPv@ABI_1_0 4:4.8.4
 _ZN7Kasten116SearchController11qt_metacastEPKc@ABI_1_0 4:4.8.4
 _ZN7Kasten116SearchController12findPreviousEv@ABI_1_0 4:4.8.4
 _ZN7Kasten116SearchController14onDataNotFoundEv@ABI_1_0 4:4.8.4
 _ZN7Kasten116SearchController14setTargetModelEPNS_13AbstractModelE@ABI_1_0 4:4.8.4
 _ZN7Kasten116SearchController16staticMetaObjectE@ABI_1_0 4:4.8.4
 _ZN7Kasten116SearchController4findEv@ABI_1_0 4:4.8.4
 _ZN7Kasten116SearchController8findNextEv@ABI_1_0 4:4.8.4
 _ZN7Kasten116SearchControllerC1EP13KXMLGUIClientP7QWidget@ABI_1_0 4:4.8.4
 _ZN7Kasten116SearchControllerC2EP13KXMLGUIClientP7QWidget@ABI_1_0 4:4.8.4
 _ZN7Kasten116SearchControllerD0Ev@ABI_1_0 4:4.8.4
 _ZN7Kasten116SearchControllerD1Ev@ABI_1_0 4:4.8.4
 _ZN7Kasten116SearchControllerD2Ev@ABI_1_0 4:4.8.4
 _ZN7Kasten117BookmarksToolViewC1EPNS_13BookmarksToolE@ABI_1_0 4:4.8.4
 _ZN7Kasten117BookmarksToolViewC2EPNS_13BookmarksToolE@ABI_1_0 4:4.8.4
 _ZN7Kasten117BookmarksToolViewD0Ev@ABI_1_0 4:4.8.4
 _ZN7Kasten117BookmarksToolViewD1Ev@ABI_1_0 4:4.8.4
 _ZN7Kasten117BookmarksToolViewD2Ev@ABI_1_0 4:4.8.4
 _ZN7Kasten117ByteTableToolViewC1EPNS_13ByteTableToolE@ABI_1_0 4:4.8.4
 _ZN7Kasten117ByteTableToolViewC2EPNS_13ByteTableToolE@ABI_1_0 4:4.8.4
 _ZN7Kasten117ByteTableToolViewD0Ev@ABI_1_0 4:4.8.4
 _ZN7Kasten117ByteTableToolViewD1Ev@ABI_1_0 4:4.8.4
 _ZN7Kasten117ByteTableToolViewD2Ev@ABI_1_0 4:4.8.4
 _ZN7Kasten117FilterToolFactory6createEv@ABI_1_0 4:4.8.4
 _ZN7Kasten117FilterToolFactoryC1Ev@ABI_1_0 4:4.8.4
 _ZN7Kasten117FilterToolFactoryC2Ev@ABI_1_0 4:4.8.4
 _ZN7Kasten117FilterToolFactoryD0Ev@ABI_1_0 4:4.8.4
 _ZN7Kasten117FilterToolFactoryD1Ev@ABI_1_0 4:4.8.4
 _ZN7Kasten117FilterToolFactoryD2Ev@ABI_1_0 4:4.8.4
 _ZN7Kasten117ReplaceController10onFinishedEbi@ABI_1_0 4:4.8.4
 _ZN7Kasten117ReplaceController11qt_metacallEN11QMetaObject4CallEiPPv@ABI_1_0 4:4.8.4
 _ZN7Kasten117ReplaceController11qt_metacastEPKc@ABI_1_0 4:4.8.4
 _ZN7Kasten117ReplaceController14setTargetModelEPNS_13AbstractModelE@ABI_1_0 4:4.8.4
 _ZN7Kasten117ReplaceController16staticMetaObjectE@ABI_1_0 4:4.8.4
 _ZN7Kasten117ReplaceController7replaceEv@ABI_1_0 4:4.8.4
 _ZN7Kasten117ReplaceControllerC1EP13KXMLGUIClientP7QWidget@ABI_1_0 4:4.8.4
 _ZN7Kasten117ReplaceControllerC2EP13KXMLGUIClientP7QWidget@ABI_1_0 4:4.8.4
 _ZN7Kasten117ReplaceControllerD0Ev@ABI_1_0 4:4.8.4
 _ZN7Kasten117ReplaceControllerD1Ev@ABI_1_0 4:4.8.4
 _ZN7Kasten117ReplaceControllerD2Ev@ABI_1_0 4:4.8.4
 _ZN7Kasten118PODDecoderToolViewC1EPNS_14PODDecoderToolE@ABI_1_0 4:4.8.4
 _ZN7Kasten118PODDecoderToolViewC2EPNS_14PODDecoderToolE@ABI_1_0 4:4.8.4
 _ZN7Kasten118PODDecoderToolViewD0Ev@ABI_1_0 4:4.8.4
 _ZN7Kasten118PODDecoderToolViewD1Ev@ABI_1_0 4:4.8.4
 _ZN7Kasten118PODDecoderToolViewD2Ev@ABI_1_0 4:4.8.4
 _ZN7Kasten118StringsExtractTool10markStringEi@ABI_1_0 4:4.8.4
 _ZN7Kasten118StringsExtractTool11qt_metacallEN11QMetaObject4CallEiPPv@ABI_1_0 4:4.8.4
 _ZN7Kasten118StringsExtractTool11qt_metacastEPKc@ABI_1_0 4:4.8.4
 _ZN7Kasten118StringsExtractTool12setCharCodecERK7QString@ABI_1_0 4:4.8.4
 _ZN7Kasten118StringsExtractTool12setMinLengthEi@ABI_1_0 4:4.8.4
 _ZN7Kasten118StringsExtractTool12unmarkStringEv@ABI_1_0 4:4.8.4
 _ZN7Kasten118StringsExtractTool13checkUptoDateEv@ABI_1_0 4:4.8.4
 _ZN7Kasten118StringsExtractTool14extractStringsEv@ABI_1_0 4:4.8.4
 _ZN7Kasten118StringsExtractTool14setTargetModelEPNS_13AbstractModelE@ABI_1_0 4:4.8.4
 _ZN7Kasten118StringsExtractTool15onSourceChangedEv@ABI_1_0 4:4.8.4
 _ZN7Kasten118StringsExtractTool15uptodateChangedEb@ABI_1_0 4:4.8.4
 _ZN7Kasten118StringsExtractTool16staticMetaObjectE@ABI_1_0 4:4.8.4
 _ZN7Kasten118StringsExtractTool17onSourceDestroyedEv@ABI_1_0 4:4.8.4
 _ZN7Kasten118StringsExtractTool18isApplyableChangedEb@ABI_1_0 4:4.8.4
 _ZN7Kasten118StringsExtractTool18onSelectionChangedEv@ABI_1_0 4:4.8.4
 _ZN7Kasten118StringsExtractTool21onSourceViewDestroyedEv@ABI_1_0 4:4.8.4
 _ZN7Kasten118StringsExtractTool25canHighlightStringChangedEb@ABI_1_0 4:4.8.4
 _ZN7Kasten118StringsExtractToolC1Ev@ABI_1_0 4:4.8.4
 _ZN7Kasten118StringsExtractToolC2Ev@ABI_1_0 4:4.8.4
 _ZN7Kasten118StringsExtractToolD0Ev@ABI_1_0 4:4.8.4
 _ZN7Kasten118StringsExtractToolD1Ev@ABI_1_0 4:4.8.4
 _ZN7Kasten118StringsExtractToolD2Ev@ABI_1_0 4:4.8.4
 _ZN7Kasten118ViewModeController11qt_metacallEN11QMetaObject4CallEiPPv@ABI_1_0 4:4.8.4
 _ZN7Kasten118ViewModeController11qt_metacastEPKc@ABI_1_0 4:4.8.4
 _ZN7Kasten118ViewModeController11setViewModeEi@ABI_1_0 4:4.8.4
 _ZN7Kasten118ViewModeController14setTargetModelEPNS_13AbstractModelE@ABI_1_0 4:4.8.4
 _ZN7Kasten118ViewModeController16staticMetaObjectE@ABI_1_0 4:4.8.4
 _ZN7Kasten118ViewModeControllerC1EP13KXMLGUIClient@ABI_1_0 4:4.8.4
 _ZN7Kasten118ViewModeControllerC2EP13KXMLGUIClient@ABI_1_0 4:4.8.4
 _ZN7Kasten118ViewModeControllerD0Ev@ABI_1_0 4:4.8.4
 _ZN7Kasten118ViewModeControllerD1Ev@ABI_1_0 4:4.8.4
 _ZN7Kasten118ViewModeControllerD2Ev@ABI_1_0 4:4.8.4
 _ZN7Kasten119BookmarksController11qt_metacallEN11QMetaObject4CallEiPPv@ABI_1_0 4:4.8.4
 _ZN7Kasten119BookmarksController11qt_metacastEPKc@ABI_1_0 4:4.8.4
 _ZN7Kasten119BookmarksController14createBookmarkEv@ABI_1_0 4:4.8.4
 _ZN7Kasten119BookmarksController14deleteBookmarkEv@ABI_1_0 4:4.8.4
 _ZN7Kasten119BookmarksController14setTargetModelEPNS_13AbstractModelE@ABI_1_0 4:4.8.4
 _ZN7Kasten119BookmarksController15updateBookmarksEv@ABI_1_0 4:4.8.4
 _ZN7Kasten119BookmarksController16gotoNextBookmarkEv@ABI_1_0 4:4.8.4
 _ZN7Kasten119BookmarksController16onBookmarksAddedERK5QListIN6Okteta8BookmarkEE@ABI_1_0 4:4.8.4
 _ZN7Kasten119BookmarksController16staticMetaObjectE@ABI_1_0 4:4.8.4
 _ZN7Kasten119BookmarksController18deleteAllBookmarksEv@ABI_1_0 4:4.8.4
 _ZN7Kasten119BookmarksController18onBookmarksRemovedERK5QListIN6Okteta8BookmarkEE@ABI_1_0 4:4.8.4
 _ZN7Kasten119BookmarksController19onBookmarkTriggeredEP7QAction@ABI_1_0 4:4.8.4
 _ZN7Kasten119BookmarksController20gotoPreviousBookmarkEv@ABI_1_0 4:4.8.4
 _ZN7Kasten119BookmarksController23onCursorPositionChangedEi@ABI_1_0 4:4.8.4
 _ZN7Kasten119BookmarksControllerC1EP13KXMLGUIClient@ABI_1_0 4:4.8.4
 _ZN7Kasten119BookmarksControllerC2EP13KXMLGUIClient@ABI_1_0 4:4.8.4
 _ZN7Kasten119BookmarksControllerD0Ev@ABI_1_0 4:4.8.4
 _ZN7Kasten119BookmarksControllerD1Ev@ABI_1_0 4:4.8.4
 _ZN7Kasten119BookmarksControllerD2Ev@ABI_1_0 4:4.8.4
 _ZN7Kasten119ChecksumToolFactory6createEv@ABI_1_0 4:4.8.4
 _ZN7Kasten119ChecksumToolFactoryC1Ev@ABI_1_0 4:4.8.4
 _ZN7Kasten119ChecksumToolFactoryC2Ev@ABI_1_0 4:4.8.4
 _ZN7Kasten119ChecksumToolFactoryD0Ev@ABI_1_0 4:4.8.4
 _ZN7Kasten119ChecksumToolFactoryD1Ev@ABI_1_0 4:4.8.4
 _ZN7Kasten119ChecksumToolFactoryD2Ev@ABI_1_0 4:4.8.4
 _ZN7Kasten119InfoToolViewFactory6createEPNS_12AbstractToolE@ABI_1_0 4:4.8.4
 _ZN7Kasten119InfoToolViewFactoryC1Ev@ABI_1_0 4:4.8.4
 _ZN7Kasten119InfoToolViewFactoryC2Ev@ABI_1_0 4:4.8.4
 _ZN7Kasten119InfoToolViewFactoryD0Ev@ABI_1_0 4:4.8.4
 _ZN7Kasten119InfoToolViewFactoryD1Ev@ABI_1_0 4:4.8.4
 _ZN7Kasten119InfoToolViewFactoryD2Ev@ABI_1_0 4:4.8.4
 _ZN7Kasten120BookmarksToolFactory6createEv@ABI_1_0 4:4.8.4
 _ZN7Kasten120BookmarksToolFactoryC1Ev@ABI_1_0 4:4.8.4
 _ZN7Kasten120BookmarksToolFactoryC2Ev@ABI_1_0 4:4.8.4
 _ZN7Kasten120BookmarksToolFactoryD0Ev@ABI_1_0 4:4.8.4
 _ZN7Kasten120BookmarksToolFactoryD1Ev@ABI_1_0 4:4.8.4
 _ZN7Kasten120BookmarksToolFactoryD2Ev@ABI_1_0 4:4.8.4
 _ZN7Kasten120ByteTableToolFactory6createEv@ABI_1_0 4:4.8.4
 _ZN7Kasten120ByteTableToolFactoryC1Ev@ABI_1_0 4:4.8.4
 _ZN7Kasten120ByteTableToolFactoryC2Ev@ABI_1_0 4:4.8.4
 _ZN7Kasten120ByteTableToolFactoryD0Ev@ABI_1_0 4:4.8.4
 _ZN7Kasten120ByteTableToolFactoryD1Ev@ABI_1_0 4:4.8.4
 _ZN7Kasten120ByteTableToolFactoryD2Ev@ABI_1_0 4:4.8.4
 _ZN7Kasten120DocumentInfoToolViewC1EPNS_16DocumentInfoToolE@ABI_1_0 4:4.8.4
 _ZN7Kasten120DocumentInfoToolViewC2EPNS_16DocumentInfoToolE@ABI_1_0 4:4.8.4
 _ZN7Kasten120DocumentInfoToolViewD0Ev@ABI_1_0 4:4.8.4
 _ZN7Kasten120DocumentInfoToolViewD1Ev@ABI_1_0 4:4.8.4
 _ZN7Kasten120DocumentInfoToolViewD2Ev@ABI_1_0 4:4.8.4
 _ZN7Kasten120GotoOffsetController10gotoOffsetEv@ABI_1_0 4:4.8.4
 _ZN7Kasten120GotoOffsetController11qt_metacallEN11QMetaObject4CallEiPPv@ABI_1_0 4:4.8.4
 _ZN7Kasten120GotoOffsetController11qt_metacastEPKc@ABI_1_0 4:4.8.4
 _ZN7Kasten120GotoOffsetController14setTargetModelEPNS_13AbstractModelE@ABI_1_0 4:4.8.4
 _ZN7Kasten120GotoOffsetController16staticMetaObjectE@ABI_1_0 4:4.8.4
 _ZN7Kasten120GotoOffsetControllerC1EPNS_2If18ToolInlineViewableEP13KXMLGUIClient@ABI_1_0 4:4.8.4
 _ZN7Kasten120GotoOffsetControllerC2EPNS_2If18ToolInlineViewableEP13KXMLGUIClient@ABI_1_0 4:4.8.4
 _ZN7Kasten120GotoOffsetControllerD0Ev@ABI_1_0 4:4.8.4
 _ZN7Kasten120GotoOffsetControllerD1Ev@ABI_1_0 4:4.8.4
 _ZN7Kasten120GotoOffsetControllerD2Ev@ABI_1_0 4:4.8.4
 _ZN7Kasten120ViewConfigController11qt_metacallEN11QMetaObject4CallEiPPv@ABI_1_0 4:4.8.4
 _ZN7Kasten120ViewConfigController11qt_metacastEPKc@ABI_1_0 4:4.8.4
 _ZN7Kasten120ViewConfigController13setCharCodingEi@ABI_1_0 4:4.8.4
 _ZN7Kasten120ViewConfigController14setLayoutStyleEi@ABI_1_0 4:4.8.4
 _ZN7Kasten120ViewConfigController14setTargetModelEPNS_13AbstractModelE@ABI_1_0 4:4.8.4
 _ZN7Kasten120ViewConfigController14setValueCodingEi@ABI_1_0 4:4.8.4
 _ZN7Kasten120ViewConfigController15setBytesPerLineEv@ABI_1_0 4:4.8.4
 _ZN7Kasten120ViewConfigController16setBytesPerGroupEv@ABI_1_0 4:4.8.4
 _ZN7Kasten120ViewConfigController16staticMetaObjectE@ABI_1_0 4:4.8.4
 _ZN7Kasten120ViewConfigController18onCharCodecChangedERK7QString@ABI_1_0 4:4.8.4
 _ZN7Kasten120ViewConfigController18toggleOffsetColumnEb@ABI_1_0 4:4.8.4
 _ZN7Kasten120ViewConfigController19setShowsNonprintingEb@ABI_1_0 4:4.8.4
 _ZN7Kasten120ViewConfigController20onValueCodingChangedEi@ABI_1_0 4:4.8.4
 _ZN7Kasten120ViewConfigController22toggleValueCharColumnsEi@ABI_1_0 4:4.8.4
 _ZN7Kasten120ViewConfigControllerC1EP13KXMLGUIClient@ABI_1_0 4:4.8.4
 _ZN7Kasten120ViewConfigControllerC2EP13KXMLGUIClient@ABI_1_0 4:4.8.4
 _ZN7Kasten120ViewConfigControllerD0Ev@ABI_1_0 4:4.8.4
 _ZN7Kasten120ViewConfigControllerD1Ev@ABI_1_0 4:4.8.4
 _ZN7Kasten120ViewConfigControllerD2Ev@ABI_1_0 4:4.8.4
 _ZN7Kasten120ViewStatusController11qt_metacallEN11QMetaObject4CallEiPPv@ABI_1_0 4:4.8.4
 _ZN7Kasten120ViewStatusController11qt_metacastEPKc@ABI_1_0 4:4.8.4
 _ZN7Kasten120ViewStatusController13setCharCodingEi@ABI_1_0 4:4.8.4
 _ZN7Kasten120ViewStatusController14setTargetModelEPNS_13AbstractModelE@ABI_1_0 4:4.8.4
 _ZN7Kasten120ViewStatusController14setValueCodingEi@ABI_1_0 4:4.8.4
 _ZN7Kasten120ViewStatusController16setOverwriteModeEb@ABI_1_0 4:4.8.4
 _ZN7Kasten120ViewStatusController16staticMetaObjectE@ABI_1_0 4:4.8.4
 _ZN7Kasten120ViewStatusController18onCharCodecChangedERK7QString@ABI_1_0 4:4.8.4
 _ZN7Kasten120ViewStatusController20onValueCodingChangedEi@ABI_1_0 4:4.8.4
 _ZN7Kasten120ViewStatusController21onSelectedDataChangedEPKNS_22AbstractModelSelectionE@ABI_1_0 4:4.8.4
 _ZN7Kasten120ViewStatusController23onCursorPositionChangedEi@ABI_1_0 4:4.8.4
 _ZN7Kasten120ViewStatusController9fixWidthsEv@ABI_1_0 4:4.8.4
 _ZN7Kasten120ViewStatusControllerC1EPNS_9StatusBarE@ABI_1_0 4:4.8.4
 _ZN7Kasten120ViewStatusControllerC2EPNS_9StatusBarE@ABI_1_0 4:4.8.4
 _ZN7Kasten120ViewStatusControllerD0Ev@ABI_1_0 4:4.8.4
 _ZN7Kasten120ViewStatusControllerD1Ev@ABI_1_0 4:4.8.4
 _ZN7Kasten120ViewStatusControllerD2Ev@ABI_1_0 4:4.8.4
 _ZN7Kasten121CharsetConversionTool11qt_metacallEN11QMetaObject4CallEiPPv@ABI_1_0 4:4.8.4
 _ZN7Kasten121CharsetConversionTool11qt_metacastEPKc@ABI_1_0 4:4.8.4
 _ZN7Kasten121CharsetConversionTool12convertCharsEv@ABI_1_0 4:4.8.4
 _ZN7Kasten121CharsetConversionTool13onViewChangedEv@ABI_1_0 4:4.8.4
 _ZN7Kasten121CharsetConversionTool14conversionDoneEbiRK4QMapIhiE@ABI_1_0 4:4.8.4
 _ZN7Kasten121CharsetConversionTool14setTargetModelEPNS_13AbstractModelE@ABI_1_0 4:4.8.4
 _ZN7Kasten121CharsetConversionTool16staticMetaObjectE@ABI_1_0 4:4.8.4
 _ZN7Kasten121CharsetConversionTool17setSubstituteByteEi@ABI_1_0 4:4.8.4
 _ZN7Kasten121CharsetConversionTool18isApplyableChangedEb@ABI_1_0 4:4.8.4
 _ZN7Kasten121CharsetConversionTool21setOtherCharCodecNameERK7QString@ABI_1_0 4:4.8.4
 _ZN7Kasten121CharsetConversionTool22setConversionDirectionEi@ABI_1_0 4:4.8.4
 _ZN7Kasten121CharsetConversionTool27setSubstitutingMissingCharsEb@ABI_1_0 4:4.8.4
 _ZN7Kasten121CharsetConversionToolC1Ev@ABI_1_0 4:4.8.4
 _ZN7Kasten121CharsetConversionToolC2Ev@ABI_1_0 4:4.8.4
 _ZN7Kasten121CharsetConversionToolD0Ev@ABI_1_0 4:4.8.4
 _ZN7Kasten121CharsetConversionToolD1Ev@ABI_1_0 4:4.8.4
 _ZN7Kasten121CharsetConversionToolD2Ev@ABI_1_0 4:4.8.4
 _ZN7Kasten121FilterToolViewFactory6createEPNS_12AbstractToolE@ABI_1_0 4:4.8.4
 _ZN7Kasten121FilterToolViewFactoryC1Ev@ABI_1_0 4:4.8.4
 _ZN7Kasten121FilterToolViewFactoryC2Ev@ABI_1_0 4:4.8.4
 _ZN7Kasten121FilterToolViewFactoryD0Ev@ABI_1_0 4:4.8.4
 _ZN7Kasten121FilterToolViewFactoryD1Ev@ABI_1_0 4:4.8.4
 _ZN7Kasten121FilterToolViewFactoryD2Ev@ABI_1_0 4:4.8.4
 _ZN7Kasten121PodDecoderToolFactory6createEv@ABI_1_0 4:4.8.4
 _ZN7Kasten121PodDecoderToolFactoryC1Ev@ABI_1_0 4:4.8.4
 _ZN7Kasten121PodDecoderToolFactoryC2Ev@ABI_1_0 4:4.8.4
 _ZN7Kasten121PodDecoderToolFactoryD0Ev@ABI_1_0 4:4.8.4
 _ZN7Kasten121PodDecoderToolFactoryD1Ev@ABI_1_0 4:4.8.4
 _ZN7Kasten121PodDecoderToolFactoryD2Ev@ABI_1_0 4:4.8.4
 _ZN7Kasten121SelectRangeController11qt_metacallEN11QMetaObject4CallEiPPv@ABI_1_0 4:4.8.4
 _ZN7Kasten121SelectRangeController11qt_metacastEPKc@ABI_1_0 4:4.8.4
 _ZN7Kasten121SelectRangeController14setTargetModelEPNS_13AbstractModelE@ABI_1_0 4:4.8.4
 _ZN7Kasten121SelectRangeController16staticMetaObjectE@ABI_1_0 4:4.8.4
 _ZN7Kasten121SelectRangeController6selectEv@ABI_1_0 4:4.8.4
 _ZN7Kasten121SelectRangeControllerC1EPNS_2If18ToolInlineViewableEP13KXMLGUIClient@ABI_1_0 4:4.8.4
 _ZN7Kasten121SelectRangeControllerC2EPNS_2If18ToolInlineViewableEP13KXMLGUIClient@ABI_1_0 4:4.8.4
 _ZN7Kasten121SelectRangeControllerD0Ev@ABI_1_0 4:4.8.4
 _ZN7Kasten121SelectRangeControllerD1Ev@ABI_1_0 4:4.8.4
 _ZN7Kasten121SelectRangeControllerD2Ev@ABI_1_0 4:4.8.4
 _ZN7Kasten121StructuresToolFactory6createEv@ABI_1_0 4:4.8.4
 _ZN7Kasten121StructuresToolFactoryC1Ev@ABI_1_0 4:4.8.4
 _ZN7Kasten121StructuresToolFactoryC2Ev@ABI_1_0 4:4.8.4
 _ZN7Kasten121StructuresToolFactoryD0Ev@ABI_1_0 4:4.8.4
 _ZN7Kasten121StructuresToolFactoryD1Ev@ABI_1_0 4:4.8.4
 _ZN7Kasten121StructuresToolFactoryD2Ev@ABI_1_0 4:4.8.4
 _ZN7Kasten122StringsExtractToolViewC1EPNS_18StringsExtractToolE@ABI_1_0 4:4.8.4
 _ZN7Kasten122StringsExtractToolViewC2EPNS_18StringsExtractToolE@ABI_1_0 4:4.8.4
 _ZN7Kasten122StringsExtractToolViewD0Ev@ABI_1_0 4:4.8.4
 _ZN7Kasten122StringsExtractToolViewD1Ev@ABI_1_0 4:4.8.4
 _ZN7Kasten122StringsExtractToolViewD2Ev@ABI_1_0 4:4.8.4
 _ZN7Kasten123ChecksumToolViewFactory6createEPNS_12AbstractToolE@ABI_1_0 4:4.8.4
 _ZN7Kasten123ChecksumToolViewFactoryC1Ev@ABI_1_0 4:4.8.4
 _ZN7Kasten123ChecksumToolViewFactoryC2Ev@ABI_1_0 4:4.8.4
 _ZN7Kasten123ChecksumToolViewFactoryD0Ev@ABI_1_0 4:4.8.4
 _ZN7Kasten123ChecksumToolViewFactoryD1Ev@ABI_1_0 4:4.8.4
 _ZN7Kasten123ChecksumToolViewFactoryD2Ev@ABI_1_0 4:4.8.4
 _ZN7Kasten123OverwriteModeController11qt_metacallEN11QMetaObject4CallEiPPv@ABI_1_0 4:4.8.4
 _ZN7Kasten123OverwriteModeController11qt_metacastEPKc@ABI_1_0 4:4.8.4
 _ZN7Kasten123OverwriteModeController12setOverWriteEb@ABI_1_0 4:4.8.4
 _ZN7Kasten123OverwriteModeController14setTargetModelEPNS_13AbstractModelE@ABI_1_0 4:4.8.4
 _ZN7Kasten123OverwriteModeController16staticMetaObjectE@ABI_1_0 4:4.8.4
 _ZN7Kasten123OverwriteModeControllerC1EP13KXMLGUIClient@ABI_1_0 4:4.8.4
 _ZN7Kasten123OverwriteModeControllerC2EP13KXMLGUIClient@ABI_1_0 4:4.8.4
 _ZN7Kasten123OverwriteModeControllerD0Ev@ABI_1_0 4:4.8.4
 _ZN7Kasten123OverwriteModeControllerD1Ev@ABI_1_0 4:4.8.4
 _ZN7Kasten123OverwriteModeControllerD2Ev@ABI_1_0 4:4.8.4
 _ZN7Kasten124BookmarksToolViewFactory6createEPNS_12AbstractToolE@ABI_1_0 4:4.8.4
 _ZN7Kasten124BookmarksToolViewFactoryC1Ev@ABI_1_0 4:4.8.4
 _ZN7Kasten124BookmarksToolViewFactoryC2Ev@ABI_1_0 4:4.8.4
 _ZN7Kasten124BookmarksToolViewFactoryD0Ev@ABI_1_0 4:4.8.4
 _ZN7Kasten124BookmarksToolViewFactoryD1Ev@ABI_1_0 4:4.8.4
 _ZN7Kasten124BookmarksToolViewFactoryD2Ev@ABI_1_0 4:4.8.4
 _ZN7Kasten124ByteTableToolViewFactory6createEPNS_12AbstractToolE@ABI_1_0 4:4.8.4
 _ZN7Kasten124ByteTableToolViewFactoryC1Ev@ABI_1_0 4:4.8.4
 _ZN7Kasten124ByteTableToolViewFactoryC2Ev@ABI_1_0 4:4.8.4
 _ZN7Kasten124ByteTableToolViewFactoryD0Ev@ABI_1_0 4:4.8.4
 _ZN7Kasten124ByteTableToolViewFactoryD1Ev@ABI_1_0 4:4.8.4
 _ZN7Kasten124ByteTableToolViewFactoryD2Ev@ABI_1_0 4:4.8.4
 _ZN7Kasten125CharsetConversionToolViewC1EPNS_21CharsetConversionToolE@ABI_1_0 4:4.8.4
 _ZN7Kasten125CharsetConversionToolViewC2EPNS_21CharsetConversionToolE@ABI_1_0 4:4.8.4
 _ZN7Kasten125CharsetConversionToolViewD0Ev@ABI_1_0 4:4.8.4
 _ZN7Kasten125CharsetConversionToolViewD1Ev@ABI_1_0 4:4.8.4
 _ZN7Kasten125CharsetConversionToolViewD2Ev@ABI_1_0 4:4.8.4
 _ZN7Kasten125PodDecoderToolViewFactory6createEPNS_12AbstractToolE@ABI_1_0 4:4.8.4
 _ZN7Kasten125PodDecoderToolViewFactoryC1Ev@ABI_1_0 4:4.8.4
 _ZN7Kasten125PodDecoderToolViewFactoryC2Ev@ABI_1_0 4:4.8.4
 _ZN7Kasten125PodDecoderToolViewFactoryD0Ev@ABI_1_0 4:4.8.4
 _ZN7Kasten125PodDecoderToolViewFactoryD1Ev@ABI_1_0 4:4.8.4
 _ZN7Kasten125PodDecoderToolViewFactoryD2Ev@ABI_1_0 4:4.8.4
 _ZN7Kasten125StringsExtractToolFactory6createEv@ABI_1_0 4:4.8.4
 _ZN7Kasten125StringsExtractToolFactoryC1Ev@ABI_1_0 4:4.8.4
 _ZN7Kasten125StringsExtractToolFactoryC2Ev@ABI_1_0 4:4.8.4
 _ZN7Kasten125StringsExtractToolFactoryD0Ev@ABI_1_0 4:4.8.4
 _ZN7Kasten125StringsExtractToolFactoryD1Ev@ABI_1_0 4:4.8.4
 _ZN7Kasten125StringsExtractToolFactoryD2Ev@ABI_1_0 4:4.8.4
 _ZN7Kasten125StructuresToolViewFactory6createEPNS_12AbstractToolE@ABI_1_0 4:4.8.4
 _ZN7Kasten125StructuresToolViewFactoryC1Ev@ABI_1_0 4:4.8.4
 _ZN7Kasten125StructuresToolViewFactoryC2Ev@ABI_1_0 4:4.8.4
 _ZN7Kasten125StructuresToolViewFactoryD0Ev@ABI_1_0 4:4.8.4
 _ZN7Kasten125StructuresToolViewFactoryD1Ev@ABI_1_0 4:4.8.4
 _ZN7Kasten125StructuresToolViewFactoryD2Ev@ABI_1_0 4:4.8.4
 _ZN7Kasten128CharsetConversionToolFactory6createEv@ABI_1_0 4:4.8.4
 _ZN7Kasten128CharsetConversionToolFactoryC1Ev@ABI_1_0 4:4.8.4
 _ZN7Kasten128CharsetConversionToolFactoryC2Ev@ABI_1_0 4:4.8.4
 _ZN7Kasten128CharsetConversionToolFactoryD0Ev@ABI_1_0 4:4.8.4
 _ZN7Kasten128CharsetConversionToolFactoryD1Ev@ABI_1_0 4:4.8.4
 _ZN7Kasten128CharsetConversionToolFactoryD2Ev@ABI_1_0 4:4.8.4
 _ZN7Kasten129StringsExtractToolViewFactory6createEPNS_12AbstractToolE@ABI_1_0 4:4.8.4
 _ZN7Kasten129StringsExtractToolViewFactoryC1Ev@ABI_1_0 4:4.8.4
 _ZN7Kasten129StringsExtractToolViewFactoryC2Ev@ABI_1_0 4:4.8.4
 _ZN7Kasten129StringsExtractToolViewFactoryD0Ev@ABI_1_0 4:4.8.4
 _ZN7Kasten129StringsExtractToolViewFactoryD1Ev@ABI_1_0 4:4.8.4
 _ZN7Kasten129StringsExtractToolViewFactoryD2Ev@ABI_1_0 4:4.8.4
 _ZN7Kasten132CharsetConversionToolViewFactory6createEPNS_12AbstractToolE@ABI_1_0 4:4.8.4
 _ZN7Kasten132CharsetConversionToolViewFactoryC1Ev@ABI_1_0 4:4.8.4
 _ZN7Kasten132CharsetConversionToolViewFactoryC2Ev@ABI_1_0 4:4.8.4
 _ZN7Kasten132CharsetConversionToolViewFactoryD0Ev@ABI_1_0 4:4.8.4
 _ZN7Kasten132CharsetConversionToolViewFactoryD1Ev@ABI_1_0 4:4.8.4
 _ZN7Kasten132CharsetConversionToolViewFactoryD2Ev@ABI_1_0 4:4.8.4
 _ZN7Kasten18InfoTool11qt_metacallEN11QMetaObject4CallEiPPv@ABI_1_0 4:4.8.4
 _ZN7Kasten18InfoTool11qt_metacastEPKc@ABI_1_0 4:4.8.4
 _ZN7Kasten18InfoTool14setTargetModelEPNS_13AbstractModelE@ABI_1_0 4:4.8.4
 _ZN7Kasten18InfoTool14statisticDirtyEb@ABI_1_0 4:4.8.4
 _ZN7Kasten18InfoTool15onSourceChangedEv@ABI_1_0 4:4.8.4
 _ZN7Kasten18InfoTool15updateStatisticEv@ABI_1_0 4:4.8.4
 _ZN7Kasten18InfoTool16staticMetaObjectE@ABI_1_0 4:4.8.4
 _ZN7Kasten18InfoTool17onSourceDestroyedEv@ABI_1_0 4:4.8.4
 _ZN7Kasten18InfoTool18isApplyableChangedEb@ABI_1_0 4:4.8.4
 _ZN7Kasten18InfoTool18onSelectionChangedEv@ABI_1_0 4:4.8.4
 _ZN7Kasten18InfoToolC1Ev@ABI_1_0 4:4.8.4
 _ZN7Kasten18InfoToolC2Ev@ABI_1_0 4:4.8.4
 _ZN7Kasten18InfoToolD0Ev@ABI_1_0 4:4.8.4
 _ZN7Kasten18InfoToolD1Ev@ABI_1_0 4:4.8.4
 _ZN7Kasten18InfoToolD2Ev@ABI_1_0 4:4.8.4
 _ZNK7Kasten110FilterTool10filterListEv@ABI_1_0 4:4.8.4
 _ZNK7Kasten110FilterTool10metaObjectEv@ABI_1_0 4:4.8.4
 _ZNK7Kasten110FilterTool12hasWriteableEv@ABI_1_0 4:4.8.4
 _ZNK7Kasten110FilterTool13charCodecNameEv@ABI_1_0 4:4.8.4
 _ZNK7Kasten110FilterTool5titleEv@ABI_1_0 4:4.8.4
 _ZNK7Kasten110FilterTool6filterEi@ABI_1_0 4:4.8.4
 _ZNK7Kasten110StructTool10childCountEv@ABI_1_0 4:4.8.4
 _ZNK7Kasten110StructTool10metaObjectEv@ABI_1_0 4:4.8.4
 _ZNK7Kasten110StructTool11columnCountEv@ABI_1_0 4:4.8.4
 _ZNK7Kasten110StructTool12isFileLoadedEv@ABI_1_0 4:4.8.4
 _ZNK7Kasten110StructTool14byteArrayModelEv@ABI_1_0 4:4.8.4
 _ZNK7Kasten110StructTool17isStructureLockedERK11QModelIndex@ABI_1_0 4:4.8.4
 _ZNK7Kasten110StructTool20canStructureBeLockedERK11QModelIndex@ABI_1_0 4:4.8.4
 _ZNK7Kasten110StructTool5titleEv@ABI_1_0 4:4.8.4
 _ZNK7Kasten110StructTool7childAtEi@ABI_1_0 4:4.8.4
 _ZNK7Kasten110StructTool7managerEv@ABI_1_0 4:4.8.4
 _ZNK7Kasten110StructTool9byteOrderEv@ABI_1_0 4:4.8.4
 _ZNK7Kasten112ChecksumTool10metaObjectEv@ABI_1_0 4:4.8.4
 _ZNK7Kasten112ChecksumTool11isApplyableEv@ABI_1_0 4:4.8.4
 _ZNK7Kasten112ChecksumTool13algorithmListEv@ABI_1_0 4:4.8.4
 _ZNK7Kasten112ChecksumTool5titleEv@ABI_1_0 4:4.8.4
 _ZNK7Kasten112InfoToolView4toolEv@ABI_1_0 4:4.8.4
 _ZNK7Kasten112InfoToolView5titleEv@ABI_1_0 4:4.8.4
 _ZNK7Kasten112InfoToolView6widgetEv@ABI_1_0 4:4.8.4
 _ZNK7Kasten113BookmarksTool10bookmarkAtEj@ABI_1_0 4:4.8.4
 _ZNK7Kasten113BookmarksTool10metaObjectEv@ABI_1_0 4:4.8.4
 _ZNK7Kasten113BookmarksTool14bookmarksCountEv@ABI_1_0 4:4.8.4
 _ZNK7Kasten113BookmarksTool17canCreateBookmarkEv@ABI_1_0 4:4.8.4
 _ZNK7Kasten113BookmarksTool5titleEv@ABI_1_0 4:4.8.4
 _ZNK7Kasten113BookmarksTool7indexOfERKN6Okteta8BookmarkE@ABI_1_0 4:4.8.4
 _ZNK7Kasten113ByteTableTool10metaObjectEv@ABI_1_0 4:4.8.4
 _ZNK7Kasten113ByteTableTool12hasWriteableEv@ABI_1_0 4:4.8.4
 _ZNK7Kasten113ByteTableTool14byteTableModelEv@ABI_1_0 4:4.8.4
 _ZNK7Kasten113ByteTableTool5titleEv@ABI_1_0 4:4.8.4
 _ZNK7Kasten114FilterToolView4toolEv@ABI_1_0 4:4.8.4
 _ZNK7Kasten114FilterToolView5titleEv@ABI_1_0 4:4.8.4
 _ZNK7Kasten114FilterToolView6widgetEv@ABI_1_0 4:4.8.4
 _ZNK7Kasten114PODDecoderTool10isReadOnlyEv@ABI_1_0 4:4.8.4
 _ZNK7Kasten114PODDecoderTool10metaObjectEv@ABI_1_0 4:4.8.4
 _ZNK7Kasten114PODDecoderTool11isApplyableEv@ABI_1_0 4:4.8.4
 _ZNK7Kasten114PODDecoderTool5titleEv@ABI_1_0 4:4.8.4
 _ZNK7Kasten114PODDecoderTool5valueEi@ABI_1_0 4:4.8.4
 _ZNK7Kasten114PODDecoderTool8podCountEv@ABI_1_0 4:4.8.4
 _ZNK7Kasten114PODDecoderTool9nameOfPODEi@ABI_1_0 4:4.8.4
 _ZNK7Kasten114StructToolView4toolEv@ABI_1_0 4:4.8.4
 _ZNK7Kasten114StructToolView5titleEv@ABI_1_0 4:4.8.4
 _ZNK7Kasten114StructToolView6widgetEv@ABI_1_0 4:4.8.4
 _ZNK7Kasten115PrintController10metaObjectEv@ABI_1_0 4:4.8.4
 _ZNK7Kasten116ChecksumToolView4toolEv@ABI_1_0 4:4.8.4
 _ZNK7Kasten116ChecksumToolView5titleEv@ABI_1_0 4:4.8.4
 _ZNK7Kasten116ChecksumToolView6widgetEv@ABI_1_0 4:4.8.4
 _ZNK7Kasten116DocumentInfoTool10metaObjectEv@ABI_1_0 4:4.8.4
 _ZNK7Kasten116DocumentInfoTool12documentSizeEv@ABI_1_0 4:4.8.4
 _ZNK7Kasten116DocumentInfoTool13documentTitleEv@ABI_1_0 4:4.8.4
 _ZNK7Kasten116DocumentInfoTool5titleEv@ABI_1_0 4:4.8.4
 _ZNK7Kasten116DocumentInfoTool8locationEv@ABI_1_0 4:4.8.4
 _ZNK7Kasten116SearchController10metaObjectEv@ABI_1_0 4:4.8.4
 _ZNK7Kasten116SearchController13queryContinueENS_14KFindDirectionE@ABI_1_0 4:4.8.4
 _ZNK7Kasten117BookmarksToolView4toolEv@ABI_1_0 4:4.8.4
 _ZNK7Kasten117BookmarksToolView5titleEv@ABI_1_0 4:4.8.4
 _ZNK7Kasten117BookmarksToolView6widgetEv@ABI_1_0 4:4.8.4
 _ZNK7Kasten117ByteTableToolView4toolEv@ABI_1_0 4:4.8.4
 _ZNK7Kasten117ByteTableToolView5titleEv@ABI_1_0 4:4.8.4
 _ZNK7Kasten117ByteTableToolView6widgetEv@ABI_1_0 4:4.8.4
 _ZNK7Kasten117ReplaceController10metaObjectEv@ABI_1_0 4:4.8.4
 _ZNK7Kasten117ReplaceController13queryContinueENS_14KFindDirectionEi@ABI_1_0 4:4.8.4
 _ZNK7Kasten117ReplaceController19queryReplaceCurrentEv@ABI_1_0 4:4.8.4
 _ZNK7Kasten118PODDecoderToolView4toolEv@ABI_1_0 4:4.8.4
 _ZNK7Kasten118PODDecoderToolView5titleEv@ABI_1_0 4:4.8.4
 _ZNK7Kasten118PODDecoderToolView6widgetEv@ABI_1_0 4:4.8.4
 _ZNK7Kasten118StringsExtractTool10metaObjectEv@ABI_1_0 4:4.8.4
 _ZNK7Kasten118StringsExtractTool11isApplyableEv@ABI_1_0 4:4.8.4
 _ZNK7Kasten118StringsExtractTool18canHighlightStringEv@ABI_1_0 4:4.8.4
 _ZNK7Kasten118StringsExtractTool5titleEv@ABI_1_0 4:4.8.4
 _ZNK7Kasten118ViewModeController10metaObjectEv@ABI_1_0 4:4.8.4
 _ZNK7Kasten119BookmarksController10metaObjectEv@ABI_1_0 4:4.8.4
 _ZNK7Kasten119InfoToolViewFactory15defaultPositionEv@ABI_1_0 4:4.8.4
 _ZNK7Kasten119InfoToolViewFactory2idEv@ABI_1_0 4:4.8.4
 _ZNK7Kasten119InfoToolViewFactory5titleEv@ABI_1_0 4:4.8.4
 _ZNK7Kasten119InfoToolViewFactory8iconNameEv@ABI_1_0 4:4.8.4
 _ZNK7Kasten120DocumentInfoToolView4toolEv@ABI_1_0 4:4.8.4
 _ZNK7Kasten120DocumentInfoToolView5titleEv@ABI_1_0 4:4.8.4
 _ZNK7Kasten120DocumentInfoToolView6widgetEv@ABI_1_0 4:4.8.4
 _ZNK7Kasten120GotoOffsetController10metaObjectEv@ABI_1_0 4:4.8.4
 _ZNK7Kasten120ViewConfigController10metaObjectEv@ABI_1_0 4:4.8.4
 _ZNK7Kasten120ViewStatusController10metaObjectEv@ABI_1_0 4:4.8.4
 _ZNK7Kasten121CharsetConversionTool10metaObjectEv@ABI_1_0 4:4.8.4
 _ZNK7Kasten121CharsetConversionTool11isApplyableEv@ABI_1_0 4:4.8.4
 _ZNK7Kasten121CharsetConversionTool14substituteByteEv@ABI_1_0 4:4.8.4
 _ZNK7Kasten121CharsetConversionTool18otherCharCodecNameEv@ABI_1_0 4:4.8.4
 _ZNK7Kasten121CharsetConversionTool19conversionDirectionEv@ABI_1_0 4:4.8.4
 _ZNK7Kasten121CharsetConversionTool26isSubstitutingMissingCharsEv@ABI_1_0 4:4.8.4
 _ZNK7Kasten121CharsetConversionTool5titleEv@ABI_1_0 4:4.8.4
 _ZNK7Kasten121FilterToolViewFactory15defaultPositionEv@ABI_1_0 4:4.8.4
 _ZNK7Kasten121FilterToolViewFactory2idEv@ABI_1_0 4:4.8.4
 _ZNK7Kasten121FilterToolViewFactory5titleEv@ABI_1_0 4:4.8.4
 _ZNK7Kasten121FilterToolViewFactory8iconNameEv@ABI_1_0 4:4.8.4
 _ZNK7Kasten121SelectRangeController10metaObjectEv@ABI_1_0 4:4.8.4
 _ZNK7Kasten122StringsExtractToolView4toolEv@ABI_1_0 4:4.8.4
 _ZNK7Kasten122StringsExtractToolView5titleEv@ABI_1_0 4:4.8.4
 _ZNK7Kasten122StringsExtractToolView6widgetEv@ABI_1_0 4:4.8.4
 _ZNK7Kasten123ChecksumToolViewFactory15defaultPositionEv@ABI_1_0 4:4.8.4
 _ZNK7Kasten123ChecksumToolViewFactory2idEv@ABI_1_0 4:4.8.4
 _ZNK7Kasten123ChecksumToolViewFactory5titleEv@ABI_1_0 4:4.8.4
 _ZNK7Kasten123ChecksumToolViewFactory8iconNameEv@ABI_1_0 4:4.8.4
 _ZNK7Kasten123OverwriteModeController10metaObjectEv@ABI_1_0 4:4.8.4
 _ZNK7Kasten124BookmarksToolViewFactory15defaultPositionEv@ABI_1_0 4:4.8.4
 _ZNK7Kasten124BookmarksToolViewFactory2idEv@ABI_1_0 4:4.8.4
 _ZNK7Kasten124BookmarksToolViewFactory5titleEv@ABI_1_0 4:4.8.4
 _ZNK7Kasten124BookmarksToolViewFactory8iconNameEv@ABI_1_0 4:4.8.4
 _ZNK7Kasten124ByteTableToolViewFactory15defaultPositionEv@ABI_1_0 4:4.8.4
 _ZNK7Kasten124ByteTableToolViewFactory2idEv@ABI_1_0 4:4.8.4
 _ZNK7Kasten124ByteTableToolViewFactory5titleEv@ABI_1_0 4:4.8.4
 _ZNK7Kasten124ByteTableToolViewFactory8iconNameEv@ABI_1_0 4:4.8.4
 _ZNK7Kasten125CharsetConversionToolView4toolEv@ABI_1_0 4:4.8.4
 _ZNK7Kasten125CharsetConversionToolView5titleEv@ABI_1_0 4:4.8.4
 _ZNK7Kasten125CharsetConversionToolView6widgetEv@ABI_1_0 4:4.8.4
 _ZNK7Kasten125PodDecoderToolViewFactory15defaultPositionEv@ABI_1_0 4:4.8.4
 _ZNK7Kasten125PodDecoderToolViewFactory2idEv@ABI_1_0 4:4.8.4
 _ZNK7Kasten125PodDecoderToolViewFactory5titleEv@ABI_1_0 4:4.8.4
 _ZNK7Kasten125PodDecoderToolViewFactory8iconNameEv@ABI_1_0 4:4.8.4
 _ZNK7Kasten125StructuresToolViewFactory15defaultPositionEv@ABI_1_0 4:4.8.4
 _ZNK7Kasten125StructuresToolViewFactory2idEv@ABI_1_0 4:4.8.4
 _ZNK7Kasten125StructuresToolViewFactory5titleEv@ABI_1_0 4:4.8.4
 _ZNK7Kasten125StructuresToolViewFactory8iconNameEv@ABI_1_0 4:4.8.4
 _ZNK7Kasten129StringsExtractToolViewFactory15defaultPositionEv@ABI_1_0 4:4.8.4
 _ZNK7Kasten129StringsExtractToolViewFactory2idEv@ABI_1_0 4:4.8.4
 _ZNK7Kasten129StringsExtractToolViewFactory5titleEv@ABI_1_0 4:4.8.4
 _ZNK7Kasten129StringsExtractToolViewFactory8iconNameEv@ABI_1_0 4:4.8.4
 _ZNK7Kasten132CharsetConversionToolViewFactory15defaultPositionEv@ABI_1_0 4:4.8.4
 _ZNK7Kasten132CharsetConversionToolViewFactory2idEv@ABI_1_0 4:4.8.4
 _ZNK7Kasten132CharsetConversionToolViewFactory5titleEv@ABI_1_0 4:4.8.4
 _ZNK7Kasten132CharsetConversionToolViewFactory8iconNameEv@ABI_1_0 4:4.8.4
 _ZNK7Kasten18InfoTool10metaObjectEv@ABI_1_0 4:4.8.4
 _ZNK7Kasten18InfoTool11isApplyableEv@ABI_1_0 4:4.8.4
 _ZNK7Kasten18InfoTool19isStatisticUptodateEv@ABI_1_0 4:4.8.4
 _ZNK7Kasten18InfoTool19statisticTableModelEv@ABI_1_0 4:4.8.4
 _ZNK7Kasten18InfoTool4sizeEv@ABI_1_0 4:4.8.4
 _ZNK7Kasten18InfoTool5titleEv@ABI_1_0 4:4.8.4
 _ZTIN7Kasten110FilterToolE@ABI_1_0 4:4.8.4
 _ZTIN7Kasten110StructToolE@ABI_1_0 4:4.8.4
 _ZTIN7Kasten112ChecksumToolE@ABI_1_0 4:4.8.4
 _ZTIN7Kasten112InfoToolViewE@ABI_1_0 4:4.8.4
 _ZTIN7Kasten113BookmarksToolE@ABI_1_0 4:4.8.4
 _ZTIN7Kasten113ByteTableToolE@ABI_1_0 4:4.8.4
 _ZTIN7Kasten114FilterToolViewE@ABI_1_0 4:4.8.4
 _ZTIN7Kasten114PODDecoderToolE@ABI_1_0 4:4.8.4
 _ZTIN7Kasten114StructToolViewE@ABI_1_0 4:4.8.4
 _ZTIN7Kasten115InfoToolFactoryE@ABI_1_0 4:4.8.4
 _ZTIN7Kasten115PrintControllerE@ABI_1_0 4:4.8.4
 _ZTIN7Kasten116ChecksumToolViewE@ABI_1_0 4:4.8.4
 _ZTIN7Kasten116DocumentInfoToolE@ABI_1_0 4:4.8.4
 _ZTIN7Kasten116SearchControllerE@ABI_1_0 4:4.8.4
 _ZTIN7Kasten117BookmarksToolViewE@ABI_1_0 4:4.8.4
 _ZTIN7Kasten117ByteTableToolViewE@ABI_1_0 4:4.8.4
 _ZTIN7Kasten117FilterToolFactoryE@ABI_1_0 4:4.8.4
 _ZTIN7Kasten117ReplaceControllerE@ABI_1_0 4:4.8.4
 _ZTIN7Kasten118PODDecoderToolViewE@ABI_1_0 4:4.8.4
 _ZTIN7Kasten118StringsExtractToolE@ABI_1_0 4:4.8.4
 _ZTIN7Kasten118ViewModeControllerE@ABI_1_0 4:4.8.4
 _ZTIN7Kasten119BookmarksControllerE@ABI_1_0 4:4.8.4
 _ZTIN7Kasten119ChecksumToolFactoryE@ABI_1_0 4:4.8.4
 _ZTIN7Kasten119InfoToolViewFactoryE@ABI_1_0 4:4.8.4
 _ZTIN7Kasten120BookmarksToolFactoryE@ABI_1_0 4:4.8.4
 _ZTIN7Kasten120ByteTableToolFactoryE@ABI_1_0 4:4.8.4
 _ZTIN7Kasten120DocumentInfoToolViewE@ABI_1_0 4:4.8.4
 _ZTIN7Kasten120GotoOffsetControllerE@ABI_1_0 4:4.8.4
 _ZTIN7Kasten120ViewConfigControllerE@ABI_1_0 4:4.8.4
 _ZTIN7Kasten120ViewStatusControllerE@ABI_1_0 4:4.8.4
 _ZTIN7Kasten121CharsetConversionToolE@ABI_1_0 4:4.8.4
 _ZTIN7Kasten121FilterToolViewFactoryE@ABI_1_0 4:4.8.4
 _ZTIN7Kasten121PodDecoderToolFactoryE@ABI_1_0 4:4.8.4
 _ZTIN7Kasten121SelectRangeControllerE@ABI_1_0 4:4.8.4
 _ZTIN7Kasten121StructuresToolFactoryE@ABI_1_0 4:4.8.4
 _ZTIN7Kasten122StringsExtractToolViewE@ABI_1_0 4:4.8.4
 _ZTIN7Kasten123ChecksumToolViewFactoryE@ABI_1_0 4:4.8.4
 _ZTIN7Kasten123OverwriteModeControllerE@ABI_1_0 4:4.8.4
 _ZTIN7Kasten124BookmarksToolViewFactoryE@ABI_1_0 4:4.8.4
 _ZTIN7Kasten124ByteTableToolViewFactoryE@ABI_1_0 4:4.8.4
 _ZTIN7Kasten125CharsetConversionToolViewE@ABI_1_0 4:4.8.4
 _ZTIN7Kasten125PodDecoderToolViewFactoryE@ABI_1_0 4:4.8.4
 _ZTIN7Kasten125StringsExtractToolFactoryE@ABI_1_0 4:4.8.4
 _ZTIN7Kasten125StructuresToolViewFactoryE@ABI_1_0 4:4.8.4
 _ZTIN7Kasten128CharsetConversionToolFactoryE@ABI_1_0 4:4.8.4
 _ZTIN7Kasten129StringsExtractToolViewFactoryE@ABI_1_0 4:4.8.4
 _ZTIN7Kasten132CharsetConversionToolViewFactoryE@ABI_1_0 4:4.8.4
 _ZTIN7Kasten18InfoToolE@ABI_1_0 4:4.8.4
 _ZTSN7Kasten110FilterToolE@ABI_1_0 4:4.8.4
 _ZTSN7Kasten110StructToolE@ABI_1_0 4:4.8.4
 _ZTSN7Kasten112ChecksumToolE@ABI_1_0 4:4.8.4
 _ZTSN7Kasten112InfoToolViewE@ABI_1_0 4:4.8.4
 _ZTSN7Kasten113BookmarksToolE@ABI_1_0 4:4.8.4
 _ZTSN7Kasten113ByteTableToolE@ABI_1_0 4:4.8.4
 _ZTSN7Kasten114FilterToolViewE@ABI_1_0 4:4.8.4
 _ZTSN7Kasten114PODDecoderToolE@ABI_1_0 4:4.8.4
 _ZTSN7Kasten114StructToolViewE@ABI_1_0 4:4.8.4
 _ZTSN7Kasten115InfoToolFactoryE@ABI_1_0 4:4.8.4
 _ZTSN7Kasten115PrintControllerE@ABI_1_0 4:4.8.4
 _ZTSN7Kasten116ChecksumToolViewE@ABI_1_0 4:4.8.4
 _ZTSN7Kasten116DocumentInfoToolE@ABI_1_0 4:4.8.4
 _ZTSN7Kasten116SearchControllerE@ABI_1_0 4:4.8.4
 _ZTSN7Kasten117BookmarksToolViewE@ABI_1_0 4:4.8.4
 _ZTSN7Kasten117ByteTableToolViewE@ABI_1_0 4:4.8.4
 _ZTSN7Kasten117FilterToolFactoryE@ABI_1_0 4:4.8.4
 _ZTSN7Kasten117ReplaceControllerE@ABI_1_0 4:4.8.4
 _ZTSN7Kasten118PODDecoderToolViewE@ABI_1_0 4:4.8.4
 _ZTSN7Kasten118StringsExtractToolE@ABI_1_0 4:4.8.4
 _ZTSN7Kasten118ViewModeControllerE@ABI_1_0 4:4.8.4
 _ZTSN7Kasten119BookmarksControllerE@ABI_1_0 4:4.8.4
 _ZTSN7Kasten119ChecksumToolFactoryE@ABI_1_0 4:4.8.4
 _ZTSN7Kasten119InfoToolViewFactoryE@ABI_1_0 4:4.8.4
 _ZTSN7Kasten120BookmarksToolFactoryE@ABI_1_0 4:4.8.4
 _ZTSN7Kasten120ByteTableToolFactoryE@ABI_1_0 4:4.8.4
 _ZTSN7Kasten120DocumentInfoToolViewE@ABI_1_0 4:4.8.4
 _ZTSN7Kasten120GotoOffsetControllerE@ABI_1_0 4:4.8.4
 _ZTSN7Kasten120ViewConfigControllerE@ABI_1_0 4:4.8.4
 _ZTSN7Kasten120ViewStatusControllerE@ABI_1_0 4:4.8.4
 _ZTSN7Kasten121CharsetConversionToolE@ABI_1_0 4:4.8.4
 _ZTSN7Kasten121FilterToolViewFactoryE@ABI_1_0 4:4.8.4
 _ZTSN7Kasten121PodDecoderToolFactoryE@ABI_1_0 4:4.8.4
 _ZTSN7Kasten121SelectRangeControllerE@ABI_1_0 4:4.8.4
 _ZTSN7Kasten121StructuresToolFactoryE@ABI_1_0 4:4.8.4
 _ZTSN7Kasten122StringsExtractToolViewE@ABI_1_0 4:4.8.4
 _ZTSN7Kasten123ChecksumToolViewFactoryE@ABI_1_0 4:4.8.4
 _ZTSN7Kasten123OverwriteModeControllerE@ABI_1_0 4:4.8.4
 _ZTSN7Kasten124BookmarksToolViewFactoryE@ABI_1_0 4:4.8.4
 _ZTSN7Kasten124ByteTableToolViewFactoryE@ABI_1_0 4:4.8.4
 _ZTSN7Kasten125CharsetConversionToolViewE@ABI_1_0 4:4.8.4
 _ZTSN7Kasten125PodDecoderToolViewFactoryE@ABI_1_0 4:4.8.4
 _ZTSN7Kasten125StringsExtractToolFactoryE@ABI_1_0 4:4.8.4
 _ZTSN7Kasten125StructuresToolViewFactoryE@ABI_1_0 4:4.8.4
 _ZTSN7Kasten128CharsetConversionToolFactoryE@ABI_1_0 4:4.8.4
 _ZTSN7Kasten129StringsExtractToolViewFactoryE@ABI_1_0 4:4.8.4
 _ZTSN7Kasten132CharsetConversionToolViewFactoryE@ABI_1_0 4:4.8.4
 _ZTSN7Kasten18InfoToolE@ABI_1_0 4:4.8.4
 _ZTVN7Kasten110FilterToolE@ABI_1_0 4:4.8.4
 _ZTVN7Kasten110StructToolE@ABI_1_0 4:4.8.4
 _ZTVN7Kasten112ChecksumToolE@ABI_1_0 4:4.8.4
 _ZTVN7Kasten112InfoToolViewE@ABI_1_0 4:4.8.4
 _ZTVN7Kasten113BookmarksToolE@ABI_1_0 4:4.8.4
 _ZTVN7Kasten113ByteTableToolE@ABI_1_0 4:4.8.4
 _ZTVN7Kasten114FilterToolViewE@ABI_1_0 4:4.8.4
 _ZTVN7Kasten114PODDecoderToolE@ABI_1_0 4:4.8.4
 _ZTVN7Kasten114StructToolViewE@ABI_1_0 4:4.8.4
 _ZTVN7Kasten115InfoToolFactoryE@ABI_1_0 4:4.8.4
 _ZTVN7Kasten115PrintControllerE@ABI_1_0 4:4.8.4
 _ZTVN7Kasten116ChecksumToolViewE@ABI_1_0 4:4.8.4
 _ZTVN7Kasten116DocumentInfoToolE@ABI_1_0 4:4.8.4
 _ZTVN7Kasten116SearchControllerE@ABI_1_0 4:4.8.4
 _ZTVN7Kasten117BookmarksToolViewE@ABI_1_0 4:4.8.4
 _ZTVN7Kasten117ByteTableToolViewE@ABI_1_0 4:4.8.4
 _ZTVN7Kasten117FilterToolFactoryE@ABI_1_0 4:4.8.4
 _ZTVN7Kasten117ReplaceControllerE@ABI_1_0 4:4.8.4
 _ZTVN7Kasten118PODDecoderToolViewE@ABI_1_0 4:4.8.4
 _ZTVN7Kasten118StringsExtractToolE@ABI_1_0 4:4.8.4
 _ZTVN7Kasten118ViewModeControllerE@ABI_1_0 4:4.8.4
 _ZTVN7Kasten119BookmarksControllerE@ABI_1_0 4:4.8.4
 _ZTVN7Kasten119ChecksumToolFactoryE@ABI_1_0 4:4.8.4
 _ZTVN7Kasten119InfoToolViewFactoryE@ABI_1_0 4:4.8.4
 _ZTVN7Kasten120BookmarksToolFactoryE@ABI_1_0 4:4.8.4
 _ZTVN7Kasten120ByteTableToolFactoryE@ABI_1_0 4:4.8.4
 _ZTVN7Kasten120DocumentInfoToolViewE@ABI_1_0 4:4.8.4
 _ZTVN7Kasten120GotoOffsetControllerE@ABI_1_0 4:4.8.4
 _ZTVN7Kasten120ViewConfigControllerE@ABI_1_0 4:4.8.4
 _ZTVN7Kasten120ViewStatusControllerE@ABI_1_0 4:4.8.4
 _ZTVN7Kasten121CharsetConversionToolE@ABI_1_0 4:4.8.4
 _ZTVN7Kasten121FilterToolViewFactoryE@ABI_1_0 4:4.8.4
 _ZTVN7Kasten121PodDecoderToolFactoryE@ABI_1_0 4:4.8.4
 _ZTVN7Kasten121SelectRangeControllerE@ABI_1_0 4:4.8.4
 _ZTVN7Kasten121StructuresToolFactoryE@ABI_1_0 4:4.8.4
 _ZTVN7Kasten122StringsExtractToolViewE@ABI_1_0 4:4.8.4
 _ZTVN7Kasten123ChecksumToolViewFactoryE@ABI_1_0 4:4.8.4
 _ZTVN7Kasten123OverwriteModeControllerE@ABI_1_0 4:4.8.4
 _ZTVN7Kasten124BookmarksToolViewFactoryE@ABI_1_0 4:4.8.4
 _ZTVN7Kasten124ByteTableToolViewFactoryE@ABI_1_0 4:4.8.4
 _ZTVN7Kasten125CharsetConversionToolViewE@ABI_1_0 4:4.8.4
 _ZTVN7Kasten125PodDecoderToolViewFactoryE@ABI_1_0 4:4.8.4
 _ZTVN7Kasten125StringsExtractToolFactoryE@ABI_1_0 4:4.8.4
 _ZTVN7Kasten125StructuresToolViewFactoryE@ABI_1_0 4:4.8.4
 _ZTVN7Kasten128CharsetConversionToolFactoryE@ABI_1_0 4:4.8.4
 _ZTVN7Kasten129StringsExtractToolViewFactoryE@ABI_1_0 4:4.8.4
 _ZTVN7Kasten132CharsetConversionToolViewFactoryE@ABI_1_0 4:4.8.4
 _ZTVN7Kasten18InfoToolE@ABI_1_0 4:4.8.4
 (c++)"non-virtual thunk to Kasten1::ReplaceController::queryContinue(Kasten1::KFindDirection, int) const@ABI_1_0" 4:4.8.4
 (c++)"non-virtual thunk to Kasten1::ReplaceController::queryReplaceCurrent() const@ABI_1_0" 4:4.8.4
 (c++)"non-virtual thunk to Kasten1::ReplaceController::~ReplaceController()@ABI_1_0" 4:4.8.4
 (c++)"non-virtual thunk to Kasten1::SearchController::queryContinue(Kasten1::KFindDirection) const@ABI_1_0" 4:4.8.4
 (c++)"non-virtual thunk to Kasten1::SearchController::~SearchController()@ABI_1_0" 4:4.8.4
