libkasten2gui.so.2 libkasten2gui2 #MINVER#
 _ZN7Kasten211ShellWindow11qt_metacallEN11QMetaObject4CallEiPPv@Base 4:4.10.1
 _ZN7Kasten211ShellWindow11qt_metacastEPKc@Base 4:4.10.1
 _ZN7Kasten211ShellWindow12showDocumentEPNS_16AbstractDocumentE@Base 4:4.10.1
 _ZN7Kasten211ShellWindow16staticMetaObjectE@Base 4:4.10.1
 _ZN7Kasten211ShellWindow17updateControllersEPNS_12AbstractViewE@Base 4:4.10.1
 _ZN7Kasten211ShellWindow19addXmlGuiControllerEPNS_24AbstractXmlGuiControllerE@Base 4:4.10.1
 _ZN7Kasten211ShellWindow7addToolEPNS_16AbstractToolViewE@Base 4:4.10.1
 _ZN7Kasten211ShellWindowC1EPNS_11ViewManagerE@Base 4:4.10.1
 _ZN7Kasten211ShellWindowC2EPNS_11ViewManagerE@Base 4:4.10.1
 _ZN7Kasten211ShellWindowD0Ev@Base 4:4.10.1
 _ZN7Kasten211ShellWindowD1Ev@Base 4:4.10.1
 _ZN7Kasten211ShellWindowD2Ev@Base 4:4.10.1
 _ZN7Kasten211TabbedViews11dataDroppedEPK9QMimeData@Base 4:4.10.1
 _ZN7Kasten211TabbedViews11dataOfferedEPK9QMimeDataRb@Base 4:4.10.1
 _ZN7Kasten211TabbedViews11qt_metacallEN11QMetaObject4CallEiPPv@Base 4:4.10.1
 _ZN7Kasten211TabbedViews11qt_metacastEPKc@Base 4:4.10.1
 _ZN7Kasten211TabbedViews11removeViewsERK5QListIPNS_12AbstractViewEE@Base 4:4.10.1
 _ZN7Kasten211TabbedViews12setViewFocusEPNS_12AbstractViewE@Base 4:4.10.1
 _ZN7Kasten211TabbedViews16staticMetaObjectE@Base 4:4.10.1
 _ZN7Kasten211TabbedViews24setCurrentToolInlineViewEPNS_22AbstractToolInlineViewE@Base 4:4.10.1
 _ZN7Kasten211TabbedViews8addViewsERK5QListIPNS_12AbstractViewEE@Base 4:4.10.1
 _ZN7Kasten211TabbedViews8setFocusEv@Base 4:4.10.1
 _ZN7Kasten211TabbedViewsC1EPNS_18TabbedViewsPrivateE@Base 4:4.10.1
 _ZN7Kasten211TabbedViewsC1Ev@Base 4:4.10.1
 _ZN7Kasten211TabbedViewsC2EPNS_18TabbedViewsPrivateE@Base 4:4.10.1
 _ZN7Kasten211TabbedViewsC2Ev@Base 4:4.10.1
 _ZN7Kasten211TabbedViewsD0Ev@Base 4:4.10.1
 _ZN7Kasten211TabbedViewsD1Ev@Base 4:4.10.1
 _ZN7Kasten211TabbedViewsD2Ev@Base 4:4.10.1
 _ZN7Kasten211ViewManager11qt_metacallEN11QMetaObject4CallEiPPv@Base 4:4.10.1
 _ZN7Kasten211ViewManager11qt_metacastEPKc@Base 4:4.10.1
 _ZN7Kasten211ViewManager11removeViewsERK5QListIPNS_12AbstractViewEE@Base 4:4.10.1
 _ZN7Kasten211ViewManager14createViewsForERK5QListIPNS_16AbstractDocumentEE@Base 4:4.10.1
 _ZN7Kasten211ViewManager14removeViewsForERK5QListIPNS_16AbstractDocumentEE@Base 4:4.10.1
 _ZN7Kasten211ViewManager14setViewFactoryEPNS_19AbstractViewFactoryE@Base 4:4.10.1
 _ZN7Kasten211ViewManager16createCopyOfViewEPNS_12AbstractViewE6QFlagsIN2Qt13AlignmentFlagEE@Base 4:4.10.1
 _ZN7Kasten211ViewManager16staticMetaObjectE@Base 4:4.10.1
 _ZN7Kasten211ViewManager6openedERK5QListIPNS_12AbstractViewEE@Base 4:4.10.1
 _ZN7Kasten211ViewManager7closingERK5QListIPNS_12AbstractViewEE@Base 4:4.10.1
 _ZN7Kasten211ViewManagerC1Ev@Base 4:4.10.1
 _ZN7Kasten211ViewManagerC2Ev@Base 4:4.10.1
 _ZN7Kasten211ViewManagerD0Ev@Base 4:4.10.1
 _ZN7Kasten211ViewManagerD1Ev@Base 4:4.10.1
 _ZN7Kasten211ViewManagerD2Ev@Base 4:4.10.1
 _ZN7Kasten212AbstractView11qt_metacallEN11QMetaObject4CallEiPPv@Base 4:4.10.1
 _ZN7Kasten212AbstractView11qt_metacastEPKc@Base 4:4.10.1
 _ZN7Kasten212AbstractView12focusChangedEb@Base 4:4.10.1
 _ZN7Kasten212AbstractView16staticMetaObjectE@Base 4:4.10.1
 _ZN7Kasten212AbstractViewC1EPNS_13AbstractModelE@Base 4:4.10.1
 _ZN7Kasten212AbstractViewC2EPNS_13AbstractModelE@Base 4:4.10.1
 _ZN7Kasten212AbstractViewD0Ev@Base 4:4.10.1
 _ZN7Kasten212AbstractViewD1Ev@Base 4:4.10.1
 _ZN7Kasten212AbstractViewD2Ev@Base 4:4.10.1
 _ZN7Kasten212ToggleButton11qt_metacallEN11QMetaObject4CallEiPPv@Base 4:4.10.1
 _ZN7Kasten212ToggleButton11qt_metacastEPKc@Base 4:4.10.1
 _ZN7Kasten212ToggleButton15setCheckedStateERK5KIconRK7QStringS6_@Base 4:4.10.1
 _ZN7Kasten212ToggleButton15setCheckedStateERK7QStringS3_@Base 4:4.10.1
 _ZN7Kasten212ToggleButton16staticMetaObjectE@Base 4:4.10.1
 _ZN7Kasten212ToggleButtonC1ERK5KIconRK7QStringS6_P7QWidget@Base 4:4.10.1
 _ZN7Kasten212ToggleButtonC1ERK7QStringS3_P7QWidget@Base 4:4.10.1
 _ZN7Kasten212ToggleButtonC2ERK5KIconRK7QStringS6_P7QWidget@Base 4:4.10.1
 _ZN7Kasten212ToggleButtonC2ERK7QStringS3_P7QWidget@Base 4:4.10.1
 _ZN7Kasten212ToggleButtonD0Ev@Base 4:4.10.1
 _ZN7Kasten212ToggleButtonD1Ev@Base 4:4.10.1
 _ZN7Kasten212ToggleButtonD2Ev@Base 4:4.10.1
 _ZN7Kasten213DialogHandler9setWidgetEP7QWidget@Base 4:4.10.1
 _ZN7Kasten213DialogHandlerC1EP7QWidget@Base 4:4.10.1
 _ZN7Kasten213DialogHandlerC2EP7QWidget@Base 4:4.10.1
 _ZN7Kasten213DialogHandlerD0Ev@Base 4:4.10.1
 _ZN7Kasten213DialogHandlerD1Ev@Base 4:4.10.1
 _ZN7Kasten213DialogHandlerD2Ev@Base 4:4.10.1
 _ZN7Kasten214MultiViewAreas11dataDroppedEPK9QMimeData@Base 4:4.10.1
 _ZN7Kasten214MultiViewAreas11dataOfferedEPK9QMimeDataRb@Base 4:4.10.1
 _ZN7Kasten214MultiViewAreas11qt_metacallEN11QMetaObject4CallEiPPv@Base 4:4.10.1
 _ZN7Kasten214MultiViewAreas11qt_metacastEPKc@Base 4:4.10.1
 _ZN7Kasten214MultiViewAreas11removeViewsERK5QListIPNS_12AbstractViewEE@Base 4:4.10.1
 _ZN7Kasten214MultiViewAreas12setViewFocusEPNS_12AbstractViewE@Base 4:4.10.1
 _ZN7Kasten214MultiViewAreas13closeViewAreaEPNS_16AbstractViewAreaE@Base 4:4.10.1
 _ZN7Kasten214MultiViewAreas13splitViewAreaEPNS_16AbstractViewAreaEN2Qt11OrientationE@Base 4:4.10.1
 _ZN7Kasten214MultiViewAreas14viewAreasAddedERK5QListIPNS_16AbstractViewAreaEE@Base 4:4.10.1
 _ZN7Kasten214MultiViewAreas16setViewAreaFocusEPNS_16AbstractViewAreaE@Base 4:4.10.1
 _ZN7Kasten214MultiViewAreas16staticMetaObjectE@Base 4:4.10.1
 _ZN7Kasten214MultiViewAreas16viewAreasRemovedERK5QListIPNS_16AbstractViewAreaEE@Base 4:4.10.1
 _ZN7Kasten214MultiViewAreas20viewAreaFocusChangedEPNS_16AbstractViewAreaE@Base 4:4.10.1
 _ZN7Kasten214MultiViewAreas24setCurrentToolInlineViewEPNS_22AbstractToolInlineViewE@Base 4:4.10.1
 _ZN7Kasten214MultiViewAreas8addViewsERK5QListIPNS_12AbstractViewEE@Base 4:4.10.1
 _ZN7Kasten214MultiViewAreas8setFocusEv@Base 4:4.10.1
 _ZN7Kasten214MultiViewAreasC1Ev@Base 4:4.10.1
 _ZN7Kasten214MultiViewAreasC2Ev@Base 4:4.10.1
 _ZN7Kasten214MultiViewAreasD0Ev@Base 4:4.10.1
 _ZN7Kasten214MultiViewAreasD1Ev@Base 4:4.10.1
 _ZN7Kasten214MultiViewAreasD2Ev@Base 4:4.10.1
 _ZN7Kasten214SingleViewArea11dataDroppedEPK9QMimeData@Base 4:4.10.1
 _ZN7Kasten214SingleViewArea11dataOfferedEPK9QMimeDataRb@Base 4:4.10.1
 _ZN7Kasten214SingleViewArea11qt_metacallEN11QMetaObject4CallEiPPv@Base 4:4.10.1
 _ZN7Kasten214SingleViewArea11qt_metacastEPKc@Base 4:4.10.1
 _ZN7Kasten214SingleViewArea16staticMetaObjectE@Base 4:4.10.1
 _ZN7Kasten214SingleViewArea24setCurrentToolInlineViewEPNS_22AbstractToolInlineViewE@Base 4:4.10.1
 _ZN7Kasten214SingleViewArea7setViewEPNS_12AbstractViewE@Base 4:4.10.1
 _ZN7Kasten214SingleViewArea8setFocusEv@Base 4:4.10.1
 _ZN7Kasten214SingleViewAreaC1Ev@Base 4:4.10.1
 _ZN7Kasten214SingleViewAreaC2Ev@Base 4:4.10.1
 _ZN7Kasten214SingleViewAreaD0Ev@Base 4:4.10.1
 _ZN7Kasten214SingleViewAreaD1Ev@Base 4:4.10.1
 _ZN7Kasten214SingleViewAreaD2Ev@Base 4:4.10.1
 _ZN7Kasten216AbstractToolView7PrivateC1EPS0_@Base 4:4.10.1
 _ZN7Kasten216AbstractToolView7PrivateC2EPS0_@Base 4:4.10.1
 _ZN7Kasten216AbstractToolViewC1Ev@Base 4:4.10.1
 _ZN7Kasten216AbstractToolViewC2Ev@Base 4:4.10.1
 _ZN7Kasten216AbstractToolViewD0Ev@Base 4:4.10.1
 _ZN7Kasten216AbstractToolViewD1Ev@Base 4:4.10.1
 _ZN7Kasten216AbstractToolViewD2Ev@Base 4:4.10.1
 _ZN7Kasten216AbstractViewArea11qt_metacallEN11QMetaObject4CallEiPPv@Base 4:4.10.1
 _ZN7Kasten216AbstractViewArea11qt_metacastEPKc@Base 4:4.10.1
 _ZN7Kasten216AbstractViewArea12focusChangedEb@Base 4:4.10.1
 _ZN7Kasten216AbstractViewArea16staticMetaObjectE@Base 4:4.10.1
 _ZN7Kasten216AbstractViewAreaC1EPNS_23AbstractViewAreaPrivateE@Base 4:4.10.1
 _ZN7Kasten216AbstractViewAreaC1Ev@Base 4:4.10.1
 _ZN7Kasten216AbstractViewAreaC2EPNS_23AbstractViewAreaPrivateE@Base 4:4.10.1
 _ZN7Kasten216AbstractViewAreaC2Ev@Base 4:4.10.1
 _ZN7Kasten216AbstractViewAreaD0Ev@Base 4:4.10.1
 _ZN7Kasten216AbstractViewAreaD1Ev@Base 4:4.10.1
 _ZN7Kasten216AbstractViewAreaD2Ev@Base 4:4.10.1
 _ZN7Kasten216SingleViewWindow11qt_metacallEN11QMetaObject4CallEiPPv@Base 4:4.10.1
 _ZN7Kasten216SingleViewWindow11qt_metacastEPKc@Base 4:4.10.1
 _ZN7Kasten216SingleViewWindow16staticMetaObjectE@Base 4:4.10.1
 _ZN7Kasten216SingleViewWindow19addXmlGuiControllerEPNS_24AbstractXmlGuiControllerE@Base 4:4.10.1
 _ZN7Kasten216SingleViewWindow7addToolEPNS_16AbstractToolViewE@Base 4:4.10.1
 _ZN7Kasten216SingleViewWindow7setViewEPNS_12AbstractViewE@Base 4:4.10.1
 _ZN7Kasten216SingleViewWindowC1EPNS_12AbstractViewE@Base 4:4.10.1
 _ZN7Kasten216SingleViewWindowC2EPNS_12AbstractViewE@Base 4:4.10.1
 _ZN7Kasten216SingleViewWindowD0Ev@Base 4:4.10.1
 _ZN7Kasten216SingleViewWindowD1Ev@Base 4:4.10.1
 _ZN7Kasten216SingleViewWindowD2Ev@Base 4:4.10.1
 _ZN7Kasten217AbstractLinePopup10setVisibleEb@Base 4:4.10.1
 _ZN7Kasten217AbstractLinePopup11eventFilterEP7QObjectP6QEvent@Base 4:4.10.1
 _ZN7Kasten217AbstractLinePopup11qt_metacallEN11QMetaObject4CallEiPPv@Base 4:4.10.1
 _ZN7Kasten217AbstractLinePopup11qt_metacastEPKc@Base 4:4.10.1
 _ZN7Kasten217AbstractLinePopup11setPositionERK6QPoint@Base 4:4.10.1
 _ZN7Kasten217AbstractLinePopup16staticMetaObjectE@Base 4:4.10.1
 _ZN7Kasten217AbstractLinePopup4execEv@Base 4:4.10.1
 _ZN7Kasten217AbstractLinePopup7setIconERK5KIcon@Base 4:4.10.1
 _ZN7Kasten217AbstractLinePopup9setResultEi@Base 4:4.10.1
 _ZN7Kasten217AbstractLinePopup9setWidgetEP7QWidget@Base 4:4.10.1
 _ZN7Kasten217AbstractLinePopupC1EP7QWidget@Base 4:4.10.1
 _ZN7Kasten217AbstractLinePopupC2EP7QWidget@Base 4:4.10.1
 _ZN7Kasten217AbstractLinePopupD0Ev@Base 4:4.10.1
 _ZN7Kasten217AbstractLinePopupD1Ev@Base 4:4.10.1
 _ZN7Kasten217AbstractLinePopupD2Ev@Base 4:4.10.1
 _ZN7Kasten218AbstractController11qt_metacallEN11QMetaObject4CallEiPPv@Base 4:4.10.1
 _ZN7Kasten218AbstractController11qt_metacastEPKc@Base 4:4.10.1
 _ZN7Kasten218AbstractController14setTargetModelEPNS_13AbstractModelE@Base 4:4.10.1
 _ZN7Kasten218AbstractController16staticMetaObjectE@Base 4:4.10.1
 _ZN7Kasten218AbstractControllerD0Ev@Base 4:4.10.1
 _ZN7Kasten218AbstractControllerD1Ev@Base 4:4.10.1
 _ZN7Kasten218AbstractControllerD2Ev@Base 4:4.10.1
 _ZN7Kasten218AbstractToolWidget11qt_metacallEN11QMetaObject4CallEiPPv@Base 4:4.10.1
 _ZN7Kasten218AbstractToolWidget11qt_metacastEPKc@Base 4:4.10.1
 _ZN7Kasten218AbstractToolWidget16staticMetaObjectE@Base 4:4.10.1
 _ZN7Kasten218AbstractToolWidget9addButtonEP11QPushButtonNS0_11DefaultTypeE@Base 4:4.10.1
 _ZN7Kasten218AbstractToolWidgetC1EP7QWidget@Base 4:4.10.1
 _ZN7Kasten218AbstractToolWidgetC2EP7QWidget@Base 4:4.10.1
 _ZN7Kasten218AbstractToolWidgetD0Ev@Base 4:4.10.1
 _ZN7Kasten218AbstractToolWidgetD1Ev@Base 4:4.10.1
 _ZN7Kasten218AbstractToolWidgetD2Ev@Base 4:4.10.1
 _ZN7Kasten219AbstractViewFactory16createCopyOfViewEPNS_12AbstractViewE6QFlagsIN2Qt13AlignmentFlagEE@Base 4:4.10.1
 _ZN7Kasten219AbstractViewFactoryD0Ev@Base 4:4.10.1
 _ZN7Kasten219AbstractViewFactoryD1Ev@Base 4:4.10.1
 _ZN7Kasten219AbstractViewFactoryD2Ev@Base 4:4.10.1
 _ZN7Kasten220AbstractGroupedViews11qt_metacallEN11QMetaObject4CallEiPPv@Base 4:4.10.1
 _ZN7Kasten220AbstractGroupedViews11qt_metacastEPKc@Base 4:4.10.1
 _ZN7Kasten220AbstractGroupedViews12closeRequestERK5QListIPNS_12AbstractViewEE@Base 4:4.10.1
 _ZN7Kasten220AbstractGroupedViews16staticMetaObjectE@Base 4:4.10.1
 _ZN7Kasten220AbstractGroupedViews16viewFocusChangedEPNS_12AbstractViewE@Base 4:4.10.1
 _ZN7Kasten220AbstractGroupedViews5addedERK5QListIPNS_12AbstractViewEE@Base 4:4.10.1
 _ZN7Kasten220AbstractGroupedViews8removingERK5QListIPNS_12AbstractViewEE@Base 4:4.10.1
 _ZN7Kasten220AbstractGroupedViewsC1EPNS_27AbstractGroupedViewsPrivateE@Base 4:4.10.1
 _ZN7Kasten220AbstractGroupedViewsC1Ev@Base 4:4.10.1
 _ZN7Kasten220AbstractGroupedViewsC2EPNS_27AbstractGroupedViewsPrivateE@Base 4:4.10.1
 _ZN7Kasten220AbstractGroupedViewsC2Ev@Base 4:4.10.1
 _ZN7Kasten220AbstractGroupedViewsD0Ev@Base 4:4.10.1
 _ZN7Kasten220AbstractGroupedViewsD1Ev@Base 4:4.10.1
 _ZN7Kasten220AbstractGroupedViewsD2Ev@Base 4:4.10.1
 _ZN7Kasten221AbstractSelectionView11qt_metacallEN11QMetaObject4CallEiPPv@Base 4:4.10.1
 _ZN7Kasten221AbstractSelectionView11qt_metacastEPKc@Base 4:4.10.1
 _ZN7Kasten221AbstractSelectionView16staticMetaObjectE@Base 4:4.10.1
 _ZN7Kasten221AbstractSelectionView7PrivateC1EPS0_@Base 4:4.10.1
 _ZN7Kasten221AbstractSelectionView7PrivateC2EPS0_@Base 4:4.10.1
 _ZN7Kasten221AbstractSelectionViewC1Ev@Base 4:4.10.1
 _ZN7Kasten221AbstractSelectionViewC2Ev@Base 4:4.10.1
 _ZN7Kasten221AbstractSelectionViewD0Ev@Base 4:4.10.1
 _ZN7Kasten221AbstractSelectionViewD1Ev@Base 4:4.10.1
 _ZN7Kasten221AbstractSelectionViewD2Ev@Base 4:4.10.1
 _ZN7Kasten221ModelCodecViewManager11qt_metacallEN11QMetaObject4CallEiPPv@Base 4:4.10.1
 _ZN7Kasten221ModelCodecViewManager11qt_metacastEPKc@Base 4:4.10.1
 _ZN7Kasten221ModelCodecViewManager16staticMetaObjectE@Base 4:4.10.1
 _ZN7Kasten221ModelCodecViewManager31setEncoderConfigEditorFactoriesERK5QListIPNS_45AbstractModelStreamEncoderConfigEditorFactoryEE@Base 4:4.10.1
 _ZN7Kasten221ModelCodecViewManager32setExporterConfigEditorFactoriesERK5QListIPNS_40AbstractModelExporterConfigEditorFactoryEE@Base 4:4.10.1
 _ZN7Kasten221ModelCodecViewManager33setGeneratorConfigEditorFactoriesERK5QListIPNS_45AbstractModelDataGeneratorConfigEditorFactoryEE@Base 4:4.10.1
 _ZN7Kasten221ModelCodecViewManagerC1Ev@Base 4:4.10.1
 _ZN7Kasten221ModelCodecViewManagerC2Ev@Base 4:4.10.1
 _ZN7Kasten221ModelCodecViewManagerD0Ev@Base 4:4.10.1
 _ZN7Kasten221ModelCodecViewManagerD1Ev@Base 4:4.10.1
 _ZN7Kasten221ModelCodecViewManagerD2Ev@Base 4:4.10.1
 _ZN7Kasten221MultiDocumentStrategy11qt_metacallEN11QMetaObject4CallEiPPv@Base 4:4.10.1
 _ZN7Kasten221MultiDocumentStrategy11qt_metacastEPKc@Base 4:4.10.1
 _ZN7Kasten221MultiDocumentStrategy13closeAllOtherEPNS_16AbstractDocumentE@Base 4:4.10.1
 _ZN7Kasten221MultiDocumentStrategy13closeDocumentEPNS_16AbstractDocumentE@Base 4:4.10.1
 _ZN7Kasten221MultiDocumentStrategy16staticMetaObjectE@Base 4:4.10.1
 _ZN7Kasten221MultiDocumentStrategy22createNewFromClipboardEv@Base 4:4.10.1
 _ZN7Kasten221MultiDocumentStrategy22createNewWithGeneratorEPNS_26AbstractModelDataGeneratorE@Base 4:4.10.1
 _ZN7Kasten221MultiDocumentStrategy4loadERK4KUrl@Base 4:4.10.1
 _ZN7Kasten221MultiDocumentStrategy8closeAllEv@Base 4:4.10.1
 _ZN7Kasten221MultiDocumentStrategy9createNewEv@Base 4:4.10.1
 _ZN7Kasten221MultiDocumentStrategyC1EPNS_15DocumentManagerEPNS_11ViewManagerE@Base 4:4.10.1
 _ZN7Kasten221MultiDocumentStrategyC2EPNS_15DocumentManagerEPNS_11ViewManagerE@Base 4:4.10.1
 _ZN7Kasten221MultiDocumentStrategyD0Ev@Base 4:4.10.1
 _ZN7Kasten221MultiDocumentStrategyD1Ev@Base 4:4.10.1
 _ZN7Kasten221MultiDocumentStrategyD2Ev@Base 4:4.10.1
 _ZN7Kasten222AbstractToolInlineView7PrivateC1EPS0_@Base 4:4.10.1
 _ZN7Kasten222AbstractToolInlineView7PrivateC2EPS0_@Base 4:4.10.1
 _ZN7Kasten222AbstractToolInlineView8activateEv@Base 4:4.10.1
 _ZN7Kasten222AbstractToolInlineViewC1Ev@Base 4:4.10.1
 _ZN7Kasten222AbstractToolInlineViewC2Ev@Base 4:4.10.1
 _ZN7Kasten222AbstractToolInlineViewD0Ev@Base 4:4.10.1
 _ZN7Kasten222AbstractToolInlineViewD1Ev@Base 4:4.10.1
 _ZN7Kasten222AbstractToolInlineViewD2Ev@Base 4:4.10.1
 _ZN7Kasten222SingleDocumentStrategy11qt_metacallEN11QMetaObject4CallEiPPv@Base 4:4.10.1
 _ZN7Kasten222SingleDocumentStrategy11qt_metacastEPKc@Base 4:4.10.1
 _ZN7Kasten222SingleDocumentStrategy13closeAllOtherEPNS_16AbstractDocumentE@Base 4:4.10.1
 _ZN7Kasten222SingleDocumentStrategy13closeDocumentEPNS_16AbstractDocumentE@Base 4:4.10.1
 _ZN7Kasten222SingleDocumentStrategy16staticMetaObjectE@Base 4:4.10.1
 _ZN7Kasten222SingleDocumentStrategy22createNewFromClipboardEv@Base 4:4.10.1
 _ZN7Kasten222SingleDocumentStrategy22createNewWithGeneratorEPNS_26AbstractModelDataGeneratorE@Base 4:4.10.1
 _ZN7Kasten222SingleDocumentStrategy4loadERK4KUrl@Base 4:4.10.1
 _ZN7Kasten222SingleDocumentStrategy8closeAllEv@Base 4:4.10.1
 _ZN7Kasten222SingleDocumentStrategy9createNewEv@Base 4:4.10.1
 _ZN7Kasten222SingleDocumentStrategyC1EPNS_15DocumentManagerEPNS_11ViewManagerE@Base 4:4.10.1
 _ZN7Kasten222SingleDocumentStrategyC2EPNS_15DocumentManagerEPNS_11ViewManagerE@Base 4:4.10.1
 _ZN7Kasten222SingleDocumentStrategyD0Ev@Base 4:4.10.1
 _ZN7Kasten222SingleDocumentStrategyD1Ev@Base 4:4.10.1
 _ZN7Kasten222SingleDocumentStrategyD2Ev@Base 4:4.10.1
 _ZN7Kasten223AbstractOverwriteDialogD0Ev@Base 4:4.10.1
 _ZN7Kasten223AbstractOverwriteDialogD1Ev@Base 4:4.10.1
 _ZN7Kasten223AbstractOverwriteDialogD2Ev@Base 4:4.10.1
 _ZN7Kasten224AbstractDocumentStrategy11qt_metacallEN11QMetaObject4CallEiPPv@Base 4:4.10.1
 _ZN7Kasten224AbstractDocumentStrategy11qt_metacastEPKc@Base 4:4.10.1
 _ZN7Kasten224AbstractDocumentStrategy14focusRequestedEPNS_16AbstractDocumentE@Base 4:4.10.1
 _ZN7Kasten224AbstractDocumentStrategy16staticMetaObjectE@Base 4:4.10.1
 _ZN7Kasten224AbstractDocumentStrategy5addedERK5QListIPNS_16AbstractDocumentEE@Base 4:4.10.1
 _ZN7Kasten224AbstractDocumentStrategy7closingERK5QListIPNS_16AbstractDocumentEE@Base 4:4.10.1
 _ZN7Kasten224AbstractDocumentStrategy7urlUsedERK4KUrl@Base 4:4.10.1
 _ZN7Kasten224AbstractDocumentStrategyC1EPNS_31AbstractDocumentStrategyPrivateE@Base 4:4.10.1
 _ZN7Kasten224AbstractDocumentStrategyC1Ev@Base 4:4.10.1
 _ZN7Kasten224AbstractDocumentStrategyC2EPNS_31AbstractDocumentStrategyPrivateE@Base 4:4.10.1
 _ZN7Kasten224AbstractDocumentStrategyC2Ev@Base 4:4.10.1
 _ZN7Kasten224AbstractDocumentStrategyD0Ev@Base 4:4.10.1
 _ZN7Kasten224AbstractDocumentStrategyD1Ev@Base 4:4.10.1
 _ZN7Kasten224AbstractDocumentStrategyD2Ev@Base 4:4.10.1
 _ZN7Kasten224AbstractXmlGuiController11qt_metacallEN11QMetaObject4CallEiPPv@Base 4:4.10.1
 _ZN7Kasten224AbstractXmlGuiController11qt_metacastEPKc@Base 4:4.10.1
 _ZN7Kasten224AbstractXmlGuiController16staticMetaObjectE@Base 4:4.10.1
 _ZN7Kasten224AbstractXmlGuiControllerD0Ev@Base 4:4.10.1
 _ZN7Kasten224AbstractXmlGuiControllerD1Ev@Base 4:4.10.1
 _ZN7Kasten224AbstractXmlGuiControllerD2Ev@Base 4:4.10.1
 _ZN7Kasten225AbstractSaveDiscardDialogD0Ev@Base 4:4.10.1
 _ZN7Kasten225AbstractSaveDiscardDialogD1Ev@Base 4:4.10.1
 _ZN7Kasten225AbstractSaveDiscardDialogD2Ev@Base 4:4.10.1
 _ZN7Kasten233AbstractModelExporterConfigEditor11qt_metacallEN11QMetaObject4CallEiPPv@Base 4:4.10.1
 _ZN7Kasten233AbstractModelExporterConfigEditor11qt_metacastEPKc@Base 4:4.10.1
 _ZN7Kasten233AbstractModelExporterConfigEditor15validityChangedEb@Base 4:4.10.1
 _ZN7Kasten233AbstractModelExporterConfigEditor16staticMetaObjectE@Base 4:4.10.1
 _ZN7Kasten233AbstractModelExporterConfigEditorC1EP7QWidget@Base 4:4.10.1
 _ZN7Kasten233AbstractModelExporterConfigEditorC2EP7QWidget@Base 4:4.10.1
 _ZN7Kasten233AbstractModelExporterConfigEditorD0Ev@Base 4:4.10.1
 _ZN7Kasten233AbstractModelExporterConfigEditorD1Ev@Base 4:4.10.1
 _ZN7Kasten233AbstractModelExporterConfigEditorD2Ev@Base 4:4.10.1
 _ZN7Kasten238AbstractModelDataGeneratorConfigEditor11qt_metacallEN11QMetaObject4CallEiPPv@Base 4:4.10.1
 _ZN7Kasten238AbstractModelDataGeneratorConfigEditor11qt_metacastEPKc@Base 4:4.10.1
 _ZN7Kasten238AbstractModelDataGeneratorConfigEditor15validityChangedEb@Base 4:4.10.1
 _ZN7Kasten238AbstractModelDataGeneratorConfigEditor16staticMetaObjectE@Base 4:4.10.1
 _ZN7Kasten238AbstractModelDataGeneratorConfigEditorC1EP7QWidget@Base 4:4.10.1
 _ZN7Kasten238AbstractModelDataGeneratorConfigEditorC2EP7QWidget@Base 4:4.10.1
 _ZN7Kasten238AbstractModelDataGeneratorConfigEditorD0Ev@Base 4:4.10.1
 _ZN7Kasten238AbstractModelDataGeneratorConfigEditorD1Ev@Base 4:4.10.1
 _ZN7Kasten238AbstractModelDataGeneratorConfigEditorD2Ev@Base 4:4.10.1
 _ZN7Kasten238AbstractModelStreamEncoderConfigEditor11qt_metacallEN11QMetaObject4CallEiPPv@Base 4:4.10.1
 _ZN7Kasten238AbstractModelStreamEncoderConfigEditor11qt_metacastEPKc@Base 4:4.10.1
 _ZN7Kasten238AbstractModelStreamEncoderConfigEditor15validityChangedEb@Base 4:4.10.1
 _ZN7Kasten238AbstractModelStreamEncoderConfigEditor16staticMetaObjectE@Base 4:4.10.1
 _ZN7Kasten238AbstractModelStreamEncoderConfigEditorC1EP7QWidget@Base 4:4.10.1
 _ZN7Kasten238AbstractModelStreamEncoderConfigEditorC2EP7QWidget@Base 4:4.10.1
 _ZN7Kasten238AbstractModelStreamEncoderConfigEditorD0Ev@Base 4:4.10.1
 _ZN7Kasten238AbstractModelStreamEncoderConfigEditorD1Ev@Base 4:4.10.1
 _ZN7Kasten238AbstractModelStreamEncoderConfigEditorD2Ev@Base 4:4.10.1
 _ZN7Kasten240AbstractModelExporterConfigEditorFactoryD0Ev@Base 4:4.10.1
 _ZN7Kasten240AbstractModelExporterConfigEditorFactoryD1Ev@Base 4:4.10.1
 _ZN7Kasten240AbstractModelExporterConfigEditorFactoryD2Ev@Base 4:4.10.1
 _ZN7Kasten242ModelEncoderFileSystemExporterConfigEditor11qt_metacallEN11QMetaObject4CallEiPPv@Base 4:4.10.1
 _ZN7Kasten242ModelEncoderFileSystemExporterConfigEditor11qt_metacastEPKc@Base 4:4.10.1
 _ZN7Kasten242ModelEncoderFileSystemExporterConfigEditor16staticMetaObjectE@Base 4:4.10.1
 _ZN7Kasten242ModelEncoderFileSystemExporterConfigEditorC1EPNS_38AbstractModelStreamEncoderConfigEditorE@Base 4:4.10.1
 _ZN7Kasten242ModelEncoderFileSystemExporterConfigEditorC2EPNS_38AbstractModelStreamEncoderConfigEditorE@Base 4:4.10.1
 _ZN7Kasten242ModelEncoderFileSystemExporterConfigEditorD0Ev@Base 4:4.10.1
 _ZN7Kasten242ModelEncoderFileSystemExporterConfigEditorD1Ev@Base 4:4.10.1
 _ZN7Kasten242ModelEncoderFileSystemExporterConfigEditorD2Ev@Base 4:4.10.1
 _ZN7Kasten245AbstractModelDataGeneratorConfigEditorFactoryD0Ev@Base 4:4.10.1
 _ZN7Kasten245AbstractModelDataGeneratorConfigEditorFactoryD1Ev@Base 4:4.10.1
 _ZN7Kasten245AbstractModelDataGeneratorConfigEditorFactoryD2Ev@Base 4:4.10.1
 _ZN7Kasten245AbstractModelStreamEncoderConfigEditorFactoryD0Ev@Base 4:4.10.1
 _ZN7Kasten245AbstractModelStreamEncoderConfigEditorFactoryD1Ev@Base 4:4.10.1
 _ZN7Kasten245AbstractModelStreamEncoderConfigEditorFactoryD2Ev@Base 4:4.10.1
 _ZN7Kasten249ModelEncoderFileSystemExporterConfigEditorFactoryC1EPNS_45AbstractModelStreamEncoderConfigEditorFactoryE@Base 4:4.10.1
 _ZN7Kasten249ModelEncoderFileSystemExporterConfigEditorFactoryC2EPNS_45AbstractModelStreamEncoderConfigEditorFactoryE@Base 4:4.10.1
 _ZN7Kasten249ModelEncoderFileSystemExporterConfigEditorFactoryD0Ev@Base 4:4.10.1
 _ZN7Kasten249ModelEncoderFileSystemExporterConfigEditorFactoryD1Ev@Base 4:4.10.1
 _ZN7Kasten249ModelEncoderFileSystemExporterConfigEditorFactoryD2Ev@Base 4:4.10.1
 _ZN7Kasten29DummyView11qt_metacallEN11QMetaObject4CallEiPPv@Base 4:4.10.1
 _ZN7Kasten29DummyView11qt_metacastEPKc@Base 4:4.10.1
 _ZN7Kasten29DummyView13onTitleChangeERK7QString@Base 4:4.10.1
 _ZN7Kasten29DummyView16staticMetaObjectE@Base 4:4.10.1
 _ZN7Kasten29DummyView8setFocusEv@Base 4:4.10.1
 _ZN7Kasten29DummyViewC1EPNS_16AbstractDocumentE@Base 4:4.10.1
 _ZN7Kasten29DummyViewC2EPNS_16AbstractDocumentE@Base 4:4.10.1
 _ZN7Kasten29DummyViewD0Ev@Base 4:4.10.1
 _ZN7Kasten29DummyViewD1Ev@Base 4:4.10.1
 _ZN7Kasten29DummyViewD2Ev@Base 4:4.10.1
 _ZN7Kasten29StatusBar11changeEventEP6QEvent@Base 4:4.10.1
 _ZN7Kasten29StatusBar11qt_metacallEN11QMetaObject4CallEiPPv@Base 4:4.10.1
 _ZN7Kasten29StatusBar11qt_metacastEPKc@Base 4:4.10.1
 _ZN7Kasten29StatusBar12updateLayoutEv@Base 4:4.10.1
 _ZN7Kasten29StatusBar16staticMetaObjectE@Base 4:4.10.1
 _ZN7Kasten29StatusBar9addWidgetEP7QWidget@Base 4:4.10.1
 _ZN7Kasten29StatusBarC1EP7QWidget@Base 4:4.10.1
 _ZN7Kasten29StatusBarC2EP7QWidget@Base 4:4.10.1
 _ZN7Kasten29StatusBarD0Ev@Base 4:4.10.1
 _ZN7Kasten29StatusBarD1Ev@Base 4:4.10.1
 _ZN7Kasten29StatusBarD2Ev@Base 4:4.10.1
 _ZNK7Kasten211ShellWindow10metaObjectEv@Base 4:4.10.1
 _ZNK7Kasten211ShellWindow11dockWidgetsEv@Base 4:4.10.1
 _ZNK7Kasten211ShellWindow11viewManagerEv@Base 4:4.10.1
 _ZNK7Kasten211ShellWindow8viewAreaEv@Base 4:4.10.1
 _ZNK7Kasten211TabbedViews10metaObjectEv@Base 4:4.10.1
 _ZNK7Kasten211TabbedViews6widgetEv@Base 4:4.10.1
 _ZNK7Kasten211TabbedViews7indexOfEPNS_12AbstractViewE@Base 4:4.10.1
 _ZNK7Kasten211TabbedViews8hasFocusEv@Base 4:4.10.1
 _ZNK7Kasten211TabbedViews8viewListEv@Base 4:4.10.1
 _ZNK7Kasten211TabbedViews9viewCountEv@Base 4:4.10.1
 _ZNK7Kasten211TabbedViews9viewFocusEv@Base 4:4.10.1
 _ZNK7Kasten211ViewManager10metaObjectEv@Base 4:4.10.1
 _ZNK7Kasten211ViewManager12viewByWidgetEP7QWidget@Base 4:4.10.1
 _ZNK7Kasten211ViewManager5viewsEv@Base 4:4.10.1
 _ZNK7Kasten212AbstractView10metaObjectEv@Base 4:4.10.1
 _ZNK7Kasten212ToggleButton10metaObjectEv@Base 4:4.10.1
 _ZNK7Kasten213AbstractModel13findBaseModelIPNS_16AbstractDocumentEEET_v@Base 4:4.10.1
 _ZNK7Kasten213DialogHandler12queryDiscardEPKNS_16AbstractDocumentERK7QString@Base 4:4.10.1
 _ZNK7Kasten213DialogHandler14queryOverwriteERK4KUrlRK7QString@Base 4:4.10.1
 _ZNK7Kasten213DialogHandler16querySaveDiscardEPKNS_16AbstractDocumentERK7QString@Base 4:4.10.1
 _ZNK7Kasten213DialogHandler20queryDiscardOnReloadEPKNS_16AbstractDocumentERK7QString@Base 4:4.10.1
 _ZNK7Kasten214MultiViewAreas10metaObjectEv@Base 4:4.10.1
 _ZNK7Kasten214MultiViewAreas13viewAreaFocusEv@Base 4:4.10.1
 _ZNK7Kasten214MultiViewAreas14viewAreasCountEv@Base 4:4.10.1
 _ZNK7Kasten214MultiViewAreas6widgetEv@Base 4:4.10.1
 _ZNK7Kasten214MultiViewAreas7indexOfEPNS_12AbstractViewE@Base 4:4.10.1
 _ZNK7Kasten214MultiViewAreas8hasFocusEv@Base 4:4.10.1
 _ZNK7Kasten214MultiViewAreas8viewListEv@Base 4:4.10.1
 _ZNK7Kasten214MultiViewAreas9viewCountEv@Base 4:4.10.1
 _ZNK7Kasten214MultiViewAreas9viewFocusEv@Base 4:4.10.1
 _ZNK7Kasten214SingleViewArea10metaObjectEv@Base 4:4.10.1
 _ZNK7Kasten214SingleViewArea6widgetEv@Base 4:4.10.1
 _ZNK7Kasten214SingleViewArea8hasFocusEv@Base 4:4.10.1
 _ZNK7Kasten216AbstractViewArea10metaObjectEv@Base 4:4.10.1
 _ZNK7Kasten216SingleViewWindow10metaObjectEv@Base 4:4.10.1
 _ZNK7Kasten216SingleViewWindow11dockWidgetsEv@Base 4:4.10.1
 _ZNK7Kasten216SingleViewWindow4viewEv@Base 4:4.10.1
 _ZNK7Kasten216SingleViewWindow8viewAreaEv@Base 4:4.10.1
 _ZNK7Kasten217AbstractLinePopup10metaObjectEv@Base 4:4.10.1
 _ZNK7Kasten218AbstractController10metaObjectEv@Base 4:4.10.1
 _ZNK7Kasten218AbstractToolWidget10metaObjectEv@Base 4:4.10.1
 _ZNK7Kasten220AbstractGroupedViews10metaObjectEv@Base 4:4.10.1
 _ZNK7Kasten221AbstractSelectionView10metaObjectEv@Base 4:4.10.1
 _ZNK7Kasten221ModelCodecViewManager10metaObjectEv@Base 4:4.10.1
 _ZNK7Kasten221ModelCodecViewManager18createConfigEditorEPNS_21AbstractModelExporterE@Base 4:4.10.1
 _ZNK7Kasten221ModelCodecViewManager18createConfigEditorEPNS_26AbstractModelDataGeneratorE@Base 4:4.10.1
 _ZNK7Kasten221ModelCodecViewManager18createConfigEditorEPNS_26AbstractModelStreamEncoderE@Base 4:4.10.1
 _ZNK7Kasten221MultiDocumentStrategy10metaObjectEv@Base 4:4.10.1
 _ZNK7Kasten221MultiDocumentStrategy11canCloseAllEv@Base 4:4.10.1
 _ZNK7Kasten221MultiDocumentStrategy16canCloseAllOtherEPNS_16AbstractDocumentE@Base 4:4.10.1
 _ZNK7Kasten221MultiDocumentStrategy20supportedRemoteTypesEv@Base 4:4.10.1
 _ZNK7Kasten221MultiDocumentStrategy8canCloseEPNS_16AbstractDocumentE@Base 4:4.10.1
 _ZNK7Kasten221MultiDocumentStrategy9documentsEv@Base 4:4.10.1
 _ZNK7Kasten222SingleDocumentStrategy10metaObjectEv@Base 4:4.10.1
 _ZNK7Kasten222SingleDocumentStrategy11canCloseAllEv@Base 4:4.10.1
 _ZNK7Kasten222SingleDocumentStrategy16canCloseAllOtherEPNS_16AbstractDocumentE@Base 4:4.10.1
 _ZNK7Kasten222SingleDocumentStrategy20supportedRemoteTypesEv@Base 4:4.10.1
 _ZNK7Kasten222SingleDocumentStrategy8canCloseEPNS_16AbstractDocumentE@Base 4:4.10.1
 _ZNK7Kasten222SingleDocumentStrategy9documentsEv@Base 4:4.10.1
 _ZNK7Kasten224AbstractDocumentStrategy10metaObjectEv@Base 4:4.10.1
 _ZNK7Kasten224AbstractXmlGuiController10metaObjectEv@Base 4:4.10.1
 _ZNK7Kasten233AbstractModelExporterConfigEditor10metaObjectEv@Base 4:4.10.1
 _ZNK7Kasten233AbstractModelExporterConfigEditor17createPreviewViewEv@Base 4:4.10.1
 _ZNK7Kasten233AbstractModelExporterConfigEditor7isValidEv@Base 4:4.10.1
 _ZNK7Kasten238AbstractModelDataGeneratorConfigEditor10metaObjectEv@Base 4:4.10.1
 _ZNK7Kasten238AbstractModelDataGeneratorConfigEditor7isValidEv@Base 4:4.10.1
 _ZNK7Kasten238AbstractModelStreamEncoderConfigEditor10metaObjectEv@Base 4:4.10.1
 _ZNK7Kasten238AbstractModelStreamEncoderConfigEditor17createPreviewViewEv@Base 4:4.10.1
 _ZNK7Kasten238AbstractModelStreamEncoderConfigEditor7isValidEv@Base 4:4.10.1
 _ZNK7Kasten242ModelEncoderFileSystemExporterConfigEditor10metaObjectEv@Base 4:4.10.1
 _ZNK7Kasten242ModelEncoderFileSystemExporterConfigEditor17createPreviewViewEv@Base 4:4.10.1
 _ZNK7Kasten242ModelEncoderFileSystemExporterConfigEditor7isValidEv@Base 4:4.10.1
 _ZNK7Kasten249ModelEncoderFileSystemExporterConfigEditorFactory21tryCreateConfigEditorEPNS_21AbstractModelExporterE@Base 4:4.10.1
 _ZNK7Kasten29DummyView10metaObjectEv@Base 4:4.10.1
 _ZNK7Kasten29DummyView5titleEv@Base 4:4.10.1
 _ZNK7Kasten29DummyView6widgetEv@Base 4:4.10.1
 _ZNK7Kasten29DummyView8hasFocusEv@Base 4:4.10.1
 _ZNK7Kasten29StatusBar10metaObjectEv@Base 4:4.10.1
 _ZTCN7Kasten211ShellWindowE0_13KXmlGuiWindow@Base 4:4.10.1
 _ZTCN7Kasten216SingleViewWindowE0_13KXmlGuiWindow@Base 4:4.10.1
 _ZTIN7Kasten211ShellWindowE@Base 4:4.10.1
 _ZTIN7Kasten211TabbedViewsE@Base 4:4.10.1
 _ZTIN7Kasten211ViewManagerE@Base 4:4.10.1
 _ZTIN7Kasten212AbstractViewE@Base 4:4.10.1
 _ZTIN7Kasten212ToggleButtonE@Base 4:4.10.1
 _ZTIN7Kasten213DialogHandlerE@Base 4:4.10.1
 _ZTIN7Kasten214MultiViewAreasE@Base 4:4.10.1
 _ZTIN7Kasten214SingleViewAreaE@Base 4:4.10.1
 _ZTIN7Kasten216AbstractToolViewE@Base 4:4.10.1
 _ZTIN7Kasten216AbstractViewAreaE@Base 4:4.10.1
 _ZTIN7Kasten216SingleViewWindowE@Base 4:4.10.1
 _ZTIN7Kasten217AbstractLinePopupE@Base 4:4.10.1
 _ZTIN7Kasten218AbstractControllerE@Base 4:4.10.1
 _ZTIN7Kasten218AbstractToolWidgetE@Base 4:4.10.1
 _ZTIN7Kasten219AbstractViewFactoryE@Base 4:4.10.1
 _ZTIN7Kasten220AbstractGroupedViewsE@Base 4:4.10.1
 _ZTIN7Kasten221AbstractSelectionViewE@Base 4:4.10.1
 _ZTIN7Kasten221ModelCodecViewManagerE@Base 4:4.10.1
 _ZTIN7Kasten221MultiDocumentStrategyE@Base 4:4.10.1
 _ZTIN7Kasten222AbstractToolInlineViewE@Base 4:4.10.1
 _ZTIN7Kasten222SingleDocumentStrategyE@Base 4:4.10.1
 _ZTIN7Kasten223AbstractOverwriteDialogE@Base 4:4.10.1
 _ZTIN7Kasten224AbstractDocumentStrategyE@Base 4:4.10.1
 _ZTIN7Kasten224AbstractXmlGuiControllerE@Base 4:4.10.1
 _ZTIN7Kasten225AbstractSaveDiscardDialogE@Base 4:4.10.1
 _ZTIN7Kasten233AbstractModelExporterConfigEditorE@Base 4:4.10.1
 _ZTIN7Kasten238AbstractModelDataGeneratorConfigEditorE@Base 4:4.10.1
 _ZTIN7Kasten238AbstractModelStreamEncoderConfigEditorE@Base 4:4.10.1
 _ZTIN7Kasten240AbstractModelExporterConfigEditorFactoryE@Base 4:4.10.1
 _ZTIN7Kasten242ModelEncoderFileSystemExporterConfigEditorE@Base 4:4.10.1
 _ZTIN7Kasten245AbstractModelDataGeneratorConfigEditorFactoryE@Base 4:4.10.1
 _ZTIN7Kasten245AbstractModelStreamEncoderConfigEditorFactoryE@Base 4:4.10.1
 _ZTIN7Kasten249ModelEncoderFileSystemExporterConfigEditorFactoryE@Base 4:4.10.1
 _ZTIN7Kasten29DummyViewE@Base 4:4.10.1
 _ZTIN7Kasten29StatusBarE@Base 4:4.10.1
 _ZTSN7Kasten211ShellWindowE@Base 4:4.10.1
 _ZTSN7Kasten211TabbedViewsE@Base 4:4.10.1
 _ZTSN7Kasten211ViewManagerE@Base 4:4.10.1
 _ZTSN7Kasten212AbstractViewE@Base 4:4.10.1
 _ZTSN7Kasten212ToggleButtonE@Base 4:4.10.1
 _ZTSN7Kasten213DialogHandlerE@Base 4:4.10.1
 _ZTSN7Kasten214MultiViewAreasE@Base 4:4.10.1
 _ZTSN7Kasten214SingleViewAreaE@Base 4:4.10.1
 _ZTSN7Kasten216AbstractToolViewE@Base 4:4.10.1
 _ZTSN7Kasten216AbstractViewAreaE@Base 4:4.10.1
 _ZTSN7Kasten216SingleViewWindowE@Base 4:4.10.1
 _ZTSN7Kasten217AbstractLinePopupE@Base 4:4.10.1
 _ZTSN7Kasten218AbstractControllerE@Base 4:4.10.1
 _ZTSN7Kasten218AbstractToolWidgetE@Base 4:4.10.1
 _ZTSN7Kasten219AbstractViewFactoryE@Base 4:4.10.1
 _ZTSN7Kasten220AbstractGroupedViewsE@Base 4:4.10.1
 _ZTSN7Kasten221AbstractSelectionViewE@Base 4:4.10.1
 _ZTSN7Kasten221ModelCodecViewManagerE@Base 4:4.10.1
 _ZTSN7Kasten221MultiDocumentStrategyE@Base 4:4.10.1
 _ZTSN7Kasten222AbstractToolInlineViewE@Base 4:4.10.1
 _ZTSN7Kasten222SingleDocumentStrategyE@Base 4:4.10.1
 _ZTSN7Kasten223AbstractOverwriteDialogE@Base 4:4.10.1
 _ZTSN7Kasten224AbstractDocumentStrategyE@Base 4:4.10.1
 _ZTSN7Kasten224AbstractXmlGuiControllerE@Base 4:4.10.1
 _ZTSN7Kasten225AbstractSaveDiscardDialogE@Base 4:4.10.1
 _ZTSN7Kasten233AbstractModelExporterConfigEditorE@Base 4:4.10.1
 _ZTSN7Kasten238AbstractModelDataGeneratorConfigEditorE@Base 4:4.10.1
 _ZTSN7Kasten238AbstractModelStreamEncoderConfigEditorE@Base 4:4.10.1
 _ZTSN7Kasten240AbstractModelExporterConfigEditorFactoryE@Base 4:4.10.1
 _ZTSN7Kasten242ModelEncoderFileSystemExporterConfigEditorE@Base 4:4.10.1
 _ZTSN7Kasten245AbstractModelDataGeneratorConfigEditorFactoryE@Base 4:4.10.1
 _ZTSN7Kasten245AbstractModelStreamEncoderConfigEditorFactoryE@Base 4:4.10.1
 _ZTSN7Kasten249ModelEncoderFileSystemExporterConfigEditorFactoryE@Base 4:4.10.1
 _ZTSN7Kasten29DummyViewE@Base 4:4.10.1
 _ZTSN7Kasten29StatusBarE@Base 4:4.10.1
 _ZTTN7Kasten211ShellWindowE@Base 4:4.10.1
 _ZTTN7Kasten216SingleViewWindowE@Base 4:4.10.1
 _ZTVN7Kasten211ShellWindowE@Base 4:4.10.1
 _ZTVN7Kasten211TabbedViewsE@Base 4:4.10.1
 _ZTVN7Kasten211ViewManagerE@Base 4:4.10.1
 _ZTVN7Kasten212AbstractViewE@Base 4:4.10.1
 _ZTVN7Kasten212ToggleButtonE@Base 4:4.10.1
 _ZTVN7Kasten213DialogHandlerE@Base 4:4.10.1
 _ZTVN7Kasten214MultiViewAreasE@Base 4:4.10.1
 _ZTVN7Kasten214SingleViewAreaE@Base 4:4.10.1
 _ZTVN7Kasten216AbstractToolViewE@Base 4:4.10.1
 _ZTVN7Kasten216AbstractViewAreaE@Base 4:4.10.1
 _ZTVN7Kasten216SingleViewWindowE@Base 4:4.10.1
 _ZTVN7Kasten217AbstractLinePopupE@Base 4:4.10.1
 _ZTVN7Kasten218AbstractControllerE@Base 4:4.10.1
 _ZTVN7Kasten218AbstractToolWidgetE@Base 4:4.10.1
 _ZTVN7Kasten219AbstractViewFactoryE@Base 4:4.10.1
 _ZTVN7Kasten220AbstractGroupedViewsE@Base 4:4.10.1
 _ZTVN7Kasten221AbstractSelectionViewE@Base 4:4.10.1
 _ZTVN7Kasten221ModelCodecViewManagerE@Base 4:4.10.1
 _ZTVN7Kasten221MultiDocumentStrategyE@Base 4:4.10.1
 _ZTVN7Kasten222AbstractToolInlineViewE@Base 4:4.10.1
 _ZTVN7Kasten222SingleDocumentStrategyE@Base 4:4.10.1
 _ZTVN7Kasten223AbstractOverwriteDialogE@Base 4:4.10.1
 _ZTVN7Kasten224AbstractDocumentStrategyE@Base 4:4.10.1
 _ZTVN7Kasten224AbstractXmlGuiControllerE@Base 4:4.10.1
 _ZTVN7Kasten225AbstractSaveDiscardDialogE@Base 4:4.10.1
 _ZTVN7Kasten233AbstractModelExporterConfigEditorE@Base 4:4.10.1
 _ZTVN7Kasten238AbstractModelDataGeneratorConfigEditorE@Base 4:4.10.1
 _ZTVN7Kasten238AbstractModelStreamEncoderConfigEditorE@Base 4:4.10.1
 _ZTVN7Kasten240AbstractModelExporterConfigEditorFactoryE@Base 4:4.10.1
 _ZTVN7Kasten242ModelEncoderFileSystemExporterConfigEditorE@Base 4:4.10.1
 _ZTVN7Kasten245AbstractModelDataGeneratorConfigEditorFactoryE@Base 4:4.10.1
 _ZTVN7Kasten245AbstractModelStreamEncoderConfigEditorFactoryE@Base 4:4.10.1
 _ZTVN7Kasten249ModelEncoderFileSystemExporterConfigEditorFactoryE@Base 4:4.10.1
 _ZTVN7Kasten29DummyViewE@Base 4:4.10.1
 _ZTVN7Kasten29StatusBarE@Base 4:4.10.1
 _ZThn16_N7Kasten211ShellWindowD0Ev@Base 4:4.10.1
 _ZThn16_N7Kasten211ShellWindowD1Ev@Base 4:4.10.1
 _ZThn16_N7Kasten212ToggleButtonD0Ev@Base 4:4.10.1
 _ZThn16_N7Kasten212ToggleButtonD1Ev@Base 4:4.10.1
 _ZThn16_N7Kasten216SingleViewWindowD0Ev@Base 4:4.10.1
 _ZThn16_N7Kasten216SingleViewWindowD1Ev@Base 4:4.10.1
 _ZThn16_N7Kasten217AbstractLinePopupD0Ev@Base 4:4.10.1
 _ZThn16_N7Kasten217AbstractLinePopupD1Ev@Base 4:4.10.1
 _ZThn16_N7Kasten218AbstractToolWidgetD0Ev@Base 4:4.10.1
 _ZThn16_N7Kasten218AbstractToolWidgetD1Ev@Base 4:4.10.1
 _ZThn16_N7Kasten233AbstractModelExporterConfigEditorD0Ev@Base 4:4.10.1
 _ZThn16_N7Kasten233AbstractModelExporterConfigEditorD1Ev@Base 4:4.10.1
 _ZThn16_N7Kasten238AbstractModelDataGeneratorConfigEditorD0Ev@Base 4:4.10.1
 _ZThn16_N7Kasten238AbstractModelDataGeneratorConfigEditorD1Ev@Base 4:4.10.1
 _ZThn16_N7Kasten238AbstractModelStreamEncoderConfigEditorD0Ev@Base 4:4.10.1
 _ZThn16_N7Kasten238AbstractModelStreamEncoderConfigEditorD1Ev@Base 4:4.10.1
 _ZThn16_N7Kasten242ModelEncoderFileSystemExporterConfigEditorD0Ev@Base 4:4.10.1
 _ZThn16_N7Kasten242ModelEncoderFileSystemExporterConfigEditorD1Ev@Base 4:4.10.1
 _ZThn16_N7Kasten29StatusBarD0Ev@Base 4:4.10.1
 _ZThn16_N7Kasten29StatusBarD1Ev@Base 4:4.10.1
 _ZThn24_N7Kasten211TabbedViews24setCurrentToolInlineViewEPNS_22AbstractToolInlineViewE@Base 4:4.10.1
 _ZThn24_N7Kasten211TabbedViewsD0Ev@Base 4:4.10.1
 _ZThn24_N7Kasten211TabbedViewsD1Ev@Base 4:4.10.1
 _ZThn24_N7Kasten214MultiViewAreas24setCurrentToolInlineViewEPNS_22AbstractToolInlineViewE@Base 4:4.10.1
 _ZThn24_N7Kasten214MultiViewAreasD0Ev@Base 4:4.10.1
 _ZThn24_N7Kasten214MultiViewAreasD1Ev@Base 4:4.10.1
 _ZThn24_N7Kasten214SingleViewArea24setCurrentToolInlineViewEPNS_22AbstractToolInlineViewE@Base 4:4.10.1
 _ZThn24_N7Kasten214SingleViewAreaD0Ev@Base 4:4.10.1
 _ZThn24_N7Kasten214SingleViewAreaD1Ev@Base 4:4.10.1
 _ZThn32_N7Kasten214MultiViewAreas13closeViewAreaEPNS_16AbstractViewAreaE@Base 4:4.10.1
 _ZThn32_N7Kasten214MultiViewAreas13splitViewAreaEPNS_16AbstractViewAreaEN2Qt11OrientationE@Base 4:4.10.1
 _ZThn32_N7Kasten214MultiViewAreas14viewAreasAddedERK5QListIPNS_16AbstractViewAreaEE@Base 4:4.10.1
 _ZThn32_N7Kasten214MultiViewAreas16setViewAreaFocusEPNS_16AbstractViewAreaE@Base 4:4.10.1
 _ZThn32_N7Kasten214MultiViewAreas16viewAreasRemovedERK5QListIPNS_16AbstractViewAreaEE@Base 4:4.10.1
 _ZThn32_N7Kasten214MultiViewAreas20viewAreaFocusChangedEPNS_16AbstractViewAreaE@Base 4:4.10.1
 _ZThn32_N7Kasten214MultiViewAreasD0Ev@Base 4:4.10.1
 _ZThn32_N7Kasten214MultiViewAreasD1Ev@Base 4:4.10.1
 _ZThn32_NK7Kasten214MultiViewAreas13viewAreaFocusEv@Base 4:4.10.1
 _ZThn32_NK7Kasten214MultiViewAreas14viewAreasCountEv@Base 4:4.10.1
 _ZThn48_N7Kasten211ShellWindowD0Ev@Base 4:4.10.1
 _ZThn48_N7Kasten211ShellWindowD1Ev@Base 4:4.10.1
 _ZThn48_N7Kasten216SingleViewWindowD0Ev@Base 4:4.10.1
 _ZThn48_N7Kasten216SingleViewWindowD1Ev@Base 4:4.10.1
 _ZThn64_N7Kasten211ShellWindowD0Ev@Base 4:4.10.1
 _ZThn64_N7Kasten211ShellWindowD1Ev@Base 4:4.10.1
 _ZThn64_N7Kasten216SingleViewWindowD0Ev@Base 4:4.10.1
 _ZThn64_N7Kasten216SingleViewWindowD1Ev@Base 4:4.10.1
 _ZThn64_NK7Kasten211ShellWindow11dockWidgetsEv@Base 4:4.10.1
 _ZThn64_NK7Kasten216SingleViewWindow11dockWidgetsEv@Base 4:4.10.1
 _ZThn8_N7Kasten213DialogHandlerD0Ev@Base 4:4.10.1
 _ZThn8_N7Kasten213DialogHandlerD1Ev@Base 4:4.10.1
 _ZThn8_NK7Kasten213DialogHandler12queryDiscardEPKNS_16AbstractDocumentERK7QString@Base 4:4.10.1
 _ZThn8_NK7Kasten213DialogHandler16querySaveDiscardEPKNS_16AbstractDocumentERK7QString@Base 4:4.10.1
 _ZThn8_NK7Kasten213DialogHandler20queryDiscardOnReloadEPKNS_16AbstractDocumentERK7QString@Base 4:4.10.1
 _ZTv0_n24_N7Kasten211ShellWindowD0Ev@Base 4:4.10.1
 _ZTv0_n24_N7Kasten211ShellWindowD1Ev@Base 4:4.10.1
 _ZTv0_n24_N7Kasten216SingleViewWindowD0Ev@Base 4:4.10.1
 _ZTv0_n24_N7Kasten216SingleViewWindowD1Ev@Base 4:4.10.1
