libkasten2controllers.so.2 libkasten2controllers2 #MINVER#
 _ZN7Kasten212TerminalTool11qt_metacallEN11QMetaObject4CallEiPPv@Base 4:4.10.1
 _ZN7Kasten212TerminalTool11qt_metacastEPKc@Base 4:4.10.1
 _ZN7Kasten212TerminalTool14setTargetModelEPNS_13AbstractModelE@Base 4:4.10.1
 _ZN7Kasten212TerminalTool16staticMetaObjectE@Base 4:4.10.1
 _ZN7Kasten212TerminalTool17currentUrlChangedERK4KUrl@Base 4:4.10.1
 _ZN7Kasten212TerminalToolC1EPNS_19DocumentSyncManagerE@Base 4:4.10.1
 _ZN7Kasten212TerminalToolC2EPNS_19DocumentSyncManagerE@Base 4:4.10.1
 _ZN7Kasten212TerminalToolD0Ev@Base 4:4.10.1
 _ZN7Kasten212TerminalToolD1Ev@Base 4:4.10.1
 _ZN7Kasten212TerminalToolD2Ev@Base 4:4.10.1
 _ZN7Kasten213DocumentsTool11qt_metacallEN11QMetaObject4CallEiPPv@Base 4:4.10.1
 _ZN7Kasten213DocumentsTool11qt_metacastEPKc@Base 4:4.10.1
 _ZN7Kasten213DocumentsTool14documentsAddedERK5QListIPNS_16AbstractDocumentEE@Base 4:4.10.1
 _ZN7Kasten213DocumentsTool14setTargetModelEPNS_13AbstractModelE@Base 4:4.10.1
 _ZN7Kasten213DocumentsTool16documentsClosingERK5QListIPNS_16AbstractDocumentEE@Base 4:4.10.1
 _ZN7Kasten213DocumentsTool16staticMetaObjectE@Base 4:4.10.1
 _ZN7Kasten213DocumentsTool19setFocussedDocumentEPNS_16AbstractDocumentE@Base 4:4.10.1
 _ZN7Kasten213DocumentsTool23focussedDocumentChangedEPNS_16AbstractDocumentE@Base 4:4.10.1
 _ZN7Kasten213DocumentsToolC1EPNS_15DocumentManagerE@Base 4:4.10.1
 _ZN7Kasten213DocumentsToolC2EPNS_15DocumentManagerE@Base 4:4.10.1
 _ZN7Kasten213DocumentsToolD0Ev@Base 4:4.10.1
 _ZN7Kasten213DocumentsToolD1Ev@Base 4:4.10.1
 _ZN7Kasten213DocumentsToolD2Ev@Base 4:4.10.1
 _ZN7Kasten214QuitController11qt_metacallEN11QMetaObject4CallEiPPv@Base 4:4.10.1
 _ZN7Kasten214QuitController11qt_metacastEPKc@Base 4:4.10.1
 _ZN7Kasten214QuitController14setTargetModelEPNS_13AbstractModelE@Base 4:4.10.1
 _ZN7Kasten214QuitController16staticMetaObjectE@Base 4:4.10.1
 _ZN7Kasten214QuitController4quitEv@Base 4:4.10.1
 _ZN7Kasten214QuitControllerC1EPNS_8KProgramEP13KXmlGuiWindow@Base 4:4.10.1
 _ZN7Kasten214QuitControllerC2EPNS_8KProgramEP13KXmlGuiWindow@Base 4:4.10.1
 _ZN7Kasten214QuitControllerD0Ev@Base 4:4.10.1
 _ZN7Kasten214QuitControllerD1Ev@Base 4:4.10.1
 _ZN7Kasten214QuitControllerD2Ev@Base 4:4.10.1
 _ZN7Kasten214ZoomController11qt_metacallEN11QMetaObject4CallEiPPv@Base 4:4.10.1
 _ZN7Kasten214ZoomController11qt_metacastEPKc@Base 4:4.10.1
 _ZN7Kasten214ZoomController14setTargetModelEPNS_13AbstractModelE@Base 4:4.10.1
 _ZN7Kasten214ZoomController16staticMetaObjectE@Base 4:4.10.1
 _ZN7Kasten214ZoomController17onZoomLevelChangeEd@Base 4:4.10.1
 _ZN7Kasten214ZoomController6zoomInEv@Base 4:4.10.1
 _ZN7Kasten214ZoomController7zoomOutEv@Base 4:4.10.1
 _ZN7Kasten214ZoomControllerC1EP13KXMLGUIClient@Base 4:4.10.1
 _ZN7Kasten214ZoomControllerC2EP13KXMLGUIClient@Base 4:4.10.1
 _ZN7Kasten214ZoomControllerD0Ev@Base 4:4.10.1
 _ZN7Kasten214ZoomControllerD1Ev@Base 4:4.10.1
 _ZN7Kasten214ZoomControllerD2Ev@Base 4:4.10.1
 _ZN7Kasten215CloseController11qt_metacallEN11QMetaObject4CallEiPPv@Base 4:4.10.1
 _ZN7Kasten215CloseController11qt_metacastEPKc@Base 4:4.10.1
 _ZN7Kasten215CloseController13closeAllOtherEv@Base 4:4.10.1
 _ZN7Kasten215CloseController14setTargetModelEPNS_13AbstractModelE@Base 4:4.10.1
 _ZN7Kasten215CloseController16staticMetaObjectE@Base 4:4.10.1
 _ZN7Kasten215CloseController18onDocumentsChangedEv@Base 4:4.10.1
 _ZN7Kasten215CloseController5closeEv@Base 4:4.10.1
 _ZN7Kasten215CloseController8closeAllEv@Base 4:4.10.1
 _ZN7Kasten215CloseControllerC1EPNS_24AbstractDocumentStrategyEP13KXMLGUIClientb@Base 4:4.10.1
 _ZN7Kasten215CloseControllerC2EPNS_24AbstractDocumentStrategyEP13KXMLGUIClientb@Base 4:4.10.1
 _ZN7Kasten215CloseControllerD0Ev@Base 4:4.10.1
 _ZN7Kasten215CloseControllerD1Ev@Base 4:4.10.1
 _ZN7Kasten215CloseControllerD2Ev@Base 4:4.10.1
 _ZN7Kasten215VersionViewTool11qt_metacallEN11QMetaObject4CallEiPPv@Base 4:4.10.1
 _ZN7Kasten215VersionViewTool11qt_metacastEPKc@Base 4:4.10.1
 _ZN7Kasten215VersionViewTool12modelChangedEPNS_13AbstractModelE@Base 4:4.10.1
 _ZN7Kasten215VersionViewTool14setTargetModelEPNS_13AbstractModelE@Base 4:4.10.1
 _ZN7Kasten215VersionViewTool16staticMetaObjectE@Base 4:4.10.1
 _ZN7Kasten215VersionViewToolC1Ev@Base 4:4.10.1
 _ZN7Kasten215VersionViewToolC2Ev@Base 4:4.10.1
 _ZN7Kasten215VersionViewToolD0Ev@Base 4:4.10.1
 _ZN7Kasten215VersionViewToolD1Ev@Base 4:4.10.1
 _ZN7Kasten215VersionViewToolD2Ev@Base 4:4.10.1
 _ZN7Kasten216CopyAsController11qt_metacallEN11QMetaObject4CallEiPPv@Base 4:4.10.1
 _ZN7Kasten216CopyAsController11qt_metacastEPKc@Base 4:4.10.1
 _ZN7Kasten216CopyAsController13updateActionsEv@Base 4:4.10.1
 _ZN7Kasten216CopyAsController14setTargetModelEPNS_13AbstractModelE@Base 4:4.10.1
 _ZN7Kasten216CopyAsController16staticMetaObjectE@Base 4:4.10.1
 _ZN7Kasten216CopyAsController17onActionTriggeredEP7QAction@Base 4:4.10.1
 _ZN7Kasten216CopyAsControllerC1EPNS_21ModelCodecViewManagerEPNS_17ModelCodecManagerEP13KXMLGUIClient@Base 4:4.10.1
 _ZN7Kasten216CopyAsControllerC2EPNS_21ModelCodecViewManagerEPNS_17ModelCodecManagerEP13KXMLGUIClient@Base 4:4.10.1
 _ZN7Kasten216CopyAsControllerD0Ev@Base 4:4.10.1
 _ZN7Kasten216CopyAsControllerD1Ev@Base 4:4.10.1
 _ZN7Kasten216CopyAsControllerD2Ev@Base 4:4.10.1
 _ZN7Kasten216ExportController11qt_metacallEN11QMetaObject4CallEiPPv@Base 4:4.10.1
 _ZN7Kasten216ExportController11qt_metacastEPKc@Base 4:4.10.1
 _ZN7Kasten216ExportController13updateActionsEv@Base 4:4.10.1
 _ZN7Kasten216ExportController14setTargetModelEPNS_13AbstractModelE@Base 4:4.10.1
 _ZN7Kasten216ExportController16staticMetaObjectE@Base 4:4.10.1
 _ZN7Kasten216ExportController17onActionTriggeredEP7QAction@Base 4:4.10.1
 _ZN7Kasten216ExportControllerC1EPNS_21ModelCodecViewManagerEPNS_17ModelCodecManagerEP13KXMLGUIClient@Base 4:4.10.1
 _ZN7Kasten216ExportControllerC2EPNS_21ModelCodecViewManagerEPNS_17ModelCodecManagerEP13KXMLGUIClient@Base 4:4.10.1
 _ZN7Kasten216ExportControllerD0Ev@Base 4:4.10.1
 _ZN7Kasten216ExportControllerD1Ev@Base 4:4.10.1
 _ZN7Kasten216ExportControllerD2Ev@Base 4:4.10.1
 _ZN7Kasten216InsertController11qt_metacallEN11QMetaObject4CallEiPPv@Base 4:4.10.1
 _ZN7Kasten216InsertController11qt_metacastEPKc@Base 4:4.10.1
 _ZN7Kasten216InsertController13updateActionsEv@Base 4:4.10.1
 _ZN7Kasten216InsertController14setTargetModelEPNS_13AbstractModelE@Base 4:4.10.1
 _ZN7Kasten216InsertController16staticMetaObjectE@Base 4:4.10.1
 _ZN7Kasten216InsertController17onActionTriggeredEP7QAction@Base 4:4.10.1
 _ZN7Kasten216InsertController17onReadOnlyChangedEb@Base 4:4.10.1
 _ZN7Kasten216InsertControllerC1EPNS_21ModelCodecViewManagerEPNS_17ModelCodecManagerEP13KXMLGUIClient@Base 4:4.10.1
 _ZN7Kasten216InsertControllerC2EPNS_21ModelCodecViewManagerEPNS_17ModelCodecManagerEP13KXMLGUIClient@Base 4:4.10.1
 _ZN7Kasten216InsertControllerD0Ev@Base 4:4.10.1
 _ZN7Kasten216InsertControllerD1Ev@Base 4:4.10.1
 _ZN7Kasten216InsertControllerD2Ev@Base 4:4.10.1
 _ZN7Kasten216LoaderController10loadRecentERK4KUrl@Base 4:4.10.1
 _ZN7Kasten216LoaderController11qt_metacallEN11QMetaObject4CallEiPPv@Base 4:4.10.1
 _ZN7Kasten216LoaderController11qt_metacastEPKc@Base 4:4.10.1
 _ZN7Kasten216LoaderController14setTargetModelEPNS_13AbstractModelE@Base 4:4.10.1
 _ZN7Kasten216LoaderController16staticMetaObjectE@Base 4:4.10.1
 _ZN7Kasten216LoaderController4loadEv@Base 4:4.10.1
 _ZN7Kasten216LoaderController9onUrlUsedERK4KUrl@Base 4:4.10.1
 _ZN7Kasten216LoaderControllerC1EPNS_24AbstractDocumentStrategyEP13KXMLGUIClient@Base 4:4.10.1
 _ZN7Kasten216LoaderControllerC2EPNS_24AbstractDocumentStrategyEP13KXMLGUIClient@Base 4:4.10.1
 _ZN7Kasten216LoaderControllerD0Ev@Base 4:4.10.1
 _ZN7Kasten216LoaderControllerD1Ev@Base 4:4.10.1
 _ZN7Kasten216LoaderControllerD2Ev@Base 4:4.10.1
 _ZN7Kasten216SelectController11qt_metacallEN11QMetaObject4CallEiPPv@Base 4:4.10.1
 _ZN7Kasten216SelectController11qt_metacastEPKc@Base 4:4.10.1
 _ZN7Kasten216SelectController14setTargetModelEPNS_13AbstractModelE@Base 4:4.10.1
 _ZN7Kasten216SelectController16staticMetaObjectE@Base 4:4.10.1
 _ZN7Kasten216SelectController24onHasSelectedDataChangedEb@Base 4:4.10.1
 _ZN7Kasten216SelectController8unselectEv@Base 4:4.10.1
 _ZN7Kasten216SelectController9selectAllEv@Base 4:4.10.1
 _ZN7Kasten216SelectControllerC1EP13KXMLGUIClient@Base 4:4.10.1
 _ZN7Kasten216SelectControllerC2EP13KXMLGUIClient@Base 4:4.10.1
 _ZN7Kasten216SelectControllerD0Ev@Base 4:4.10.1
 _ZN7Kasten216SelectControllerD1Ev@Base 4:4.10.1
 _ZN7Kasten216SelectControllerD2Ev@Base 4:4.10.1
 _ZN7Kasten216TerminalToolViewC1EPNS_12TerminalToolE@Base 4:4.10.1
 _ZN7Kasten216TerminalToolViewC2EPNS_12TerminalToolE@Base 4:4.10.1
 _ZN7Kasten216TerminalToolViewD0Ev@Base 4:4.10.1
 _ZN7Kasten216TerminalToolViewD1Ev@Base 4:4.10.1
 _ZN7Kasten216TerminalToolViewD2Ev@Base 4:4.10.1
 _ZN7Kasten217CreatorController11qt_metacallEN11QMetaObject4CallEiPPv@Base 4:4.10.1
 _ZN7Kasten217CreatorController11qt_metacastEPKc@Base 4:4.10.1
 _ZN7Kasten217CreatorController14setTargetModelEPNS_13AbstractModelE@Base 4:4.10.1
 _ZN7Kasten217CreatorController16staticMetaObjectE@Base 4:4.10.1
 _ZN7Kasten217CreatorController20onNewActionTriggeredEv@Base 4:4.10.1
 _ZN7Kasten217CreatorController33onNewFromClipboardActionTriggeredEv@Base 4:4.10.1
 _ZN7Kasten217CreatorController33onNewFromGeneratorActionTriggeredEv@Base 4:4.10.1
 _ZN7Kasten217CreatorControllerC1EPNS_17ModelCodecManagerEPNS_24AbstractDocumentStrategyEP13KXMLGUIClient@Base 4:4.10.1
 _ZN7Kasten217CreatorControllerC2EPNS_17ModelCodecManagerEPNS_24AbstractDocumentStrategyEP13KXMLGUIClient@Base 4:4.10.1
 _ZN7Kasten217CreatorControllerD0Ev@Base 4:4.10.1
 _ZN7Kasten217CreatorControllerD1Ev@Base 4:4.10.1
 _ZN7Kasten217CreatorControllerD2Ev@Base 4:4.10.1
 _ZN7Kasten217DocumentsToolViewC1EPNS_13DocumentsToolE@Base 4:4.10.1
 _ZN7Kasten217DocumentsToolViewC2EPNS_13DocumentsToolE@Base 4:4.10.1
 _ZN7Kasten217DocumentsToolViewD0Ev@Base 4:4.10.1
 _ZN7Kasten217DocumentsToolViewD1Ev@Base 4:4.10.1
 _ZN7Kasten217DocumentsToolViewD2Ev@Base 4:4.10.1
 _ZN7Kasten217VersionController11qt_metacallEN11QMetaObject4CallEiPPv@Base 4:4.10.1
 _ZN7Kasten217VersionController11qt_metacastEPKc@Base 4:4.10.1
 _ZN7Kasten217VersionController14setTargetModelEPNS_13AbstractModelE@Base 4:4.10.1
 _ZN7Kasten217VersionController16staticMetaObjectE@Base 4:4.10.1
 _ZN7Kasten217VersionController17onReadOnlyChangedEb@Base 4:4.10.1
 _ZN7Kasten217VersionController21onVersionIndexChangedEi@Base 4:4.10.1
 _ZN7Kasten217VersionController27onNewerVersionMenuTriggeredEP7QAction@Base 4:4.10.1
 _ZN7Kasten217VersionController27onOlderVersionMenuTriggeredEP7QAction@Base 4:4.10.1
 _ZN7Kasten217VersionController28onSetToNewerVersionTriggeredEv@Base 4:4.10.1
 _ZN7Kasten217VersionController28onSetToOlderVersionTriggeredEv@Base 4:4.10.1
 _ZN7Kasten217VersionController29onNewerVersionMenuAboutToShowEv@Base 4:4.10.1
 _ZN7Kasten217VersionController29onOlderVersionMenuAboutToShowEv@Base 4:4.10.1
 _ZN7Kasten217VersionControllerC1EP13KXMLGUIClient@Base 4:4.10.1
 _ZN7Kasten217VersionControllerC2EP13KXMLGUIClient@Base 4:4.10.1
 _ZN7Kasten217VersionControllerD0Ev@Base 4:4.10.1
 _ZN7Kasten217VersionControllerD1Ev@Base 4:4.10.1
 _ZN7Kasten217VersionControllerD2Ev@Base 4:4.10.1
 _ZN7Kasten217ZoomBarController11qt_metacallEN11QMetaObject4CallEiPPv@Base 4:4.10.1
 _ZN7Kasten217ZoomBarController11qt_metacastEPKc@Base 4:4.10.1
 _ZN7Kasten217ZoomBarController14setTargetModelEPNS_13AbstractModelE@Base 4:4.10.1
 _ZN7Kasten217ZoomBarController16staticMetaObjectE@Base 4:4.10.1
 _ZN7Kasten217ZoomBarControllerC1EPNS_9StatusBarE@Base 4:4.10.1
 _ZN7Kasten217ZoomBarControllerC2EPNS_9StatusBarE@Base 4:4.10.1
 _ZN7Kasten217ZoomBarControllerD0Ev@Base 4:4.10.1
 _ZN7Kasten217ZoomBarControllerD1Ev@Base 4:4.10.1
 _ZN7Kasten217ZoomBarControllerD2Ev@Base 4:4.10.1
 _ZN7Kasten218ReadOnlyController11qt_metacallEN11QMetaObject4CallEiPPv@Base 4:4.10.1
 _ZN7Kasten218ReadOnlyController11qt_metacastEPKc@Base 4:4.10.1
 _ZN7Kasten218ReadOnlyController11setReadOnlyEb@Base 4:4.10.1
 _ZN7Kasten218ReadOnlyController14setTargetModelEPNS_13AbstractModelE@Base 4:4.10.1
 _ZN7Kasten218ReadOnlyController16staticMetaObjectE@Base 4:4.10.1
 _ZN7Kasten218ReadOnlyControllerC1EP13KXMLGUIClient@Base 4:4.10.1
 _ZN7Kasten218ReadOnlyControllerC2EP13KXMLGUIClient@Base 4:4.10.1
 _ZN7Kasten218ReadOnlyControllerD0Ev@Base 4:4.10.1
 _ZN7Kasten218ReadOnlyControllerD1Ev@Base 4:4.10.1
 _ZN7Kasten218ReadOnlyControllerD2Ev@Base 4:4.10.1
 _ZN7Kasten219ClipboardController11qt_metacallEN11QMetaObject4CallEiPPv@Base 4:4.10.1
 _ZN7Kasten219ClipboardController11qt_metacastEPKc@Base 4:4.10.1
 _ZN7Kasten219ClipboardController14setTargetModelEPNS_13AbstractModelE@Base 4:4.10.1
 _ZN7Kasten219ClipboardController16staticMetaObjectE@Base 4:4.10.1
 _ZN7Kasten219ClipboardController17onReadOnlyChangedEb@Base 4:4.10.1
 _ZN7Kasten219ClipboardController22onClipboardDataChangedEv@Base 4:4.10.1
 _ZN7Kasten219ClipboardController24onHasSelectedDataChangedEb@Base 4:4.10.1
 _ZN7Kasten219ClipboardController3cutEv@Base 4:4.10.1
 _ZN7Kasten219ClipboardController4copyEv@Base 4:4.10.1
 _ZN7Kasten219ClipboardController5pasteEv@Base 4:4.10.1
 _ZN7Kasten219ClipboardControllerC1EP13KXMLGUIClient@Base 4:4.10.1
 _ZN7Kasten219ClipboardControllerC2EP13KXMLGUIClient@Base 4:4.10.1
 _ZN7Kasten219ClipboardControllerD0Ev@Base 4:4.10.1
 _ZN7Kasten219ClipboardControllerD1Ev@Base 4:4.10.1
 _ZN7Kasten219ClipboardControllerD2Ev@Base 4:4.10.1
 _ZN7Kasten219SetRemoteController11qt_metacallEN11QMetaObject4CallEiPPv@Base 4:4.10.1
 _ZN7Kasten219SetRemoteController11qt_metacastEPKc@Base 4:4.10.1
 _ZN7Kasten219SetRemoteController14setTargetModelEPNS_13AbstractModelE@Base 4:4.10.1
 _ZN7Kasten219SetRemoteController16staticMetaObjectE@Base 4:4.10.1
 _ZN7Kasten219SetRemoteController6saveAsEv@Base 4:4.10.1
 _ZN7Kasten219SetRemoteControllerC1EPNS_19DocumentSyncManagerEP13KXMLGUIClient@Base 4:4.10.1
 _ZN7Kasten219SetRemoteControllerC2EPNS_19DocumentSyncManagerEP13KXMLGUIClient@Base 4:4.10.1
 _ZN7Kasten219SetRemoteControllerD0Ev@Base 4:4.10.1
 _ZN7Kasten219SetRemoteControllerD1Ev@Base 4:4.10.1
 _ZN7Kasten219SetRemoteControllerD2Ev@Base 4:4.10.1
 _ZN7Kasten219VersionViewToolViewC1EPNS_15VersionViewToolE@Base 4:4.10.1
 _ZN7Kasten219VersionViewToolViewC2EPNS_15VersionViewToolE@Base 4:4.10.1
 _ZN7Kasten219VersionViewToolViewD0Ev@Base 4:4.10.1
 _ZN7Kasten219VersionViewToolViewD1Ev@Base 4:4.10.1
 _ZN7Kasten219VersionViewToolViewD2Ev@Base 4:4.10.1
 _ZN7Kasten220FullScreenController11qt_metacallEN11QMetaObject4CallEiPPv@Base 4:4.10.1
 _ZN7Kasten220FullScreenController11qt_metacastEPKc@Base 4:4.10.1
 _ZN7Kasten220FullScreenController14setTargetModelEPNS_13AbstractModelE@Base 4:4.10.1
 _ZN7Kasten220FullScreenController16staticMetaObjectE@Base 4:4.10.1
 _ZN7Kasten220FullScreenController16switchFullScreenEb@Base 4:4.10.1
 _ZN7Kasten220FullScreenControllerC1EP13KXmlGuiWindow@Base 4:4.10.1
 _ZN7Kasten220FullScreenControllerC2EP13KXmlGuiWindow@Base 4:4.10.1
 _ZN7Kasten220FullScreenControllerD0Ev@Base 4:4.10.1
 _ZN7Kasten220FullScreenControllerD1Ev@Base 4:4.10.1
 _ZN7Kasten220FullScreenControllerD2Ev@Base 4:4.10.1
 _ZN7Kasten220SwitchViewController11qt_metacallEN11QMetaObject4CallEiPPv@Base 4:4.10.1
 _ZN7Kasten220SwitchViewController11qt_metacastEPKc@Base 4:4.10.1
 _ZN7Kasten220SwitchViewController13updateActionsEv@Base 4:4.10.1
 _ZN7Kasten220SwitchViewController14setTargetModelEPNS_13AbstractModelE@Base 4:4.10.1
 _ZN7Kasten220SwitchViewController16staticMetaObjectE@Base 4:4.10.1
 _ZN7Kasten220SwitchViewController7forwardEv@Base 4:4.10.1
 _ZN7Kasten220SwitchViewController8backwardEv@Base 4:4.10.1
 _ZN7Kasten220SwitchViewControllerC1EPNS_20AbstractGroupedViewsEP13KXMLGUIClient@Base 4:4.10.1
 _ZN7Kasten220SwitchViewControllerC2EPNS_20AbstractGroupedViewsEP13KXMLGUIClient@Base 4:4.10.1
 _ZN7Kasten220SwitchViewControllerD0Ev@Base 4:4.10.1
 _ZN7Kasten220SwitchViewControllerD1Ev@Base 4:4.10.1
 _ZN7Kasten220SwitchViewControllerD2Ev@Base 4:4.10.1
 _ZN7Kasten221FileSystemBrowserTool11qt_metacallEN11QMetaObject4CallEiPPv@Base 4:4.10.1
 _ZN7Kasten221FileSystemBrowserTool11qt_metacastEPKc@Base 4:4.10.1
 _ZN7Kasten221FileSystemBrowserTool14setTargetModelEPNS_13AbstractModelE@Base 4:4.10.1
 _ZN7Kasten221FileSystemBrowserTool16staticMetaObjectE@Base 4:4.10.1
 _ZN7Kasten221FileSystemBrowserTool20hasCurrentUrlChangedEb@Base 4:4.10.1
 _ZN7Kasten221FileSystemBrowserTool4openERK4KUrl@Base 4:4.10.1
 _ZN7Kasten221FileSystemBrowserToolC1EPNS_19DocumentSyncManagerE@Base 4:4.10.1
 _ZN7Kasten221FileSystemBrowserToolC2EPNS_19DocumentSyncManagerE@Base 4:4.10.1
 _ZN7Kasten221FileSystemBrowserToolD0Ev@Base 4:4.10.1
 _ZN7Kasten221FileSystemBrowserToolD1Ev@Base 4:4.10.1
 _ZN7Kasten221FileSystemBrowserToolD2Ev@Base 4:4.10.1
 _ZN7Kasten221ModifiedBarController11qt_metacallEN11QMetaObject4CallEiPPv@Base 4:4.10.1
 _ZN7Kasten221ModifiedBarController11qt_metacastEPKc@Base 4:4.10.1
 _ZN7Kasten221ModifiedBarController14setTargetModelEPNS_13AbstractModelE@Base 4:4.10.1
 _ZN7Kasten221ModifiedBarController16staticMetaObjectE@Base 4:4.10.1
 _ZN7Kasten221ModifiedBarController21onContentFlagsChangedE6QFlagsINS_11ContentFlagEE@Base 4:4.10.1
 _ZN7Kasten221ModifiedBarController21onSynchronizerChangedEPNS_25AbstractModelSynchronizerE@Base 4:4.10.1
 _ZN7Kasten221ModifiedBarController21onSynchronizerDeletedEP7QObject@Base 4:4.10.1
 _ZN7Kasten221ModifiedBarController23onLocalSyncStateChangedENS_14LocalSyncStateE@Base 4:4.10.1
 _ZN7Kasten221ModifiedBarController24onRemoteSyncStateChangedENS_15RemoteSyncStateE@Base 4:4.10.1
 _ZN7Kasten221ModifiedBarControllerC1EPNS_9StatusBarE@Base 4:4.10.1
 _ZN7Kasten221ModifiedBarControllerC2EPNS_9StatusBarE@Base 4:4.10.1
 _ZN7Kasten221ModifiedBarControllerD0Ev@Base 4:4.10.1
 _ZN7Kasten221ModifiedBarControllerD1Ev@Base 4:4.10.1
 _ZN7Kasten221ModifiedBarControllerD2Ev@Base 4:4.10.1
 _ZN7Kasten221ReadOnlyBarController11qt_metacallEN11QMetaObject4CallEiPPv@Base 4:4.10.1
 _ZN7Kasten221ReadOnlyBarController11qt_metacastEPKc@Base 4:4.10.1
 _ZN7Kasten221ReadOnlyBarController11setReadOnlyEb@Base 4:4.10.1
 _ZN7Kasten221ReadOnlyBarController14setTargetModelEPNS_13AbstractModelE@Base 4:4.10.1
 _ZN7Kasten221ReadOnlyBarController16staticMetaObjectE@Base 4:4.10.1
 _ZN7Kasten221ReadOnlyBarControllerC1EPNS_9StatusBarE@Base 4:4.10.1
 _ZN7Kasten221ReadOnlyBarControllerC2EPNS_9StatusBarE@Base 4:4.10.1
 _ZN7Kasten221ReadOnlyBarControllerD0Ev@Base 4:4.10.1
 _ZN7Kasten221ReadOnlyBarControllerD1Ev@Base 4:4.10.1
 _ZN7Kasten221ReadOnlyBarControllerD2Ev@Base 4:4.10.1
 _ZN7Kasten221SynchronizeController11qt_metacallEN11QMetaObject4CallEiPPv@Base 4:4.10.1
 _ZN7Kasten221SynchronizeController11qt_metacastEPKc@Base 4:4.10.1
 _ZN7Kasten221SynchronizeController14setTargetModelEPNS_13AbstractModelE@Base 4:4.10.1
 _ZN7Kasten221SynchronizeController16staticMetaObjectE@Base 4:4.10.1
 _ZN7Kasten221SynchronizeController18onSyncStateChangedEv@Base 4:4.10.1
 _ZN7Kasten221SynchronizeController21onSynchronizerChangedEPNS_25AbstractModelSynchronizerE@Base 4:4.10.1
 _ZN7Kasten221SynchronizeController21onSynchronizerDeletedEP7QObject@Base 4:4.10.1
 _ZN7Kasten221SynchronizeController4saveEv@Base 4:4.10.1
 _ZN7Kasten221SynchronizeController6reloadEv@Base 4:4.10.1
 _ZN7Kasten221SynchronizeControllerC1EPNS_19DocumentSyncManagerEP13KXMLGUIClient@Base 4:4.10.1
 _ZN7Kasten221SynchronizeControllerC2EPNS_19DocumentSyncManagerEP13KXMLGUIClient@Base 4:4.10.1
 _ZN7Kasten221SynchronizeControllerD0Ev@Base 4:4.10.1
 _ZN7Kasten221SynchronizeControllerD1Ev@Base 4:4.10.1
 _ZN7Kasten221SynchronizeControllerD2Ev@Base 4:4.10.1
 _ZN7Kasten222ToolListMenuController11qt_metacallEN11QMetaObject4CallEiPPv@Base 4:4.10.1
 _ZN7Kasten222ToolListMenuController11qt_metacastEPKc@Base 4:4.10.1
 _ZN7Kasten222ToolListMenuController13updateActionsEv@Base 4:4.10.1
 _ZN7Kasten222ToolListMenuController14setTargetModelEPNS_13AbstractModelE@Base 4:4.10.1
 _ZN7Kasten222ToolListMenuController16staticMetaObjectE@Base 4:4.10.1
 _ZN7Kasten222ToolListMenuControllerC1EPNS_2If15WidgetsDockableEP13KXMLGUIClient@Base 4:4.10.1
 _ZN7Kasten222ToolListMenuControllerC2EPNS_2If15WidgetsDockableEP13KXMLGUIClient@Base 4:4.10.1
 _ZN7Kasten222ToolListMenuControllerD0Ev@Base 4:4.10.1
 _ZN7Kasten222ToolListMenuControllerD1Ev@Base 4:4.10.1
 _ZN7Kasten222ToolListMenuControllerD2Ev@Base 4:4.10.1
 _ZN7Kasten222ViewListMenuController11qt_metacallEN11QMetaObject4CallEiPPv@Base 4:4.10.1
 _ZN7Kasten222ViewListMenuController11qt_metacastEPKc@Base 4:4.10.1
 _ZN7Kasten222ViewListMenuController13updateActionsEv@Base 4:4.10.1
 _ZN7Kasten222ViewListMenuController14setTargetModelEPNS_13AbstractModelE@Base 4:4.10.1
 _ZN7Kasten222ViewListMenuController16staticMetaObjectE@Base 4:4.10.1
 _ZN7Kasten222ViewListMenuController17onActionTriggeredEP7QAction@Base 4:4.10.1
 _ZN7Kasten222ViewListMenuControllerC1EPNS_11ViewManagerEPNS_20AbstractGroupedViewsEP13KXMLGUIClient@Base 4:4.10.1
 _ZN7Kasten222ViewListMenuControllerC2EPNS_11ViewManagerEPNS_20AbstractGroupedViewsEP13KXMLGUIClient@Base 4:4.10.1
 _ZN7Kasten222ViewListMenuControllerD0Ev@Base 4:4.10.1
 _ZN7Kasten222ViewListMenuControllerD1Ev@Base 4:4.10.1
 _ZN7Kasten222ViewListMenuControllerD2Ev@Base 4:4.10.1
 _ZN7Kasten223ViewAreaSplitController11qt_metacallEN11QMetaObject4CallEiPPv@Base 4:4.10.1
 _ZN7Kasten223ViewAreaSplitController11qt_metacastEPKc@Base 4:4.10.1
 _ZN7Kasten223ViewAreaSplitController13splitViewAreaEN2Qt11OrientationE@Base 4:4.10.1
 _ZN7Kasten223ViewAreaSplitController14onViewsChangedEv@Base 4:4.10.1
 _ZN7Kasten223ViewAreaSplitController14setTargetModelEPNS_13AbstractModelE@Base 4:4.10.1
 _ZN7Kasten223ViewAreaSplitController15splitVerticallyEv@Base 4:4.10.1
 _ZN7Kasten223ViewAreaSplitController16staticMetaObjectE@Base 4:4.10.1
 _ZN7Kasten223ViewAreaSplitController17splitHorizontallyEv@Base 4:4.10.1
 _ZN7Kasten223ViewAreaSplitController18onViewAreasChangedEv@Base 4:4.10.1
 _ZN7Kasten223ViewAreaSplitController22onViewAreaFocusChangedEPNS_16AbstractViewAreaE@Base 4:4.10.1
 _ZN7Kasten223ViewAreaSplitController5closeEv@Base 4:4.10.1
 _ZN7Kasten223ViewAreaSplitControllerC1EPNS_11ViewManagerEPNS_20AbstractGroupedViewsEP13KXMLGUIClient@Base 4:4.10.1
 _ZN7Kasten223ViewAreaSplitControllerC2EPNS_11ViewManagerEPNS_20AbstractGroupedViewsEP13KXMLGUIClient@Base 4:4.10.1
 _ZN7Kasten223ViewAreaSplitControllerD0Ev@Base 4:4.10.1
 _ZN7Kasten223ViewAreaSplitControllerD1Ev@Base 4:4.10.1
 _ZN7Kasten223ViewAreaSplitControllerD2Ev@Base 4:4.10.1
 _ZN7Kasten225FileSystemBrowserToolViewC1EPNS_21FileSystemBrowserToolE@Base 4:4.10.1
 _ZN7Kasten225FileSystemBrowserToolViewC2EPNS_21FileSystemBrowserToolE@Base 4:4.10.1
 _ZN7Kasten225FileSystemBrowserToolViewD0Ev@Base 4:4.10.1
 _ZN7Kasten225FileSystemBrowserToolViewD1Ev@Base 4:4.10.1
 _ZN7Kasten225FileSystemBrowserToolViewD2Ev@Base 4:4.10.1
 _ZNK7Kasten212TerminalTool10currentUrlEv@Base 4:4.10.1
 _ZNK7Kasten212TerminalTool10metaObjectEv@Base 4:4.10.1
 _ZNK7Kasten212TerminalTool5titleEv@Base 4:4.10.1
 _ZNK7Kasten213AbstractModel26findBaseModelWithInterfaceIPNS_2If11VersionableEEEPS0_v@Base 4:4.10.1
 _ZNK7Kasten213DocumentsTool10metaObjectEv@Base 4:4.10.1
 _ZNK7Kasten213DocumentsTool5titleEv@Base 4:4.10.1
 _ZNK7Kasten213DocumentsTool9documentsEv@Base 4:4.10.1
 _ZNK7Kasten214QuitController10metaObjectEv@Base 4:4.10.1
 _ZNK7Kasten214ZoomController10metaObjectEv@Base 4:4.10.1
 _ZNK7Kasten215CloseController10metaObjectEv@Base 4:4.10.1
 _ZNK7Kasten215VersionViewTool10metaObjectEv@Base 4:4.10.1
 _ZNK7Kasten215VersionViewTool5titleEv@Base 4:4.10.1
 _ZNK7Kasten216CopyAsController10metaObjectEv@Base 4:4.10.1
 _ZNK7Kasten216ExportController10metaObjectEv@Base 4:4.10.1
 _ZNK7Kasten216InsertController10metaObjectEv@Base 4:4.10.1
 _ZNK7Kasten216LoaderController10metaObjectEv@Base 4:4.10.1
 _ZNK7Kasten216SelectController10metaObjectEv@Base 4:4.10.1
 _ZNK7Kasten216TerminalToolView4toolEv@Base 4:4.10.1
 _ZNK7Kasten216TerminalToolView5titleEv@Base 4:4.10.1
 _ZNK7Kasten216TerminalToolView6widgetEv@Base 4:4.10.1
 _ZNK7Kasten217CreatorController10metaObjectEv@Base 4:4.10.1
 _ZNK7Kasten217DocumentsToolView4toolEv@Base 4:4.10.1
 _ZNK7Kasten217DocumentsToolView5titleEv@Base 4:4.10.1
 _ZNK7Kasten217DocumentsToolView6widgetEv@Base 4:4.10.1
 _ZNK7Kasten217VersionController10metaObjectEv@Base 4:4.10.1
 _ZNK7Kasten217ZoomBarController10metaObjectEv@Base 4:4.10.1
 _ZNK7Kasten218ReadOnlyController10metaObjectEv@Base 4:4.10.1
 _ZNK7Kasten219ClipboardController10metaObjectEv@Base 4:4.10.1
 _ZNK7Kasten219SetRemoteController10metaObjectEv@Base 4:4.10.1
 _ZNK7Kasten219VersionViewToolView4toolEv@Base 4:4.10.1
 _ZNK7Kasten219VersionViewToolView5titleEv@Base 4:4.10.1
 _ZNK7Kasten219VersionViewToolView6widgetEv@Base 4:4.10.1
 _ZNK7Kasten220FullScreenController10metaObjectEv@Base 4:4.10.1
 _ZNK7Kasten220SwitchViewController10metaObjectEv@Base 4:4.10.1
 _ZNK7Kasten221FileSystemBrowserTool10currentUrlEv@Base 4:4.10.1
 _ZNK7Kasten221FileSystemBrowserTool10metaObjectEv@Base 4:4.10.1
 _ZNK7Kasten221FileSystemBrowserTool13hasCurrentUrlEv@Base 4:4.10.1
 _ZNK7Kasten221FileSystemBrowserTool5titleEv@Base 4:4.10.1
 _ZNK7Kasten221ModifiedBarController10metaObjectEv@Base 4:4.10.1
 _ZNK7Kasten221ReadOnlyBarController10metaObjectEv@Base 4:4.10.1
 _ZNK7Kasten221SynchronizeController10metaObjectEv@Base 4:4.10.1
 _ZNK7Kasten222ToolListMenuController10metaObjectEv@Base 4:4.10.1
 _ZNK7Kasten222ViewListMenuController10metaObjectEv@Base 4:4.10.1
 _ZNK7Kasten223ViewAreaSplitController10metaObjectEv@Base 4:4.10.1
 _ZNK7Kasten225FileSystemBrowserToolView4toolEv@Base 4:4.10.1
 _ZNK7Kasten225FileSystemBrowserToolView5titleEv@Base 4:4.10.1
 _ZNK7Kasten225FileSystemBrowserToolView6widgetEv@Base 4:4.10.1
 _ZTIN7Kasten212TerminalToolE@Base 4:4.10.1
 _ZTIN7Kasten213DocumentsToolE@Base 4:4.10.1
 _ZTIN7Kasten214QuitControllerE@Base 4:4.10.1
 _ZTIN7Kasten214ZoomControllerE@Base 4:4.10.1
 _ZTIN7Kasten215CloseControllerE@Base 4:4.10.1
 _ZTIN7Kasten215VersionViewToolE@Base 4:4.10.1
 _ZTIN7Kasten216CopyAsControllerE@Base 4:4.10.1
 _ZTIN7Kasten216ExportControllerE@Base 4:4.10.1
 _ZTIN7Kasten216InsertControllerE@Base 4:4.10.1
 _ZTIN7Kasten216LoaderControllerE@Base 4:4.10.1
 _ZTIN7Kasten216SelectControllerE@Base 4:4.10.1
 _ZTIN7Kasten216TerminalToolViewE@Base 4:4.10.1
 _ZTIN7Kasten217CreatorControllerE@Base 4:4.10.1
 _ZTIN7Kasten217DocumentsToolViewE@Base 4:4.10.1
 _ZTIN7Kasten217VersionControllerE@Base 4:4.10.1
 _ZTIN7Kasten217ZoomBarControllerE@Base 4:4.10.1
 _ZTIN7Kasten218ReadOnlyControllerE@Base 4:4.10.1
 _ZTIN7Kasten219ClipboardControllerE@Base 4:4.10.1
 _ZTIN7Kasten219SetRemoteControllerE@Base 4:4.10.1
 _ZTIN7Kasten219VersionViewToolViewE@Base 4:4.10.1
 _ZTIN7Kasten220FullScreenControllerE@Base 4:4.10.1
 _ZTIN7Kasten220SwitchViewControllerE@Base 4:4.10.1
 _ZTIN7Kasten221FileSystemBrowserToolE@Base 4:4.10.1
 _ZTIN7Kasten221ModifiedBarControllerE@Base 4:4.10.1
 _ZTIN7Kasten221ReadOnlyBarControllerE@Base 4:4.10.1
 _ZTIN7Kasten221SynchronizeControllerE@Base 4:4.10.1
 _ZTIN7Kasten222ToolListMenuControllerE@Base 4:4.10.1
 _ZTIN7Kasten222ViewListMenuControllerE@Base 4:4.10.1
 _ZTIN7Kasten223ViewAreaSplitControllerE@Base 4:4.10.1
 _ZTIN7Kasten225FileSystemBrowserToolViewE@Base 4:4.10.1
 _ZTSN7Kasten212TerminalToolE@Base 4:4.10.1
 _ZTSN7Kasten213DocumentsToolE@Base 4:4.10.1
 _ZTSN7Kasten214QuitControllerE@Base 4:4.10.1
 _ZTSN7Kasten214ZoomControllerE@Base 4:4.10.1
 _ZTSN7Kasten215CloseControllerE@Base 4:4.10.1
 _ZTSN7Kasten215VersionViewToolE@Base 4:4.10.1
 _ZTSN7Kasten216CopyAsControllerE@Base 4:4.10.1
 _ZTSN7Kasten216ExportControllerE@Base 4:4.10.1
 _ZTSN7Kasten216InsertControllerE@Base 4:4.10.1
 _ZTSN7Kasten216LoaderControllerE@Base 4:4.10.1
 _ZTSN7Kasten216SelectControllerE@Base 4:4.10.1
 _ZTSN7Kasten216TerminalToolViewE@Base 4:4.10.1
 _ZTSN7Kasten217CreatorControllerE@Base 4:4.10.1
 _ZTSN7Kasten217DocumentsToolViewE@Base 4:4.10.1
 _ZTSN7Kasten217VersionControllerE@Base 4:4.10.1
 _ZTSN7Kasten217ZoomBarControllerE@Base 4:4.10.1
 _ZTSN7Kasten218ReadOnlyControllerE@Base 4:4.10.1
 _ZTSN7Kasten219ClipboardControllerE@Base 4:4.10.1
 _ZTSN7Kasten219SetRemoteControllerE@Base 4:4.10.1
 _ZTSN7Kasten219VersionViewToolViewE@Base 4:4.10.1
 _ZTSN7Kasten220FullScreenControllerE@Base 4:4.10.1
 _ZTSN7Kasten220SwitchViewControllerE@Base 4:4.10.1
 _ZTSN7Kasten221FileSystemBrowserToolE@Base 4:4.10.1
 _ZTSN7Kasten221ModifiedBarControllerE@Base 4:4.10.1
 _ZTSN7Kasten221ReadOnlyBarControllerE@Base 4:4.10.1
 _ZTSN7Kasten221SynchronizeControllerE@Base 4:4.10.1
 _ZTSN7Kasten222ToolListMenuControllerE@Base 4:4.10.1
 _ZTSN7Kasten222ViewListMenuControllerE@Base 4:4.10.1
 _ZTSN7Kasten223ViewAreaSplitControllerE@Base 4:4.10.1
 _ZTSN7Kasten225FileSystemBrowserToolViewE@Base 4:4.10.1
 _ZTVN7Kasten212TerminalToolE@Base 4:4.10.1
 _ZTVN7Kasten213DocumentsToolE@Base 4:4.10.1
 _ZTVN7Kasten214QuitControllerE@Base 4:4.10.1
 _ZTVN7Kasten214ZoomControllerE@Base 4:4.10.1
 _ZTVN7Kasten215CloseControllerE@Base 4:4.10.1
 _ZTVN7Kasten215VersionViewToolE@Base 4:4.10.1
 _ZTVN7Kasten216CopyAsControllerE@Base 4:4.10.1
 _ZTVN7Kasten216ExportControllerE@Base 4:4.10.1
 _ZTVN7Kasten216InsertControllerE@Base 4:4.10.1
 _ZTVN7Kasten216LoaderControllerE@Base 4:4.10.1
 _ZTVN7Kasten216SelectControllerE@Base 4:4.10.1
 _ZTVN7Kasten216TerminalToolViewE@Base 4:4.10.1
 _ZTVN7Kasten217CreatorControllerE@Base 4:4.10.1
 _ZTVN7Kasten217DocumentsToolViewE@Base 4:4.10.1
 _ZTVN7Kasten217VersionControllerE@Base 4:4.10.1
 _ZTVN7Kasten217ZoomBarControllerE@Base 4:4.10.1
 _ZTVN7Kasten218ReadOnlyControllerE@Base 4:4.10.1
 _ZTVN7Kasten219ClipboardControllerE@Base 4:4.10.1
 _ZTVN7Kasten219SetRemoteControllerE@Base 4:4.10.1
 _ZTVN7Kasten219VersionViewToolViewE@Base 4:4.10.1
 _ZTVN7Kasten220FullScreenControllerE@Base 4:4.10.1
 _ZTVN7Kasten220SwitchViewControllerE@Base 4:4.10.1
 _ZTVN7Kasten221FileSystemBrowserToolE@Base 4:4.10.1
 _ZTVN7Kasten221ModifiedBarControllerE@Base 4:4.10.1
 _ZTVN7Kasten221ReadOnlyBarControllerE@Base 4:4.10.1
 _ZTVN7Kasten221SynchronizeControllerE@Base 4:4.10.1
 _ZTVN7Kasten222ToolListMenuControllerE@Base 4:4.10.1
 _ZTVN7Kasten222ViewListMenuControllerE@Base 4:4.10.1
 _ZTVN7Kasten223ViewAreaSplitControllerE@Base 4:4.10.1
 _ZTVN7Kasten225FileSystemBrowserToolViewE@Base 4:4.10.1
