# SymbolsHelper-Confirmed: 4:4.8.4 amd64
libkasten1okteta1gui.so.1 libkasten1okteta1gui1 #MINVER#
 ABI_1_0@ABI_1_0 4:4.8.4
 _ZN6Okteta15AddressComboBox11qt_metacallEN11QMetaObject4CallEiPPv@ABI_1_0 4:4.8.4
 _ZN6Okteta15AddressComboBox11qt_metacastEPKc@ABI_1_0 4:4.8.4
 _ZN6Okteta15AddressComboBox13formatChangedEi@ABI_1_0 4:4.8.4
 _ZN6Okteta15AddressComboBox14addressChangedEi@ABI_1_0 4:4.8.4
 _ZN6Okteta15AddressComboBox16staticMetaObjectE@ABI_1_0 4:4.8.4
 _ZN6Okteta15AddressComboBox18addressTypeChangedEi@ABI_1_0 4:4.8.4
 _ZN6Okteta15AddressComboBox22rememberCurrentAddressEv@ABI_1_0 4:4.8.4
 _ZN6Okteta15AddressComboBoxC1EP7QWidget@ABI_1_0 4:4.8.4
 _ZN6Okteta15AddressComboBoxC2EP7QWidget@ABI_1_0 4:4.8.4
 _ZN6Okteta15AddressComboBoxD0Ev@ABI_1_0 4:4.8.4
 _ZN6Okteta15AddressComboBoxD1Ev@ABI_1_0 4:4.8.4
 _ZN6Okteta15AddressComboBoxD2Ev@ABI_1_0 4:4.8.4
 _ZN6Okteta17ByteArrayComboBox11qt_metacallEN11QMetaObject4CallEiPPv@ABI_1_0 4:4.8.4
 _ZN6Okteta17ByteArrayComboBox11qt_metacastEPKc@ABI_1_0 4:4.8.4
 _ZN6Okteta17ByteArrayComboBox12setByteArrayERK10QByteArray@ABI_1_0 4:4.8.4
 _ZN6Okteta17ByteArrayComboBox12setCharCodecERK7QString@ABI_1_0 4:4.8.4
 _ZN6Okteta17ByteArrayComboBox12setMaxLengthEi@ABI_1_0 4:4.8.4
 _ZN6Okteta17ByteArrayComboBox12setMinLengthEi@ABI_1_0 4:4.8.4
 _ZN6Okteta17ByteArrayComboBox13formatChangedEi@ABI_1_0 4:4.8.4
 _ZN6Okteta17ByteArrayComboBox16byteArrayChangedERK10QByteArray@ABI_1_0 4:4.8.4
 _ZN6Okteta17ByteArrayComboBox16staticMetaObjectE@ABI_1_0 4:4.8.4
 _ZN6Okteta17ByteArrayComboBox24rememberCurrentByteArrayEv@ABI_1_0 4:4.8.4
 _ZN6Okteta17ByteArrayComboBoxC1EP7QWidget@ABI_1_0 4:4.8.4
 _ZN6Okteta17ByteArrayComboBoxC2EP7QWidget@ABI_1_0 4:4.8.4
 _ZN6Okteta17ByteArrayComboBoxD0Ev@ABI_1_0 4:4.8.4
 _ZN6Okteta17ByteArrayComboBoxD1Ev@ABI_1_0 4:4.8.4
 _ZN6Okteta17ByteArrayComboBoxD2Ev@ABI_1_0 4:4.8.4
 _ZN7Kasten113ByteArrayView10insertDataEPK9QMimeData@ABI_1_0 4:4.8.4
 _ZN7Kasten113ByteArrayView10setMarkingERKN3KDE11NumberRangeIiiEEb@ABI_1_0 4:4.8.4
 _ZN7Kasten113ByteArrayView11qt_metacallEN11QMetaObject4CallEiPPv@ABI_1_0 4:4.8.4
 _ZN7Kasten113ByteArrayView11qt_metacastEPKc@ABI_1_0 4:4.8.4
 _ZN7Kasten113ByteArrayView11setReadOnlyEb@ABI_1_0 4:4.8.4
 _ZN7Kasten113ByteArrayView12setSelectionEii@ABI_1_0 4:4.8.4
 _ZN7Kasten113ByteArrayView12setViewModusEi@ABI_1_0 4:4.8.4
 _ZN7Kasten113ByteArrayView12setZoomLevelEd@ABI_1_0 4:4.8.4
 _ZN7Kasten113ByteArrayView13selectAllDataEb@ABI_1_0 4:4.8.4
 _ZN7Kasten113ByteArrayView13setCharCodingERK7QString@ABI_1_0 4:4.8.4
 _ZN7Kasten113ByteArrayView14setLayoutStyleEi@ABI_1_0 4:4.8.4
 _ZN7Kasten113ByteArrayView14setValueCodingEi@ABI_1_0 4:4.8.4
 _ZN7Kasten113ByteArrayView15cutSelectedDataEv@ABI_1_0 4:4.8.4
 _ZN7Kasten113ByteArrayView16charCodecChangedERK7QString@ABI_1_0 4:4.8.4
 _ZN7Kasten113ByteArrayView16setOverwriteModeEb@ABI_1_0 4:4.8.4
 _ZN7Kasten113ByteArrayView16staticMetaObjectE@ABI_1_0 4:4.8.4
 _ZN7Kasten113ByteArrayView16zoomLevelChangedEd@ABI_1_0 4:4.8.4
 _ZN7Kasten113ByteArrayView17setCursorPositionEi@ABI_1_0 4:4.8.4
 _ZN7Kasten113ByteArrayView18deleteSelectedDataEv@ABI_1_0 4:4.8.4
 _ZN7Kasten113ByteArrayView18onSelectionChangedERKN3KDE11NumberRangeIiiEE@ABI_1_0 4:4.8.4
 _ZN7Kasten113ByteArrayView18toggleOffsetColumnEb@ABI_1_0 4:4.8.4
 _ZN7Kasten113ByteArrayView18valueCodingChangedEi@ABI_1_0 4:4.8.4
 _ZN7Kasten113ByteArrayView19selectedDataChangedEPKNS_22AbstractModelSelectionE@ABI_1_0 4:4.8.4
 _ZN7Kasten113ByteArrayView19setNoOfBytesPerLineEi@ABI_1_0 4:4.8.4
 _ZN7Kasten113ByteArrayView19setNoOfGroupedBytesEi@ABI_1_0 4:4.8.4
 _ZN7Kasten113ByteArrayView19setShowsNonprintingEb@ABI_1_0 4:4.8.4
 _ZN7Kasten113ByteArrayView20overwriteModeChangedEb@ABI_1_0 4:4.8.4
 _ZN7Kasten113ByteArrayView21cursorPositionChangedEi@ABI_1_0 4:4.8.4
 _ZN7Kasten113ByteArrayView22hasSelectedDataChangedEb@ABI_1_0 4:4.8.4
 _ZN7Kasten113ByteArrayView23setFontByGlobalSettingsEv@ABI_1_0 4:4.8.4
 _ZN7Kasten113ByteArrayView26setSelectionCursorPositionEi@ABI_1_0 4:4.8.4
 _ZN7Kasten113ByteArrayView26setVisibleByteArrayCodingsEi@ABI_1_0 4:4.8.4
 _ZN7Kasten113ByteArrayView4initEv@ABI_1_0 4:4.8.4
 _ZN7Kasten113ByteArrayView6insertERK10QByteArray@ABI_1_0 4:4.8.4
 _ZN7Kasten113ByteArrayView8setFocusEv@ABI_1_0 4:4.8.4
 _ZN7Kasten113ByteArrayViewC1EPNS_17ByteArrayDocumentE@ABI_1_0 4:4.8.4
 _ZN7Kasten113ByteArrayViewC1EPS0_6QFlagsIN2Qt13AlignmentFlagEE@ABI_1_0 4:4.8.4
 _ZN7Kasten113ByteArrayViewC2EPNS_17ByteArrayDocumentE@ABI_1_0 4:4.8.4
 _ZN7Kasten113ByteArrayViewC2EPS0_6QFlagsIN2Qt13AlignmentFlagEE@ABI_1_0 4:4.8.4
 _ZN7Kasten113ByteArrayViewD0Ev@ABI_1_0 4:4.8.4
 _ZN7Kasten113ByteArrayViewD1Ev@ABI_1_0 4:4.8.4
 _ZN7Kasten113ByteArrayViewD2Ev@ABI_1_0 4:4.8.4
 _ZN7Kasten119AbstractViewFactory16createCopyOfViewEPNS_12AbstractViewE6QFlagsIN2Qt13AlignmentFlagEE@ABI_1_0 4:4.8.4
 _ZN7Kasten119AbstractViewFactoryD0Ev@ABI_1_0 4:4.8.4
 _ZN7Kasten119AbstractViewFactoryD1Ev@ABI_1_0 4:4.8.4
 _ZN7Kasten119AbstractViewFactoryD2Ev@ABI_1_0 4:4.8.4
 _ZN7Kasten120ByteArrayViewFactory13createViewForEPNS_16AbstractDocumentE@ABI_1_0 4:4.8.4
 _ZN7Kasten120ByteArrayViewFactory16createCopyOfViewEPNS_12AbstractViewE6QFlagsIN2Qt13AlignmentFlagEE@ABI_1_0 4:4.8.4
 _ZN7Kasten120ByteArrayViewFactoryD0Ev@ABI_1_0 4:4.8.4
 _ZN7Kasten120ByteArrayViewFactoryD1Ev@ABI_1_0 4:4.8.4
 _ZN7Kasten120ByteArrayViewFactoryD2Ev@ABI_1_0 4:4.8.4
 _ZN7Kasten129ByteArrayDataGeneratorFactory20createDataGeneratorsEv@ABI_1_0 4:4.8.4
 _ZN7Kasten129ByteArrayStreamEncoderFactory20createStreamEncodersEv@ABI_1_0 4:4.8.4
 _ZN7Kasten130AbstractByteArrayStreamEncoder11previewDataEPNS_13AbstractModelEPKNS_22AbstractModelSelectionE@ABI_1_0 4:4.8.4
 _ZN7Kasten130AbstractByteArrayStreamEncoder11qt_metacallEN11QMetaObject4CallEiPPv@ABI_1_0 4:4.8.4
 _ZN7Kasten130AbstractByteArrayStreamEncoder11qt_metacastEPKc@ABI_1_0 4:4.8.4
 _ZN7Kasten130AbstractByteArrayStreamEncoder14encodeToStreamEP9QIODevicePNS_13AbstractModelEPKNS_22AbstractModelSelectionE@ABI_1_0 4:4.8.4
 _ZN7Kasten130AbstractByteArrayStreamEncoder15settingsChangedEv@ABI_1_0 4:4.8.4
 _ZN7Kasten130AbstractByteArrayStreamEncoder16staticMetaObjectE@ABI_1_0 4:4.8.4
 _ZN7Kasten130AbstractByteArrayStreamEncoderC1ERK7QStringS3_@ABI_1_0 4:4.8.4
 _ZN7Kasten130AbstractByteArrayStreamEncoderC2ERK7QStringS3_@ABI_1_0 4:4.8.4
 _ZN7Kasten130AbstractByteArrayStreamEncoderD0Ev@ABI_1_0 4:4.8.4
 _ZN7Kasten130AbstractByteArrayStreamEncoderD1Ev@ABI_1_0 4:4.8.4
 _ZN7Kasten130AbstractByteArrayStreamEncoderD2Ev@ABI_1_0 4:4.8.4
 _ZN7Kasten145AbstractModelDataGeneratorConfigEditorFactoryD0Ev@ABI_1_0 4:4.8.4
 _ZN7Kasten145AbstractModelDataGeneratorConfigEditorFactoryD1Ev@ABI_1_0 4:4.8.4
 _ZN7Kasten145AbstractModelDataGeneratorConfigEditorFactoryD2Ev@ABI_1_0 4:4.8.4
 _ZN7Kasten145AbstractModelStreamEncoderConfigEditorFactoryD0Ev@ABI_1_0 4:4.8.4
 _ZN7Kasten145AbstractModelStreamEncoderConfigEditorFactoryD1Ev@ABI_1_0 4:4.8.4
 _ZN7Kasten145AbstractModelStreamEncoderConfigEditorFactoryD2Ev@ABI_1_0 4:4.8.4
 _ZN7Kasten148ByteArrayDataGeneratorConfigEditorFactoryFactory14createFactorysEv@ABI_1_0 4:4.8.4
 _ZN7Kasten148ByteArrayStreamEncoderConfigEditorFactoryFactory14createFactorysEv@ABI_1_0 4:4.8.4
 _ZNK6Okteta15AddressComboBox10metaObjectEv@ABI_1_0 4:4.8.4
 _ZNK6Okteta15AddressComboBox11addressTypeEv@ABI_1_0 4:4.8.4
 _ZNK6Okteta15AddressComboBox6formatEv@ABI_1_0 4:4.8.4
 _ZNK6Okteta15AddressComboBox7addressEv@ABI_1_0 4:4.8.4
 _ZNK6Okteta17ByteArrayComboBox10metaObjectEv@ABI_1_0 4:4.8.4
 _ZNK6Okteta17ByteArrayComboBox6formatEv@ABI_1_0 4:4.8.4
 _ZNK6Okteta17ByteArrayComboBox9byteArrayEv@ABI_1_0 4:4.8.4
 _ZNK6Okteta17ByteArrayComboBox9maxLengthEv@ABI_1_0 4:4.8.4
 _ZNK6Okteta17ByteArrayComboBox9minLengthEv@ABI_1_0 4:4.8.4
 _ZNK7Kasten113ByteArrayView10cursorRectEv@ABI_1_0 4:4.8.4
 _ZNK7Kasten113ByteArrayView10isReadOnlyEv@ABI_1_0 4:4.8.4
 _ZNK7Kasten113ByteArrayView10metaObjectEv@ABI_1_0 4:4.8.4
 _ZNK7Kasten113ByteArrayView11canReadDataEPK9QMimeData@ABI_1_0 4:4.8.4
 _ZNK7Kasten113ByteArrayView11layoutStyleEv@ABI_1_0 4:4.8.4
 _ZNK7Kasten113ByteArrayView11startOffsetEv@ABI_1_0 4:4.8.4
 _ZNK7Kasten113ByteArrayView11valueCodingEv@ABI_1_0 4:4.8.4
 _ZNK7Kasten113ByteArrayView12isModifiableEv@ABI_1_0 4:4.8.4
 _ZNK7Kasten113ByteArrayView13undefinedCharEv@ABI_1_0 4:4.8.4
 _ZNK7Kasten113ByteArrayView14binaryGapWidthEv@ABI_1_0 4:4.8.4
 _ZNK7Kasten113ByteArrayView14charCodingNameEv@ABI_1_0 4:4.8.4
 _ZNK7Kasten113ByteArrayView14cursorPositionEv@ABI_1_0 4:4.8.4
 _ZNK7Kasten113ByteArrayView14modelSelectionEv@ABI_1_0 4:4.8.4
 _ZNK7Kasten113ByteArrayView14substituteCharEv@ABI_1_0 4:4.8.4
 _ZNK7Kasten113ByteArrayView15firstLineOffsetEv@ABI_1_0 4:4.8.4
 _ZNK7Kasten113ByteArrayView15hasSelectedDataEv@ABI_1_0 4:4.8.4
 _ZNK7Kasten113ByteArrayView15isOverwriteModeEv@ABI_1_0 4:4.8.4
 _ZNK7Kasten113ByteArrayView15isOverwriteOnlyEv@ABI_1_0 4:4.8.4
 _ZNK7Kasten113ByteArrayView16byteSpacingWidthEv@ABI_1_0 4:4.8.4
 _ZNK7Kasten113ByteArrayView16copySelectedDataEv@ABI_1_0 4:4.8.4
 _ZNK7Kasten113ByteArrayView16noOfBytesPerLineEv@ABI_1_0 4:4.8.4
 _ZNK7Kasten113ByteArrayView16noOfGroupedBytesEv@ABI_1_0 4:4.8.4
 _ZNK7Kasten113ByteArrayView16showsNonprintingEv@ABI_1_0 4:4.8.4
 _ZNK7Kasten113ByteArrayView17groupSpacingWidthEv@ABI_1_0 4:4.8.4
 _ZNK7Kasten113ByteArrayView19offsetColumnVisibleEv@ABI_1_0 4:4.8.4
 _ZNK7Kasten113ByteArrayView23visibleByteArrayCodingsEv@ABI_1_0 4:4.8.4
 _ZNK7Kasten113ByteArrayView5titleEv@ABI_1_0 4:4.8.4
 _ZNK7Kasten113ByteArrayView6widgetEv@ABI_1_0 4:4.8.4
 _ZNK7Kasten113ByteArrayView8hasFocusEv@ABI_1_0 4:4.8.4
 _ZNK7Kasten113ByteArrayView9selectionEv@ABI_1_0 4:4.8.4
 _ZNK7Kasten113ByteArrayView9viewModusEv@ABI_1_0 4:4.8.4
 _ZNK7Kasten113ByteArrayView9zoomLevelEv@ABI_1_0 4:4.8.4
 _ZNK7Kasten130AbstractByteArrayStreamEncoder10metaObjectEv@ABI_1_0 4:4.8.4
 _ZNK7Kasten130AbstractByteArrayStreamEncoder13modelTypeNameEPNS_13AbstractModelEPKNS_22AbstractModelSelectionE@ABI_1_0 4:4.8.4
 _ZTIN6Okteta15AddressComboBoxE@ABI_1_0 4:4.8.4
 _ZTIN6Okteta17ByteArrayComboBoxE@ABI_1_0 4:4.8.4
 _ZTIN7Kasten113ByteArrayViewE@ABI_1_0 4:4.8.4
 _ZTIN7Kasten119AbstractViewFactoryE@ABI_1_0 4:4.8.4
 _ZTIN7Kasten120ByteArrayViewFactoryE@ABI_1_0 4:4.8.4
 _ZTIN7Kasten130AbstractByteArrayStreamEncoderE@ABI_1_0 4:4.8.4
 _ZTIN7Kasten145AbstractModelDataGeneratorConfigEditorFactoryE@ABI_1_0 4:4.8.4
 _ZTIN7Kasten145AbstractModelStreamEncoderConfigEditorFactoryE@ABI_1_0 4:4.8.4
 _ZTSN6Okteta15AddressComboBoxE@ABI_1_0 4:4.8.4
 _ZTSN6Okteta17ByteArrayComboBoxE@ABI_1_0 4:4.8.4
 _ZTSN7Kasten113ByteArrayViewE@ABI_1_0 4:4.8.4
 _ZTSN7Kasten119AbstractViewFactoryE@ABI_1_0 4:4.8.4
 _ZTSN7Kasten120ByteArrayViewFactoryE@ABI_1_0 4:4.8.4
 _ZTSN7Kasten130AbstractByteArrayStreamEncoderE@ABI_1_0 4:4.8.4
 _ZTSN7Kasten145AbstractModelDataGeneratorConfigEditorFactoryE@ABI_1_0 4:4.8.4
 _ZTSN7Kasten145AbstractModelStreamEncoderConfigEditorFactoryE@ABI_1_0 4:4.8.4
 _ZTVN6Okteta15AddressComboBoxE@ABI_1_0 4:4.8.4
 _ZTVN6Okteta17ByteArrayComboBoxE@ABI_1_0 4:4.8.4
 _ZTVN7Kasten113ByteArrayViewE@ABI_1_0 4:4.8.4
 _ZTVN7Kasten119AbstractViewFactoryE@ABI_1_0 4:4.8.4
 _ZTVN7Kasten120ByteArrayViewFactoryE@ABI_1_0 4:4.8.4
 _ZTVN7Kasten130AbstractByteArrayStreamEncoderE@ABI_1_0 4:4.8.4
 _ZTVN7Kasten145AbstractModelDataGeneratorConfigEditorFactoryE@ABI_1_0 4:4.8.4
 _ZTVN7Kasten145AbstractModelStreamEncoderConfigEditorFactoryE@ABI_1_0 4:4.8.4
 (c++)"non-virtual thunk to Kasten1::ByteArrayView::canReadData(QMimeData const*) const@ABI_1_0" 4:4.8.4
 (c++)"non-virtual thunk to Kasten1::ByteArrayView::copySelectedData() const@ABI_1_0" 4:4.8.4
 (c++)"non-virtual thunk to Kasten1::ByteArrayView::cutSelectedData()@ABI_1_0" 4:4.8.4
 (c++)"non-virtual thunk to Kasten1::ByteArrayView::deleteSelectedData()@ABI_1_0" 4:4.8.4
 (c++)"non-virtual thunk to Kasten1::ByteArrayView::hasSelectedData() const@ABI_1_0" 4:4.8.4
 (c++)"non-virtual thunk to Kasten1::ByteArrayView::hasSelectedDataChanged(bool)@ABI_1_0" 4:4.8.4
 (c++)"non-virtual thunk to Kasten1::ByteArrayView::insertData(QMimeData const*)@ABI_1_0" 4:4.8.4
 (c++)"non-virtual thunk to Kasten1::ByteArrayView::modelSelection() const@ABI_1_0" 4:4.8.4
 (c++)"non-virtual thunk to Kasten1::ByteArrayView::selectAllData(bool)@ABI_1_0" 4:4.8.4
 (c++)"non-virtual thunk to Kasten1::ByteArrayView::selectedDataChanged(Kasten1::AbstractModelSelection const*)@ABI_1_0" 4:4.8.4
 (c++)"non-virtual thunk to Kasten1::ByteArrayView::setZoomLevel(double)@ABI_1_0" 4:4.8.4
 (c++)"non-virtual thunk to Kasten1::ByteArrayView::zoomLevel() const@ABI_1_0" 4:4.8.4
 (c++)"non-virtual thunk to Kasten1::ByteArrayView::zoomLevelChanged(double)@ABI_1_0" 4:4.8.4
 (c++)"non-virtual thunk to Kasten1::ByteArrayView::~ByteArrayView()@ABI_1_0" 4:4.8.4
 (c++)"non-virtual thunk to Okteta::AddressComboBox::~AddressComboBox()@ABI_1_0" 4:4.8.4
 (c++)"non-virtual thunk to Okteta::ByteArrayComboBox::~ByteArrayComboBox()@ABI_1_0" 4:4.8.4
