# SymbolsHelper-Confirmed: 4:4.8.4 amd64
libkasten1gui.so.1 libkasten1gui1 #MINVER#
 ABI_1_0@ABI_1_0 4:4.8.4
 _ZN7Kasten111ShellWindow11qt_metacallEN11QMetaObject4CallEiPPv@ABI_1_0 4:4.8.4
 _ZN7Kasten111ShellWindow11qt_metacastEPKc@ABI_1_0 4:4.8.4
 _ZN7Kasten111ShellWindow12showDocumentEPNS_16AbstractDocumentE@ABI_1_0 4:4.8.4
 _ZN7Kasten111ShellWindow16staticMetaObjectE@ABI_1_0 4:4.8.4
 _ZN7Kasten111ShellWindow17updateControllersEPNS_12AbstractViewE@ABI_1_0 4:4.8.4
 _ZN7Kasten111ShellWindow19addXmlGuiControllerEPNS_24AbstractXmlGuiControllerE@ABI_1_0 4:4.8.4
 _ZN7Kasten111ShellWindow7addToolEPNS_16AbstractToolViewE@ABI_1_0 4:4.8.4
 _ZN7Kasten111ShellWindowC1EPNS_11ViewManagerE@ABI_1_0 4:4.8.4
 _ZN7Kasten111ShellWindowC2EPNS_11ViewManagerE@ABI_1_0 4:4.8.4
 _ZN7Kasten111ShellWindowD0Ev@ABI_1_0 4:4.8.4
 _ZN7Kasten111ShellWindowD1Ev@ABI_1_0 4:4.8.4
 _ZN7Kasten111ShellWindowD2Ev@ABI_1_0 4:4.8.4
 _ZN7Kasten111TabbedViews11dataDroppedEPK9QMimeData@ABI_1_0 4:4.8.4
 _ZN7Kasten111TabbedViews11dataOfferedEPK9QMimeDataRb@ABI_1_0 4:4.8.4
 _ZN7Kasten111TabbedViews11qt_metacallEN11QMetaObject4CallEiPPv@ABI_1_0 4:4.8.4
 _ZN7Kasten111TabbedViews11qt_metacastEPKc@ABI_1_0 4:4.8.4
 _ZN7Kasten111TabbedViews11removeViewsERK5QListIPNS_12AbstractViewEE@ABI_1_0 4:4.8.4
 _ZN7Kasten111TabbedViews12setViewFocusEPNS_12AbstractViewE@ABI_1_0 4:4.8.4
 _ZN7Kasten111TabbedViews16staticMetaObjectE@ABI_1_0 4:4.8.4
 _ZN7Kasten111TabbedViews24setCurrentToolInlineViewEPNS_22AbstractToolInlineViewE@ABI_1_0 4:4.8.4
 _ZN7Kasten111TabbedViews8addViewsERK5QListIPNS_12AbstractViewEE@ABI_1_0 4:4.8.4
 _ZN7Kasten111TabbedViews8setFocusEv@ABI_1_0 4:4.8.4
 _ZN7Kasten111TabbedViewsC1EPNS_18TabbedViewsPrivateE@ABI_1_0 4:4.8.4
 _ZN7Kasten111TabbedViewsC1Ev@ABI_1_0 4:4.8.4
 _ZN7Kasten111TabbedViewsC2EPNS_18TabbedViewsPrivateE@ABI_1_0 4:4.8.4
 _ZN7Kasten111TabbedViewsC2Ev@ABI_1_0 4:4.8.4
 _ZN7Kasten111TabbedViewsD0Ev@ABI_1_0 4:4.8.4
 _ZN7Kasten111TabbedViewsD1Ev@ABI_1_0 4:4.8.4
 _ZN7Kasten111TabbedViewsD2Ev@ABI_1_0 4:4.8.4
 _ZN7Kasten111ViewManager11qt_metacallEN11QMetaObject4CallEiPPv@ABI_1_0 4:4.8.4
 _ZN7Kasten111ViewManager11qt_metacastEPKc@ABI_1_0 4:4.8.4
 _ZN7Kasten111ViewManager11removeViewsERK5QListIPNS_12AbstractViewEE@ABI_1_0 4:4.8.4
 _ZN7Kasten111ViewManager14createViewsForERK5QListIPNS_16AbstractDocumentEE@ABI_1_0 4:4.8.4
 _ZN7Kasten111ViewManager14removeViewsForERK5QListIPNS_16AbstractDocumentEE@ABI_1_0 4:4.8.4
 _ZN7Kasten111ViewManager14setViewFactoryEPNS_19AbstractViewFactoryE@ABI_1_0 4:4.8.4
 _ZN7Kasten111ViewManager16createCopyOfViewEPNS_12AbstractViewE6QFlagsIN2Qt13AlignmentFlagEE@ABI_1_0 4:4.8.4
 _ZN7Kasten111ViewManager16staticMetaObjectE@ABI_1_0 4:4.8.4
 _ZN7Kasten111ViewManager6openedERK5QListIPNS_12AbstractViewEE@ABI_1_0 4:4.8.4
 _ZN7Kasten111ViewManager7closingERK5QListIPNS_12AbstractViewEE@ABI_1_0 4:4.8.4
 _ZN7Kasten111ViewManagerC1Ev@ABI_1_0 4:4.8.4
 _ZN7Kasten111ViewManagerC2Ev@ABI_1_0 4:4.8.4
 _ZN7Kasten111ViewManagerD0Ev@ABI_1_0 4:4.8.4
 _ZN7Kasten111ViewManagerD1Ev@ABI_1_0 4:4.8.4
 _ZN7Kasten111ViewManagerD2Ev@ABI_1_0 4:4.8.4
 _ZN7Kasten112AbstractView11qt_metacallEN11QMetaObject4CallEiPPv@ABI_1_0 4:4.8.4
 _ZN7Kasten112AbstractView11qt_metacastEPKc@ABI_1_0 4:4.8.4
 _ZN7Kasten112AbstractView12focusChangedEb@ABI_1_0 4:4.8.4
 _ZN7Kasten112AbstractView16staticMetaObjectE@ABI_1_0 4:4.8.4
 _ZN7Kasten112AbstractView21localSyncStateChangedENS_14LocalSyncStateE@ABI_1_0 4:4.8.4
 _ZN7Kasten112AbstractView22remoteSyncStateChangedENS_15RemoteSyncStateE@ABI_1_0 4:4.8.4
 _ZN7Kasten112AbstractViewC1EPNS_13AbstractModelE@ABI_1_0 4:4.8.4
 _ZN7Kasten112AbstractViewC2EPNS_13AbstractModelE@ABI_1_0 4:4.8.4
 _ZN7Kasten112AbstractViewD0Ev@ABI_1_0 4:4.8.4
 _ZN7Kasten112AbstractViewD1Ev@ABI_1_0 4:4.8.4
 _ZN7Kasten112AbstractViewD2Ev@ABI_1_0 4:4.8.4
 _ZN7Kasten112ToggleButton11qt_metacallEN11QMetaObject4CallEiPPv@ABI_1_0 4:4.8.4
 _ZN7Kasten112ToggleButton11qt_metacastEPKc@ABI_1_0 4:4.8.4
 _ZN7Kasten112ToggleButton15setCheckedStateERK5KIconRK7QStringS6_@ABI_1_0 4:4.8.4
 _ZN7Kasten112ToggleButton15setCheckedStateERK7QStringS3_@ABI_1_0 4:4.8.4
 _ZN7Kasten112ToggleButton16staticMetaObjectE@ABI_1_0 4:4.8.4
 _ZN7Kasten112ToggleButtonC1ERK5KIconRK7QStringS6_P7QWidget@ABI_1_0 4:4.8.4
 _ZN7Kasten112ToggleButtonC1ERK7QStringS3_P7QWidget@ABI_1_0 4:4.8.4
 _ZN7Kasten112ToggleButtonC2ERK5KIconRK7QStringS6_P7QWidget@ABI_1_0 4:4.8.4
 _ZN7Kasten112ToggleButtonC2ERK7QStringS3_P7QWidget@ABI_1_0 4:4.8.4
 _ZN7Kasten112ToggleButtonD0Ev@ABI_1_0 4:4.8.4
 _ZN7Kasten112ToggleButtonD1Ev@ABI_1_0 4:4.8.4
 _ZN7Kasten112ToggleButtonD2Ev@ABI_1_0 4:4.8.4
 _ZN7Kasten113DialogHandler9setWidgetEP7QWidget@ABI_1_0 4:4.8.4
 _ZN7Kasten113DialogHandlerC1EP7QWidget@ABI_1_0 4:4.8.4
 _ZN7Kasten113DialogHandlerC2EP7QWidget@ABI_1_0 4:4.8.4
 _ZN7Kasten113DialogHandlerD0Ev@ABI_1_0 4:4.8.4
 _ZN7Kasten113DialogHandlerD1Ev@ABI_1_0 4:4.8.4
 _ZN7Kasten113DialogHandlerD2Ev@ABI_1_0 4:4.8.4
 _ZN7Kasten114MultiViewAreas11dataDroppedEPK9QMimeData@ABI_1_0 4:4.8.4
 _ZN7Kasten114MultiViewAreas11dataOfferedEPK9QMimeDataRb@ABI_1_0 4:4.8.4
 _ZN7Kasten114MultiViewAreas11qt_metacallEN11QMetaObject4CallEiPPv@ABI_1_0 4:4.8.4
 _ZN7Kasten114MultiViewAreas11qt_metacastEPKc@ABI_1_0 4:4.8.4
 _ZN7Kasten114MultiViewAreas11removeViewsERK5QListIPNS_12AbstractViewEE@ABI_1_0 4:4.8.4
 _ZN7Kasten114MultiViewAreas12setViewFocusEPNS_12AbstractViewE@ABI_1_0 4:4.8.4
 _ZN7Kasten114MultiViewAreas13closeViewAreaEPNS_16AbstractViewAreaE@ABI_1_0 4:4.8.4
 _ZN7Kasten114MultiViewAreas13splitViewAreaEPNS_16AbstractViewAreaEN2Qt11OrientationE@ABI_1_0 4:4.8.4
 _ZN7Kasten114MultiViewAreas14viewAreasAddedERK5QListIPNS_16AbstractViewAreaEE@ABI_1_0 4:4.8.4
 _ZN7Kasten114MultiViewAreas16setViewAreaFocusEPNS_16AbstractViewAreaE@ABI_1_0 4:4.8.4
 _ZN7Kasten114MultiViewAreas16staticMetaObjectE@ABI_1_0 4:4.8.4
 _ZN7Kasten114MultiViewAreas16viewAreasRemovedERK5QListIPNS_16AbstractViewAreaEE@ABI_1_0 4:4.8.4
 _ZN7Kasten114MultiViewAreas20viewAreaFocusChangedEPNS_16AbstractViewAreaE@ABI_1_0 4:4.8.4
 _ZN7Kasten114MultiViewAreas24setCurrentToolInlineViewEPNS_22AbstractToolInlineViewE@ABI_1_0 4:4.8.4
 _ZN7Kasten114MultiViewAreas8addViewsERK5QListIPNS_12AbstractViewEE@ABI_1_0 4:4.8.4
 _ZN7Kasten114MultiViewAreas8setFocusEv@ABI_1_0 4:4.8.4
 _ZN7Kasten114MultiViewAreasC1Ev@ABI_1_0 4:4.8.4
 _ZN7Kasten114MultiViewAreasC2Ev@ABI_1_0 4:4.8.4
 _ZN7Kasten114MultiViewAreasD0Ev@ABI_1_0 4:4.8.4
 _ZN7Kasten114MultiViewAreasD1Ev@ABI_1_0 4:4.8.4
 _ZN7Kasten114MultiViewAreasD2Ev@ABI_1_0 4:4.8.4
 _ZN7Kasten114SingleViewArea11dataDroppedEPK9QMimeData@ABI_1_0 4:4.8.4
 _ZN7Kasten114SingleViewArea11dataOfferedEPK9QMimeDataRb@ABI_1_0 4:4.8.4
 _ZN7Kasten114SingleViewArea11qt_metacallEN11QMetaObject4CallEiPPv@ABI_1_0 4:4.8.4
 _ZN7Kasten114SingleViewArea11qt_metacastEPKc@ABI_1_0 4:4.8.4
 _ZN7Kasten114SingleViewArea16staticMetaObjectE@ABI_1_0 4:4.8.4
 _ZN7Kasten114SingleViewArea24setCurrentToolInlineViewEPNS_22AbstractToolInlineViewE@ABI_1_0 4:4.8.4
 _ZN7Kasten114SingleViewArea7setViewEPNS_12AbstractViewE@ABI_1_0 4:4.8.4
 _ZN7Kasten114SingleViewArea8setFocusEv@ABI_1_0 4:4.8.4
 _ZN7Kasten114SingleViewAreaC1Ev@ABI_1_0 4:4.8.4
 _ZN7Kasten114SingleViewAreaC2Ev@ABI_1_0 4:4.8.4
 _ZN7Kasten114SingleViewAreaD0Ev@ABI_1_0 4:4.8.4
 _ZN7Kasten114SingleViewAreaD1Ev@ABI_1_0 4:4.8.4
 _ZN7Kasten114SingleViewAreaD2Ev@ABI_1_0 4:4.8.4
 _ZN7Kasten116AbstractToolView7PrivateC1EPS0_@ABI_1_0 4:4.8.4
 _ZN7Kasten116AbstractToolView7PrivateC2EPS0_@ABI_1_0 4:4.8.4
 _ZN7Kasten116AbstractToolViewC1Ev@ABI_1_0 4:4.8.4
 _ZN7Kasten116AbstractToolViewC2Ev@ABI_1_0 4:4.8.4
 _ZN7Kasten116AbstractToolViewD0Ev@ABI_1_0 4:4.8.4
 _ZN7Kasten116AbstractToolViewD1Ev@ABI_1_0 4:4.8.4
 _ZN7Kasten116AbstractToolViewD2Ev@ABI_1_0 4:4.8.4
 _ZN7Kasten116AbstractViewArea11qt_metacallEN11QMetaObject4CallEiPPv@ABI_1_0 4:4.8.4
 _ZN7Kasten116AbstractViewArea11qt_metacastEPKc@ABI_1_0 4:4.8.4
 _ZN7Kasten116AbstractViewArea12focusChangedEb@ABI_1_0 4:4.8.4
 _ZN7Kasten116AbstractViewArea16staticMetaObjectE@ABI_1_0 4:4.8.4
 _ZN7Kasten116AbstractViewAreaC1EPNS_23AbstractViewAreaPrivateE@ABI_1_0 4:4.8.4
 _ZN7Kasten116AbstractViewAreaC1Ev@ABI_1_0 4:4.8.4
 _ZN7Kasten116AbstractViewAreaC2EPNS_23AbstractViewAreaPrivateE@ABI_1_0 4:4.8.4
 _ZN7Kasten116AbstractViewAreaC2Ev@ABI_1_0 4:4.8.4
 _ZN7Kasten116AbstractViewAreaD0Ev@ABI_1_0 4:4.8.4
 _ZN7Kasten116AbstractViewAreaD1Ev@ABI_1_0 4:4.8.4
 _ZN7Kasten116AbstractViewAreaD2Ev@ABI_1_0 4:4.8.4
 _ZN7Kasten116SingleViewWindow11qt_metacallEN11QMetaObject4CallEiPPv@ABI_1_0 4:4.8.4
 _ZN7Kasten116SingleViewWindow11qt_metacastEPKc@ABI_1_0 4:4.8.4
 _ZN7Kasten116SingleViewWindow16staticMetaObjectE@ABI_1_0 4:4.8.4
 _ZN7Kasten116SingleViewWindow19addXmlGuiControllerEPNS_24AbstractXmlGuiControllerE@ABI_1_0 4:4.8.4
 _ZN7Kasten116SingleViewWindow7addToolEPNS_16AbstractToolViewE@ABI_1_0 4:4.8.4
 _ZN7Kasten116SingleViewWindow7setViewEPNS_12AbstractViewE@ABI_1_0 4:4.8.4
 _ZN7Kasten116SingleViewWindowC1EPNS_12AbstractViewE@ABI_1_0 4:4.8.4
 _ZN7Kasten116SingleViewWindowC2EPNS_12AbstractViewE@ABI_1_0 4:4.8.4
 _ZN7Kasten116SingleViewWindowD0Ev@ABI_1_0 4:4.8.4
 _ZN7Kasten116SingleViewWindowD1Ev@ABI_1_0 4:4.8.4
 _ZN7Kasten116SingleViewWindowD2Ev@ABI_1_0 4:4.8.4
 _ZN7Kasten117AbstractLinePopup10setVisibleEb@ABI_1_0 4:4.8.4
 _ZN7Kasten117AbstractLinePopup11eventFilterEP7QObjectP6QEvent@ABI_1_0 4:4.8.4
 _ZN7Kasten117AbstractLinePopup11qt_metacallEN11QMetaObject4CallEiPPv@ABI_1_0 4:4.8.4
 _ZN7Kasten117AbstractLinePopup11qt_metacastEPKc@ABI_1_0 4:4.8.4
 _ZN7Kasten117AbstractLinePopup11setPositionERK6QPoint@ABI_1_0 4:4.8.4
 _ZN7Kasten117AbstractLinePopup16staticMetaObjectE@ABI_1_0 4:4.8.4
 _ZN7Kasten117AbstractLinePopup4execEv@ABI_1_0 4:4.8.4
 _ZN7Kasten117AbstractLinePopup7setIconERK5KIcon@ABI_1_0 4:4.8.4
 _ZN7Kasten117AbstractLinePopup9setResultEi@ABI_1_0 4:4.8.4
 _ZN7Kasten117AbstractLinePopup9setWidgetEP7QWidget@ABI_1_0 4:4.8.4
 _ZN7Kasten117AbstractLinePopupC1EP7QWidget@ABI_1_0 4:4.8.4
 _ZN7Kasten117AbstractLinePopupC2EP7QWidget@ABI_1_0 4:4.8.4
 _ZN7Kasten117AbstractLinePopupD0Ev@ABI_1_0 4:4.8.4
 _ZN7Kasten117AbstractLinePopupD1Ev@ABI_1_0 4:4.8.4
 _ZN7Kasten117AbstractLinePopupD2Ev@ABI_1_0 4:4.8.4
 _ZN7Kasten118AbstractController11qt_metacallEN11QMetaObject4CallEiPPv@ABI_1_0 4:4.8.4
 _ZN7Kasten118AbstractController11qt_metacastEPKc@ABI_1_0 4:4.8.4
 _ZN7Kasten118AbstractController14setTargetModelEPNS_13AbstractModelE@ABI_1_0 4:4.8.4
 _ZN7Kasten118AbstractController16staticMetaObjectE@ABI_1_0 4:4.8.4
 _ZN7Kasten118AbstractControllerD0Ev@ABI_1_0 4:4.8.4
 _ZN7Kasten118AbstractControllerD1Ev@ABI_1_0 4:4.8.4
 _ZN7Kasten118AbstractControllerD2Ev@ABI_1_0 4:4.8.4
 _ZN7Kasten118AbstractToolWidget11qt_metacallEN11QMetaObject4CallEiPPv@ABI_1_0 4:4.8.4
 _ZN7Kasten118AbstractToolWidget11qt_metacastEPKc@ABI_1_0 4:4.8.4
 _ZN7Kasten118AbstractToolWidget16staticMetaObjectE@ABI_1_0 4:4.8.4
 _ZN7Kasten118AbstractToolWidget9addButtonEP11QPushButtonNS0_11DefaultTypeE@ABI_1_0 4:4.8.4
 _ZN7Kasten118AbstractToolWidgetC1EP7QWidget@ABI_1_0 4:4.8.4
 _ZN7Kasten118AbstractToolWidgetC2EP7QWidget@ABI_1_0 4:4.8.4
 _ZN7Kasten118AbstractToolWidgetD0Ev@ABI_1_0 4:4.8.4
 _ZN7Kasten118AbstractToolWidgetD1Ev@ABI_1_0 4:4.8.4
 _ZN7Kasten118AbstractToolWidgetD2Ev@ABI_1_0 4:4.8.4
 _ZN7Kasten119AbstractViewFactory16createCopyOfViewEPNS_12AbstractViewE6QFlagsIN2Qt13AlignmentFlagEE@ABI_1_0 4:4.8.4
 _ZN7Kasten119AbstractViewFactoryD0Ev@ABI_1_0 4:4.8.4
 _ZN7Kasten119AbstractViewFactoryD1Ev@ABI_1_0 4:4.8.4
 _ZN7Kasten119AbstractViewFactoryD2Ev@ABI_1_0 4:4.8.4
 _ZN7Kasten120AbstractGroupedViews11qt_metacallEN11QMetaObject4CallEiPPv@ABI_1_0 4:4.8.4
 _ZN7Kasten120AbstractGroupedViews11qt_metacastEPKc@ABI_1_0 4:4.8.4
 _ZN7Kasten120AbstractGroupedViews12closeRequestERK5QListIPNS_12AbstractViewEE@ABI_1_0 4:4.8.4
 _ZN7Kasten120AbstractGroupedViews16staticMetaObjectE@ABI_1_0 4:4.8.4
 _ZN7Kasten120AbstractGroupedViews16viewFocusChangedEPNS_12AbstractViewE@ABI_1_0 4:4.8.4
 _ZN7Kasten120AbstractGroupedViews5addedERK5QListIPNS_12AbstractViewEE@ABI_1_0 4:4.8.4
 _ZN7Kasten120AbstractGroupedViews8removingERK5QListIPNS_12AbstractViewEE@ABI_1_0 4:4.8.4
 _ZN7Kasten120AbstractGroupedViewsC1EPNS_27AbstractGroupedViewsPrivateE@ABI_1_0 4:4.8.4
 _ZN7Kasten120AbstractGroupedViewsC1Ev@ABI_1_0 4:4.8.4
 _ZN7Kasten120AbstractGroupedViewsC2EPNS_27AbstractGroupedViewsPrivateE@ABI_1_0 4:4.8.4
 _ZN7Kasten120AbstractGroupedViewsC2Ev@ABI_1_0 4:4.8.4
 _ZN7Kasten120AbstractGroupedViewsD0Ev@ABI_1_0 4:4.8.4
 _ZN7Kasten120AbstractGroupedViewsD1Ev@ABI_1_0 4:4.8.4
 _ZN7Kasten120AbstractGroupedViewsD2Ev@ABI_1_0 4:4.8.4
 _ZN7Kasten121AbstractSelectionView11qt_metacallEN11QMetaObject4CallEiPPv@ABI_1_0 4:4.8.4
 _ZN7Kasten121AbstractSelectionView11qt_metacastEPKc@ABI_1_0 4:4.8.4
 _ZN7Kasten121AbstractSelectionView16staticMetaObjectE@ABI_1_0 4:4.8.4
 _ZN7Kasten121AbstractSelectionView7PrivateC1EPS0_@ABI_1_0 4:4.8.4
 _ZN7Kasten121AbstractSelectionView7PrivateC2EPS0_@ABI_1_0 4:4.8.4
 _ZN7Kasten121AbstractSelectionViewC1Ev@ABI_1_0 4:4.8.4
 _ZN7Kasten121AbstractSelectionViewC2Ev@ABI_1_0 4:4.8.4
 _ZN7Kasten121AbstractSelectionViewD0Ev@ABI_1_0 4:4.8.4
 _ZN7Kasten121AbstractSelectionViewD1Ev@ABI_1_0 4:4.8.4
 _ZN7Kasten121AbstractSelectionViewD2Ev@ABI_1_0 4:4.8.4
 _ZN7Kasten121ModelCodecViewManager11qt_metacallEN11QMetaObject4CallEiPPv@ABI_1_0 4:4.8.4
 _ZN7Kasten121ModelCodecViewManager11qt_metacastEPKc@ABI_1_0 4:4.8.4
 _ZN7Kasten121ModelCodecViewManager16staticMetaObjectE@ABI_1_0 4:4.8.4
 _ZN7Kasten121ModelCodecViewManager31setEncoderConfigEditorFactoriesERK5QListIPNS_45AbstractModelStreamEncoderConfigEditorFactoryEE@ABI_1_0 4:4.8.4
 _ZN7Kasten121ModelCodecViewManager32setExporterConfigEditorFactoriesERK5QListIPNS_40AbstractModelExporterConfigEditorFactoryEE@ABI_1_0 4:4.8.4
 _ZN7Kasten121ModelCodecViewManager33setGeneratorConfigEditorFactoriesERK5QListIPNS_45AbstractModelDataGeneratorConfigEditorFactoryEE@ABI_1_0 4:4.8.4
 _ZN7Kasten121ModelCodecViewManagerC1Ev@ABI_1_0 4:4.8.4
 _ZN7Kasten121ModelCodecViewManagerC2Ev@ABI_1_0 4:4.8.4
 _ZN7Kasten121ModelCodecViewManagerD0Ev@ABI_1_0 4:4.8.4
 _ZN7Kasten121ModelCodecViewManagerD1Ev@ABI_1_0 4:4.8.4
 _ZN7Kasten121ModelCodecViewManagerD2Ev@ABI_1_0 4:4.8.4
 _ZN7Kasten121MultiDocumentStrategy11qt_metacallEN11QMetaObject4CallEiPPv@ABI_1_0 4:4.8.4
 _ZN7Kasten121MultiDocumentStrategy11qt_metacastEPKc@ABI_1_0 4:4.8.4
 _ZN7Kasten121MultiDocumentStrategy13closeAllOtherEPNS_16AbstractDocumentE@ABI_1_0 4:4.8.4
 _ZN7Kasten121MultiDocumentStrategy13closeDocumentEPNS_16AbstractDocumentE@ABI_1_0 4:4.8.4
 _ZN7Kasten121MultiDocumentStrategy16staticMetaObjectE@ABI_1_0 4:4.8.4
 _ZN7Kasten121MultiDocumentStrategy22createNewFromClipboardEv@ABI_1_0 4:4.8.4
 _ZN7Kasten121MultiDocumentStrategy22createNewWithGeneratorEPNS_26AbstractModelDataGeneratorE@ABI_1_0 4:4.8.4
 _ZN7Kasten121MultiDocumentStrategy4loadERK4KUrl@ABI_1_0 4:4.8.4
 _ZN7Kasten121MultiDocumentStrategy8closeAllEv@ABI_1_0 4:4.8.4
 _ZN7Kasten121MultiDocumentStrategy9createNewEv@ABI_1_0 4:4.8.4
 _ZN7Kasten121MultiDocumentStrategyC1EPNS_15DocumentManagerEPNS_11ViewManagerE@ABI_1_0 4:4.8.4
 _ZN7Kasten121MultiDocumentStrategyC2EPNS_15DocumentManagerEPNS_11ViewManagerE@ABI_1_0 4:4.8.4
 _ZN7Kasten121MultiDocumentStrategyD0Ev@ABI_1_0 4:4.8.4
 _ZN7Kasten121MultiDocumentStrategyD1Ev@ABI_1_0 4:4.8.4
 _ZN7Kasten121MultiDocumentStrategyD2Ev@ABI_1_0 4:4.8.4
 _ZN7Kasten122AbstractToolInlineView7PrivateC1EPS0_@ABI_1_0 4:4.8.4
 _ZN7Kasten122AbstractToolInlineView7PrivateC2EPS0_@ABI_1_0 4:4.8.4
 _ZN7Kasten122AbstractToolInlineView8activateEv@ABI_1_0 4:4.8.4
 _ZN7Kasten122AbstractToolInlineViewC1Ev@ABI_1_0 4:4.8.4
 _ZN7Kasten122AbstractToolInlineViewC2Ev@ABI_1_0 4:4.8.4
 _ZN7Kasten122AbstractToolInlineViewD0Ev@ABI_1_0 4:4.8.4
 _ZN7Kasten122AbstractToolInlineViewD1Ev@ABI_1_0 4:4.8.4
 _ZN7Kasten122AbstractToolInlineViewD2Ev@ABI_1_0 4:4.8.4
 _ZN7Kasten122SingleDocumentStrategy11qt_metacallEN11QMetaObject4CallEiPPv@ABI_1_0 4:4.8.4
 _ZN7Kasten122SingleDocumentStrategy11qt_metacastEPKc@ABI_1_0 4:4.8.4
 _ZN7Kasten122SingleDocumentStrategy13closeAllOtherEPNS_16AbstractDocumentE@ABI_1_0 4:4.8.4
 _ZN7Kasten122SingleDocumentStrategy13closeDocumentEPNS_16AbstractDocumentE@ABI_1_0 4:4.8.4
 _ZN7Kasten122SingleDocumentStrategy16staticMetaObjectE@ABI_1_0 4:4.8.4
 _ZN7Kasten122SingleDocumentStrategy22createNewFromClipboardEv@ABI_1_0 4:4.8.4
 _ZN7Kasten122SingleDocumentStrategy22createNewWithGeneratorEPNS_26AbstractModelDataGeneratorE@ABI_1_0 4:4.8.4
 _ZN7Kasten122SingleDocumentStrategy4loadERK4KUrl@ABI_1_0 4:4.8.4
 _ZN7Kasten122SingleDocumentStrategy8closeAllEv@ABI_1_0 4:4.8.4
 _ZN7Kasten122SingleDocumentStrategy9createNewEv@ABI_1_0 4:4.8.4
 _ZN7Kasten122SingleDocumentStrategyC1EPNS_15DocumentManagerEPNS_11ViewManagerE@ABI_1_0 4:4.8.4
 _ZN7Kasten122SingleDocumentStrategyC2EPNS_15DocumentManagerEPNS_11ViewManagerE@ABI_1_0 4:4.8.4
 _ZN7Kasten122SingleDocumentStrategyD0Ev@ABI_1_0 4:4.8.4
 _ZN7Kasten122SingleDocumentStrategyD1Ev@ABI_1_0 4:4.8.4
 _ZN7Kasten122SingleDocumentStrategyD2Ev@ABI_1_0 4:4.8.4
 _ZN7Kasten123AbstractOverwriteDialogD0Ev@ABI_1_0 4:4.8.4
 _ZN7Kasten123AbstractOverwriteDialogD1Ev@ABI_1_0 4:4.8.4
 _ZN7Kasten123AbstractOverwriteDialogD2Ev@ABI_1_0 4:4.8.4
 _ZN7Kasten124AbstractDocumentStrategy11qt_metacallEN11QMetaObject4CallEiPPv@ABI_1_0 4:4.8.4
 _ZN7Kasten124AbstractDocumentStrategy11qt_metacastEPKc@ABI_1_0 4:4.8.4
 _ZN7Kasten124AbstractDocumentStrategy14focusRequestedEPNS_16AbstractDocumentE@ABI_1_0 4:4.8.4
 _ZN7Kasten124AbstractDocumentStrategy16staticMetaObjectE@ABI_1_0 4:4.8.4
 _ZN7Kasten124AbstractDocumentStrategy5addedERK5QListIPNS_16AbstractDocumentEE@ABI_1_0 4:4.8.4
 _ZN7Kasten124AbstractDocumentStrategy7closingERK5QListIPNS_16AbstractDocumentEE@ABI_1_0 4:4.8.4
 _ZN7Kasten124AbstractDocumentStrategy7urlUsedERK4KUrl@ABI_1_0 4:4.8.4
 _ZN7Kasten124AbstractDocumentStrategyC1EPNS_31AbstractDocumentStrategyPrivateE@ABI_1_0 4:4.8.4
 _ZN7Kasten124AbstractDocumentStrategyC1Ev@ABI_1_0 4:4.8.4
 _ZN7Kasten124AbstractDocumentStrategyC2EPNS_31AbstractDocumentStrategyPrivateE@ABI_1_0 4:4.8.4
 _ZN7Kasten124AbstractDocumentStrategyC2Ev@ABI_1_0 4:4.8.4
 _ZN7Kasten124AbstractDocumentStrategyD0Ev@ABI_1_0 4:4.8.4
 _ZN7Kasten124AbstractDocumentStrategyD1Ev@ABI_1_0 4:4.8.4
 _ZN7Kasten124AbstractDocumentStrategyD2Ev@ABI_1_0 4:4.8.4
 _ZN7Kasten124AbstractXmlGuiController11qt_metacallEN11QMetaObject4CallEiPPv@ABI_1_0 4:4.8.4
 _ZN7Kasten124AbstractXmlGuiController11qt_metacastEPKc@ABI_1_0 4:4.8.4
 _ZN7Kasten124AbstractXmlGuiController16staticMetaObjectE@ABI_1_0 4:4.8.4
 _ZN7Kasten124AbstractXmlGuiControllerD0Ev@ABI_1_0 4:4.8.4
 _ZN7Kasten124AbstractXmlGuiControllerD1Ev@ABI_1_0 4:4.8.4
 _ZN7Kasten124AbstractXmlGuiControllerD2Ev@ABI_1_0 4:4.8.4
 _ZN7Kasten125AbstractSaveDiscardDialogD0Ev@ABI_1_0 4:4.8.4
 _ZN7Kasten125AbstractSaveDiscardDialogD1Ev@ABI_1_0 4:4.8.4
 _ZN7Kasten125AbstractSaveDiscardDialogD2Ev@ABI_1_0 4:4.8.4
 _ZN7Kasten133AbstractModelExporterConfigEditor11qt_metacallEN11QMetaObject4CallEiPPv@ABI_1_0 4:4.8.4
 _ZN7Kasten133AbstractModelExporterConfigEditor11qt_metacastEPKc@ABI_1_0 4:4.8.4
 _ZN7Kasten133AbstractModelExporterConfigEditor15validityChangedEb@ABI_1_0 4:4.8.4
 _ZN7Kasten133AbstractModelExporterConfigEditor16staticMetaObjectE@ABI_1_0 4:4.8.4
 _ZN7Kasten133AbstractModelExporterConfigEditorC1EP7QWidget@ABI_1_0 4:4.8.4
 _ZN7Kasten133AbstractModelExporterConfigEditorC2EP7QWidget@ABI_1_0 4:4.8.4
 _ZN7Kasten133AbstractModelExporterConfigEditorD0Ev@ABI_1_0 4:4.8.4
 _ZN7Kasten133AbstractModelExporterConfigEditorD1Ev@ABI_1_0 4:4.8.4
 _ZN7Kasten133AbstractModelExporterConfigEditorD2Ev@ABI_1_0 4:4.8.4
 _ZN7Kasten138AbstractModelDataGeneratorConfigEditor11qt_metacallEN11QMetaObject4CallEiPPv@ABI_1_0 4:4.8.4
 _ZN7Kasten138AbstractModelDataGeneratorConfigEditor11qt_metacastEPKc@ABI_1_0 4:4.8.4
 _ZN7Kasten138AbstractModelDataGeneratorConfigEditor15validityChangedEb@ABI_1_0 4:4.8.4
 _ZN7Kasten138AbstractModelDataGeneratorConfigEditor16staticMetaObjectE@ABI_1_0 4:4.8.4
 _ZN7Kasten138AbstractModelDataGeneratorConfigEditorC1EP7QWidget@ABI_1_0 4:4.8.4
 _ZN7Kasten138AbstractModelDataGeneratorConfigEditorC2EP7QWidget@ABI_1_0 4:4.8.4
 _ZN7Kasten138AbstractModelDataGeneratorConfigEditorD0Ev@ABI_1_0 4:4.8.4
 _ZN7Kasten138AbstractModelDataGeneratorConfigEditorD1Ev@ABI_1_0 4:4.8.4
 _ZN7Kasten138AbstractModelDataGeneratorConfigEditorD2Ev@ABI_1_0 4:4.8.4
 _ZN7Kasten138AbstractModelStreamEncoderConfigEditor11qt_metacallEN11QMetaObject4CallEiPPv@ABI_1_0 4:4.8.4
 _ZN7Kasten138AbstractModelStreamEncoderConfigEditor11qt_metacastEPKc@ABI_1_0 4:4.8.4
 _ZN7Kasten138AbstractModelStreamEncoderConfigEditor15validityChangedEb@ABI_1_0 4:4.8.4
 _ZN7Kasten138AbstractModelStreamEncoderConfigEditor16staticMetaObjectE@ABI_1_0 4:4.8.4
 _ZN7Kasten138AbstractModelStreamEncoderConfigEditorC1EP7QWidget@ABI_1_0 4:4.8.4
 _ZN7Kasten138AbstractModelStreamEncoderConfigEditorC2EP7QWidget@ABI_1_0 4:4.8.4
 _ZN7Kasten138AbstractModelStreamEncoderConfigEditorD0Ev@ABI_1_0 4:4.8.4
 _ZN7Kasten138AbstractModelStreamEncoderConfigEditorD1Ev@ABI_1_0 4:4.8.4
 _ZN7Kasten138AbstractModelStreamEncoderConfigEditorD2Ev@ABI_1_0 4:4.8.4
 _ZN7Kasten140AbstractModelExporterConfigEditorFactoryD0Ev@ABI_1_0 4:4.8.4
 _ZN7Kasten140AbstractModelExporterConfigEditorFactoryD1Ev@ABI_1_0 4:4.8.4
 _ZN7Kasten140AbstractModelExporterConfigEditorFactoryD2Ev@ABI_1_0 4:4.8.4
 _ZN7Kasten142ModelEncoderFileSystemExporterConfigEditor11qt_metacallEN11QMetaObject4CallEiPPv@ABI_1_0 4:4.8.4
 _ZN7Kasten142ModelEncoderFileSystemExporterConfigEditor11qt_metacastEPKc@ABI_1_0 4:4.8.4
 _ZN7Kasten142ModelEncoderFileSystemExporterConfigEditor16staticMetaObjectE@ABI_1_0 4:4.8.4
 _ZN7Kasten142ModelEncoderFileSystemExporterConfigEditorC1EPNS_38AbstractModelStreamEncoderConfigEditorE@ABI_1_0 4:4.8.4
 _ZN7Kasten142ModelEncoderFileSystemExporterConfigEditorC2EPNS_38AbstractModelStreamEncoderConfigEditorE@ABI_1_0 4:4.8.4
 _ZN7Kasten142ModelEncoderFileSystemExporterConfigEditorD0Ev@ABI_1_0 4:4.8.4
 _ZN7Kasten142ModelEncoderFileSystemExporterConfigEditorD1Ev@ABI_1_0 4:4.8.4
 _ZN7Kasten142ModelEncoderFileSystemExporterConfigEditorD2Ev@ABI_1_0 4:4.8.4
 _ZN7Kasten145AbstractModelDataGeneratorConfigEditorFactoryD0Ev@ABI_1_0 4:4.8.4
 _ZN7Kasten145AbstractModelDataGeneratorConfigEditorFactoryD1Ev@ABI_1_0 4:4.8.4
 _ZN7Kasten145AbstractModelDataGeneratorConfigEditorFactoryD2Ev@ABI_1_0 4:4.8.4
 _ZN7Kasten145AbstractModelStreamEncoderConfigEditorFactoryD0Ev@ABI_1_0 4:4.8.4
 _ZN7Kasten145AbstractModelStreamEncoderConfigEditorFactoryD1Ev@ABI_1_0 4:4.8.4
 _ZN7Kasten145AbstractModelStreamEncoderConfigEditorFactoryD2Ev@ABI_1_0 4:4.8.4
 _ZN7Kasten149ModelEncoderFileSystemExporterConfigEditorFactoryC1EPNS_45AbstractModelStreamEncoderConfigEditorFactoryE@ABI_1_0 4:4.8.4
 _ZN7Kasten149ModelEncoderFileSystemExporterConfigEditorFactoryC2EPNS_45AbstractModelStreamEncoderConfigEditorFactoryE@ABI_1_0 4:4.8.4
 _ZN7Kasten149ModelEncoderFileSystemExporterConfigEditorFactoryD0Ev@ABI_1_0 4:4.8.4
 _ZN7Kasten149ModelEncoderFileSystemExporterConfigEditorFactoryD1Ev@ABI_1_0 4:4.8.4
 _ZN7Kasten149ModelEncoderFileSystemExporterConfigEditorFactoryD2Ev@ABI_1_0 4:4.8.4
 _ZN7Kasten19DummyView11qt_metacallEN11QMetaObject4CallEiPPv@ABI_1_0 4:4.8.4
 _ZN7Kasten19DummyView11qt_metacastEPKc@ABI_1_0 4:4.8.4
 _ZN7Kasten19DummyView13onTitleChangeERK7QString@ABI_1_0 4:4.8.4
 _ZN7Kasten19DummyView16staticMetaObjectE@ABI_1_0 4:4.8.4
 _ZN7Kasten19DummyView8setFocusEv@ABI_1_0 4:4.8.4
 _ZN7Kasten19DummyViewC1EPNS_16AbstractDocumentE@ABI_1_0 4:4.8.4
 _ZN7Kasten19DummyViewC2EPNS_16AbstractDocumentE@ABI_1_0 4:4.8.4
 _ZN7Kasten19DummyViewD0Ev@ABI_1_0 4:4.8.4
 _ZN7Kasten19DummyViewD1Ev@ABI_1_0 4:4.8.4
 _ZN7Kasten19DummyViewD2Ev@ABI_1_0 4:4.8.4
 _ZN7Kasten19StatusBar11changeEventEP6QEvent@ABI_1_0 4:4.8.4
 _ZN7Kasten19StatusBar11qt_metacallEN11QMetaObject4CallEiPPv@ABI_1_0 4:4.8.4
 _ZN7Kasten19StatusBar11qt_metacastEPKc@ABI_1_0 4:4.8.4
 _ZN7Kasten19StatusBar16staticMetaObjectE@ABI_1_0 4:4.8.4
 _ZN7Kasten19StatusBar9addWidgetEP7QWidget@ABI_1_0 4:4.8.4
 _ZN7Kasten19StatusBarC1EP7QWidget@ABI_1_0 4:4.8.4
 _ZN7Kasten19StatusBarC2EP7QWidget@ABI_1_0 4:4.8.4
 _ZN7Kasten19StatusBarD0Ev@ABI_1_0 4:4.8.4
 _ZN7Kasten19StatusBarD1Ev@ABI_1_0 4:4.8.4
 _ZN7Kasten19StatusBarD2Ev@ABI_1_0 4:4.8.4
 _ZNK7Kasten111ShellWindow10metaObjectEv@ABI_1_0 4:4.8.4
 _ZNK7Kasten111ShellWindow11dockWidgetsEv@ABI_1_0 4:4.8.4
 _ZNK7Kasten111ShellWindow11viewManagerEv@ABI_1_0 4:4.8.4
 _ZNK7Kasten111ShellWindow8viewAreaEv@ABI_1_0 4:4.8.4
 _ZNK7Kasten111TabbedViews10metaObjectEv@ABI_1_0 4:4.8.4
 _ZNK7Kasten111TabbedViews6widgetEv@ABI_1_0 4:4.8.4
 _ZNK7Kasten111TabbedViews7indexOfEPNS_12AbstractViewE@ABI_1_0 4:4.8.4
 _ZNK7Kasten111TabbedViews8hasFocusEv@ABI_1_0 4:4.8.4
 _ZNK7Kasten111TabbedViews8viewListEv@ABI_1_0 4:4.8.4
 _ZNK7Kasten111TabbedViews9viewCountEv@ABI_1_0 4:4.8.4
 _ZNK7Kasten111TabbedViews9viewFocusEv@ABI_1_0 4:4.8.4
 _ZNK7Kasten111ViewManager10metaObjectEv@ABI_1_0 4:4.8.4
 _ZNK7Kasten111ViewManager12viewByWidgetEP7QWidget@ABI_1_0 4:4.8.4
 _ZNK7Kasten111ViewManager5viewsEv@ABI_1_0 4:4.8.4
 _ZNK7Kasten112AbstractView10metaObjectEv@ABI_1_0 4:4.8.4
 _ZNK7Kasten112ToggleButton10metaObjectEv@ABI_1_0 4:4.8.4
 (optional=templinst)_ZNK7Kasten113AbstractModel13findBaseModelIPNS_16AbstractDocumentEEET_v@ABI_1_0 4:4.8.4
 _ZNK7Kasten113DialogHandler12queryDiscardEPKNS_16AbstractDocumentERK7QString@ABI_1_0 4:4.8.4
 _ZNK7Kasten113DialogHandler14queryOverwriteERK4KUrlRK7QString@ABI_1_0 4:4.8.4
 _ZNK7Kasten113DialogHandler16querySaveDiscardEPKNS_16AbstractDocumentERK7QString@ABI_1_0 4:4.8.4
 _ZNK7Kasten113DialogHandler20queryDiscardOnReloadEPKNS_16AbstractDocumentERK7QString@ABI_1_0 4:4.8.4
 _ZNK7Kasten114MultiViewAreas10metaObjectEv@ABI_1_0 4:4.8.4
 _ZNK7Kasten114MultiViewAreas13viewAreaFocusEv@ABI_1_0 4:4.8.4
 _ZNK7Kasten114MultiViewAreas14viewAreasCountEv@ABI_1_0 4:4.8.4
 _ZNK7Kasten114MultiViewAreas6widgetEv@ABI_1_0 4:4.8.4
 _ZNK7Kasten114MultiViewAreas7indexOfEPNS_12AbstractViewE@ABI_1_0 4:4.8.4
 _ZNK7Kasten114MultiViewAreas8hasFocusEv@ABI_1_0 4:4.8.4
 _ZNK7Kasten114MultiViewAreas8viewListEv@ABI_1_0 4:4.8.4
 _ZNK7Kasten114MultiViewAreas9viewCountEv@ABI_1_0 4:4.8.4
 _ZNK7Kasten114MultiViewAreas9viewFocusEv@ABI_1_0 4:4.8.4
 _ZNK7Kasten114SingleViewArea10metaObjectEv@ABI_1_0 4:4.8.4
 _ZNK7Kasten114SingleViewArea6widgetEv@ABI_1_0 4:4.8.4
 _ZNK7Kasten114SingleViewArea8hasFocusEv@ABI_1_0 4:4.8.4
 _ZNK7Kasten116AbstractViewArea10metaObjectEv@ABI_1_0 4:4.8.4
 _ZNK7Kasten116SingleViewWindow10metaObjectEv@ABI_1_0 4:4.8.4
 _ZNK7Kasten116SingleViewWindow11dockWidgetsEv@ABI_1_0 4:4.8.4
 _ZNK7Kasten116SingleViewWindow4viewEv@ABI_1_0 4:4.8.4
 _ZNK7Kasten116SingleViewWindow8viewAreaEv@ABI_1_0 4:4.8.4
 _ZNK7Kasten117AbstractLinePopup10metaObjectEv@ABI_1_0 4:4.8.4
 _ZNK7Kasten118AbstractController10metaObjectEv@ABI_1_0 4:4.8.4
 _ZNK7Kasten118AbstractToolWidget10metaObjectEv@ABI_1_0 4:4.8.4
 _ZNK7Kasten120AbstractGroupedViews10metaObjectEv@ABI_1_0 4:4.8.4
 _ZNK7Kasten121AbstractSelectionView10metaObjectEv@ABI_1_0 4:4.8.4
 _ZNK7Kasten121ModelCodecViewManager10metaObjectEv@ABI_1_0 4:4.8.4
 _ZNK7Kasten121ModelCodecViewManager18createConfigEditorEPNS_21AbstractModelExporterE@ABI_1_0 4:4.8.4
 _ZNK7Kasten121ModelCodecViewManager18createConfigEditorEPNS_26AbstractModelDataGeneratorE@ABI_1_0 4:4.8.4
 _ZNK7Kasten121ModelCodecViewManager18createConfigEditorEPNS_26AbstractModelStreamEncoderE@ABI_1_0 4:4.8.4
 _ZNK7Kasten121MultiDocumentStrategy10metaObjectEv@ABI_1_0 4:4.8.4
 _ZNK7Kasten121MultiDocumentStrategy11canCloseAllEv@ABI_1_0 4:4.8.4
 _ZNK7Kasten121MultiDocumentStrategy16canCloseAllOtherEPNS_16AbstractDocumentE@ABI_1_0 4:4.8.4
 _ZNK7Kasten121MultiDocumentStrategy20supportedRemoteTypesEv@ABI_1_0 4:4.8.4
 _ZNK7Kasten121MultiDocumentStrategy8canCloseEPNS_16AbstractDocumentE@ABI_1_0 4:4.8.4
 _ZNK7Kasten121MultiDocumentStrategy9documentsEv@ABI_1_0 4:4.8.4
 _ZNK7Kasten122SingleDocumentStrategy10metaObjectEv@ABI_1_0 4:4.8.4
 _ZNK7Kasten122SingleDocumentStrategy11canCloseAllEv@ABI_1_0 4:4.8.4
 _ZNK7Kasten122SingleDocumentStrategy16canCloseAllOtherEPNS_16AbstractDocumentE@ABI_1_0 4:4.8.4
 _ZNK7Kasten122SingleDocumentStrategy20supportedRemoteTypesEv@ABI_1_0 4:4.8.4
 _ZNK7Kasten122SingleDocumentStrategy8canCloseEPNS_16AbstractDocumentE@ABI_1_0 4:4.8.4
 _ZNK7Kasten122SingleDocumentStrategy9documentsEv@ABI_1_0 4:4.8.4
 _ZNK7Kasten124AbstractDocumentStrategy10metaObjectEv@ABI_1_0 4:4.8.4
 _ZNK7Kasten124AbstractXmlGuiController10metaObjectEv@ABI_1_0 4:4.8.4
 _ZNK7Kasten133AbstractModelExporterConfigEditor10metaObjectEv@ABI_1_0 4:4.8.4
 _ZNK7Kasten133AbstractModelExporterConfigEditor17createPreviewViewEv@ABI_1_0 4:4.8.4
 _ZNK7Kasten133AbstractModelExporterConfigEditor7isValidEv@ABI_1_0 4:4.8.4
 _ZNK7Kasten138AbstractModelDataGeneratorConfigEditor10metaObjectEv@ABI_1_0 4:4.8.4
 _ZNK7Kasten138AbstractModelDataGeneratorConfigEditor7isValidEv@ABI_1_0 4:4.8.4
 _ZNK7Kasten138AbstractModelStreamEncoderConfigEditor10metaObjectEv@ABI_1_0 4:4.8.4
 _ZNK7Kasten138AbstractModelStreamEncoderConfigEditor17createPreviewViewEv@ABI_1_0 4:4.8.4
 _ZNK7Kasten138AbstractModelStreamEncoderConfigEditor7isValidEv@ABI_1_0 4:4.8.4
 _ZNK7Kasten142ModelEncoderFileSystemExporterConfigEditor10metaObjectEv@ABI_1_0 4:4.8.4
 _ZNK7Kasten142ModelEncoderFileSystemExporterConfigEditor17createPreviewViewEv@ABI_1_0 4:4.8.4
 _ZNK7Kasten142ModelEncoderFileSystemExporterConfigEditor7isValidEv@ABI_1_0 4:4.8.4
 _ZNK7Kasten149ModelEncoderFileSystemExporterConfigEditorFactory21tryCreateConfigEditorEPNS_21AbstractModelExporterE@ABI_1_0 4:4.8.4
 _ZNK7Kasten19DummyView10metaObjectEv@ABI_1_0 4:4.8.4
 _ZNK7Kasten19DummyView5titleEv@ABI_1_0 4:4.8.4
 _ZNK7Kasten19DummyView6widgetEv@ABI_1_0 4:4.8.4
 _ZNK7Kasten19DummyView8hasFocusEv@ABI_1_0 4:4.8.4
 _ZNK7Kasten19StatusBar10metaObjectEv@ABI_1_0 4:4.8.4
 _ZTIN7Kasten111ShellWindowE@ABI_1_0 4:4.8.4
 _ZTIN7Kasten111TabbedViewsE@ABI_1_0 4:4.8.4
 _ZTIN7Kasten111ViewManagerE@ABI_1_0 4:4.8.4
 _ZTIN7Kasten112AbstractViewE@ABI_1_0 4:4.8.4
 _ZTIN7Kasten112ToggleButtonE@ABI_1_0 4:4.8.4
 _ZTIN7Kasten113DialogHandlerE@ABI_1_0 4:4.8.4
 _ZTIN7Kasten114MultiViewAreasE@ABI_1_0 4:4.8.4
 _ZTIN7Kasten114SingleViewAreaE@ABI_1_0 4:4.8.4
 _ZTIN7Kasten116AbstractToolViewE@ABI_1_0 4:4.8.4
 _ZTIN7Kasten116AbstractViewAreaE@ABI_1_0 4:4.8.4
 _ZTIN7Kasten116SingleViewWindowE@ABI_1_0 4:4.8.4
 _ZTIN7Kasten117AbstractLinePopupE@ABI_1_0 4:4.8.4
 _ZTIN7Kasten118AbstractControllerE@ABI_1_0 4:4.8.4
 _ZTIN7Kasten118AbstractToolWidgetE@ABI_1_0 4:4.8.4
 _ZTIN7Kasten119AbstractViewFactoryE@ABI_1_0 4:4.8.4
 _ZTIN7Kasten120AbstractGroupedViewsE@ABI_1_0 4:4.8.4
 _ZTIN7Kasten121AbstractSelectionViewE@ABI_1_0 4:4.8.4
 _ZTIN7Kasten121ModelCodecViewManagerE@ABI_1_0 4:4.8.4
 _ZTIN7Kasten121MultiDocumentStrategyE@ABI_1_0 4:4.8.4
 _ZTIN7Kasten122AbstractToolInlineViewE@ABI_1_0 4:4.8.4
 _ZTIN7Kasten122SingleDocumentStrategyE@ABI_1_0 4:4.8.4
 _ZTIN7Kasten123AbstractOverwriteDialogE@ABI_1_0 4:4.8.4
 _ZTIN7Kasten124AbstractDocumentStrategyE@ABI_1_0 4:4.8.4
 _ZTIN7Kasten124AbstractXmlGuiControllerE@ABI_1_0 4:4.8.4
 _ZTIN7Kasten125AbstractSaveDiscardDialogE@ABI_1_0 4:4.8.4
 _ZTIN7Kasten133AbstractModelExporterConfigEditorE@ABI_1_0 4:4.8.4
 _ZTIN7Kasten138AbstractModelDataGeneratorConfigEditorE@ABI_1_0 4:4.8.4
 _ZTIN7Kasten138AbstractModelStreamEncoderConfigEditorE@ABI_1_0 4:4.8.4
 _ZTIN7Kasten140AbstractModelExporterConfigEditorFactoryE@ABI_1_0 4:4.8.4
 _ZTIN7Kasten142ModelEncoderFileSystemExporterConfigEditorE@ABI_1_0 4:4.8.4
 _ZTIN7Kasten145AbstractModelDataGeneratorConfigEditorFactoryE@ABI_1_0 4:4.8.4
 _ZTIN7Kasten145AbstractModelStreamEncoderConfigEditorFactoryE@ABI_1_0 4:4.8.4
 _ZTIN7Kasten149ModelEncoderFileSystemExporterConfigEditorFactoryE@ABI_1_0 4:4.8.4
 _ZTIN7Kasten19DummyViewE@ABI_1_0 4:4.8.4
 _ZTIN7Kasten19StatusBarE@ABI_1_0 4:4.8.4
 _ZTSN7Kasten111ShellWindowE@ABI_1_0 4:4.8.4
 _ZTSN7Kasten111TabbedViewsE@ABI_1_0 4:4.8.4
 _ZTSN7Kasten111ViewManagerE@ABI_1_0 4:4.8.4
 _ZTSN7Kasten112AbstractViewE@ABI_1_0 4:4.8.4
 _ZTSN7Kasten112ToggleButtonE@ABI_1_0 4:4.8.4
 _ZTSN7Kasten113DialogHandlerE@ABI_1_0 4:4.8.4
 _ZTSN7Kasten114MultiViewAreasE@ABI_1_0 4:4.8.4
 _ZTSN7Kasten114SingleViewAreaE@ABI_1_0 4:4.8.4
 _ZTSN7Kasten116AbstractToolViewE@ABI_1_0 4:4.8.4
 _ZTSN7Kasten116AbstractViewAreaE@ABI_1_0 4:4.8.4
 _ZTSN7Kasten116SingleViewWindowE@ABI_1_0 4:4.8.4
 _ZTSN7Kasten117AbstractLinePopupE@ABI_1_0 4:4.8.4
 _ZTSN7Kasten118AbstractControllerE@ABI_1_0 4:4.8.4
 _ZTSN7Kasten118AbstractToolWidgetE@ABI_1_0 4:4.8.4
 _ZTSN7Kasten119AbstractViewFactoryE@ABI_1_0 4:4.8.4
 _ZTSN7Kasten120AbstractGroupedViewsE@ABI_1_0 4:4.8.4
 _ZTSN7Kasten121AbstractSelectionViewE@ABI_1_0 4:4.8.4
 _ZTSN7Kasten121ModelCodecViewManagerE@ABI_1_0 4:4.8.4
 _ZTSN7Kasten121MultiDocumentStrategyE@ABI_1_0 4:4.8.4
 _ZTSN7Kasten122AbstractToolInlineViewE@ABI_1_0 4:4.8.4
 _ZTSN7Kasten122SingleDocumentStrategyE@ABI_1_0 4:4.8.4
 _ZTSN7Kasten123AbstractOverwriteDialogE@ABI_1_0 4:4.8.4
 _ZTSN7Kasten124AbstractDocumentStrategyE@ABI_1_0 4:4.8.4
 _ZTSN7Kasten124AbstractXmlGuiControllerE@ABI_1_0 4:4.8.4
 _ZTSN7Kasten125AbstractSaveDiscardDialogE@ABI_1_0 4:4.8.4
 _ZTSN7Kasten133AbstractModelExporterConfigEditorE@ABI_1_0 4:4.8.4
 _ZTSN7Kasten138AbstractModelDataGeneratorConfigEditorE@ABI_1_0 4:4.8.4
 _ZTSN7Kasten138AbstractModelStreamEncoderConfigEditorE@ABI_1_0 4:4.8.4
 _ZTSN7Kasten140AbstractModelExporterConfigEditorFactoryE@ABI_1_0 4:4.8.4
 _ZTSN7Kasten142ModelEncoderFileSystemExporterConfigEditorE@ABI_1_0 4:4.8.4
 _ZTSN7Kasten145AbstractModelDataGeneratorConfigEditorFactoryE@ABI_1_0 4:4.8.4
 _ZTSN7Kasten145AbstractModelStreamEncoderConfigEditorFactoryE@ABI_1_0 4:4.8.4
 _ZTSN7Kasten149ModelEncoderFileSystemExporterConfigEditorFactoryE@ABI_1_0 4:4.8.4
 _ZTSN7Kasten19DummyViewE@ABI_1_0 4:4.8.4
 _ZTSN7Kasten19StatusBarE@ABI_1_0 4:4.8.4
 _ZTTN7Kasten111ShellWindowE@ABI_1_0 4:4.8.4
 _ZTTN7Kasten116SingleViewWindowE@ABI_1_0 4:4.8.4
 _ZTVN7Kasten111ShellWindowE@ABI_1_0 4:4.8.4
 _ZTVN7Kasten111TabbedViewsE@ABI_1_0 4:4.8.4
 _ZTVN7Kasten111ViewManagerE@ABI_1_0 4:4.8.4
 _ZTVN7Kasten112AbstractViewE@ABI_1_0 4:4.8.4
 _ZTVN7Kasten112ToggleButtonE@ABI_1_0 4:4.8.4
 _ZTVN7Kasten113DialogHandlerE@ABI_1_0 4:4.8.4
 _ZTVN7Kasten114MultiViewAreasE@ABI_1_0 4:4.8.4
 _ZTVN7Kasten114SingleViewAreaE@ABI_1_0 4:4.8.4
 _ZTVN7Kasten116AbstractToolViewE@ABI_1_0 4:4.8.4
 _ZTVN7Kasten116AbstractViewAreaE@ABI_1_0 4:4.8.4
 _ZTVN7Kasten116SingleViewWindowE@ABI_1_0 4:4.8.4
 _ZTVN7Kasten117AbstractLinePopupE@ABI_1_0 4:4.8.4
 _ZTVN7Kasten118AbstractControllerE@ABI_1_0 4:4.8.4
 _ZTVN7Kasten118AbstractToolWidgetE@ABI_1_0 4:4.8.4
 _ZTVN7Kasten119AbstractViewFactoryE@ABI_1_0 4:4.8.4
 _ZTVN7Kasten120AbstractGroupedViewsE@ABI_1_0 4:4.8.4
 _ZTVN7Kasten121AbstractSelectionViewE@ABI_1_0 4:4.8.4
 _ZTVN7Kasten121ModelCodecViewManagerE@ABI_1_0 4:4.8.4
 _ZTVN7Kasten121MultiDocumentStrategyE@ABI_1_0 4:4.8.4
 _ZTVN7Kasten122AbstractToolInlineViewE@ABI_1_0 4:4.8.4
 _ZTVN7Kasten122SingleDocumentStrategyE@ABI_1_0 4:4.8.4
 _ZTVN7Kasten123AbstractOverwriteDialogE@ABI_1_0 4:4.8.4
 _ZTVN7Kasten124AbstractDocumentStrategyE@ABI_1_0 4:4.8.4
 _ZTVN7Kasten124AbstractXmlGuiControllerE@ABI_1_0 4:4.8.4
 _ZTVN7Kasten125AbstractSaveDiscardDialogE@ABI_1_0 4:4.8.4
 _ZTVN7Kasten133AbstractModelExporterConfigEditorE@ABI_1_0 4:4.8.4
 _ZTVN7Kasten138AbstractModelDataGeneratorConfigEditorE@ABI_1_0 4:4.8.4
 _ZTVN7Kasten138AbstractModelStreamEncoderConfigEditorE@ABI_1_0 4:4.8.4
 _ZTVN7Kasten140AbstractModelExporterConfigEditorFactoryE@ABI_1_0 4:4.8.4
 _ZTVN7Kasten142ModelEncoderFileSystemExporterConfigEditorE@ABI_1_0 4:4.8.4
 _ZTVN7Kasten145AbstractModelDataGeneratorConfigEditorFactoryE@ABI_1_0 4:4.8.4
 _ZTVN7Kasten145AbstractModelStreamEncoderConfigEditorFactoryE@ABI_1_0 4:4.8.4
 _ZTVN7Kasten149ModelEncoderFileSystemExporterConfigEditorFactoryE@ABI_1_0 4:4.8.4
 _ZTVN7Kasten19DummyViewE@ABI_1_0 4:4.8.4
 _ZTVN7Kasten19StatusBarE@ABI_1_0 4:4.8.4
 (c++)"construction vtable for KXmlGuiWindow-in-Kasten1::ShellWindow@ABI_1_0" 4:4.8.4
 (c++)"construction vtable for KXmlGuiWindow-in-Kasten1::SingleViewWindow@ABI_1_0" 4:4.8.4
 (c++)"non-virtual thunk to Kasten1::AbstractLinePopup::~AbstractLinePopup()@ABI_1_0" 4:4.8.4
 (c++)"non-virtual thunk to Kasten1::AbstractModelDataGeneratorConfigEditor::~AbstractModelDataGeneratorConfigEditor()@ABI_1_0" 4:4.8.4
 (c++)"non-virtual thunk to Kasten1::AbstractModelExporterConfigEditor::~AbstractModelExporterConfigEditor()@ABI_1_0" 4:4.8.4
 (c++)"non-virtual thunk to Kasten1::AbstractModelStreamEncoderConfigEditor::~AbstractModelStreamEncoderConfigEditor()@ABI_1_0" 4:4.8.4
 (c++)"non-virtual thunk to Kasten1::AbstractToolWidget::~AbstractToolWidget()@ABI_1_0" 4:4.8.4
 (c++)"non-virtual thunk to Kasten1::DialogHandler::queryDiscard(Kasten1::AbstractDocument const*, QString const&) const@ABI_1_0" 4:4.8.4
 (c++)"non-virtual thunk to Kasten1::DialogHandler::queryDiscardOnReload(Kasten1::AbstractDocument const*, QString const&) const@ABI_1_0" 4:4.8.4
 (c++)"non-virtual thunk to Kasten1::DialogHandler::querySaveDiscard(Kasten1::AbstractDocument const*, QString const&) const@ABI_1_0" 4:4.8.4
 (c++)"non-virtual thunk to Kasten1::DialogHandler::~DialogHandler()@ABI_1_0" 4:4.8.4
 (c++)"non-virtual thunk to Kasten1::ModelEncoderFileSystemExporterConfigEditor::~ModelEncoderFileSystemExporterConfigEditor()@ABI_1_0" 4:4.8.4
 (c++)"non-virtual thunk to Kasten1::MultiViewAreas::closeViewArea(Kasten1::AbstractViewArea*)@ABI_1_0" 4:4.8.4
 (c++)"non-virtual thunk to Kasten1::MultiViewAreas::setCurrentToolInlineView(Kasten1::AbstractToolInlineView*)@ABI_1_0" 4:4.8.4
 (c++)"non-virtual thunk to Kasten1::MultiViewAreas::setViewAreaFocus(Kasten1::AbstractViewArea*)@ABI_1_0" 4:4.8.4
 (c++)"non-virtual thunk to Kasten1::MultiViewAreas::splitViewArea(Kasten1::AbstractViewArea*, Qt::Orientation)@ABI_1_0" 4:4.8.4
 (c++)"non-virtual thunk to Kasten1::MultiViewAreas::viewAreaFocus() const@ABI_1_0" 4:4.8.4
 (c++)"non-virtual thunk to Kasten1::MultiViewAreas::viewAreaFocusChanged(Kasten1::AbstractViewArea*)@ABI_1_0" 4:4.8.4
 (c++)"non-virtual thunk to Kasten1::MultiViewAreas::viewAreasAdded(QList<Kasten1::AbstractViewArea*> const&)@ABI_1_0" 4:4.8.4
 (c++)"non-virtual thunk to Kasten1::MultiViewAreas::viewAreasCount() const@ABI_1_0" 4:4.8.4
 (c++)"non-virtual thunk to Kasten1::MultiViewAreas::viewAreasRemoved(QList<Kasten1::AbstractViewArea*> const&)@ABI_1_0" 4:4.8.4
 (c++)"non-virtual thunk to Kasten1::MultiViewAreas::~MultiViewAreas()@ABI_1_0" 4:4.8.4
 (c++)"non-virtual thunk to Kasten1::ShellWindow::dockWidgets() const@ABI_1_0" 4:4.8.4
 (c++)"non-virtual thunk to Kasten1::ShellWindow::~ShellWindow()@ABI_1_0" 4:4.8.4
 (c++)"non-virtual thunk to Kasten1::SingleViewArea::setCurrentToolInlineView(Kasten1::AbstractToolInlineView*)@ABI_1_0" 4:4.8.4
 (c++)"non-virtual thunk to Kasten1::SingleViewArea::~SingleViewArea()@ABI_1_0" 4:4.8.4
 (c++)"non-virtual thunk to Kasten1::SingleViewWindow::dockWidgets() const@ABI_1_0" 4:4.8.4
 (c++)"non-virtual thunk to Kasten1::SingleViewWindow::~SingleViewWindow()@ABI_1_0" 4:4.8.4
 (c++)"non-virtual thunk to Kasten1::StatusBar::~StatusBar()@ABI_1_0" 4:4.8.4
 (c++)"non-virtual thunk to Kasten1::TabbedViews::setCurrentToolInlineView(Kasten1::AbstractToolInlineView*)@ABI_1_0" 4:4.8.4
 (c++)"non-virtual thunk to Kasten1::TabbedViews::~TabbedViews()@ABI_1_0" 4:4.8.4
 (c++)"non-virtual thunk to Kasten1::ToggleButton::~ToggleButton()@ABI_1_0" 4:4.8.4
 (c++)"virtual thunk to Kasten1::ShellWindow::~ShellWindow()@ABI_1_0" 4:4.8.4
 (c++)"virtual thunk to Kasten1::SingleViewWindow::~SingleViewWindow()@ABI_1_0" 4:4.8.4
