libkasten2okteta1gui.so.1 libkasten2okteta1gui1 #MINVER#
 _ZN6Okteta15AddressComboBox11qt_metacallEN11QMetaObject4CallEiPPv@Base 4:4.10.1
 _ZN6Okteta15AddressComboBox11qt_metacastEPKc@Base 4:4.10.1
 _ZN6Okteta15AddressComboBox13formatChangedEi@Base 4:4.10.1
 _ZN6Okteta15AddressComboBox14addressChangedEi@Base 4:4.10.1
 _ZN6Okteta15AddressComboBox16staticMetaObjectE@Base 4:4.10.1
 _ZN6Okteta15AddressComboBox18addressTypeChangedEi@Base 4:4.10.1
 _ZN6Okteta15AddressComboBox22rememberCurrentAddressEv@Base 4:4.10.1
 _ZN6Okteta15AddressComboBoxC1EP7QWidget@Base 4:4.10.1
 _ZN6Okteta15AddressComboBoxC2EP7QWidget@Base 4:4.10.1
 _ZN6Okteta15AddressComboBoxD0Ev@Base 4:4.10.1
 _ZN6Okteta15AddressComboBoxD1Ev@Base 4:4.10.1
 _ZN6Okteta15AddressComboBoxD2Ev@Base 4:4.10.1
 _ZN6Okteta17ByteArrayComboBox11qt_metacallEN11QMetaObject4CallEiPPv@Base 4:4.10.1
 _ZN6Okteta17ByteArrayComboBox11qt_metacastEPKc@Base 4:4.10.1
 _ZN6Okteta17ByteArrayComboBox12setByteArrayERK10QByteArray@Base 4:4.10.1
 _ZN6Okteta17ByteArrayComboBox12setCharCodecERK7QString@Base 4:4.10.1
 _ZN6Okteta17ByteArrayComboBox12setMaxLengthEi@Base 4:4.10.1
 _ZN6Okteta17ByteArrayComboBox12setMinLengthEi@Base 4:4.10.1
 _ZN6Okteta17ByteArrayComboBox13formatChangedEi@Base 4:4.10.1
 _ZN6Okteta17ByteArrayComboBox16byteArrayChangedERK10QByteArray@Base 4:4.10.1
 _ZN6Okteta17ByteArrayComboBox16staticMetaObjectE@Base 4:4.10.1
 _ZN6Okteta17ByteArrayComboBox24rememberCurrentByteArrayEv@Base 4:4.10.1
 _ZN6Okteta17ByteArrayComboBoxC1EP7QWidget@Base 4:4.10.1
 _ZN6Okteta17ByteArrayComboBoxC2EP7QWidget@Base 4:4.10.1
 _ZN6Okteta17ByteArrayComboBoxD0Ev@Base 4:4.10.1
 _ZN6Okteta17ByteArrayComboBoxD1Ev@Base 4:4.10.1
 _ZN6Okteta17ByteArrayComboBoxD2Ev@Base 4:4.10.1
 _ZN7Kasten213ByteArrayView10insertDataEPK9QMimeData@Base 4:4.10.1
 _ZN7Kasten213ByteArrayView10setMarkingERKN3KDE11NumberRangeIiiEEb@Base 4:4.10.1
 _ZN7Kasten213ByteArrayView11qt_metacallEN11QMetaObject4CallEiPPv@Base 4:4.10.1
 _ZN7Kasten213ByteArrayView11qt_metacastEPKc@Base 4:4.10.1
 _ZN7Kasten213ByteArrayView11setReadOnlyEb@Base 4:4.10.1
 _ZN7Kasten213ByteArrayView12setSelectionEii@Base 4:4.10.1
 _ZN7Kasten213ByteArrayView12setViewModusEi@Base 4:4.10.1
 _ZN7Kasten213ByteArrayView12setZoomLevelEd@Base 4:4.10.1
 _ZN7Kasten213ByteArrayView13selectAllDataEb@Base 4:4.10.1
 _ZN7Kasten213ByteArrayView13setCharCodingERK7QString@Base 4:4.10.1
 _ZN7Kasten213ByteArrayView14setLayoutStyleEi@Base 4:4.10.1
 _ZN7Kasten213ByteArrayView14setValueCodingEi@Base 4:4.10.1
 _ZN7Kasten213ByteArrayView15cutSelectedDataEv@Base 4:4.10.1
 _ZN7Kasten213ByteArrayView15setOffsetCodingEi@Base 4:4.10.1
 _ZN7Kasten213ByteArrayView16charCodecChangedERK7QString@Base 4:4.10.1
 _ZN7Kasten213ByteArrayView16setOverwriteModeEb@Base 4:4.10.1
 _ZN7Kasten213ByteArrayView16setUndefinedCharE5QChar@Base 4:4.10.1
 _ZN7Kasten213ByteArrayView16staticMetaObjectE@Base 4:4.10.1
 _ZN7Kasten213ByteArrayView16viewModusChangedEi@Base 4:4.10.1
 _ZN7Kasten213ByteArrayView16zoomLevelChangedEd@Base 4:4.10.1
 _ZN7Kasten213ByteArrayView17setCursorPositionEi@Base 4:4.10.1
 _ZN7Kasten213ByteArrayView17setSubstituteCharE5QChar@Base 4:4.10.1
 _ZN7Kasten213ByteArrayView18deleteSelectedDataEv@Base 4:4.10.1
 _ZN7Kasten213ByteArrayView18layoutStyleChangedEi@Base 4:4.10.1
 _ZN7Kasten213ByteArrayView18onSelectionChangedERKN3KDE11NumberRangeIiiEE@Base 4:4.10.1
 _ZN7Kasten213ByteArrayView18toggleOffsetColumnEb@Base 4:4.10.1
 _ZN7Kasten213ByteArrayView18valueCodingChangedEi@Base 4:4.10.1
 _ZN7Kasten213ByteArrayView19offsetCodingChangedEi@Base 4:4.10.1
 _ZN7Kasten213ByteArrayView19selectedDataChangedEPKNS_22AbstractModelSelectionE@Base 4:4.10.1
 _ZN7Kasten213ByteArrayView19setNoOfBytesPerLineEi@Base 4:4.10.1
 _ZN7Kasten213ByteArrayView19setNoOfGroupedBytesEi@Base 4:4.10.1
 _ZN7Kasten213ByteArrayView19setShowsNonprintingEb@Base 4:4.10.1
 _ZN7Kasten213ByteArrayView20overwriteModeChangedEb@Base 4:4.10.1
 _ZN7Kasten213ByteArrayView20undefinedCharChangedE5QChar@Base 4:4.10.1
 _ZN7Kasten213ByteArrayView21cursorPositionChangedEi@Base 4:4.10.1
 _ZN7Kasten213ByteArrayView21substituteCharChangedE5QChar@Base 4:4.10.1
 _ZN7Kasten213ByteArrayView22hasSelectedDataChangedEb@Base 4:4.10.1
 _ZN7Kasten213ByteArrayView23noOfBytesPerLineChangedEi@Base 4:4.10.1
 _ZN7Kasten213ByteArrayView23noOfGroupedBytesChangedEi@Base 4:4.10.1
 _ZN7Kasten213ByteArrayView23setFontByGlobalSettingsEv@Base 4:4.10.1
 _ZN7Kasten213ByteArrayView23showsNonprintingChangedEb@Base 4:4.10.1
 _ZN7Kasten213ByteArrayView26offsetColumnVisibleChangedEb@Base 4:4.10.1
 _ZN7Kasten213ByteArrayView26setSelectionCursorPositionEi@Base 4:4.10.1
 _ZN7Kasten213ByteArrayView26setVisibleByteArrayCodingsEi@Base 4:4.10.1
 _ZN7Kasten213ByteArrayView30visibleByteArrayCodingsChangedEi@Base 4:4.10.1
 _ZN7Kasten213ByteArrayView4initEv@Base 4:4.10.1
 _ZN7Kasten213ByteArrayView6insertERK10QByteArray@Base 4:4.10.1
 _ZN7Kasten213ByteArrayView8setFocusEv@Base 4:4.10.1
 _ZN7Kasten213ByteArrayViewC1EPNS_17ByteArrayDocumentEPNS_32ByteArrayViewProfileSynchronizerE@Base 4:4.10.1
 _ZN7Kasten213ByteArrayViewC1EPS0_PNS_32ByteArrayViewProfileSynchronizerE6QFlagsIN2Qt13AlignmentFlagEE@Base 4:4.10.1
 _ZN7Kasten213ByteArrayViewC2EPNS_17ByteArrayDocumentEPNS_32ByteArrayViewProfileSynchronizerE@Base 4:4.10.1
 _ZN7Kasten213ByteArrayViewC2EPS0_PNS_32ByteArrayViewProfileSynchronizerE6QFlagsIN2Qt13AlignmentFlagEE@Base 4:4.10.1
 _ZN7Kasten213ByteArrayViewD0Ev@Base 4:4.10.1
 _ZN7Kasten213ByteArrayViewD1Ev@Base 4:4.10.1
 _ZN7Kasten213ByteArrayViewD2Ev@Base 4:4.10.1
 _ZN7Kasten219AbstractViewFactory16createCopyOfViewEPNS_12AbstractViewE6QFlagsIN2Qt13AlignmentFlagEE@Base 4:4.10.1
 _ZN7Kasten219AbstractViewFactoryD0Ev@Base 4:4.10.1
 _ZN7Kasten219AbstractViewFactoryD1Ev@Base 4:4.10.1
 _ZN7Kasten219AbstractViewFactoryD2Ev@Base 4:4.10.1
 _ZN7Kasten220ByteArrayViewFactory13createViewForEPNS_16AbstractDocumentE@Base 4:4.10.1
 _ZN7Kasten220ByteArrayViewFactory16createCopyOfViewEPNS_12AbstractViewE6QFlagsIN2Qt13AlignmentFlagEE@Base 4:4.10.1
 _ZN7Kasten220ByteArrayViewFactoryC1EPNS_27ByteArrayViewProfileManagerE@Base 4:4.10.1
 _ZN7Kasten220ByteArrayViewFactoryC2EPNS_27ByteArrayViewProfileManagerE@Base 4:4.10.1
 _ZN7Kasten220ByteArrayViewFactoryD0Ev@Base 4:4.10.1
 _ZN7Kasten220ByteArrayViewFactoryD1Ev@Base 4:4.10.1
 _ZN7Kasten220ByteArrayViewFactoryD2Ev@Base 4:4.10.1
 _ZN7Kasten220ByteArrayViewProfile12setViewModusEi@Base 4:4.10.1
 _ZN7Kasten220ByteArrayViewProfile13setCharCodingERK7QString@Base 4:4.10.1
 _ZN7Kasten220ByteArrayViewProfile14setLayoutStyleEi@Base 4:4.10.1
 _ZN7Kasten220ByteArrayViewProfile14setValueCodingEi@Base 4:4.10.1
 _ZN7Kasten220ByteArrayViewProfile15setOffsetCodingEi@Base 4:4.10.1
 _ZN7Kasten220ByteArrayViewProfile16setUndefinedCharERK5QChar@Base 4:4.10.1
 _ZN7Kasten220ByteArrayViewProfile17setSubstituteCharERK5QChar@Base 4:4.10.1
 _ZN7Kasten220ByteArrayViewProfile19setNoOfBytesPerLineEi@Base 4:4.10.1
 _ZN7Kasten220ByteArrayViewProfile19setNoOfGroupedBytesEi@Base 4:4.10.1
 _ZN7Kasten220ByteArrayViewProfile19setShowsNonprintingEb@Base 4:4.10.1
 _ZN7Kasten220ByteArrayViewProfile19setViewProfileTitleERK7QString@Base 4:4.10.1
 _ZN7Kasten220ByteArrayViewProfile22setOffsetColumnVisibleEb@Base 4:4.10.1
 _ZN7Kasten220ByteArrayViewProfile26setVisibleByteArrayCodingsEi@Base 4:4.10.1
 _ZN7Kasten220ByteArrayViewProfile5setIdERK7QString@Base 4:4.10.1
 _ZN7Kasten220ByteArrayViewProfileC1ERKS0_@Base 4:4.10.1
 _ZN7Kasten220ByteArrayViewProfileC1Ev@Base 4:4.10.1
 _ZN7Kasten220ByteArrayViewProfileC2ERKS0_@Base 4:4.10.1
 _ZN7Kasten220ByteArrayViewProfileC2Ev@Base 4:4.10.1
 _ZN7Kasten220ByteArrayViewProfileD1Ev@Base 4:4.10.1
 _ZN7Kasten220ByteArrayViewProfileD2Ev@Base 4:4.10.1
 _ZN7Kasten220ByteArrayViewProfileaSERKS0_@Base 4:4.10.1
 _ZN7Kasten224ByteArrayViewProfileLock6unlockEv@Base 4:4.10.1
 _ZN7Kasten224ByteArrayViewProfileLockC1ERK7QStringS3_@Base 4:4.10.1
 _ZN7Kasten224ByteArrayViewProfileLockC1ERKS0_@Base 4:4.10.1
 _ZN7Kasten224ByteArrayViewProfileLockC2ERK7QStringS3_@Base 4:4.10.1
 _ZN7Kasten224ByteArrayViewProfileLockC2ERKS0_@Base 4:4.10.1
 _ZN7Kasten224ByteArrayViewProfileLockD1Ev@Base 4:4.10.1
 _ZN7Kasten224ByteArrayViewProfileLockD2Ev@Base 4:4.10.1
 _ZN7Kasten224ByteArrayViewProfileLockaSERKS0_@Base 4:4.10.1
 _ZN7Kasten227ByteArrayViewProfileManager10createLockERK7QString@Base 4:4.10.1
 _ZN7Kasten227ByteArrayViewProfileManager11qt_metacallEN11QMetaObject4CallEiPPv@Base 4:4.10.1
 _ZN7Kasten227ByteArrayViewProfileManager11qt_metacastEPKc@Base 4:4.10.1
 _ZN7Kasten227ByteArrayViewProfileManager16saveViewProfilesER5QListINS_20ByteArrayViewProfileEE@Base 4:4.10.1
 _ZN7Kasten227ByteArrayViewProfileManager16staticMetaObjectE@Base 4:4.10.1
 _ZN7Kasten227ByteArrayViewProfileManager17removeViewProfileERK7QString@Base 4:4.10.1
 _ZN7Kasten227ByteArrayViewProfileManager18removeViewProfilesERK5QListI7QStringE@Base 4:4.10.1
 _ZN7Kasten227ByteArrayViewProfileManager18viewProfilesLockedERK5QListI7QStringE@Base 4:4.10.1
 _ZN7Kasten227ByteArrayViewProfileManager19viewProfilesChangedERK5QListINS_20ByteArrayViewProfileEE@Base 4:4.10.1
 _ZN7Kasten227ByteArrayViewProfileManager19viewProfilesRemovedERK5QListI7QStringE@Base 4:4.10.1
 _ZN7Kasten227ByteArrayViewProfileManager20viewProfilesUnlockedERK5QListI7QStringE@Base 4:4.10.1
 _ZN7Kasten227ByteArrayViewProfileManager21setDefaultViewProfileERK7QString@Base 4:4.10.1
 _ZN7Kasten227ByteArrayViewProfileManager25defaultViewProfileChangedERK7QString@Base 4:4.10.1
 _ZN7Kasten227ByteArrayViewProfileManager27onDefaultViewProfileChangedERK7QString@Base 4:4.10.1
 _ZN7Kasten227ByteArrayViewProfileManager27onViewProfilesFolderChangedERK7QString@Base 4:4.10.1
 _ZN7Kasten227ByteArrayViewProfileManagerC1Ev@Base 4:4.10.1
 _ZN7Kasten227ByteArrayViewProfileManagerC2Ev@Base 4:4.10.1
 _ZN7Kasten227ByteArrayViewProfileManagerD0Ev@Base 4:4.10.1
 _ZN7Kasten227ByteArrayViewProfileManagerD1Ev@Base 4:4.10.1
 _ZN7Kasten227ByteArrayViewProfileManagerD2Ev@Base 4:4.10.1
 _ZN7Kasten229ByteArrayDataGeneratorFactory20createDataGeneratorsEv@Base 4:4.10.1
 _ZN7Kasten229ByteArrayStreamEncoderFactory20createStreamEncodersEv@Base 4:4.10.1
 _ZN7Kasten230AbstractByteArrayStreamEncoder11previewDataEPNS_13AbstractModelEPKNS_22AbstractModelSelectionE@Base 4:4.10.1
 _ZN7Kasten230AbstractByteArrayStreamEncoder11qt_metacallEN11QMetaObject4CallEiPPv@Base 4:4.10.1
 _ZN7Kasten230AbstractByteArrayStreamEncoder11qt_metacastEPKc@Base 4:4.10.1
 _ZN7Kasten230AbstractByteArrayStreamEncoder14encodeToStreamEP9QIODevicePNS_13AbstractModelEPKNS_22AbstractModelSelectionE@Base 4:4.10.1
 _ZN7Kasten230AbstractByteArrayStreamEncoder15settingsChangedEv@Base 4:4.10.1
 _ZN7Kasten230AbstractByteArrayStreamEncoder16staticMetaObjectE@Base 4:4.10.1
 _ZN7Kasten230AbstractByteArrayStreamEncoderC1ERK7QStringS3_@Base 4:4.10.1
 _ZN7Kasten230AbstractByteArrayStreamEncoderC2ERK7QStringS3_@Base 4:4.10.1
 _ZN7Kasten230AbstractByteArrayStreamEncoderD0Ev@Base 4:4.10.1
 _ZN7Kasten230AbstractByteArrayStreamEncoderD1Ev@Base 4:4.10.1
 _ZN7Kasten230AbstractByteArrayStreamEncoderD2Ev@Base 4:4.10.1
 _ZN7Kasten232ByteArrayViewProfileSynchronizer10updateViewERKNS_20ByteArrayViewProfileE@Base 4:4.10.1
 _ZN7Kasten232ByteArrayViewProfileSynchronizer11qt_metacallEN11QMetaObject4CallEiPPv@Base 4:4.10.1
 _ZN7Kasten232ByteArrayViewProfileSynchronizer11qt_metacastEPKc@Base 4:4.10.1
 _ZN7Kasten232ByteArrayViewProfileSynchronizer12setDirtyFlagEi@Base 4:4.10.1
 _ZN7Kasten232ByteArrayViewProfileSynchronizer12syncToRemoteEv@Base 4:4.10.1
 _ZN7Kasten232ByteArrayViewProfileSynchronizer14syncFromRemoteEv@Base 4:4.10.1
 _ZN7Kasten232ByteArrayViewProfileSynchronizer16setViewProfileIdERK7QString@Base 4:4.10.1
 _ZN7Kasten232ByteArrayViewProfileSynchronizer16staticMetaObjectE@Base 4:4.10.1
 _ZN7Kasten232ByteArrayViewProfileSynchronizer17updateViewProfileERNS_20ByteArrayViewProfileE@Base 4:4.10.1
 _ZN7Kasten232ByteArrayViewProfileSynchronizer18connectViewSignalsEv@Base 4:4.10.1
 _ZN7Kasten232ByteArrayViewProfileSynchronizer18onCharCodecChangedEv@Base 4:4.10.1
 _ZN7Kasten232ByteArrayViewProfileSynchronizer18onViewModusChangedEv@Base 4:4.10.1
 _ZN7Kasten232ByteArrayViewProfileSynchronizer18viewProfileChangedERK7QString@Base 4:4.10.1
 _ZN7Kasten232ByteArrayViewProfileSynchronizer20onLayoutStyleChangedEv@Base 4:4.10.1
 _ZN7Kasten232ByteArrayViewProfileSynchronizer20onValueCodingChangedEv@Base 4:4.10.1
 _ZN7Kasten232ByteArrayViewProfileSynchronizer21localSyncStateChangedENS_14LocalSyncStateE@Base 4:4.10.1
 _ZN7Kasten232ByteArrayViewProfileSynchronizer21onOffsetCodingChangedEv@Base 4:4.10.1
 _ZN7Kasten232ByteArrayViewProfileSynchronizer21onViewProfilesChangedERK5QListINS_20ByteArrayViewProfileEE@Base 4:4.10.1
 _ZN7Kasten232ByteArrayViewProfileSynchronizer21onViewProfilesRemovedERK5QListI7QStringE@Base 4:4.10.1
 _ZN7Kasten232ByteArrayViewProfileSynchronizer22onUndefinedCharChangedEv@Base 4:4.10.1
 _ZN7Kasten232ByteArrayViewProfileSynchronizer23onSubstituteCharChangedEv@Base 4:4.10.1
 _ZN7Kasten232ByteArrayViewProfileSynchronizer25onNoOfBytesPerLineChangedEv@Base 4:4.10.1
 _ZN7Kasten232ByteArrayViewProfileSynchronizer25onNoOfGroupedBytesChangedEv@Base 4:4.10.1
 _ZN7Kasten232ByteArrayViewProfileSynchronizer25onShowsNonprintingChangedEv@Base 4:4.10.1
 _ZN7Kasten232ByteArrayViewProfileSynchronizer28onOffsetColumnVisibleChangedEv@Base 4:4.10.1
 _ZN7Kasten232ByteArrayViewProfileSynchronizer32onVisibleByteArrayCodingsChangedEv@Base 4:4.10.1
 _ZN7Kasten232ByteArrayViewProfileSynchronizer7setViewEPNS_13ByteArrayViewE@Base 4:4.10.1
 _ZN7Kasten232ByteArrayViewProfileSynchronizerC1EPNS_27ByteArrayViewProfileManagerE@Base 4:4.10.1
 _ZN7Kasten232ByteArrayViewProfileSynchronizerC2EPNS_27ByteArrayViewProfileManagerE@Base 4:4.10.1
 _ZN7Kasten232ByteArrayViewProfileSynchronizerD0Ev@Base 4:4.10.1
 _ZN7Kasten232ByteArrayViewProfileSynchronizerD1Ev@Base 4:4.10.1
 _ZN7Kasten232ByteArrayViewProfileSynchronizerD2Ev@Base 4:4.10.1
 _ZN7Kasten245AbstractModelDataGeneratorConfigEditorFactoryD0Ev@Base 4:4.10.1
 _ZN7Kasten245AbstractModelDataGeneratorConfigEditorFactoryD1Ev@Base 4:4.10.1
 _ZN7Kasten245AbstractModelDataGeneratorConfigEditorFactoryD2Ev@Base 4:4.10.1
 _ZN7Kasten245AbstractModelStreamEncoderConfigEditorFactoryD0Ev@Base 4:4.10.1
 _ZN7Kasten245AbstractModelStreamEncoderConfigEditorFactoryD1Ev@Base 4:4.10.1
 _ZN7Kasten245AbstractModelStreamEncoderConfigEditorFactoryD2Ev@Base 4:4.10.1
 _ZN7Kasten248ByteArrayDataGeneratorConfigEditorFactoryFactory14createFactorysEv@Base 4:4.10.1
 _ZN7Kasten248ByteArrayStreamEncoderConfigEditorFactoryFactory14createFactorysEv@Base 4:4.10.1
 _ZNK6Okteta15AddressComboBox10metaObjectEv@Base 4:4.10.1
 _ZNK6Okteta15AddressComboBox11addressTypeEv@Base 4:4.10.1
 _ZNK6Okteta15AddressComboBox6formatEv@Base 4:4.10.1
 _ZNK6Okteta15AddressComboBox7addressEv@Base 4:4.10.1
 _ZNK6Okteta17ByteArrayComboBox10metaObjectEv@Base 4:4.10.1
 _ZNK6Okteta17ByteArrayComboBox6formatEv@Base 4:4.10.1
 _ZNK6Okteta17ByteArrayComboBox9byteArrayEv@Base 4:4.10.1
 _ZNK6Okteta17ByteArrayComboBox9maxLengthEv@Base 4:4.10.1
 _ZNK6Okteta17ByteArrayComboBox9minLengthEv@Base 4:4.10.1
 _ZNK7Kasten213ByteArrayView10cursorRectEv@Base 4:4.10.1
 _ZNK7Kasten213ByteArrayView10isReadOnlyEv@Base 4:4.10.1
 _ZNK7Kasten213ByteArrayView10metaObjectEv@Base 4:4.10.1
 _ZNK7Kasten213ByteArrayView11canReadDataEPK9QMimeData@Base 4:4.10.1
 _ZNK7Kasten213ByteArrayView11layoutStyleEv@Base 4:4.10.1
 _ZNK7Kasten213ByteArrayView11startOffsetEv@Base 4:4.10.1
 _ZNK7Kasten213ByteArrayView11valueCodingEv@Base 4:4.10.1
 _ZNK7Kasten213ByteArrayView12isModifiableEv@Base 4:4.10.1
 _ZNK7Kasten213ByteArrayView12offsetCodingEv@Base 4:4.10.1
 _ZNK7Kasten213ByteArrayView12synchronizerEv@Base 4:4.10.1
 _ZNK7Kasten213ByteArrayView13undefinedCharEv@Base 4:4.10.1
 _ZNK7Kasten213ByteArrayView14binaryGapWidthEv@Base 4:4.10.1
 _ZNK7Kasten213ByteArrayView14charCodingNameEv@Base 4:4.10.1
 _ZNK7Kasten213ByteArrayView14cursorPositionEv@Base 4:4.10.1
 _ZNK7Kasten213ByteArrayView14modelSelectionEv@Base 4:4.10.1
 _ZNK7Kasten213ByteArrayView14substituteCharEv@Base 4:4.10.1
 _ZNK7Kasten213ByteArrayView15firstLineOffsetEv@Base 4:4.10.1
 _ZNK7Kasten213ByteArrayView15hasSelectedDataEv@Base 4:4.10.1
 _ZNK7Kasten213ByteArrayView15isOverwriteModeEv@Base 4:4.10.1
 _ZNK7Kasten213ByteArrayView15isOverwriteOnlyEv@Base 4:4.10.1
 _ZNK7Kasten213ByteArrayView16byteSpacingWidthEv@Base 4:4.10.1
 _ZNK7Kasten213ByteArrayView16copySelectedDataEv@Base 4:4.10.1
 _ZNK7Kasten213ByteArrayView16noOfBytesPerLineEv@Base 4:4.10.1
 _ZNK7Kasten213ByteArrayView16noOfGroupedBytesEv@Base 4:4.10.1
 _ZNK7Kasten213ByteArrayView16showsNonprintingEv@Base 4:4.10.1
 _ZNK7Kasten213ByteArrayView17groupSpacingWidthEv@Base 4:4.10.1
 _ZNK7Kasten213ByteArrayView19offsetColumnVisibleEv@Base 4:4.10.1
 _ZNK7Kasten213ByteArrayView23visibleByteArrayCodingsEv@Base 4:4.10.1
 _ZNK7Kasten213ByteArrayView5titleEv@Base 4:4.10.1
 _ZNK7Kasten213ByteArrayView6widgetEv@Base 4:4.10.1
 _ZNK7Kasten213ByteArrayView8hasFocusEv@Base 4:4.10.1
 _ZNK7Kasten213ByteArrayView9selectionEv@Base 4:4.10.1
 _ZNK7Kasten213ByteArrayView9viewModusEv@Base 4:4.10.1
 _ZNK7Kasten213ByteArrayView9zoomLevelEv@Base 4:4.10.1
 _ZNK7Kasten220ByteArrayViewProfile11layoutStyleEv@Base 4:4.10.1
 _ZNK7Kasten220ByteArrayViewProfile11valueCodingEv@Base 4:4.10.1
 _ZNK7Kasten220ByteArrayViewProfile12offsetCodingEv@Base 4:4.10.1
 _ZNK7Kasten220ByteArrayViewProfile13undefinedCharEv@Base 4:4.10.1
 _ZNK7Kasten220ByteArrayViewProfile14charCodingNameEv@Base 4:4.10.1
 _ZNK7Kasten220ByteArrayViewProfile14substituteCharEv@Base 4:4.10.1
 _ZNK7Kasten220ByteArrayViewProfile16noOfBytesPerLineEv@Base 4:4.10.1
 _ZNK7Kasten220ByteArrayViewProfile16noOfGroupedBytesEv@Base 4:4.10.1
 _ZNK7Kasten220ByteArrayViewProfile16showsNonprintingEv@Base 4:4.10.1
 _ZNK7Kasten220ByteArrayViewProfile16viewProfileTitleEv@Base 4:4.10.1
 _ZNK7Kasten220ByteArrayViewProfile19offsetColumnVisibleEv@Base 4:4.10.1
 _ZNK7Kasten220ByteArrayViewProfile23visibleByteArrayCodingsEv@Base 4:4.10.1
 _ZNK7Kasten220ByteArrayViewProfile2idEv@Base 4:4.10.1
 _ZNK7Kasten220ByteArrayViewProfile9viewModusEv@Base 4:4.10.1
 _ZNK7Kasten224ByteArrayViewProfileLock13viewProfileIdEv@Base 4:4.10.1
 _ZNK7Kasten224ByteArrayViewProfileLock8isLockedEv@Base 4:4.10.1
 _ZNK7Kasten227ByteArrayViewProfileManager10metaObjectEv@Base 4:4.10.1
 _ZNK7Kasten227ByteArrayViewProfileManager11viewProfileERK7QString@Base 4:4.10.1
 _ZNK7Kasten227ByteArrayViewProfileManager12viewProfilesEv@Base 4:4.10.1
 _ZNK7Kasten227ByteArrayViewProfileManager15loadViewProfileERK7QString@Base 4:4.10.1
 _ZNK7Kasten227ByteArrayViewProfileManager15saveViewProfileERKNS_20ByteArrayViewProfileE@Base 4:4.10.1
 _ZNK7Kasten227ByteArrayViewProfileManager17viewProfilesCountEv@Base 4:4.10.1
 _ZNK7Kasten227ByteArrayViewProfileManager18defaultViewProfileEv@Base 4:4.10.1
 _ZNK7Kasten227ByteArrayViewProfileManager19isViewProfileLockedERK7QString@Base 4:4.10.1
 _ZNK7Kasten227ByteArrayViewProfileManager20defaultViewProfileIdEv@Base 4:4.10.1
 _ZNK7Kasten227ByteArrayViewProfileManager21filePathOfViewProfileERK7QString@Base 4:4.10.1
 _ZNK7Kasten230AbstractByteArrayStreamEncoder10metaObjectEv@Base 4:4.10.1
 _ZNK7Kasten230AbstractByteArrayStreamEncoder13modelTypeNameEPNS_13AbstractModelEPKNS_22AbstractModelSelectionE@Base 4:4.10.1
 _ZNK7Kasten232ByteArrayViewProfileSynchronizer10metaObjectEv@Base 4:4.10.1
 _ZNK7Kasten232ByteArrayViewProfileSynchronizer14localSyncStateEv@Base 4:4.10.1
 _ZTIN6Okteta15AddressComboBoxE@Base 4:4.10.1
 _ZTIN6Okteta17ByteArrayComboBoxE@Base 4:4.10.1
 _ZTIN7Kasten213ByteArrayViewE@Base 4:4.10.1
 _ZTIN7Kasten219AbstractViewFactoryE@Base 4:4.10.1
 _ZTIN7Kasten220ByteArrayViewFactoryE@Base 4:4.10.1
 _ZTIN7Kasten227ByteArrayViewProfileManagerE@Base 4:4.10.1
 _ZTIN7Kasten230AbstractByteArrayStreamEncoderE@Base 4:4.10.1
 _ZTIN7Kasten232ByteArrayViewProfileSynchronizerE@Base 4:4.10.1
 _ZTIN7Kasten245AbstractModelDataGeneratorConfigEditorFactoryE@Base 4:4.10.1
 _ZTIN7Kasten245AbstractModelStreamEncoderConfigEditorFactoryE@Base 4:4.10.1
 _ZTSN6Okteta15AddressComboBoxE@Base 4:4.10.1
 _ZTSN6Okteta17ByteArrayComboBoxE@Base 4:4.10.1
 _ZTSN7Kasten213ByteArrayViewE@Base 4:4.10.1
 _ZTSN7Kasten219AbstractViewFactoryE@Base 4:4.10.1
 _ZTSN7Kasten220ByteArrayViewFactoryE@Base 4:4.10.1
 _ZTSN7Kasten227ByteArrayViewProfileManagerE@Base 4:4.10.1
 _ZTSN7Kasten230AbstractByteArrayStreamEncoderE@Base 4:4.10.1
 _ZTSN7Kasten232ByteArrayViewProfileSynchronizerE@Base 4:4.10.1
 _ZTSN7Kasten245AbstractModelDataGeneratorConfigEditorFactoryE@Base 4:4.10.1
 _ZTSN7Kasten245AbstractModelStreamEncoderConfigEditorFactoryE@Base 4:4.10.1
 _ZTVN6Okteta15AddressComboBoxE@Base 4:4.10.1
 _ZTVN6Okteta17ByteArrayComboBoxE@Base 4:4.10.1
 _ZTVN7Kasten213ByteArrayViewE@Base 4:4.10.1
 _ZTVN7Kasten219AbstractViewFactoryE@Base 4:4.10.1
 _ZTVN7Kasten220ByteArrayViewFactoryE@Base 4:4.10.1
 _ZTVN7Kasten227ByteArrayViewProfileManagerE@Base 4:4.10.1
 _ZTVN7Kasten230AbstractByteArrayStreamEncoderE@Base 4:4.10.1
 _ZTVN7Kasten232ByteArrayViewProfileSynchronizerE@Base 4:4.10.1
 _ZTVN7Kasten245AbstractModelDataGeneratorConfigEditorFactoryE@Base 4:4.10.1
 _ZTVN7Kasten245AbstractModelStreamEncoderConfigEditorFactoryE@Base 4:4.10.1
 _ZThn16_N6Okteta15AddressComboBoxD0Ev@Base 4:4.10.1
 _ZThn16_N6Okteta15AddressComboBoxD1Ev@Base 4:4.10.1
 _ZThn16_N6Okteta17ByteArrayComboBoxD0Ev@Base 4:4.10.1
 _ZThn16_N6Okteta17ByteArrayComboBoxD1Ev@Base 4:4.10.1
 _ZThn24_N7Kasten213ByteArrayView12setZoomLevelEd@Base 4:4.10.1
 _ZThn24_N7Kasten213ByteArrayView16zoomLevelChangedEd@Base 4:4.10.1
 _ZThn24_N7Kasten213ByteArrayViewD0Ev@Base 4:4.10.1
 _ZThn24_N7Kasten213ByteArrayViewD1Ev@Base 4:4.10.1
 _ZThn24_NK7Kasten213ByteArrayView9zoomLevelEv@Base 4:4.10.1
 _ZThn32_N7Kasten213ByteArrayView13selectAllDataEb@Base 4:4.10.1
 _ZThn32_N7Kasten213ByteArrayView19selectedDataChangedEPKNS_22AbstractModelSelectionE@Base 4:4.10.1
 _ZThn32_N7Kasten213ByteArrayView22hasSelectedDataChangedEb@Base 4:4.10.1
 _ZThn32_N7Kasten213ByteArrayViewD0Ev@Base 4:4.10.1
 _ZThn32_N7Kasten213ByteArrayViewD1Ev@Base 4:4.10.1
 _ZThn32_NK7Kasten213ByteArrayView14modelSelectionEv@Base 4:4.10.1
 _ZThn32_NK7Kasten213ByteArrayView15hasSelectedDataEv@Base 4:4.10.1
 _ZThn32_NK7Kasten213ByteArrayView16copySelectedDataEv@Base 4:4.10.1
 _ZThn40_N7Kasten213ByteArrayView10insertDataEPK9QMimeData@Base 4:4.10.1
 _ZThn40_N7Kasten213ByteArrayView15cutSelectedDataEv@Base 4:4.10.1
 _ZThn40_N7Kasten213ByteArrayView18deleteSelectedDataEv@Base 4:4.10.1
 _ZThn40_N7Kasten213ByteArrayViewD0Ev@Base 4:4.10.1
 _ZThn40_N7Kasten213ByteArrayViewD1Ev@Base 4:4.10.1
 _ZThn40_NK7Kasten213ByteArrayView11canReadDataEPK9QMimeData@Base 4:4.10.1
