libkasten2okteta1controllers.so.1 libkasten2okteta1controllers1 #MINVER#
 _ZN7Kasten210FilterTool11qt_metacallEN11QMetaObject4CallEiPPv@Base 4:4.10.1
 _ZN7Kasten210FilterTool11qt_metacastEPKc@Base 4:4.10.1
 _ZN7Kasten210FilterTool12parameterSetEi@Base 4:4.10.1
 _ZN7Kasten210FilterTool14setTargetModelEPNS_13AbstractModelE@Base 4:4.10.1
 _ZN7Kasten210FilterTool16charCodecChangedERK7QString@Base 4:4.10.1
 _ZN7Kasten210FilterTool16staticMetaObjectE@Base 4:4.10.1
 _ZN7Kasten210FilterTool18onApplyableChangedEv@Base 4:4.10.1
 _ZN7Kasten210FilterTool19hasWriteableChangedEb@Base 4:4.10.1
 _ZN7Kasten210FilterToolC1Ev@Base 4:4.10.1
 _ZN7Kasten210FilterToolC2Ev@Base 4:4.10.1
 _ZN7Kasten210FilterToolD0Ev@Base 4:4.10.1
 _ZN7Kasten210FilterToolD1Ev@Base 4:4.10.1
 _ZN7Kasten210FilterToolD2Ev@Base 4:4.10.1
 _ZN7Kasten210StructTool10headerDataEii@Base 4:4.10.1
 _ZN7Kasten210StructTool10updateDataERKN6Okteta22ArrayChangeMetricsListE@Base 4:4.10.1
 _ZN7Kasten210StructTool11dataChangedEiPv@Base 4:4.10.1
 _ZN7Kasten210StructTool11dataClearedEv@Base 4:4.10.1
 _ZN7Kasten210StructTool11qt_metacallEN11QMetaObject4CallEiPPv@Base 4:4.10.1
 _ZN7Kasten210StructTool11qt_metacastEPKc@Base 4:4.10.1
 _ZN7Kasten210StructTool12addChildItemEP23TopLevelDataInformation@Base 4:4.10.1
 _ZN7Kasten210StructTool12setByteOrderEN8QSysInfo6EndianE@Base 4:4.10.1
 _ZN7Kasten210StructTool12setByteOrderENS_21StructViewPreferences13EnumByteOrder4typeE@Base 4:4.10.1
 _ZN7Kasten210StructTool12setByteOrderEi@Base 4:4.10.1
 _ZN7Kasten210StructTool12startAddressEPK23TopLevelDataInformation@Base 4:4.10.1
 _ZN7Kasten210StructTool13lockStructureERK11QModelIndex@Base 4:4.10.1
 _ZN7Kasten210StructTool14setTargetModelEPNS_13AbstractModelE@Base 4:4.10.1
 _ZN7Kasten210StructTool15childrenRemovedEPK15DataInformationjj@Base 4:4.10.1
 _ZN7Kasten210StructTool15unlockStructureERK11QModelIndex@Base 4:4.10.1
 _ZN7Kasten210StructTool16byteOrderChangedEv@Base 4:4.10.1
 _ZN7Kasten210StructTool16childrenInsertedEPK15DataInformationjj@Base 4:4.10.1
 _ZN7Kasten210StructTool16onContentsChangeERKN6Okteta22ArrayChangeMetricsListE@Base 4:4.10.1
 _ZN7Kasten210StructTool16staticMetaObjectE@Base 4:4.10.1
 _ZN7Kasten210StructTool18cursorIndexChangedEv@Base 4:4.10.1
 _ZN7Kasten210StructTool18onByteOrderChangedEv@Base 4:4.10.1
 _ZN7Kasten210StructTool21byteArrayModelChangedEPN6Okteta22AbstractByteArrayModelE@Base 4:4.10.2
 _ZN7Kasten210StructTool21byteArrayModelChangedEb@Base 4:4.10.1
 _ZN7Kasten210StructTool21validateAllStructuresEv@Base 4:4.10.1
 _ZN7Kasten210StructTool22onChildItemDataChangedEv@Base 4:4.10.1
 _ZN7Kasten210StructTool22onCursorPositionChangeEi@Base 4:4.10.1
 _ZN7Kasten210StructTool24childrenAboutToBeRemovedEP15DataInformationjj@Base 4:4.10.1
 _ZN7Kasten210StructTool25childrenAboutToBeInsertedEP15DataInformationjj@Base 4:4.10.1
 _ZN7Kasten210StructTool27setSelectedStructuresInViewEv@Base 4:4.10.1
 _ZN7Kasten210StructTool4markERK11QModelIndex@Base 4:4.10.1
 _ZN7Kasten210StructTool6unmarkEv@Base 4:4.10.1
 _ZN7Kasten210StructTool7setDataERK8QVariantiP15DataInformationj@Base 4:4.10.1
 _ZN7Kasten210StructToolC1Ev@Base 4:4.10.1
 _ZN7Kasten210StructToolC2Ev@Base 4:4.10.1
 _ZN7Kasten210StructToolD0Ev@Base 4:4.10.1
 _ZN7Kasten210StructToolD1Ev@Base 4:4.10.1
 _ZN7Kasten210StructToolD2Ev@Base 4:4.10.1
 _ZN7Kasten212ChecksumTool11qt_metacallEN11QMetaObject4CallEiPPv@Base 4:4.10.1
 _ZN7Kasten212ChecksumTool11qt_metacastEPKc@Base 4:4.10.1
 _ZN7Kasten212ChecksumTool12parameterSetEv@Base 4:4.10.1
 _ZN7Kasten212ChecksumTool12setAlgorithmEi@Base 4:4.10.1
 _ZN7Kasten212ChecksumTool13checkUptoDateEv@Base 4:4.10.1
 _ZN7Kasten212ChecksumTool14setTargetModelEPNS_13AbstractModelE@Base 4:4.10.1
 _ZN7Kasten212ChecksumTool15checksumChangedERK7QString@Base 4:4.10.1
 _ZN7Kasten212ChecksumTool15onSourceChangedEv@Base 4:4.10.1
 _ZN7Kasten212ChecksumTool15resetSourceToolEv@Base 4:4.10.1
 _ZN7Kasten212ChecksumTool15uptodateChangedEb@Base 4:4.10.1
 _ZN7Kasten212ChecksumTool16staticMetaObjectE@Base 4:4.10.1
 _ZN7Kasten212ChecksumTool17calculateChecksumEv@Base 4:4.10.1
 _ZN7Kasten212ChecksumTool17onSourceDestroyedEv@Base 4:4.10.1
 _ZN7Kasten212ChecksumTool18isApplyableChangedEb@Base 4:4.10.1
 _ZN7Kasten212ChecksumTool18onSelectionChangedEv@Base 4:4.10.1
 _ZN7Kasten212ChecksumToolC1Ev@Base 4:4.10.1
 _ZN7Kasten212ChecksumToolC2Ev@Base 4:4.10.1
 _ZN7Kasten212ChecksumToolD0Ev@Base 4:4.10.1
 _ZN7Kasten212ChecksumToolD1Ev@Base 4:4.10.1
 _ZN7Kasten212ChecksumToolD2Ev@Base 4:4.10.1
 _ZN7Kasten212InfoToolViewC1EPNS_8InfoToolE@Base 4:4.10.1
 _ZN7Kasten212InfoToolViewC2EPNS_8InfoToolE@Base 4:4.10.1
 _ZN7Kasten212InfoToolViewD0Ev@Base 4:4.10.1
 _ZN7Kasten212InfoToolViewD1Ev@Base 4:4.10.1
 _ZN7Kasten212InfoToolViewD2Ev@Base 4:4.10.1
 _ZN7Kasten213BookmarksTool11qt_metacallEN11QMetaObject4CallEiPPv@Base 4:4.10.1
 _ZN7Kasten213BookmarksTool11qt_metacastEPKc@Base 4:4.10.1
 _ZN7Kasten213BookmarksTool12gotoBookmarkERKN6Okteta8BookmarkE@Base 4:4.10.1
 _ZN7Kasten213BookmarksTool14bookmarksAddedERK5QListIN6Okteta8BookmarkEE@Base 4:4.10.1
 _ZN7Kasten213BookmarksTool14createBookmarkEv@Base 4:4.10.1
 _ZN7Kasten213BookmarksTool14setTargetModelEPNS_13AbstractModelE@Base 4:4.10.1
 _ZN7Kasten213BookmarksTool15deleteBookmarksERK5QListIN6Okteta8BookmarkEE@Base 4:4.10.1
 _ZN7Kasten213BookmarksTool15setBookmarkNameEjRK7QString@Base 4:4.10.1
 _ZN7Kasten213BookmarksTool16bookmarksRemovedERK5QListIN6Okteta8BookmarkEE@Base 4:4.10.1
 _ZN7Kasten213BookmarksTool16staticMetaObjectE@Base 4:4.10.1
 _ZN7Kasten213BookmarksTool17bookmarksModifiedERK5QListIiE@Base 4:4.10.1
 _ZN7Kasten213BookmarksTool19hasBookmarksChangedEb@Base 4:4.10.1
 _ZN7Kasten213BookmarksTool19offsetCodingChangedEi@Base 4:4.10.1
 _ZN7Kasten213BookmarksTool19onBookmarksModifiedEv@Base 4:4.10.1
 _ZN7Kasten213BookmarksTool23onCursorPositionChangedEi@Base 4:4.10.1
 _ZN7Kasten213BookmarksTool24canCreateBookmarkChangedEb@Base 4:4.10.1
 _ZN7Kasten213BookmarksToolC1Ev@Base 4:4.10.1
 _ZN7Kasten213BookmarksToolC2Ev@Base 4:4.10.1
 _ZN7Kasten213BookmarksToolD0Ev@Base 4:4.10.1
 _ZN7Kasten213BookmarksToolD1Ev@Base 4:4.10.1
 _ZN7Kasten213BookmarksToolD2Ev@Base 4:4.10.1
 _ZN7Kasten213ByteTableTool11qt_metacallEN11QMetaObject4CallEiPPv@Base 4:4.10.1
 _ZN7Kasten213ByteTableTool11qt_metacastEPKc@Base 4:4.10.1
 _ZN7Kasten213ByteTableTool14setTargetModelEPNS_13AbstractModelE@Base 4:4.10.1
 _ZN7Kasten213ByteTableTool16staticMetaObjectE@Base 4:4.10.1
 _ZN7Kasten213ByteTableTool17onReadOnlyChangedEb@Base 4:4.10.1
 _ZN7Kasten213ByteTableTool19hasWriteableChangedEb@Base 4:4.10.1
 _ZN7Kasten213ByteTableTool6insertEhi@Base 4:4.10.1
 _ZN7Kasten213ByteTableToolC1Ev@Base 4:4.10.1
 _ZN7Kasten213ByteTableToolC2Ev@Base 4:4.10.1
 _ZN7Kasten213ByteTableToolD0Ev@Base 4:4.10.1
 _ZN7Kasten213ByteTableToolD1Ev@Base 4:4.10.1
 _ZN7Kasten213ByteTableToolD2Ev@Base 4:4.10.1
 _ZN7Kasten214FilterToolViewC1EPNS_10FilterToolE@Base 4:4.10.1
 _ZN7Kasten214FilterToolViewC2EPNS_10FilterToolE@Base 4:4.10.1
 _ZN7Kasten214FilterToolViewD0Ev@Base 4:4.10.1
 _ZN7Kasten214FilterToolViewD1Ev@Base 4:4.10.1
 _ZN7Kasten214FilterToolViewD2Ev@Base 4:4.10.1
 _ZN7Kasten214PODDecoderTool10updateDataEv@Base 4:4.10.1
 _ZN7Kasten214PODDecoderTool11dataChangedEv@Base 4:4.10.1
 _ZN7Kasten214PODDecoderTool11qt_metacallEN11QMetaObject4CallEiPPv@Base 4:4.10.1
 _ZN7Kasten214PODDecoderTool11qt_metacastEPKc@Base 4:4.10.1
 _ZN7Kasten214PODDecoderTool12setByteOrderEi@Base 4:4.10.1
 _ZN7Kasten214PODDecoderTool12setupDecoderEv@Base 4:4.10.1
 _ZN7Kasten214PODDecoderTool14setTargetModelEPNS_13AbstractModelE@Base 4:4.10.1
 _ZN7Kasten214PODDecoderTool15readOnlyChangedEb@Base 4:4.10.1
 _ZN7Kasten214PODDecoderTool16onContentsChangeEv@Base 4:4.10.1
 _ZN7Kasten214PODDecoderTool16setUnsignedAsHexEb@Base 4:4.10.1
 _ZN7Kasten214PODDecoderTool16staticMetaObjectE@Base 4:4.10.1
 _ZN7Kasten214PODDecoderTool17onCharCodecChangeERK7QString@Base 4:4.10.1
 _ZN7Kasten214PODDecoderTool17onReadOnlyChangedEv@Base 4:4.10.1
 _ZN7Kasten214PODDecoderTool18isApplyableChangedEb@Base 4:4.10.1
 _ZN7Kasten214PODDecoderTool22onCursorPositionChangeEi@Base 4:4.10.1
 _ZN7Kasten214PODDecoderTool22setDifferentSizeDialogEPNS_27AbstractDifferentSizeDialogE@Base 4:4.10.1
 _ZN7Kasten214PODDecoderTool7markPODEi@Base 4:4.10.1
 _ZN7Kasten214PODDecoderTool7setDataERK8QVarianti@Base 4:4.10.1
 _ZN7Kasten214PODDecoderTool9unmarkPODEv@Base 4:4.10.1
 _ZN7Kasten214PODDecoderToolC1Ev@Base 4:4.10.1
 _ZN7Kasten214PODDecoderToolC2Ev@Base 4:4.10.1
 _ZN7Kasten214PODDecoderToolD0Ev@Base 4:4.10.1
 _ZN7Kasten214PODDecoderToolD1Ev@Base 4:4.10.1
 _ZN7Kasten214PODDecoderToolD2Ev@Base 4:4.10.1
 _ZN7Kasten214StructToolViewC1EPNS_10StructToolE@Base 4:4.10.1
 _ZN7Kasten214StructToolViewC2EPNS_10StructToolE@Base 4:4.10.1
 _ZN7Kasten214StructToolViewD0Ev@Base 4:4.10.1
 _ZN7Kasten214StructToolViewD1Ev@Base 4:4.10.1
 _ZN7Kasten214StructToolViewD2Ev@Base 4:4.10.1
 _ZN7Kasten215InfoToolFactory6createEv@Base 4:4.10.1
 _ZN7Kasten215InfoToolFactoryC1Ev@Base 4:4.10.1
 _ZN7Kasten215InfoToolFactoryC2Ev@Base 4:4.10.1
 _ZN7Kasten215InfoToolFactoryD0Ev@Base 4:4.10.1
 _ZN7Kasten215InfoToolFactoryD1Ev@Base 4:4.10.1
 _ZN7Kasten215InfoToolFactoryD2Ev@Base 4:4.10.1
 _ZN7Kasten215PrintController11qt_metacallEN11QMetaObject4CallEiPPv@Base 4:4.10.1
 _ZN7Kasten215PrintController11qt_metacastEPKc@Base 4:4.10.1
 _ZN7Kasten215PrintController14setTargetModelEPNS_13AbstractModelE@Base 4:4.10.1
 _ZN7Kasten215PrintController16staticMetaObjectE@Base 4:4.10.1
 _ZN7Kasten215PrintController5printEv@Base 4:4.10.1
 _ZN7Kasten215PrintControllerC1EP13KXMLGUIClient@Base 4:4.10.1
 _ZN7Kasten215PrintControllerC2EP13KXMLGUIClient@Base 4:4.10.1
 _ZN7Kasten215PrintControllerD0Ev@Base 4:4.10.1
 _ZN7Kasten215PrintControllerD1Ev@Base 4:4.10.1
 _ZN7Kasten215PrintControllerD2Ev@Base 4:4.10.1
 _ZN7Kasten216ChecksumToolViewC1EPNS_12ChecksumToolE@Base 4:4.10.1
 _ZN7Kasten216ChecksumToolViewC2EPNS_12ChecksumToolE@Base 4:4.10.1
 _ZN7Kasten216ChecksumToolViewD0Ev@Base 4:4.10.1
 _ZN7Kasten216ChecksumToolViewD1Ev@Base 4:4.10.1
 _ZN7Kasten216ChecksumToolViewD2Ev@Base 4:4.10.1
 _ZN7Kasten216DocumentInfoTool11qt_metacallEN11QMetaObject4CallEiPPv@Base 4:4.10.1
 _ZN7Kasten216DocumentInfoTool11qt_metacastEPKc@Base 4:4.10.1
 _ZN7Kasten216DocumentInfoTool12onUrlChangedERK4KUrl@Base 4:4.10.1
 _ZN7Kasten216DocumentInfoTool14setTargetModelEPNS_13AbstractModelE@Base 4:4.10.1
 _ZN7Kasten216DocumentInfoTool14updateMimeTypeEv@Base 4:4.10.1
 _ZN7Kasten216DocumentInfoTool15locationChangedERK7QString@Base 4:4.10.1
 _ZN7Kasten216DocumentInfoTool16staticMetaObjectE@Base 4:4.10.1
 _ZN7Kasten216DocumentInfoTool17onContentsChangedEv@Base 4:4.10.1
 _ZN7Kasten216DocumentInfoTool19documentSizeChangedEi@Base 4:4.10.1
 _ZN7Kasten216DocumentInfoTool20documentTitleChangedERK7QString@Base 4:4.10.1
 _ZN7Kasten216DocumentInfoTool21onSynchronizerChangedEPNS_25AbstractModelSynchronizerE@Base 4:4.10.1
 _ZN7Kasten216DocumentInfoTool23documentMimeTypeChangedE10KSharedPtrI9KMimeTypeE@Base 4:4.10.1
 _ZN7Kasten216DocumentInfoToolC1EPNS_19DocumentSyncManagerE@Base 4:4.10.1
 _ZN7Kasten216DocumentInfoToolC2EPNS_19DocumentSyncManagerE@Base 4:4.10.1
 _ZN7Kasten216DocumentInfoToolD0Ev@Base 4:4.10.1
 _ZN7Kasten216DocumentInfoToolD1Ev@Base 4:4.10.1
 _ZN7Kasten216DocumentInfoToolD2Ev@Base 4:4.10.1
 _ZN7Kasten216SearchController10showDialogENS_14KFindDirectionE@Base 4:4.10.1
 _ZN7Kasten216SearchController11qt_metacallEN11QMetaObject4CallEiPPv@Base 4:4.10.1
 _ZN7Kasten216SearchController11qt_metacastEPKc@Base 4:4.10.1
 _ZN7Kasten216SearchController12findPreviousEv@Base 4:4.10.1
 _ZN7Kasten216SearchController14onDataNotFoundEv@Base 4:4.10.1
 _ZN7Kasten216SearchController14setTargetModelEPNS_13AbstractModelE@Base 4:4.10.1
 _ZN7Kasten216SearchController16staticMetaObjectE@Base 4:4.10.1
 _ZN7Kasten216SearchController4findEv@Base 4:4.10.1
 _ZN7Kasten216SearchController8findNextEv@Base 4:4.10.1
 _ZN7Kasten216SearchControllerC1EP13KXMLGUIClientP7QWidget@Base 4:4.10.1
 _ZN7Kasten216SearchControllerC2EP13KXMLGUIClientP7QWidget@Base 4:4.10.1
 _ZN7Kasten216SearchControllerD0Ev@Base 4:4.10.1
 _ZN7Kasten216SearchControllerD1Ev@Base 4:4.10.1
 _ZN7Kasten216SearchControllerD2Ev@Base 4:4.10.1
 _ZN7Kasten217BookmarksToolViewC1EPNS_13BookmarksToolE@Base 4:4.10.1
 _ZN7Kasten217BookmarksToolViewC2EPNS_13BookmarksToolE@Base 4:4.10.1
 _ZN7Kasten217BookmarksToolViewD0Ev@Base 4:4.10.1
 _ZN7Kasten217BookmarksToolViewD1Ev@Base 4:4.10.1
 _ZN7Kasten217BookmarksToolViewD2Ev@Base 4:4.10.1
 _ZN7Kasten217ByteTableToolViewC1EPNS_13ByteTableToolE@Base 4:4.10.1
 _ZN7Kasten217ByteTableToolViewC2EPNS_13ByteTableToolE@Base 4:4.10.1
 _ZN7Kasten217ByteTableToolViewD0Ev@Base 4:4.10.1
 _ZN7Kasten217ByteTableToolViewD1Ev@Base 4:4.10.1
 _ZN7Kasten217ByteTableToolViewD2Ev@Base 4:4.10.1
 _ZN7Kasten217FilterToolFactory6createEv@Base 4:4.10.1
 _ZN7Kasten217FilterToolFactoryC1Ev@Base 4:4.10.1
 _ZN7Kasten217FilterToolFactoryC2Ev@Base 4:4.10.1
 _ZN7Kasten217FilterToolFactoryD0Ev@Base 4:4.10.1
 _ZN7Kasten217FilterToolFactoryD1Ev@Base 4:4.10.1
 _ZN7Kasten217FilterToolFactoryD2Ev@Base 4:4.10.1
 _ZN7Kasten217ReplaceController10onFinishedEbi@Base 4:4.10.1
 _ZN7Kasten217ReplaceController11qt_metacallEN11QMetaObject4CallEiPPv@Base 4:4.10.1
 _ZN7Kasten217ReplaceController11qt_metacastEPKc@Base 4:4.10.1
 _ZN7Kasten217ReplaceController14setTargetModelEPNS_13AbstractModelE@Base 4:4.10.1
 _ZN7Kasten217ReplaceController16staticMetaObjectE@Base 4:4.10.1
 _ZN7Kasten217ReplaceController7replaceEv@Base 4:4.10.1
 _ZN7Kasten217ReplaceControllerC1EP13KXMLGUIClientP7QWidget@Base 4:4.10.1
 _ZN7Kasten217ReplaceControllerC2EP13KXMLGUIClientP7QWidget@Base 4:4.10.1
 _ZN7Kasten217ReplaceControllerD0Ev@Base 4:4.10.1
 _ZN7Kasten217ReplaceControllerD1Ev@Base 4:4.10.1
 _ZN7Kasten217ReplaceControllerD2Ev@Base 4:4.10.1
 _ZN7Kasten218PODDecoderToolViewC1EPNS_14PODDecoderToolE@Base 4:4.10.1
 _ZN7Kasten218PODDecoderToolViewC2EPNS_14PODDecoderToolE@Base 4:4.10.1
 _ZN7Kasten218PODDecoderToolViewD0Ev@Base 4:4.10.1
 _ZN7Kasten218PODDecoderToolViewD1Ev@Base 4:4.10.1
 _ZN7Kasten218PODDecoderToolViewD2Ev@Base 4:4.10.1
 _ZN7Kasten218StringsExtractTool10markStringEi@Base 4:4.10.1
 _ZN7Kasten218StringsExtractTool11qt_metacallEN11QMetaObject4CallEiPPv@Base 4:4.10.1
 _ZN7Kasten218StringsExtractTool11qt_metacastEPKc@Base 4:4.10.1
 _ZN7Kasten218StringsExtractTool12setCharCodecERK7QString@Base 4:4.10.1
 _ZN7Kasten218StringsExtractTool12setMinLengthEi@Base 4:4.10.1
 _ZN7Kasten218StringsExtractTool12unmarkStringEv@Base 4:4.10.1
 _ZN7Kasten218StringsExtractTool13checkUptoDateEv@Base 4:4.10.1
 _ZN7Kasten218StringsExtractTool14extractStringsEv@Base 4:4.10.1
 _ZN7Kasten218StringsExtractTool14setTargetModelEPNS_13AbstractModelE@Base 4:4.10.1
 _ZN7Kasten218StringsExtractTool15onSourceChangedEv@Base 4:4.10.1
 _ZN7Kasten218StringsExtractTool15uptodateChangedEb@Base 4:4.10.1
 _ZN7Kasten218StringsExtractTool16staticMetaObjectE@Base 4:4.10.1
 _ZN7Kasten218StringsExtractTool17onSourceDestroyedEv@Base 4:4.10.1
 _ZN7Kasten218StringsExtractTool18isApplyableChangedEb@Base 4:4.10.1
 _ZN7Kasten218StringsExtractTool18onSelectionChangedEv@Base 4:4.10.1
 _ZN7Kasten218StringsExtractTool19offsetCodingChangedEi@Base 4:4.10.1
 _ZN7Kasten218StringsExtractTool21onSourceViewDestroyedEv@Base 4:4.10.1
 _ZN7Kasten218StringsExtractTool25canHighlightStringChangedEb@Base 4:4.10.1
 _ZN7Kasten218StringsExtractToolC1Ev@Base 4:4.10.1
 _ZN7Kasten218StringsExtractToolC2Ev@Base 4:4.10.1
 _ZN7Kasten218StringsExtractToolD0Ev@Base 4:4.10.1
 _ZN7Kasten218StringsExtractToolD1Ev@Base 4:4.10.1
 _ZN7Kasten218StringsExtractToolD2Ev@Base 4:4.10.1
 _ZN7Kasten218ViewModeController11qt_metacallEN11QMetaObject4CallEiPPv@Base 4:4.10.1
 _ZN7Kasten218ViewModeController11qt_metacastEPKc@Base 4:4.10.1
 _ZN7Kasten218ViewModeController11setViewModeEi@Base 4:4.10.1
 _ZN7Kasten218ViewModeController14setTargetModelEPNS_13AbstractModelE@Base 4:4.10.1
 _ZN7Kasten218ViewModeController16staticMetaObjectE@Base 4:4.10.1
 _ZN7Kasten218ViewModeControllerC1EP13KXMLGUIClient@Base 4:4.10.1
 _ZN7Kasten218ViewModeControllerC2EP13KXMLGUIClient@Base 4:4.10.1
 _ZN7Kasten218ViewModeControllerD0Ev@Base 4:4.10.1
 _ZN7Kasten218ViewModeControllerD1Ev@Base 4:4.10.1
 _ZN7Kasten218ViewModeControllerD2Ev@Base 4:4.10.1
 _ZN7Kasten219BookmarksController11qt_metacallEN11QMetaObject4CallEiPPv@Base 4:4.10.1
 _ZN7Kasten219BookmarksController11qt_metacastEPKc@Base 4:4.10.1
 _ZN7Kasten219BookmarksController14createBookmarkEv@Base 4:4.10.1
 _ZN7Kasten219BookmarksController14deleteBookmarkEv@Base 4:4.10.1
 _ZN7Kasten219BookmarksController14setTargetModelEPNS_13AbstractModelE@Base 4:4.10.1
 _ZN7Kasten219BookmarksController15updateBookmarksEv@Base 4:4.10.1
 _ZN7Kasten219BookmarksController16gotoNextBookmarkEv@Base 4:4.10.1
 _ZN7Kasten219BookmarksController16onBookmarksAddedERK5QListIN6Okteta8BookmarkEE@Base 4:4.10.1
 _ZN7Kasten219BookmarksController16staticMetaObjectE@Base 4:4.10.1
 _ZN7Kasten219BookmarksController18deleteAllBookmarksEv@Base 4:4.10.1
 _ZN7Kasten219BookmarksController18onBookmarksRemovedERK5QListIN6Okteta8BookmarkEE@Base 4:4.10.1
 _ZN7Kasten219BookmarksController19onBookmarkTriggeredEP7QAction@Base 4:4.10.1
 _ZN7Kasten219BookmarksController20gotoPreviousBookmarkEv@Base 4:4.10.1
 _ZN7Kasten219BookmarksController23onCursorPositionChangedEi@Base 4:4.10.1
 _ZN7Kasten219BookmarksControllerC1EP13KXMLGUIClient@Base 4:4.10.1
 _ZN7Kasten219BookmarksControllerC2EP13KXMLGUIClient@Base 4:4.10.1
 _ZN7Kasten219BookmarksControllerD0Ev@Base 4:4.10.1
 _ZN7Kasten219BookmarksControllerD1Ev@Base 4:4.10.1
 _ZN7Kasten219BookmarksControllerD2Ev@Base 4:4.10.1
 _ZN7Kasten219ChecksumToolFactory6createEv@Base 4:4.10.1
 _ZN7Kasten219ChecksumToolFactoryC1Ev@Base 4:4.10.1
 _ZN7Kasten219ChecksumToolFactoryC2Ev@Base 4:4.10.1
 _ZN7Kasten219ChecksumToolFactoryD0Ev@Base 4:4.10.1
 _ZN7Kasten219ChecksumToolFactoryD1Ev@Base 4:4.10.1
 _ZN7Kasten219ChecksumToolFactoryD2Ev@Base 4:4.10.1
 _ZN7Kasten219InfoToolViewFactory6createEPNS_12AbstractToolE@Base 4:4.10.1
 _ZN7Kasten219InfoToolViewFactoryC1Ev@Base 4:4.10.1
 _ZN7Kasten219InfoToolViewFactoryC2Ev@Base 4:4.10.1
 _ZN7Kasten219InfoToolViewFactoryD0Ev@Base 4:4.10.1
 _ZN7Kasten219InfoToolViewFactoryD1Ev@Base 4:4.10.1
 _ZN7Kasten219InfoToolViewFactoryD2Ev@Base 4:4.10.1
 _ZN7Kasten220BookmarksToolFactory6createEv@Base 4:4.10.1
 _ZN7Kasten220BookmarksToolFactoryC1Ev@Base 4:4.10.1
 _ZN7Kasten220BookmarksToolFactoryC2Ev@Base 4:4.10.1
 _ZN7Kasten220BookmarksToolFactoryD0Ev@Base 4:4.10.1
 _ZN7Kasten220BookmarksToolFactoryD1Ev@Base 4:4.10.1
 _ZN7Kasten220BookmarksToolFactoryD2Ev@Base 4:4.10.1
 _ZN7Kasten220ByteTableToolFactory6createEv@Base 4:4.10.1
 _ZN7Kasten220ByteTableToolFactoryC1Ev@Base 4:4.10.1
 _ZN7Kasten220ByteTableToolFactoryC2Ev@Base 4:4.10.1
 _ZN7Kasten220ByteTableToolFactoryD0Ev@Base 4:4.10.1
 _ZN7Kasten220ByteTableToolFactoryD1Ev@Base 4:4.10.1
 _ZN7Kasten220ByteTableToolFactoryD2Ev@Base 4:4.10.1
 _ZN7Kasten220DocumentInfoToolViewC1EPNS_16DocumentInfoToolE@Base 4:4.10.1
 _ZN7Kasten220DocumentInfoToolViewC2EPNS_16DocumentInfoToolE@Base 4:4.10.1
 _ZN7Kasten220DocumentInfoToolViewD0Ev@Base 4:4.10.1
 _ZN7Kasten220DocumentInfoToolViewD1Ev@Base 4:4.10.1
 _ZN7Kasten220DocumentInfoToolViewD2Ev@Base 4:4.10.1
 _ZN7Kasten220GotoOffsetController10gotoOffsetEv@Base 4:4.10.1
 _ZN7Kasten220GotoOffsetController11qt_metacallEN11QMetaObject4CallEiPPv@Base 4:4.10.1
 _ZN7Kasten220GotoOffsetController11qt_metacastEPKc@Base 4:4.10.1
 _ZN7Kasten220GotoOffsetController14setTargetModelEPNS_13AbstractModelE@Base 4:4.10.1
 _ZN7Kasten220GotoOffsetController16staticMetaObjectE@Base 4:4.10.1
 _ZN7Kasten220GotoOffsetControllerC1EPNS_2If18ToolInlineViewableEP13KXMLGUIClient@Base 4:4.10.1
 _ZN7Kasten220GotoOffsetControllerC2EPNS_2If18ToolInlineViewableEP13KXMLGUIClient@Base 4:4.10.1
 _ZN7Kasten220GotoOffsetControllerD0Ev@Base 4:4.10.1
 _ZN7Kasten220GotoOffsetControllerD1Ev@Base 4:4.10.1
 _ZN7Kasten220GotoOffsetControllerD2Ev@Base 4:4.10.1
 _ZN7Kasten220ViewConfigController11qt_metacallEN11QMetaObject4CallEiPPv@Base 4:4.10.1
 _ZN7Kasten220ViewConfigController11qt_metacastEPKc@Base 4:4.10.1
 _ZN7Kasten220ViewConfigController13setCharCodingEi@Base 4:4.10.1
 _ZN7Kasten220ViewConfigController14setLayoutStyleEi@Base 4:4.10.1
 _ZN7Kasten220ViewConfigController14setTargetModelEPNS_13AbstractModelE@Base 4:4.10.1
 _ZN7Kasten220ViewConfigController14setValueCodingEi@Base 4:4.10.1
 _ZN7Kasten220ViewConfigController15setBytesPerLineEv@Base 4:4.10.1
 _ZN7Kasten220ViewConfigController15setOffsetCodingEi@Base 4:4.10.1
 _ZN7Kasten220ViewConfigController16setBytesPerGroupEv@Base 4:4.10.1
 _ZN7Kasten220ViewConfigController16staticMetaObjectE@Base 4:4.10.1
 _ZN7Kasten220ViewConfigController18onCharCodecChangedERK7QString@Base 4:4.10.1
 _ZN7Kasten220ViewConfigController18toggleOffsetColumnEb@Base 4:4.10.1
 _ZN7Kasten220ViewConfigController19setShowsNonprintingEb@Base 4:4.10.1
 _ZN7Kasten220ViewConfigController20onLayoutStyleChangedEi@Base 4:4.10.1
 _ZN7Kasten220ViewConfigController20onValueCodingChangedEi@Base 4:4.10.1
 _ZN7Kasten220ViewConfigController21onOffsetCodingChangedEi@Base 4:4.10.1
 _ZN7Kasten220ViewConfigController22toggleValueCharColumnsEi@Base 4:4.10.1
 _ZN7Kasten220ViewConfigController25onShowsNonprintingChangedEb@Base 4:4.10.1
 _ZN7Kasten220ViewConfigController28onOffsetColumnVisibleChangedEb@Base 4:4.10.1
 _ZN7Kasten220ViewConfigController32onVisibleByteArrayCodingsChangedEi@Base 4:4.10.1
 _ZN7Kasten220ViewConfigControllerC1EP13KXMLGUIClient@Base 4:4.10.1
 _ZN7Kasten220ViewConfigControllerC2EP13KXMLGUIClient@Base 4:4.10.1
 _ZN7Kasten220ViewConfigControllerD0Ev@Base 4:4.10.1
 _ZN7Kasten220ViewConfigControllerD1Ev@Base 4:4.10.1
 _ZN7Kasten220ViewConfigControllerD2Ev@Base 4:4.10.1
 _ZN7Kasten220ViewStatusController11qt_metacallEN11QMetaObject4CallEiPPv@Base 4:4.10.1
 _ZN7Kasten220ViewStatusController11qt_metacastEPKc@Base 4:4.10.1
 _ZN7Kasten220ViewStatusController13setCharCodingEi@Base 4:4.10.1
 _ZN7Kasten220ViewStatusController14setTargetModelEPNS_13AbstractModelE@Base 4:4.10.1
 _ZN7Kasten220ViewStatusController14setValueCodingEi@Base 4:4.10.1
 _ZN7Kasten220ViewStatusController16setOverwriteModeEb@Base 4:4.10.1
 _ZN7Kasten220ViewStatusController16staticMetaObjectE@Base 4:4.10.1
 _ZN7Kasten220ViewStatusController18onCharCodecChangedERK7QString@Base 4:4.10.1
 _ZN7Kasten220ViewStatusController20onValueCodingChangedEi@Base 4:4.10.1
 _ZN7Kasten220ViewStatusController21onOffsetCodingChangedEi@Base 4:4.10.1
 _ZN7Kasten220ViewStatusController21onSelectedDataChangedEPKNS_22AbstractModelSelectionE@Base 4:4.10.1
 _ZN7Kasten220ViewStatusController23onCursorPositionChangedEi@Base 4:4.10.1
 _ZN7Kasten220ViewStatusController9fixWidthsEi@Base 4:4.10.1
 _ZN7Kasten220ViewStatusControllerC1EPNS_9StatusBarE@Base 4:4.10.1
 _ZN7Kasten220ViewStatusControllerC2EPNS_9StatusBarE@Base 4:4.10.1
 _ZN7Kasten220ViewStatusControllerD0Ev@Base 4:4.10.1
 _ZN7Kasten220ViewStatusControllerD1Ev@Base 4:4.10.1
 _ZN7Kasten220ViewStatusControllerD2Ev@Base 4:4.10.1
 _ZN7Kasten221CharsetConversionTool11qt_metacallEN11QMetaObject4CallEiPPv@Base 4:4.10.1
 _ZN7Kasten221CharsetConversionTool11qt_metacastEPKc@Base 4:4.10.1
 _ZN7Kasten221CharsetConversionTool12convertCharsEv@Base 4:4.10.1
 _ZN7Kasten221CharsetConversionTool13onViewChangedEv@Base 4:4.10.1
 _ZN7Kasten221CharsetConversionTool14conversionDoneEbiRK4QMapIhiE@Base 4:4.10.1
 _ZN7Kasten221CharsetConversionTool14setTargetModelEPNS_13AbstractModelE@Base 4:4.10.1
 _ZN7Kasten221CharsetConversionTool16staticMetaObjectE@Base 4:4.10.1
 _ZN7Kasten221CharsetConversionTool17setSubstituteByteEi@Base 4:4.10.1
 _ZN7Kasten221CharsetConversionTool18isApplyableChangedEb@Base 4:4.10.1
 _ZN7Kasten221CharsetConversionTool21setOtherCharCodecNameERK7QString@Base 4:4.10.1
 _ZN7Kasten221CharsetConversionTool22setConversionDirectionEi@Base 4:4.10.1
 _ZN7Kasten221CharsetConversionTool27setSubstitutingMissingCharsEb@Base 4:4.10.1
 _ZN7Kasten221CharsetConversionToolC1Ev@Base 4:4.10.1
 _ZN7Kasten221CharsetConversionToolC2Ev@Base 4:4.10.1
 _ZN7Kasten221CharsetConversionToolD0Ev@Base 4:4.10.1
 _ZN7Kasten221CharsetConversionToolD1Ev@Base 4:4.10.1
 _ZN7Kasten221CharsetConversionToolD2Ev@Base 4:4.10.1
 _ZN7Kasten221FilterToolViewFactory6createEPNS_12AbstractToolE@Base 4:4.10.1
 _ZN7Kasten221FilterToolViewFactoryC1Ev@Base 4:4.10.1
 _ZN7Kasten221FilterToolViewFactoryC2Ev@Base 4:4.10.1
 _ZN7Kasten221FilterToolViewFactoryD0Ev@Base 4:4.10.1
 _ZN7Kasten221FilterToolViewFactoryD1Ev@Base 4:4.10.1
 _ZN7Kasten221FilterToolViewFactoryD2Ev@Base 4:4.10.1
 _ZN7Kasten221PodDecoderToolFactory6createEv@Base 4:4.10.1
 _ZN7Kasten221PodDecoderToolFactoryC1Ev@Base 4:4.10.1
 _ZN7Kasten221PodDecoderToolFactoryC2Ev@Base 4:4.10.1
 _ZN7Kasten221PodDecoderToolFactoryD0Ev@Base 4:4.10.1
 _ZN7Kasten221PodDecoderToolFactoryD1Ev@Base 4:4.10.1
 _ZN7Kasten221PodDecoderToolFactoryD2Ev@Base 4:4.10.1
 _ZN7Kasten221SelectRangeController11qt_metacallEN11QMetaObject4CallEiPPv@Base 4:4.10.1
 _ZN7Kasten221SelectRangeController11qt_metacastEPKc@Base 4:4.10.1
 _ZN7Kasten221SelectRangeController14setTargetModelEPNS_13AbstractModelE@Base 4:4.10.1
 _ZN7Kasten221SelectRangeController16staticMetaObjectE@Base 4:4.10.1
 _ZN7Kasten221SelectRangeController6selectEv@Base 4:4.10.1
 _ZN7Kasten221SelectRangeControllerC1EPNS_2If18ToolInlineViewableEP13KXMLGUIClient@Base 4:4.10.1
 _ZN7Kasten221SelectRangeControllerC2EPNS_2If18ToolInlineViewableEP13KXMLGUIClient@Base 4:4.10.1
 _ZN7Kasten221SelectRangeControllerD0Ev@Base 4:4.10.1
 _ZN7Kasten221SelectRangeControllerD1Ev@Base 4:4.10.1
 _ZN7Kasten221SelectRangeControllerD2Ev@Base 4:4.10.1
 _ZN7Kasten221StructuresToolFactory6createEv@Base 4:4.10.1
 _ZN7Kasten221StructuresToolFactoryC1Ev@Base 4:4.10.1
 _ZN7Kasten221StructuresToolFactoryC2Ev@Base 4:4.10.1
 _ZN7Kasten221StructuresToolFactoryD0Ev@Base 4:4.10.1
 _ZN7Kasten221StructuresToolFactoryD1Ev@Base 4:4.10.1
 _ZN7Kasten221StructuresToolFactoryD2Ev@Base 4:4.10.1
 _ZN7Kasten221ViewProfileController11qt_metacallEN11QMetaObject4CallEiPPv@Base 4:4.10.1
 _ZN7Kasten221ViewProfileController11qt_metacastEPKc@Base 4:4.10.1
 _ZN7Kasten221ViewProfileController14setTargetModelEPNS_13AbstractModelE@Base 4:4.10.1
 _ZN7Kasten221ViewProfileController16staticMetaObjectE@Base 4:4.10.1
 _ZN7Kasten221ViewProfileController20onViewProfileChangedERK7QString@Base 4:4.10.1
 _ZN7Kasten221ViewProfileController21onViewProfilesChangedEv@Base 4:4.10.1
 _ZN7Kasten221ViewProfileController22onViewProfileTriggeredEP7QAction@Base 4:4.10.1
 _ZN7Kasten221ViewProfileController23onLocalSyncStateChangedENS_14LocalSyncStateE@Base 4:4.10.1
 _ZN7Kasten221ViewProfileController26onCreateNewActionTriggeredEv@Base 4:4.10.1
 _ZN7Kasten221ViewProfileController28onSaveChangesActionTriggeredEv@Base 4:4.10.1
 _ZN7Kasten221ViewProfileController29onResetChangesActionTriggeredEv@Base 4:4.10.1
 _ZN7Kasten221ViewProfileControllerC1EPNS_27ByteArrayViewProfileManagerEP7QWidgetP13KXMLGUIClient@Base 4:4.10.1
 _ZN7Kasten221ViewProfileControllerC2EPNS_27ByteArrayViewProfileManagerEP7QWidgetP13KXMLGUIClient@Base 4:4.10.1
 _ZN7Kasten221ViewProfileControllerD0Ev@Base 4:4.10.1
 _ZN7Kasten221ViewProfileControllerD1Ev@Base 4:4.10.1
 _ZN7Kasten221ViewProfileControllerD2Ev@Base 4:4.10.1
 _ZN7Kasten222StringsExtractToolViewC1EPNS_18StringsExtractToolE@Base 4:4.10.1
 _ZN7Kasten222StringsExtractToolViewC2EPNS_18StringsExtractToolE@Base 4:4.10.1
 _ZN7Kasten222StringsExtractToolViewD0Ev@Base 4:4.10.1
 _ZN7Kasten222StringsExtractToolViewD1Ev@Base 4:4.10.1
 _ZN7Kasten222StringsExtractToolViewD2Ev@Base 4:4.10.1
 _ZN7Kasten223ChecksumToolViewFactory6createEPNS_12AbstractToolE@Base 4:4.10.1
 _ZN7Kasten223ChecksumToolViewFactoryC1Ev@Base 4:4.10.1
 _ZN7Kasten223ChecksumToolViewFactoryC2Ev@Base 4:4.10.1
 _ZN7Kasten223ChecksumToolViewFactoryD0Ev@Base 4:4.10.1
 _ZN7Kasten223ChecksumToolViewFactoryD1Ev@Base 4:4.10.1
 _ZN7Kasten223ChecksumToolViewFactoryD2Ev@Base 4:4.10.1
 _ZN7Kasten223OverwriteModeController11qt_metacallEN11QMetaObject4CallEiPPv@Base 4:4.10.1
 _ZN7Kasten223OverwriteModeController11qt_metacastEPKc@Base 4:4.10.1
 _ZN7Kasten223OverwriteModeController12setOverWriteEb@Base 4:4.10.1
 _ZN7Kasten223OverwriteModeController14setTargetModelEPNS_13AbstractModelE@Base 4:4.10.1
 _ZN7Kasten223OverwriteModeController16staticMetaObjectE@Base 4:4.10.1
 _ZN7Kasten223OverwriteModeControllerC1EP13KXMLGUIClient@Base 4:4.10.1
 _ZN7Kasten223OverwriteModeControllerC2EP13KXMLGUIClient@Base 4:4.10.1
 _ZN7Kasten223OverwriteModeControllerD0Ev@Base 4:4.10.1
 _ZN7Kasten223OverwriteModeControllerD1Ev@Base 4:4.10.1
 _ZN7Kasten223OverwriteModeControllerD2Ev@Base 4:4.10.1
 _ZN7Kasten224BookmarksToolViewFactory6createEPNS_12AbstractToolE@Base 4:4.10.1
 _ZN7Kasten224BookmarksToolViewFactoryC1Ev@Base 4:4.10.1
 _ZN7Kasten224BookmarksToolViewFactoryC2Ev@Base 4:4.10.1
 _ZN7Kasten224BookmarksToolViewFactoryD0Ev@Base 4:4.10.1
 _ZN7Kasten224BookmarksToolViewFactoryD1Ev@Base 4:4.10.1
 _ZN7Kasten224BookmarksToolViewFactoryD2Ev@Base 4:4.10.1
 _ZN7Kasten224ByteTableToolViewFactory6createEPNS_12AbstractToolE@Base 4:4.10.1
 _ZN7Kasten224ByteTableToolViewFactoryC1Ev@Base 4:4.10.1
 _ZN7Kasten224ByteTableToolViewFactoryC2Ev@Base 4:4.10.1
 _ZN7Kasten224ByteTableToolViewFactoryD0Ev@Base 4:4.10.1
 _ZN7Kasten224ByteTableToolViewFactoryD1Ev@Base 4:4.10.1
 _ZN7Kasten224ByteTableToolViewFactoryD2Ev@Base 4:4.10.1
 _ZN7Kasten225CharsetConversionToolViewC1EPNS_21CharsetConversionToolE@Base 4:4.10.1
 _ZN7Kasten225CharsetConversionToolViewC2EPNS_21CharsetConversionToolE@Base 4:4.10.1
 _ZN7Kasten225CharsetConversionToolViewD0Ev@Base 4:4.10.1
 _ZN7Kasten225CharsetConversionToolViewD1Ev@Base 4:4.10.1
 _ZN7Kasten225CharsetConversionToolViewD2Ev@Base 4:4.10.1
 _ZN7Kasten225PodDecoderToolViewFactory6createEPNS_12AbstractToolE@Base 4:4.10.1
 _ZN7Kasten225PodDecoderToolViewFactoryC1Ev@Base 4:4.10.1
 _ZN7Kasten225PodDecoderToolViewFactoryC2Ev@Base 4:4.10.1
 _ZN7Kasten225PodDecoderToolViewFactoryD0Ev@Base 4:4.10.1
 _ZN7Kasten225PodDecoderToolViewFactoryD1Ev@Base 4:4.10.1
 _ZN7Kasten225PodDecoderToolViewFactoryD2Ev@Base 4:4.10.1
 _ZN7Kasten225StringsExtractToolFactory6createEv@Base 4:4.10.1
 _ZN7Kasten225StringsExtractToolFactoryC1Ev@Base 4:4.10.1
 _ZN7Kasten225StringsExtractToolFactoryC2Ev@Base 4:4.10.1
 _ZN7Kasten225StringsExtractToolFactoryD0Ev@Base 4:4.10.1
 _ZN7Kasten225StringsExtractToolFactoryD1Ev@Base 4:4.10.1
 _ZN7Kasten225StringsExtractToolFactoryD2Ev@Base 4:4.10.1
 _ZN7Kasten225StructuresToolViewFactory6createEPNS_12AbstractToolE@Base 4:4.10.1
 _ZN7Kasten225StructuresToolViewFactoryC1Ev@Base 4:4.10.1
 _ZN7Kasten225StructuresToolViewFactoryC2Ev@Base 4:4.10.1
 _ZN7Kasten225StructuresToolViewFactoryD0Ev@Base 4:4.10.1
 _ZN7Kasten225StructuresToolViewFactoryD1Ev@Base 4:4.10.1
 _ZN7Kasten225StructuresToolViewFactoryD2Ev@Base 4:4.10.1
 _ZN7Kasten228CharsetConversionToolFactory6createEv@Base 4:4.10.1
 _ZN7Kasten228CharsetConversionToolFactoryC1Ev@Base 4:4.10.1
 _ZN7Kasten228CharsetConversionToolFactoryC2Ev@Base 4:4.10.1
 _ZN7Kasten228CharsetConversionToolFactoryD0Ev@Base 4:4.10.1
 _ZN7Kasten228CharsetConversionToolFactoryD1Ev@Base 4:4.10.1
 _ZN7Kasten228CharsetConversionToolFactoryD2Ev@Base 4:4.10.1
 _ZN7Kasten228ViewProfilesManageController11qt_metacallEN11QMetaObject4CallEiPPv@Base 4:4.10.1
 _ZN7Kasten228ViewProfilesManageController11qt_metacastEPKc@Base 4:4.10.1
 _ZN7Kasten228ViewProfilesManageController14manageProfilesEv@Base 4:4.10.1
 _ZN7Kasten228ViewProfilesManageController14setTargetModelEPNS_13AbstractModelE@Base 4:4.10.1
 _ZN7Kasten228ViewProfilesManageController16staticMetaObjectE@Base 4:4.10.1
 _ZN7Kasten228ViewProfilesManageControllerC1EP13KXMLGUIClientPNS_27ByteArrayViewProfileManagerEP7QWidget@Base 4:4.10.1
 _ZN7Kasten228ViewProfilesManageControllerC2EP13KXMLGUIClientPNS_27ByteArrayViewProfileManagerEP7QWidget@Base 4:4.10.1
 _ZN7Kasten228ViewProfilesManageControllerD0Ev@Base 4:4.10.1
 _ZN7Kasten228ViewProfilesManageControllerD1Ev@Base 4:4.10.1
 _ZN7Kasten228ViewProfilesManageControllerD2Ev@Base 4:4.10.1
 _ZN7Kasten229StringsExtractToolViewFactory6createEPNS_12AbstractToolE@Base 4:4.10.1
 _ZN7Kasten229StringsExtractToolViewFactoryC1Ev@Base 4:4.10.1
 _ZN7Kasten229StringsExtractToolViewFactoryC2Ev@Base 4:4.10.1
 _ZN7Kasten229StringsExtractToolViewFactoryD0Ev@Base 4:4.10.1
 _ZN7Kasten229StringsExtractToolViewFactoryD1Ev@Base 4:4.10.1
 _ZN7Kasten229StringsExtractToolViewFactoryD2Ev@Base 4:4.10.1
 _ZN7Kasten232CharsetConversionToolViewFactory6createEPNS_12AbstractToolE@Base 4:4.10.1
 _ZN7Kasten232CharsetConversionToolViewFactoryC1Ev@Base 4:4.10.1
 _ZN7Kasten232CharsetConversionToolViewFactoryC2Ev@Base 4:4.10.1
 _ZN7Kasten232CharsetConversionToolViewFactoryD0Ev@Base 4:4.10.1
 _ZN7Kasten232CharsetConversionToolViewFactoryD1Ev@Base 4:4.10.1
 _ZN7Kasten232CharsetConversionToolViewFactoryD2Ev@Base 4:4.10.1
 _ZN7Kasten28InfoTool11qt_metacallEN11QMetaObject4CallEiPPv@Base 4:4.10.1
 _ZN7Kasten28InfoTool11qt_metacastEPKc@Base 4:4.10.1
 _ZN7Kasten28InfoTool14setTargetModelEPNS_13AbstractModelE@Base 4:4.10.1
 _ZN7Kasten28InfoTool14statisticDirtyEb@Base 4:4.10.1
 _ZN7Kasten28InfoTool15onSourceChangedEv@Base 4:4.10.1
 _ZN7Kasten28InfoTool15updateStatisticEv@Base 4:4.10.1
 _ZN7Kasten28InfoTool16staticMetaObjectE@Base 4:4.10.1
 _ZN7Kasten28InfoTool17onSourceDestroyedEv@Base 4:4.10.1
 _ZN7Kasten28InfoTool18isApplyableChangedEb@Base 4:4.10.1
 _ZN7Kasten28InfoTool18onSelectionChangedEv@Base 4:4.10.1
 _ZN7Kasten28InfoToolC1Ev@Base 4:4.10.1
 _ZN7Kasten28InfoToolC2Ev@Base 4:4.10.1
 _ZN7Kasten28InfoToolD0Ev@Base 4:4.10.1
 _ZN7Kasten28InfoToolD1Ev@Base 4:4.10.1
 _ZN7Kasten28InfoToolD2Ev@Base 4:4.10.1
 _ZNK7Kasten210FilterTool10filterListEv@Base 4:4.10.1
 _ZNK7Kasten210FilterTool10metaObjectEv@Base 4:4.10.1
 _ZNK7Kasten210FilterTool12hasWriteableEv@Base 4:4.10.1
 _ZNK7Kasten210FilterTool13charCodecNameEv@Base 4:4.10.1
 _ZNK7Kasten210FilterTool5titleEv@Base 4:4.10.1
 _ZNK7Kasten210FilterTool6filterEi@Base 4:4.10.1
 _ZNK7Kasten210StructTool10childCountEv@Base 4:4.10.1
 _ZNK7Kasten210StructTool10metaObjectEv@Base 4:4.10.1
 _ZNK7Kasten210StructTool11columnCountEv@Base 4:4.10.1
 _ZNK7Kasten210StructTool12isFileLoadedEv@Base 4:4.10.1
 _ZNK7Kasten210StructTool14byteArrayModelEv@Base 4:4.10.1
 _ZNK7Kasten210StructTool17isStructureLockedERK11QModelIndex@Base 4:4.10.1
 _ZNK7Kasten210StructTool20canStructureBeLockedERK11QModelIndex@Base 4:4.10.1
 _ZNK7Kasten210StructTool5titleEv@Base 4:4.10.1
 _ZNK7Kasten210StructTool7allDataEv@Base 4:4.10.1
 _ZNK7Kasten210StructTool7childAtEi@Base 4:4.10.1
 _ZNK7Kasten210StructTool7managerEv@Base 4:4.10.1
 _ZNK7Kasten210StructTool9byteOrderEv@Base 4:4.10.1
 _ZNK7Kasten212ChecksumTool10metaObjectEv@Base 4:4.10.1
 _ZNK7Kasten212ChecksumTool11isApplyableEv@Base 4:4.10.1
 _ZNK7Kasten212ChecksumTool13algorithmListEv@Base 4:4.10.1
 _ZNK7Kasten212ChecksumTool5titleEv@Base 4:4.10.1
 _ZNK7Kasten212InfoToolView4toolEv@Base 4:4.10.1
 _ZNK7Kasten212InfoToolView5titleEv@Base 4:4.10.1
 _ZNK7Kasten212InfoToolView6widgetEv@Base 4:4.10.1
 _ZNK7Kasten213BookmarksTool10bookmarkAtEj@Base 4:4.10.1
 _ZNK7Kasten213BookmarksTool10metaObjectEv@Base 4:4.10.1
 _ZNK7Kasten213BookmarksTool12offsetCodingEv@Base 4:4.10.1
 _ZNK7Kasten213BookmarksTool14bookmarksCountEv@Base 4:4.10.1
 _ZNK7Kasten213BookmarksTool17canCreateBookmarkEv@Base 4:4.10.1
 _ZNK7Kasten213BookmarksTool5titleEv@Base 4:4.10.1
 _ZNK7Kasten213BookmarksTool7indexOfERKN6Okteta8BookmarkE@Base 4:4.10.1
 _ZNK7Kasten213ByteTableTool10metaObjectEv@Base 4:4.10.1
 _ZNK7Kasten213ByteTableTool12hasWriteableEv@Base 4:4.10.1
 _ZNK7Kasten213ByteTableTool14byteTableModelEv@Base 4:4.10.1
 _ZNK7Kasten213ByteTableTool5titleEv@Base 4:4.10.1
 _ZNK7Kasten214FilterToolView4toolEv@Base 4:4.10.1
 _ZNK7Kasten214FilterToolView5titleEv@Base 4:4.10.1
 _ZNK7Kasten214FilterToolView6widgetEv@Base 4:4.10.1
 _ZNK7Kasten214PODDecoderTool10isReadOnlyEv@Base 4:4.10.1
 _ZNK7Kasten214PODDecoderTool10metaObjectEv@Base 4:4.10.1
 _ZNK7Kasten214PODDecoderTool11isApplyableEv@Base 4:4.10.1
 _ZNK7Kasten214PODDecoderTool5titleEv@Base 4:4.10.1
 _ZNK7Kasten214PODDecoderTool5valueEi@Base 4:4.10.1
 _ZNK7Kasten214PODDecoderTool8podCountEv@Base 4:4.10.1
 _ZNK7Kasten214PODDecoderTool9nameOfPODEi@Base 4:4.10.1
 _ZNK7Kasten214StructToolView4toolEv@Base 4:4.10.1
 _ZNK7Kasten214StructToolView5titleEv@Base 4:4.10.1
 _ZNK7Kasten214StructToolView6widgetEv@Base 4:4.10.1
 _ZNK7Kasten215PrintController10metaObjectEv@Base 4:4.10.1
 _ZNK7Kasten216ChecksumToolView4toolEv@Base 4:4.10.1
 _ZNK7Kasten216ChecksumToolView5titleEv@Base 4:4.10.1
 _ZNK7Kasten216ChecksumToolView6widgetEv@Base 4:4.10.1
 _ZNK7Kasten216DocumentInfoTool10metaObjectEv@Base 4:4.10.1
 _ZNK7Kasten216DocumentInfoTool12documentSizeEv@Base 4:4.10.1
 _ZNK7Kasten216DocumentInfoTool13documentTitleEv@Base 4:4.10.1
 _ZNK7Kasten216DocumentInfoTool5titleEv@Base 4:4.10.1
 _ZNK7Kasten216DocumentInfoTool8locationEv@Base 4:4.10.1
 _ZNK7Kasten216SearchController10metaObjectEv@Base 4:4.10.1
 _ZNK7Kasten216SearchController13queryContinueENS_14KFindDirectionE@Base 4:4.10.1
 _ZNK7Kasten217BookmarksToolView4toolEv@Base 4:4.10.1
 _ZNK7Kasten217BookmarksToolView5titleEv@Base 4:4.10.1
 _ZNK7Kasten217BookmarksToolView6widgetEv@Base 4:4.10.1
 _ZNK7Kasten217ByteTableToolView4toolEv@Base 4:4.10.1
 _ZNK7Kasten217ByteTableToolView5titleEv@Base 4:4.10.1
 _ZNK7Kasten217ByteTableToolView6widgetEv@Base 4:4.10.1
 _ZNK7Kasten217ReplaceController10metaObjectEv@Base 4:4.10.1
 _ZNK7Kasten217ReplaceController13queryContinueENS_14KFindDirectionEi@Base 4:4.10.1
 _ZNK7Kasten217ReplaceController19queryReplaceCurrentEv@Base 4:4.10.1
 _ZNK7Kasten218PODDecoderToolView4toolEv@Base 4:4.10.1
 _ZNK7Kasten218PODDecoderToolView5titleEv@Base 4:4.10.1
 _ZNK7Kasten218PODDecoderToolView6widgetEv@Base 4:4.10.1
 _ZNK7Kasten218StringsExtractTool10metaObjectEv@Base 4:4.10.1
 _ZNK7Kasten218StringsExtractTool11isApplyableEv@Base 4:4.10.1
 _ZNK7Kasten218StringsExtractTool12offsetCodingEv@Base 4:4.10.1
 _ZNK7Kasten218StringsExtractTool18canHighlightStringEv@Base 4:4.10.1
 _ZNK7Kasten218StringsExtractTool5titleEv@Base 4:4.10.1
 _ZNK7Kasten218ViewModeController10metaObjectEv@Base 4:4.10.1
 _ZNK7Kasten219BookmarksController10metaObjectEv@Base 4:4.10.1
 _ZNK7Kasten219InfoToolViewFactory15defaultPositionEv@Base 4:4.10.1
 _ZNK7Kasten219InfoToolViewFactory2idEv@Base 4:4.10.1
 _ZNK7Kasten219InfoToolViewFactory5titleEv@Base 4:4.10.1
 _ZNK7Kasten219InfoToolViewFactory8iconNameEv@Base 4:4.10.1
 _ZNK7Kasten220DocumentInfoToolView4toolEv@Base 4:4.10.1
 _ZNK7Kasten220DocumentInfoToolView5titleEv@Base 4:4.10.1
 _ZNK7Kasten220DocumentInfoToolView6widgetEv@Base 4:4.10.1
 _ZNK7Kasten220GotoOffsetController10metaObjectEv@Base 4:4.10.1
 _ZNK7Kasten220ViewConfigController10metaObjectEv@Base 4:4.10.1
 _ZNK7Kasten220ViewStatusController10metaObjectEv@Base 4:4.10.1
 _ZNK7Kasten221CharsetConversionTool10metaObjectEv@Base 4:4.10.1
 _ZNK7Kasten221CharsetConversionTool11isApplyableEv@Base 4:4.10.1
 _ZNK7Kasten221CharsetConversionTool14substituteByteEv@Base 4:4.10.1
 _ZNK7Kasten221CharsetConversionTool18otherCharCodecNameEv@Base 4:4.10.1
 _ZNK7Kasten221CharsetConversionTool19conversionDirectionEv@Base 4:4.10.1
 _ZNK7Kasten221CharsetConversionTool26isSubstitutingMissingCharsEv@Base 4:4.10.1
 _ZNK7Kasten221CharsetConversionTool5titleEv@Base 4:4.10.1
 _ZNK7Kasten221FilterToolViewFactory15defaultPositionEv@Base 4:4.10.1
 _ZNK7Kasten221FilterToolViewFactory2idEv@Base 4:4.10.1
 _ZNK7Kasten221FilterToolViewFactory5titleEv@Base 4:4.10.1
 _ZNK7Kasten221FilterToolViewFactory8iconNameEv@Base 4:4.10.1
 _ZNK7Kasten221SelectRangeController10metaObjectEv@Base 4:4.10.1
 _ZNK7Kasten221ViewProfileController10metaObjectEv@Base 4:4.10.1
 _ZNK7Kasten222StringsExtractToolView4toolEv@Base 4:4.10.1
 _ZNK7Kasten222StringsExtractToolView5titleEv@Base 4:4.10.1
 _ZNK7Kasten222StringsExtractToolView6widgetEv@Base 4:4.10.1
 _ZNK7Kasten223ChecksumToolViewFactory15defaultPositionEv@Base 4:4.10.1
 _ZNK7Kasten223ChecksumToolViewFactory2idEv@Base 4:4.10.1
 _ZNK7Kasten223ChecksumToolViewFactory5titleEv@Base 4:4.10.1
 _ZNK7Kasten223ChecksumToolViewFactory8iconNameEv@Base 4:4.10.1
 _ZNK7Kasten223OverwriteModeController10metaObjectEv@Base 4:4.10.1
 _ZNK7Kasten224BookmarksToolViewFactory15defaultPositionEv@Base 4:4.10.1
 _ZNK7Kasten224BookmarksToolViewFactory2idEv@Base 4:4.10.1
 _ZNK7Kasten224BookmarksToolViewFactory5titleEv@Base 4:4.10.1
 _ZNK7Kasten224BookmarksToolViewFactory8iconNameEv@Base 4:4.10.1
 _ZNK7Kasten224ByteTableToolViewFactory15defaultPositionEv@Base 4:4.10.1
 _ZNK7Kasten224ByteTableToolViewFactory2idEv@Base 4:4.10.1
 _ZNK7Kasten224ByteTableToolViewFactory5titleEv@Base 4:4.10.1
 _ZNK7Kasten224ByteTableToolViewFactory8iconNameEv@Base 4:4.10.1
 _ZNK7Kasten225CharsetConversionToolView4toolEv@Base 4:4.10.1
 _ZNK7Kasten225CharsetConversionToolView5titleEv@Base 4:4.10.1
 _ZNK7Kasten225CharsetConversionToolView6widgetEv@Base 4:4.10.1
 _ZNK7Kasten225PodDecoderToolViewFactory15defaultPositionEv@Base 4:4.10.1
 _ZNK7Kasten225PodDecoderToolViewFactory2idEv@Base 4:4.10.1
 _ZNK7Kasten225PodDecoderToolViewFactory5titleEv@Base 4:4.10.1
 _ZNK7Kasten225PodDecoderToolViewFactory8iconNameEv@Base 4:4.10.1
 _ZNK7Kasten225StructuresToolViewFactory15defaultPositionEv@Base 4:4.10.1
 _ZNK7Kasten225StructuresToolViewFactory2idEv@Base 4:4.10.1
 _ZNK7Kasten225StructuresToolViewFactory5titleEv@Base 4:4.10.1
 _ZNK7Kasten225StructuresToolViewFactory8iconNameEv@Base 4:4.10.1
 _ZNK7Kasten228ViewProfilesManageController10metaObjectEv@Base 4:4.10.1
 _ZNK7Kasten229StringsExtractToolViewFactory15defaultPositionEv@Base 4:4.10.1
 _ZNK7Kasten229StringsExtractToolViewFactory2idEv@Base 4:4.10.1
 _ZNK7Kasten229StringsExtractToolViewFactory5titleEv@Base 4:4.10.1
 _ZNK7Kasten229StringsExtractToolViewFactory8iconNameEv@Base 4:4.10.1
 _ZNK7Kasten232CharsetConversionToolViewFactory15defaultPositionEv@Base 4:4.10.1
 _ZNK7Kasten232CharsetConversionToolViewFactory2idEv@Base 4:4.10.1
 _ZNK7Kasten232CharsetConversionToolViewFactory5titleEv@Base 4:4.10.1
 _ZNK7Kasten232CharsetConversionToolViewFactory8iconNameEv@Base 4:4.10.1
 _ZNK7Kasten28InfoTool10metaObjectEv@Base 4:4.10.1
 _ZNK7Kasten28InfoTool11isApplyableEv@Base 4:4.10.1
 _ZNK7Kasten28InfoTool19isStatisticUptodateEv@Base 4:4.10.1
 _ZNK7Kasten28InfoTool19statisticTableModelEv@Base 4:4.10.1
 _ZNK7Kasten28InfoTool4sizeEv@Base 4:4.10.1
 _ZNK7Kasten28InfoTool5titleEv@Base 4:4.10.1
 _ZTIN7Kasten210FilterToolE@Base 4:4.10.1
 _ZTIN7Kasten210StructToolE@Base 4:4.10.1
 _ZTIN7Kasten212ChecksumToolE@Base 4:4.10.1
 _ZTIN7Kasten212InfoToolViewE@Base 4:4.10.1
 _ZTIN7Kasten213BookmarksToolE@Base 4:4.10.1
 _ZTIN7Kasten213ByteTableToolE@Base 4:4.10.1
 _ZTIN7Kasten214FilterToolViewE@Base 4:4.10.1
 _ZTIN7Kasten214PODDecoderToolE@Base 4:4.10.1
 _ZTIN7Kasten214StructToolViewE@Base 4:4.10.1
 _ZTIN7Kasten215InfoToolFactoryE@Base 4:4.10.1
 _ZTIN7Kasten215PrintControllerE@Base 4:4.10.1
 _ZTIN7Kasten216ChecksumToolViewE@Base 4:4.10.1
 _ZTIN7Kasten216DocumentInfoToolE@Base 4:4.10.1
 _ZTIN7Kasten216SearchControllerE@Base 4:4.10.1
 _ZTIN7Kasten217BookmarksToolViewE@Base 4:4.10.1
 _ZTIN7Kasten217ByteTableToolViewE@Base 4:4.10.1
 _ZTIN7Kasten217FilterToolFactoryE@Base 4:4.10.1
 _ZTIN7Kasten217ReplaceControllerE@Base 4:4.10.1
 _ZTIN7Kasten218PODDecoderToolViewE@Base 4:4.10.1
 _ZTIN7Kasten218StringsExtractToolE@Base 4:4.10.1
 _ZTIN7Kasten218ViewModeControllerE@Base 4:4.10.1
 _ZTIN7Kasten219BookmarksControllerE@Base 4:4.10.1
 _ZTIN7Kasten219ChecksumToolFactoryE@Base 4:4.10.1
 _ZTIN7Kasten219InfoToolViewFactoryE@Base 4:4.10.1
 _ZTIN7Kasten220BookmarksToolFactoryE@Base 4:4.10.1
 _ZTIN7Kasten220ByteTableToolFactoryE@Base 4:4.10.1
 _ZTIN7Kasten220DocumentInfoToolViewE@Base 4:4.10.1
 _ZTIN7Kasten220GotoOffsetControllerE@Base 4:4.10.1
 _ZTIN7Kasten220ViewConfigControllerE@Base 4:4.10.1
 _ZTIN7Kasten220ViewStatusControllerE@Base 4:4.10.1
 _ZTIN7Kasten221CharsetConversionToolE@Base 4:4.10.1
 _ZTIN7Kasten221FilterToolViewFactoryE@Base 4:4.10.1
 _ZTIN7Kasten221PodDecoderToolFactoryE@Base 4:4.10.1
 _ZTIN7Kasten221SelectRangeControllerE@Base 4:4.10.1
 _ZTIN7Kasten221StructuresToolFactoryE@Base 4:4.10.1
 _ZTIN7Kasten221ViewProfileControllerE@Base 4:4.10.1
 _ZTIN7Kasten222StringsExtractToolViewE@Base 4:4.10.1
 _ZTIN7Kasten223ChecksumToolViewFactoryE@Base 4:4.10.1
 _ZTIN7Kasten223OverwriteModeControllerE@Base 4:4.10.1
 _ZTIN7Kasten224BookmarksToolViewFactoryE@Base 4:4.10.1
 _ZTIN7Kasten224ByteTableToolViewFactoryE@Base 4:4.10.1
 _ZTIN7Kasten225CharsetConversionToolViewE@Base 4:4.10.1
 _ZTIN7Kasten225PodDecoderToolViewFactoryE@Base 4:4.10.1
 _ZTIN7Kasten225StringsExtractToolFactoryE@Base 4:4.10.1
 _ZTIN7Kasten225StructuresToolViewFactoryE@Base 4:4.10.1
 _ZTIN7Kasten228CharsetConversionToolFactoryE@Base 4:4.10.1
 _ZTIN7Kasten228ViewProfilesManageControllerE@Base 4:4.10.1
 _ZTIN7Kasten229StringsExtractToolViewFactoryE@Base 4:4.10.1
 _ZTIN7Kasten232CharsetConversionToolViewFactoryE@Base 4:4.10.1
 _ZTIN7Kasten28InfoToolE@Base 4:4.10.1
 _ZTSN7Kasten210FilterToolE@Base 4:4.10.1
 _ZTSN7Kasten210StructToolE@Base 4:4.10.1
 _ZTSN7Kasten212ChecksumToolE@Base 4:4.10.1
 _ZTSN7Kasten212InfoToolViewE@Base 4:4.10.1
 _ZTSN7Kasten213BookmarksToolE@Base 4:4.10.1
 _ZTSN7Kasten213ByteTableToolE@Base 4:4.10.1
 _ZTSN7Kasten214FilterToolViewE@Base 4:4.10.1
 _ZTSN7Kasten214PODDecoderToolE@Base 4:4.10.1
 _ZTSN7Kasten214StructToolViewE@Base 4:4.10.1
 _ZTSN7Kasten215InfoToolFactoryE@Base 4:4.10.1
 _ZTSN7Kasten215PrintControllerE@Base 4:4.10.1
 _ZTSN7Kasten216ChecksumToolViewE@Base 4:4.10.1
 _ZTSN7Kasten216DocumentInfoToolE@Base 4:4.10.1
 _ZTSN7Kasten216SearchControllerE@Base 4:4.10.1
 _ZTSN7Kasten217BookmarksToolViewE@Base 4:4.10.1
 _ZTSN7Kasten217ByteTableToolViewE@Base 4:4.10.1
 _ZTSN7Kasten217FilterToolFactoryE@Base 4:4.10.1
 _ZTSN7Kasten217ReplaceControllerE@Base 4:4.10.1
 _ZTSN7Kasten218PODDecoderToolViewE@Base 4:4.10.1
 _ZTSN7Kasten218StringsExtractToolE@Base 4:4.10.1
 _ZTSN7Kasten218ViewModeControllerE@Base 4:4.10.1
 _ZTSN7Kasten219BookmarksControllerE@Base 4:4.10.1
 _ZTSN7Kasten219ChecksumToolFactoryE@Base 4:4.10.1
 _ZTSN7Kasten219InfoToolViewFactoryE@Base 4:4.10.1
 _ZTSN7Kasten220BookmarksToolFactoryE@Base 4:4.10.1
 _ZTSN7Kasten220ByteTableToolFactoryE@Base 4:4.10.1
 _ZTSN7Kasten220DocumentInfoToolViewE@Base 4:4.10.1
 _ZTSN7Kasten220GotoOffsetControllerE@Base 4:4.10.1
 _ZTSN7Kasten220ViewConfigControllerE@Base 4:4.10.1
 _ZTSN7Kasten220ViewStatusControllerE@Base 4:4.10.1
 _ZTSN7Kasten221CharsetConversionToolE@Base 4:4.10.1
 _ZTSN7Kasten221FilterToolViewFactoryE@Base 4:4.10.1
 _ZTSN7Kasten221PodDecoderToolFactoryE@Base 4:4.10.1
 _ZTSN7Kasten221SelectRangeControllerE@Base 4:4.10.1
 _ZTSN7Kasten221StructuresToolFactoryE@Base 4:4.10.1
 _ZTSN7Kasten221ViewProfileControllerE@Base 4:4.10.1
 _ZTSN7Kasten222StringsExtractToolViewE@Base 4:4.10.1
 _ZTSN7Kasten223ChecksumToolViewFactoryE@Base 4:4.10.1
 _ZTSN7Kasten223OverwriteModeControllerE@Base 4:4.10.1
 _ZTSN7Kasten224BookmarksToolViewFactoryE@Base 4:4.10.1
 _ZTSN7Kasten224ByteTableToolViewFactoryE@Base 4:4.10.1
 _ZTSN7Kasten225CharsetConversionToolViewE@Base 4:4.10.1
 _ZTSN7Kasten225PodDecoderToolViewFactoryE@Base 4:4.10.1
 _ZTSN7Kasten225StringsExtractToolFactoryE@Base 4:4.10.1
 _ZTSN7Kasten225StructuresToolViewFactoryE@Base 4:4.10.1
 _ZTSN7Kasten228CharsetConversionToolFactoryE@Base 4:4.10.1
 _ZTSN7Kasten228ViewProfilesManageControllerE@Base 4:4.10.1
 _ZTSN7Kasten229StringsExtractToolViewFactoryE@Base 4:4.10.1
 _ZTSN7Kasten232CharsetConversionToolViewFactoryE@Base 4:4.10.1
 _ZTSN7Kasten28InfoToolE@Base 4:4.10.1
 _ZTVN7Kasten210FilterToolE@Base 4:4.10.1
 _ZTVN7Kasten210StructToolE@Base 4:4.10.1
 _ZTVN7Kasten212ChecksumToolE@Base 4:4.10.1
 _ZTVN7Kasten212InfoToolViewE@Base 4:4.10.1
 _ZTVN7Kasten213BookmarksToolE@Base 4:4.10.1
 _ZTVN7Kasten213ByteTableToolE@Base 4:4.10.1
 _ZTVN7Kasten214FilterToolViewE@Base 4:4.10.1
 _ZTVN7Kasten214PODDecoderToolE@Base 4:4.10.1
 _ZTVN7Kasten214StructToolViewE@Base 4:4.10.1
 _ZTVN7Kasten215InfoToolFactoryE@Base 4:4.10.1
 _ZTVN7Kasten215PrintControllerE@Base 4:4.10.1
 _ZTVN7Kasten216ChecksumToolViewE@Base 4:4.10.1
 _ZTVN7Kasten216DocumentInfoToolE@Base 4:4.10.1
 _ZTVN7Kasten216SearchControllerE@Base 4:4.10.1
 _ZTVN7Kasten217BookmarksToolViewE@Base 4:4.10.1
 _ZTVN7Kasten217ByteTableToolViewE@Base 4:4.10.1
 _ZTVN7Kasten217FilterToolFactoryE@Base 4:4.10.1
 _ZTVN7Kasten217ReplaceControllerE@Base 4:4.10.1
 _ZTVN7Kasten218PODDecoderToolViewE@Base 4:4.10.1
 _ZTVN7Kasten218StringsExtractToolE@Base 4:4.10.1
 _ZTVN7Kasten218ViewModeControllerE@Base 4:4.10.1
 _ZTVN7Kasten219BookmarksControllerE@Base 4:4.10.1
 _ZTVN7Kasten219ChecksumToolFactoryE@Base 4:4.10.1
 _ZTVN7Kasten219InfoToolViewFactoryE@Base 4:4.10.1
 _ZTVN7Kasten220BookmarksToolFactoryE@Base 4:4.10.1
 _ZTVN7Kasten220ByteTableToolFactoryE@Base 4:4.10.1
 _ZTVN7Kasten220DocumentInfoToolViewE@Base 4:4.10.1
 _ZTVN7Kasten220GotoOffsetControllerE@Base 4:4.10.1
 _ZTVN7Kasten220ViewConfigControllerE@Base 4:4.10.1
 _ZTVN7Kasten220ViewStatusControllerE@Base 4:4.10.1
 _ZTVN7Kasten221CharsetConversionToolE@Base 4:4.10.1
 _ZTVN7Kasten221FilterToolViewFactoryE@Base 4:4.10.1
 _ZTVN7Kasten221PodDecoderToolFactoryE@Base 4:4.10.1
 _ZTVN7Kasten221SelectRangeControllerE@Base 4:4.10.1
 _ZTVN7Kasten221StructuresToolFactoryE@Base 4:4.10.1
 _ZTVN7Kasten221ViewProfileControllerE@Base 4:4.10.1
 _ZTVN7Kasten222StringsExtractToolViewE@Base 4:4.10.1
 _ZTVN7Kasten223ChecksumToolViewFactoryE@Base 4:4.10.1
 _ZTVN7Kasten223OverwriteModeControllerE@Base 4:4.10.1
 _ZTVN7Kasten224BookmarksToolViewFactoryE@Base 4:4.10.1
 _ZTVN7Kasten224ByteTableToolViewFactoryE@Base 4:4.10.1
 _ZTVN7Kasten225CharsetConversionToolViewE@Base 4:4.10.1
 _ZTVN7Kasten225PodDecoderToolViewFactoryE@Base 4:4.10.1
 _ZTVN7Kasten225StringsExtractToolFactoryE@Base 4:4.10.1
 _ZTVN7Kasten225StructuresToolViewFactoryE@Base 4:4.10.1
 _ZTVN7Kasten228CharsetConversionToolFactoryE@Base 4:4.10.1
 _ZTVN7Kasten228ViewProfilesManageControllerE@Base 4:4.10.1
 _ZTVN7Kasten229StringsExtractToolViewFactoryE@Base 4:4.10.1
 _ZTVN7Kasten232CharsetConversionToolViewFactoryE@Base 4:4.10.1
 _ZTVN7Kasten28InfoToolE@Base 4:4.10.1
 _ZThn16_N7Kasten216SearchControllerD0Ev@Base 4:4.10.1
 _ZThn16_N7Kasten216SearchControllerD1Ev@Base 4:4.10.1
 _ZThn16_N7Kasten217ReplaceControllerD0Ev@Base 4:4.10.1
 _ZThn16_N7Kasten217ReplaceControllerD1Ev@Base 4:4.10.1
 _ZThn16_NK7Kasten216SearchController13queryContinueENS_14KFindDirectionE@Base 4:4.10.1
 _ZThn16_NK7Kasten217ReplaceController13queryContinueENS_14KFindDirectionEi@Base 4:4.10.1
 _ZThn16_NK7Kasten217ReplaceController19queryReplaceCurrentEv@Base 4:4.10.1
