# SymbolsHelper-Confirmed: 4:4.8.4 amd64
libkasten1okteta1core.so.1 libkasten1okteta1core1 #MINVER#
 ABI_1_0@ABI_1_0 4:4.8.4
 _ZN7Kasten117ByteArrayDocument10usersAddedERK5QListINS_6PersonEE@ABI_1_0 4:4.8.4
 _ZN7Kasten117ByteArrayDocument11qt_metacallEN11QMetaObject4CallEiPPv@ABI_1_0 4:4.8.4
 _ZN7Kasten117ByteArrayDocument11qt_metacastEPKc@ABI_1_0 4:4.8.4
 _ZN7Kasten117ByteArrayDocument11removeUsersERK5QListINS_6PersonEE@ABI_1_0 4:4.8.4
 _ZN7Kasten117ByteArrayDocument11setReadOnlyEb@ABI_1_0 4:4.8.4
 _ZN7Kasten117ByteArrayDocument12usersRemovedERK5QListINS_6PersonEE@ABI_1_0 4:4.8.4
 _ZN7Kasten117ByteArrayDocument15onModelModifiedEb@ABI_1_0 4:4.8.4
 _ZN7Kasten117ByteArrayDocument16staticMetaObjectE@ABI_1_0 4:4.8.4
 _ZN7Kasten117ByteArrayDocument18headVersionChangedEi@ABI_1_0 4:4.8.4
 _ZN7Kasten117ByteArrayDocument22headVersionDataChangedERKNS_19DocumentVersionDataE@ABI_1_0 4:4.8.4
 _ZN7Kasten117ByteArrayDocument22revertToVersionByIndexEi@ABI_1_0 4:4.8.4
 _ZN7Kasten117ByteArrayDocument22revertedToVersionIndexEi@ABI_1_0 4:4.8.4
 _ZN7Kasten117ByteArrayDocument31onHeadVersionDescriptionChangedERK7QString@ABI_1_0 4:4.8.4
 _ZN7Kasten117ByteArrayDocument8addUsersERK5QListINS_6PersonEE@ABI_1_0 4:4.8.4
 _ZN7Kasten117ByteArrayDocument8setOwnerERKNS_6PersonE@ABI_1_0 4:4.8.4
 _ZN7Kasten117ByteArrayDocument8setTitleERK7QString@ABI_1_0 4:4.8.4
 _ZN7Kasten117ByteArrayDocumentC1EPN6Okteta24PieceTableByteArrayModelERK7QString@ABI_1_0 4:4.8.4
 _ZN7Kasten117ByteArrayDocumentC1ERK7QString@ABI_1_0 4:4.8.4
 _ZN7Kasten117ByteArrayDocumentC2EPN6Okteta24PieceTableByteArrayModelERK7QString@ABI_1_0 4:4.8.4
 _ZN7Kasten117ByteArrayDocumentC2ERK7QString@ABI_1_0 4:4.8.4
 _ZN7Kasten117ByteArrayDocumentD0Ev@ABI_1_0 4:4.8.4
 _ZN7Kasten117ByteArrayDocumentD1Ev@ABI_1_0 4:4.8.4
 _ZN7Kasten117ByteArrayDocumentD2Ev@ABI_1_0 4:4.8.4
 _ZN7Kasten118ByteArraySelection8setRangeERKN3KDE11NumberRangeIiiEE@ABI_1_0 4:4.8.4
 _ZN7Kasten118ByteArraySelectionC1Ev@ABI_1_0 4:4.8.4
 _ZN7Kasten118ByteArraySelectionC2Ev@ABI_1_0 4:4.8.4
 _ZN7Kasten118ByteArraySelectionD0Ev@ABI_1_0 4:4.8.4
 _ZN7Kasten118ByteArraySelectionD1Ev@ABI_1_0 4:4.8.4
 _ZN7Kasten118ByteArraySelectionD2Ev@ABI_1_0 4:4.8.4
 _ZN7Kasten124ByteArrayDocumentFactory11qt_metacallEN11QMetaObject4CallEiPPv@ABI_1_0 4:4.8.4
 _ZN7Kasten124ByteArrayDocumentFactory11qt_metacastEPKc@ABI_1_0 4:4.8.4
 _ZN7Kasten124ByteArrayDocumentFactory14createFromDataEPK9QMimeDatab@ABI_1_0 4:4.8.4
 _ZN7Kasten124ByteArrayDocumentFactory16staticMetaObjectE@ABI_1_0 4:4.8.4
 _ZN7Kasten124ByteArrayDocumentFactory17canCreateFromDataEPK9QMimeData@ABI_1_0 4:4.8.4
 _ZN7Kasten124ByteArrayDocumentFactory6createEv@ABI_1_0 4:4.8.4
 _ZN7Kasten124ByteArrayDocumentFactoryD0Ev@ABI_1_0 4:4.8.4
 _ZN7Kasten124ByteArrayDocumentFactoryD1Ev@ABI_1_0 4:4.8.4
 _ZN7Kasten124ByteArrayDocumentFactoryD2Ev@ABI_1_0 4:4.8.4
 _ZN7Kasten128ByteArrayRawFileSynchronizer11onUrlChangeERK4KUrl@ABI_1_0 4:4.8.4
 _ZN7Kasten128ByteArrayRawFileSynchronizer11qt_metacallEN11QMetaObject4CallEiPPv@ABI_1_0 4:4.8.4
 _ZN7Kasten128ByteArrayRawFileSynchronizer11qt_metacastEPKc@ABI_1_0 4:4.8.4
 _ZN7Kasten128ByteArrayRawFileSynchronizer12startConnectEPNS_16AbstractDocumentERK4KUrlNS_25AbstractModelSynchronizer13ConnectOptionE@ABI_1_0 4:4.8.4
 _ZN7Kasten128ByteArrayRawFileSynchronizer13startOfferingEPNS_16AbstractDocumentE@ABI_1_0 4:4.8.4
 _ZN7Kasten128ByteArrayRawFileSynchronizer16staticMetaObjectE@ABI_1_0 4:4.8.4
 _ZN7Kasten128ByteArrayRawFileSynchronizer17startSyncToRemoteEv@ABI_1_0 4:4.8.4
 _ZN7Kasten128ByteArrayRawFileSynchronizer19startSyncFromRemoteEv@ABI_1_0 4:4.8.4
 _ZN7Kasten128ByteArrayRawFileSynchronizer19startSyncWithRemoteERK4KUrlNS_25AbstractModelSynchronizer13ConnectOptionE@ABI_1_0 4:4.8.4
 _ZN7Kasten128ByteArrayRawFileSynchronizer9startLoadERK4KUrl@ABI_1_0 4:4.8.4
 _ZN7Kasten128ByteArrayRawFileSynchronizerC1Ev@ABI_1_0 4:4.8.4
 _ZN7Kasten128ByteArrayRawFileSynchronizerC2Ev@ABI_1_0 4:4.8.4
 _ZN7Kasten128ByteArrayRawFileSynchronizerD0Ev@ABI_1_0 4:4.8.4
 _ZN7Kasten128ByteArrayRawFileSynchronizerD1Ev@ABI_1_0 4:4.8.4
 _ZN7Kasten128ByteArrayRawFileSynchronizerD2Ev@ABI_1_0 4:4.8.4
 _ZN7Kasten135ByteArrayRawFileSynchronizerFactory11qt_metacallEN11QMetaObject4CallEiPPv@ABI_1_0 4:4.8.4
 _ZN7Kasten135ByteArrayRawFileSynchronizerFactory11qt_metacastEPKc@ABI_1_0 4:4.8.4
 _ZN7Kasten135ByteArrayRawFileSynchronizerFactory16staticMetaObjectE@ABI_1_0 4:4.8.4
 _ZN7Kasten135ByteArrayRawFileSynchronizerFactoryC1Ev@ABI_1_0 4:4.8.4
 _ZN7Kasten135ByteArrayRawFileSynchronizerFactoryC2Ev@ABI_1_0 4:4.8.4
 _ZN7Kasten135ByteArrayRawFileSynchronizerFactoryD0Ev@ABI_1_0 4:4.8.4
 _ZN7Kasten135ByteArrayRawFileSynchronizerFactoryD1Ev@ABI_1_0 4:4.8.4
 _ZN7Kasten135ByteArrayRawFileSynchronizerFactoryD2Ev@ABI_1_0 4:4.8.4
 _ZNK7Kasten117ByteArrayDocument10isReadOnlyEv@ABI_1_0 4:4.8.4
 _ZNK7Kasten117ByteArrayDocument10metaObjectEv@ABI_1_0 4:4.8.4
 _ZNK7Kasten117ByteArrayDocument11versionDataEi@ABI_1_0 4:4.8.4
 _ZNK7Kasten117ByteArrayDocument12isModifiableEv@ABI_1_0 4:4.8.4
 _ZNK7Kasten117ByteArrayDocument12versionCountEv@ABI_1_0 4:4.8.4
 _ZNK7Kasten117ByteArrayDocument12versionIndexEv@ABI_1_0 4:4.8.4
 _ZNK7Kasten117ByteArrayDocument14localSyncStateEv@ABI_1_0 4:4.8.4
 _ZNK7Kasten117ByteArrayDocument5ownerEv@ABI_1_0 4:4.8.4
 _ZNK7Kasten117ByteArrayDocument5titleEv@ABI_1_0 4:4.8.4
 _ZNK7Kasten117ByteArrayDocument7contentEv@ABI_1_0 4:4.8.4
 _ZNK7Kasten117ByteArrayDocument8mimeTypeEv@ABI_1_0 4:4.8.4
 _ZNK7Kasten117ByteArrayDocument8typeNameEv@ABI_1_0 4:4.8.4
 _ZNK7Kasten117ByteArrayDocument8userListEv@ABI_1_0 4:4.8.4
 _ZNK7Kasten118ByteArraySelection5rangeEv@ABI_1_0 4:4.8.4
 _ZNK7Kasten118ByteArraySelection7isValidEv@ABI_1_0 4:4.8.4
 _ZNK7Kasten124ByteArrayDocumentFactory10metaObjectEv@ABI_1_0 4:4.8.4
 _ZNK7Kasten128ByteArrayRawFileSynchronizer10metaObjectEv@ABI_1_0 4:4.8.4
 _ZNK7Kasten128ByteArrayRawFileSynchronizer8documentEv@ABI_1_0 4:4.8.4
 _ZNK7Kasten135ByteArrayRawFileSynchronizerFactory10metaObjectEv@ABI_1_0 4:4.8.4
 _ZNK7Kasten135ByteArrayRawFileSynchronizerFactory17supportedWorkTypeEv@ABI_1_0 4:4.8.4
 _ZNK7Kasten135ByteArrayRawFileSynchronizerFactory18createSynchronizerEv@ABI_1_0 4:4.8.4
 _ZNK7Kasten135ByteArrayRawFileSynchronizerFactory19supportedRemoteTypeEv@ABI_1_0 4:4.8.4
 _ZTIN7Kasten117ByteArrayDocumentE@ABI_1_0 4:4.8.4
 _ZTIN7Kasten118ByteArraySelectionE@ABI_1_0 4:4.8.4
 _ZTIN7Kasten124ByteArrayDocumentFactoryE@ABI_1_0 4:4.8.4
 _ZTIN7Kasten128ByteArrayRawFileSynchronizerE@ABI_1_0 4:4.8.4
 _ZTIN7Kasten135ByteArrayRawFileSynchronizerFactoryE@ABI_1_0 4:4.8.4
 _ZTSN7Kasten117ByteArrayDocumentE@ABI_1_0 4:4.8.4
 _ZTSN7Kasten118ByteArraySelectionE@ABI_1_0 4:4.8.4
 _ZTSN7Kasten124ByteArrayDocumentFactoryE@ABI_1_0 4:4.8.4
 _ZTSN7Kasten128ByteArrayRawFileSynchronizerE@ABI_1_0 4:4.8.4
 _ZTSN7Kasten135ByteArrayRawFileSynchronizerFactoryE@ABI_1_0 4:4.8.4
 _ZTVN7Kasten117ByteArrayDocumentE@ABI_1_0 4:4.8.4
 _ZTVN7Kasten118ByteArraySelectionE@ABI_1_0 4:4.8.4
 _ZTVN7Kasten124ByteArrayDocumentFactoryE@ABI_1_0 4:4.8.4
 _ZTVN7Kasten128ByteArrayRawFileSynchronizerE@ABI_1_0 4:4.8.4
 _ZTVN7Kasten135ByteArrayRawFileSynchronizerFactoryE@ABI_1_0 4:4.8.4
 (c++)"non-virtual thunk to Kasten1::ByteArrayDocument::headVersionChanged(int)@ABI_1_0" 4:4.8.4
 (c++)"non-virtual thunk to Kasten1::ByteArrayDocument::headVersionDataChanged(Kasten1::DocumentVersionData const&)@ABI_1_0" 4:4.8.4
 (c++)"non-virtual thunk to Kasten1::ByteArrayDocument::owner() const@ABI_1_0" 4:4.8.4
 (c++)"non-virtual thunk to Kasten1::ByteArrayDocument::revertToVersionByIndex(int)@ABI_1_0" 4:4.8.4
 (c++)"non-virtual thunk to Kasten1::ByteArrayDocument::revertedToVersionIndex(int)@ABI_1_0" 4:4.8.4
 (c++)"non-virtual thunk to Kasten1::ByteArrayDocument::userList() const@ABI_1_0" 4:4.8.4
 (c++)"non-virtual thunk to Kasten1::ByteArrayDocument::usersAdded(QList<Kasten1::Person> const&)@ABI_1_0" 4:4.8.4
 (c++)"non-virtual thunk to Kasten1::ByteArrayDocument::usersRemoved(QList<Kasten1::Person> const&)@ABI_1_0" 4:4.8.4
 (c++)"non-virtual thunk to Kasten1::ByteArrayDocument::versionCount() const@ABI_1_0" 4:4.8.4
 (c++)"non-virtual thunk to Kasten1::ByteArrayDocument::versionData(int) const@ABI_1_0" 4:4.8.4
 (c++)"non-virtual thunk to Kasten1::ByteArrayDocument::versionIndex() const@ABI_1_0" 4:4.8.4
 (c++)"non-virtual thunk to Kasten1::ByteArrayDocument::~ByteArrayDocument()@ABI_1_0" 4:4.8.4
