libokteta1core.so.1 libokteta1core1 #MINVER#
 _ZN6Okteta10ValueCodec11createCodecENS_11ValueCodingE@Base 4:4.10.1
 _ZN6Okteta10ValueCodecD0Ev@Base 4:4.10.1
 _ZN6Okteta10ValueCodecD1Ev@Base 4:4.10.1
 _ZN6Okteta10ValueCodecD2Ev@Base 4:4.10.1
 _ZN6Okteta14ByteArrayModel10setMaxSizeEi@Base 4:4.10.1
 _ZN6Okteta14ByteArrayModel11qt_metacallEN11QMetaObject4CallEiPPv@Base 4:4.10.1
 _ZN6Okteta14ByteArrayModel11qt_metacastEPKc@Base 4:4.10.1
 _ZN6Okteta14ByteArrayModel11setBookmarkEjRKNS_8BookmarkE@Base 4:4.10.1
 _ZN6Okteta14ByteArrayModel11setModifiedEb@Base 4:4.10.1
 _ZN6Okteta14ByteArrayModel11setReadOnlyEb@Base 4:4.10.1
 _ZN6Okteta14ByteArrayModel12addBookmarksERK5QListINS_8BookmarkEE@Base 4:4.10.1
 _ZN6Okteta14ByteArrayModel13setAutoDeleteEb@Base 4:4.10.1
 _ZN6Okteta14ByteArrayModel14bookmarksAddedERK5QListINS_8BookmarkEE@Base 4:4.10.1
 _ZN6Okteta14ByteArrayModel14setKeepsMemoryEb@Base 4:4.10.1
 _ZN6Okteta14ByteArrayModel15removeBookmarksERK5QListINS_8BookmarkEE@Base 4:4.10.1
 _ZN6Okteta14ByteArrayModel16bookmarksRemovedERK5QListINS_8BookmarkEE@Base 4:4.10.1
 _ZN6Okteta14ByteArrayModel16staticMetaObjectE@Base 4:4.10.1
 _ZN6Okteta14ByteArrayModel17bookmarksModifiedERK5QListIiE@Base 4:4.10.1
 _ZN6Okteta14ByteArrayModel17bookmarksModifiedEb@Base 4:4.10.1
 _ZN6Okteta14ByteArrayModel18removeAllBookmarksEv@Base 4:4.10.1
 _ZN6Okteta14ByteArrayModel21signalContentsChangedEii@Base 4:4.10.1
 _ZN6Okteta14ByteArrayModel4fillEhii@Base 4:4.10.1
 _ZN6Okteta14ByteArrayModel4swapEiRKN3KDE11NumberRangeIiiEE@Base 4:4.10.1
 _ZN6Okteta14ByteArrayModel6insertEiPKhi@Base 4:4.10.1
 _ZN6Okteta14ByteArrayModel6removeERKN3KDE11NumberRangeIiiEE@Base 4:4.10.1
 _ZN6Okteta14ByteArrayModel7replaceERKN3KDE11NumberRangeIiiEEPKhi@Base 4:4.10.1
 _ZN6Okteta14ByteArrayModel7setByteEih@Base 4:4.10.1
 _ZN6Okteta14ByteArrayModel7setDataEPhiib@Base 4:4.10.1
 _ZN6Okteta14ByteArrayModelC1EPKhiP7QObject@Base 4:4.10.1
 _ZN6Okteta14ByteArrayModelC1EPhiibP7QObject@Base 4:4.10.1
 _ZN6Okteta14ByteArrayModelC1EiiP7QObject@Base 4:4.10.1
 _ZN6Okteta14ByteArrayModelC2EPKhiP7QObject@Base 4:4.10.1
 _ZN6Okteta14ByteArrayModelC2EPhiibP7QObject@Base 4:4.10.1
 _ZN6Okteta14ByteArrayModelC2EiiP7QObject@Base 4:4.10.1
 _ZN6Okteta14ByteArrayModelD0Ev@Base 4:4.10.1
 _ZN6Okteta14ByteArrayModelD1Ev@Base 4:4.10.1
 _ZN6Okteta14ByteArrayModelD2Ev@Base 4:4.10.1
 _ZN6Okteta18FileByteArrayModel11setModifiedEb@Base 4:4.10.1
 _ZN6Okteta18FileByteArrayModel11setReadOnlyEb@Base 4:4.10.1
 _ZN6Okteta18FileByteArrayModel4fillEhii@Base 4:4.10.1
 _ZN6Okteta18FileByteArrayModel4openERK7QString@Base 4:4.10.1
 _ZN6Okteta18FileByteArrayModel4swapEiRKN3KDE11NumberRangeIiiEE@Base 4:4.10.1
 _ZN6Okteta18FileByteArrayModel5closeEv@Base 4:4.10.1
 _ZN6Okteta18FileByteArrayModel6insertEiPKhi@Base 4:4.10.1
 _ZN6Okteta18FileByteArrayModel6removeERKN3KDE11NumberRangeIiiEE@Base 4:4.10.1
 _ZN6Okteta18FileByteArrayModel7replaceERKN3KDE11NumberRangeIiiEEPKhi@Base 4:4.10.1
 _ZN6Okteta18FileByteArrayModel7setByteEih@Base 4:4.10.1
 _ZN6Okteta18FileByteArrayModelC1EiiP7QObject@Base 4:4.10.1
 _ZN6Okteta18FileByteArrayModelC2EiiP7QObject@Base 4:4.10.1
 _ZN6Okteta18FileByteArrayModelD0Ev@Base 4:4.10.1
 _ZN6Okteta18FileByteArrayModelD1Ev@Base 4:4.10.1
 _ZN6Okteta18FileByteArrayModelD2Ev@Base 4:4.10.1
 _ZN6Okteta20WordByteArrayServiceC1EPKNS_22AbstractByteArrayModelEPKNS_9CharCodecE@Base 4:4.10.1
 _ZN6Okteta20WordByteArrayServiceC2EPKNS_22AbstractByteArrayModelEPKNS_9CharCodecE@Base 4:4.10.1
 _ZN6Okteta20WordByteArrayServiceD1Ev@Base 4:4.10.1
 _ZN6Okteta20WordByteArrayServiceD2Ev@Base 4:4.10.1
 _ZN6Okteta22AbstractByteArrayModel11qt_metacallEN11QMetaObject4CallEiPPv@Base 4:4.10.1
 _ZN6Okteta22AbstractByteArrayModel11qt_metacastEPKc@Base 4:4.10.1
 _ZN6Okteta22AbstractByteArrayModel11setReadOnlyEb@Base 4:4.10.1
 _ZN6Okteta22AbstractByteArrayModel15contentsChangedERKNS_22ArrayChangeMetricsListE@Base 4:4.10.1
 _ZN6Okteta22AbstractByteArrayModel15modifiedChangedEb@Base 4:4.10.1
 _ZN6Okteta22AbstractByteArrayModel15readOnlyChangedEb@Base 4:4.10.1
 _ZN6Okteta22AbstractByteArrayModel16staticMetaObjectE@Base 4:4.10.1
 _ZN6Okteta22AbstractByteArrayModel6insertEiPKhi@Base 4:4.10.1
 _ZN6Okteta22AbstractByteArrayModel6removeERKN3KDE11NumberRangeIiiEE@Base 4:4.10.1
 _ZN6Okteta22AbstractByteArrayModelC1EP7QObject@Base 4:4.10.1
 _ZN6Okteta22AbstractByteArrayModelC2EP7QObject@Base 4:4.10.1
 _ZN6Okteta22AbstractByteArrayModelD0Ev@Base 4:4.10.1
 _ZN6Okteta22AbstractByteArrayModelD1Ev@Base 4:4.10.1
 _ZN6Okteta22AbstractByteArrayModelD2Ev@Base 4:4.10.1
 _ZN6Okteta24PieceTableByteArrayModel11changesDoneERK5QListINS_15ByteArrayChangeEEii@Base 4:4.10.1
 _ZN6Okteta24PieceTableByteArrayModel11qt_metacallEN11QMetaObject4CallEiPPv@Base 4:4.10.1
 _ZN6Okteta24PieceTableByteArrayModel11qt_metacastEPKc@Base 4:4.10.1
 _ZN6Okteta24PieceTableByteArrayModel11setBookmarkEjRKNS_8BookmarkE@Base 4:4.10.1
 _ZN6Okteta24PieceTableByteArrayModel11setModifiedEb@Base 4:4.10.1
 _ZN6Okteta24PieceTableByteArrayModel11setReadOnlyEb@Base 4:4.10.1
 _ZN6Okteta24PieceTableByteArrayModel12addBookmarksERK5QListINS_8BookmarkEE@Base 4:4.10.1
 _ZN6Okteta24PieceTableByteArrayModel14bookmarksAddedERK5QListINS_8BookmarkEE@Base 4:4.10.1
 _ZN6Okteta24PieceTableByteArrayModel15removeBookmarksERK5QListINS_8BookmarkEE@Base 4:4.10.1
 _ZN6Okteta24PieceTableByteArrayModel16bookmarksRemovedERK5QListINS_8BookmarkEE@Base 4:4.10.1
 _ZN6Okteta24PieceTableByteArrayModel16staticMetaObjectE@Base 4:4.10.1
 _ZN6Okteta24PieceTableByteArrayModel17bookmarksModifiedERK5QListIiE@Base 4:4.10.1
 _ZN6Okteta24PieceTableByteArrayModel17bookmarksModifiedEb@Base 4:4.10.1
 _ZN6Okteta24PieceTableByteArrayModel17openGroupedChangeERK7QString@Base 4:4.10.1
 _ZN6Okteta24PieceTableByteArrayModel18closeGroupedChangeERK7QString@Base 4:4.10.1
 _ZN6Okteta24PieceTableByteArrayModel18headVersionChangedEi@Base 4:4.10.1
 _ZN6Okteta24PieceTableByteArrayModel18removeAllBookmarksEv@Base 4:4.10.1
 _ZN6Okteta24PieceTableByteArrayModel19cancelGroupedChangeEv@Base 4:4.10.1
 _ZN6Okteta24PieceTableByteArrayModel22revertToVersionByIndexEi@Base 4:4.10.1
 _ZN6Okteta24PieceTableByteArrayModel22revertedToVersionIndexEi@Base 4:4.10.1
 _ZN6Okteta24PieceTableByteArrayModel29headVersionDescriptionChangedERK7QString@Base 4:4.10.1
 _ZN6Okteta24PieceTableByteArrayModel4fillEhii@Base 4:4.10.1
 _ZN6Okteta24PieceTableByteArrayModel4swapEiRKN3KDE11NumberRangeIiiEE@Base 4:4.10.1
 _ZN6Okteta24PieceTableByteArrayModel6insertEiPKhi@Base 4:4.10.1
 _ZN6Okteta24PieceTableByteArrayModel6removeERKN3KDE11NumberRangeIiiEE@Base 4:4.10.1
 _ZN6Okteta24PieceTableByteArrayModel7replaceERKN3KDE11NumberRangeIiiEEPKhi@Base 4:4.10.1
 _ZN6Okteta24PieceTableByteArrayModel7setByteEih@Base 4:4.10.1
 _ZN6Okteta24PieceTableByteArrayModel7setDataERK10QByteArray@Base 4:4.10.1
 _ZN6Okteta24PieceTableByteArrayModel9doChangesERK5QListINS_15ByteArrayChangeEEii@Base 4:4.10.1
 _ZN6Okteta24PieceTableByteArrayModelC1ERK10QByteArrayP7QObject@Base 4:4.10.1
 _ZN6Okteta24PieceTableByteArrayModelC1EihP7QObject@Base 4:4.10.1
 _ZN6Okteta24PieceTableByteArrayModelC2ERK10QByteArrayP7QObject@Base 4:4.10.1
 _ZN6Okteta24PieceTableByteArrayModelC2EihP7QObject@Base 4:4.10.1
 _ZN6Okteta24PieceTableByteArrayModelD0Ev@Base 4:4.10.1
 _ZN6Okteta24PieceTableByteArrayModelD1Ev@Base 4:4.10.1
 _ZN6Okteta24PieceTableByteArrayModelD2Ev@Base 4:4.10.1
 _ZN6Okteta9CharCodec10codecNamesEv@Base 4:4.10.1
 _ZN6Okteta9CharCodec11createCodecENS_10CharCodingE@Base 4:4.10.1
 _ZN6Okteta9CharCodec11createCodecERK7QString@Base 4:4.10.1
 _ZNK6Okteta10ValueCodec6decodeEPhRK7QStringj@Base 4:4.10.1
 _ZNK6Okteta14ByteArrayModel10autoDeleteEv@Base 4:4.10.1
 _ZNK6Okteta14ByteArrayModel10bookmarkAtEj@Base 4:4.10.1
 _ZNK6Okteta14ByteArrayModel10isModifiedEv@Base 4:4.10.1
 _ZNK6Okteta14ByteArrayModel10isReadOnlyEv@Base 4:4.10.1
 _ZNK6Okteta14ByteArrayModel10metaObjectEv@Base 4:4.10.1
 _ZNK6Okteta14ByteArrayModel11bookmarkForEi@Base 4:4.10.1
 _ZNK6Okteta14ByteArrayModel11keepsMemoryEv@Base 4:4.10.1
 _ZNK6Okteta14ByteArrayModel14bookmarksCountEv@Base 4:4.10.1
 _ZNK6Okteta14ByteArrayModel19containsBookmarkForEi@Base 4:4.10.1
 _ZNK6Okteta14ByteArrayModel28createBookmarksConstIteratorEv@Base 4:4.10.1
 _ZNK6Okteta14ByteArrayModel4byteEi@Base 4:4.10.1
 _ZNK6Okteta14ByteArrayModel4dataEv@Base 4:4.10.1
 _ZNK6Okteta14ByteArrayModel4sizeEv@Base 4:4.10.1
 _ZNK6Okteta14ByteArrayModel7maxSizeEv@Base 4:4.10.1
 _ZNK6Okteta18FileByteArrayModel10isModifiedEv@Base 4:4.10.1
 _ZNK6Okteta18FileByteArrayModel10isReadOnlyEv@Base 4:4.10.1
 _ZNK6Okteta18FileByteArrayModel4byteEi@Base 4:4.10.1
 _ZNK6Okteta18FileByteArrayModel4sizeEv@Base 4:4.10.1
 _ZNK6Okteta18FileByteArrayModel6isOpenEv@Base 4:4.10.1
 _ZNK6Okteta20WordByteArrayService10isWordCharEi@Base 4:4.10.1
 _ZNK6Okteta20WordByteArrayService11wordSectionEi@Base 4:4.10.1
 _ZNK6Okteta20WordByteArrayService14indexOfWordEndEi@Base 4:4.10.1
 _ZNK6Okteta20WordByteArrayService16indexOfWordStartEi@Base 4:4.10.1
 _ZNK6Okteta20WordByteArrayService20indexOfNextWordStartEi@Base 4:4.10.1
 _ZNK6Okteta20WordByteArrayService21indexOfLeftWordSelectEi@Base 4:4.10.1
 _ZNK6Okteta20WordByteArrayService22indexOfRightWordSelectEi@Base 4:4.10.1
 _ZNK6Okteta20WordByteArrayService24indexOfPreviousWordStartEi@Base 4:4.10.1
 _ZNK6Okteta20WordByteArrayService26indexOfBeforeNextWordStartEi@Base 4:4.10.1
 _ZNK6Okteta20WordByteArrayService4textEii@Base 4:4.10.1
 _ZNK6Okteta22AbstractByteArrayModel10isReadOnlyEv@Base 4:4.10.1
 _ZNK6Okteta22AbstractByteArrayModel10metaObjectEv@Base 4:4.10.1
 _ZNK6Okteta22AbstractByteArrayModel11lastIndexOfEPKhiii@Base 4:4.10.1
 _ZNK6Okteta22AbstractByteArrayModel13searchedBytesEi@Base 4:4.10.1
 _ZNK6Okteta22AbstractByteArrayModel22indexOfCaseInsensitiveEPKNS_9CharCodecERK10QByteArrayii@Base 4:4.10.1
 _ZNK6Okteta22AbstractByteArrayModel26lastIndexOfCaseInsensitiveEPKNS_9CharCodecERK10QByteArrayii@Base 4:4.10.1
 _ZNK6Okteta22AbstractByteArrayModel6copyToEPhRKN3KDE11NumberRangeIiiEE@Base 4:4.10.1
 _ZNK6Okteta22AbstractByteArrayModel7indexOfEPKhiii@Base 4:4.10.1
 _ZNK6Okteta24PieceTableByteArrayModel10bookmarkAtEj@Base 4:4.10.1
 _ZNK6Okteta24PieceTableByteArrayModel10isModifiedEv@Base 4:4.10.1
 _ZNK6Okteta24PieceTableByteArrayModel10isReadOnlyEv@Base 4:4.10.1
 _ZNK6Okteta24PieceTableByteArrayModel10metaObjectEv@Base 4:4.10.1
 _ZNK6Okteta24PieceTableByteArrayModel11bookmarkForEi@Base 4:4.10.1
 _ZNK6Okteta24PieceTableByteArrayModel11initialDataEv@Base 4:4.10.1
 _ZNK6Okteta24PieceTableByteArrayModel12versionCountEv@Base 4:4.10.1
 _ZNK6Okteta24PieceTableByteArrayModel12versionIndexEv@Base 4:4.10.1
 _ZNK6Okteta24PieceTableByteArrayModel14bookmarksCountEv@Base 4:4.10.1
 _ZNK6Okteta24PieceTableByteArrayModel18versionDescriptionEi@Base 4:4.10.1
 _ZNK6Okteta24PieceTableByteArrayModel19containsBookmarkForEi@Base 4:4.10.1
 _ZNK6Okteta24PieceTableByteArrayModel28createBookmarksConstIteratorEv@Base 4:4.10.1
 _ZNK6Okteta24PieceTableByteArrayModel4byteEi@Base 4:4.10.1
 _ZNK6Okteta24PieceTableByteArrayModel4sizeEv@Base 4:4.10.1
 _ZNK6Okteta24PieceTableByteArrayModel7changesEii@Base 4:4.10.1
 _ZTIN6Okteta10ValueCodecE@Base 4:4.10.1
 _ZTIN6Okteta14ByteArrayModelE@Base 4:4.10.1
 _ZTIN6Okteta18FileByteArrayModelE@Base 4:4.10.1
 _ZTIN6Okteta22AbstractByteArrayModelE@Base 4:4.10.1
 _ZTIN6Okteta24PieceTableByteArrayModelE@Base 4:4.10.1
 _ZTIN6Okteta9CharCodecE@Base 4:4.10.1
 _ZTSN6Okteta10ValueCodecE@Base 4:4.10.1
 _ZTSN6Okteta14ByteArrayModelE@Base 4:4.10.1
 _ZTSN6Okteta18FileByteArrayModelE@Base 4:4.10.1
 _ZTSN6Okteta22AbstractByteArrayModelE@Base 4:4.10.1
 _ZTSN6Okteta24PieceTableByteArrayModelE@Base 4:4.10.1
 _ZTSN6Okteta9CharCodecE@Base 4:4.10.1
 _ZTVN6Okteta10ValueCodecE@Base 4:4.10.1
 _ZTVN6Okteta14ByteArrayModelE@Base 4:4.10.1
 _ZTVN6Okteta18FileByteArrayModelE@Base 4:4.10.1
 _ZTVN6Okteta22AbstractByteArrayModelE@Base 4:4.10.1
 _ZTVN6Okteta24PieceTableByteArrayModelE@Base 4:4.10.1
 _ZTVN6Okteta9CharCodecE@Base 4:4.10.1
 _ZThn16_N6Okteta14ByteArrayModel11setBookmarkEjRKNS_8BookmarkE@Base 4:4.10.1
 _ZThn16_N6Okteta14ByteArrayModel12addBookmarksERK5QListINS_8BookmarkEE@Base 4:4.10.1
 _ZThn16_N6Okteta14ByteArrayModel14bookmarksAddedERK5QListINS_8BookmarkEE@Base 4:4.10.1
 _ZThn16_N6Okteta14ByteArrayModel15removeBookmarksERK5QListINS_8BookmarkEE@Base 4:4.10.1
 _ZThn16_N6Okteta14ByteArrayModel16bookmarksRemovedERK5QListINS_8BookmarkEE@Base 4:4.10.1
 _ZThn16_N6Okteta14ByteArrayModel17bookmarksModifiedERK5QListIiE@Base 4:4.10.1
 _ZThn16_N6Okteta14ByteArrayModel17bookmarksModifiedEb@Base 4:4.10.1
 _ZThn16_N6Okteta14ByteArrayModel18removeAllBookmarksEv@Base 4:4.10.1
 _ZThn16_N6Okteta14ByteArrayModelD0Ev@Base 4:4.10.1
 _ZThn16_N6Okteta14ByteArrayModelD1Ev@Base 4:4.10.1
 _ZThn16_N6Okteta24PieceTableByteArrayModel18headVersionChangedEi@Base 4:4.10.1
 _ZThn16_N6Okteta24PieceTableByteArrayModel22revertToVersionByIndexEi@Base 4:4.10.1
 _ZThn16_N6Okteta24PieceTableByteArrayModel22revertedToVersionIndexEi@Base 4:4.10.1
 _ZThn16_N6Okteta24PieceTableByteArrayModel29headVersionDescriptionChangedERK7QString@Base 4:4.10.1
 _ZThn16_N6Okteta24PieceTableByteArrayModelD0Ev@Base 4:4.10.1
 _ZThn16_N6Okteta24PieceTableByteArrayModelD1Ev@Base 4:4.10.1
 _ZThn16_NK6Okteta14ByteArrayModel10bookmarkAtEj@Base 4:4.10.1
 _ZThn16_NK6Okteta14ByteArrayModel11bookmarkForEi@Base 4:4.10.1
 _ZThn16_NK6Okteta14ByteArrayModel14bookmarksCountEv@Base 4:4.10.1
 _ZThn16_NK6Okteta14ByteArrayModel19containsBookmarkForEi@Base 4:4.10.1
 _ZThn16_NK6Okteta14ByteArrayModel28createBookmarksConstIteratorEv@Base 4:4.10.1
 _ZThn16_NK6Okteta24PieceTableByteArrayModel12versionCountEv@Base 4:4.10.1
 _ZThn16_NK6Okteta24PieceTableByteArrayModel12versionIndexEv@Base 4:4.10.1
 _ZThn16_NK6Okteta24PieceTableByteArrayModel18versionDescriptionEi@Base 4:4.10.1
 _ZThn24_N6Okteta24PieceTableByteArrayModel11setBookmarkEjRKNS_8BookmarkE@Base 4:4.10.1
 _ZThn24_N6Okteta24PieceTableByteArrayModel12addBookmarksERK5QListINS_8BookmarkEE@Base 4:4.10.1
 _ZThn24_N6Okteta24PieceTableByteArrayModel14bookmarksAddedERK5QListINS_8BookmarkEE@Base 4:4.10.1
 _ZThn24_N6Okteta24PieceTableByteArrayModel15removeBookmarksERK5QListINS_8BookmarkEE@Base 4:4.10.1
 _ZThn24_N6Okteta24PieceTableByteArrayModel16bookmarksRemovedERK5QListINS_8BookmarkEE@Base 4:4.10.1
 _ZThn24_N6Okteta24PieceTableByteArrayModel17bookmarksModifiedERK5QListIiE@Base 4:4.10.1
 _ZThn24_N6Okteta24PieceTableByteArrayModel17bookmarksModifiedEb@Base 4:4.10.1
 _ZThn24_N6Okteta24PieceTableByteArrayModel18removeAllBookmarksEv@Base 4:4.10.1
 _ZThn24_N6Okteta24PieceTableByteArrayModelD0Ev@Base 4:4.10.1
 _ZThn24_N6Okteta24PieceTableByteArrayModelD1Ev@Base 4:4.10.1
 _ZThn24_NK6Okteta24PieceTableByteArrayModel10bookmarkAtEj@Base 4:4.10.1
 _ZThn24_NK6Okteta24PieceTableByteArrayModel11bookmarkForEi@Base 4:4.10.1
 _ZThn24_NK6Okteta24PieceTableByteArrayModel14bookmarksCountEv@Base 4:4.10.1
 _ZThn24_NK6Okteta24PieceTableByteArrayModel19containsBookmarkForEi@Base 4:4.10.1
 _ZThn24_NK6Okteta24PieceTableByteArrayModel28createBookmarksConstIteratorEv@Base 4:4.10.1
 _ZThn32_N6Okteta24PieceTableByteArrayModel17openGroupedChangeERK7QString@Base 4:4.10.1
 _ZThn32_N6Okteta24PieceTableByteArrayModel18closeGroupedChangeERK7QString@Base 4:4.10.1
 _ZThn32_N6Okteta24PieceTableByteArrayModel19cancelGroupedChangeEv@Base 4:4.10.1
 _ZThn32_N6Okteta24PieceTableByteArrayModelD0Ev@Base 4:4.10.1
 _ZThn32_N6Okteta24PieceTableByteArrayModelD1Ev@Base 4:4.10.1
 _ZThn40_N6Okteta24PieceTableByteArrayModel11changesDoneERK5QListINS_15ByteArrayChangeEEii@Base 4:4.10.1
 _ZThn40_N6Okteta24PieceTableByteArrayModel9doChangesERK5QListINS_15ByteArrayChangeEEii@Base 4:4.10.1
 _ZThn40_N6Okteta24PieceTableByteArrayModelD0Ev@Base 4:4.10.1
 _ZThn40_N6Okteta24PieceTableByteArrayModelD1Ev@Base 4:4.10.1
 _ZThn40_NK6Okteta24PieceTableByteArrayModel11initialDataEv@Base 4:4.10.1
 _ZThn40_NK6Okteta24PieceTableByteArrayModel7changesEii@Base 4:4.10.1
