libokteta1gui.so.1 libokteta1gui1 #MINVER#
 _ZN6Okteta11ColumnsView10paintEventEP11QPaintEvent@Base 4:4.10.1
 _ZN6Okteta11ColumnsView11qt_metacallEN11QMetaObject4CallEiPPv@Base 4:4.10.1
 _ZN6Okteta11ColumnsView11qt_metacastEPKc@Base 4:4.10.1
 _ZN6Okteta11ColumnsView11resizeEventEP12QResizeEvent@Base 4:4.10.1
 _ZN6Okteta11ColumnsView12removeColumnEPNS_22AbstractColumnRendererE@Base 4:4.10.1
 _ZN6Okteta11ColumnsView12setNoOfLinesEi@Base 4:4.10.1
 _ZN6Okteta11ColumnsView12updateColumnERNS_22AbstractColumnRendererE@Base 4:4.10.1
 _ZN6Okteta11ColumnsView12updateColumnERNS_22AbstractColumnRendererERKN3KDE11NumberRangeIiiEE@Base 4:4.10.1
 _ZN6Okteta11ColumnsView12updateWidthsEv@Base 4:4.10.1
 _ZN6Okteta11ColumnsView13renderColumnsEP8QPainteriiii@Base 4:4.10.1
 _ZN6Okteta11ColumnsView13setColumnsPosEii@Base 4:4.10.1
 _ZN6Okteta11ColumnsView13setLineHeightEi@Base 4:4.10.1
 _ZN6Okteta11ColumnsView15renderEmptyAreaEP8QPainteriiii@Base 4:4.10.1
 _ZN6Okteta11ColumnsView16scrollContentsByEii@Base 4:4.10.1
 _ZN6Okteta11ColumnsView16staticMetaObjectE@Base 4:4.10.1
 _ZN6Okteta11ColumnsView16updateScrollBarsEv@Base 4:4.10.1
 _ZN6Okteta11ColumnsView5eventEP6QEvent@Base 4:4.10.1
 _ZN6Okteta11ColumnsView9addColumnEPNS_22AbstractColumnRendererE@Base 4:4.10.1
 _ZN6Okteta11ColumnsViewC1EP7QWidget@Base 4:4.10.1
 _ZN6Okteta11ColumnsViewC2EP7QWidget@Base 4:4.10.1
 _ZN6Okteta11ColumnsViewD0Ev@Base 4:4.10.1
 _ZN6Okteta11ColumnsViewD1Ev@Base 4:4.10.1
 _ZN6Okteta11ColumnsViewD2Ev@Base 4:4.10.1
 _ZN6Okteta12OffsetFormat11CodingWidthE@Base 4:4.10.1
 _ZN6Okteta12OffsetFormat13PrintFunctionE@Base 4:4.10.1
 _ZN6Okteta12OffsetFormat18printDecimalOffsetEPcj@Base 4:4.10.1
 _ZN6Okteta12OffsetFormat22printHexadecimalOffsetEPcj@Base 4:4.10.1
 _ZN6Okteta12OffsetFormat27printHexadecimalSmallOffsetEPcj@Base 4:4.10.1
 _ZN6Okteta16ByteArrayRowView11changeEventEP6QEvent@Base 4:4.10.1
 _ZN6Okteta16ByteArrayRowView11qt_metacallEN11QMetaObject4CallEiPPv@Base 4:4.10.1
 _ZN6Okteta16ByteArrayRowView11qt_metacastEPKc@Base 4:4.10.1
 _ZN6Okteta16ByteArrayRowView13renderColumnsEP8QPainteriiii@Base 4:4.10.1
 _ZN6Okteta16ByteArrayRowView13setCharCodingENS_21AbstractByteArrayView10CharCodingE@Base 4:4.10.1
 _ZN6Okteta16ByteArrayRowView13setCharCodingERK7QString@Base 4:4.10.1
 _ZN6Okteta16ByteArrayRowView14setValueCodingENS_21AbstractByteArrayView11ValueCodingE@Base 4:4.10.1
 _ZN6Okteta16ByteArrayRowView16setBufferSpacingEiii@Base 4:4.10.1
 _ZN6Okteta16ByteArrayRowView16setUndefinedCharE5QChar@Base 4:4.10.1
 _ZN6Okteta16ByteArrayRowView16staticMetaObjectE@Base 4:4.10.1
 _ZN6Okteta16ByteArrayRowView17setBinaryGapWidthEi@Base 4:4.10.1
 _ZN6Okteta16ByteArrayRowView17setByteArrayModelEPNS_22AbstractByteArrayModelE@Base 4:4.10.1
 _ZN6Okteta16ByteArrayRowView17setSubstituteCharE5QChar@Base 4:4.10.1
 _ZN6Okteta16ByteArrayRowView18setByteTypeColoredEb@Base 4:4.10.1
 _ZN6Okteta16ByteArrayRowView19setByteSpacingWidthEi@Base 4:4.10.1
 _ZN6Okteta16ByteArrayRowView19setNoOfGroupedBytesEi@Base 4:4.10.1
 _ZN6Okteta16ByteArrayRowView19setShowsNonprintingEb@Base 4:4.10.1
 _ZN6Okteta16ByteArrayRowView20setGroupSpacingWidthEi@Base 4:4.10.1
 _ZN6Okteta16ByteArrayRowViewC1EP7QWidget@Base 4:4.10.1
 _ZN6Okteta16ByteArrayRowViewC2EP7QWidget@Base 4:4.10.1
 _ZN6Okteta16ByteArrayRowViewD0Ev@Base 4:4.10.1
 _ZN6Okteta16ByteArrayRowViewD1Ev@Base 4:4.10.1
 _ZN6Okteta16ByteArrayRowViewD2Ev@Base 4:4.10.1
 _ZN6Okteta19ByteArrayColumnView11changeEventEP6QEvent@Base 4:4.10.1
 _ZN6Okteta19ByteArrayColumnView11qt_metacallEN11QMetaObject4CallEiPPv@Base 4:4.10.1
 _ZN6Okteta19ByteArrayColumnView11qt_metacastEPKc@Base 4:4.10.1
 _ZN6Okteta19ByteArrayColumnView13renderColumnsEP8QPainteriiii@Base 4:4.10.1
 _ZN6Okteta19ByteArrayColumnView13setCharCodingENS_21AbstractByteArrayView10CharCodingE@Base 4:4.10.1
 _ZN6Okteta19ByteArrayColumnView13setCharCodingERK7QString@Base 4:4.10.1
 _ZN6Okteta19ByteArrayColumnView14setValueCodingENS_21AbstractByteArrayView11ValueCodingE@Base 4:4.10.1
 _ZN6Okteta19ByteArrayColumnView16setBufferSpacingEiii@Base 4:4.10.1
 _ZN6Okteta19ByteArrayColumnView16setUndefinedCharE5QChar@Base 4:4.10.1
 _ZN6Okteta19ByteArrayColumnView16staticMetaObjectE@Base 4:4.10.1
 _ZN6Okteta19ByteArrayColumnView17setBinaryGapWidthEi@Base 4:4.10.1
 _ZN6Okteta19ByteArrayColumnView17setByteArrayModelEPNS_22AbstractByteArrayModelE@Base 4:4.10.1
 _ZN6Okteta19ByteArrayColumnView17setSubstituteCharE5QChar@Base 4:4.10.1
 _ZN6Okteta19ByteArrayColumnView18setByteTypeColoredEb@Base 4:4.10.1
 _ZN6Okteta19ByteArrayColumnView19setByteSpacingWidthEi@Base 4:4.10.1
 _ZN6Okteta19ByteArrayColumnView19setNoOfGroupedBytesEi@Base 4:4.10.1
 _ZN6Okteta19ByteArrayColumnView19setShowsNonprintingEb@Base 4:4.10.1
 _ZN6Okteta19ByteArrayColumnView20setGroupSpacingWidthEi@Base 4:4.10.1
 _ZN6Okteta19ByteArrayColumnViewC1EP7QWidget@Base 4:4.10.1
 _ZN6Okteta19ByteArrayColumnViewC2EP7QWidget@Base 4:4.10.1
 _ZN6Okteta19ByteArrayColumnViewD0Ev@Base 4:4.10.1
 _ZN6Okteta19ByteArrayColumnViewD1Ev@Base 4:4.10.1
 _ZN6Okteta19ByteArrayColumnViewD2Ev@Base 4:4.10.1
 _ZN6Okteta19WidgetColumnStylistC1EP7QWidget@Base 4:4.10.1
 _ZN6Okteta19WidgetColumnStylistC2EP7QWidget@Base 4:4.10.1
 _ZN6Okteta19WidgetColumnStylistD0Ev@Base 4:4.10.1
 _ZN6Okteta19WidgetColumnStylistD1Ev@Base 4:4.10.1
 _ZN6Okteta19WidgetColumnStylistD2Ev@Base 4:4.10.1
 _ZN6Okteta20BorderColumnRenderer12renderColumnEP8QPainterRKN3KDE11NumberRangeIiiEES7_@Base 4:4.10.1
 _ZN6Okteta20BorderColumnRenderer16renderBorderLineEP8QPainterRKN3KDE11NumberRangeIiiEES7_@Base 4:4.10.1
 _ZN6Okteta20BorderColumnRenderer17renderEmptyColumnEP8QPainterRKN3KDE11NumberRangeIiiEES7_@Base 4:4.10.1
 _ZN6Okteta20BorderColumnRendererC1EPNS_21AbstractColumnStylistEbb@Base 4:4.10.1
 _ZN6Okteta20BorderColumnRendererC2EPNS_21AbstractColumnStylistEbb@Base 4:4.10.1
 _ZN6Okteta20BorderColumnRendererD0Ev@Base 4:4.10.1
 _ZN6Okteta20BorderColumnRendererD1Ev@Base 4:4.10.1
 _ZN6Okteta20BorderColumnRendererD2Ev@Base 4:4.10.1
 _ZN6Okteta20ByteArrayTableLayout14setStartOffsetEi@Base 4:4.10.1
 _ZN6Okteta20ByteArrayTableLayout18setByteArrayOffsetEi@Base 4:4.10.1
 _ZN6Okteta20ByteArrayTableLayout18setFirstLineOffsetEi@Base 4:4.10.1
 _ZN6Okteta20ByteArrayTableLayout19setNoOfBytesPerLineEi@Base 4:4.10.1
 _ZN6Okteta20ByteArrayTableLayout19setNoOfLinesPerPageEi@Base 4:4.10.1
 _ZN6Okteta20ByteArrayTableLayout7calcEndEv@Base 4:4.10.1
 _ZN6Okteta20ByteArrayTableLayout9calcStartEv@Base 4:4.10.1
 _ZN6Okteta20ByteArrayTableLayout9setLengthEi@Base 4:4.10.1
 _ZN6Okteta20ByteArrayTableLayoutC1Eiiiii@Base 4:4.10.1
 _ZN6Okteta20ByteArrayTableLayoutC2Eiiiii@Base 4:4.10.1
 _ZN6Okteta20ByteArrayTableLayoutD1Ev@Base 4:4.10.1
 _ZN6Okteta20ByteArrayTableLayoutD2Ev@Base 4:4.10.1
 _ZN6Okteta20ByteArrayTableRanges10setMarkingERKN3KDE11NumberRangeIiiEE@Base 4:4.10.1
 _ZN6Okteta20ByteArrayTableRanges12setSelectionERKN3KDE11NumberRangeIiiEE@Base 4:4.10.1
 _ZN6Okteta20ByteArrayTableRanges14adaptToChangesERKNS_22ArrayChangeMetricsListEi@Base 4:4.10.1
 _ZN6Okteta20ByteArrayTableRanges15addChangedRangeERKN3KDE11NumberRangeIiiEE@Base 4:4.10.1
 _ZN6Okteta20ByteArrayTableRanges15addChangedRangeERKNS_10CoordRangeE@Base 4:4.10.1
 _ZN6Okteta20ByteArrayTableRanges15addChangedRangeEii@Base 4:4.10.1
 _ZN6Okteta20ByteArrayTableRanges15removeSelectionEi@Base 4:4.10.1
 _ZN6Okteta20ByteArrayTableRanges15setSelectionEndEi@Base 4:4.10.1
 _ZN6Okteta20ByteArrayTableRanges17setSelectionStartEi@Base 4:4.10.1
 _ZN6Okteta20ByteArrayTableRanges18resetChangedRangesEv@Base 4:4.10.1
 _ZN6Okteta20ByteArrayTableRanges21addChangedOffsetLinesERKN3KDE11NumberRangeIiiEE@Base 4:4.10.1
 _ZN6Okteta20ByteArrayTableRanges21setFirstWordSelectionERKN3KDE11NumberRangeIiiEE@Base 4:4.10.1
 _ZN6Okteta20ByteArrayTableRanges23removeFurtherSelectionsEv@Base 4:4.10.1
 _ZN6Okteta20ByteArrayTableRanges26ensureWordSelectionForwardEb@Base 4:4.10.1
 _ZN6Okteta20ByteArrayTableRanges5resetEv@Base 4:4.10.1
 _ZN6Okteta20ByteArrayTableRangesC1EPNS_20ByteArrayTableLayoutE@Base 4:4.10.1
 _ZN6Okteta20ByteArrayTableRangesC2EPNS_20ByteArrayTableLayoutE@Base 4:4.10.1
 _ZN6Okteta20ByteArrayTableRangesD1Ev@Base 4:4.10.1
 _ZN6Okteta20ByteArrayTableRangesD2Ev@Base 4:4.10.1
 _ZN6Okteta20OffsetColumnRenderer10renderLineEP8QPainteri@Base 4:4.10.1
 _ZN6Okteta20OffsetColumnRenderer12renderColumnEP8QPainterRKN3KDE11NumberRangeIiiEES7_@Base 4:4.10.1
 _ZN6Okteta20OffsetColumnRenderer14renderNextLineEP8QPainter@Base 4:4.10.1
 _ZN6Okteta20OffsetColumnRenderer14setFontMetricsERK12QFontMetrics@Base 4:4.10.1
 _ZN6Okteta20OffsetColumnRenderer15renderFirstLineEP8QPainterRKN3KDE11NumberRangeIiiEEi@Base 4:4.10.1
 _ZN6Okteta20OffsetColumnRenderer17renderEmptyColumnEP8QPainterRKN3KDE11NumberRangeIiiEES7_@Base 4:4.10.1
 _ZN6Okteta20OffsetColumnRenderer22renderColumnBackgroundEP8QPainterRKN3KDE11NumberRangeIiiEES7_@Base 4:4.10.1
 _ZN6Okteta20OffsetColumnRenderer7recalcXEv@Base 4:4.10.1
 _ZN6Okteta20OffsetColumnRenderer9setFormatENS_12OffsetFormat6FormatE@Base 4:4.10.1
 _ZN6Okteta20OffsetColumnRenderer9setFormatENS_12OffsetFormat6FormatERK12QFontMetrics@Base 4:4.10.1
 _ZN6Okteta20OffsetColumnRendererC1EPNS_21AbstractColumnStylistEPNS_20ByteArrayTableLayoutENS_12OffsetFormat6FormatE@Base 4:4.10.1
 _ZN6Okteta20OffsetColumnRendererC2EPNS_21AbstractColumnStylistEPNS_20ByteArrayTableLayoutENS_12OffsetFormat6FormatE@Base 4:4.10.1
 _ZN6Okteta20OffsetColumnRendererD0Ev@Base 4:4.10.1
 _ZN6Okteta20OffsetColumnRendererD1Ev@Base 4:4.10.1
 _ZN6Okteta20OffsetColumnRendererD2Ev@Base 4:4.10.1
 _ZN6Okteta21AbstractByteArrayView10selectWordEi@Base 4:4.10.1
 _ZN6Okteta21AbstractByteArrayView10setMarkingERKN3KDE11NumberRangeIiiEE@Base 4:4.10.1
 _ZN6Okteta21AbstractByteArrayView10setMarkingEii@Base 4:4.10.1
 _ZN6Okteta21AbstractByteArrayView10stopCursorEv@Base 4:4.10.1
 _ZN6Okteta21AbstractByteArrayView10wheelEventEP11QWheelEvent@Base 4:4.10.1
 _ZN6Okteta21AbstractByteArrayView11changeEventEP6QEvent@Base 4:4.10.1
 _ZN6Okteta21AbstractByteArrayView11pauseCursorEv@Base 4:4.10.1
 _ZN6Okteta21AbstractByteArrayView11placeCursorERK6QPoint@Base 4:4.10.1
 _ZN6Okteta21AbstractByteArrayView11qt_metacallEN11QMetaObject4CallEiPPv@Base 4:4.10.1
 _ZN6Okteta21AbstractByteArrayView11qt_metacastEPKc@Base 4:4.10.1
 _ZN6Okteta21AbstractByteArrayView11resizeEventEP12QResizeEvent@Base 4:4.10.1
 _ZN6Okteta21AbstractByteArrayView11setModifiedEb@Base 4:4.10.1
 _ZN6Okteta21AbstractByteArrayView11setReadOnlyEb@Base 4:4.10.1
 _ZN6Okteta21AbstractByteArrayView11startCursorEv@Base 4:4.10.1
 _ZN6Okteta21AbstractByteArrayView12cutAvailableEb@Base 4:4.10.1
 _ZN6Okteta21AbstractByteArrayView12focusChangedEb@Base 4:4.10.1
 _ZN6Okteta21AbstractByteArrayView12focusInEventEP11QFocusEvent@Base 4:4.10.1
 _ZN6Okteta21AbstractByteArrayView12setNoOfLinesEi@Base 4:4.10.1
 _ZN6Okteta21AbstractByteArrayView12setSelectionERKN3KDE11NumberRangeIiiEE@Base 4:4.10.1
 _ZN6Okteta21AbstractByteArrayView12setSelectionEii@Base 4:4.10.1
 _ZN6Okteta21AbstractByteArrayView12setZoomLevelEd@Base 4:4.10.1
 _ZN6Okteta21AbstractByteArrayView13copyAvailableEb@Base 4:4.10.1
 _ZN6Okteta21AbstractByteArrayView13doubleClickedEi@Base 4:4.10.1
 _ZN6Okteta21AbstractByteArrayView13dragMoveEventEP14QDragMoveEvent@Base 4:4.10.1
 _ZN6Okteta21AbstractByteArrayView13ensureVisibleERKN3KDE11NumberRangeIiiEEb@Base 4:4.10.1
 _ZN6Okteta21AbstractByteArrayView13focusOutEventEP11QFocusEvent@Base 4:4.10.1
 _ZN6Okteta21AbstractByteArrayView13keyPressEventEP9QKeyEvent@Base 4:4.10.1
 _ZN6Okteta21AbstractByteArrayView13unpauseCursorEv@Base 4:4.10.1
 _ZN6Okteta21AbstractByteArrayView13updateChangedEv@Base 4:4.10.1
 _ZN6Okteta21AbstractByteArrayView13viewportEventEP6QEvent@Base 4:4.10.1
 _ZN6Okteta21AbstractByteArrayView14dragEnterEventEP15QDragEnterEvent@Base 4:4.10.1
 _ZN6Okteta21AbstractByteArrayView14dragLeaveEventEP15QDragLeaveEvent@Base 4:4.10.1
 _ZN6Okteta21AbstractByteArrayView14finishByteEditEv@Base 4:4.10.1
 _ZN6Okteta21AbstractByteArrayView14mouseMoveEventEP11QMouseEvent@Base 4:4.10.1
 _ZN6Okteta21AbstractByteArrayView14setLayoutStyleENS0_11LayoutStyleE@Base 4:4.10.1
 _ZN6Okteta21AbstractByteArrayView14setStartOffsetEi@Base 4:4.10.1
 _ZN6Okteta21AbstractByteArrayView15mousePressEventEP11QMouseEvent@Base 4:4.10.1
 _ZN6Okteta21AbstractByteArrayView15readOnlyChangedEb@Base 4:4.10.1
 _ZN6Okteta21AbstractByteArrayView15setActiveCodingENS0_12CodingTypeIdE@Base 4:4.10.1
 _ZN6Okteta21AbstractByteArrayView15setOffsetCodingENS0_12OffsetCodingE@Base 4:4.10.1
 _ZN6Okteta21AbstractByteArrayView16charCodecChangedERK7QString@Base 4:4.10.1
 _ZN6Okteta21AbstractByteArrayView16selectionChangedERKN3KDE11NumberRangeIiiEE@Base 4:4.10.1
 _ZN6Okteta21AbstractByteArrayView16setOverwriteModeEb@Base 4:4.10.1
 _ZN6Okteta21AbstractByteArrayView16setOverwriteOnlyEb@Base 4:4.10.1
 _ZN6Okteta21AbstractByteArrayView16staticMetaObjectE@Base 4:4.10.1
 _ZN6Okteta21AbstractByteArrayView17mouseReleaseEventEP11QMouseEvent@Base 4:4.10.1
 _ZN6Okteta21AbstractByteArrayView17setByteArrayModelEPNS_22AbstractByteArrayModelE@Base 4:4.10.1
 _ZN6Okteta21AbstractByteArrayView17setCursorPositionEib@Base 4:4.10.1
 _ZN6Okteta21AbstractByteArrayView17setVisibleCodingsEi@Base 4:4.10.1
 _ZN6Okteta21AbstractByteArrayView18layoutStyleChangedEi@Base 4:4.10.1
 _ZN6Okteta21AbstractByteArrayView18pasteFromClipboardEN10QClipboard4ModeE@Base 4:4.10.1
 _ZN6Okteta21AbstractByteArrayView18removeSelectedDataEv@Base 4:4.10.1
 _ZN6Okteta21AbstractByteArrayView18setFirstLineOffsetEi@Base 4:4.10.1
 _ZN6Okteta21AbstractByteArrayView18setTabChangesFocusEb@Base 4:4.10.1
 _ZN6Okteta21AbstractByteArrayView18toggleOffsetColumnEb@Base 4:4.10.1
 _ZN6Okteta21AbstractByteArrayView18valueCodingChangedEi@Base 4:4.10.1
 _ZN6Okteta21AbstractByteArrayView19ensureCursorVisibleEv@Base 4:4.10.1
 _ZN6Okteta21AbstractByteArrayView19offsetCodingChangedEi@Base 4:4.10.1
 _ZN6Okteta21AbstractByteArrayView19setNoOfBytesPerLineEi@Base 4:4.10.1
 _ZN6Okteta21AbstractByteArrayView20emitSelectionSignalsEv@Base 4:4.10.1
 _ZN6Okteta21AbstractByteArrayView20overwriteModeChangedEb@Base 4:4.10.1
 _ZN6Okteta21AbstractByteArrayView20undefinedCharChangedE5QChar@Base 4:4.10.1
 _ZN6Okteta21AbstractByteArrayView21cursorPositionChangedEi@Base 4:4.10.1
 _ZN6Okteta21AbstractByteArrayView21mouseDoubleClickEventEP11QMouseEvent@Base 4:4.10.1
 _ZN6Okteta21AbstractByteArrayView21substituteCharChangedE5QChar@Base 4:4.10.1
 _ZN6Okteta21AbstractByteArrayView22hasSelectedDataChangedEb@Base 4:4.10.1
 _ZN6Okteta21AbstractByteArrayView23noOfBytesPerLineChangedEi@Base 4:4.10.1
 _ZN6Okteta21AbstractByteArrayView23noOfGroupedBytesChangedEi@Base 4:4.10.1
 _ZN6Okteta21AbstractByteArrayView23showsNonprintingChangedEb@Base 4:4.10.1
 _ZN6Okteta21AbstractByteArrayView26offsetColumnVisibleChangedEb@Base 4:4.10.1
 _ZN6Okteta21AbstractByteArrayView26setSelectionCursorPositionEi@Base 4:4.10.1
 _ZN6Okteta21AbstractByteArrayView30visibleByteArrayCodingsChangedEi@Base 4:4.10.1
 _ZN6Okteta21AbstractByteArrayView3cutEv@Base 4:4.10.1
 _ZN6Okteta21AbstractByteArrayView4copyEv@Base 4:4.10.1
 _ZN6Okteta21AbstractByteArrayView5eventEP6QEvent@Base 4:4.10.1
 _ZN6Okteta21AbstractByteArrayView5pasteEv@Base 4:4.10.1
 _ZN6Okteta21AbstractByteArrayView6insertERK10QByteArray@Base 4:4.10.1
 _ZN6Okteta21AbstractByteArrayView6unZoomEv@Base 4:4.10.1
 _ZN6Okteta21AbstractByteArrayView6zoomInEi@Base 4:4.10.1
 _ZN6Okteta21AbstractByteArrayView6zoomInEv@Base 4:4.10.1
 _ZN6Okteta21AbstractByteArrayView6zoomToEi@Base 4:4.10.1
 _ZN6Okteta21AbstractByteArrayView7clickedEi@Base 4:4.10.1
 _ZN6Okteta21AbstractByteArrayView7zoomOutEi@Base 4:4.10.1
 _ZN6Okteta21AbstractByteArrayView7zoomOutEv@Base 4:4.10.1
 _ZN6Okteta21AbstractByteArrayView9dropEventEP10QDropEvent@Base 4:4.10.1
 _ZN6Okteta21AbstractByteArrayView9pasteDataEPK9QMimeData@Base 4:4.10.1
 _ZN6Okteta21AbstractByteArrayView9selectAllEb@Base 4:4.10.1
 _ZN6Okteta21AbstractByteArrayView9showEventEP10QShowEvent@Base 4:4.10.1
 _ZN6Okteta21AbstractByteArrayViewC1EPNS_28AbstractByteArrayViewPrivateEP7QWidget@Base 4:4.10.1
 _ZN6Okteta21AbstractByteArrayViewC2EPNS_28AbstractByteArrayViewPrivateEP7QWidget@Base 4:4.10.1
 _ZN6Okteta21AbstractByteArrayViewD0Ev@Base 4:4.10.1
 _ZN6Okteta21AbstractByteArrayViewD1Ev@Base 4:4.10.1
 _ZN6Okteta21AbstractByteArrayViewD2Ev@Base 4:4.10.1
 _ZN6Okteta21AbstractColumnStylistC1EPNS_28AbstractColumnStylistPrivateE@Base 4:4.10.1
 _ZN6Okteta21AbstractColumnStylistC1Ev@Base 4:4.10.1
 _ZN6Okteta21AbstractColumnStylistC2EPNS_28AbstractColumnStylistPrivateE@Base 4:4.10.1
 _ZN6Okteta21AbstractColumnStylistC2Ev@Base 4:4.10.1
 _ZN6Okteta21AbstractColumnStylistD0Ev@Base 4:4.10.1
 _ZN6Okteta21AbstractColumnStylistD1Ev@Base 4:4.10.1
 _ZN6Okteta21AbstractColumnStylistD2Ev@Base 4:4.10.1
 _ZN6Okteta22AbstractColumnRenderer10setVisibleEb@Base 4:4.10.1
 _ZN6Okteta22AbstractColumnRenderer12renderColumnEP8QPainterRKN3KDE11NumberRangeIiiEES7_@Base 4:4.10.1
 _ZN6Okteta22AbstractColumnRenderer13setLineHeightEi@Base 4:4.10.1
 _ZN6Okteta22AbstractColumnRenderer14renderNextLineEP8QPainter@Base 4:4.10.1
 _ZN6Okteta22AbstractColumnRenderer15renderFirstLineEP8QPainterRKN3KDE11NumberRangeIiiEEi@Base 4:4.10.1
 _ZN6Okteta22AbstractColumnRenderer17renderEmptyColumnEP8QPainterRKN3KDE11NumberRangeIiiEES7_@Base 4:4.10.1
 _ZN6Okteta22AbstractColumnRenderer4setXEi@Base 4:4.10.1
 _ZN6Okteta22AbstractColumnRenderer8setWidthEi@Base 4:4.10.1
 _ZN6Okteta22AbstractColumnRendererC1EPNS_21AbstractColumnStylistE@Base 4:4.10.1
 _ZN6Okteta22AbstractColumnRendererC2EPNS_21AbstractColumnStylistE@Base 4:4.10.1
 _ZN6Okteta22AbstractColumnRendererD0Ev@Base 4:4.10.1
 _ZN6Okteta22AbstractColumnRendererD1Ev@Base 4:4.10.1
 _ZN6Okteta22AbstractColumnRendererD2Ev@Base 4:4.10.1
 _ZN6Okteta26ByteArrayRowColumnRenderer10renderByteEP8QPainteriNS_21AbstractByteArrayView12CodingTypeIdE@Base 4:4.10.1
 _ZN6Okteta26ByteArrayRowColumnRenderer10setSpacingEiii@Base 4:4.10.1
 _ZN6Okteta26ByteArrayRowColumnRenderer11renderPlainEP8QPainterRKN3KDE11NumberRangeIiiEEi@Base 4:4.10.1
 _ZN6Okteta26ByteArrayRowColumnRenderer11renderRangeEP8QPainterRK6QBrushRKN3KDE11NumberRangeIiiEEi@Base 4:4.10.1
 _ZN6Okteta26ByteArrayRowColumnRenderer12renderCursorEP8QPainteriNS_21AbstractByteArrayView12CodingTypeIdE@Base 4:4.10.1
 _ZN6Okteta26ByteArrayRowColumnRenderer12resetXBufferEv@Base 4:4.10.1
 _ZN6Okteta26ByteArrayRowColumnRenderer13renderMarkingEP8QPainterRKN3KDE11NumberRangeIiiEEii@Base 4:4.10.1
 _ZN6Okteta26ByteArrayRowColumnRenderer13setValueCodecENS_11ValueCodingEPKNS_10ValueCodecE@Base 4:4.10.1
 _ZN6Okteta26ByteArrayRowColumnRenderer14renderBookmarkEP8QPainterRK6QBrush@Base 4:4.10.1
 _ZN6Okteta26ByteArrayRowColumnRenderer14renderNextLineEP8QPainter@Base 4:4.10.1
 _ZN6Okteta26ByteArrayRowColumnRenderer14setFontMetricsERK12QFontMetrics@Base 4:4.10.1
 _ZN6Okteta26ByteArrayRowColumnRenderer15recalcByteWidthEv@Base 4:4.10.1
 _ZN6Okteta26ByteArrayRowColumnRenderer15renderFirstLineEP8QPainterRKN3KDE11NumberRangeIiiEEi@Base 4:4.10.1
 _ZN6Okteta26ByteArrayRowColumnRenderer15renderSelectionEP8QPainterRKN3KDE11NumberRangeIiiEEii@Base 4:4.10.1
 _ZN6Okteta26ByteArrayRowColumnRenderer16prepareRenderingERKN3KDE11NumberRangeIiiEE@Base 4:4.10.1
 _ZN6Okteta26ByteArrayRowColumnRenderer16renderEditedByteEP8QPainterhRK7QString@Base 4:4.10.1
 _ZN6Okteta26ByteArrayRowColumnRenderer16renderFramedByteEP8QPainteriNS_21AbstractByteArrayView12CodingTypeIdENS0_10FrameStyleE@Base 4:4.10.1
 _ZN6Okteta26ByteArrayRowColumnRenderer17renderSpaceBehindEP8QPainterRK6QBrushi@Base 4:4.10.1
 _ZN6Okteta26ByteArrayRowColumnRenderer17setBinaryGapWidthEi@Base 4:4.10.1
 _ZN6Okteta26ByteArrayRowColumnRenderer17setVisibleCodingsEi@Base 4:4.10.1
 _ZN6Okteta26ByteArrayRowColumnRenderer19renderLinePositionsEP8QPainteriRKN3KDE11NumberRangeIiiEE@Base 4:4.10.1
 _ZN6Okteta26ByteArrayRowColumnRenderer19setByteSpacingWidthEi@Base 4:4.10.1
 _ZN6Okteta26ByteArrayRowColumnRenderer19setNoOfGroupedBytesEi@Base 4:4.10.1
 _ZN6Okteta26ByteArrayRowColumnRenderer20setGroupSpacingWidthEi@Base 4:4.10.1
 _ZN6Okteta26ByteArrayRowColumnRenderer26renderSelectionSpaceBehindEP8QPainteri@Base 4:4.10.1
 _ZN6Okteta26ByteArrayRowColumnRenderer3setEPNS_22AbstractByteArrayModelE@Base 4:4.10.1
 _ZN6Okteta26ByteArrayRowColumnRenderer7recalcXEv@Base 4:4.10.1
 _ZN6Okteta26ByteArrayRowColumnRendererC1EPNS_21AbstractColumnStylistEPNS_22AbstractByteArrayModelEPNS_20ByteArrayTableLayoutEPNS_20ByteArrayTableRangesE@Base 4:4.10.1
 _ZN6Okteta26ByteArrayRowColumnRendererC2EPNS_21AbstractColumnStylistEPNS_22AbstractByteArrayModelEPNS_20ByteArrayTableLayoutEPNS_20ByteArrayTableRangesE@Base 4:4.10.1
 _ZN6Okteta26ByteArrayRowColumnRendererD0Ev@Base 4:4.10.1
 _ZN6Okteta26ByteArrayRowColumnRendererD1Ev@Base 4:4.10.1
 _ZN6Okteta26ByteArrayRowColumnRendererD2Ev@Base 4:4.10.1
 _ZN6Okteta27CharByteArrayColumnRendererC1EPNS_21AbstractColumnStylistEPNS_22AbstractByteArrayModelEPNS_20ByteArrayTableLayoutEPNS_20ByteArrayTableRangesE@Base 4:4.10.1
 _ZN6Okteta27CharByteArrayColumnRendererC2EPNS_21AbstractColumnStylistEPNS_22AbstractByteArrayModelEPNS_20ByteArrayTableLayoutEPNS_20ByteArrayTableRangesE@Base 4:4.10.1
 _ZN6Okteta27CharByteArrayColumnRendererD0Ev@Base 4:4.10.1
 _ZN6Okteta27CharByteArrayColumnRendererD1Ev@Base 4:4.10.1
 _ZN6Okteta27CharByteArrayColumnRendererD2Ev@Base 4:4.10.1
 _ZN6Okteta28ValueByteArrayColumnRenderer13setValueCodecENS_11ValueCodingEPKNS_10ValueCodecE@Base 4:4.10.1
 _ZN6Okteta28ValueByteArrayColumnRenderer15recalcByteWidthEv@Base 4:4.10.1
 _ZN6Okteta28ValueByteArrayColumnRenderer16renderEditedByteEP8QPainterhRK7QString@Base 4:4.10.1
 _ZN6Okteta28ValueByteArrayColumnRenderer17setBinaryGapWidthEi@Base 4:4.10.1
 _ZN6Okteta28ValueByteArrayColumnRendererC1EPNS_21AbstractColumnStylistEPNS_22AbstractByteArrayModelEPNS_20ByteArrayTableLayoutEPNS_20ByteArrayTableRangesE@Base 4:4.10.1
 _ZN6Okteta28ValueByteArrayColumnRendererC2EPNS_21AbstractColumnStylistEPNS_22AbstractByteArrayModelEPNS_20ByteArrayTableLayoutEPNS_20ByteArrayTableRangesE@Base 4:4.10.1
 _ZN6Okteta28ValueByteArrayColumnRendererD0Ev@Base 4:4.10.1
 _ZN6Okteta28ValueByteArrayColumnRendererD1Ev@Base 4:4.10.1
 _ZN6Okteta28ValueByteArrayColumnRendererD2Ev@Base 4:4.10.1
 _ZN6Okteta31AbstractByteArrayColumnRenderer10renderByteEP8QPainteri@Base 4:4.10.1
 _ZN6Okteta31AbstractByteArrayColumnRenderer10setSpacingEiii@Base 4:4.10.1
 _ZN6Okteta31AbstractByteArrayColumnRenderer11renderPlainEP8QPainterRKN3KDE11NumberRangeIiiEEi@Base 4:4.10.1
 _ZN6Okteta31AbstractByteArrayColumnRenderer11renderRangeEP8QPainterRK6QBrushRKN3KDE11NumberRangeIiiEEi@Base 4:4.10.1
 _ZN6Okteta31AbstractByteArrayColumnRenderer12renderCursorEP8QPainteri@Base 4:4.10.1
 _ZN6Okteta31AbstractByteArrayColumnRenderer12resetXBufferEv@Base 4:4.10.1
 _ZN6Okteta31AbstractByteArrayColumnRenderer13renderMarkingEP8QPainterRKN3KDE11NumberRangeIiiEEii@Base 4:4.10.1
 _ZN6Okteta31AbstractByteArrayColumnRenderer14renderBookmarkEP8QPainterRK6QBrush@Base 4:4.10.1
 _ZN6Okteta31AbstractByteArrayColumnRenderer14renderNextLineEP8QPainter@Base 4:4.10.1
 _ZN6Okteta31AbstractByteArrayColumnRenderer14setFontMetricsERK12QFontMetrics@Base 4:4.10.1
 _ZN6Okteta31AbstractByteArrayColumnRenderer15recalcByteWidthEv@Base 4:4.10.1
 _ZN6Okteta31AbstractByteArrayColumnRenderer15renderFirstLineEP8QPainterRKN3KDE11NumberRangeIiiEEi@Base 4:4.10.1
 _ZN6Okteta31AbstractByteArrayColumnRenderer15renderSelectionEP8QPainterRKN3KDE11NumberRangeIiiEEii@Base 4:4.10.1
 _ZN6Okteta31AbstractByteArrayColumnRenderer16prepareRenderingERKN3KDE11NumberRangeIiiEE@Base 4:4.10.1
 _ZN6Okteta31AbstractByteArrayColumnRenderer16renderFramedByteEP8QPainteriNS0_10FrameStyleE@Base 4:4.10.1
 _ZN6Okteta31AbstractByteArrayColumnRenderer17renderSpaceBehindEP8QPainterRK6QBrushi@Base 4:4.10.1
 _ZN6Okteta31AbstractByteArrayColumnRenderer19renderLinePositionsEP8QPainteriRKN3KDE11NumberRangeIiiEE@Base 4:4.10.1
 _ZN6Okteta31AbstractByteArrayColumnRenderer19setByteSpacingWidthEi@Base 4:4.10.1
 _ZN6Okteta31AbstractByteArrayColumnRenderer19setNoOfGroupedBytesEi@Base 4:4.10.1
 _ZN6Okteta31AbstractByteArrayColumnRenderer20setGroupSpacingWidthEi@Base 4:4.10.1
 _ZN6Okteta31AbstractByteArrayColumnRenderer26renderSelectionSpaceBehindEP8QPainteri@Base 4:4.10.1
 _ZN6Okteta31AbstractByteArrayColumnRenderer3setEPNS_22AbstractByteArrayModelE@Base 4:4.10.1
 _ZN6Okteta31AbstractByteArrayColumnRenderer7recalcXEv@Base 4:4.10.1
 _ZN6Okteta31AbstractByteArrayColumnRendererC1EPNS_21AbstractColumnStylistEPNS_22AbstractByteArrayModelEPNS_20ByteArrayTableLayoutEPNS_20ByteArrayTableRangesE@Base 4:4.10.1
 _ZN6Okteta31AbstractByteArrayColumnRendererC2EPNS_21AbstractColumnStylistEPNS_22AbstractByteArrayModelEPNS_20ByteArrayTableLayoutEPNS_20ByteArrayTableRangesE@Base 4:4.10.1
 _ZN6Okteta31AbstractByteArrayColumnRendererD0Ev@Base 4:4.10.1
 _ZN6Okteta31AbstractByteArrayColumnRendererD1Ev@Base 4:4.10.1
 _ZN6Okteta31AbstractByteArrayColumnRendererD2Ev@Base 4:4.10.1
 _ZNK6Okteta11ColumnsView10lineHeightEv@Base 4:4.10.1
 _ZNK6Okteta11ColumnsView10metaObjectEv@Base 4:4.10.1
 _ZNK6Okteta11ColumnsView12columnsWidthEv@Base 4:4.10.1
 _ZNK6Okteta11ColumnsView12visibleLinesERKN3KDE11NumberRangeIiiEE@Base 4:4.10.1
 _ZNK6Okteta11ColumnsView12visibleLinesEv@Base 4:4.10.1
 _ZNK6Okteta11ColumnsView12visibleWidthEv@Base 4:4.10.1
 _ZNK6Okteta11ColumnsView13columnsHeightEv@Base 4:4.10.1
 _ZNK6Okteta11ColumnsView13visibleHeightEv@Base 4:4.10.1
 _ZNK6Okteta11ColumnsView13yOffsetOfLineEi@Base 4:4.10.1
 _ZNK6Okteta11ColumnsView16noOfLinesPerPageEv@Base 4:4.10.1
 _ZNK6Okteta11ColumnsView17viewportToColumnsERK6QPoint@Base 4:4.10.1
 _ZNK6Okteta11ColumnsView6lineAtEi@Base 4:4.10.1
 _ZNK6Okteta11ColumnsView7xOffsetEv@Base 4:4.10.1
 _ZNK6Okteta11ColumnsView7yOffsetEv@Base 4:4.10.1
 _ZNK6Okteta11ColumnsView9noOfLinesEv@Base 4:4.10.1
 _ZNK6Okteta16ByteArrayRowView10metaObjectEv@Base 4:4.10.1
 _ZNK6Okteta16ByteArrayRowView13undefinedCharEv@Base 4:4.10.1
 _ZNK6Okteta16ByteArrayRowView14binaryGapWidthEv@Base 4:4.10.1
 _ZNK6Okteta16ByteArrayRowView14substituteCharEv@Base 4:4.10.1
 _ZNK6Okteta16ByteArrayRowView15minimumSizeHintEv@Base 4:4.10.1
 _ZNK6Okteta16ByteArrayRowView16byteSpacingWidthEv@Base 4:4.10.1
 _ZNK6Okteta16ByteArrayRowView16noOfGroupedBytesEv@Base 4:4.10.1
 _ZNK6Okteta16ByteArrayRowView16showsNonprintingEv@Base 4:4.10.1
 _ZNK6Okteta16ByteArrayRowView17groupSpacingWidthEv@Base 4:4.10.1
 _ZNK6Okteta16ByteArrayRowView17isByteTypeColoredEv@Base 4:4.10.1
 _ZNK6Okteta19ByteArrayColumnView10metaObjectEv@Base 4:4.10.1
 _ZNK6Okteta19ByteArrayColumnView13undefinedCharEv@Base 4:4.10.1
 _ZNK6Okteta19ByteArrayColumnView14binaryGapWidthEv@Base 4:4.10.1
 _ZNK6Okteta19ByteArrayColumnView14substituteCharEv@Base 4:4.10.1
 _ZNK6Okteta19ByteArrayColumnView15minimumSizeHintEv@Base 4:4.10.1
 _ZNK6Okteta19ByteArrayColumnView16byteSpacingWidthEv@Base 4:4.10.1
 _ZNK6Okteta19ByteArrayColumnView16noOfGroupedBytesEv@Base 4:4.10.1
 _ZNK6Okteta19ByteArrayColumnView16showsNonprintingEv@Base 4:4.10.1
 _ZNK6Okteta19ByteArrayColumnView17groupSpacingWidthEv@Base 4:4.10.1
 _ZNK6Okteta19ByteArrayColumnView17isByteTypeColoredEv@Base 4:4.10.1
 _ZNK6Okteta19WidgetColumnStylist7paletteEv@Base 4:4.10.1
 _ZNK6Okteta20ByteArrayTableLayout10hasContentEi@Base 4:4.10.1
 _ZNK6Okteta20ByteArrayTableLayout11lineAtIndexEi@Base 4:4.10.1
 _ZNK6Okteta20ByteArrayTableLayout12coordOfIndexEi@Base 4:4.10.1
 _ZNK6Okteta20ByteArrayTableLayout12correctCoordERKNS_5CoordE@Base 4:4.10.1
 _ZNK6Okteta20ByteArrayTableLayout12correctIndexEi@Base 4:4.10.1
 _ZNK6Okteta20ByteArrayTableLayout12indexAtCoordERKNS_5CoordE@Base 4:4.10.1
 _ZNK6Okteta20ByteArrayTableLayout12lineAtCIndexEi@Base 4:4.10.1
 _ZNK6Okteta20ByteArrayTableLayout13coordOfCIndexEi@Base 4:4.10.1
 _ZNK6Okteta20ByteArrayTableLayout13indexAtCCoordERKNS_5CoordE@Base 4:4.10.1
 _ZNK6Okteta20ByteArrayTableLayout13linePositionsEi@Base 4:4.10.1
 _ZNK6Okteta20ByteArrayTableLayout16lastLinePositionERKNS_5CoordE@Base 4:4.10.1
 _ZNK6Okteta20ByteArrayTableLayout16lastLinePositionEi@Base 4:4.10.1
 _ZNK6Okteta20ByteArrayTableLayout17firstLinePositionERKNS_5CoordE@Base 4:4.10.1
 _ZNK6Okteta20ByteArrayTableLayout17firstLinePositionEi@Base 4:4.10.1
 _ZNK6Okteta20ByteArrayTableLayout18atLastLinePositionERKNS_5CoordE@Base 4:4.10.1
 _ZNK6Okteta20ByteArrayTableLayout19atFirstLinePositionERKNS_5CoordE@Base 4:4.10.1
 _ZNK6Okteta20ByteArrayTableLayout19coordRangeOfIndizesERKN3KDE11NumberRangeIiiEE@Base 4:4.10.1
 _ZNK6Okteta20ByteArrayTableLayout23indexAtLastLinePositionEi@Base 4:4.10.1
 _ZNK6Okteta20ByteArrayTableLayout24indexAtCLastLinePositionEi@Base 4:4.10.1
 _ZNK6Okteta20ByteArrayTableLayout24indexAtFirstLinePositionEi@Base 4:4.10.1
 _ZNK6Okteta20ByteArrayTableLayout25indexAtCFirstLinePositionEi@Base 4:4.10.1
 _ZNK6Okteta20ByteArrayTableRanges15overlapsChangesERKNS_10CoordRangeEPS1_@Base 4:4.10.1
 _ZNK6Okteta20ByteArrayTableRanges15overlapsMarkingEiiPiS1_@Base 4:4.10.1
 _ZNK6Okteta20ByteArrayTableRanges17overlapsSelectionEiiPiS1_@Base 4:4.10.1
 _ZNK6Okteta20ByteArrayTableRanges18overlappingMarkingERKN3KDE11NumberRangeIiiEE@Base 4:4.10.1
 _ZNK6Okteta20ByteArrayTableRanges25firstOverlappingSelectionERKN3KDE11NumberRangeIiiEE@Base 4:4.10.1
 _ZNK6Okteta21AbstractByteArrayView10charCodingEv@Base 4:4.10.1
 _ZNK6Okteta21AbstractByteArrayView10cursorRectEv@Base 4:4.10.1
 _ZNK6Okteta21AbstractByteArrayView10isModifiedEv@Base 4:4.10.1
 _ZNK6Okteta21AbstractByteArrayView10isReadOnlyEv@Base 4:4.10.1
 _ZNK6Okteta21AbstractByteArrayView10metaObjectEv@Base 4:4.10.1
 _ZNK6Okteta21AbstractByteArrayView10valueCodecEv@Base 4:4.10.1
 _ZNK6Okteta21AbstractByteArrayView11canReadDataEPK9QMimeData@Base 4:4.10.1
 _ZNK6Okteta21AbstractByteArrayView11layoutStyleEv@Base 4:4.10.1
 _ZNK6Okteta21AbstractByteArrayView11startOffsetEv@Base 4:4.10.1
 _ZNK6Okteta21AbstractByteArrayView11tableCursorEv@Base 4:4.10.1
 _ZNK6Okteta21AbstractByteArrayView11tableRangesEv@Base 4:4.10.1
 _ZNK6Okteta21AbstractByteArrayView11valueCodingEv@Base 4:4.10.1
 _ZNK6Okteta21AbstractByteArrayView12activeCodingEv@Base 4:4.10.1
 _ZNK6Okteta21AbstractByteArrayView12indexByPointERK6QPoint@Base 4:4.10.1
 _ZNK6Okteta21AbstractByteArrayView12offsetCodingEv@Base 4:4.10.1
 _ZNK6Okteta21AbstractByteArrayView12selectedDataEv@Base 4:4.10.1
 _ZNK6Okteta21AbstractByteArrayView14byteArrayModelEv@Base 4:4.10.1
 _ZNK6Okteta21AbstractByteArrayView14charCodingNameEv@Base 4:4.10.1
 _ZNK6Okteta21AbstractByteArrayView14cursorPositionEv@Base 4:4.10.1
 _ZNK6Okteta21AbstractByteArrayView14isCursorBehindEv@Base 4:4.10.1
 _ZNK6Okteta21AbstractByteArrayView14visibleCodingsEv@Base 4:4.10.1
 _ZNK6Okteta21AbstractByteArrayView15copyToClipboardEN10QClipboard4ModeE@Base 4:4.10.1
 _ZNK6Okteta21AbstractByteArrayView15firstLineOffsetEv@Base 4:4.10.1
 _ZNK6Okteta21AbstractByteArrayView15hasSelectedDataEv@Base 4:4.10.1
 _ZNK6Okteta21AbstractByteArrayView15isOverwriteModeEv@Base 4:4.10.1
 _ZNK6Okteta21AbstractByteArrayView15isOverwriteOnlyEv@Base 4:4.10.1
 _ZNK6Okteta21AbstractByteArrayView15tabChangesFocusEv@Base 4:4.10.1
 _ZNK6Okteta21AbstractByteArrayView16noOfBytesPerLineEv@Base 4:4.10.1
 _ZNK6Okteta21AbstractByteArrayView19offsetColumnVisibleEv@Base 4:4.10.1
 _ZNK6Okteta21AbstractByteArrayView19selectionAsMimeDataEv@Base 4:4.10.1
 _ZNK6Okteta21AbstractByteArrayView6layoutEv@Base 4:4.10.1
 _ZNK6Okteta21AbstractByteArrayView7markingEv@Base 4:4.10.1
 _ZNK6Okteta21AbstractByteArrayView8sizeHintEv@Base 4:4.10.1
 _ZNK6Okteta21AbstractByteArrayView9charCodecEv@Base 4:4.10.1
 _ZNK6Okteta21AbstractByteArrayView9selectionEv@Base 4:4.10.1
 _ZNK6Okteta21AbstractByteArrayView9zoomLevelEv@Base 4:4.10.1
 _ZNK6Okteta22AbstractColumnRenderer10lineHeightEv@Base 4:4.10.1
 _ZNK6Okteta22AbstractColumnRenderer12visibleWidthEv@Base 4:4.10.1
 _ZNK6Okteta22AbstractColumnRenderer15renderBlankLineEP8QPainter@Base 4:4.10.1
 _ZNK6Okteta22AbstractColumnRenderer15restrictToXSpanEPN3KDE11NumberRangeIiiEE@Base 4:4.10.1
 _ZNK6Okteta22AbstractColumnRenderer1xEv@Base 4:4.10.1
 _ZNK6Okteta22AbstractColumnRenderer5widthEv@Base 4:4.10.1
 _ZNK6Okteta22AbstractColumnRenderer6rightXEv@Base 4:4.10.1
 _ZNK6Okteta22AbstractColumnRenderer7stylistEv@Base 4:4.10.1
 _ZNK6Okteta22AbstractColumnRenderer8overlapsERKN3KDE11NumberRangeIiiEE@Base 4:4.10.1
 _ZNK6Okteta22AbstractColumnRenderer9isVisibleEv@Base 4:4.10.1
 _ZNK6Okteta26ByteArrayRowColumnRenderer10renderCodeEP8QPainterRK7QStringRK6QColor@Base 4:4.10.1
 _ZNK6Okteta26ByteArrayRowColumnRenderer11codingIdofYEi@Base 4:4.10.1
 _ZNK6Okteta26ByteArrayRowColumnRenderer11yOfCodingIdENS_21AbstractByteArrayView12CodingTypeIdE@Base 4:4.10.1
 _ZNK6Okteta26ByteArrayRowColumnRenderer14renderByteTextEP8QPainterhNS_9CharacterEiRK6QColor@Base 4:4.10.1
 _ZNK6Okteta26ByteArrayRowColumnRenderer15linePositionOfXEi@Base 4:4.10.1
 _ZNK6Okteta26ByteArrayRowColumnRenderer15xOfLinePositionEi@Base 4:4.10.1
 _ZNK6Okteta26ByteArrayRowColumnRenderer16linePositionsOfXEii@Base 4:4.10.1
 _ZNK6Okteta26ByteArrayRowColumnRenderer20rightXOfLinePositionEi@Base 4:4.10.1
 _ZNK6Okteta26ByteArrayRowColumnRenderer21columnXOfLinePositionEi@Base 4:4.10.1
 _ZNK6Okteta26ByteArrayRowColumnRenderer21linePositionOfColumnXEi@Base 4:4.10.1
 _ZNK6Okteta26ByteArrayRowColumnRenderer23linePositionsOfColumnXsEii@Base 4:4.10.1
 _ZNK6Okteta26ByteArrayRowColumnRenderer23magneticLinePositionOfXEi@Base 4:4.10.1
 _ZNK6Okteta26ByteArrayRowColumnRenderer25getNextMarkedAddressRangeEPN3KDE11NumberRangeIiiEEPjRKS3_@Base 4:4.10.1
 _ZNK6Okteta26ByteArrayRowColumnRenderer26columnRightXOfLinePositionEi@Base 4:4.10.1
 _ZNK6Okteta26ByteArrayRowColumnRenderer27getNextSelectedAddressRangeEPN3KDE11NumberRangeIiiEEPjRKS3_@Base 4:4.10.1
 _ZNK6Okteta26ByteArrayRowColumnRenderer27xsOfLinePositionsInclSpacesERKN3KDE11NumberRangeIiiEE@Base 4:4.10.1
 _ZNK6Okteta26ByteArrayRowColumnRenderer33columnXsOfLinePositionsInclSpacesERKN3KDE11NumberRangeIiiEE@Base 4:4.10.1
 _ZNK6Okteta26ByteArrayRowColumnRenderer8byteRectERKNS_5CoordE@Base 4:4.10.1
 _ZNK6Okteta26ByteArrayRowColumnRenderer8byteRectERKNS_5CoordENS_21AbstractByteArrayView12CodingTypeIdE@Base 4:4.10.1
 _ZNK6Okteta26ByteArrayRowColumnRenderer9rowHeightEv@Base 4:4.10.1
 _ZNK6Okteta27CharByteArrayColumnRenderer14renderByteTextEP8QPainterhNS_9CharacterERK6QColor@Base 4:4.10.1
 _ZNK6Okteta28ValueByteArrayColumnRenderer10renderCodeEP8QPainterRK7QStringRK6QColor@Base 4:4.10.1
 _ZNK6Okteta28ValueByteArrayColumnRenderer14renderByteTextEP8QPainterhNS_9CharacterERK6QColor@Base 4:4.10.1
 _ZNK6Okteta31AbstractByteArrayColumnRenderer15linePositionOfXEi@Base 4:4.10.1
 _ZNK6Okteta31AbstractByteArrayColumnRenderer15xOfLinePositionEi@Base 4:4.10.1
 _ZNK6Okteta31AbstractByteArrayColumnRenderer16linePositionsOfXEii@Base 4:4.10.1
 _ZNK6Okteta31AbstractByteArrayColumnRenderer20rightXOfLinePositionEi@Base 4:4.10.1
 _ZNK6Okteta31AbstractByteArrayColumnRenderer21columnXOfLinePositionEi@Base 4:4.10.1
 _ZNK6Okteta31AbstractByteArrayColumnRenderer21linePositionOfColumnXEi@Base 4:4.10.1
 _ZNK6Okteta31AbstractByteArrayColumnRenderer23linePositionsOfColumnXsEii@Base 4:4.10.1
 _ZNK6Okteta31AbstractByteArrayColumnRenderer23magneticLinePositionOfXEi@Base 4:4.10.1
 _ZNK6Okteta31AbstractByteArrayColumnRenderer25getNextMarkedAddressRangeEPN3KDE11NumberRangeIiiEEPjRKS3_@Base 4:4.10.1
 _ZNK6Okteta31AbstractByteArrayColumnRenderer26columnRightXOfLinePositionEi@Base 4:4.10.1
 _ZNK6Okteta31AbstractByteArrayColumnRenderer27getNextSelectedAddressRangeEPN3KDE11NumberRangeIiiEEPjRKS3_@Base 4:4.10.1
 _ZNK6Okteta31AbstractByteArrayColumnRenderer27xsOfLinePositionsInclSpacesERKN3KDE11NumberRangeIiiEE@Base 4:4.10.1
 _ZNK6Okteta31AbstractByteArrayColumnRenderer33columnXsOfLinePositionsInclSpacesERKN3KDE11NumberRangeIiiEE@Base 4:4.10.1
 _ZNK6Okteta31AbstractByteArrayColumnRenderer8byteRectERKNS_5CoordE@Base 4:4.10.1
 _ZTIN6Okteta11ColumnsViewE@Base 4:4.10.1
 _ZTIN6Okteta16ByteArrayRowViewE@Base 4:4.10.1
 _ZTIN6Okteta19ByteArrayColumnViewE@Base 4:4.10.1
 _ZTIN6Okteta19WidgetColumnStylistE@Base 4:4.10.1
 _ZTIN6Okteta20BorderColumnRendererE@Base 4:4.10.1
 _ZTIN6Okteta20OffsetColumnRendererE@Base 4:4.10.1
 _ZTIN6Okteta21AbstractByteArrayViewE@Base 4:4.10.1
 _ZTIN6Okteta21AbstractColumnStylistE@Base 4:4.10.1
 _ZTIN6Okteta22AbstractColumnRendererE@Base 4:4.10.1
 _ZTIN6Okteta26ByteArrayRowColumnRendererE@Base 4:4.10.1
 _ZTIN6Okteta27CharByteArrayColumnRendererE@Base 4:4.10.1
 _ZTIN6Okteta28ValueByteArrayColumnRendererE@Base 4:4.10.1
 _ZTIN6Okteta31AbstractByteArrayColumnRendererE@Base 4:4.10.1
 _ZTSN6Okteta11ColumnsViewE@Base 4:4.10.1
 _ZTSN6Okteta16ByteArrayRowViewE@Base 4:4.10.1
 _ZTSN6Okteta19ByteArrayColumnViewE@Base 4:4.10.1
 _ZTSN6Okteta19WidgetColumnStylistE@Base 4:4.10.1
 _ZTSN6Okteta20BorderColumnRendererE@Base 4:4.10.1
 _ZTSN6Okteta20OffsetColumnRendererE@Base 4:4.10.1
 _ZTSN6Okteta21AbstractByteArrayViewE@Base 4:4.10.1
 _ZTSN6Okteta21AbstractColumnStylistE@Base 4:4.10.1
 _ZTSN6Okteta22AbstractColumnRendererE@Base 4:4.10.1
 _ZTSN6Okteta26ByteArrayRowColumnRendererE@Base 4:4.10.1
 _ZTSN6Okteta27CharByteArrayColumnRendererE@Base 4:4.10.1
 _ZTSN6Okteta28ValueByteArrayColumnRendererE@Base 4:4.10.1
 _ZTSN6Okteta31AbstractByteArrayColumnRendererE@Base 4:4.10.1
 _ZTVN6Okteta11ColumnsViewE@Base 4:4.10.1
 _ZTVN6Okteta16ByteArrayRowViewE@Base 4:4.10.1
 _ZTVN6Okteta19ByteArrayColumnViewE@Base 4:4.10.1
 _ZTVN6Okteta19WidgetColumnStylistE@Base 4:4.10.1
 _ZTVN6Okteta20BorderColumnRendererE@Base 4:4.10.1
 _ZTVN6Okteta20OffsetColumnRendererE@Base 4:4.10.1
 _ZTVN6Okteta21AbstractByteArrayViewE@Base 4:4.10.1
 _ZTVN6Okteta21AbstractColumnStylistE@Base 4:4.10.1
 _ZTVN6Okteta22AbstractColumnRendererE@Base 4:4.10.1
 _ZTVN6Okteta26ByteArrayRowColumnRendererE@Base 4:4.10.1
 _ZTVN6Okteta27CharByteArrayColumnRendererE@Base 4:4.10.1
 _ZTVN6Okteta28ValueByteArrayColumnRendererE@Base 4:4.10.1
 _ZTVN6Okteta31AbstractByteArrayColumnRendererE@Base 4:4.10.1
 _ZThn16_N6Okteta11ColumnsViewD0Ev@Base 4:4.10.1
 _ZThn16_N6Okteta11ColumnsViewD1Ev@Base 4:4.10.1
 _ZThn16_N6Okteta16ByteArrayRowViewD0Ev@Base 4:4.10.1
 _ZThn16_N6Okteta16ByteArrayRowViewD1Ev@Base 4:4.10.1
 _ZThn16_N6Okteta19ByteArrayColumnViewD0Ev@Base 4:4.10.1
 _ZThn16_N6Okteta19ByteArrayColumnViewD1Ev@Base 4:4.10.1
 _ZThn16_N6Okteta21AbstractByteArrayViewD0Ev@Base 4:4.10.1
 _ZThn16_N6Okteta21AbstractByteArrayViewD1Ev@Base 4:4.10.1
