# SymbolsHelper-Confirmed: 0.7.1 amd64 armel armhf hurd-i386 i386 ia64 kfreebsd-i386 mips mipsel powerpc s390 s390x sparc
libqjson.so.0 libqjson0 #MINVER#
 _ZN5QJson10Serializer9serializeERK8QVariant@Base 0.7.1
 _ZN5QJson10Serializer9serializeERK8QVariantP9QIODevicePb@Base 0.7.1
 _ZN5QJson10SerializerC1Ev@Base 0.7.1
 _ZN5QJson10SerializerC2Ev@Base 0.7.1
 _ZN5QJson10SerializerD1Ev@Base 0.7.1
 _ZN5QJson10SerializerD2Ev@Base 0.7.1
 _ZN5QJson13QObjectHelper16qobject2qvariantEPK7QObjectRK11QStringList@Base 0.7.1
 _ZN5QJson13QObjectHelper16qvariant2qobjectERK4QMapI7QString8QVariantEP7QObject@Base 0.7.1
 _ZN5QJson13QObjectHelperC1Ev@Base 0.7.1
 _ZN5QJson13QObjectHelperC2Ev@Base 0.7.1
 _ZN5QJson13QObjectHelperD1Ev@Base 0.7.1
 _ZN5QJson13QObjectHelperD2Ev@Base 0.7.1
 _ZN5QJson14ParserRunnable11qt_metacallEN11QMetaObject4CallEiPPv@Base 0.7.1
 _ZN5QJson14ParserRunnable11qt_metacastEPKc@Base 0.7.1
 _ZN5QJson14ParserRunnable15parsingFinishedERK8QVariantbRK7QString@Base 0.7.1
 _ZN5QJson14ParserRunnable16staticMetaObjectE@Base 0.7.1
 _ZN5QJson14ParserRunnable3runEv@Base 0.7.1
 _ZN5QJson14ParserRunnable7setDataERK10QByteArray@Base 0.7.1
 _ZN5QJson14ParserRunnableC1EP7QObject@Base 0.7.1
 _ZN5QJson14ParserRunnableC2EP7QObject@Base 0.7.1
 _ZN5QJson14ParserRunnableD0Ev@Base 0.7.1
 _ZN5QJson14ParserRunnableD1Ev@Base 0.7.1
 _ZN5QJson14ParserRunnableD2Ev@Base 0.7.1
 _ZN5QJson18SerializerRunnable11qt_metacallEN11QMetaObject4CallEiPPv@Base 0.7.1
 _ZN5QJson18SerializerRunnable11qt_metacastEPKc@Base 0.7.1
 _ZN5QJson18SerializerRunnable13setJsonObjectERK8QVariant@Base 0.7.1
 _ZN5QJson18SerializerRunnable15parsingFinishedERK10QByteArraybRK7QString@Base 0.7.1
 _ZN5QJson18SerializerRunnable16staticMetaObjectE@Base 0.7.1
 _ZN5QJson18SerializerRunnable3runEv@Base 0.7.1
 _ZN5QJson18SerializerRunnableC1EP7QObject@Base 0.7.1
 _ZN5QJson18SerializerRunnableC2EP7QObject@Base 0.7.1
 _ZN5QJson18SerializerRunnableD0Ev@Base 0.7.1
 _ZN5QJson18SerializerRunnableD1Ev@Base 0.7.1
 _ZN5QJson18SerializerRunnableD2Ev@Base 0.7.1
 _ZN5QJson6Parser5parseEP9QIODevicePb@Base 0.7.1
 _ZN5QJson6Parser5parseERK10QByteArrayPb@Base 0.7.1
 _ZN5QJson6ParserC1Ev@Base 0.7.1
 _ZN5QJson6ParserC2Ev@Base 0.7.1
 _ZN5QJson6ParserD1Ev@Base 0.7.1
 _ZN5QJson6ParserD2Ev@Base 0.7.1
 _ZNK5QJson14ParserRunnable10metaObjectEv@Base 0.7.1
 _ZNK5QJson18SerializerRunnable10metaObjectEv@Base 0.7.1
 _ZNK5QJson6Parser11errorStringEv@Base 0.7.1
 _ZNK5QJson6Parser9errorLineEv@Base 0.7.1
 (optional=templinst|arch=hurd-i386)_ZNKSt15_Deque_iteratorIiRiPiEmiEi@Base 0.7.1
 (optional=templinst|arch=hurd-i386)_ZNKSt15_Deque_iteratorIiRiPiEplEi@Base 0.7.1
 (optional=templinst|arch=!amd64 !hurd-i386|subst)_ZNSt11_Deque_baseI8QVariantSaIS0_EE17_M_initialize_mapE{size_t}@Base 0.7.1
 (optional=templinst|arch=!amd64 !hurd-i386)_ZNSt11_Deque_baseI8QVariantSaIS0_EED1Ev@Base 0.7.1
 (optional=templinst|arch=!amd64 !hurd-i386)_ZNSt11_Deque_baseI8QVariantSaIS0_EED2Ev@Base 0.7.1
 (optional=templinst|arch=!amd64 !hurd-i386|subst)_ZNSt11_Deque_baseIN2yy8locationESaIS1_EE17_M_initialize_mapE{size_t}@Base 0.7.1
 (optional=templinst|arch=!amd64 !hurd-i386)_ZNSt11_Deque_baseIN2yy8locationESaIS1_EED1Ev@Base 0.7.1
 (optional=templinst|arch=!amd64 !hurd-i386)_ZNSt11_Deque_baseIN2yy8locationESaIS1_EED2Ev@Base 0.7.1
 (optional=templinst|subst)_ZNSt11_Deque_baseIiSaIiEE17_M_initialize_mapE{size_t}@Base 0.7.1
 (optional=templinst)_ZNSt11_Deque_baseIiSaIiEED1Ev@Base 0.7.1
 (optional=templinst)_ZNSt11_Deque_baseIiSaIiEED2Ev@Base 0.7.1
 (optional=templinst|arch=i386 kfreebsd-i386 powerpc s390 s390x)_ZNSt15_Deque_iteratorI8QVariantRS0_PS0_EppEv@Base 0.7.1
 (optional=templinst|arch=!amd64 !hurd-i386|subst)_ZNSt5dequeI8QVariantSaIS0_EE13_M_insert_auxISt15_Deque_iteratorIS0_RKS0_PS5_EEEvS4_IS0_RS0_PS0_ET_SC_{size_t}@Base 0.7.1
 (optional=templinst|arch=!amd64 !hurd-i386)_ZNSt5dequeI8QVariantSaIS0_EE17_M_push_front_auxERKS0_@Base 0.7.1
 (optional=templinst|arch=!amd64 !hurd-i386|subst)_ZNSt5dequeI8QVariantSaIS0_EE17_M_reallocate_mapE{size_t}b@Base 0.7.1
 (optional=templinst|arch=!amd64 !hurd-i386)_ZNSt5dequeI8QVariantSaIS0_EE18_M_fill_initializeERKS0_@Base 0.7.1
 (optional=templinst|arch=!amd64 !armel !armhf !hurd-i386)_ZNSt5dequeI8QVariantSaIS0_EE19_M_destroy_data_auxESt15_Deque_iteratorIS0_RS0_PS0_ES6_@Base 0.7.1
 (optional=templinst|arch=!amd64 !hurd-i386)_ZNSt5dequeI8QVariantSaIS0_EE19_M_range_insert_auxISt15_Deque_iteratorIS0_RKS0_PS5_EEEvS4_IS0_RS0_PS0_ET_SC_St20forward_iterator_tag@Base 0.7.1
 (optional=templinst|arch=!amd64 !hurd-i386|subst)_ZNSt5dequeI8QVariantSaIS0_EE23_M_new_elements_at_backE{size_t}@Base 0.7.1
 (optional=templinst|arch=!amd64 !hurd-i386|subst)_ZNSt5dequeI8QVariantSaIS0_EE24_M_new_elements_at_frontE{size_t}@Base 0.7.1
 (optional=templinst|arch=!amd64 !hurd-i386)_ZNSt5dequeI8QVariantSaIS0_EEaSERKS2_@Base 0.7.1
 (optional=templinst|arch=!amd64 !hurd-i386|subst)_ZNSt5dequeIN2yy8locationESaIS1_EE13_M_insert_auxISt15_Deque_iteratorIS1_RKS1_PS6_EEEvS5_IS1_RS1_PS1_ET_SD_{size_t}@Base 0.7.1
 (optional=templinst|arch=!amd64 !hurd-i386|subst)_ZNSt5dequeIN2yy8locationESaIS1_EE17_M_reallocate_mapE{size_t}b@Base 0.7.1
 (optional=templinst|arch=i386 kfreebsd-i386 mips mipsel)_ZNSt5dequeIN2yy8locationESaIS1_EE18_M_fill_initializeERKS1_@Base 0.7.1
 (optional=templinst|arch=!amd64 !hurd-i386)_ZNSt5dequeIN2yy8locationESaIS1_EE19_M_range_insert_auxISt15_Deque_iteratorIS1_RKS1_PS6_EEEvS5_IS1_RS1_PS1_ET_SD_St20forward_iterator_tag@Base 0.7.1
 (optional=templinst|arch=!amd64 !hurd-i386|subst)_ZNSt5dequeIN2yy8locationESaIS1_EE23_M_new_elements_at_backE{size_t}@Base 0.7.1
 (optional=templinst|arch=!amd64 !hurd-i386|subst)_ZNSt5dequeIN2yy8locationESaIS1_EE24_M_new_elements_at_frontE{size_t}@Base 0.7.1
 (optional=templinst|arch=i386 kfreebsd-i386 powerpc s390x|subst)_ZNSt5dequeIN2yy8locationESaIS1_EE28_M_reserve_elements_at_frontE{size_t}@Base 0.7.1
 (optional=templinst|arch=!amd64 !hurd-i386)_ZNSt5dequeIN2yy8locationESaIS1_EEaSERKS3_@Base 0.7.1
 (optional=templinst|subst)_ZNSt5dequeIiSaIiEE13_M_insert_auxISt15_Deque_iteratorIiRKiPS4_EEEvS3_IiRiPiET_SB_{size_t}@Base 0.7.1
 (optional=templinst|arch=amd64 hurd-i386)_ZNSt5dequeIiSaIiEE16_M_pop_front_auxEv@Base 0.7.1
 (optional=templinst|subst)_ZNSt5dequeIiSaIiEE17_M_reallocate_mapE{size_t}b@Base 0.7.1
 (optional=templinst|arch=amd64 hurd-i386)_ZNSt5dequeIiSaIiEE18_M_fill_initializeERKi@Base 0.7.1
 (optional=templinst|arch=!amd64)_ZNSt5dequeIiSaIiEE19_M_range_insert_auxISt15_Deque_iteratorIiRKiPS4_EEEvS3_IiRiPiET_SB_St20forward_iterator_tag@Base 0.7.1
 (optional=templinst|subst)_ZNSt5dequeIiSaIiEE23_M_new_elements_at_backE{size_t}@Base 0.7.1
 (optional=templinst|subst)_ZNSt5dequeIiSaIiEE24_M_new_elements_at_frontE{size_t}@Base 0.7.1
 (optional=templinst|arch=hurd-i386)_ZNSt5dequeIiSaIiEE27_M_reserve_elements_at_backEj@Base 0.7.1
 (optional=templinst|arch=amd64 hurd-i386 i386 kfreebsd-i386 powerpc s390x|subst)_ZNSt5dequeIiSaIiEE28_M_reserve_elements_at_frontE{size_t}@Base 0.7.1
 (optional=templinst)_ZNSt5dequeIiSaIiEEaSERKS1_@Base 0.7.1
 (optional=templinst|arch=!amd64 !hurd-i386)_ZSt13copy_backwardI8QVariantESt15_Deque_iteratorIT_RS2_PS2_ES1_IS2_RKS2_PS6_ES9_S5_@Base 0.7.1
 (optional=templinst|arch=!amd64 !hurd-i386)_ZSt13copy_backwardIN2yy8locationEESt15_Deque_iteratorIT_RS3_PS3_ES2_IS3_RKS3_PS7_ESA_S6_@Base 0.7.1
 (optional=templinst|arch=!amd64 !hurd-i386)_ZSt13copy_backwardIiESt15_Deque_iteratorIT_RS1_PS1_ES0_IS1_RKS1_PS5_ES8_S4_@Base 0.7.1
 (optional=templinst|arch=hurd-i386)_ZSt13copy_backwardIiESt15_Deque_iteratorIT_RS1_PS1_ES4_S4_S4_@Base 0.7.1
 (optional=templinst|arch=!amd64 !hurd-i386 !ia64 !sparc)_ZSt22__uninitialized_copy_aISt15_Deque_iteratorI8QVariantRKS1_PS2_ES0_IS1_RS1_PS1_ES1_ET0_T_SA_S9_RSaIT1_E@Base 0.7.1
 (optional=templinst|arch=!amd64 !hurd-i386 !ia64 !s390 !sparc)_ZSt22__uninitialized_copy_aISt15_Deque_iteratorIiRKiPS1_ES0_IiRiPiEiET0_T_S9_S8_RSaIT1_E@Base 0.7.1
 (optional=templinst|arch=!amd64 !hurd-i386 !ia64 !sparc)_ZSt22__uninitialized_move_aISt15_Deque_iteratorI8QVariantRS1_PS1_ES4_SaIS1_EET0_T_S7_S6_RT1_@Base 0.7.1
 (optional=templinst|arch=!amd64 !armel !armhf !hurd-i386 !ia64 !s390 !sparc)_ZSt22__uninitialized_move_aISt15_Deque_iteratorIN2yy8locationERS2_PS2_ES5_SaIS2_EET0_T_S8_S7_RT1_@Base 0.7.1
 (optional=templinst|arch=!amd64 !hurd-i386 !ia64 !s390 !sparc)_ZSt22__uninitialized_move_aISt15_Deque_iteratorIiRiPiES3_SaIiEET0_T_S6_S5_RT1_@Base 0.7.1
 (optional=templinst|arch=hurd-i386)_ZSt25__uninitialized_copy_moveISt15_Deque_iteratorIiRKiPS1_ES0_IiRiPiES7_SaIiEET1_T_SA_T0_SB_S9_RT2_@Base 0.7.1
 (optional=templinst|arch=hurd-i386)_ZSt25__uninitialized_move_copyISt15_Deque_iteratorIiRiPiES0_IiRKiPS4_ES3_SaIiEET1_T_SA_T0_SB_S9_RT2_@Base 0.7.1
 (optional=templinst|arch=!amd64 !hurd-i386)_ZSt4copyI8QVariantESt15_Deque_iteratorIT_RS2_PS2_ES1_IS2_RKS2_PS6_ES9_S5_@Base 0.7.1
 (optional=templinst|arch=!amd64 !hurd-i386)_ZSt4copyIN2yy8locationEESt15_Deque_iteratorIT_RS3_PS3_ES2_IS3_RKS3_PS7_ESA_S6_@Base 0.7.1
 (optional=templinst|arch=armel armhf powerpc s390x)_ZSt4copyISt15_Deque_iteratorIiRKiPS1_ES0_IiRiPiEET0_T_S9_S8_@Base 0.7.1
 (optional=templinst)_ZSt4copyIiESt15_Deque_iteratorIT_RS1_PS1_ES0_IS1_RKS1_PS5_ES8_S4_@Base 0.7.1
 (optional=templinst|arch=armel armhf ia64 mips mipsel sparc)_ZSt8_DestroyISt15_Deque_iteratorI8QVariantRS1_PS1_EEvT_S5_@Base 0.7.1
 _ZTIN5QJson14ParserRunnableE@Base 0.7.1
 _ZTIN5QJson18SerializerRunnableE@Base 0.7.1
 _ZTSN5QJson14ParserRunnableE@Base 0.7.1
 _ZTSN5QJson18SerializerRunnableE@Base 0.7.1
 _ZTVN5QJson14ParserRunnableE@Base 0.7.1
 _ZTVN5QJson18SerializerRunnableE@Base 0.7.1
 (c++)"non-virtual thunk to QJson::ParserRunnable::run()@Base" 0.7.1
 (c++)"non-virtual thunk to QJson::ParserRunnable::~ParserRunnable()@Base" 0.7.1
 (c++)"non-virtual thunk to QJson::SerializerRunnable::run()@Base" 0.7.1
 (c++)"non-virtual thunk to QJson::SerializerRunnable::~SerializerRunnable()@Base" 0.7.1
