libOpenColorIO.so.1 libopencolorio1.0 #MINVER#
 _ZN11OpenColorIO2v110ColorSpace11setBitDepthENS0_8BitDepthE@Base 1.0.8
 _ZN11OpenColorIO2v110ColorSpace12setTransformERKNSt3tr110shared_ptrIKNS0_9TransformEEENS0_19ColorSpaceDirectionE@Base 1.0.8
 _ZN11OpenColorIO2v110ColorSpace13setAllocationENS0_10AllocationE@Base 1.0.8
 _ZN11OpenColorIO2v110ColorSpace14setDescriptionEPKc@Base 1.0.8
 _ZN11OpenColorIO2v110ColorSpace16setEqualityGroupEPKc@Base 1.0.8
 _ZN11OpenColorIO2v110ColorSpace17setAllocationVarsEiPKf@Base 1.0.8
 _ZN11OpenColorIO2v110ColorSpace6CreateEv@Base 1.0.8
 _ZN11OpenColorIO2v110ColorSpace7deleterEPS1_@Base 1.0.8
 _ZN11OpenColorIO2v110ColorSpace7setNameEPKc@Base 1.0.8
 _ZN11OpenColorIO2v110ColorSpace9setFamilyEPKc@Base 1.0.8
 _ZN11OpenColorIO2v110ColorSpace9setIsDataEb@Base 1.0.8
 _ZN11OpenColorIO2v110ColorSpaceC1Ev@Base 1.0.8
 _ZN11OpenColorIO2v110ColorSpaceC2Ev@Base 1.0.8
 _ZN11OpenColorIO2v110ColorSpaceD1Ev@Base 1.0.8
 _ZN11OpenColorIO2v110ColorSpaceD2Ev@Base 1.0.8
 _ZN11OpenColorIO2v110GetVersionEv@Base 1.0.8
 _ZN11OpenColorIO2v112BoolToStringEb@Base 1.0.8
 _ZN11OpenColorIO2v112CDLTransform12setDirectionENS0_18TransformDirectionE@Base 1.0.8
 _ZN11OpenColorIO2v112CDLTransform14CreateFromFileEPKcS3_@Base 1.0.8
 _ZN11OpenColorIO2v112CDLTransform14setDescriptionEPKc@Base 1.0.8
 _ZN11OpenColorIO2v112CDLTransform5setIDEPKc@Base 1.0.8
 _ZN11OpenColorIO2v112CDLTransform6CreateEv@Base 1.0.8
 _ZN11OpenColorIO2v112CDLTransform6setSOPEPKf@Base 1.0.8
 _ZN11OpenColorIO2v112CDLTransform6setSatEf@Base 1.0.8
 _ZN11OpenColorIO2v112CDLTransform6setXMLEPKc@Base 1.0.8
 _ZN11OpenColorIO2v112CDLTransform7deleterEPS1_@Base 1.0.8
 _ZN11OpenColorIO2v112CDLTransform8setPowerEPKf@Base 1.0.8
 _ZN11OpenColorIO2v112CDLTransform8setSlopeEPKf@Base 1.0.8
 _ZN11OpenColorIO2v112CDLTransform9setOffsetEPKf@Base 1.0.8
 _ZN11OpenColorIO2v112CDLTransformC1Ev@Base 1.0.8
 _ZN11OpenColorIO2v112CDLTransformC2Ev@Base 1.0.8
 _ZN11OpenColorIO2v112CDLTransformD0Ev@Base 1.0.8
 _ZN11OpenColorIO2v112CDLTransformD1Ev@Base 1.0.8
 _ZN11OpenColorIO2v112CDLTransformD2Ev@Base 1.0.8
 _ZN11OpenColorIO2v112CDLTransformaSERKS1_@Base 1.0.8
 _ZN11OpenColorIO2v112LogTransform12setDirectionENS0_18TransformDirectionE@Base 1.0.8
 _ZN11OpenColorIO2v112LogTransform6CreateEv@Base 1.0.8
 _ZN11OpenColorIO2v112LogTransform7deleterEPS1_@Base 1.0.8
 _ZN11OpenColorIO2v112LogTransform7setBaseEf@Base 1.0.8
 _ZN11OpenColorIO2v112LogTransformC1Ev@Base 1.0.8
 _ZN11OpenColorIO2v112LogTransformC2Ev@Base 1.0.8
 _ZN11OpenColorIO2v112LogTransformD0Ev@Base 1.0.8
 _ZN11OpenColorIO2v112LogTransformD1Ev@Base 1.0.8
 _ZN11OpenColorIO2v112LogTransformD2Ev@Base 1.0.8
 _ZN11OpenColorIO2v112LogTransformaSERKS1_@Base 1.0.8
 _ZN11OpenColorIO2v112ROLE_DEFAULTE@Base 1.0.8
 _ZN11OpenColorIO2v113BitDepthToIntENS0_8BitDepthE@Base 1.0.8
 _ZN11OpenColorIO2v113FileTransform12setDirectionENS0_18TransformDirectionE@Base 1.0.8
 _ZN11OpenColorIO2v113FileTransform13getNumFormatsEv@Base 1.0.8
 _ZN11OpenColorIO2v113FileTransform16setInterpolationENS0_13InterpolationE@Base 1.0.8
 _ZN11OpenColorIO2v113FileTransform20getFormatNameByIndexEi@Base 1.0.8
 _ZN11OpenColorIO2v113FileTransform25getFormatExtensionByIndexEi@Base 1.0.8
 _ZN11OpenColorIO2v113FileTransform6CreateEv@Base 1.0.8
 _ZN11OpenColorIO2v113FileTransform6setSrcEPKc@Base 1.0.8
 _ZN11OpenColorIO2v113FileTransform7deleterEPS1_@Base 1.0.8
 _ZN11OpenColorIO2v113FileTransform8setCCCIdEPKc@Base 1.0.8
 _ZN11OpenColorIO2v113FileTransformC1Ev@Base 1.0.8
 _ZN11OpenColorIO2v113FileTransformC2Ev@Base 1.0.8
 _ZN11OpenColorIO2v113FileTransformD0Ev@Base 1.0.8
 _ZN11OpenColorIO2v113FileTransformD1Ev@Base 1.0.8
 _ZN11OpenColorIO2v113FileTransformD2Ev@Base 1.0.8
 _ZN11OpenColorIO2v113FileTransformaSERKS1_@Base 1.0.8
 _ZN11OpenColorIO2v113GetVersionHexEv@Base 1.0.8
 _ZN11OpenColorIO2v113GpuShaderDesc11setLanguageENS0_11GpuLanguageE@Base 1.0.8
 _ZN11OpenColorIO2v113GpuShaderDesc15setFunctionNameEPKc@Base 1.0.8
 _ZN11OpenColorIO2v113GpuShaderDesc15setLut3DEdgeLenEi@Base 1.0.8
 _ZN11OpenColorIO2v113GpuShaderDescC1Ev@Base 1.0.8
 _ZN11OpenColorIO2v113GpuShaderDescC2Ev@Base 1.0.8
 _ZN11OpenColorIO2v113GpuShaderDescD1Ev@Base 1.0.8
 _ZN11OpenColorIO2v113GpuShaderDescD2Ev@Base 1.0.8
 _ZN11OpenColorIO2v113LookTransform12setDirectionENS0_18TransformDirectionE@Base 1.0.8
 _ZN11OpenColorIO2v113LookTransform6CreateEv@Base 1.0.8
 _ZN11OpenColorIO2v113LookTransform6setDstEPKc@Base 1.0.8
 _ZN11OpenColorIO2v113LookTransform6setSrcEPKc@Base 1.0.8
 _ZN11OpenColorIO2v113LookTransform7deleterEPS1_@Base 1.0.8
 _ZN11OpenColorIO2v113LookTransform8setLooksEPKc@Base 1.0.8
 _ZN11OpenColorIO2v113LookTransformC1Ev@Base 1.0.8
 _ZN11OpenColorIO2v113LookTransformC2Ev@Base 1.0.8
 _ZN11OpenColorIO2v113LookTransformD0Ev@Base 1.0.8
 _ZN11OpenColorIO2v113LookTransformD1Ev@Base 1.0.8
 _ZN11OpenColorIO2v113LookTransformD2Ev@Base 1.0.8
 _ZN11OpenColorIO2v113LookTransformaSERKS1_@Base 1.0.8
 _ZN11OpenColorIO2v114BoolFromStringEPKc@Base 1.0.8
 _ZN11OpenColorIO2v114ClearAllCachesEv@Base 1.0.8
 _ZN11OpenColorIO2v114GroupTransform12setDirectionENS0_18TransformDirectionE@Base 1.0.8
 _ZN11OpenColorIO2v114GroupTransform5clearEv@Base 1.0.8
 _ZN11OpenColorIO2v114GroupTransform6CreateEv@Base 1.0.8
 _ZN11OpenColorIO2v114GroupTransform7deleterEPS1_@Base 1.0.8
 _ZN11OpenColorIO2v114GroupTransform9push_backERKNSt3tr110shared_ptrIKNS0_9TransformEEE@Base 1.0.8
 _ZN11OpenColorIO2v114GroupTransformC1Ev@Base 1.0.8
 _ZN11OpenColorIO2v114GroupTransformC2Ev@Base 1.0.8
 _ZN11OpenColorIO2v114GroupTransformD0Ev@Base 1.0.8
 _ZN11OpenColorIO2v114GroupTransformD1Ev@Base 1.0.8
 _ZN11OpenColorIO2v114GroupTransformD2Ev@Base 1.0.8
 _ZN11OpenColorIO2v114GroupTransformaSERKS1_@Base 1.0.8
 _ZN11OpenColorIO2v114ROLE_REFERENCEE@Base 1.0.8
 _ZN11OpenColorIO2v115BitDepthIsFloatENS0_8BitDepthE@Base 1.0.8
 _ZN11OpenColorIO2v115GetLoggingLevelEv@Base 1.0.8
 _ZN11OpenColorIO2v115MatrixTransform12setDirectionENS0_18TransformDirectionE@Base 1.0.8
 _ZN11OpenColorIO2v115MatrixTransform3FitEPfS2_PKfS4_S4_S4_@Base 1.0.8
 _ZN11OpenColorIO2v115MatrixTransform3SatEPfS2_fPKf@Base 1.0.8
 _ZN11OpenColorIO2v115MatrixTransform4ViewEPfS2_PiPKf@Base 1.0.8
 _ZN11OpenColorIO2v115MatrixTransform5ScaleEPfS2_PKf@Base 1.0.8
 _ZN11OpenColorIO2v115MatrixTransform6CreateEv@Base 1.0.8
 _ZN11OpenColorIO2v115MatrixTransform7deleterEPS1_@Base 1.0.8
 _ZN11OpenColorIO2v115MatrixTransform8IdentityEPfS2_@Base 1.0.8
 _ZN11OpenColorIO2v115MatrixTransform8setValueEPKfS3_@Base 1.0.8
 _ZN11OpenColorIO2v115MatrixTransform9setMatrixEPKf@Base 1.0.8
 _ZN11OpenColorIO2v115MatrixTransform9setOffsetEPKf@Base 1.0.8
 _ZN11OpenColorIO2v115MatrixTransformC1Ev@Base 1.0.8
 _ZN11OpenColorIO2v115MatrixTransformC2Ev@Base 1.0.8
 _ZN11OpenColorIO2v115MatrixTransformD0Ev@Base 1.0.8
 _ZN11OpenColorIO2v115MatrixTransformD1Ev@Base 1.0.8
 _ZN11OpenColorIO2v115MatrixTransformD2Ev@Base 1.0.8
 _ZN11OpenColorIO2v115MatrixTransformaSERKS1_@Base 1.0.8
 _ZN11OpenColorIO2v115PackedImageDescC1EPfllllll@Base 1.0.8
 _ZN11OpenColorIO2v115PackedImageDescC2EPfllllll@Base 1.0.8
 _ZN11OpenColorIO2v115PackedImageDescD0Ev@Base 1.0.8
 _ZN11OpenColorIO2v115PackedImageDescD1Ev@Base 1.0.8
 _ZN11OpenColorIO2v115PackedImageDescD2Ev@Base 1.0.8
 _ZN11OpenColorIO2v115PlanarImageDescC1EPfS2_S2_S2_lll@Base 1.0.8
 _ZN11OpenColorIO2v115PlanarImageDescC2EPfS2_S2_S2_lll@Base 1.0.8
 _ZN11OpenColorIO2v115PlanarImageDescD0Ev@Base 1.0.8
 _ZN11OpenColorIO2v115PlanarImageDescD1Ev@Base 1.0.8
 _ZN11OpenColorIO2v115PlanarImageDescD2Ev@Base 1.0.8
 _ZN11OpenColorIO2v115SetLoggingLevelENS0_12LoggingLevelE@Base 1.0.8
 _ZN11OpenColorIO2v116BitDepthToStringENS0_8BitDepthE@Base 1.0.8
 _ZN11OpenColorIO2v116DisplayTransform10setDisplayEPKc@Base 1.0.8
 _ZN11OpenColorIO2v116DisplayTransform11setLinearCCERKNSt3tr110shared_ptrIKNS0_9TransformEEE@Base 1.0.8
 _ZN11OpenColorIO2v116DisplayTransform12setDirectionENS0_18TransformDirectionE@Base 1.0.8
 _ZN11OpenColorIO2v116DisplayTransform12setDisplayCCERKNSt3tr110shared_ptrIKNS0_9TransformEEE@Base 1.0.8
 _ZN11OpenColorIO2v116DisplayTransform14setChannelViewERKNSt3tr110shared_ptrIKNS0_9TransformEEE@Base 1.0.8
 _ZN11OpenColorIO2v116DisplayTransform16setColorTimingCCERKNSt3tr110shared_ptrIKNS0_9TransformEEE@Base 1.0.8
 _ZN11OpenColorIO2v116DisplayTransform16setLooksOverrideEPKc@Base 1.0.8
 _ZN11OpenColorIO2v116DisplayTransform22setInputColorSpaceNameEPKc@Base 1.0.8
 _ZN11OpenColorIO2v116DisplayTransform23setLooksOverrideEnabledEb@Base 1.0.8
 _ZN11OpenColorIO2v116DisplayTransform6CreateEv@Base 1.0.8
 _ZN11OpenColorIO2v116DisplayTransform7deleterEPS1_@Base 1.0.8
 _ZN11OpenColorIO2v116DisplayTransform7setViewEPKc@Base 1.0.8
 _ZN11OpenColorIO2v116DisplayTransformC1Ev@Base 1.0.8
 _ZN11OpenColorIO2v116DisplayTransformC2Ev@Base 1.0.8
 _ZN11OpenColorIO2v116DisplayTransformD0Ev@Base 1.0.8
 _ZN11OpenColorIO2v116DisplayTransformD1Ev@Base 1.0.8
 _ZN11OpenColorIO2v116DisplayTransformD2Ev@Base 1.0.8
 _ZN11OpenColorIO2v116DisplayTransformaSERKS1_@Base 1.0.8
 _ZN11OpenColorIO2v116GetCurrentConfigEv@Base 1.0.8
 _ZN11OpenColorIO2v116ROLE_MATTE_PAINTE@Base 1.0.8
 _ZN11OpenColorIO2v116SetCurrentConfigERKNSt3tr110shared_ptrIKNS0_6ConfigEEE@Base 1.0.8
 _ZN11OpenColorIO2v117ExponentTransform12setDirectionENS0_18TransformDirectionE@Base 1.0.8
 _ZN11OpenColorIO2v117ExponentTransform6CreateEv@Base 1.0.8
 _ZN11OpenColorIO2v117ExponentTransform7deleterEPS1_@Base 1.0.8
 _ZN11OpenColorIO2v117ExponentTransform8setValueEPKf@Base 1.0.8
 _ZN11OpenColorIO2v117ExponentTransformC1Ev@Base 1.0.8
 _ZN11OpenColorIO2v117ExponentTransformC2Ev@Base 1.0.8
 _ZN11OpenColorIO2v117ExponentTransformD0Ev@Base 1.0.8
 _ZN11OpenColorIO2v117ExponentTransformD1Ev@Base 1.0.8
 _ZN11OpenColorIO2v117ExponentTransformD2Ev@Base 1.0.8
 _ZN11OpenColorIO2v117ExponentTransformaSERKS1_@Base 1.0.8
 _ZN11OpenColorIO2v117ProcessorMetadata6CreateEv@Base 1.0.8
 _ZN11OpenColorIO2v117ProcessorMetadata7addFileEPKc@Base 1.0.8
 _ZN11OpenColorIO2v117ProcessorMetadata7addLookEPKc@Base 1.0.8
 _ZN11OpenColorIO2v117ProcessorMetadata7deleterEPS1_@Base 1.0.8
 _ZN11OpenColorIO2v117ProcessorMetadataC1Ev@Base 1.0.8
 _ZN11OpenColorIO2v117ProcessorMetadataC2Ev@Base 1.0.8
 _ZN11OpenColorIO2v117ProcessorMetadataD1Ev@Base 1.0.8
 _ZN11OpenColorIO2v117ProcessorMetadataD2Ev@Base 1.0.8
 _ZN11OpenColorIO2v117ROLE_COLOR_TIMINGE@Base 1.0.8
 _ZN11OpenColorIO2v117ROLE_SCENE_LINEARE@Base 1.0.8
 _ZN11OpenColorIO2v118AllocationToStringENS0_10AllocationE@Base 1.0.8
 _ZN11OpenColorIO2v118BitDepthFromStringEPKc@Base 1.0.8
 _ZN11OpenColorIO2v118ROLE_COLOR_PICKINGE@Base 1.0.8
 _ZN11OpenColorIO2v118ROLE_TEXTURE_PAINTE@Base 1.0.8
 _ZN11OpenColorIO2v118TruelightTransform10setDisplayEPKc@Base 1.0.8
 _ZN11OpenColorIO2v118TruelightTransform10setProfileEPKc@Base 1.0.8
 _ZN11OpenColorIO2v118TruelightTransform11setRecorderEPKc@Base 1.0.8
 _ZN11OpenColorIO2v118TruelightTransform12setCubeInputEPKc@Base 1.0.8
 _ZN11OpenColorIO2v118TruelightTransform12setDirectionENS0_18TransformDirectionE@Base 1.0.8
 _ZN11OpenColorIO2v118TruelightTransform13setConfigRootEPKc@Base 1.0.8
 _ZN11OpenColorIO2v118TruelightTransform15setInputDisplayEPKc@Base 1.0.8
 _ZN11OpenColorIO2v118TruelightTransform15setOutputCameraEPKc@Base 1.0.8
 _ZN11OpenColorIO2v118TruelightTransform6CreateEv@Base 1.0.8
 _ZN11OpenColorIO2v118TruelightTransform7deleterEPS1_@Base 1.0.8
 _ZN11OpenColorIO2v118TruelightTransform7setLampEPKc@Base 1.0.8
 _ZN11OpenColorIO2v118TruelightTransform8setPrintEPKc@Base 1.0.8
 _ZN11OpenColorIO2v118TruelightTransform9setCameraEPKc@Base 1.0.8
 _ZN11OpenColorIO2v118TruelightTransformC1Ev@Base 1.0.8
 _ZN11OpenColorIO2v118TruelightTransformC2Ev@Base 1.0.8
 _ZN11OpenColorIO2v118TruelightTransformD0Ev@Base 1.0.8
 _ZN11OpenColorIO2v118TruelightTransformD1Ev@Base 1.0.8
 _ZN11OpenColorIO2v118TruelightTransformD2Ev@Base 1.0.8
 _ZN11OpenColorIO2v118TruelightTransformaSERKS1_@Base 1.0.8
 _ZN11OpenColorIO2v119AllocationTransform12setDirectionENS0_18TransformDirectionE@Base 1.0.8
 _ZN11OpenColorIO2v119AllocationTransform13setAllocationENS0_10AllocationE@Base 1.0.8
 _ZN11OpenColorIO2v119AllocationTransform6CreateEv@Base 1.0.8
 _ZN11OpenColorIO2v119AllocationTransform7deleterEPS1_@Base 1.0.8
 _ZN11OpenColorIO2v119AllocationTransform7setVarsEiPKf@Base 1.0.8
 _ZN11OpenColorIO2v119AllocationTransformC1Ev@Base 1.0.8
 _ZN11OpenColorIO2v119AllocationTransformC2Ev@Base 1.0.8
 _ZN11OpenColorIO2v119AllocationTransformD0Ev@Base 1.0.8
 _ZN11OpenColorIO2v119AllocationTransformD1Ev@Base 1.0.8
 _ZN11OpenColorIO2v119AllocationTransformD2Ev@Base 1.0.8
 _ZN11OpenColorIO2v119AllocationTransformaSERKS1_@Base 1.0.8
 _ZN11OpenColorIO2v119ColorSpaceTransform12setDirectionENS0_18TransformDirectionE@Base 1.0.8
 _ZN11OpenColorIO2v119ColorSpaceTransform6CreateEv@Base 1.0.8
 _ZN11OpenColorIO2v119ColorSpaceTransform6setDstEPKc@Base 1.0.8
 _ZN11OpenColorIO2v119ColorSpaceTransform6setSrcEPKc@Base 1.0.8
 _ZN11OpenColorIO2v119ColorSpaceTransform7deleterEPS1_@Base 1.0.8
 _ZN11OpenColorIO2v119ColorSpaceTransformC1Ev@Base 1.0.8
 _ZN11OpenColorIO2v119ColorSpaceTransformC2Ev@Base 1.0.8
 _ZN11OpenColorIO2v119ColorSpaceTransformD0Ev@Base 1.0.8
 _ZN11OpenColorIO2v119ColorSpaceTransformD1Ev@Base 1.0.8
 _ZN11OpenColorIO2v119ColorSpaceTransformD2Ev@Base 1.0.8
 _ZN11OpenColorIO2v119ColorSpaceTransformaSERKS1_@Base 1.0.8
 _ZN11OpenColorIO2v119GpuLanguageToStringENS0_11GpuLanguageE@Base 1.0.8
 _ZN11OpenColorIO2v120AllocationFromStringEPKc@Base 1.0.8
 _ZN11OpenColorIO2v120ExceptionMissingFileC1EPKc@Base 1.0.8
 _ZN11OpenColorIO2v120ExceptionMissingFileC1ERKS1_@Base 1.0.8
 _ZN11OpenColorIO2v120ExceptionMissingFileC2EPKc@Base 1.0.8
 _ZN11OpenColorIO2v120ExceptionMissingFileC2ERKS1_@Base 1.0.8
 _ZN11OpenColorIO2v120ExceptionMissingFileD0Ev@Base 1.0.8
 _ZN11OpenColorIO2v120ExceptionMissingFileD1Ev@Base 1.0.8
 _ZN11OpenColorIO2v120ExceptionMissingFileD2Ev@Base 1.0.8
 _ZN11OpenColorIO2v120LoggingLevelToStringENS0_12LoggingLevelE@Base 1.0.8
 _ZN11OpenColorIO2v120ROLE_COMPOSITING_LOGE@Base 1.0.8
 _ZN11OpenColorIO2v121GpuLanguageFromStringEPKc@Base 1.0.8
 _ZN11OpenColorIO2v121InterpolationToStringENS0_13InterpolationE@Base 1.0.8
 _ZN11OpenColorIO2v122LoggingLevelFromStringEPKc@Base 1.0.8
 _ZN11OpenColorIO2v123InterpolationFromStringEPKc@Base 1.0.8
 _ZN11OpenColorIO2v126CombineTransformDirectionsENS0_18TransformDirectionES1_@Base 1.0.8
 _ZN11OpenColorIO2v126TransformDirectionToStringENS0_18TransformDirectionE@Base 1.0.8
 _ZN11OpenColorIO2v127ColorSpaceDirectionToStringENS0_19ColorSpaceDirectionE@Base 1.0.8
 _ZN11OpenColorIO2v128GetInverseTransformDirectionENS0_18TransformDirectionE@Base 1.0.8
 _ZN11OpenColorIO2v128TransformDirectionFromStringEPKc@Base 1.0.8
 _ZN11OpenColorIO2v129ColorSpaceDirectionFromStringEPKc@Base 1.0.8
 _ZN11OpenColorIO2v14Look12setTransformERKNSt3tr110shared_ptrIKNS0_9TransformEEE@Base 1.0.8
 _ZN11OpenColorIO2v14Look15setProcessSpaceEPKc@Base 1.0.8
 _ZN11OpenColorIO2v14Look19setInverseTransformERKNSt3tr110shared_ptrIKNS0_9TransformEEE@Base 1.0.8
 _ZN11OpenColorIO2v14Look6CreateEv@Base 1.0.8
 _ZN11OpenColorIO2v14Look7deleterEPS1_@Base 1.0.8
 _ZN11OpenColorIO2v14Look7setNameEPKc@Base 1.0.8
 _ZN11OpenColorIO2v14LookC1Ev@Base 1.0.8
 _ZN11OpenColorIO2v14LookC2Ev@Base 1.0.8
 _ZN11OpenColorIO2v14LookD1Ev@Base 1.0.8
 _ZN11OpenColorIO2v14LookD2Ev@Base 1.0.8
 _ZN11OpenColorIO2v15Baker11setCubeSizeEi@Base 1.0.8
 _ZN11OpenColorIO2v15Baker11setMetadataEPKc@Base 1.0.8
 _ZN11OpenColorIO2v15Baker13getNumFormatsEv@Base 1.0.8
 _ZN11OpenColorIO2v15Baker13setInputSpaceEPKc@Base 1.0.8
 _ZN11OpenColorIO2v15Baker13setShaperSizeEi@Base 1.0.8
 _ZN11OpenColorIO2v15Baker14setShaperSpaceEPKc@Base 1.0.8
 _ZN11OpenColorIO2v15Baker14setTargetSpaceEPKc@Base 1.0.8
 _ZN11OpenColorIO2v15Baker20getFormatNameByIndexEi@Base 1.0.8
 _ZN11OpenColorIO2v15Baker25getFormatExtensionByIndexEi@Base 1.0.8
 _ZN11OpenColorIO2v15Baker6CreateEv@Base 1.0.8
 _ZN11OpenColorIO2v15Baker7deleterEPS1_@Base 1.0.8
 _ZN11OpenColorIO2v15Baker7setTypeEPKc@Base 1.0.8
 _ZN11OpenColorIO2v15Baker8setLooksEPKc@Base 1.0.8
 _ZN11OpenColorIO2v15Baker9setConfigERKNSt3tr110shared_ptrIKNS0_6ConfigEEE@Base 1.0.8
 _ZN11OpenColorIO2v15Baker9setFormatEPKc@Base 1.0.8
 _ZN11OpenColorIO2v15BakerC1Ev@Base 1.0.8
 _ZN11OpenColorIO2v15BakerC2Ev@Base 1.0.8
 _ZN11OpenColorIO2v15BakerD1Ev@Base 1.0.8
 _ZN11OpenColorIO2v15BakerD2Ev@Base 1.0.8
 _ZN11OpenColorIO2v16Config10addDisplayEPKcS3_S3_S3_@Base 1.0.8
 _ZN11OpenColorIO2v16Config10clearLooksEv@Base 1.0.8
 _ZN11OpenColorIO2v16Config13CreateFromEnvEv@Base 1.0.8
 _ZN11OpenColorIO2v16Config13addColorSpaceERKNSt3tr110shared_ptrIKNS0_10ColorSpaceEEE@Base 1.0.8
 _ZN11OpenColorIO2v16Config13clearDisplaysEv@Base 1.0.8
 _ZN11OpenColorIO2v16Config13setSearchPathEPKc@Base 1.0.8
 _ZN11OpenColorIO2v16Config13setWorkingDirEPKc@Base 1.0.8
 _ZN11OpenColorIO2v16Config14CreateFromFileEPKc@Base 1.0.8
 _ZN11OpenColorIO2v16Config14setActiveViewsEPKc@Base 1.0.8
 _ZN11OpenColorIO2v16Config14setDescriptionEPKc@Base 1.0.8
 _ZN11OpenColorIO2v16Config16CreateFromStreamERSi@Base 1.0.8
 _ZN11OpenColorIO2v16Config16clearColorSpacesEv@Base 1.0.8
 _ZN11OpenColorIO2v16Config17setActiveDisplaysEPKc@Base 1.0.8
 _ZN11OpenColorIO2v16Config19setDefaultLumaCoefsEPKf@Base 1.0.8
 _ZN11OpenColorIO2v16Config23setStrictParsingEnabledEb@Base 1.0.8
 _ZN11OpenColorIO2v16Config4Impl13resetCacheIDsEv@Base 1.0.8
 _ZN11OpenColorIO2v16Config4Impl4loadERSiPKc@Base 1.0.8
 _ZN11OpenColorIO2v16Config6CreateEv@Base 1.0.8
 _ZN11OpenColorIO2v16Config7addLookERKNSt3tr110shared_ptrIKNS0_4LookEEE@Base 1.0.8
 _ZN11OpenColorIO2v16Config7deleterEPS1_@Base 1.0.8
 _ZN11OpenColorIO2v16Config7setRoleEPKcS3_@Base 1.0.8
 _ZN11OpenColorIO2v16ConfigC1Ev@Base 1.0.8
 _ZN11OpenColorIO2v16ConfigC2Ev@Base 1.0.8
 _ZN11OpenColorIO2v16ConfigD1Ev@Base 1.0.8
 _ZN11OpenColorIO2v16ConfigD2Ev@Base 1.0.8
 _ZN11OpenColorIO2v17Context12setStringVarEPKcS3_@Base 1.0.8
 _ZN11OpenColorIO2v17Context13setSearchPathEPKc@Base 1.0.8
 _ZN11OpenColorIO2v17Context13setWorkingDirEPKc@Base 1.0.8
 _ZN11OpenColorIO2v17Context15loadEnvironmentEv@Base 1.0.8
 _ZN11OpenColorIO2v17Context6CreateEv@Base 1.0.8
 _ZN11OpenColorIO2v17Context7deleterEPS1_@Base 1.0.8
 _ZN11OpenColorIO2v17ContextC1Ev@Base 1.0.8
 _ZN11OpenColorIO2v17ContextC2Ev@Base 1.0.8
 _ZN11OpenColorIO2v17ContextD1Ev@Base 1.0.8
 _ZN11OpenColorIO2v17ContextD2Ev@Base 1.0.8
 _ZN11OpenColorIO2v19ExceptionC1EPKc@Base 1.0.8
 _ZN11OpenColorIO2v19ExceptionC1ERKS1_@Base 1.0.8
 _ZN11OpenColorIO2v19ExceptionC2EPKc@Base 1.0.8
 _ZN11OpenColorIO2v19ExceptionC2ERKS1_@Base 1.0.8
 _ZN11OpenColorIO2v19ExceptionD0Ev@Base 1.0.8
 _ZN11OpenColorIO2v19ExceptionD1Ev@Base 1.0.8
 _ZN11OpenColorIO2v19ExceptionD2Ev@Base 1.0.8
 _ZN11OpenColorIO2v19ExceptionaSERKS1_@Base 1.0.8
 _ZN11OpenColorIO2v19ImageDescD0Ev@Base 1.0.8
 _ZN11OpenColorIO2v19ImageDescD1Ev@Base 1.0.8
 _ZN11OpenColorIO2v19ImageDescD2Ev@Base 1.0.8
 _ZN11OpenColorIO2v19Processor4Impl12addTransformERKNS0_6ConfigERKNSt3tr110shared_ptrIKNS0_7ContextEEERKNS7_IKNS0_9TransformEEENS0_18TransformDirectionE@Base 1.0.8
 _ZN11OpenColorIO2v19Processor4Impl23addColorSpaceConversionERKNS0_6ConfigERKNSt3tr110shared_ptrIKNS0_7ContextEEERKNS7_IKNS0_10ColorSpaceEEESH_@Base 1.0.8
 _ZN11OpenColorIO2v19Processor4Impl8finalizeEv@Base 1.0.8
 _ZN11OpenColorIO2v19Processor4ImplC1Ev@Base 1.0.8
 _ZN11OpenColorIO2v19Processor4ImplC2Ev@Base 1.0.8
 _ZN11OpenColorIO2v19Processor4ImplD1Ev@Base 1.0.8
 _ZN11OpenColorIO2v19Processor4ImplD2Ev@Base 1.0.8
 _ZN11OpenColorIO2v19Processor6CreateEv@Base 1.0.8
 _ZN11OpenColorIO2v19Processor7deleterEPS1_@Base 1.0.8
 _ZN11OpenColorIO2v19ProcessorC1Ev@Base 1.0.8
 _ZN11OpenColorIO2v19ProcessorC2Ev@Base 1.0.8
 _ZN11OpenColorIO2v19ProcessorD1Ev@Base 1.0.8
 _ZN11OpenColorIO2v19ProcessorD2Ev@Base 1.0.8
 _ZN11OpenColorIO2v19ROLE_DATAE@Base 1.0.8
 _ZN11OpenColorIO2v19TransformD0Ev@Base 1.0.8
 _ZN11OpenColorIO2v19TransformD1Ev@Base 1.0.8
 _ZN11OpenColorIO2v19TransformD2Ev@Base 1.0.8
 _ZN11OpenColorIO2v1lsERSoRKNS0_10ColorSpaceE@Base 1.0.8
 _ZN11OpenColorIO2v1lsERSoRKNS0_12CDLTransformE@Base 1.0.8
 _ZN11OpenColorIO2v1lsERSoRKNS0_12LogTransformE@Base 1.0.8
 _ZN11OpenColorIO2v1lsERSoRKNS0_13FileTransformE@Base 1.0.8
 _ZN11OpenColorIO2v1lsERSoRKNS0_13LookTransformE@Base 1.0.8
 _ZN11OpenColorIO2v1lsERSoRKNS0_14GroupTransformE@Base 1.0.8
 _ZN11OpenColorIO2v1lsERSoRKNS0_15MatrixTransformE@Base 1.0.8
 _ZN11OpenColorIO2v1lsERSoRKNS0_16DisplayTransformE@Base 1.0.8
 _ZN11OpenColorIO2v1lsERSoRKNS0_17ExponentTransformE@Base 1.0.8
 _ZN11OpenColorIO2v1lsERSoRKNS0_18TruelightTransformE@Base 1.0.8
 _ZN11OpenColorIO2v1lsERSoRKNS0_19AllocationTransformE@Base 1.0.8
 _ZN11OpenColorIO2v1lsERSoRKNS0_19ColorSpaceTransformE@Base 1.0.8
 _ZN11OpenColorIO2v1lsERSoRKNS0_4LookE@Base 1.0.8
 _ZN11OpenColorIO2v1lsERSoRKNS0_6ConfigE@Base 1.0.8
 _ZN11OpenColorIO2v1lsERSoRKNS0_7ContextE@Base 1.0.8
 _ZN11OpenColorIO2v1lsERSoRKNS0_9ImageDescE@Base 1.0.8
 _ZN11OpenColorIO2v1lsERSoRKNS0_9TransformE@Base 1.0.8
 _ZNK11OpenColorIO2v110ColorSpace11getBitDepthEv@Base 1.0.8
 _ZNK11OpenColorIO2v110ColorSpace12getTransformENS0_19ColorSpaceDirectionE@Base 1.0.8
 _ZNK11OpenColorIO2v110ColorSpace13getAllocationEv@Base 1.0.8
 _ZNK11OpenColorIO2v110ColorSpace14getDescriptionEv@Base 1.0.8
 _ZNK11OpenColorIO2v110ColorSpace16getEqualityGroupEv@Base 1.0.8
 _ZNK11OpenColorIO2v110ColorSpace17getAllocationVarsEPf@Base 1.0.8
 _ZNK11OpenColorIO2v110ColorSpace18createEditableCopyEv@Base 1.0.8
 _ZNK11OpenColorIO2v110ColorSpace20getAllocationNumVarsEv@Base 1.0.8
 _ZNK11OpenColorIO2v110ColorSpace6isDataEv@Base 1.0.8
 _ZNK11OpenColorIO2v110ColorSpace7getNameEv@Base 1.0.8
 _ZNK11OpenColorIO2v110ColorSpace9getFamilyEv@Base 1.0.8
 _ZNK11OpenColorIO2v112CDLTransform12getDirectionEv@Base 1.0.8
 _ZNK11OpenColorIO2v112CDLTransform14getDescriptionEv@Base 1.0.8
 _ZNK11OpenColorIO2v112CDLTransform15getSatLumaCoefsEPf@Base 1.0.8
 _ZNK11OpenColorIO2v112CDLTransform18createEditableCopyEv@Base 1.0.8
 _ZNK11OpenColorIO2v112CDLTransform5getIDEv@Base 1.0.8
 _ZNK11OpenColorIO2v112CDLTransform6equalsERKNSt3tr110shared_ptrIKS1_EE@Base 1.0.8
 _ZNK11OpenColorIO2v112CDLTransform6getSOPEPf@Base 1.0.8
 _ZNK11OpenColorIO2v112CDLTransform6getSatEv@Base 1.0.8
 _ZNK11OpenColorIO2v112CDLTransform6getXMLEv@Base 1.0.8
 _ZNK11OpenColorIO2v112CDLTransform8getPowerEPf@Base 1.0.8
 _ZNK11OpenColorIO2v112CDLTransform8getSlopeEPf@Base 1.0.8
 _ZNK11OpenColorIO2v112CDLTransform9getOffsetEPf@Base 1.0.8
 _ZNK11OpenColorIO2v112LogTransform12getDirectionEv@Base 1.0.8
 _ZNK11OpenColorIO2v112LogTransform18createEditableCopyEv@Base 1.0.8
 _ZNK11OpenColorIO2v112LogTransform7getBaseEv@Base 1.0.8
 _ZNK11OpenColorIO2v113FileTransform12getDirectionEv@Base 1.0.8
 _ZNK11OpenColorIO2v113FileTransform16getInterpolationEv@Base 1.0.8
 _ZNK11OpenColorIO2v113FileTransform18createEditableCopyEv@Base 1.0.8
 _ZNK11OpenColorIO2v113FileTransform6getSrcEv@Base 1.0.8
 _ZNK11OpenColorIO2v113FileTransform8getCCCIdEv@Base 1.0.8
 _ZNK11OpenColorIO2v113GpuShaderDesc10getCacheIDEv@Base 1.0.8
 _ZNK11OpenColorIO2v113GpuShaderDesc11getLanguageEv@Base 1.0.8
 _ZNK11OpenColorIO2v113GpuShaderDesc15getFunctionNameEv@Base 1.0.8
 _ZNK11OpenColorIO2v113GpuShaderDesc15getLut3DEdgeLenEv@Base 1.0.8
 _ZNK11OpenColorIO2v113LookTransform12getDirectionEv@Base 1.0.8
 _ZNK11OpenColorIO2v113LookTransform18createEditableCopyEv@Base 1.0.8
 _ZNK11OpenColorIO2v113LookTransform6getDstEv@Base 1.0.8
 _ZNK11OpenColorIO2v113LookTransform6getSrcEv@Base 1.0.8
 _ZNK11OpenColorIO2v113LookTransform8getLooksEv@Base 1.0.8
 _ZNK11OpenColorIO2v114GroupTransform12getDirectionEv@Base 1.0.8
 _ZNK11OpenColorIO2v114GroupTransform12getTransformEi@Base 1.0.8
 _ZNK11OpenColorIO2v114GroupTransform18createEditableCopyEv@Base 1.0.8
 _ZNK11OpenColorIO2v114GroupTransform4sizeEv@Base 1.0.8
 _ZNK11OpenColorIO2v114GroupTransform5emptyEv@Base 1.0.8
 _ZNK11OpenColorIO2v115MatrixTransform12getDirectionEv@Base 1.0.8
 _ZNK11OpenColorIO2v115MatrixTransform18createEditableCopyEv@Base 1.0.8
 _ZNK11OpenColorIO2v115MatrixTransform6equalsERKS1_@Base 1.0.8
 _ZNK11OpenColorIO2v115MatrixTransform8getValueEPfS2_@Base 1.0.8
 _ZNK11OpenColorIO2v115MatrixTransform9getMatrixEPf@Base 1.0.8
 _ZNK11OpenColorIO2v115MatrixTransform9getOffsetEPf@Base 1.0.8
 _ZNK11OpenColorIO2v115PackedImageDesc14getNumChannelsEv@Base 1.0.8
 _ZNK11OpenColorIO2v115PackedImageDesc15getXStrideBytesEv@Base 1.0.8
 _ZNK11OpenColorIO2v115PackedImageDesc15getYStrideBytesEv@Base 1.0.8
 _ZNK11OpenColorIO2v115PackedImageDesc18getChanStrideBytesEv@Base 1.0.8
 _ZNK11OpenColorIO2v115PackedImageDesc7getDataEv@Base 1.0.8
 _ZNK11OpenColorIO2v115PackedImageDesc8getWidthEv@Base 1.0.8
 _ZNK11OpenColorIO2v115PackedImageDesc9getHeightEv@Base 1.0.8
 _ZNK11OpenColorIO2v115PlanarImageDesc15getYStrideBytesEv@Base 1.0.8
 _ZNK11OpenColorIO2v115PlanarImageDesc8getADataEv@Base 1.0.8
 _ZNK11OpenColorIO2v115PlanarImageDesc8getBDataEv@Base 1.0.8
 _ZNK11OpenColorIO2v115PlanarImageDesc8getGDataEv@Base 1.0.8
 _ZNK11OpenColorIO2v115PlanarImageDesc8getRDataEv@Base 1.0.8
 _ZNK11OpenColorIO2v115PlanarImageDesc8getWidthEv@Base 1.0.8
 _ZNK11OpenColorIO2v115PlanarImageDesc9getHeightEv@Base 1.0.8
 _ZNK11OpenColorIO2v116DisplayTransform10getDisplayEv@Base 1.0.8
 _ZNK11OpenColorIO2v116DisplayTransform11getLinearCCEv@Base 1.0.8
 _ZNK11OpenColorIO2v116DisplayTransform12getDirectionEv@Base 1.0.8
 _ZNK11OpenColorIO2v116DisplayTransform12getDisplayCCEv@Base 1.0.8
 _ZNK11OpenColorIO2v116DisplayTransform14getChannelViewEv@Base 1.0.8
 _ZNK11OpenColorIO2v116DisplayTransform16getColorTimingCCEv@Base 1.0.8
 _ZNK11OpenColorIO2v116DisplayTransform16getLooksOverrideEv@Base 1.0.8
 _ZNK11OpenColorIO2v116DisplayTransform18createEditableCopyEv@Base 1.0.8
 _ZNK11OpenColorIO2v116DisplayTransform22getInputColorSpaceNameEv@Base 1.0.8
 _ZNK11OpenColorIO2v116DisplayTransform23getLooksOverrideEnabledEv@Base 1.0.8
 _ZNK11OpenColorIO2v116DisplayTransform7getViewEv@Base 1.0.8
 _ZNK11OpenColorIO2v117ExponentTransform12getDirectionEv@Base 1.0.8
 _ZNK11OpenColorIO2v117ExponentTransform18createEditableCopyEv@Base 1.0.8
 _ZNK11OpenColorIO2v117ExponentTransform8getValueEPf@Base 1.0.8
 _ZNK11OpenColorIO2v117ProcessorMetadata11getNumFilesEv@Base 1.0.8
 _ZNK11OpenColorIO2v117ProcessorMetadata11getNumLooksEv@Base 1.0.8
 _ZNK11OpenColorIO2v117ProcessorMetadata7getFileEi@Base 1.0.8
 _ZNK11OpenColorIO2v117ProcessorMetadata7getLookEi@Base 1.0.8
 _ZNK11OpenColorIO2v118TruelightTransform10getDisplayEv@Base 1.0.8
 _ZNK11OpenColorIO2v118TruelightTransform10getProfileEv@Base 1.0.8
 _ZNK11OpenColorIO2v118TruelightTransform11getRecorderEv@Base 1.0.8
 _ZNK11OpenColorIO2v118TruelightTransform12getCubeInputEv@Base 1.0.8
 _ZNK11OpenColorIO2v118TruelightTransform12getDirectionEv@Base 1.0.8
 _ZNK11OpenColorIO2v118TruelightTransform13getConfigRootEv@Base 1.0.8
 _ZNK11OpenColorIO2v118TruelightTransform15getInputDisplayEv@Base 1.0.8
 _ZNK11OpenColorIO2v118TruelightTransform15getOutputCameraEv@Base 1.0.8
 _ZNK11OpenColorIO2v118TruelightTransform18createEditableCopyEv@Base 1.0.8
 _ZNK11OpenColorIO2v118TruelightTransform7getLampEv@Base 1.0.8
 _ZNK11OpenColorIO2v118TruelightTransform8getPrintEv@Base 1.0.8
 _ZNK11OpenColorIO2v118TruelightTransform9getCameraEv@Base 1.0.8
 _ZNK11OpenColorIO2v119AllocationTransform10getNumVarsEv@Base 1.0.8
 _ZNK11OpenColorIO2v119AllocationTransform12getDirectionEv@Base 1.0.8
 _ZNK11OpenColorIO2v119AllocationTransform13getAllocationEv@Base 1.0.8
 _ZNK11OpenColorIO2v119AllocationTransform18createEditableCopyEv@Base 1.0.8
 _ZNK11OpenColorIO2v119AllocationTransform7getVarsEPf@Base 1.0.8
 _ZNK11OpenColorIO2v119ColorSpaceTransform12getDirectionEv@Base 1.0.8
 _ZNK11OpenColorIO2v119ColorSpaceTransform18createEditableCopyEv@Base 1.0.8
 _ZNK11OpenColorIO2v119ColorSpaceTransform6getDstEv@Base 1.0.8
 _ZNK11OpenColorIO2v119ColorSpaceTransform6getSrcEv@Base 1.0.8
 _ZNK11OpenColorIO2v14Look12getTransformEv@Base 1.0.8
 _ZNK11OpenColorIO2v14Look15getProcessSpaceEv@Base 1.0.8
 _ZNK11OpenColorIO2v14Look18createEditableCopyEv@Base 1.0.8
 _ZNK11OpenColorIO2v14Look19getInverseTransformEv@Base 1.0.8
 _ZNK11OpenColorIO2v14Look7getNameEv@Base 1.0.8
 _ZNK11OpenColorIO2v15Baker11getCubeSizeEv@Base 1.0.8
 _ZNK11OpenColorIO2v15Baker11getMetadataEv@Base 1.0.8
 _ZNK11OpenColorIO2v15Baker13getInputSpaceEv@Base 1.0.8
 _ZNK11OpenColorIO2v15Baker13getShaperSizeEv@Base 1.0.8
 _ZNK11OpenColorIO2v15Baker14getShaperSpaceEv@Base 1.0.8
 _ZNK11OpenColorIO2v15Baker14getTargetSpaceEv@Base 1.0.8
 _ZNK11OpenColorIO2v15Baker18createEditableCopyEv@Base 1.0.8
 _ZNK11OpenColorIO2v15Baker4bakeERSo@Base 1.0.8
 _ZNK11OpenColorIO2v15Baker7getTypeEv@Base 1.0.8
 _ZNK11OpenColorIO2v15Baker8getLooksEv@Base 1.0.8
 _ZNK11OpenColorIO2v15Baker9getConfigEv@Base 1.0.8
 _ZNK11OpenColorIO2v15Baker9getFormatEv@Base 1.0.8
 _ZNK11OpenColorIO2v16Config10getCacheIDERKNSt3tr110shared_ptrIKNS0_7ContextEEE@Base 1.0.8
 _ZNK11OpenColorIO2v16Config10getCacheIDEv@Base 1.0.8
 _ZNK11OpenColorIO2v16Config10getDisplayEi@Base 1.0.8
 _ZNK11OpenColorIO2v16Config11getNumLooksEv@Base 1.0.8
 _ZNK11OpenColorIO2v16Config11getNumRolesEv@Base 1.0.8
 _ZNK11OpenColorIO2v16Config11getNumViewsEPKc@Base 1.0.8
 _ZNK11OpenColorIO2v16Config11getRoleNameEi@Base 1.0.8
 _ZNK11OpenColorIO2v16Config11sanityCheckEv@Base 1.0.8
 _ZNK11OpenColorIO2v16Config12getProcessorEPKcS3_@Base 1.0.8
 _ZNK11OpenColorIO2v16Config12getProcessorERKNSt3tr110shared_ptrIKNS0_10ColorSpaceEEES8_@Base 1.0.8
 _ZNK11OpenColorIO2v16Config12getProcessorERKNSt3tr110shared_ptrIKNS0_7ContextEEEPKcSA_@Base 1.0.8
 _ZNK11OpenColorIO2v16Config12getProcessorERKNSt3tr110shared_ptrIKNS0_7ContextEEERKNS3_IKNS0_10ColorSpaceEEESD_@Base 1.0.8
 _ZNK11OpenColorIO2v16Config12getProcessorERKNSt3tr110shared_ptrIKNS0_7ContextEEERKNS3_IKNS0_9TransformEEENS0_18TransformDirectionE@Base 1.0.8
 _ZNK11OpenColorIO2v16Config12getProcessorERKNSt3tr110shared_ptrIKNS0_9TransformEEE@Base 1.0.8
 _ZNK11OpenColorIO2v16Config12getProcessorERKNSt3tr110shared_ptrIKNS0_9TransformEEENS0_18TransformDirectionE@Base 1.0.8
 _ZNK11OpenColorIO2v16Config13getColorSpaceEPKc@Base 1.0.8
 _ZNK11OpenColorIO2v16Config13getSearchPathEv@Base 1.0.8
 _ZNK11OpenColorIO2v16Config13getWorkingDirEv@Base 1.0.8
 _ZNK11OpenColorIO2v16Config14getActiveViewsEv@Base 1.0.8
 _ZNK11OpenColorIO2v16Config14getDefaultViewEPKc@Base 1.0.8
 _ZNK11OpenColorIO2v16Config14getDescriptionEv@Base 1.0.8
 _ZNK11OpenColorIO2v16Config14getNumDisplaysEv@Base 1.0.8
 _ZNK11OpenColorIO2v16Config15getDisplayLooksEPKcS3_@Base 1.0.8
 _ZNK11OpenColorIO2v16Config17getActiveDisplaysEv@Base 1.0.8
 _ZNK11OpenColorIO2v16Config17getCurrentContextEv@Base 1.0.8
 _ZNK11OpenColorIO2v16Config17getDefaultDisplayEv@Base 1.0.8
 _ZNK11OpenColorIO2v16Config17getNumColorSpacesEv@Base 1.0.8
 _ZNK11OpenColorIO2v16Config18createEditableCopyEv@Base 1.0.8
 _ZNK11OpenColorIO2v16Config18getLookNameByIndexEi@Base 1.0.8
 _ZNK11OpenColorIO2v16Config19getDefaultLumaCoefsEPf@Base 1.0.8
 _ZNK11OpenColorIO2v16Config21getIndexForColorSpaceEPKc@Base 1.0.8
 _ZNK11OpenColorIO2v16Config22isStrictParsingEnabledEv@Base 1.0.8
 _ZNK11OpenColorIO2v16Config24getColorSpaceNameByIndexEi@Base 1.0.8
 _ZNK11OpenColorIO2v16Config24getDisplayColorSpaceNameEPKcS3_@Base 1.0.8
 _ZNK11OpenColorIO2v16Config25parseColorSpaceFromStringEPKc@Base 1.0.8
 _ZNK11OpenColorIO2v16Config4Impl23getAllIntenalTransformsERSt6vectorINSt3tr110shared_ptrIKNS0_9TransformEEESaIS8_EE@Base 1.0.8
 _ZNK11OpenColorIO2v16Config7getLookEPKc@Base 1.0.8
 _ZNK11OpenColorIO2v16Config7getViewEPKci@Base 1.0.8
 _ZNK11OpenColorIO2v16Config7hasRoleEPKc@Base 1.0.8
 _ZNK11OpenColorIO2v16Config9serializeERSo@Base 1.0.8
 _ZNK11OpenColorIO2v17Context10getCacheIDEv@Base 1.0.8
 _ZNK11OpenColorIO2v17Context12getStringVarEPKc@Base 1.0.8
 _ZNK11OpenColorIO2v17Context13getSearchPathEv@Base 1.0.8
 _ZNK11OpenColorIO2v17Context13getWorkingDirEv@Base 1.0.8
 _ZNK11OpenColorIO2v17Context16getNumStringVarsEv@Base 1.0.8
 _ZNK11OpenColorIO2v17Context16resolveStringVarEPKc@Base 1.0.8
 _ZNK11OpenColorIO2v17Context18createEditableCopyEv@Base 1.0.8
 _ZNK11OpenColorIO2v17Context19resolveFileLocationEPKc@Base 1.0.8
 _ZNK11OpenColorIO2v17Context23getStringVarNameByIndexEi@Base 1.0.8
 _ZNK11OpenColorIO2v19Exception4whatEv@Base 1.0.8
 _ZNK11OpenColorIO2v19Processor11getGpuLut3DEPfRKNS0_13GpuShaderDescE@Base 1.0.8
 _ZNK11OpenColorIO2v19Processor11getMetadataEv@Base 1.0.8
 _ZNK11OpenColorIO2v19Processor13getCpuCacheIDEv@Base 1.0.8
 _ZNK11OpenColorIO2v19Processor16getGpuShaderTextERKNS0_13GpuShaderDescE@Base 1.0.8
 _ZNK11OpenColorIO2v19Processor18getGpuLut3DCacheIDERKNS0_13GpuShaderDescE@Base 1.0.8
 _ZNK11OpenColorIO2v19Processor19hasChannelCrosstalkEv@Base 1.0.8
 _ZNK11OpenColorIO2v19Processor23getGpuShaderTextCacheIDERKNS0_13GpuShaderDescE@Base 1.0.8
 _ZNK11OpenColorIO2v19Processor4Impl11getGpuLut3DEPfRKNS0_13GpuShaderDescE@Base 1.0.8
 _ZNK11OpenColorIO2v19Processor4Impl11getMetadataEv@Base 1.0.8
 _ZNK11OpenColorIO2v19Processor4Impl13getCpuCacheIDEv@Base 1.0.8
 _ZNK11OpenColorIO2v19Processor4Impl16getGpuShaderTextERKNS0_13GpuShaderDescE@Base 1.0.8
 _ZNK11OpenColorIO2v19Processor4Impl17calcGpuShaderTextERSoRKNS0_13GpuShaderDescE@Base 1.0.8
 _ZNK11OpenColorIO2v19Processor4Impl18getGpuLut3DCacheIDERKNS0_13GpuShaderDescE@Base 1.0.8
 _ZNK11OpenColorIO2v19Processor4Impl19hasChannelCrosstalkEv@Base 1.0.8
 _ZNK11OpenColorIO2v19Processor4Impl23getGpuShaderTextCacheIDERKNS0_13GpuShaderDescE@Base 1.0.8
 _ZNK11OpenColorIO2v19Processor4Impl5applyERNS0_9ImageDescE@Base 1.0.8
 _ZNK11OpenColorIO2v19Processor4Impl6isNoOpEv@Base 1.0.8
 _ZNK11OpenColorIO2v19Processor4Impl8applyRGBEPf@Base 1.0.8
 _ZNK11OpenColorIO2v19Processor4Impl9applyRGBAEPf@Base 1.0.8
 _ZNK11OpenColorIO2v19Processor5applyERNS0_9ImageDescE@Base 1.0.8
 _ZNK11OpenColorIO2v19Processor6isNoOpEv@Base 1.0.8
 _ZNK11OpenColorIO2v19Processor8applyRGBEPf@Base 1.0.8
 _ZNK11OpenColorIO2v19Processor9applyRGBAEPf@Base 1.0.8
 _ZNKSt6vectorINSt3tr110shared_ptrIKN11OpenColorIO2v19TransformEEESaIS6_EE12_M_check_lenEmPKc@Base 1.0.8
 _ZNKSt6vectorINSt3tr110shared_ptrIN11OpenColorIO2v110ColorSpaceEEESaIS5_EE12_M_check_lenEmPKc@Base 1.0.8
 _ZNKSt6vectorINSt3tr110shared_ptrIN11OpenColorIO2v14LookEEESaIS5_EE12_M_check_lenEmPKc@Base 1.0.8
 _ZNKSt6vectorISsSaISsEE12_M_check_lenEmPKc@Base 1.0.8
 _ZNKSt6vectorIfSaIfEE12_M_check_lenEmPKc@Base 1.0.8
 _ZNKSt8_Rb_treeISsSt4pairIKSsSsESt10_Select1stIS2_ESt4lessISsESaIS2_EE4findERS1_@Base 1.0.8
 _ZNSs12_S_constructIPcEES0_T_S1_RKSaIcESt20forward_iterator_tag@Base 1.0.8
 _ZNSt11_Deque_baseIN4YAML13EMITTER_STATEESaIS1_EE17_M_initialize_mapEm@Base 1.0.8
 _ZNSt11_Deque_baseIN4YAML13EMITTER_STATEESaIS1_EED1Ev@Base 1.0.8
 _ZNSt11_Deque_baseIN4YAML13EMITTER_STATEESaIS1_EED2Ev@Base 1.0.8
 _ZNSt11_Deque_baseIN4YAML14CollectionType5valueESaIS2_EE17_M_initialize_mapEm@Base 1.0.8
 _ZNSt11_Deque_baseIN4YAML14CollectionType5valueESaIS2_EED1Ev@Base 1.0.8
 _ZNSt11_Deque_baseIN4YAML14CollectionType5valueESaIS2_EED2Ev@Base 1.0.8
 _ZNSt11_Deque_baseIN4YAML14EmitFromEvents5State5valueESaIS3_EE17_M_initialize_mapEm@Base 1.0.8
 _ZNSt11_Deque_baseIN4YAML14EmitFromEvents5State5valueESaIS3_EED1Ev@Base 1.0.8
 _ZNSt11_Deque_baseIN4YAML14EmitFromEvents5State5valueESaIS3_EED2Ev@Base 1.0.8
 _ZNSt11_Deque_baseIN4YAML7Scanner11FLOW_MARKERESaIS2_EE17_M_initialize_mapEm@Base 1.0.8
 _ZNSt11_Deque_baseIN4YAML7Scanner11FLOW_MARKERESaIS2_EED1Ev@Base 1.0.8
 _ZNSt11_Deque_baseIN4YAML7Scanner11FLOW_MARKERESaIS2_EED2Ev@Base 1.0.8
 _ZNSt11_Deque_baseIbSaIbEE17_M_initialize_mapEm@Base 1.0.8
 _ZNSt11_Deque_baseIbSaIbEED1Ev@Base 1.0.8
 _ZNSt11_Deque_baseIbSaIbEED2Ev@Base 1.0.8
 _ZNSt11_Deque_baseIcSaIcEE17_M_initialize_mapEm@Base 1.0.8
 _ZNSt11_Deque_baseIcSaIcEED1Ev@Base 1.0.8
 _ZNSt11_Deque_baseIcSaIcEED2Ev@Base 1.0.8
 _ZNSt11__copy_moveILb0ELb0ESt26random_access_iterator_tagE8__copy_mIPKSsPSsEET0_T_S7_S6_@Base 1.0.8
 _ZNSt11__copy_moveILb0ELb0ESt26random_access_iterator_tagE8__copy_mIPSsS3_EET0_T_S5_S4_@Base 1.0.8
 _ZNSt11__copy_moveILb0ELb1ESt26random_access_iterator_tagE8__copy_mIfEEPT_PKS3_S6_S4_@Base 1.0.8
 _ZNSt12_Destroy_auxILb0EE9__destroyIN9__gnu_cxx17__normal_iteratorIPSsSt6vectorISsSaISsEEEEEEvT_S9_@Base 1.0.8
 _ZNSt12_Destroy_auxILb0EE9__destroyIPNSt3tr110shared_ptrIKN11OpenColorIO2v19TransformEEEEEvT_SA_@Base 1.0.8
 _ZNSt12_Destroy_auxILb0EE9__destroyIPNSt3tr110shared_ptrIN11OpenColorIO2v110ColorSpaceEEEEEvT_S9_@Base 1.0.8
 _ZNSt12_Destroy_auxILb0EE9__destroyIPNSt3tr110shared_ptrIN11OpenColorIO2v14LookEEEEEvT_S9_@Base 1.0.8
 _ZNSt12_Destroy_auxILb0EE9__destroyIPSsEEvT_S3_@Base 1.0.8
 _ZNSt12_Vector_baseINSt3tr110shared_ptrIKN11OpenColorIO2v19TransformEEESaIS6_EED1Ev@Base 1.0.8
 _ZNSt12_Vector_baseINSt3tr110shared_ptrIKN11OpenColorIO2v19TransformEEESaIS6_EED2Ev@Base 1.0.8
 _ZNSt12_Vector_baseINSt3tr110shared_ptrIN11OpenColorIO2v110ColorSpaceEEESaIS5_EED1Ev@Base 1.0.8
 _ZNSt12_Vector_baseINSt3tr110shared_ptrIN11OpenColorIO2v110ColorSpaceEEESaIS5_EED2Ev@Base 1.0.8
 _ZNSt12_Vector_baseINSt3tr110shared_ptrIN11OpenColorIO2v14LookEEESaIS5_EED1Ev@Base 1.0.8
 _ZNSt12_Vector_baseINSt3tr110shared_ptrIN11OpenColorIO2v14LookEEESaIS5_EED2Ev@Base 1.0.8
 _ZNSt12_Vector_baseINSt3tr110shared_ptrIN11OpenColorIO2v19TransformEEESaIS5_EED1Ev@Base 1.0.8
 _ZNSt12_Vector_baseINSt3tr110shared_ptrIN11OpenColorIO2v19TransformEEESaIS5_EED2Ev@Base 1.0.8
 _ZNSt12_Vector_baseISsSaISsEED1Ev@Base 1.0.8
 _ZNSt12_Vector_baseISsSaISsEED2Ev@Base 1.0.8
 _ZNSt12_Vector_baseIfSaIfEED1Ev@Base 1.0.8
 _ZNSt12_Vector_baseIfSaIfEED2Ev@Base 1.0.8
 _ZNSt15basic_stringbufIcSt11char_traitsIcESaIcEED0Ev@Base 1.0.8
 _ZNSt15basic_stringbufIcSt11char_traitsIcESaIcEED1Ev@Base 1.0.8
 _ZNSt15basic_stringbufIcSt11char_traitsIcESaIcEED2Ev@Base 1.0.8
 _ZNSt20__copy_move_backwardILb0ELb0ESt26random_access_iterator_tagE13__copy_move_bIPNSt3tr110shared_ptrIKN11OpenColorIO2v19TransformEEESA_EET0_T_SC_SB_@Base 1.0.8
 _ZNSt20__copy_move_backwardILb0ELb0ESt26random_access_iterator_tagE13__copy_move_bIPNSt3tr110shared_ptrIN11OpenColorIO2v110ColorSpaceEEES9_EET0_T_SB_SA_@Base 1.0.8
 _ZNSt20__copy_move_backwardILb0ELb0ESt26random_access_iterator_tagE13__copy_move_bIPNSt3tr110shared_ptrIN11OpenColorIO2v14LookEEES9_EET0_T_SB_SA_@Base 1.0.8
 _ZNSt20__copy_move_backwardILb0ELb0ESt26random_access_iterator_tagE13__copy_move_bIPSsS3_EET0_T_S5_S4_@Base 1.0.8
 _ZNSt20__uninitialized_copyILb0EE13__uninit_copyIN9__gnu_cxx17__normal_iteratorIPKSsSt6vectorISsSaISsEEEEPSsEET0_T_SC_SB_@Base 1.0.8
 _ZNSt20__uninitialized_copyILb0EE13__uninit_copyIPNSt3tr110shared_ptrIKN11OpenColorIO2v19TransformEEES9_EET0_T_SB_SA_@Base 1.0.8
 _ZNSt20__uninitialized_copyILb0EE13__uninit_copyIPNSt3tr110shared_ptrIN11OpenColorIO2v110ColorSpaceEEES8_EET0_T_SA_S9_@Base 1.0.8
 _ZNSt20__uninitialized_copyILb0EE13__uninit_copyIPNSt3tr110shared_ptrIN11OpenColorIO2v14LookEEES8_EET0_T_SA_S9_@Base 1.0.8
 _ZNSt20__uninitialized_copyILb0EE13__uninit_copyIPSsS2_EET0_T_S4_S3_@Base 1.0.8
 _ZNSt22__uninitialized_fill_nILb0EE15__uninit_fill_nIPSsmSsEEvT_T0_RKT1_@Base 1.0.8
 _ZNSt3mapISsNSt3tr110shared_ptrIN11OpenColorIO2v112CDLTransformEEESt4lessISsESaISt4pairIKSsS5_EEED1Ev@Base 1.0.8
 _ZNSt3mapISsNSt3tr110shared_ptrIN11OpenColorIO2v112CDLTransformEEESt4lessISsESaISt4pairIKSsS5_EEED2Ev@Base 1.0.8
 _ZNSt3mapISsSsSt4lessISsESaISt4pairIKSsSsEEE5eraseESt17_Rb_tree_iteratorIS4_E@Base 1.0.8
 _ZNSt3mapISsSsSt4lessISsESaISt4pairIKSsSsEEED1Ev@Base 1.0.8
 _ZNSt3mapISsSsSt4lessISsESaISt4pairIKSsSsEEED2Ev@Base 1.0.8
 _ZNSt3mapISsSsSt4lessISsESaISt4pairIKSsSsEEEixERS3_@Base 1.0.8
 _ZNSt3setISsSt4lessISsESaISsEE6insertERKSs@Base 1.0.8
 _ZNSt3setISsSt4lessISsESaISsEED1Ev@Base 1.0.8
 _ZNSt3setISsSt4lessISsESaISsEED2Ev@Base 1.0.8
 _ZNSt3tr110shared_ptrIKN11OpenColorIO2v110ColorSpaceEED1Ev@Base 1.0.8
 _ZNSt3tr110shared_ptrIKN11OpenColorIO2v110ColorSpaceEED2Ev@Base 1.0.8
 _ZNSt3tr110shared_ptrIKN11OpenColorIO2v112CDLTransformEED1Ev@Base 1.0.8
 _ZNSt3tr110shared_ptrIKN11OpenColorIO2v112CDLTransformEED2Ev@Base 1.0.8
 _ZNSt3tr110shared_ptrIKN11OpenColorIO2v112LogTransformEEC1ERKS5_@Base 1.0.8
 _ZNSt3tr110shared_ptrIKN11OpenColorIO2v112LogTransformEEC2ERKS5_@Base 1.0.8
 _ZNSt3tr110shared_ptrIKN11OpenColorIO2v112LogTransformEED1Ev@Base 1.0.8
 _ZNSt3tr110shared_ptrIKN11OpenColorIO2v112LogTransformEED2Ev@Base 1.0.8
 _ZNSt3tr110shared_ptrIKN11OpenColorIO2v113FileTransformEEC1ERKS5_@Base 1.0.8
 _ZNSt3tr110shared_ptrIKN11OpenColorIO2v113FileTransformEEC2ERKS5_@Base 1.0.8
 _ZNSt3tr110shared_ptrIKN11OpenColorIO2v113FileTransformEED1Ev@Base 1.0.8
 _ZNSt3tr110shared_ptrIKN11OpenColorIO2v113FileTransformEED2Ev@Base 1.0.8
 _ZNSt3tr110shared_ptrIKN11OpenColorIO2v113LookTransformEEC1ERKS5_@Base 1.0.8
 _ZNSt3tr110shared_ptrIKN11OpenColorIO2v113LookTransformEEC1IKNS2_9TransformEEERKNS0_IT_EENS_18__dynamic_cast_tagE@Base 1.0.8
 _ZNSt3tr110shared_ptrIKN11OpenColorIO2v113LookTransformEEC2ERKS5_@Base 1.0.8
 _ZNSt3tr110shared_ptrIKN11OpenColorIO2v113LookTransformEEC2IKNS2_9TransformEEERKNS0_IT_EENS_18__dynamic_cast_tagE@Base 1.0.8
 _ZNSt3tr110shared_ptrIKN11OpenColorIO2v113LookTransformEED1Ev@Base 1.0.8
 _ZNSt3tr110shared_ptrIKN11OpenColorIO2v113LookTransformEED2Ev@Base 1.0.8
 _ZNSt3tr110shared_ptrIKN11OpenColorIO2v114GroupTransformEEC1ERKS5_@Base 1.0.8
 _ZNSt3tr110shared_ptrIKN11OpenColorIO2v114GroupTransformEEC2ERKS5_@Base 1.0.8
 _ZNSt3tr110shared_ptrIKN11OpenColorIO2v114GroupTransformEED1Ev@Base 1.0.8
 _ZNSt3tr110shared_ptrIKN11OpenColorIO2v114GroupTransformEED2Ev@Base 1.0.8
 _ZNSt3tr110shared_ptrIKN11OpenColorIO2v115MatrixTransformEEC1ERKS5_@Base 1.0.8
 _ZNSt3tr110shared_ptrIKN11OpenColorIO2v115MatrixTransformEEC2ERKS5_@Base 1.0.8
 _ZNSt3tr110shared_ptrIKN11OpenColorIO2v115MatrixTransformEED1Ev@Base 1.0.8
 _ZNSt3tr110shared_ptrIKN11OpenColorIO2v115MatrixTransformEED2Ev@Base 1.0.8
 _ZNSt3tr110shared_ptrIKN11OpenColorIO2v116DisplayTransformEEC1IKNS2_9TransformEEERKNS0_IT_EENS_18__dynamic_cast_tagE@Base 1.0.8
 _ZNSt3tr110shared_ptrIKN11OpenColorIO2v116DisplayTransformEEC2IKNS2_9TransformEEERKNS0_IT_EENS_18__dynamic_cast_tagE@Base 1.0.8
 _ZNSt3tr110shared_ptrIKN11OpenColorIO2v116DisplayTransformEED1Ev@Base 1.0.8
 _ZNSt3tr110shared_ptrIKN11OpenColorIO2v116DisplayTransformEED2Ev@Base 1.0.8
 _ZNSt3tr110shared_ptrIKN11OpenColorIO2v117ExponentTransformEEC1ERKS5_@Base 1.0.8
 _ZNSt3tr110shared_ptrIKN11OpenColorIO2v117ExponentTransformEEC2ERKS5_@Base 1.0.8
 _ZNSt3tr110shared_ptrIKN11OpenColorIO2v117ExponentTransformEED1Ev@Base 1.0.8
 _ZNSt3tr110shared_ptrIKN11OpenColorIO2v117ExponentTransformEED2Ev@Base 1.0.8
 _ZNSt3tr110shared_ptrIKN11OpenColorIO2v118TruelightTransformEEC1ERKS5_@Base 1.0.8
 _ZNSt3tr110shared_ptrIKN11OpenColorIO2v118TruelightTransformEEC2ERKS5_@Base 1.0.8
 _ZNSt3tr110shared_ptrIKN11OpenColorIO2v118TruelightTransformEED1Ev@Base 1.0.8
 _ZNSt3tr110shared_ptrIKN11OpenColorIO2v118TruelightTransformEED2Ev@Base 1.0.8
 _ZNSt3tr110shared_ptrIKN11OpenColorIO2v119AllocationTransformEED1Ev@Base 1.0.8
 _ZNSt3tr110shared_ptrIKN11OpenColorIO2v119AllocationTransformEED2Ev@Base 1.0.8
 _ZNSt3tr110shared_ptrIKN11OpenColorIO2v119ColorSpaceTransformEEC1ERKS5_@Base 1.0.8
 _ZNSt3tr110shared_ptrIKN11OpenColorIO2v119ColorSpaceTransformEEC1IKNS2_9TransformEEERKNS0_IT_EENS_18__dynamic_cast_tagE@Base 1.0.8
 _ZNSt3tr110shared_ptrIKN11OpenColorIO2v119ColorSpaceTransformEEC2ERKS5_@Base 1.0.8
 _ZNSt3tr110shared_ptrIKN11OpenColorIO2v119ColorSpaceTransformEEC2IKNS2_9TransformEEERKNS0_IT_EENS_18__dynamic_cast_tagE@Base 1.0.8
 _ZNSt3tr110shared_ptrIKN11OpenColorIO2v119ColorSpaceTransformEED1Ev@Base 1.0.8
 _ZNSt3tr110shared_ptrIKN11OpenColorIO2v119ColorSpaceTransformEED2Ev@Base 1.0.8
 _ZNSt3tr110shared_ptrIKN11OpenColorIO2v16ConfigEED1Ev@Base 1.0.8
 _ZNSt3tr110shared_ptrIKN11OpenColorIO2v16ConfigEED2Ev@Base 1.0.8
 _ZNSt3tr110shared_ptrIKN11OpenColorIO2v17ContextEED1Ev@Base 1.0.8
 _ZNSt3tr110shared_ptrIKN11OpenColorIO2v17ContextEED2Ev@Base 1.0.8
 _ZNSt3tr110shared_ptrIKN11OpenColorIO2v19ProcessorEED1Ev@Base 1.0.8
 _ZNSt3tr110shared_ptrIKN11OpenColorIO2v19ProcessorEED2Ev@Base 1.0.8
 _ZNSt3tr110shared_ptrIKN11OpenColorIO2v19TransformEED1Ev@Base 1.0.8
 _ZNSt3tr110shared_ptrIKN11OpenColorIO2v19TransformEED2Ev@Base 1.0.8
 _ZNSt3tr110shared_ptrIN11OpenColorIO2v110ColorSpaceEED1Ev@Base 1.0.8
 _ZNSt3tr110shared_ptrIN11OpenColorIO2v110ColorSpaceEED2Ev@Base 1.0.8
 _ZNSt3tr110shared_ptrIN11OpenColorIO2v112CDLTransformEED1Ev@Base 1.0.8
 _ZNSt3tr110shared_ptrIN11OpenColorIO2v112CDLTransformEED2Ev@Base 1.0.8
 _ZNSt3tr110shared_ptrIN11OpenColorIO2v112LogTransformEED1Ev@Base 1.0.8
 _ZNSt3tr110shared_ptrIN11OpenColorIO2v112LogTransformEED2Ev@Base 1.0.8
 _ZNSt3tr110shared_ptrIN11OpenColorIO2v113FileTransformEED1Ev@Base 1.0.8
 _ZNSt3tr110shared_ptrIN11OpenColorIO2v113FileTransformEED2Ev@Base 1.0.8
 _ZNSt3tr110shared_ptrIN11OpenColorIO2v113LookTransformEED1Ev@Base 1.0.8
 _ZNSt3tr110shared_ptrIN11OpenColorIO2v113LookTransformEED2Ev@Base 1.0.8
 _ZNSt3tr110shared_ptrIN11OpenColorIO2v114GroupTransformEED1Ev@Base 1.0.8
 _ZNSt3tr110shared_ptrIN11OpenColorIO2v114GroupTransformEED2Ev@Base 1.0.8
 _ZNSt3tr110shared_ptrIN11OpenColorIO2v115MatrixTransformEED1Ev@Base 1.0.8
 _ZNSt3tr110shared_ptrIN11OpenColorIO2v115MatrixTransformEED2Ev@Base 1.0.8
 _ZNSt3tr110shared_ptrIN11OpenColorIO2v117ExponentTransformEED1Ev@Base 1.0.8
 _ZNSt3tr110shared_ptrIN11OpenColorIO2v117ExponentTransformEED2Ev@Base 1.0.8
 _ZNSt3tr110shared_ptrIN11OpenColorIO2v118TruelightTransformEED1Ev@Base 1.0.8
 _ZNSt3tr110shared_ptrIN11OpenColorIO2v118TruelightTransformEED2Ev@Base 1.0.8
 _ZNSt3tr110shared_ptrIN11OpenColorIO2v119AllocationTransformEED1Ev@Base 1.0.8
 _ZNSt3tr110shared_ptrIN11OpenColorIO2v119AllocationTransformEED2Ev@Base 1.0.8
 _ZNSt3tr110shared_ptrIN11OpenColorIO2v119ColorSpaceTransformEED1Ev@Base 1.0.8
 _ZNSt3tr110shared_ptrIN11OpenColorIO2v119ColorSpaceTransformEED2Ev@Base 1.0.8
 _ZNSt3tr110shared_ptrIN11OpenColorIO2v14LookEED1Ev@Base 1.0.8
 _ZNSt3tr110shared_ptrIN11OpenColorIO2v14LookEED2Ev@Base 1.0.8
 _ZNSt3tr110shared_ptrIN11OpenColorIO2v16ConfigEED1Ev@Base 1.0.8
 _ZNSt3tr110shared_ptrIN11OpenColorIO2v16ConfigEED2Ev@Base 1.0.8
 _ZNSt3tr110shared_ptrIN11OpenColorIO2v17ContextEED1Ev@Base 1.0.8
 _ZNSt3tr110shared_ptrIN11OpenColorIO2v17ContextEED2Ev@Base 1.0.8
 _ZNSt3tr110shared_ptrIN11OpenColorIO2v19ProcessorEED1Ev@Base 1.0.8
 _ZNSt3tr110shared_ptrIN11OpenColorIO2v19ProcessorEED2Ev@Base 1.0.8
 _ZNSt3tr110shared_ptrIN11OpenColorIO2v19TransformEED1Ev@Base 1.0.8
 _ZNSt3tr110shared_ptrIN11OpenColorIO2v19TransformEED2Ev@Base 1.0.8
 _ZNSt3tr110shared_ptrIN11OpenColorIO2v19TransformEEaSINS2_12CDLTransformEEERS4_RKNS0_IT_EE@Base 1.0.8
 _ZNSt3tr110shared_ptrIN11OpenColorIO2v19TransformEEaSINS2_12LogTransformEEERS4_RKNS0_IT_EE@Base 1.0.8
 _ZNSt3tr110shared_ptrIN11OpenColorIO2v19TransformEEaSINS2_13FileTransformEEERS4_RKNS0_IT_EE@Base 1.0.8
 _ZNSt3tr110shared_ptrIN11OpenColorIO2v19TransformEEaSINS2_13LookTransformEEERS4_RKNS0_IT_EE@Base 1.0.8
 _ZNSt3tr110shared_ptrIN11OpenColorIO2v19TransformEEaSINS2_14GroupTransformEEERS4_RKNS0_IT_EE@Base 1.0.8
 _ZNSt3tr110shared_ptrIN11OpenColorIO2v19TransformEEaSINS2_15MatrixTransformEEERS4_RKNS0_IT_EE@Base 1.0.8
 _ZNSt3tr110shared_ptrIN11OpenColorIO2v19TransformEEaSINS2_17ExponentTransformEEERS4_RKNS0_IT_EE@Base 1.0.8
 _ZNSt3tr110shared_ptrIN11OpenColorIO2v19TransformEEaSINS2_18TruelightTransformEEERS4_RKNS0_IT_EE@Base 1.0.8
 _ZNSt3tr110shared_ptrIN11OpenColorIO2v19TransformEEaSINS2_19ColorSpaceTransformEEERS4_RKNS0_IT_EE@Base 1.0.8
 _ZNSt3tr112__shared_ptrIKN11OpenColorIO2v110ColorSpaceELN9__gnu_cxx12_Lock_policyE2EEC1IS3_EERKNS0_IT_LS6_2EEE@Base 1.0.8
 _ZNSt3tr112__shared_ptrIKN11OpenColorIO2v110ColorSpaceELN9__gnu_cxx12_Lock_policyE2EEC2IS3_EERKNS0_IT_LS6_2EEE@Base 1.0.8
 _ZNSt3tr112__shared_ptrIKN11OpenColorIO2v112CDLTransformELN9__gnu_cxx12_Lock_policyE2EEC1ERKS7_@Base 1.0.8
 _ZNSt3tr112__shared_ptrIKN11OpenColorIO2v112CDLTransformELN9__gnu_cxx12_Lock_policyE2EEC1IKNS2_9TransformEEERKNS0_IT_LS6_2EEENS_18__dynamic_cast_tagE@Base 1.0.8
 _ZNSt3tr112__shared_ptrIKN11OpenColorIO2v112CDLTransformELN9__gnu_cxx12_Lock_policyE2EEC2ERKS7_@Base 1.0.8
 _ZNSt3tr112__shared_ptrIKN11OpenColorIO2v112CDLTransformELN9__gnu_cxx12_Lock_policyE2EEC2IKNS2_9TransformEEERKNS0_IT_LS6_2EEENS_18__dynamic_cast_tagE@Base 1.0.8
 _ZNSt3tr112__shared_ptrIKN11OpenColorIO2v112LogTransformELN9__gnu_cxx12_Lock_policyE2EEC1IKNS2_9TransformEEERKNS0_IT_LS6_2EEENS_18__dynamic_cast_tagE@Base 1.0.8
 _ZNSt3tr112__shared_ptrIKN11OpenColorIO2v112LogTransformELN9__gnu_cxx12_Lock_policyE2EEC2IKNS2_9TransformEEERKNS0_IT_LS6_2EEENS_18__dynamic_cast_tagE@Base 1.0.8
 _ZNSt3tr112__shared_ptrIKN11OpenColorIO2v113FileTransformELN9__gnu_cxx12_Lock_policyE2EEC1IKNS2_9TransformEEERKNS0_IT_LS6_2EEENS_18__dynamic_cast_tagE@Base 1.0.8
 _ZNSt3tr112__shared_ptrIKN11OpenColorIO2v113FileTransformELN9__gnu_cxx12_Lock_policyE2EEC2IKNS2_9TransformEEERKNS0_IT_LS6_2EEENS_18__dynamic_cast_tagE@Base 1.0.8
 _ZNSt3tr112__shared_ptrIKN11OpenColorIO2v113LookTransformELN9__gnu_cxx12_Lock_policyE2EEC1IKNS2_9TransformEEERKNS0_IT_LS6_2EEENS_18__dynamic_cast_tagE@Base 1.0.8
 _ZNSt3tr112__shared_ptrIKN11OpenColorIO2v113LookTransformELN9__gnu_cxx12_Lock_policyE2EEC2IKNS2_9TransformEEERKNS0_IT_LS6_2EEENS_18__dynamic_cast_tagE@Base 1.0.8
 _ZNSt3tr112__shared_ptrIKN11OpenColorIO2v114GroupTransformELN9__gnu_cxx12_Lock_policyE2EEC1IKNS2_9TransformEEERKNS0_IT_LS6_2EEENS_18__dynamic_cast_tagE@Base 1.0.8
 _ZNSt3tr112__shared_ptrIKN11OpenColorIO2v114GroupTransformELN9__gnu_cxx12_Lock_policyE2EEC2IKNS2_9TransformEEERKNS0_IT_LS6_2EEENS_18__dynamic_cast_tagE@Base 1.0.8
 _ZNSt3tr112__shared_ptrIKN11OpenColorIO2v115MatrixTransformELN9__gnu_cxx12_Lock_policyE2EEC1IKNS2_9TransformEEERKNS0_IT_LS6_2EEENS_18__dynamic_cast_tagE@Base 1.0.8
 _ZNSt3tr112__shared_ptrIKN11OpenColorIO2v115MatrixTransformELN9__gnu_cxx12_Lock_policyE2EEC2IKNS2_9TransformEEERKNS0_IT_LS6_2EEENS_18__dynamic_cast_tagE@Base 1.0.8
 _ZNSt3tr112__shared_ptrIKN11OpenColorIO2v116DisplayTransformELN9__gnu_cxx12_Lock_policyE2EEC1IKNS2_9TransformEEERKNS0_IT_LS6_2EEENS_18__dynamic_cast_tagE@Base 1.0.8
 _ZNSt3tr112__shared_ptrIKN11OpenColorIO2v116DisplayTransformELN9__gnu_cxx12_Lock_policyE2EEC2IKNS2_9TransformEEERKNS0_IT_LS6_2EEENS_18__dynamic_cast_tagE@Base 1.0.8
 _ZNSt3tr112__shared_ptrIKN11OpenColorIO2v117ExponentTransformELN9__gnu_cxx12_Lock_policyE2EEC1IKNS2_9TransformEEERKNS0_IT_LS6_2EEENS_18__dynamic_cast_tagE@Base 1.0.8
 _ZNSt3tr112__shared_ptrIKN11OpenColorIO2v117ExponentTransformELN9__gnu_cxx12_Lock_policyE2EEC2IKNS2_9TransformEEERKNS0_IT_LS6_2EEENS_18__dynamic_cast_tagE@Base 1.0.8
 _ZNSt3tr112__shared_ptrIKN11OpenColorIO2v118TruelightTransformELN9__gnu_cxx12_Lock_policyE2EEC1IKNS2_9TransformEEERKNS0_IT_LS6_2EEENS_18__dynamic_cast_tagE@Base 1.0.8
 _ZNSt3tr112__shared_ptrIKN11OpenColorIO2v118TruelightTransformELN9__gnu_cxx12_Lock_policyE2EEC2IKNS2_9TransformEEERKNS0_IT_LS6_2EEENS_18__dynamic_cast_tagE@Base 1.0.8
 _ZNSt3tr112__shared_ptrIKN11OpenColorIO2v119AllocationTransformELN9__gnu_cxx12_Lock_policyE2EEC1IKNS2_9TransformEEERKNS0_IT_LS6_2EEENS_18__dynamic_cast_tagE@Base 1.0.8
 _ZNSt3tr112__shared_ptrIKN11OpenColorIO2v119AllocationTransformELN9__gnu_cxx12_Lock_policyE2EEC2IKNS2_9TransformEEERKNS0_IT_LS6_2EEENS_18__dynamic_cast_tagE@Base 1.0.8
 _ZNSt3tr112__shared_ptrIKN11OpenColorIO2v119ColorSpaceTransformELN9__gnu_cxx12_Lock_policyE2EEC1IKNS2_9TransformEEERKNS0_IT_LS6_2EEENS_18__dynamic_cast_tagE@Base 1.0.8
 _ZNSt3tr112__shared_ptrIKN11OpenColorIO2v119ColorSpaceTransformELN9__gnu_cxx12_Lock_policyE2EEC2IKNS2_9TransformEEERKNS0_IT_LS6_2EEENS_18__dynamic_cast_tagE@Base 1.0.8
 _ZNSt3tr112__shared_ptrIKN11OpenColorIO2v14LookELN9__gnu_cxx12_Lock_policyE2EEC1IS3_EERKNS0_IT_LS6_2EEE@Base 1.0.8
 _ZNSt3tr112__shared_ptrIKN11OpenColorIO2v14LookELN9__gnu_cxx12_Lock_policyE2EEC2IS3_EERKNS0_IT_LS6_2EEE@Base 1.0.8
 _ZNSt3tr112__shared_ptrIKN11OpenColorIO2v16ConfigELN9__gnu_cxx12_Lock_policyE2EEC1IS3_EERKNS0_IT_LS6_2EEE@Base 1.0.8
 _ZNSt3tr112__shared_ptrIKN11OpenColorIO2v16ConfigELN9__gnu_cxx12_Lock_policyE2EEC2IS3_EERKNS0_IT_LS6_2EEE@Base 1.0.8
 _ZNSt3tr112__shared_ptrIKN11OpenColorIO2v19TransformELN9__gnu_cxx12_Lock_policyE2EEC1ERKS7_@Base 1.0.8
 _ZNSt3tr112__shared_ptrIKN11OpenColorIO2v19TransformELN9__gnu_cxx12_Lock_policyE2EEC1IS3_EERKNS0_IT_LS6_2EEE@Base 1.0.8
 _ZNSt3tr112__shared_ptrIKN11OpenColorIO2v19TransformELN9__gnu_cxx12_Lock_policyE2EEC2ERKS7_@Base 1.0.8
 _ZNSt3tr112__shared_ptrIKN11OpenColorIO2v19TransformELN9__gnu_cxx12_Lock_policyE2EEC2IS3_EERKNS0_IT_LS6_2EEE@Base 1.0.8
 _ZNSt3tr112__shared_ptrIKN11OpenColorIO2v19TransformELN9__gnu_cxx12_Lock_policyE2EED1Ev@Base 1.0.8
 _ZNSt3tr112__shared_ptrIKN11OpenColorIO2v19TransformELN9__gnu_cxx12_Lock_policyE2EED2Ev@Base 1.0.8
 _ZNSt3tr112__shared_ptrIN11OpenColorIO2v110ColorSpaceELN9__gnu_cxx12_Lock_policyE2EEC1ERKS6_@Base 1.0.8
 _ZNSt3tr112__shared_ptrIN11OpenColorIO2v110ColorSpaceELN9__gnu_cxx12_Lock_policyE2EEC2ERKS6_@Base 1.0.8
 _ZNSt3tr112__shared_ptrIN11OpenColorIO2v110ColorSpaceELN9__gnu_cxx12_Lock_policyE2EED1Ev@Base 1.0.8
 _ZNSt3tr112__shared_ptrIN11OpenColorIO2v110ColorSpaceELN9__gnu_cxx12_Lock_policyE2EED2Ev@Base 1.0.8
 _ZNSt3tr112__shared_ptrIN11OpenColorIO2v14LookELN9__gnu_cxx12_Lock_policyE2EEC1ERKS6_@Base 1.0.8
 _ZNSt3tr112__shared_ptrIN11OpenColorIO2v14LookELN9__gnu_cxx12_Lock_policyE2EEC2ERKS6_@Base 1.0.8
 _ZNSt3tr112__shared_ptrIN11OpenColorIO2v14LookELN9__gnu_cxx12_Lock_policyE2EED1Ev@Base 1.0.8
 _ZNSt3tr112__shared_ptrIN11OpenColorIO2v14LookELN9__gnu_cxx12_Lock_policyE2EED2Ev@Base 1.0.8
 _ZNSt3tr112__shared_ptrIN11OpenColorIO2v19TransformELN9__gnu_cxx12_Lock_policyE2EED1Ev@Base 1.0.8
 _ZNSt3tr112__shared_ptrIN11OpenColorIO2v19TransformELN9__gnu_cxx12_Lock_policyE2EED2Ev@Base 1.0.8
 _ZNSt3tr114__shared_countILN9__gnu_cxx12_Lock_policyE2EEC1IPN11OpenColorIO2v16ConfigEPFvS8_EEET_T0_@Base 1.0.8
 _ZNSt3tr114__shared_countILN9__gnu_cxx12_Lock_policyE2EEC2IPN11OpenColorIO2v16ConfigEPFvS8_EEET_T0_@Base 1.0.8
 _ZNSt3tr114__shared_countILN9__gnu_cxx12_Lock_policyE2EED1Ev@Base 1.0.8
 _ZNSt3tr114__shared_countILN9__gnu_cxx12_Lock_policyE2EED2Ev@Base 1.0.8
 _ZNSt3tr114__shared_countILN9__gnu_cxx12_Lock_policyE2EEaSERKS3_@Base 1.0.8
 _ZNSt3tr116_Sp_counted_baseILN9__gnu_cxx12_Lock_policyE2EE10_M_destroyEv@Base 1.0.8
 _ZNSt3tr116_Sp_counted_baseILN9__gnu_cxx12_Lock_policyE2EE10_M_releaseEv@Base 1.0.8
 _ZNSt3tr116_Sp_counted_baseILN9__gnu_cxx12_Lock_policyE2EED0Ev@Base 1.0.8
 _ZNSt3tr116_Sp_counted_baseILN9__gnu_cxx12_Lock_policyE2EED1Ev@Base 1.0.8
 _ZNSt3tr116_Sp_counted_baseILN9__gnu_cxx12_Lock_policyE2EED2Ev@Base 1.0.8
 _ZNSt3tr121_Sp_counted_base_implIPN11OpenColorIO2v110ColorSpaceEPFvS4_ELN9__gnu_cxx12_Lock_policyE2EE10_M_disposeEv@Base 1.0.8
 _ZNSt3tr121_Sp_counted_base_implIPN11OpenColorIO2v110ColorSpaceEPFvS4_ELN9__gnu_cxx12_Lock_policyE2EE14_M_get_deleterERKSt9type_info@Base 1.0.8
 _ZNSt3tr121_Sp_counted_base_implIPN11OpenColorIO2v110ColorSpaceEPFvS4_ELN9__gnu_cxx12_Lock_policyE2EED0Ev@Base 1.0.8
 _ZNSt3tr121_Sp_counted_base_implIPN11OpenColorIO2v110ColorSpaceEPFvS4_ELN9__gnu_cxx12_Lock_policyE2EED1Ev@Base 1.0.8
 _ZNSt3tr121_Sp_counted_base_implIPN11OpenColorIO2v110ColorSpaceEPFvS4_ELN9__gnu_cxx12_Lock_policyE2EED2Ev@Base 1.0.8
 _ZNSt3tr121_Sp_counted_base_implIPN11OpenColorIO2v112CDLTransformEPFvS4_ELN9__gnu_cxx12_Lock_policyE2EE10_M_disposeEv@Base 1.0.8
 _ZNSt3tr121_Sp_counted_base_implIPN11OpenColorIO2v112CDLTransformEPFvS4_ELN9__gnu_cxx12_Lock_policyE2EE14_M_get_deleterERKSt9type_info@Base 1.0.8
 _ZNSt3tr121_Sp_counted_base_implIPN11OpenColorIO2v112CDLTransformEPFvS4_ELN9__gnu_cxx12_Lock_policyE2EED0Ev@Base 1.0.8
 _ZNSt3tr121_Sp_counted_base_implIPN11OpenColorIO2v112CDLTransformEPFvS4_ELN9__gnu_cxx12_Lock_policyE2EED1Ev@Base 1.0.8
 _ZNSt3tr121_Sp_counted_base_implIPN11OpenColorIO2v112CDLTransformEPFvS4_ELN9__gnu_cxx12_Lock_policyE2EED2Ev@Base 1.0.8
 _ZNSt3tr121_Sp_counted_base_implIPN11OpenColorIO2v112LogTransformEPFvS4_ELN9__gnu_cxx12_Lock_policyE2EE10_M_disposeEv@Base 1.0.8
 _ZNSt3tr121_Sp_counted_base_implIPN11OpenColorIO2v112LogTransformEPFvS4_ELN9__gnu_cxx12_Lock_policyE2EE14_M_get_deleterERKSt9type_info@Base 1.0.8
 _ZNSt3tr121_Sp_counted_base_implIPN11OpenColorIO2v112LogTransformEPFvS4_ELN9__gnu_cxx12_Lock_policyE2EED0Ev@Base 1.0.8
 _ZNSt3tr121_Sp_counted_base_implIPN11OpenColorIO2v112LogTransformEPFvS4_ELN9__gnu_cxx12_Lock_policyE2EED1Ev@Base 1.0.8
 _ZNSt3tr121_Sp_counted_base_implIPN11OpenColorIO2v112LogTransformEPFvS4_ELN9__gnu_cxx12_Lock_policyE2EED2Ev@Base 1.0.8
 _ZNSt3tr121_Sp_counted_base_implIPN11OpenColorIO2v113FileTransformEPFvS4_ELN9__gnu_cxx12_Lock_policyE2EE10_M_disposeEv@Base 1.0.8
 _ZNSt3tr121_Sp_counted_base_implIPN11OpenColorIO2v113FileTransformEPFvS4_ELN9__gnu_cxx12_Lock_policyE2EE14_M_get_deleterERKSt9type_info@Base 1.0.8
 _ZNSt3tr121_Sp_counted_base_implIPN11OpenColorIO2v113FileTransformEPFvS4_ELN9__gnu_cxx12_Lock_policyE2EED0Ev@Base 1.0.8
 _ZNSt3tr121_Sp_counted_base_implIPN11OpenColorIO2v113FileTransformEPFvS4_ELN9__gnu_cxx12_Lock_policyE2EED1Ev@Base 1.0.8
 _ZNSt3tr121_Sp_counted_base_implIPN11OpenColorIO2v113FileTransformEPFvS4_ELN9__gnu_cxx12_Lock_policyE2EED2Ev@Base 1.0.8
 _ZNSt3tr121_Sp_counted_base_implIPN11OpenColorIO2v113LookTransformEPFvS4_ELN9__gnu_cxx12_Lock_policyE2EE10_M_disposeEv@Base 1.0.8
 _ZNSt3tr121_Sp_counted_base_implIPN11OpenColorIO2v113LookTransformEPFvS4_ELN9__gnu_cxx12_Lock_policyE2EE14_M_get_deleterERKSt9type_info@Base 1.0.8
 _ZNSt3tr121_Sp_counted_base_implIPN11OpenColorIO2v113LookTransformEPFvS4_ELN9__gnu_cxx12_Lock_policyE2EED0Ev@Base 1.0.8
 _ZNSt3tr121_Sp_counted_base_implIPN11OpenColorIO2v113LookTransformEPFvS4_ELN9__gnu_cxx12_Lock_policyE2EED1Ev@Base 1.0.8
 _ZNSt3tr121_Sp_counted_base_implIPN11OpenColorIO2v113LookTransformEPFvS4_ELN9__gnu_cxx12_Lock_policyE2EED2Ev@Base 1.0.8
 _ZNSt3tr121_Sp_counted_base_implIPN11OpenColorIO2v114GroupTransformEPFvS4_ELN9__gnu_cxx12_Lock_policyE2EE10_M_disposeEv@Base 1.0.8
 _ZNSt3tr121_Sp_counted_base_implIPN11OpenColorIO2v114GroupTransformEPFvS4_ELN9__gnu_cxx12_Lock_policyE2EE14_M_get_deleterERKSt9type_info@Base 1.0.8
 _ZNSt3tr121_Sp_counted_base_implIPN11OpenColorIO2v114GroupTransformEPFvS4_ELN9__gnu_cxx12_Lock_policyE2EED0Ev@Base 1.0.8
 _ZNSt3tr121_Sp_counted_base_implIPN11OpenColorIO2v114GroupTransformEPFvS4_ELN9__gnu_cxx12_Lock_policyE2EED1Ev@Base 1.0.8
 _ZNSt3tr121_Sp_counted_base_implIPN11OpenColorIO2v114GroupTransformEPFvS4_ELN9__gnu_cxx12_Lock_policyE2EED2Ev@Base 1.0.8
 _ZNSt3tr121_Sp_counted_base_implIPN11OpenColorIO2v115MatrixTransformEPFvS4_ELN9__gnu_cxx12_Lock_policyE2EE10_M_disposeEv@Base 1.0.8
 _ZNSt3tr121_Sp_counted_base_implIPN11OpenColorIO2v115MatrixTransformEPFvS4_ELN9__gnu_cxx12_Lock_policyE2EE14_M_get_deleterERKSt9type_info@Base 1.0.8
 _ZNSt3tr121_Sp_counted_base_implIPN11OpenColorIO2v115MatrixTransformEPFvS4_ELN9__gnu_cxx12_Lock_policyE2EED0Ev@Base 1.0.8
 _ZNSt3tr121_Sp_counted_base_implIPN11OpenColorIO2v115MatrixTransformEPFvS4_ELN9__gnu_cxx12_Lock_policyE2EED1Ev@Base 1.0.8
 _ZNSt3tr121_Sp_counted_base_implIPN11OpenColorIO2v115MatrixTransformEPFvS4_ELN9__gnu_cxx12_Lock_policyE2EED2Ev@Base 1.0.8
 _ZNSt3tr121_Sp_counted_base_implIPN11OpenColorIO2v116DisplayTransformEPFvS4_ELN9__gnu_cxx12_Lock_policyE2EE10_M_disposeEv@Base 1.0.8
 _ZNSt3tr121_Sp_counted_base_implIPN11OpenColorIO2v116DisplayTransformEPFvS4_ELN9__gnu_cxx12_Lock_policyE2EE14_M_get_deleterERKSt9type_info@Base 1.0.8
 _ZNSt3tr121_Sp_counted_base_implIPN11OpenColorIO2v116DisplayTransformEPFvS4_ELN9__gnu_cxx12_Lock_policyE2EED0Ev@Base 1.0.8
 _ZNSt3tr121_Sp_counted_base_implIPN11OpenColorIO2v116DisplayTransformEPFvS4_ELN9__gnu_cxx12_Lock_policyE2EED1Ev@Base 1.0.8
 _ZNSt3tr121_Sp_counted_base_implIPN11OpenColorIO2v116DisplayTransformEPFvS4_ELN9__gnu_cxx12_Lock_policyE2EED2Ev@Base 1.0.8
 _ZNSt3tr121_Sp_counted_base_implIPN11OpenColorIO2v117ExponentTransformEPFvS4_ELN9__gnu_cxx12_Lock_policyE2EE10_M_disposeEv@Base 1.0.8
 _ZNSt3tr121_Sp_counted_base_implIPN11OpenColorIO2v117ExponentTransformEPFvS4_ELN9__gnu_cxx12_Lock_policyE2EE14_M_get_deleterERKSt9type_info@Base 1.0.8
 _ZNSt3tr121_Sp_counted_base_implIPN11OpenColorIO2v117ExponentTransformEPFvS4_ELN9__gnu_cxx12_Lock_policyE2EED0Ev@Base 1.0.8
 _ZNSt3tr121_Sp_counted_base_implIPN11OpenColorIO2v117ExponentTransformEPFvS4_ELN9__gnu_cxx12_Lock_policyE2EED1Ev@Base 1.0.8
 _ZNSt3tr121_Sp_counted_base_implIPN11OpenColorIO2v117ExponentTransformEPFvS4_ELN9__gnu_cxx12_Lock_policyE2EED2Ev@Base 1.0.8
 _ZNSt3tr121_Sp_counted_base_implIPN11OpenColorIO2v117ProcessorMetadataEPFvS4_ELN9__gnu_cxx12_Lock_policyE2EE10_M_disposeEv@Base 1.0.8
 _ZNSt3tr121_Sp_counted_base_implIPN11OpenColorIO2v117ProcessorMetadataEPFvS4_ELN9__gnu_cxx12_Lock_policyE2EE14_M_get_deleterERKSt9type_info@Base 1.0.8
 _ZNSt3tr121_Sp_counted_base_implIPN11OpenColorIO2v117ProcessorMetadataEPFvS4_ELN9__gnu_cxx12_Lock_policyE2EED0Ev@Base 1.0.8
 _ZNSt3tr121_Sp_counted_base_implIPN11OpenColorIO2v117ProcessorMetadataEPFvS4_ELN9__gnu_cxx12_Lock_policyE2EED1Ev@Base 1.0.8
 _ZNSt3tr121_Sp_counted_base_implIPN11OpenColorIO2v117ProcessorMetadataEPFvS4_ELN9__gnu_cxx12_Lock_policyE2EED2Ev@Base 1.0.8
 _ZNSt3tr121_Sp_counted_base_implIPN11OpenColorIO2v118TruelightTransformEPFvS4_ELN9__gnu_cxx12_Lock_policyE2EE10_M_disposeEv@Base 1.0.8
 _ZNSt3tr121_Sp_counted_base_implIPN11OpenColorIO2v118TruelightTransformEPFvS4_ELN9__gnu_cxx12_Lock_policyE2EE14_M_get_deleterERKSt9type_info@Base 1.0.8
 _ZNSt3tr121_Sp_counted_base_implIPN11OpenColorIO2v118TruelightTransformEPFvS4_ELN9__gnu_cxx12_Lock_policyE2EED0Ev@Base 1.0.8
 _ZNSt3tr121_Sp_counted_base_implIPN11OpenColorIO2v118TruelightTransformEPFvS4_ELN9__gnu_cxx12_Lock_policyE2EED1Ev@Base 1.0.8
 _ZNSt3tr121_Sp_counted_base_implIPN11OpenColorIO2v118TruelightTransformEPFvS4_ELN9__gnu_cxx12_Lock_policyE2EED2Ev@Base 1.0.8
 _ZNSt3tr121_Sp_counted_base_implIPN11OpenColorIO2v119AllocationTransformEPFvS4_ELN9__gnu_cxx12_Lock_policyE2EE10_M_disposeEv@Base 1.0.8
 _ZNSt3tr121_Sp_counted_base_implIPN11OpenColorIO2v119AllocationTransformEPFvS4_ELN9__gnu_cxx12_Lock_policyE2EE14_M_get_deleterERKSt9type_info@Base 1.0.8
 _ZNSt3tr121_Sp_counted_base_implIPN11OpenColorIO2v119AllocationTransformEPFvS4_ELN9__gnu_cxx12_Lock_policyE2EED0Ev@Base 1.0.8
 _ZNSt3tr121_Sp_counted_base_implIPN11OpenColorIO2v119AllocationTransformEPFvS4_ELN9__gnu_cxx12_Lock_policyE2EED1Ev@Base 1.0.8
 _ZNSt3tr121_Sp_counted_base_implIPN11OpenColorIO2v119AllocationTransformEPFvS4_ELN9__gnu_cxx12_Lock_policyE2EED2Ev@Base 1.0.8
 _ZNSt3tr121_Sp_counted_base_implIPN11OpenColorIO2v119ColorSpaceTransformEPFvS4_ELN9__gnu_cxx12_Lock_policyE2EE10_M_disposeEv@Base 1.0.8
 _ZNSt3tr121_Sp_counted_base_implIPN11OpenColorIO2v119ColorSpaceTransformEPFvS4_ELN9__gnu_cxx12_Lock_policyE2EE14_M_get_deleterERKSt9type_info@Base 1.0.8
 _ZNSt3tr121_Sp_counted_base_implIPN11OpenColorIO2v119ColorSpaceTransformEPFvS4_ELN9__gnu_cxx12_Lock_policyE2EED0Ev@Base 1.0.8
 _ZNSt3tr121_Sp_counted_base_implIPN11OpenColorIO2v119ColorSpaceTransformEPFvS4_ELN9__gnu_cxx12_Lock_policyE2EED1Ev@Base 1.0.8
 _ZNSt3tr121_Sp_counted_base_implIPN11OpenColorIO2v119ColorSpaceTransformEPFvS4_ELN9__gnu_cxx12_Lock_policyE2EED2Ev@Base 1.0.8
 _ZNSt3tr121_Sp_counted_base_implIPN11OpenColorIO2v14LookEPFvS4_ELN9__gnu_cxx12_Lock_policyE2EE10_M_disposeEv@Base 1.0.8
 _ZNSt3tr121_Sp_counted_base_implIPN11OpenColorIO2v14LookEPFvS4_ELN9__gnu_cxx12_Lock_policyE2EE14_M_get_deleterERKSt9type_info@Base 1.0.8
 _ZNSt3tr121_Sp_counted_base_implIPN11OpenColorIO2v14LookEPFvS4_ELN9__gnu_cxx12_Lock_policyE2EED0Ev@Base 1.0.8
 _ZNSt3tr121_Sp_counted_base_implIPN11OpenColorIO2v14LookEPFvS4_ELN9__gnu_cxx12_Lock_policyE2EED1Ev@Base 1.0.8
 _ZNSt3tr121_Sp_counted_base_implIPN11OpenColorIO2v14LookEPFvS4_ELN9__gnu_cxx12_Lock_policyE2EED2Ev@Base 1.0.8
 _ZNSt3tr121_Sp_counted_base_implIPN11OpenColorIO2v15BakerEPFvS4_ELN9__gnu_cxx12_Lock_policyE2EE10_M_disposeEv@Base 1.0.8
 _ZNSt3tr121_Sp_counted_base_implIPN11OpenColorIO2v15BakerEPFvS4_ELN9__gnu_cxx12_Lock_policyE2EE14_M_get_deleterERKSt9type_info@Base 1.0.8
 _ZNSt3tr121_Sp_counted_base_implIPN11OpenColorIO2v15BakerEPFvS4_ELN9__gnu_cxx12_Lock_policyE2EED0Ev@Base 1.0.8
 _ZNSt3tr121_Sp_counted_base_implIPN11OpenColorIO2v15BakerEPFvS4_ELN9__gnu_cxx12_Lock_policyE2EED1Ev@Base 1.0.8
 _ZNSt3tr121_Sp_counted_base_implIPN11OpenColorIO2v15BakerEPFvS4_ELN9__gnu_cxx12_Lock_policyE2EED2Ev@Base 1.0.8
 _ZNSt3tr121_Sp_counted_base_implIPN11OpenColorIO2v16ConfigEPFvS4_ELN9__gnu_cxx12_Lock_policyE2EE10_M_disposeEv@Base 1.0.8
 _ZNSt3tr121_Sp_counted_base_implIPN11OpenColorIO2v16ConfigEPFvS4_ELN9__gnu_cxx12_Lock_policyE2EE14_M_get_deleterERKSt9type_info@Base 1.0.8
 _ZNSt3tr121_Sp_counted_base_implIPN11OpenColorIO2v16ConfigEPFvS4_ELN9__gnu_cxx12_Lock_policyE2EED0Ev@Base 1.0.8
 _ZNSt3tr121_Sp_counted_base_implIPN11OpenColorIO2v16ConfigEPFvS4_ELN9__gnu_cxx12_Lock_policyE2EED1Ev@Base 1.0.8
 _ZNSt3tr121_Sp_counted_base_implIPN11OpenColorIO2v16ConfigEPFvS4_ELN9__gnu_cxx12_Lock_policyE2EED2Ev@Base 1.0.8
 _ZNSt3tr121_Sp_counted_base_implIPN11OpenColorIO2v17ContextEPFvS4_ELN9__gnu_cxx12_Lock_policyE2EE10_M_disposeEv@Base 1.0.8
 _ZNSt3tr121_Sp_counted_base_implIPN11OpenColorIO2v17ContextEPFvS4_ELN9__gnu_cxx12_Lock_policyE2EE14_M_get_deleterERKSt9type_info@Base 1.0.8
 _ZNSt3tr121_Sp_counted_base_implIPN11OpenColorIO2v17ContextEPFvS4_ELN9__gnu_cxx12_Lock_policyE2EED0Ev@Base 1.0.8
 _ZNSt3tr121_Sp_counted_base_implIPN11OpenColorIO2v17ContextEPFvS4_ELN9__gnu_cxx12_Lock_policyE2EED1Ev@Base 1.0.8
 _ZNSt3tr121_Sp_counted_base_implIPN11OpenColorIO2v17ContextEPFvS4_ELN9__gnu_cxx12_Lock_policyE2EED2Ev@Base 1.0.8
 _ZNSt3tr121_Sp_counted_base_implIPN11OpenColorIO2v19ProcessorEPFvS4_ELN9__gnu_cxx12_Lock_policyE2EE10_M_disposeEv@Base 1.0.8
 _ZNSt3tr121_Sp_counted_base_implIPN11OpenColorIO2v19ProcessorEPFvS4_ELN9__gnu_cxx12_Lock_policyE2EE14_M_get_deleterERKSt9type_info@Base 1.0.8
 _ZNSt3tr121_Sp_counted_base_implIPN11OpenColorIO2v19ProcessorEPFvS4_ELN9__gnu_cxx12_Lock_policyE2EED0Ev@Base 1.0.8
 _ZNSt3tr121_Sp_counted_base_implIPN11OpenColorIO2v19ProcessorEPFvS4_ELN9__gnu_cxx12_Lock_policyE2EED1Ev@Base 1.0.8
 _ZNSt3tr121_Sp_counted_base_implIPN11OpenColorIO2v19ProcessorEPFvS4_ELN9__gnu_cxx12_Lock_policyE2EED2Ev@Base 1.0.8
 _ZNSt4pairIKSsNSt3tr110shared_ptrIN11OpenColorIO2v112CDLTransformEEEED1Ev@Base 1.0.8
 _ZNSt4pairIKSsNSt3tr110shared_ptrIN11OpenColorIO2v112CDLTransformEEEED2Ev@Base 1.0.8
 _ZNSt4pairIKSsSsEC1ERKS1_@Base 1.0.8
 _ZNSt4pairIKSsSsEC1ERS0_S2_@Base 1.0.8
 _ZNSt4pairIKSsSsEC2ERKS1_@Base 1.0.8
 _ZNSt4pairIKSsSsEC2ERS0_S2_@Base 1.0.8
 _ZNSt4pairIKSsSsED1Ev@Base 1.0.8
 _ZNSt4pairIKSsSsED2Ev@Base 1.0.8
 _ZNSt4pairIKSsSt6vectorISsSaISsEEED1Ev@Base 1.0.8
 _ZNSt4pairIKSsSt6vectorISsSaISsEEED2Ev@Base 1.0.8
 _ZNSt5dequeIN4YAML13EMITTER_STATEESaIS1_EE15_M_pop_back_auxEv@Base 1.0.8
 _ZNSt5dequeIN4YAML13EMITTER_STATEESaIS1_EE16_M_push_back_auxERKS1_@Base 1.0.8
 _ZNSt5dequeIN4YAML14CollectionType5valueESaIS2_EE15_M_pop_back_auxEv@Base 1.0.8
 _ZNSt5dequeIN4YAML14CollectionType5valueESaIS2_EE16_M_push_back_auxERKS2_@Base 1.0.8
 _ZNSt5dequeIN4YAML14EmitFromEvents5State5valueESaIS3_EE15_M_pop_back_auxEv@Base 1.0.8
 _ZNSt5dequeIN4YAML14EmitFromEvents5State5valueESaIS3_EE16_M_push_back_auxERKS3_@Base 1.0.8
 _ZNSt5dequeIN4YAML7Scanner11FLOW_MARKERESaIS2_EE15_M_pop_back_auxEv@Base 1.0.8
 _ZNSt5dequeIN4YAML7Scanner11FLOW_MARKERESaIS2_EE16_M_push_back_auxERKS2_@Base 1.0.8
 _ZNSt5dequeIN4YAML7Scanner11FLOW_MARKERESaIS2_EE17_M_reallocate_mapEmb@Base 1.0.8
 _ZNSt5dequeIcSaIcEE16_M_push_back_auxERKc@Base 1.0.8
 _ZNSt6vectorINSt3tr110shared_ptrIKN11OpenColorIO2v19TransformEEESaIS6_EE13_M_insert_auxEN9__gnu_cxx17__normal_iteratorIPS6_S8_EERKS6_@Base 1.0.8
 _ZNSt6vectorINSt3tr110shared_ptrIKN11OpenColorIO2v19TransformEEESaIS6_EED1Ev@Base 1.0.8
 _ZNSt6vectorINSt3tr110shared_ptrIKN11OpenColorIO2v19TransformEEESaIS6_EED2Ev@Base 1.0.8
 _ZNSt6vectorINSt3tr110shared_ptrIN11OpenColorIO2v110ColorSpaceEEESaIS5_EE13_M_insert_auxEN9__gnu_cxx17__normal_iteratorIPS5_S7_EERKS5_@Base 1.0.8
 _ZNSt6vectorINSt3tr110shared_ptrIN11OpenColorIO2v110ColorSpaceEEESaIS5_EE7reserveEm@Base 1.0.8
 _ZNSt6vectorINSt3tr110shared_ptrIN11OpenColorIO2v110ColorSpaceEEESaIS5_EE9push_backERKS5_@Base 1.0.8
 _ZNSt6vectorINSt3tr110shared_ptrIN11OpenColorIO2v110ColorSpaceEEESaIS5_EED1Ev@Base 1.0.8
 _ZNSt6vectorINSt3tr110shared_ptrIN11OpenColorIO2v110ColorSpaceEEESaIS5_EED2Ev@Base 1.0.8
 _ZNSt6vectorINSt3tr110shared_ptrIN11OpenColorIO2v14LookEEESaIS5_EE13_M_insert_auxEN9__gnu_cxx17__normal_iteratorIPS5_S7_EERKS5_@Base 1.0.8
 _ZNSt6vectorINSt3tr110shared_ptrIN11OpenColorIO2v14LookEEESaIS5_EE7reserveEm@Base 1.0.8
 _ZNSt6vectorINSt3tr110shared_ptrIN11OpenColorIO2v14LookEEESaIS5_EE9push_backERKS5_@Base 1.0.8
 _ZNSt6vectorINSt3tr110shared_ptrIN11OpenColorIO2v14LookEEESaIS5_EED1Ev@Base 1.0.8
 _ZNSt6vectorINSt3tr110shared_ptrIN11OpenColorIO2v14LookEEESaIS5_EED2Ev@Base 1.0.8
 _ZNSt6vectorINSt3tr110shared_ptrIN11OpenColorIO2v19TransformEEESaIS5_EE13_M_insert_auxEN9__gnu_cxx17__normal_iteratorIPS5_S7_EERKS5_@Base 1.0.8
 _ZNSt6vectorINSt3tr110shared_ptrIN11OpenColorIO2v19TransformEEESaIS5_EED1Ev@Base 1.0.8
 _ZNSt6vectorINSt3tr110shared_ptrIN11OpenColorIO2v19TransformEEESaIS5_EED2Ev@Base 1.0.8
 _ZNSt6vectorISsSaISsEE13_M_insert_auxEN9__gnu_cxx17__normal_iteratorIPSsS1_EERKSs@Base 1.0.8
 _ZNSt6vectorISsSaISsEE14_M_fill_insertEN9__gnu_cxx17__normal_iteratorIPSsS1_EEmRKSs@Base 1.0.8
 _ZNSt6vectorISsSaISsEE5clearEv@Base 1.0.8
 _ZNSt6vectorISsSaISsEE5eraseEN9__gnu_cxx17__normal_iteratorIPSsS1_EE@Base 1.0.8
 _ZNSt6vectorISsSaISsEE6resizeEmSs@Base 1.0.8
 _ZNSt6vectorISsSaISsEE9push_backERKSs@Base 1.0.8
 _ZNSt6vectorISsSaISsEEC1ERKS1_@Base 1.0.8
 _ZNSt6vectorISsSaISsEEC2ERKS1_@Base 1.0.8
 _ZNSt6vectorISsSaISsEED1Ev@Base 1.0.8
 _ZNSt6vectorISsSaISsEED2Ev@Base 1.0.8
 _ZNSt6vectorISsSaISsEEaSERKS1_@Base 1.0.8
 _ZNSt6vectorIfSaIfEE13_M_insert_auxEN9__gnu_cxx17__normal_iteratorIPfS1_EERKf@Base 1.0.8
 _ZNSt6vectorIfSaIfEE14_M_fill_insertEN9__gnu_cxx17__normal_iteratorIPfS1_EEmRKf@Base 1.0.8
 _ZNSt6vectorIfSaIfEE6resizeEmf@Base 1.0.8
 _ZNSt6vectorIfSaIfEE7reserveEm@Base 1.0.8
 _ZNSt6vectorIfSaIfEEC1EmRKfRKS0_@Base 1.0.8
 _ZNSt6vectorIfSaIfEEC2EmRKfRKS0_@Base 1.0.8
 _ZNSt6vectorIfSaIfEED1Ev@Base 1.0.8
 _ZNSt6vectorIfSaIfEED2Ev@Base 1.0.8
 _ZNSt6vectorIfSaIfEEaSERKS1_@Base 1.0.8
 _ZNSt6vectorIhSaIhEE14_M_fill_insertEN9__gnu_cxx17__normal_iteratorIPhS1_EEmRKh@Base 1.0.8
 _ZNSt6vectorIhSaIhEED1Ev@Base 1.0.8
 _ZNSt6vectorIhSaIhEED2Ev@Base 1.0.8
 _ZNSt6vectorIiSaIiEE13_M_insert_auxEN9__gnu_cxx17__normal_iteratorIPiS1_EERKi@Base 1.0.8
 _ZNSt6vectorIiSaIiEE14_M_fill_insertEN9__gnu_cxx17__normal_iteratorIPiS1_EEmRKi@Base 1.0.8
 _ZNSt8_Rb_treeISsSsSt9_IdentityISsESt4lessISsESaISsEE10_M_insert_EPKSt18_Rb_tree_node_baseS8_RKSs@Base 1.0.8
 _ZNSt8_Rb_treeISsSsSt9_IdentityISsESt4lessISsESaISsEE16_M_insert_uniqueERKSs@Base 1.0.8
 _ZNSt8_Rb_treeISsSsSt9_IdentityISsESt4lessISsESaISsEE8_M_eraseEPSt13_Rb_tree_nodeISsE@Base 1.0.8
 _ZNSt8_Rb_treeISsSt4pairIKSsNSt3tr110shared_ptrIN11OpenColorIO2v112CDLTransformEEEESt10_Select1stIS8_ESt4lessISsESaIS8_EE10_M_insert_EPKSt18_Rb_tree_node_baseSH_RKS8_@Base 1.0.8
 _ZNSt8_Rb_treeISsSt4pairIKSsNSt3tr110shared_ptrIN11OpenColorIO2v112CDLTransformEEEESt10_Select1stIS8_ESt4lessISsESaIS8_EE16_M_insert_uniqueERKS8_@Base 1.0.8
 _ZNSt8_Rb_treeISsSt4pairIKSsNSt3tr110shared_ptrIN11OpenColorIO2v112CDLTransformEEEESt10_Select1stIS8_ESt4lessISsESaIS8_EE17_M_insert_unique_ESt23_Rb_tree_const_iteratorIS8_ERKS8_@Base 1.0.8
 _ZNSt8_Rb_treeISsSt4pairIKSsNSt3tr110shared_ptrIN11OpenColorIO2v112CDLTransformEEEESt10_Select1stIS8_ESt4lessISsESaIS8_EE4findERS1_@Base 1.0.8
 _ZNSt8_Rb_treeISsSt4pairIKSsNSt3tr110shared_ptrIN11OpenColorIO2v112CDLTransformEEEESt10_Select1stIS8_ESt4lessISsESaIS8_EE8_M_eraseEPSt13_Rb_tree_nodeIS8_E@Base 1.0.8
 _ZNSt8_Rb_treeISsSt4pairIKSsSsESt10_Select1stIS2_ESt4lessISsESaIS2_EE10_M_insert_EPKSt18_Rb_tree_node_baseSB_RKS2_@Base 1.0.8
 _ZNSt8_Rb_treeISsSt4pairIKSsSsESt10_Select1stIS2_ESt4lessISsESaIS2_EE12_M_erase_auxESt23_Rb_tree_const_iteratorIS2_E@Base 1.0.8
 _ZNSt8_Rb_treeISsSt4pairIKSsSsESt10_Select1stIS2_ESt4lessISsESaIS2_EE16_M_insert_uniqueERKS2_@Base 1.0.8
 _ZNSt8_Rb_treeISsSt4pairIKSsSsESt10_Select1stIS2_ESt4lessISsESaIS2_EE17_M_insert_unique_ESt23_Rb_tree_const_iteratorIS2_ERKS2_@Base 1.0.8
 _ZNSt8_Rb_treeISsSt4pairIKSsSsESt10_Select1stIS2_ESt4lessISsESaIS2_EE4findERS1_@Base 1.0.8
 _ZNSt8_Rb_treeISsSt4pairIKSsSsESt10_Select1stIS2_ESt4lessISsESaIS2_EE7_M_copyEPKSt13_Rb_tree_nodeIS2_EPSA_@Base 1.0.8
 _ZNSt8_Rb_treeISsSt4pairIKSsSsESt10_Select1stIS2_ESt4lessISsESaIS2_EE8_M_eraseEPSt13_Rb_tree_nodeIS2_E@Base 1.0.8
 _ZNSt8_Rb_treeISsSt4pairIKSsSsESt10_Select1stIS2_ESt4lessISsESaIS2_EEaSERKS8_@Base 1.0.8
 _ZNSt8_Rb_treeISsSt4pairIKSsSt6vectorISsSaISsEEESt10_Select1stIS5_ESt4lessISsESaIS5_EE10_M_insert_EPKSt18_Rb_tree_node_baseSE_RKS5_@Base 1.0.8
 _ZNSt8_Rb_treeISsSt4pairIKSsSt6vectorISsSaISsEEESt10_Select1stIS5_ESt4lessISsESaIS5_EE16_M_insert_uniqueERKS5_@Base 1.0.8
 _ZNSt8_Rb_treeISsSt4pairIKSsSt6vectorISsSaISsEEESt10_Select1stIS5_ESt4lessISsESaIS5_EE17_M_insert_unique_ESt23_Rb_tree_const_iteratorIS5_ERKS5_@Base 1.0.8
 _ZNSt8_Rb_treeISsSt4pairIKSsSt6vectorISsSaISsEEESt10_Select1stIS5_ESt4lessISsESaIS5_EE4findERS1_@Base 1.0.8
 _ZNSt8_Rb_treeISsSt4pairIKSsSt6vectorISsSaISsEEESt10_Select1stIS5_ESt4lessISsESaIS5_EE8_M_eraseEPSt13_Rb_tree_nodeIS5_E@Base 1.0.8
 _ZNSt8_Rb_treeISsSt4pairIKSsSt6vectorIfSaIfEEESt10_Select1stIS5_ESt4lessISsESaIS5_EE10_M_insert_EPKSt18_Rb_tree_node_baseSE_RKS5_@Base 1.0.8
 _ZNSt8_Rb_treeISsSt4pairIKSsSt6vectorIfSaIfEEESt10_Select1stIS5_ESt4lessISsESaIS5_EE16_M_insert_uniqueERKS5_@Base 1.0.8
 _ZNSt8_Rb_treeISsSt4pairIKSsSt6vectorIfSaIfEEESt10_Select1stIS5_ESt4lessISsESaIS5_EE17_M_insert_unique_ESt23_Rb_tree_const_iteratorIS5_ERKS5_@Base 1.0.8
 _ZNSt8_Rb_treeISsSt4pairIKSsSt6vectorIfSaIfEEESt10_Select1stIS5_ESt4lessISsESaIS5_EE4findERS1_@Base 1.0.8
 _ZNSt8_Rb_treeISsSt4pairIKSsSt6vectorIfSaIfEEESt10_Select1stIS5_ESt4lessISsESaIS5_EE8_M_eraseEPSt13_Rb_tree_nodeIS5_E@Base 1.0.8
 _ZNSt8_Rb_treeISsSt4pairIKSsmESt10_Select1stIS2_ESt4lessISsESaIS2_EE10_M_insert_EPKSt18_Rb_tree_node_baseSB_RKS2_@Base 1.0.8
 _ZNSt8_Rb_treeISsSt4pairIKSsmESt10_Select1stIS2_ESt4lessISsESaIS2_EE16_M_insert_uniqueERKS2_@Base 1.0.8
 _ZNSt8_Rb_treeISsSt4pairIKSsmESt10_Select1stIS2_ESt4lessISsESaIS2_EE17_M_insert_unique_ESt23_Rb_tree_const_iteratorIS2_ERKS2_@Base 1.0.8
 _ZNSt8_Rb_treeISsSt4pairIKSsmESt10_Select1stIS2_ESt4lessISsESaIS2_EE8_M_eraseEPSt13_Rb_tree_nodeIS2_E@Base 1.0.8
 _ZSt13copy_backwardIPfS0_ET0_T_S2_S1_@Base 1.0.8
 _ZSt4copyIN9__gnu_cxx17__normal_iteratorIPKfSt6vectorIfSaIfEEEENS1_IPfS6_EEET0_T_SB_SA_@Base 1.0.8
 _ZSt8__fill_aIPSsSsEN9__gnu_cxx11__enable_ifIXntsrSt11__is_scalarIT0_E7__valueEvE6__typeET_S8_RKS4_@Base 1.0.8
 _ZSteqIcEN9__gnu_cxx11__enable_ifIXsrSt9__is_charIT_E7__valueEbE6__typeERKSbIS3_St11char_traitsIS3_ESaIS3_EESC_@Base 1.0.8
 _ZStplIcSt11char_traitsIcESaIcEESbIT_T0_T1_EPKS3_RKS6_@Base 1.0.8
 _ZStplIcSt11char_traitsIcESaIcEESbIT_T0_T1_ERKS6_PKS3_@Base 1.0.8
 _ZStplIcSt11char_traitsIcESaIcEESbIT_T0_T1_ERKS6_S8_@Base 1.0.8
 _ZTIN11OpenColorIO2v112CDLTransformE@Base 1.0.8
 _ZTIN11OpenColorIO2v112LogTransformE@Base 1.0.8
 _ZTIN11OpenColorIO2v113FileTransformE@Base 1.0.8
 _ZTIN11OpenColorIO2v113LookTransformE@Base 1.0.8
 _ZTIN11OpenColorIO2v114GroupTransformE@Base 1.0.8
 _ZTIN11OpenColorIO2v115MatrixTransformE@Base 1.0.8
 _ZTIN11OpenColorIO2v115PackedImageDescE@Base 1.0.8
 _ZTIN11OpenColorIO2v115PlanarImageDescE@Base 1.0.8
 _ZTIN11OpenColorIO2v116DisplayTransformE@Base 1.0.8
 _ZTIN11OpenColorIO2v117ExponentTransformE@Base 1.0.8
 _ZTIN11OpenColorIO2v118TruelightTransformE@Base 1.0.8
 _ZTIN11OpenColorIO2v119AllocationTransformE@Base 1.0.8
 _ZTIN11OpenColorIO2v119ColorSpaceTransformE@Base 1.0.8
 _ZTIN11OpenColorIO2v120ExceptionMissingFileE@Base 1.0.8
 _ZTIN11OpenColorIO2v19ExceptionE@Base 1.0.8
 _ZTIN11OpenColorIO2v19ImageDescE@Base 1.0.8
 _ZTIN11OpenColorIO2v19TransformE@Base 1.0.8
 _ZTINSt3tr111_Mutex_baseILN9__gnu_cxx12_Lock_policyE2EEE@Base 1.0.8
 _ZTINSt3tr116_Sp_counted_baseILN9__gnu_cxx12_Lock_policyE2EEE@Base 1.0.8
 _ZTINSt3tr121_Sp_counted_base_implIPN11OpenColorIO2v110ColorSpaceEPFvS4_ELN9__gnu_cxx12_Lock_policyE2EEE@Base 1.0.8
 _ZTINSt3tr121_Sp_counted_base_implIPN11OpenColorIO2v112CDLTransformEPFvS4_ELN9__gnu_cxx12_Lock_policyE2EEE@Base 1.0.8
 _ZTINSt3tr121_Sp_counted_base_implIPN11OpenColorIO2v112LogTransformEPFvS4_ELN9__gnu_cxx12_Lock_policyE2EEE@Base 1.0.8
 _ZTINSt3tr121_Sp_counted_base_implIPN11OpenColorIO2v113FileTransformEPFvS4_ELN9__gnu_cxx12_Lock_policyE2EEE@Base 1.0.8
 _ZTINSt3tr121_Sp_counted_base_implIPN11OpenColorIO2v113LookTransformEPFvS4_ELN9__gnu_cxx12_Lock_policyE2EEE@Base 1.0.8
 _ZTINSt3tr121_Sp_counted_base_implIPN11OpenColorIO2v114GroupTransformEPFvS4_ELN9__gnu_cxx12_Lock_policyE2EEE@Base 1.0.8
 _ZTINSt3tr121_Sp_counted_base_implIPN11OpenColorIO2v115MatrixTransformEPFvS4_ELN9__gnu_cxx12_Lock_policyE2EEE@Base 1.0.8
 _ZTINSt3tr121_Sp_counted_base_implIPN11OpenColorIO2v116DisplayTransformEPFvS4_ELN9__gnu_cxx12_Lock_policyE2EEE@Base 1.0.8
 _ZTINSt3tr121_Sp_counted_base_implIPN11OpenColorIO2v117ExponentTransformEPFvS4_ELN9__gnu_cxx12_Lock_policyE2EEE@Base 1.0.8
 _ZTINSt3tr121_Sp_counted_base_implIPN11OpenColorIO2v117ProcessorMetadataEPFvS4_ELN9__gnu_cxx12_Lock_policyE2EEE@Base 1.0.8
 _ZTINSt3tr121_Sp_counted_base_implIPN11OpenColorIO2v118TruelightTransformEPFvS4_ELN9__gnu_cxx12_Lock_policyE2EEE@Base 1.0.8
 _ZTINSt3tr121_Sp_counted_base_implIPN11OpenColorIO2v119AllocationTransformEPFvS4_ELN9__gnu_cxx12_Lock_policyE2EEE@Base 1.0.8
 _ZTINSt3tr121_Sp_counted_base_implIPN11OpenColorIO2v119ColorSpaceTransformEPFvS4_ELN9__gnu_cxx12_Lock_policyE2EEE@Base 1.0.8
 _ZTINSt3tr121_Sp_counted_base_implIPN11OpenColorIO2v14LookEPFvS4_ELN9__gnu_cxx12_Lock_policyE2EEE@Base 1.0.8
 _ZTINSt3tr121_Sp_counted_base_implIPN11OpenColorIO2v15BakerEPFvS4_ELN9__gnu_cxx12_Lock_policyE2EEE@Base 1.0.8
 _ZTINSt3tr121_Sp_counted_base_implIPN11OpenColorIO2v16ConfigEPFvS4_ELN9__gnu_cxx12_Lock_policyE2EEE@Base 1.0.8
 _ZTINSt3tr121_Sp_counted_base_implIPN11OpenColorIO2v17ContextEPFvS4_ELN9__gnu_cxx12_Lock_policyE2EEE@Base 1.0.8
 _ZTINSt3tr121_Sp_counted_base_implIPN11OpenColorIO2v19ProcessorEPFvS4_ELN9__gnu_cxx12_Lock_policyE2EEE@Base 1.0.8
 _ZTSN11OpenColorIO2v112CDLTransformE@Base 1.0.8
 _ZTSN11OpenColorIO2v112LogTransformE@Base 1.0.8
 _ZTSN11OpenColorIO2v113FileTransformE@Base 1.0.8
 _ZTSN11OpenColorIO2v113LookTransformE@Base 1.0.8
 _ZTSN11OpenColorIO2v114GroupTransformE@Base 1.0.8
 _ZTSN11OpenColorIO2v115MatrixTransformE@Base 1.0.8
 _ZTSN11OpenColorIO2v115PackedImageDescE@Base 1.0.8
 _ZTSN11OpenColorIO2v115PlanarImageDescE@Base 1.0.8
 _ZTSN11OpenColorIO2v116DisplayTransformE@Base 1.0.8
 _ZTSN11OpenColorIO2v117ExponentTransformE@Base 1.0.8
 _ZTSN11OpenColorIO2v118TruelightTransformE@Base 1.0.8
 _ZTSN11OpenColorIO2v119AllocationTransformE@Base 1.0.8
 _ZTSN11OpenColorIO2v119ColorSpaceTransformE@Base 1.0.8
 _ZTSN11OpenColorIO2v120ExceptionMissingFileE@Base 1.0.8
 _ZTSN11OpenColorIO2v19ExceptionE@Base 1.0.8
 _ZTSN11OpenColorIO2v19ImageDescE@Base 1.0.8
 _ZTSN11OpenColorIO2v19TransformE@Base 1.0.8
 _ZTSNSt3tr111_Mutex_baseILN9__gnu_cxx12_Lock_policyE2EEE@Base 1.0.8
 _ZTSNSt3tr116_Sp_counted_baseILN9__gnu_cxx12_Lock_policyE2EEE@Base 1.0.8
 _ZTSNSt3tr121_Sp_counted_base_implIPN11OpenColorIO2v110ColorSpaceEPFvS4_ELN9__gnu_cxx12_Lock_policyE2EEE@Base 1.0.8
 _ZTSNSt3tr121_Sp_counted_base_implIPN11OpenColorIO2v112CDLTransformEPFvS4_ELN9__gnu_cxx12_Lock_policyE2EEE@Base 1.0.8
 _ZTSNSt3tr121_Sp_counted_base_implIPN11OpenColorIO2v112LogTransformEPFvS4_ELN9__gnu_cxx12_Lock_policyE2EEE@Base 1.0.8
 _ZTSNSt3tr121_Sp_counted_base_implIPN11OpenColorIO2v113FileTransformEPFvS4_ELN9__gnu_cxx12_Lock_policyE2EEE@Base 1.0.8
 _ZTSNSt3tr121_Sp_counted_base_implIPN11OpenColorIO2v113LookTransformEPFvS4_ELN9__gnu_cxx12_Lock_policyE2EEE@Base 1.0.8
 _ZTSNSt3tr121_Sp_counted_base_implIPN11OpenColorIO2v114GroupTransformEPFvS4_ELN9__gnu_cxx12_Lock_policyE2EEE@Base 1.0.8
 _ZTSNSt3tr121_Sp_counted_base_implIPN11OpenColorIO2v115MatrixTransformEPFvS4_ELN9__gnu_cxx12_Lock_policyE2EEE@Base 1.0.8
 _ZTSNSt3tr121_Sp_counted_base_implIPN11OpenColorIO2v116DisplayTransformEPFvS4_ELN9__gnu_cxx12_Lock_policyE2EEE@Base 1.0.8
 _ZTSNSt3tr121_Sp_counted_base_implIPN11OpenColorIO2v117ExponentTransformEPFvS4_ELN9__gnu_cxx12_Lock_policyE2EEE@Base 1.0.8
 _ZTSNSt3tr121_Sp_counted_base_implIPN11OpenColorIO2v117ProcessorMetadataEPFvS4_ELN9__gnu_cxx12_Lock_policyE2EEE@Base 1.0.8
 _ZTSNSt3tr121_Sp_counted_base_implIPN11OpenColorIO2v118TruelightTransformEPFvS4_ELN9__gnu_cxx12_Lock_policyE2EEE@Base 1.0.8
 _ZTSNSt3tr121_Sp_counted_base_implIPN11OpenColorIO2v119AllocationTransformEPFvS4_ELN9__gnu_cxx12_Lock_policyE2EEE@Base 1.0.8
 _ZTSNSt3tr121_Sp_counted_base_implIPN11OpenColorIO2v119ColorSpaceTransformEPFvS4_ELN9__gnu_cxx12_Lock_policyE2EEE@Base 1.0.8
 _ZTSNSt3tr121_Sp_counted_base_implIPN11OpenColorIO2v14LookEPFvS4_ELN9__gnu_cxx12_Lock_policyE2EEE@Base 1.0.8
 _ZTSNSt3tr121_Sp_counted_base_implIPN11OpenColorIO2v15BakerEPFvS4_ELN9__gnu_cxx12_Lock_policyE2EEE@Base 1.0.8
 _ZTSNSt3tr121_Sp_counted_base_implIPN11OpenColorIO2v16ConfigEPFvS4_ELN9__gnu_cxx12_Lock_policyE2EEE@Base 1.0.8
 _ZTSNSt3tr121_Sp_counted_base_implIPN11OpenColorIO2v17ContextEPFvS4_ELN9__gnu_cxx12_Lock_policyE2EEE@Base 1.0.8
 _ZTSNSt3tr121_Sp_counted_base_implIPN11OpenColorIO2v19ProcessorEPFvS4_ELN9__gnu_cxx12_Lock_policyE2EEE@Base 1.0.8
 _ZTSPFvPN11OpenColorIO2v110ColorSpaceEE@Base 1.0.8
 _ZTSPFvPN11OpenColorIO2v112CDLTransformEE@Base 1.0.8
 _ZTSPFvPN11OpenColorIO2v112LogTransformEE@Base 1.0.8
 _ZTSPFvPN11OpenColorIO2v113FileTransformEE@Base 1.0.8
 _ZTSPFvPN11OpenColorIO2v113LookTransformEE@Base 1.0.8
 _ZTSPFvPN11OpenColorIO2v114GroupTransformEE@Base 1.0.8
 _ZTSPFvPN11OpenColorIO2v115MatrixTransformEE@Base 1.0.8
 _ZTSPFvPN11OpenColorIO2v116DisplayTransformEE@Base 1.0.8
 _ZTSPFvPN11OpenColorIO2v117ExponentTransformEE@Base 1.0.8
 _ZTSPFvPN11OpenColorIO2v117ProcessorMetadataEE@Base 1.0.8
 _ZTSPFvPN11OpenColorIO2v118TruelightTransformEE@Base 1.0.8
 _ZTSPFvPN11OpenColorIO2v119AllocationTransformEE@Base 1.0.8
 _ZTSPFvPN11OpenColorIO2v119ColorSpaceTransformEE@Base 1.0.8
 _ZTSPFvPN11OpenColorIO2v14LookEE@Base 1.0.8
 _ZTSPFvPN11OpenColorIO2v15BakerEE@Base 1.0.8
 _ZTSPFvPN11OpenColorIO2v16ConfigEE@Base 1.0.8
 _ZTSPFvPN11OpenColorIO2v17ContextEE@Base 1.0.8
 _ZTSPFvPN11OpenColorIO2v19ProcessorEE@Base 1.0.8
 _ZTVN11OpenColorIO2v112CDLTransformE@Base 1.0.8
 _ZTVN11OpenColorIO2v112LogTransformE@Base 1.0.8
 _ZTVN11OpenColorIO2v113FileTransformE@Base 1.0.8
 _ZTVN11OpenColorIO2v113LookTransformE@Base 1.0.8
 _ZTVN11OpenColorIO2v114GroupTransformE@Base 1.0.8
 _ZTVN11OpenColorIO2v115MatrixTransformE@Base 1.0.8
 _ZTVN11OpenColorIO2v115PackedImageDescE@Base 1.0.8
 _ZTVN11OpenColorIO2v115PlanarImageDescE@Base 1.0.8
 _ZTVN11OpenColorIO2v116DisplayTransformE@Base 1.0.8
 _ZTVN11OpenColorIO2v117ExponentTransformE@Base 1.0.8
 _ZTVN11OpenColorIO2v118TruelightTransformE@Base 1.0.8
 _ZTVN11OpenColorIO2v119AllocationTransformE@Base 1.0.8
 _ZTVN11OpenColorIO2v119ColorSpaceTransformE@Base 1.0.8
 _ZTVN11OpenColorIO2v120ExceptionMissingFileE@Base 1.0.8
 _ZTVN11OpenColorIO2v19ExceptionE@Base 1.0.8
 _ZTVN11OpenColorIO2v19ImageDescE@Base 1.0.8
 _ZTVN11OpenColorIO2v19TransformE@Base 1.0.8
 _ZTVNSt3tr116_Sp_counted_baseILN9__gnu_cxx12_Lock_policyE2EEE@Base 1.0.8
 _ZTVNSt3tr121_Sp_counted_base_implIPN11OpenColorIO2v110ColorSpaceEPFvS4_ELN9__gnu_cxx12_Lock_policyE2EEE@Base 1.0.8
 _ZTVNSt3tr121_Sp_counted_base_implIPN11OpenColorIO2v112CDLTransformEPFvS4_ELN9__gnu_cxx12_Lock_policyE2EEE@Base 1.0.8
 _ZTVNSt3tr121_Sp_counted_base_implIPN11OpenColorIO2v112LogTransformEPFvS4_ELN9__gnu_cxx12_Lock_policyE2EEE@Base 1.0.8
 _ZTVNSt3tr121_Sp_counted_base_implIPN11OpenColorIO2v113FileTransformEPFvS4_ELN9__gnu_cxx12_Lock_policyE2EEE@Base 1.0.8
 _ZTVNSt3tr121_Sp_counted_base_implIPN11OpenColorIO2v113LookTransformEPFvS4_ELN9__gnu_cxx12_Lock_policyE2EEE@Base 1.0.8
 _ZTVNSt3tr121_Sp_counted_base_implIPN11OpenColorIO2v114GroupTransformEPFvS4_ELN9__gnu_cxx12_Lock_policyE2EEE@Base 1.0.8
 _ZTVNSt3tr121_Sp_counted_base_implIPN11OpenColorIO2v115MatrixTransformEPFvS4_ELN9__gnu_cxx12_Lock_policyE2EEE@Base 1.0.8
 _ZTVNSt3tr121_Sp_counted_base_implIPN11OpenColorIO2v116DisplayTransformEPFvS4_ELN9__gnu_cxx12_Lock_policyE2EEE@Base 1.0.8
 _ZTVNSt3tr121_Sp_counted_base_implIPN11OpenColorIO2v117ExponentTransformEPFvS4_ELN9__gnu_cxx12_Lock_policyE2EEE@Base 1.0.8
 _ZTVNSt3tr121_Sp_counted_base_implIPN11OpenColorIO2v117ProcessorMetadataEPFvS4_ELN9__gnu_cxx12_Lock_policyE2EEE@Base 1.0.8
 _ZTVNSt3tr121_Sp_counted_base_implIPN11OpenColorIO2v118TruelightTransformEPFvS4_ELN9__gnu_cxx12_Lock_policyE2EEE@Base 1.0.8
 _ZTVNSt3tr121_Sp_counted_base_implIPN11OpenColorIO2v119AllocationTransformEPFvS4_ELN9__gnu_cxx12_Lock_policyE2EEE@Base 1.0.8
 _ZTVNSt3tr121_Sp_counted_base_implIPN11OpenColorIO2v119ColorSpaceTransformEPFvS4_ELN9__gnu_cxx12_Lock_policyE2EEE@Base 1.0.8
 _ZTVNSt3tr121_Sp_counted_base_implIPN11OpenColorIO2v14LookEPFvS4_ELN9__gnu_cxx12_Lock_policyE2EEE@Base 1.0.8
 _ZTVNSt3tr121_Sp_counted_base_implIPN11OpenColorIO2v15BakerEPFvS4_ELN9__gnu_cxx12_Lock_policyE2EEE@Base 1.0.8
 _ZTVNSt3tr121_Sp_counted_base_implIPN11OpenColorIO2v16ConfigEPFvS4_ELN9__gnu_cxx12_Lock_policyE2EEE@Base 1.0.8
 _ZTVNSt3tr121_Sp_counted_base_implIPN11OpenColorIO2v17ContextEPFvS4_ELN9__gnu_cxx12_Lock_policyE2EEE@Base 1.0.8
 _ZTVNSt3tr121_Sp_counted_base_implIPN11OpenColorIO2v19ProcessorEPFvS4_ELN9__gnu_cxx12_Lock_policyE2EEE@Base 1.0.8
