# SymbolsHelper-Confirmed: 1.6.2 amd64
libakonadiprotocolinternals.so.1 libakonadiprotocolinternals1 #MINVER#
 _ZN7Akonadi10ImapParser10parseBlockERK10QByteArray@Base 1.5.1
 _ZN7Akonadi10ImapParser11parseNumberERK10QByteArrayRxPbi@Base 1.5.1
 _ZN7Akonadi10ImapParser11parseStringERK10QByteArrayR7QStringi@Base 1.5.1
 _ZN7Akonadi10ImapParser11parseStringERK10QByteArrayRS1_i@Base 1.5.1
 _ZN7Akonadi10ImapParser13parseDateTimeERK10QByteArrayR9QDateTimei@Base 1.5.1
 _ZN7Akonadi10ImapParser13parseNextLineERK10QByteArray@Base 1.5.1
 _ZN7Akonadi10ImapParser16parseSequenceSetERK10QByteArrayRNS_7ImapSetEi@Base 1.5.1
 _ZN7Akonadi10ImapParser17parseQuotedStringERK10QByteArrayRS1_i@Base 1.5.1
 _ZN7Akonadi10ImapParser17splitVersionedKeyERK10QByteArrayRS1_Ri@Base 1.5.1
 _ZN7Akonadi10ImapParser18parenthesesBalanceERK10QByteArrayi@Base 1.5.1
 _ZN7Akonadi10ImapParser18stripLeadingSpacesERK10QByteArrayi@Base 1.5.1
 _ZN7Akonadi10ImapParser22parseParenthesizedListERK10QByteArrayR15QVarLengthArrayIS1_Li16EEi@Base 1.5.1
 _ZN7Akonadi10ImapParser22parseParenthesizedListERK10QByteArrayR5QListIS1_Ei@Base 1.5.1
 _ZN7Akonadi10ImapParser4joinERK4QSetI10QByteArrayERKS2_@Base 1.5.1
 _ZN7Akonadi10ImapParser4joinERK5QListI10QByteArrayERKS2_@Base 1.5.1
 _ZN7Akonadi10ImapParser5quoteERK10QByteArray@Base 1.5.1
 _ZN7Akonadi10ImapParser5resetEv@Base 1.5.1
 _ZN7Akonadi10ImapParserC1Ev@Base 1.5.1
 _ZN7Akonadi10ImapParserC2Ev@Base 1.5.1
 _ZN7Akonadi10ImapParserD1Ev@Base 1.5.1
 _ZN7Akonadi10ImapParserD2Ev@Base 1.5.1
 _ZN7Akonadi11XdgBaseDirs14findPluginFileERK7QStringRK11QStringList@Base 1.5.1
 _ZN7Akonadi11XdgBaseDirs14systemPathListEPKc@Base 1.5.1
 _ZN7Akonadi11XdgBaseDirs15findResourceDirEPKcRK7QString@Base 1.5.1
 _ZN7Akonadi11XdgBaseDirs16findResourceFileEPKcRK7QString@Base 1.5.1
 _ZN7Akonadi11XdgBaseDirs17akonadiConfigFileERK7QString6QFlagsINS0_14FileAccessFlagEE@Base 1.5.1
 _ZN7Akonadi11XdgBaseDirs18findExecutableFileERK7QStringRK11QStringList@Base 1.5.1
 _ZN7Akonadi11XdgBaseDirs19findAllResourceDirsEPKcRK7QString@Base 1.5.1
 _ZN7Akonadi11XdgBaseDirs23akonadiServerConfigFileE6QFlagsINS0_14FileAccessFlagEE@Base 1.5.1
 _ZN7Akonadi11XdgBaseDirs27akonadiConnectionConfigFileE6QFlagsINS0_14FileAccessFlagEE@Base 1.5.1
 _ZN7Akonadi11XdgBaseDirs7saveDirEPKcRK7QString@Base 1.5.1
 _ZN7Akonadi11XdgBaseDirs8homePathEPKc@Base 1.5.1
 _ZN7Akonadi11XdgBaseDirsC1Ev@Base 1.5.1
 _ZN7Akonadi11XdgBaseDirsC2Ev@Base 1.5.1
 _ZN7Akonadi11XdgBaseDirsD1Ev@Base 1.5.1
 _ZN7Akonadi11XdgBaseDirsD2Ev@Base 1.5.1
 _ZN7Akonadi12ImapInterval6setEndEx@Base 1.5.1
 _ZN7Akonadi12ImapInterval8setBeginEx@Base 1.5.1
 _ZN7Akonadi12ImapIntervalC1ERKS0_@Base 1.5.1
 _ZN7Akonadi12ImapIntervalC1Ev@Base 1.5.1
 _ZN7Akonadi12ImapIntervalC1Exx@Base 1.5.1
 _ZN7Akonadi12ImapIntervalC2ERKS0_@Base 1.5.1
 _ZN7Akonadi12ImapIntervalC2Ev@Base 1.5.1
 _ZN7Akonadi12ImapIntervalC2Exx@Base 1.5.1
 _ZN7Akonadi12ImapIntervalD1Ev@Base 1.5.1
 _ZN7Akonadi12ImapIntervalD2Ev@Base 1.5.1
 _ZN7Akonadi12ImapIntervalaSERKS0_@Base 1.5.1
 _ZN7Akonadi19NotificationMessage11setMimeTypeERK7QString@Base 1.5.1
 _ZN7Akonadi19NotificationMessage11setRemoteIdERK7QString@Base 1.5.1
 _ZN7Akonadi19NotificationMessage11setResourceERK10QByteArray@Base 1.5.1
 _ZN7Akonadi19NotificationMessage12setItemPartsERK4QSetI10QByteArrayE@Base 1.5.1
 _ZN7Akonadi19NotificationMessage12setOperationENS0_9OperationE@Base 1.5.1
 _ZN7Akonadi19NotificationMessage12setSessionIdERK10QByteArray@Base 1.5.1
 _ZN7Akonadi19NotificationMessage17appendAndCompressER5QListIS0_ERKS0_@Base 1.5.1
 _ZN7Akonadi19NotificationMessage17appendAndCompressER5QListIS0_ERKS0_Pb@Base 1.6.0
 _ZN7Akonadi19NotificationMessage17registerDBusTypesEv@Base 1.5.1
 _ZN7Akonadi19NotificationMessage19setParentCollectionEx@Base 1.5.1
 _ZN7Akonadi19NotificationMessage22setDestinationResourceERK10QByteArray@Base 1.6.0
 _ZN7Akonadi19NotificationMessage23setParentDestCollectionEx@Base 1.5.1
 _ZN7Akonadi19NotificationMessage6setUidEx@Base 1.5.1
 _ZN7Akonadi19NotificationMessage7setTypeENS0_4TypeE@Base 1.5.1
 _ZN7Akonadi19NotificationMessageC1ERKS0_@Base 1.5.1
 _ZN7Akonadi19NotificationMessageC1Ev@Base 1.5.1
 _ZN7Akonadi19NotificationMessageC2ERKS0_@Base 1.5.1
 _ZN7Akonadi19NotificationMessageC2Ev@Base 1.5.1
 _ZN7Akonadi19NotificationMessageD1Ev@Base 1.5.1
 _ZN7Akonadi19NotificationMessageD2Ev@Base 1.5.1
 _ZN7Akonadi19NotificationMessageaSERKS0_@Base 1.5.1
 _ZN7Akonadi7ImapSet3addERK5QListIxE@Base 1.5.1
 _ZN7Akonadi7ImapSet3addERK7QVectorIxE@Base 1.5.1
 _ZN7Akonadi7ImapSet3addERKNS_12ImapIntervalE@Base 1.5.1
 _ZN7Akonadi7ImapSetC1ERKS0_@Base 1.5.1
 _ZN7Akonadi7ImapSetC1Ev@Base 1.5.1
 _ZN7Akonadi7ImapSetC2ERKS0_@Base 1.5.1
 _ZN7Akonadi7ImapSetC2Ev@Base 1.5.1
 _ZN7Akonadi7ImapSetD1Ev@Base 1.5.1
 _ZN7Akonadi7ImapSetD2Ev@Base 1.5.1
 _ZN7Akonadi7ImapSetaSERKS0_@Base 1.5.1
 _ZNK7Akonadi10ImapParser16continuationSizeEv@Base 1.5.1
 _ZNK7Akonadi10ImapParser19continuationStartedEv@Base 1.5.1
 _ZNK7Akonadi10ImapParser3tagEv@Base 1.5.1
 _ZNK7Akonadi10ImapParser4dataEv@Base 1.5.1
 _ZNK7Akonadi12ImapInterval13hasDefinedEndEv@Base 1.5.1
 _ZNK7Akonadi12ImapInterval14toImapSequenceEv@Base 1.5.1
 _ZNK7Akonadi12ImapInterval15hasDefinedBeginEv@Base 1.5.1
 _ZNK7Akonadi12ImapInterval3endEv@Base 1.5.1
 _ZNK7Akonadi12ImapInterval4sizeEv@Base 1.5.1
 _ZNK7Akonadi12ImapInterval5beginEv@Base 1.5.1
 _ZNK7Akonadi12ImapIntervaleqERKS0_@Base 1.5.1
 _ZNK7Akonadi19NotificationMessage16parentCollectionEv@Base 1.5.1
 _ZNK7Akonadi19NotificationMessage19destinationResourceEv@Base 1.6.0
 _ZNK7Akonadi19NotificationMessage20parentDestCollectionEv@Base 1.5.1
 _ZNK7Akonadi19NotificationMessage3uidEv@Base 1.5.1
 _ZNK7Akonadi19NotificationMessage4typeEv@Base 1.5.1
 _ZNK7Akonadi19NotificationMessage8mimeTypeEv@Base 1.5.1
 _ZNK7Akonadi19NotificationMessage8remoteIdEv@Base 1.5.1
 _ZNK7Akonadi19NotificationMessage8resourceEv@Base 1.5.1
 _ZNK7Akonadi19NotificationMessage8toStringEv@Base 1.5.1
 _ZNK7Akonadi19NotificationMessage9itemPartsEv@Base 1.5.1
 _ZNK7Akonadi19NotificationMessage9operationEv@Base 1.5.1
 _ZNK7Akonadi19NotificationMessage9sessionIdEv@Base 1.5.1
 _ZNK7Akonadi19NotificationMessageeqERKS0_@Base 1.5.1
 _ZNK7Akonadi7ImapSet17toImapSequenceSetEv@Base 1.5.1
 _ZNK7Akonadi7ImapSet7isEmptyEv@Base 1.5.1
 _ZNK7Akonadi7ImapSet9intervalsEv@Base 1.5.1
 _ZlsR6QDebugRKN7Akonadi12ImapIntervalE@Base 1.5.1
