# SymbolsHelper-Confirmed: 1.0.2 amd64 hurd-i386 kfreebsd-amd64 kfreebsd-i386
liblastfm_fingerprint.so.1 liblastfm-fingerprint1 #MINVER#
 _ZN6lastfm11Fingerprint6decodeEP13QNetworkReplyPb@Base 1.0.0
 _ZN6lastfm11Fingerprint8generateEPNS_21FingerprintableSourceE@Base 1.0.0
 _ZN6lastfm11FingerprintC1ERKNS_5TrackE@Base 1.0.0
 _ZN6lastfm11FingerprintC2ERKNS_5TrackE@Base 1.0.0
 _ZN6lastfm11FingerprintD1Ev@Base 1.0.0
 _ZN6lastfm11FingerprintD2Ev@Base 1.0.0
 _ZN6lastfm19CompleteFingerprintC1ERKNS_5TrackE@Base 1.0.0
 _ZN6lastfm19CompleteFingerprintC2ERKNS_5TrackE@Base 1.0.0
 _ZN6lastfm19CompleteFingerprintD1Ev@Base 1.0.0
 _ZN6lastfm19CompleteFingerprintD2Ev@Base 1.0.0
 _ZNK6lastfm11Fingerprint2idEv@Base 1.0.0
 _ZNK6lastfm11Fingerprint4dataEv@Base 1.0.0
 _ZNK6lastfm11Fingerprint6submitEv@Base 1.0.0
 (optional=templinst|arch=!amd64 !hurd-i386 !i386 !kfreebsd-amd64 !kfreebsd-i386|subst)_ZNSt11_Deque_baseIN11fingerprint9GroupDataESaIS1_EE17_M_initialize_mapE{size_t}@Base 1.0.0
 (optional=templinst|arch=!amd64 !hurd-i386 !i386 !kfreebsd-amd64 !kfreebsd-i386|subst)_ZNSt5dequeIN11fingerprint9GroupDataESaIS1_EE13_M_insert_auxESt15_Deque_iteratorIS1_RS1_PS1_E{size_t}RKS1_@Base 1.0.0
 (optional=templinst|arch=!amd64 !hurd-i386 !i386 !kfreebsd-amd64 !kfreebsd-i386|subst)_ZNSt5dequeIN11fingerprint9GroupDataESaIS1_EE14_M_fill_insertESt15_Deque_iteratorIS1_RS1_PS1_E{size_t}RKS1_@Base 1.0.0
 (optional=templinst|arch=!amd64 !hurd-i386 !i386 !kfreebsd-amd64 !kfreebsd-i386|subst)_ZNSt5dequeIN11fingerprint9GroupDataESaIS1_EE17_M_reallocate_mapE{size_t}b@Base 1.0.0
 (optional=templinst|arch=!amd64 !hurd-i386 !i386 !kfreebsd-amd64 !kfreebsd-i386|subst)_ZNSt5dequeIN11fingerprint9GroupDataESaIS1_EE23_M_new_elements_at_backE{size_t}@Base 1.0.0
 (optional=templinst|arch=!amd64 !hurd-i386 !i386 !kfreebsd-amd64 !kfreebsd-i386|subst)_ZNSt5dequeIN11fingerprint9GroupDataESaIS1_EE24_M_new_elements_at_frontE{size_t}@Base 1.0.0
 (optional=templinst|arch=!amd64 !hurd-i386 !i386 !kfreebsd-amd64 !kfreebsd-i386)_ZNSt5dequeIN11fingerprint9GroupDataESaIS1_EED1Ev@Base 1.0.0
 (optional=templinst|arch=!amd64 !hurd-i386 !i386 !kfreebsd-amd64 !kfreebsd-i386)_ZNSt5dequeIN11fingerprint9GroupDataESaIS1_EED2Ev@Base 1.0.0
 (optional=templinst|arch=!amd64 !hurd-i386 !i386 !kfreebsd-amd64 !kfreebsd-i386)_ZNSt6vectorIN11fingerprint6FilterESaIS1_EE13_M_insert_auxEN9__gnu_cxx17__normal_iteratorIPS1_S3_EERKS1_@Base 1.0.0
 (optional=templinst|arch=!amd64 !hurd-i386 !i386 !kfreebsd-amd64 !kfreebsd-i386|subst)_ZNSt6vectorIN11fingerprint9GroupDataESaIS1_EE14_M_fill_insertEN9__gnu_cxx17__normal_iteratorIPS1_S3_EE{size_t}RKS1_@Base 1.0.0
 (optional=templinst|arch=powerpc ppc64)_ZNSt6vectorIN11fingerprint9GroupDataESaIS1_EED1Ev@Base 1.0.0
 (optional=templinst|arch=powerpc ppc64)_ZNSt6vectorIN11fingerprint9GroupDataESaIS1_EED2Ev@Base 1.0.0
 (optional=templinst|subst)_ZNSt6vectorIfSaIfEE14_M_fill_insertEN9__gnu_cxx17__normal_iteratorIPfS1_EE{size_t}RKf@Base 1.0.0
 (optional=templinst|arch=amd64 hurd-i386 i386 kfreebsd-amd64 kfreebsd-i386)_ZNSt6vectorIfSaIfEED1Ev@Base 1.0.0
 (optional=templinst|arch=amd64 hurd-i386 i386 kfreebsd-amd64 kfreebsd-i386)_ZNSt6vectorIfSaIfEED2Ev@Base 1.0.0
 (optional=templinst|subst)_ZNSt6vectorIiSaIiEE14_M_fill_insertEN9__gnu_cxx17__normal_iteratorIPiS1_EE{size_t}RKi@Base 1.0.0
 (optional=templinst|arch=amd64 hurd-i386 i386 kfreebsd-amd64 kfreebsd-i386)_ZNSt6vectorIiSaIiEED1Ev@Base 1.0.0
 (optional=templinst|arch=amd64 hurd-i386 i386 kfreebsd-amd64 kfreebsd-i386)_ZNSt6vectorIiSaIiEED2Ev@Base 1.0.0
 (optional=templinst)_ZNSt6vectorIjSaIjEE13_M_insert_auxEN9__gnu_cxx17__normal_iteratorIPjS1_EERKj@Base 1.0.0
 (optional=templinst|subst)_ZNSt6vectorIjSaIjEE14_M_fill_insertEN9__gnu_cxx17__normal_iteratorIPjS1_EE{size_t}RKj@Base 1.0.0
 (optional=templinst|arch=amd64 hurd-i386 i386 kfreebsd-amd64 kfreebsd-i386)_ZNSt6vectorIjSaIjEED1Ev@Base 1.0.0
 (optional=templinst|arch=amd64 hurd-i386 i386 kfreebsd-amd64 kfreebsd-i386)_ZNSt6vectorIjSaIjEED2Ev@Base 1.0.0
 (optional=templinst)_ZNSt8_Rb_treeIjjSt9_IdentityIjESt4lessIjESaIjEE10_M_insert_EPKSt18_Rb_tree_node_baseS8_RKj@Base 1.0.0
 (optional=templinst|arch=!amd64 !hurd-i386 !i386 !kfreebsd-amd64 !kfreebsd-i386)_ZNSt8_Rb_treeIjjSt9_IdentityIjESt4lessIjESaIjEE16_M_insert_uniqueERKj@Base 1.0.0
 (optional=templinst)_ZNSt8_Rb_treeIjjSt9_IdentityIjESt4lessIjESaIjEE8_M_eraseEPSt13_Rb_tree_nodeIjE@Base 1.0.0
 (optional=templinst|arch=!amd64 !hurd-i386 !i386 !kfreebsd-amd64 !kfreebsd-i386)_ZSt13copy_backwardIN11fingerprint9GroupDataEESt15_Deque_iteratorIT_RS3_PS3_ES2_IS3_RKS3_PS7_ESA_S6_@Base 1.0.0
 (optional=templinst|arch=!amd64 !hurd-i386 !i386 !kfreebsd-amd64 !kfreebsd-i386)_ZSt4copyIN11fingerprint9GroupDataEESt15_Deque_iteratorIT_RS3_PS3_ES2_IS3_RKS3_PS7_ESA_S6_@Base 1.0.0
 (optional=templinst|arch=!amd64 !hurd-i386 !i386 !kfreebsd-amd64 !kfreebsd-i386)_ZSt4fillIN11fingerprint9GroupDataEEvRKSt15_Deque_iteratorIT_RS3_PS3_ES8_RKS3_@Base 1.0.0
 _ZTIN6lastfm11Fingerprint5ErrorE@Base 1.0.0
 _ZTSN6lastfm11Fingerprint5ErrorE@Base 1.0.0
 _Zls6QDebugN6lastfm11Fingerprint5ErrorE@Base 1.0.2
