# SymbolsHelper-Confirmed: 4:4.3.4 alpha amd64 armel hppa i386 ia64 kfreebsd-amd64 kfreebsd-i386 mips mipsel powerpc s390 sparc
libkrossui.so.4 libkrossui4 #MINVER#
* Build-Depends-Package: kdelibs5-dev
 _ZN5Kross15ScriptingPlugin11qt_metacallEN11QMetaObject4CallEiPPv@Base 4:4.3.4
 _ZN5Kross15ScriptingPlugin11qt_metacastEPKc@Base 4:4.3.4
 _ZN5Kross15ScriptingPlugin14setDOMDocumentERK12QDomDocumentb@Base 4:4.3.4
 _ZN5Kross15ScriptingPlugin16buildDomDocumentER12QDomDocumentPNS_16ActionCollectionE@Base 4:4.3.4
 _ZN5Kross15ScriptingPlugin16buildDomDocumentERK12QDomDocument@Base 4:4.3.4
 _ZN5Kross15ScriptingPlugin16staticMetaObjectE@Base 4:4.3.4
 _ZN5Kross15ScriptingPlugin21slotEditScriptActionsEv@Base 4:4.3.4
 _ZN5Kross15ScriptingPlugin22slotResetScriptActionsEv@Base 4:4.3.4
 _ZN5Kross15ScriptingPlugin4saveEv@Base 4:4.3.4
 _ZN5Kross15ScriptingPlugin9addObjectEP7QObjectRK7QString@Base 4:4.3.4
 _ZN5Kross15ScriptingPlugin9addObjectEP7QObjectRK7QStringNS_17ChildrenInterface7OptionsE@Base 4:4.3.4
 _ZN5Kross15ScriptingPluginC1EP7QObject@Base 4:4.3.4
 _ZN5Kross15ScriptingPluginC1ERK7QStringS3_S3_P7QObject@Base 4:4.3.4
 _ZN5Kross15ScriptingPluginC2EP7QObject@Base 4:4.3.4
 _ZN5Kross15ScriptingPluginC2ERK7QStringS3_S3_P7QObject@Base 4:4.3.4
 _ZN5Kross15ScriptingPluginD0Ev@Base 4:4.3.4
 _ZN5Kross15ScriptingPluginD1Ev@Base 4:4.3.4
 _ZN5Kross15ScriptingPluginD2Ev@Base 4:4.3.4
 _ZN5Kross20ActionCollectionView10slotRemoveEv@Base 4:4.3.4
 _ZN5Kross20ActionCollectionView11qt_metacallEN11QMetaObject4CallEiPPv@Base 4:4.3.4
 _ZN5Kross20ActionCollectionView11qt_metacastEPKc@Base 4:4.3.4
 _ZN5Kross20ActionCollectionView11setModifiedEb@Base 4:4.3.4
 _ZN5Kross20ActionCollectionView12createButtonEP7QWidgetRK7QString@Base 4:4.3.4
 _ZN5Kross20ActionCollectionView14enabledChangedERK7QString@Base 4:4.3.4
 _ZN5Kross20ActionCollectionView15slotDataChangedERK11QModelIndexS3_@Base 4:4.3.4
 _ZN5Kross20ActionCollectionView16staticMetaObjectE@Base 4:4.3.4
 _ZN5Kross20ActionCollectionView18slotEnabledChangedERK7QString@Base 4:4.3.4
 _ZN5Kross20ActionCollectionView20slotSelectionChangedEv@Base 4:4.3.4
 _ZN5Kross20ActionCollectionView7slotAddEv@Base 4:4.3.4
 _ZN5Kross20ActionCollectionView7slotRunEv@Base 4:4.3.4
 _ZN5Kross20ActionCollectionView8setModelEP18QAbstractItemModel@Base 4:4.3.4
 _ZN5Kross20ActionCollectionView8slotEditEv@Base 4:4.3.4
 _ZN5Kross20ActionCollectionView8slotStopEv@Base 4:4.3.4
 _ZN5Kross20ActionCollectionViewC1EP7QWidget@Base 4:4.3.4
 _ZN5Kross20ActionCollectionViewC2EP7QWidget@Base 4:4.3.4
 _ZN5Kross20ActionCollectionViewD0Ev@Base 4:4.3.4
 _ZN5Kross20ActionCollectionViewD1Ev@Base 4:4.3.4
 _ZN5Kross20ActionCollectionViewD2Ev@Base 4:4.3.4
 _ZN5Kross21ActionCollectionModel10collectionERK11QModelIndex@Base 4:4.3.4
 _ZN5Kross21ActionCollectionModel10insertRowsEiiRK11QModelIndex@Base 4:4.3.4
 _ZN5Kross21ActionCollectionModel10removeRowsEiiRK11QModelIndex@Base 4:4.3.4
 _ZN5Kross21ActionCollectionModel11qt_metacallEN11QMetaObject4CallEiPPv@Base 4:4.3.4
 _ZN5Kross21ActionCollectionModel11qt_metacastEPKc@Base 4:4.3.4
 _ZN5Kross21ActionCollectionModel11slotUpdatedEv@Base 4:4.3.4
 _ZN5Kross21ActionCollectionModel12dropMimeDataEPK9QMimeDataN2Qt10DropActionEiiRK11QModelIndex@Base 4:4.3.4
 _ZN5Kross21ActionCollectionModel13insertColumnsEiiRK11QModelIndex@Base 4:4.3.4
 _ZN5Kross21ActionCollectionModel13removeColumnsEiiRK11QModelIndex@Base 4:4.3.4
 _ZN5Kross21ActionCollectionModel15slotDataChangedEPNS_16ActionCollectionE@Base 4:4.3.4
 _ZN5Kross21ActionCollectionModel15slotDataChangedEPNS_6ActionE@Base 4:4.3.4
 _ZN5Kross21ActionCollectionModel16staticMetaObjectE@Base 4:4.3.4
 _ZN5Kross21ActionCollectionModel17slotActionRemovedEPNS_6ActionEPNS_16ActionCollectionE@Base 4:4.3.4
 _ZN5Kross21ActionCollectionModel18slotActionInsertedEPNS_6ActionEPNS_16ActionCollectionE@Base 4:4.3.4
 _ZN5Kross21ActionCollectionModel21slotActionToBeRemovedEPNS_6ActionEPNS_16ActionCollectionE@Base 4:4.3.4
 _ZN5Kross21ActionCollectionModel21slotCollectionRemovedEPNS_16ActionCollectionES2_@Base 4:4.3.4
 _ZN5Kross21ActionCollectionModel22slotActionToBeInsertedEPNS_6ActionEPNS_16ActionCollectionE@Base 4:4.3.4
 _ZN5Kross21ActionCollectionModel22slotCollectionInsertedEPNS_16ActionCollectionES2_@Base 4:4.3.4
 _ZN5Kross21ActionCollectionModel25slotCollectionToBeRemovedEPNS_16ActionCollectionES2_@Base 4:4.3.4
 _ZN5Kross21ActionCollectionModel26slotCollectionToBeInsertedEPNS_16ActionCollectionES2_@Base 4:4.3.4
 _ZN5Kross21ActionCollectionModel6actionERK11QModelIndex@Base 4:4.3.4
 _ZN5Kross21ActionCollectionModel7setDataERK11QModelIndexRK8QVarianti@Base 4:4.3.4
 _ZN5Kross21ActionCollectionModelC1EP7QObjectPNS_16ActionCollectionENS0_4ModeE@Base 4:4.3.4
 _ZN5Kross21ActionCollectionModelC2EP7QObjectPNS_16ActionCollectionENS0_4ModeE@Base 4:4.3.4
 _ZN5Kross21ActionCollectionModelD0Ev@Base 4:4.3.4
 _ZN5Kross21ActionCollectionModelD1Ev@Base 4:4.3.4
 _ZN5Kross21ActionCollectionModelD2Ev@Base 4:4.3.4
 _ZN5Kross22ActionCollectionEditor6commitEv@Base 4:4.3.4
 _ZN5Kross22ActionCollectionEditor7initGuiEv@Base 4:4.3.4
 _ZN5Kross22ActionCollectionEditor7isValidEv@Base 4:4.3.4
 _ZN5Kross22ActionCollectionEditorC1EPNS_16ActionCollectionEP7QWidget@Base 4:4.3.4
 _ZN5Kross22ActionCollectionEditorC1EPNS_6ActionEP7QWidget@Base 4:4.3.4
 _ZN5Kross22ActionCollectionEditorC2EPNS_16ActionCollectionEP7QWidget@Base 4:4.3.4
 _ZN5Kross22ActionCollectionEditorC2EPNS_6ActionEP7QWidget@Base 4:4.3.4
 _ZN5Kross22ActionCollectionEditorD0Ev@Base 4:4.3.4
 _ZN5Kross22ActionCollectionEditorD1Ev@Base 4:4.3.4
 _ZN5Kross22ActionCollectionEditorD2Ev@Base 4:4.3.4
 _ZN5Kross26ActionCollectionProxyModel14setSourceModelEP18QAbstractItemModel@Base 4:4.3.4
 _ZN5Kross26ActionCollectionProxyModelC1EP7QObjectPNS_21ActionCollectionModelE@Base 4:4.3.4
 _ZN5Kross26ActionCollectionProxyModelC2EP7QObjectPNS_21ActionCollectionModelE@Base 4:4.3.4
 _ZN5Kross26ActionCollectionProxyModelD0Ev@Base 4:4.3.4
 _ZN5Kross26ActionCollectionProxyModelD1Ev@Base 4:4.3.4
 _ZN5Kross26ActionCollectionProxyModelD2Ev@Base 4:4.3.4
 _ZNK5Kross15ScriptingPlugin10metaObjectEv@Base 4:4.3.4
 _ZNK5Kross20ActionCollectionView10isModifiedEv@Base 4:4.3.4
 _ZNK5Kross20ActionCollectionView10metaObjectEv@Base 4:4.3.4
 _ZNK5Kross20ActionCollectionView13itemSelectionEv@Base 4:4.3.4
 _ZNK5Kross20ActionCollectionView16actionCollectionEv@Base 4:4.3.4
 _ZNK5Kross20ActionCollectionView6buttonERK7QString@Base 4:4.3.4
 _ZNK5Kross21ActionCollectionModel10metaObjectEv@Base 4:4.3.4
 _ZNK5Kross21ActionCollectionModel11columnCountERK11QModelIndex@Base 4:4.3.4
 _ZNK5Kross21ActionCollectionModel14indexForActionEPNS_6ActionE@Base 4:4.3.4
 _ZNK5Kross21ActionCollectionModel14rootCollectionEv@Base 4:4.3.4
 _ZNK5Kross21ActionCollectionModel18indexForCollectionEPNS_16ActionCollectionE@Base 4:4.3.4
 _ZNK5Kross21ActionCollectionModel20supportedDropActionsEv@Base 4:4.3.4
 _ZNK5Kross21ActionCollectionModel4dataERK11QModelIndexi@Base 4:4.3.4
 _ZNK5Kross21ActionCollectionModel5flagsERK11QModelIndex@Base 4:4.3.4
 _ZNK5Kross21ActionCollectionModel5indexEiiRK11QModelIndex@Base 4:4.3.4
 _ZNK5Kross21ActionCollectionModel6parentERK11QModelIndex@Base 4:4.3.4
 _ZNK5Kross21ActionCollectionModel8mimeDataERK5QListI11QModelIndexE@Base 4:4.3.4
 _ZNK5Kross21ActionCollectionModel8rowCountERK11QModelIndex@Base 4:4.3.4
 _ZNK5Kross21ActionCollectionModel9mimeTypesEv@Base 4:4.3.4
 _ZNK5Kross21ActionCollectionModel9rowNumberEPNS_16ActionCollectionE@Base 4:4.3.4
 _ZNK5Kross22ActionCollectionEditor10collectionEv@Base 4:4.3.4
 _ZNK5Kross22ActionCollectionEditor11commentEditEv@Base 4:4.3.4
 _ZNK5Kross22ActionCollectionEditor15interpreterEditEv@Base 4:4.3.4
 _ZNK5Kross22ActionCollectionEditor6actionEv@Base 4:4.3.4
 _ZNK5Kross22ActionCollectionEditor8fileEditEv@Base 4:4.3.4
 _ZNK5Kross22ActionCollectionEditor8iconEditEv@Base 4:4.3.4
 _ZNK5Kross22ActionCollectionEditor8nameEditEv@Base 4:4.3.4
 _ZNK5Kross22ActionCollectionEditor8textEditEv@Base 4:4.3.4
 _ZNK5Kross26ActionCollectionProxyModel16filterAcceptsRowEiRK11QModelIndex@Base 4:4.3.4
 _ZTIN5Kross15ScriptingPluginE@Base 4:4.3.4
 _ZTIN5Kross20ActionCollectionViewE@Base 4:4.3.4
 _ZTIN5Kross21ActionCollectionModelE@Base 4:4.3.4
 _ZTIN5Kross22ActionCollectionEditorE@Base 4:4.3.4
 _ZTIN5Kross26ActionCollectionProxyModelE@Base 4:4.3.4
 _ZTSN5Kross15ScriptingPluginE@Base 4:4.3.4
 _ZTSN5Kross20ActionCollectionViewE@Base 4:4.3.4
 _ZTSN5Kross21ActionCollectionModelE@Base 4:4.3.4
 _ZTSN5Kross22ActionCollectionEditorE@Base 4:4.3.4
 _ZTSN5Kross26ActionCollectionProxyModelE@Base 4:4.3.4
 _ZTTN5Kross15ScriptingPluginE@Base 4:4.3.4
 _ZTVN5Kross15ScriptingPluginE@Base 4:4.3.4
 _ZTVN5Kross20ActionCollectionViewE@Base 4:4.3.4
 _ZTVN5Kross21ActionCollectionModelE@Base 4:4.3.4
 _ZTVN5Kross22ActionCollectionEditorE@Base 4:4.3.4
 _ZTVN5Kross26ActionCollectionProxyModelE@Base 4:4.3.4
 (c++)"construction vtable for KParts::Plugin-in-Kross::ScriptingPlugin@Base" 4:4.3.4
 (c++)"non-virtual thunk to Kross::ActionCollectionEditor::~ActionCollectionEditor()@Base" 4:4.3.4
 (c++)"non-virtual thunk to Kross::ActionCollectionView::~ActionCollectionView()@Base" 4:4.3.4
 (c++)"virtual thunk to Kross::ScriptingPlugin::setDOMDocument(QDomDocument const&, bool)@Base" 4:4.3.4
 (c++)"virtual thunk to Kross::ScriptingPlugin::~ScriptingPlugin()@Base" 4:4.3.4
