# SymbolsHelper-Confirmed: 4:4.7.0 amd64
libknewstuff3.so.4 libknewstuff3-4 #MINVER#
* Build-Depends-Package: kdelibs5-dev
 _ZN4KNS312UploadDialog10setVersionERK7QString@Base 4:4.4.95
 _ZN4KNS312UploadDialog11qt_metacallEN11QMetaObject4CallEiPPv@Base 4:4.4.0
 _ZN4KNS312UploadDialog11qt_metacastEPKc@Base 4:4.4.0
 _ZN4KNS312UploadDialog12setChangelogERK7QString@Base 4:4.4.95
 _ZN4KNS312UploadDialog13setUploadFileERK4KUrl@Base 4:4.4.0
 _ZN4KNS312UploadDialog13setUploadNameERK7QString@Base 4:4.4.0
 _ZN4KNS312UploadDialog14selectCategoryERK7QString@Base 4:4.4.95
 _ZN4KNS312UploadDialog14setDescriptionERK7QString@Base 4:4.4.95
 _ZN4KNS312UploadDialog14setPriceReasonERK7QString@Base 4:4.4.95
 _ZN4KNS312UploadDialog15setPriceEnabledEb@Base 4:4.4.95
 _ZN4KNS312UploadDialog16staticMetaObjectE@Base 4:4.4.0
 _ZN4KNS312UploadDialog19setPreviewImageFileEjRK4KUrl@Base 4:4.5.85
 _ZN4KNS312UploadDialog4initERK7QString@Base 4:4.4.0
 _ZN4KNS312UploadDialog6acceptEv@Base 4:4.4.0
 _ZN4KNS312UploadDialog7Private11_k_backPageEv@Base 4:4.4.95
 _ZN4KNS312UploadDialog7Private11_k_nextPageEv@Base 4:4.4.95
 _ZN4KNS312UploadDialog7Private11_k_showPageEi@Base 4:4.4.95
 _ZN4KNS312UploadDialog7Private13_k_updatePageEv@Base 4:4.4.95
 _ZN4KNS312UploadDialog7Private14_k_startUploadEv@Base 4:4.4.95
 _ZN4KNS312UploadDialog7Private15_k_contentAddedEPN6Attica7BaseJobE@Base 4:4.4.95
 _ZN4KNS312UploadDialog7Private15_k_priceToggledEb@Base 4:4.4.95
 _ZN4KNS312UploadDialog7Private16_k_previewLoadedEiRK6QImage@Base 4:4.4.95
 _ZN4KNS312UploadDialog7Private17_k_changePreview1Ev@Base 4:4.4.95
 _ZN4KNS312UploadDialog7Private17_k_changePreview2Ev@Base 4:4.4.95
 _ZN4KNS312UploadDialog7Private17_k_changePreview3Ev@Base 4:4.4.95
 _ZN4KNS312UploadDialog7Private17_k_currencyLoadedERK7QString@Base 4:4.4.95
 _ZN4KNS312UploadDialog7Private17_k_licensesLoadedERK5QListIN6Attica7LicenseEE@Base 4:4.4.95
 _ZN4KNS312UploadDialog7Private18_k_providerChangedERK7QString@Base 4:4.4.95
 _ZN4KNS312UploadDialog7Private18_k_providersLoadedERK11QStringList@Base 4:4.4.95
 _ZN4KNS312UploadDialog7Private18uploadFileFinishedEv@Base 4:4.4.95
 _ZN4KNS312UploadDialog7Private19_k_categoriesLoadedERK5QListIN6Attica8CategoryEE@Base 4:4.4.95
 _ZN4KNS312UploadDialog7Private20_k_detailsLinkLoadedERK4QUrl@Base 4:4.4.95
 _ZN4KNS312UploadDialog7Private21_k_fileUploadFinishedEPN6Attica7BaseJobE@Base 4:4.4.95
 _ZN4KNS312UploadDialog7Private24_k_updateContentsToggledEb@Base 4:4.4.95
 _ZN4KNS312UploadDialog7Private24_k_updatedContentFetchedERKN6Attica7ContentE@Base 4:4.4.95
 _ZN4KNS312UploadDialog7Private25_k_preview1UploadFinishedEPN6Attica7BaseJobE@Base 4:4.4.95
 _ZN4KNS312UploadDialog7Private25_k_preview2UploadFinishedEPN6Attica7BaseJobE@Base 4:4.4.95
 _ZN4KNS312UploadDialog7Private25_k_preview3UploadFinishedEPN6Attica7BaseJobE@Base 4:4.4.95
 _ZN4KNS312UploadDialog7Private27_k_checkCredentialsFinishedEb@Base 4:4.4.95
 _ZN4KNS312UploadDialog7Private29_k_contentByCurrentUserLoadedERK5QListIN6Attica7ContentEE@Base 4:4.4.95
 _ZN4KNS312UploadDialog7Private4initEv@Base 4:4.4.95
 _ZN4KNS312UploadDialog7Private7setBusyERK7QString@Base 4:4.4.95
 _ZN4KNS312UploadDialog7Private7setIdleERK7QString@Base 4:4.4.95
 _ZN4KNS312UploadDialog7Private8doUploadERK7QStringRK4KUrl@Base 4:4.4.95
 _ZN4KNS312UploadDialog8setPriceEd@Base 4:4.4.95
 _ZN4KNS312UploadDialogC1EP7QWidget@Base 4:4.4.0
 _ZN4KNS312UploadDialogC1ERK7QStringP7QWidget@Base 4:4.4.0
 _ZN4KNS312UploadDialogC2EP7QWidget@Base 4:4.4.0
 _ZN4KNS312UploadDialogC2ERK7QStringP7QWidget@Base 4:4.4.0
 _ZN4KNS312UploadDialogD0Ev@Base 4:4.4.0
 _ZN4KNS312UploadDialogD1Ev@Base 4:4.4.0
 _ZN4KNS312UploadDialogD2Ev@Base 4:4.4.0
 _ZN4KNS314DownloadDialog11qt_metacallEN11QMetaObject4CallEiPPv@Base 4:4.4.0
 _ZN4KNS314DownloadDialog11qt_metacastEPKc@Base 4:4.4.0
 _ZN4KNS314DownloadDialog14changedEntriesEv@Base 4:4.4.0
 _ZN4KNS314DownloadDialog16installedEntriesEv@Base 4:4.4.0
 _ZN4KNS314DownloadDialog16staticMetaObjectE@Base 4:4.4.0
 _ZN4KNS314DownloadDialog4initERK7QString@Base 4:4.4.0
 _ZN4KNS314DownloadDialogC1EP7QWidget@Base 4:4.4.0
 _ZN4KNS314DownloadDialogC1ERK7QStringP7QWidget@Base 4:4.4.0
 _ZN4KNS314DownloadDialogC2EP7QWidget@Base 4:4.4.0
 _ZN4KNS314DownloadDialogC2ERK7QStringP7QWidget@Base 4:4.4.0
 _ZN4KNS314DownloadDialogD0Ev@Base 4:4.4.0
 _ZN4KNS314DownloadDialogD1Ev@Base 4:4.4.0
 _ZN4KNS314DownloadDialogD2Ev@Base 4:4.4.0
 _ZN4KNS314DownloadWidget11qt_metacallEN11QMetaObject4CallEiPPv@Base 4:4.4.95
 _ZN4KNS314DownloadWidget11qt_metacastEPKc@Base 4:4.4.95
 _ZN4KNS314DownloadWidget14changedEntriesEv@Base 4:4.4.95
 _ZN4KNS314DownloadWidget16installedEntriesEv@Base 4:4.4.95
 _ZN4KNS314DownloadWidget16staticMetaObjectE@Base 4:4.4.95
 _ZN4KNS314DownloadWidget4initERK7QString@Base 4:4.4.95
 _ZN4KNS314DownloadWidgetC1EP7QWidget@Base 4:4.4.95
 _ZN4KNS314DownloadWidgetC1ERK7QStringP7QWidget@Base 4:4.4.95
 _ZN4KNS314DownloadWidgetC2EP7QWidget@Base 4:4.4.95
 _ZN4KNS314DownloadWidgetC2ERK7QStringP7QWidget@Base 4:4.4.95
 _ZN4KNS314DownloadWidgetD0Ev@Base 4:4.4.95
 _ZN4KNS314DownloadWidgetD1Ev@Base 4:4.4.95
 _ZN4KNS314DownloadWidgetD2Ev@Base 4:4.4.95
 _ZN4KNS314standardActionERK7QStringPK7QObjectPKcP17KActionCollectionS7_@Base 4:4.4.0
 _ZN4KNS315DownloadManager11qt_metacallEN11QMetaObject4CallEiPPv@Base 4:4.4.95
 _ZN4KNS315DownloadManager11qt_metacastEPKc@Base 4:4.4.95
 _ZN4KNS315DownloadManager12installEntryERKNS_5EntryE@Base 4:4.4.95
 _ZN4KNS315DownloadManager12searchResultERK5QListINS_5EntryEE@Base 4:4.4.95
 _ZN4KNS315DownloadManager13setSearchTermERK7QString@Base 4:4.4.95
 _ZN4KNS315DownloadManager14setSearchOrderENS0_9SortOrderE@Base 4:4.4.95
 _ZN4KNS315DownloadManager14uninstallEntryERKNS_5EntryE@Base 4:4.7.0
 _ZN4KNS315DownloadManager15checkForUpdatesEv@Base 4:4.4.95
 _ZN4KNS315DownloadManager16staticMetaObjectE@Base 4:4.4.95
 _ZN4KNS315DownloadManager18entryStatusChangedERKNS_5EntryE@Base 4:4.4.95
 _ZN4KNS315DownloadManager6searchEii@Base 4:4.4.95
 _ZN4KNS315DownloadManager7Private20_k_slotEntriesLoadedERK5QListINS_13EntryInternalEE@Base 4:4.4.95
 _ZN4KNS315DownloadManager7Private22_k_slotProvidersLoadedEv@Base 4:4.4.95
 _ZN4KNS315DownloadManager7Private25_k_slotEntryStatusChangedERKNS_13EntryInternalE@Base 4:4.4.95
 _ZN4KNS315DownloadManager7Private4initERK7QString@Base 4:4.4.95
 _ZN4KNS315DownloadManagerC1EP7QObject@Base 4:4.4.95
 _ZN4KNS315DownloadManagerC1ERK7QStringP7QObject@Base 4:4.4.95
 _ZN4KNS315DownloadManagerC2EP7QObject@Base 4:4.4.95
 _ZN4KNS315DownloadManagerC2ERK7QStringP7QObject@Base 4:4.4.95
 _ZN4KNS315DownloadManagerD0Ev@Base 4:4.4.95
 _ZN4KNS315DownloadManagerD1Ev@Base 4:4.4.95
 _ZN4KNS315DownloadManagerD2Ev@Base 4:4.4.95
 _ZN4KNS320standardActionUploadERK7QStringPK7QObjectPKcP17KActionCollectionS7_@Base 4:4.4.95
 _ZN4KNS35EntryC1ERKS0_@Base 4:4.4.0
 _ZN4KNS35EntryC1Ev@Base 4:4.4.0
 _ZN4KNS35EntryC2ERKS0_@Base 4:4.4.0
 _ZN4KNS35EntryC2Ev@Base 4:4.4.0
 _ZN4KNS35EntryD1Ev@Base 4:4.4.0
 _ZN4KNS35EntryD2Ev@Base 4:4.4.0
 _ZN4KNS35EntryaSERKS0_@Base 4:4.4.0
 _ZN4KNS36Button10showDialogEv@Base 4:4.4.0
 _ZN4KNS36Button11qt_metacallEN11QMetaObject4CallEiPPv@Base 4:4.4.0
 _ZN4KNS36Button11qt_metacastEPKc@Base 4:4.4.0
 _ZN4KNS36Button13setButtonTextERK7QString@Base 4:4.4.0
 _ZN4KNS36Button13setConfigFileERK7QString@Base 4:4.4.0
 _ZN4KNS36Button14dialogFinishedERK5QListINS_5EntryEE@Base 4:4.4.0
 _ZN4KNS36Button16staticMetaObjectE@Base 4:4.4.0
 _ZN4KNS36Button17aboutToShowDialogEv@Base 4:4.4.0
 _ZN4KNS36Button4initEv@Base 4:4.4.0
 _ZN4KNS36ButtonC1EP7QWidget@Base 4:4.4.0
 _ZN4KNS36ButtonC1ERK7QStringS3_P7QWidget@Base 4:4.4.0
 _ZN4KNS36ButtonC2EP7QWidget@Base 4:4.4.0
 _ZN4KNS36ButtonC2ERK7QStringS3_P7QWidget@Base 4:4.4.0
 _ZN4KNS36ButtonD0Ev@Base 4:4.4.0
 _ZN4KNS36ButtonD1Ev@Base 4:4.4.0
 _ZN4KNS36ButtonD2Ev@Base 4:4.4.0
 _ZNK4KNS312UploadDialog10metaObjectEv@Base 4:4.4.0
 _ZNK4KNS314DownloadDialog10metaObjectEv@Base 4:4.4.0
 _ZNK4KNS314DownloadWidget10metaObjectEv@Base 4:4.4.95
 _ZNK4KNS315DownloadManager10metaObjectEv@Base 4:4.4.95
 _ZNK4KNS35Entry10providerIdEv@Base 4:4.4.95
 _ZNK4KNS35Entry14installedFilesEv@Base 4:4.4.0
 _ZNK4KNS35Entry16uninstalledFilesEv@Base 4:4.4.0
 _ZNK4KNS35Entry2idEv@Base 4:4.4.95
 _ZNK4KNS35Entry4nameEv@Base 4:4.4.0
 _ZNK4KNS35Entry6statusEv@Base 4:4.4.0
 _ZNK4KNS35Entry7licenseEv@Base 4:4.4.0
 _ZNK4KNS35Entry7summaryEv@Base 4:4.4.0
 _ZNK4KNS35Entry7versionEv@Base 4:4.4.0
 _ZNK4KNS35Entry8categoryEv@Base 4:4.4.0
 _ZNK4KNS36Button10metaObjectEv@Base 4:4.4.0
 _ZTIN4KNS312UploadDialogE@Base 4:4.4.0
 _ZTIN4KNS314DownloadDialogE@Base 4:4.4.0
 _ZTIN4KNS314DownloadWidgetE@Base 4:4.4.95
 _ZTIN4KNS315DownloadManagerE@Base 4:4.4.95
 _ZTIN4KNS36ButtonE@Base 4:4.4.0
 _ZTSN4KNS312UploadDialogE@Base 4:4.4.0
 _ZTSN4KNS314DownloadDialogE@Base 4:4.4.0
 _ZTSN4KNS314DownloadWidgetE@Base 4:4.4.95
 _ZTSN4KNS315DownloadManagerE@Base 4:4.4.95
 _ZTSN4KNS36ButtonE@Base 4:4.4.0
 _ZTVN4KNS312UploadDialogE@Base 4:4.4.0
 _ZTVN4KNS314DownloadDialogE@Base 4:4.4.0
 _ZTVN4KNS314DownloadWidgetE@Base 4:4.4.95
 _ZTVN4KNS315DownloadManagerE@Base 4:4.4.95
 _ZTVN4KNS36ButtonE@Base 4:4.4.0
 (c++)"non-virtual thunk to KNS3::Button::~Button()@Base" 4:4.4.0
 (c++)"non-virtual thunk to KNS3::DownloadDialog::~DownloadDialog()@Base" 4:4.4.0
 (c++)"non-virtual thunk to KNS3::DownloadWidget::~DownloadWidget()@Base" 4:4.4.95
 (c++)"non-virtual thunk to KNS3::UploadDialog::~UploadDialog()@Base" 4:4.4.0
