# SymbolsHelper-Confirmed: 4:4.8.3 amd64 armhf hurd-i386 i386 ia64 kfreebsd-amd64 kfreebsd-i386 powerpc s390 s390x
libkjsembed.so.4 libkjsembed4 #MINVER#
* Build-Depends-Package: kdelibs5-dev
 _ZN3KJS10IdentifierD1Ev@Base 4:4.7.4
 _ZN3KJS10IdentifierD2Ev@Base 4:4.7.4
 (arch=kfreebsd-amd64 kfreebsd-i386)_ZN3KJS19InternalFunctionImpD0Ev@Base 4:4.6.5
 (arch=kfreebsd-amd64 kfreebsd-i386)_ZN3KJS19InternalFunctionImpD1Ev@Base 4:4.6.5
 (arch=kfreebsd-amd64 kfreebsd-i386)_ZN3KJS19InternalFunctionImpD2Ev@Base 4:4.6.5
 (optional=internal|arch=!armel !armhf)_ZN3KJS6JSCell4markEv@Base 4:4.3.4
 (optional=internal|arch=!armel !armhf)_ZN3KJS6JSCellD0Ev@Base 4:4.3.4
 (optional=internal|arch=!armel !armhf)_ZN3KJS6JSCellD1Ev@Base 4:4.3.4
 (optional=internal|arch=amd64 hurd-i386 i386 ia64 kfreebsd-amd64 kfreebsd-i386 mips mipsel powerpc s390 s390x sparc)_ZN3KJS6JSCellD2Ev@Base 4:4.6.3
 _ZN3KJS7JSValueD0Ev@Base 4:4.3.4
 _ZN3KJS7JSValueD1Ev@Base 4:4.3.4
 (optional=internal)_ZN3KJS7JSValueD2Ev@Base 4:4.6.3
 _ZN3KJS7UStringC1ERK7QString@Base 4:4.3.4
 _ZN3KJS7UStringC2ERK7QString@Base 4:4.3.4
 (arch=kfreebsd-amd64 kfreebsd-i386)_ZN3KJS8JSObjectD0Ev@Base 4:4.6.5
 (arch=kfreebsd-amd64 kfreebsd-i386)_ZN3KJS8JSObjectD1Ev@Base 4:4.6.5
 (arch=kfreebsd-amd64 kfreebsd-i386)_ZN3KJS8JSObjectD2Ev@Base 4:4.6.5
 _ZN8KJSEmbed10extractIntEPN3KJS9ExecStateEPNS0_7JSValueEi@Base 4:4.3.4
 _ZN8KJSEmbed10extractIntEPN3KJS9ExecStateERKNS0_4ListEii@Base 4:4.3.4
 _ZN8KJSEmbed11ActionGroup10bindMethodEPN3KJS9ExecStateER11PointerBase@Base 4:4.3.4
 _ZN8KJSEmbed11ActionGroup10ctorMethodEPN3KJS9ExecStateERKNS1_4ListE@Base 4:4.3.4
 _ZN8KJSEmbed11ActionGroup13p_constructorE@Base 4:4.3.4
 _ZN8KJSEmbed11ActionGroup7p_enumsE@Base 4:4.3.4
 _ZN8KJSEmbed11ActionGroup9p_methodsE@Base 4:4.3.4
 _ZN8KJSEmbed11ActionGroup9p_staticsE@Base 4:4.3.4
 _ZN8KJSEmbed11ActionGroupC1EPN3KJS9ExecStateEP12QActionGroup@Base 4:4.3.4
 _ZN8KJSEmbed11ActionGroupC2EPN3KJS9ExecStateEP12QActionGroup@Base 4:4.3.4
 _ZN8KJSEmbed11ActionGroupD0Ev@Base 4:4.7.4
 _ZN8KJSEmbed11ActionGroupD1Ev@Base 4:4.7.4
 _ZN8KJSEmbed11ActionGroupD2Ev@Base 4:4.7.4
 _ZN8KJSEmbed11SlotBinding14callAsFunctionEPN3KJS9ExecStateEPNS1_8JSObjectERKNS1_4ListE@Base 4:4.3.4
 _ZN8KJSEmbed11SlotBindingC1EPN3KJS9ExecStateERK11QMetaMethod@Base 4:4.3.4
 _ZN8KJSEmbed11SlotBindingC2EPN3KJS9ExecStateERK11QMetaMethod@Base 4:4.3.4
 _ZN8KJSEmbed11SlotBindingD0Ev@Base 4:4.7.4
 _ZN8KJSEmbed11SlotBindingD1Ev@Base 4:4.7.4
 _ZN8KJSEmbed11SlotBindingD2Ev@Base 4:4.7.4
 _ZN8KJSEmbed11SvgRenderer10bindMethodEPN3KJS9ExecStateER11PointerBase@Base 4:4.3.4
 _ZN8KJSEmbed11SvgRenderer10ctorMethodEPN3KJS9ExecStateERKNS1_4ListE@Base 4:4.3.4
 _ZN8KJSEmbed11SvgRenderer13p_constructorE@Base 4:4.3.4
 _ZN8KJSEmbed11SvgRenderer7p_enumsE@Base 4:4.3.4
 _ZN8KJSEmbed11SvgRenderer9p_methodsE@Base 4:4.3.4
 _ZN8KJSEmbed11SvgRenderer9p_staticsE@Base 4:4.3.4
 _ZN8KJSEmbed11SvgRendererC1EPN3KJS9ExecStateEP12QSvgRenderer@Base 4:4.3.4
 _ZN8KJSEmbed11SvgRendererC2EPN3KJS9ExecStateEP12QSvgRenderer@Base 4:4.3.4
 _ZN8KJSEmbed11SvgRendererD0Ev@Base 4:4.7.4
 _ZN8KJSEmbed11SvgRendererD1Ev@Base 4:4.7.4
 _ZN8KJSEmbed11SvgRendererD2Ev@Base 4:4.7.4
 _ZN8KJSEmbed11extractBoolEPN3KJS9ExecStateERKNS0_4ListEib@Base 4:4.3.4
 _ZN8KJSEmbed12ProxyBindingC1EPN3KJS9ExecStateE@Base 4:4.3.4
 _ZN8KJSEmbed12ProxyBindingC2EPN3KJS9ExecStateE@Base 4:4.3.4
 _ZN8KJSEmbed12extractFloatEPN3KJS9ExecStateEPNS0_7JSValueEf@Base 4:4.3.4
 _ZN8KJSEmbed12extractFloatEPN3KJS9ExecStateERKNS0_4ListEif@Base 4:4.3.4
 _ZN8KJSEmbed12extractQDateEPN3KJS9ExecStateEPNS0_7JSValueERK5QDate@Base 4:4.3.4
 _ZN8KJSEmbed12extractQDateEPN3KJS9ExecStateERKNS0_4ListEiRK5QDate@Base 4:4.3.4
 _ZN8KJSEmbed12extractQTimeEPN3KJS9ExecStateEPNS0_7JSValueERK5QTime@Base 4:4.3.4
 _ZN8KJSEmbed12extractQTimeEPN3KJS9ExecStateERKNS0_4ListEiRK5QTime@Base 4:4.3.4
 _ZN8KJSEmbed13ObjectBinding12setOwnershipENS0_9OwnershipE@Base 4:4.3.4
 _ZN8KJSEmbed13ObjectBinding4infoE@Base 4:4.3.4
 _ZN8KJSEmbed13ObjectBindingD0Ev@Base 4:4.3.4
 _ZN8KJSEmbed13ObjectBindingD1Ev@Base 4:4.3.4
 _ZN8KJSEmbed13ObjectBindingD2Ev@Base 4:4.3.4
 _ZN8KJSEmbed13ObjectFactory13ObjectMethodsE@Base 4:4.3.4
 _ZN8KJSEmbed13StaticBinding14callAsFunctionEPN3KJS9ExecStateEPNS1_8JSObjectERKNS1_4ListE@Base 4:4.3.4
 _ZN8KJSEmbed13StaticBinding7publishEPN3KJS9ExecStateEPNS1_8JSObjectEPKNS_6MethodE@Base 4:4.3.4
 _ZN8KJSEmbed13StaticBindingC1EPN3KJS9ExecStateEPKNS_6MethodE@Base 4:4.3.4
 _ZN8KJSEmbed13StaticBindingC2EPN3KJS9ExecStateEPKNS_6MethodE@Base 4:4.3.4
 _ZN8KJSEmbed13StaticBindingD0Ev@Base 4:4.7.4
 _ZN8KJSEmbed13StaticBindingD1Ev@Base 4:4.7.4
 _ZN8KJSEmbed13StaticBindingD2Ev@Base 4:4.7.4
 _ZN8KJSEmbed13createQObjectEPN3KJS9ExecStateEP7QObjectNS_13ObjectBinding9OwnershipE@Base 4:4.3.4
 _ZN8KJSEmbed13extractDoubleEPN3KJS9ExecStateEPNS0_7JSValueEd@Base 4:4.3.4
 _ZN8KJSEmbed13extractDoubleEPN3KJS9ExecStateERKNS0_4ListEid@Base 4:4.3.4
 _ZN8KJSEmbed14QObjectBinding11watchObjectEP7QObject@Base 4:4.3.4
 _ZN8KJSEmbed14QObjectBinding14propertyGetterEPN3KJS9ExecStateEPNS1_8JSObjectERKNS1_10IdentifierERKNS1_12PropertySlotE@Base 4:4.3.4
 _ZN8KJSEmbed14QObjectBinding14publishQObjectEPN3KJS9ExecStateEPNS1_8JSObjectEP7QObject@Base 4:4.3.4
 _ZN8KJSEmbed14QObjectBinding18getOwnPropertySlotEPN3KJS9ExecStateERKNS1_10IdentifierERNS1_12PropertySlotE@Base 4:4.3.4
 _ZN8KJSEmbed14QObjectBinding3putEPN3KJS9ExecStateERKNS1_10IdentifierEPNS1_7JSValueEi@Base 4:4.3.4
 _ZN8KJSEmbed14QObjectBinding9setAccessE6QFlagsINS0_6AccessEE@Base 4:4.3.4
 _ZN8KJSEmbed14QObjectBindingC1EPN3KJS9ExecStateEP7QObject@Base 4:4.3.4
 _ZN8KJSEmbed14QObjectBindingC2EPN3KJS9ExecStateEP7QObject@Base 4:4.3.4
 _ZN8KJSEmbed14QObjectBindingD0Ev@Base 4:4.3.4
 _ZN8KJSEmbed14QObjectBindingD1Ev@Base 4:4.3.4
 _ZN8KJSEmbed14QObjectBindingD2Ev@Base 4:4.3.4
 _ZN8KJSEmbed14QWidgetBinding10bindMethodEPN3KJS9ExecStateER11PointerBase@Base 4:4.3.4
 _ZN8KJSEmbed14QWidgetBinding10ctorMethodEPN3KJS9ExecStateERKNS1_4ListE@Base 4:4.3.4
 _ZN8KJSEmbed14QWidgetBinding13p_constructorE@Base 4:4.3.4
 _ZN8KJSEmbed14QWidgetBinding7p_enumsE@Base 4:4.3.4
 _ZN8KJSEmbed14QWidgetBinding9p_methodsE@Base 4:4.3.4
 _ZN8KJSEmbed14QWidgetBinding9p_staticsE@Base 4:4.3.4
 _ZN8KJSEmbed14QWidgetBindingC1EPN3KJS9ExecStateEP7QWidget@Base 4:4.3.4
 _ZN8KJSEmbed14QWidgetBindingC2EPN3KJS9ExecStateEP7QWidget@Base 4:4.3.4
 _ZN8KJSEmbed14QWidgetBindingD0Ev@Base 4:4.7.4
 _ZN8KJSEmbed14QWidgetBindingD1Ev@Base 4:4.7.4
 _ZN8KJSEmbed14QWidgetBindingD2Ev@Base 4:4.7.4
 _ZN8KJSEmbed14VariantBinding4infoE@Base 4:4.3.4
 _ZN8KJSEmbed14VariantBinding7pointerEv@Base 4:4.3.4
 _ZN8KJSEmbed14VariantBinding8setValueERK8QVariant@Base 4:4.3.4
 _ZN8KJSEmbed14VariantBindingC1EPN3KJS9ExecStateERK8QVariant@Base 4:4.3.4
 _ZN8KJSEmbed14VariantBindingC2EPN3KJS9ExecStateERK8QVariant@Base 4:4.3.4
 _ZN8KJSEmbed14VariantFactory14VariantMethodsE@Base 4:4.3.4
 _ZN8KJSEmbed14convertToValueEPN3KJS9ExecStateERK8QVariant@Base 4:4.3.4
 _ZN8KJSEmbed14extractQStringEPN3KJS9ExecStateEPNS0_7JSValueE7QString@Base 4:4.3.4
 _ZN8KJSEmbed14extractQStringEPN3KJS9ExecStateERKNS0_4ListEi7QString@Base 4:4.3.4
 _ZN8KJSEmbed14extractVariantEPN3KJS9ExecStateEPNS0_7JSValueE@Base 4:4.3.4
 _ZN8KJSEmbed15SettingsBinding10bindMethodEPN3KJS9ExecStateER11PointerBase@Base 4:4.3.4
 _ZN8KJSEmbed15SettingsBinding10ctorMethodEPN3KJS9ExecStateERKNS1_4ListE@Base 4:4.3.4
 _ZN8KJSEmbed15SettingsBinding13p_constructorE@Base 4:4.3.4
 _ZN8KJSEmbed15SettingsBinding7p_enumsE@Base 4:4.3.4
 _ZN8KJSEmbed15SettingsBinding9p_methodsE@Base 4:4.3.4
 _ZN8KJSEmbed15SettingsBinding9p_staticsE@Base 4:4.3.4
 _ZN8KJSEmbed15SettingsBindingC1EPN3KJS9ExecStateEP9QSettings@Base 4:4.3.4
 _ZN8KJSEmbed15SettingsBindingC2EPN3KJS9ExecStateEP9QSettings@Base 4:4.3.4
 _ZN8KJSEmbed15SettingsBindingD0Ev@Base 4:4.7.4
 _ZN8KJSEmbed15SettingsBindingD1Ev@Base 4:4.7.4
 _ZN8KJSEmbed15SettingsBindingD2Ev@Base 4:4.7.4
 _ZN8KJSEmbed15UiLoaderBinding10bindMethodEPN3KJS9ExecStateER11PointerBase@Base 4:4.3.4
 _ZN8KJSEmbed15UiLoaderBinding10ctorMethodEPN3KJS9ExecStateERKNS1_4ListE@Base 4:4.3.4
 _ZN8KJSEmbed15UiLoaderBinding13p_constructorE@Base 4:4.3.4
 _ZN8KJSEmbed15UiLoaderBinding7p_enumsE@Base 4:4.3.4
 _ZN8KJSEmbed15UiLoaderBinding9p_methodsE@Base 4:4.3.4
 _ZN8KJSEmbed15UiLoaderBinding9p_staticsE@Base 4:4.3.4
 _ZN8KJSEmbed15UiLoaderBindingC1EPN3KJS9ExecStateEP9QUiLoader@Base 4:4.3.4
 _ZN8KJSEmbed15UiLoaderBindingC2EPN3KJS9ExecStateEP9QUiLoader@Base 4:4.3.4
 _ZN8KJSEmbed15UiLoaderBindingD0Ev@Base 4:4.7.4
 _ZN8KJSEmbed15UiLoaderBindingD1Ev@Base 4:4.7.4
 _ZN8KJSEmbed15UiLoaderBindingD2Ev@Base 4:4.7.4
 _ZN8KJSEmbed16convertToVariantEPN3KJS9ExecStateEPNS0_7JSValueE@Base 4:4.3.4
 _ZN8KJSEmbed16extractQDateTimeEPN3KJS9ExecStateEPNS0_7JSValueERK9QDateTime@Base 4:4.3.4
 _ZN8KJSEmbed16extractQDateTimeEPN3KJS9ExecStateERKNS0_4ListEiRK9QDateTime@Base 4:4.3.4
 _ZN8KJSEmbed17StaticConstructor11constructorERKN3KJS7UStringE@Base 4:4.3.4
 _ZN8KJSEmbed17StaticConstructor15setDefaultValueEPN3KJS7JSValueE@Base 4:4.3.4
 _ZN8KJSEmbed17StaticConstructor3addEPN3KJS9ExecStateEPNS1_8JSObjectEPKNS_11ConstructorE@Base 4:4.3.4
 _ZN8KJSEmbed17StaticConstructor4bindEPN3KJS9ExecStateERK7QStringR11PointerBase@Base 4:4.3.4
 _ZN8KJSEmbed17StaticConstructor7methodsERKN3KJS7UStringE@Base 4:4.3.4
 _ZN8KJSEmbed17StaticConstructor9constructEPN3KJS9ExecStateEPNS1_8JSObjectERKNS1_7UStringERKNS1_4ListE@Base 4:4.3.4
 _ZN8KJSEmbed17StaticConstructor9constructEPN3KJS9ExecStateERKNS1_4ListE@Base 4:4.3.4
 _ZN8KJSEmbed17StaticConstructorC1EPN3KJS9ExecStateEPKNS_11ConstructorE@Base 4:4.3.4
 _ZN8KJSEmbed17StaticConstructorC2EPN3KJS9ExecStateEPKNS_11ConstructorE@Base 4:4.3.4
 _ZN8KJSEmbed17StaticConstructorD0Ev@Base 4:4.7.4
 _ZN8KJSEmbed17StaticConstructorD1Ev@Base 4:4.7.4
 _ZN8KJSEmbed17StaticConstructorD2Ev@Base 4:4.7.4
 _ZN8KJSEmbed17convertArrayToMapEPN3KJS9ExecStateEPNS0_7JSValueE@Base 4:4.3.4
 _ZN8KJSEmbed17extractQByteArrayEPN3KJS9ExecStateEPNS0_7JSValueERK10QByteArray@Base 4:4.3.4
 _ZN8KJSEmbed17extractQByteArrayEPN3KJS9ExecStateERKNS0_4ListEiRK10QByteArray@Base 4:4.3.4
 _ZN8KJSEmbed18ApplicationBinding10bindMethodEPN3KJS9ExecStateER11PointerBase@Base 4:4.3.4
 _ZN8KJSEmbed18ApplicationBinding10ctorMethodEPN3KJS9ExecStateERKNS1_4ListE@Base 4:4.3.4
 _ZN8KJSEmbed18ApplicationBinding13p_constructorE@Base 4:4.3.4
 _ZN8KJSEmbed18ApplicationBinding7p_enumsE@Base 4:4.3.4
 _ZN8KJSEmbed18ApplicationBinding9p_methodsE@Base 4:4.3.4
 _ZN8KJSEmbed18ApplicationBinding9p_staticsE@Base 4:4.3.4
 _ZN8KJSEmbed18ApplicationBindingC1EPN3KJS9ExecStateEP12QApplication@Base 4:4.3.4
 _ZN8KJSEmbed18ApplicationBindingC2EPN3KJS9ExecStateEP12QApplication@Base 4:4.3.4
 _ZN8KJSEmbed18ApplicationBindingD0Ev@Base 4:4.7.4
 _ZN8KJSEmbed18ApplicationBindingD1Ev@Base 4:4.7.4
 _ZN8KJSEmbed18ApplicationBindingD2Ev@Base 4:4.7.4
 _ZN8KJSEmbed18convertArrayToListEPN3KJS9ExecStateEPNS0_7JSValueE@Base 4:4.3.4
 _ZN8KJSEmbed18extractQStringListEPN3KJS9ExecStateEPNS0_7JSValueERK11QStringList@Base 4:4.3.4
 _ZN8KJSEmbed18extractQStringListEPN3KJS9ExecStateERKNS0_4ListEiRK11QStringList@Base 4:4.3.4
 _ZN8KJSEmbed22CoreApplicationBinding10bindMethodEPN3KJS9ExecStateER11PointerBase@Base 4:4.3.4
 _ZN8KJSEmbed22CoreApplicationBinding10ctorMethodEPN3KJS9ExecStateERKNS1_4ListE@Base 4:4.3.4
 _ZN8KJSEmbed22CoreApplicationBinding13p_constructorE@Base 4:4.3.4
 _ZN8KJSEmbed22CoreApplicationBinding7p_enumsE@Base 4:4.3.4
 _ZN8KJSEmbed22CoreApplicationBinding9p_methodsE@Base 4:4.3.4
 _ZN8KJSEmbed22CoreApplicationBinding9p_staticsE@Base 4:4.3.4
 _ZN8KJSEmbed22CoreApplicationBindingC1EPN3KJS9ExecStateEP16QCoreApplication@Base 4:4.3.4
 _ZN8KJSEmbed22CoreApplicationBindingC2EPN3KJS9ExecStateEP16QCoreApplication@Base 4:4.3.4
 _ZN8KJSEmbed22CoreApplicationBindingD0Ev@Base 4:4.7.4
 _ZN8KJSEmbed22CoreApplicationBindingD1Ev@Base 4:4.7.4
 _ZN8KJSEmbed22CoreApplicationBindingD2Ev@Base 4:4.7.4
 _ZN8KJSEmbed24convertArrayToStringListEPN3KJS9ExecStateEPNS0_7JSValueE@Base 4:4.3.4
 _ZN8KJSEmbed5coninEv@Base 4:4.3.4
 _ZN8KJSEmbed6Action10bindMethodEPN3KJS9ExecStateER11PointerBase@Base 4:4.3.4
 _ZN8KJSEmbed6Action10ctorMethodEPN3KJS9ExecStateERKNS1_4ListE@Base 4:4.3.4
 _ZN8KJSEmbed6Action13p_constructorE@Base 4:4.3.4
 _ZN8KJSEmbed6Action7p_enumsE@Base 4:4.3.4
 _ZN8KJSEmbed6Action9p_methodsE@Base 4:4.3.4
 _ZN8KJSEmbed6Action9p_staticsE@Base 4:4.3.4
 _ZN8KJSEmbed6ActionC1EPN3KJS9ExecStateEP7QAction@Base 4:4.3.4
 _ZN8KJSEmbed6ActionC2EPN3KJS9ExecStateEP7QAction@Base 4:4.3.4
 _ZN8KJSEmbed6ActionD0Ev@Base 4:4.7.4
 _ZN8KJSEmbed6ActionD1Ev@Base 4:4.7.4
 _ZN8KJSEmbed6ActionD2Ev@Base 4:4.7.4
 _ZN8KJSEmbed6Engine10callMethodEPN3KJS8JSObjectERKNS1_7UStringERKNS1_4ListE@Base 4:4.3.4
 _ZN8KJSEmbed6Engine10callMethodERKN3KJS7UStringERKNS1_4ListE@Base 4:4.3.4
 _ZN8KJSEmbed6Engine7executeERKN3KJS7UStringE@Base 4:4.3.4
 _ZN8KJSEmbed6Engine7runFileEPN3KJS11InterpreterERKNS1_7UStringE@Base 4:4.3.4
 _ZN8KJSEmbed6Engine7runFileERKN3KJS7UStringE@Base 4:4.3.4
 _ZN8KJSEmbed6EngineC1Eb@Base 4:4.3.4
 _ZN8KJSEmbed6EngineC2Eb@Base 4:4.3.4
 _ZN8KJSEmbed6EngineD0Ev@Base 4:4.3.4
 _ZN8KJSEmbed6EngineD1Ev@Base 4:4.3.4
 _ZN8KJSEmbed6EngineD2Ev@Base 4:4.3.4
 _ZN8KJSEmbed6Layout10bindMethodEPN3KJS9ExecStateER11PointerBase@Base 4:4.3.4
 _ZN8KJSEmbed6Layout10ctorMethodEPN3KJS9ExecStateERKNS1_4ListE@Base 4:4.3.4
 _ZN8KJSEmbed6Layout13p_constructorE@Base 4:4.3.4
 _ZN8KJSEmbed6Layout7p_enumsE@Base 4:4.3.4
 _ZN8KJSEmbed6Layout9p_methodsE@Base 4:4.3.4
 _ZN8KJSEmbed6Layout9p_staticsE@Base 4:4.3.4
 _ZN8KJSEmbed6LayoutC1EPN3KJS9ExecStateEP7QLayout@Base 4:4.3.4
 _ZN8KJSEmbed6LayoutC2EPN3KJS9ExecStateEP7QLayout@Base 4:4.3.4
 _ZN8KJSEmbed6LayoutD0Ev@Base 4:4.7.4
 _ZN8KJSEmbed6LayoutD1Ev@Base 4:4.7.4
 _ZN8KJSEmbed6LayoutD2Ev@Base 4:4.7.4
 _ZN8KJSEmbed6conerrEv@Base 4:4.3.4
 _ZN8KJSEmbed6conoutEv@Base 4:4.3.4
 _ZN8KJSEmbed9SlotProxy10callMethodERK10QByteArrayPPv@Base 4:4.3.4
 _ZN8KJSEmbed9SlotProxy11qt_metacallEN11QMetaObject4CallEiPPv@Base 4:4.3.4
 _ZN8KJSEmbed9SlotProxy11qt_metacastEPKc@Base 4:4.3.4
 _ZN8KJSEmbed9SlotProxy16convertArgumentsEPN3KJS9ExecStateEPPv@Base 4:4.3.4
 _ZN8KJSEmbed9SlotProxyC1EPN3KJS8JSObjectEPNS1_11InterpreterEP7QObjectRK10QByteArray@Base 4:4.3.4
 _ZN8KJSEmbed9SlotProxyC2EPN3KJS8JSObjectEPNS1_11InterpreterEP7QObjectRK10QByteArray@Base 4:4.3.4
 _ZN8KJSEmbed9SlotProxyD0Ev@Base 4:4.3.4
 _ZN8KJSEmbed9SlotProxyD1Ev@Base 4:4.3.4
 _ZN8KJSEmbed9SlotProxyD2Ev@Base 4:4.3.4
 _ZN8KJSEmbed9SvgWidget10bindMethodEPN3KJS9ExecStateER11PointerBase@Base 4:4.3.4
 _ZN8KJSEmbed9SvgWidget10ctorMethodEPN3KJS9ExecStateERKNS1_4ListE@Base 4:4.3.4
 _ZN8KJSEmbed9SvgWidget13p_constructorE@Base 4:4.3.4
 _ZN8KJSEmbed9SvgWidget7p_enumsE@Base 4:4.3.4
 _ZN8KJSEmbed9SvgWidget9p_methodsE@Base 4:4.3.4
 _ZN8KJSEmbed9SvgWidget9p_staticsE@Base 4:4.3.4
 _ZN8KJSEmbed9SvgWidgetC1EPN3KJS9ExecStateEP10QSvgWidget@Base 4:4.3.4
 _ZN8KJSEmbed9SvgWidgetC2EPN3KJS9ExecStateEP10QSvgWidget@Base 4:4.3.4
 _ZN8KJSEmbed9SvgWidgetD0Ev@Base 4:4.7.4
 _ZN8KJSEmbed9SvgWidgetD1Ev@Base 4:4.7.4
 _ZN8KJSEmbed9SvgWidgetD2Ev@Base 4:4.7.4
 _ZNK3KJS10Identifier7qstringEv@Base 4:4.3.4
 _ZNK3KJS7UString7qstringEv@Base 4:4.3.4
 _ZNK3KJS8JSObject11toPrimitiveEPNS_9ExecStateENS_6JSTypeE@Base 4:4.3.4
 _ZNK8KJSEmbed13ObjectBinding4typeEv@Base 4:4.3.4
 _ZNK8KJSEmbed13ObjectBinding8toStringEPN3KJS9ExecStateE@Base 4:4.3.4
 _ZNK8KJSEmbed13ObjectBinding8typeNameEv@Base 4:4.3.4
 _ZNK8KJSEmbed13ObjectBinding9classNameEv@Base 4:4.3.4
 _ZNK8KJSEmbed13ObjectBinding9ownershipEv@Base 4:4.3.4
 _ZNK8KJSEmbed14QObjectBinding6accessEv@Base 4:4.3.4
 _ZNK8KJSEmbed14QObjectBinding6canPutEPN3KJS9ExecStateERKNS1_10IdentifierE@Base 4:4.3.4
 _ZNK8KJSEmbed14QObjectBinding8toStringEPN3KJS9ExecStateE@Base 4:4.3.4
 _ZNK8KJSEmbed14QObjectBinding9classNameEv@Base 4:4.3.4
 _ZNK8KJSEmbed14VariantBinding3argEPKc@Base 4:4.3.4
 _ZNK8KJSEmbed14VariantBinding7variantEv@Base 4:4.3.4
 _ZNK8KJSEmbed14VariantBinding8toStringEPN3KJS9ExecStateE@Base 4:4.3.4
 _ZNK8KJSEmbed14VariantBinding9classNameEv@Base 4:4.3.4
 _ZNK8KJSEmbed17StaticConstructor12defaultValueEPN3KJS9ExecStateENS1_6JSTypeE@Base 4:4.3.4
 _ZNK8KJSEmbed6Engine10completionEv@Base 4:4.3.4
 _ZNK8KJSEmbed6Engine11interpreterEv@Base 4:4.3.4
 _ZNK8KJSEmbed6Engine17isBindingsEnabledEv@Base 4:4.3.4
 _ZNK8KJSEmbed6Engine9addObjectEP7QObjectPN3KJS8JSObjectERKNS3_7UStringE@Base 4:4.3.4
 _ZNK8KJSEmbed6Engine9addObjectEP7QObjectRKN3KJS7UStringE@Base 4:4.3.4
 _ZNK8KJSEmbed6Engine9constructERKN3KJS7UStringERKNS1_4ListE@Base 4:4.3.4
 _ZNK8KJSEmbed9SlotProxy10metaObjectEv@Base 4:4.3.4
 _ZTIN14WTFNoncopyable11NoncopyableE@Base 4:4.3.4
 (optional=internal|arch=!armel !armhf)_ZTIN3KJS6JSCellE@Base 4:4.3.4
 _ZTIN3KJS7JSValueE@Base 4:4.3.4
 _ZTIN8KJSEmbed11ActionGroupE@Base 4:4.3.4
 _ZTIN8KJSEmbed11SlotBindingE@Base 4:4.3.4
 _ZTIN8KJSEmbed11SvgRendererE@Base 4:4.3.4
 _ZTIN8KJSEmbed12ProxyBindingE@Base 4:4.3.4
 _ZTIN8KJSEmbed13ObjectBindingE@Base 4:4.3.4
 _ZTIN8KJSEmbed13StaticBindingE@Base 4:4.3.4
 _ZTIN8KJSEmbed14QObjectBindingE@Base 4:4.3.4
 _ZTIN8KJSEmbed14QWidgetBindingE@Base 4:4.3.4
 _ZTIN8KJSEmbed14VariantBindingE@Base 4:4.3.4
 _ZTIN8KJSEmbed15SettingsBindingE@Base 4:4.3.4
 _ZTIN8KJSEmbed15UiLoaderBindingE@Base 4:4.3.4
 _ZTIN8KJSEmbed17StaticConstructorE@Base 4:4.3.4
 _ZTIN8KJSEmbed18ApplicationBindingE@Base 4:4.3.4
 _ZTIN8KJSEmbed22CoreApplicationBindingE@Base 4:4.3.4
 _ZTIN8KJSEmbed6ActionE@Base 4:4.3.4
 _ZTIN8KJSEmbed6EngineE@Base 4:4.3.4
 _ZTIN8KJSEmbed6LayoutE@Base 4:4.3.4
 _ZTIN8KJSEmbed9SlotProxyE@Base 4:4.3.4
 _ZTIN8KJSEmbed9SvgWidgetE@Base 4:4.3.4
 _ZTSN14WTFNoncopyable11NoncopyableE@Base 4:4.3.4
 (optional=internal|arch=!armel !armhf)_ZTSN3KJS6JSCellE@Base 4:4.3.4
 _ZTSN3KJS7JSValueE@Base 4:4.3.4
 _ZTSN8KJSEmbed11ActionGroupE@Base 4:4.3.4
 _ZTSN8KJSEmbed11SlotBindingE@Base 4:4.3.4
 _ZTSN8KJSEmbed11SvgRendererE@Base 4:4.3.4
 _ZTSN8KJSEmbed12ProxyBindingE@Base 4:4.3.4
 _ZTSN8KJSEmbed13ObjectBindingE@Base 4:4.3.4
 _ZTSN8KJSEmbed13StaticBindingE@Base 4:4.3.4
 _ZTSN8KJSEmbed14QObjectBindingE@Base 4:4.3.4
 _ZTSN8KJSEmbed14QWidgetBindingE@Base 4:4.3.4
 _ZTSN8KJSEmbed14VariantBindingE@Base 4:4.3.4
 _ZTSN8KJSEmbed15SettingsBindingE@Base 4:4.3.4
 _ZTSN8KJSEmbed15UiLoaderBindingE@Base 4:4.3.4
 _ZTSN8KJSEmbed17StaticConstructorE@Base 4:4.3.4
 _ZTSN8KJSEmbed18ApplicationBindingE@Base 4:4.3.4
 _ZTSN8KJSEmbed22CoreApplicationBindingE@Base 4:4.3.4
 _ZTSN8KJSEmbed6ActionE@Base 4:4.3.4
 _ZTSN8KJSEmbed6EngineE@Base 4:4.3.4
 _ZTSN8KJSEmbed6LayoutE@Base 4:4.3.4
 _ZTSN8KJSEmbed9SlotProxyE@Base 4:4.3.4
 _ZTSN8KJSEmbed9SvgWidgetE@Base 4:4.3.4
 (optional=internal|arch=!armel !armhf)_ZTVN3KJS6JSCellE@Base 4:4.3.4
 _ZTVN3KJS7JSValueE@Base 4:4.3.4
 _ZTVN8KJSEmbed11ActionGroupE@Base 4:4.3.4
 _ZTVN8KJSEmbed11SlotBindingE@Base 4:4.3.4
 _ZTVN8KJSEmbed11SvgRendererE@Base 4:4.3.4
 _ZTVN8KJSEmbed12ProxyBindingE@Base 4:4.3.4
 _ZTVN8KJSEmbed13ObjectBindingE@Base 4:4.3.4
 _ZTVN8KJSEmbed13StaticBindingE@Base 4:4.3.4
 _ZTVN8KJSEmbed14QObjectBindingE@Base 4:4.3.4
 _ZTVN8KJSEmbed14QWidgetBindingE@Base 4:4.3.4
 _ZTVN8KJSEmbed14VariantBindingE@Base 4:4.3.4
 _ZTVN8KJSEmbed15SettingsBindingE@Base 4:4.3.4
 _ZTVN8KJSEmbed15UiLoaderBindingE@Base 4:4.3.4
 _ZTVN8KJSEmbed17StaticConstructorE@Base 4:4.3.4
 _ZTVN8KJSEmbed18ApplicationBindingE@Base 4:4.3.4
 _ZTVN8KJSEmbed22CoreApplicationBindingE@Base 4:4.3.4
 _ZTVN8KJSEmbed6ActionE@Base 4:4.3.4
 _ZTVN8KJSEmbed6EngineE@Base 4:4.3.4
 _ZTVN8KJSEmbed6LayoutE@Base 4:4.3.4
 _ZTVN8KJSEmbed9SlotProxyE@Base 4:4.3.4
 _ZTVN8KJSEmbed9SvgWidgetE@Base 4:4.3.4
