# SymbolsHelper-Confirmed: 4:4.3.4 alpha amd64 armel hppa i386 ia64 kfreebsd-amd64 kfreebsd-i386 mips mipsel powerpc s390 sparc
libkdnssd.so.4 libkdnssd4 #MINVER#
* Build-Depends-Package: kdelibs5-dev
 _ZN5DNSSD11DomainModel11qt_metacallEN11QMetaObject4CallEiPPv@Base 4:4.3.4
 _ZN5DNSSD11DomainModel11qt_metacastEPKc@Base 4:4.3.4
 _ZN5DNSSD11DomainModel16staticMetaObjectE@Base 4:4.3.4
 _ZN5DNSSD11DomainModelC1EPNS_13DomainBrowserEP7QObject@Base 4:4.3.4
 _ZN5DNSSD11DomainModelC2EPNS_13DomainBrowserEP7QObject@Base 4:4.3.4
 _ZN5DNSSD11DomainModelD0Ev@Base 4:4.3.4
 _ZN5DNSSD11DomainModelD1Ev@Base 4:4.3.4
 _ZN5DNSSD11DomainModelD2Ev@Base 4:4.3.4
 _ZN5DNSSD11ServiceBase12virtual_hookEiPv@Base 4:4.3.4
 _ZN5DNSSD11ServiceBaseC1EPNS_18ServiceBasePrivateE@Base 4:4.3.4
 _ZN5DNSSD11ServiceBaseC1ERK7QStringS3_S3_S3_t@Base 4:4.3.4
 _ZN5DNSSD11ServiceBaseC2EPNS_18ServiceBasePrivateE@Base 4:4.3.4
 _ZN5DNSSD11ServiceBaseC2ERK7QStringS3_S3_S3_t@Base 4:4.3.4
 _ZN5DNSSD11ServiceBaseD0Ev@Base 4:4.3.4
 _ZN5DNSSD11ServiceBaseD1Ev@Base 4:4.3.4
 _ZN5DNSSD11ServiceBaseD2Ev@Base 4:4.3.4
 _ZN5DNSSD12ServiceModel11qt_metacallEN11QMetaObject4CallEiPPv@Base 4:4.3.4
 _ZN5DNSSD12ServiceModel11qt_metacastEPKc@Base 4:4.3.4
 _ZN5DNSSD12ServiceModel16staticMetaObjectE@Base 4:4.3.4
 _ZN5DNSSD12ServiceModelC1EPNS_14ServiceBrowserEP7QObject@Base 4:4.3.4
 _ZN5DNSSD12ServiceModelC2EPNS_14ServiceBrowserEP7QObject@Base 4:4.3.4
 _ZN5DNSSD12ServiceModelD0Ev@Base 4:4.3.4
 _ZN5DNSSD12ServiceModelD1Ev@Base 4:4.3.4
 _ZN5DNSSD12ServiceModelD2Ev@Base 4:4.3.4
 _ZN5DNSSD13Configuration4selfEv@Base 4:4.3.4
 _ZN5DNSSD13ConfigurationC1Ev@Base 4:4.3.4
 _ZN5DNSSD13ConfigurationC2Ev@Base 4:4.3.4
 _ZN5DNSSD13ConfigurationD0Ev@Base 4:4.3.4
 _ZN5DNSSD13ConfigurationD1Ev@Base 4:4.3.4
 _ZN5DNSSD13ConfigurationD2Ev@Base 4:4.3.4
 _ZN5DNSSD13DomainBrowser11domainAddedERK7QString@Base 4:4.3.4
 _ZN5DNSSD13DomainBrowser11qt_metacallEN11QMetaObject4CallEiPPv@Base 4:4.3.4
 _ZN5DNSSD13DomainBrowser11qt_metacastEPKc@Base 4:4.3.4
 _ZN5DNSSD13DomainBrowser11startBrowseEv@Base 4:4.3.4
 _ZN5DNSSD13DomainBrowser13domainRemovedERK7QString@Base 4:4.3.4
 _ZN5DNSSD13DomainBrowser16staticMetaObjectE@Base 4:4.3.4
 _ZN5DNSSD13DomainBrowserC1ENS0_10DomainTypeEP7QObject@Base 4:4.3.4
 _ZN5DNSSD13DomainBrowserC2ENS0_10DomainTypeEP7QObject@Base 4:4.3.4
 _ZN5DNSSD13DomainBrowserD0Ev@Base 4:4.3.4
 _ZN5DNSSD13DomainBrowserD1Ev@Base 4:4.3.4
 _ZN5DNSSD13DomainBrowserD2Ev@Base 4:4.3.4
 _ZN5DNSSD13PublicService11qt_metacallEN11QMetaObject4CallEiPPv@Base 4:4.3.4
 _ZN5DNSSD13PublicService11qt_metacastEPKc@Base 4:4.3.4
 _ZN5DNSSD13PublicService11setSubTypesERK11QStringList@Base 4:4.3.4
 _ZN5DNSSD13PublicService11setTextDataERK4QMapI7QString10QByteArrayE@Base 4:4.3.4
 _ZN5DNSSD13PublicService12publishAsyncEv@Base 4:4.3.4
 _ZN5DNSSD13PublicService12virtual_hookEiPv@Base 4:4.3.4
 _ZN5DNSSD13PublicService14setServiceNameERK7QString@Base 4:4.3.4
 _ZN5DNSSD13PublicService16staticMetaObjectE@Base 4:4.3.4
 _ZN5DNSSD13PublicService4stopEv@Base 4:4.3.4
 _ZN5DNSSD13PublicService7publishEv@Base 4:4.3.4
 _ZN5DNSSD13PublicService7setPortEt@Base 4:4.3.4
 _ZN5DNSSD13PublicService7setTypeERK7QString@Base 4:4.3.4
 _ZN5DNSSD13PublicService9publishedEb@Base 4:4.3.4
 _ZN5DNSSD13PublicService9setDomainERK7QString@Base 4:4.3.4
 _ZN5DNSSD13PublicServiceC1ERK7QStringS3_jS3_RK11QStringList@Base 4:4.3.4
 _ZN5DNSSD13PublicServiceC2ERK7QStringS3_jS3_RK11QStringList@Base 4:4.3.4
 _ZN5DNSSD13PublicServiceD0Ev@Base 4:4.3.4
 _ZN5DNSSD13PublicServiceD1Ev@Base 4:4.3.4
 _ZN5DNSSD13PublicServiceD2Ev@Base 4:4.3.4
 _ZN5DNSSD13RemoteService11qt_metacallEN11QMetaObject4CallEiPPv@Base 4:4.3.4
 _ZN5DNSSD13RemoteService11qt_metacastEPKc@Base 4:4.3.4
 _ZN5DNSSD13RemoteService12resolveAsyncEv@Base 4:4.3.4
 _ZN5DNSSD13RemoteService12virtual_hookEiPv@Base 4:4.3.4
 _ZN5DNSSD13RemoteService16staticMetaObjectE@Base 4:4.3.4
 _ZN5DNSSD13RemoteService7resolveEv@Base 4:4.3.4
 _ZN5DNSSD13RemoteService8resolvedEb@Base 4:4.3.4
 _ZN5DNSSD13RemoteServiceC1ERK7QStringS3_S3_@Base 4:4.3.4
 _ZN5DNSSD13RemoteServiceC2ERK7QStringS3_S3_@Base 4:4.3.4
 _ZN5DNSSD13RemoteServiceD0Ev@Base 4:4.3.4
 _ZN5DNSSD13RemoteServiceD1Ev@Base 4:4.3.4
 _ZN5DNSSD13RemoteServiceD2Ev@Base 4:4.3.4
 _ZN5DNSSD14ServiceBrowser11isAvailableEv@Base 4:4.3.4
 _ZN5DNSSD14ServiceBrowser11qt_metacallEN11QMetaObject4CallEiPPv@Base 4:4.3.4
 _ZN5DNSSD14ServiceBrowser11qt_metacastEPKc@Base 4:4.3.4
 _ZN5DNSSD14ServiceBrowser11startBrowseEv@Base 4:4.3.4
 _ZN5DNSSD14ServiceBrowser12serviceAddedE10KSharedPtrINS_13RemoteServiceEE@Base 4:4.3.4
 _ZN5DNSSD14ServiceBrowser12virtual_hookEiPv@Base 4:4.3.4
 _ZN5DNSSD14ServiceBrowser14serviceRemovedE10KSharedPtrINS_13RemoteServiceEE@Base 4:4.3.4
 _ZN5DNSSD14ServiceBrowser15resolveHostNameERK7QString@Base 4:4.3.4
 _ZN5DNSSD14ServiceBrowser16getLocalHostNameEv@Base 4:4.3.4
 _ZN5DNSSD14ServiceBrowser16staticMetaObjectE@Base 4:4.3.4
 _ZN5DNSSD14ServiceBrowser8finishedEv@Base 4:4.3.4
 _ZN5DNSSD14ServiceBrowserC1ERK7QStringbS3_S3_@Base 4:4.3.4
 _ZN5DNSSD14ServiceBrowserC2ERK7QStringbS3_S3_@Base 4:4.3.4
 _ZN5DNSSD14ServiceBrowserD0Ev@Base 4:4.3.4
 _ZN5DNSSD14ServiceBrowserD1Ev@Base 4:4.3.4
 _ZN5DNSSD14ServiceBrowserD2Ev@Base 4:4.3.4
 _ZN5DNSSD18ServiceTypeBrowser11qt_metacallEN11QMetaObject4CallEiPPv@Base 4:4.3.4
 _ZN5DNSSD18ServiceTypeBrowser11qt_metacastEPKc@Base 4:4.3.4
 _ZN5DNSSD18ServiceTypeBrowser11startBrowseEv@Base 4:4.3.4
 _ZN5DNSSD18ServiceTypeBrowser16serviceTypeAddedERK7QString@Base 4:4.3.4
 _ZN5DNSSD18ServiceTypeBrowser16staticMetaObjectE@Base 4:4.3.4
 _ZN5DNSSD18ServiceTypeBrowser18serviceTypeRemovedERK7QString@Base 4:4.3.4
 _ZN5DNSSD18ServiceTypeBrowser8finishedEv@Base 4:4.3.4
 _ZN5DNSSD18ServiceTypeBrowserC1ERK7QStringP7QObject@Base 4:4.3.4
 _ZN5DNSSD18ServiceTypeBrowserC2ERK7QStringP7QObject@Base 4:4.3.4
 _ZN5DNSSD18ServiceTypeBrowserD0Ev@Base 4:4.3.4
 _ZN5DNSSD18ServiceTypeBrowserD1Ev@Base 4:4.3.4
 _ZN5DNSSD18ServiceTypeBrowserD2Ev@Base 4:4.3.4
 _ZNK5DNSSD11DomainModel10metaObjectEv@Base 4:4.3.4
 _ZNK5DNSSD11DomainModel11columnCountERK11QModelIndex@Base 4:4.3.4
 _ZNK5DNSSD11DomainModel4dataERK11QModelIndexi@Base 4:4.3.4
 _ZNK5DNSSD11DomainModel5indexEiiRK11QModelIndex@Base 4:4.3.4
 _ZNK5DNSSD11DomainModel6parentERK11QModelIndex@Base 4:4.3.4
 _ZNK5DNSSD11DomainModel8hasIndexEiiRK11QModelIndex@Base 4:4.3.4
 _ZNK5DNSSD11DomainModel8rowCountERK11QModelIndex@Base 4:4.3.4
 _ZNK5DNSSD11ServiceBase11serviceNameEv@Base 4:4.3.4
 _ZNK5DNSSD11ServiceBase4portEv@Base 4:4.3.4
 _ZNK5DNSSD11ServiceBase4typeEv@Base 4:4.3.4
 _ZNK5DNSSD11ServiceBase6domainEv@Base 4:4.3.4
 _ZNK5DNSSD11ServiceBase8hostNameEv@Base 4:4.3.4
 _ZNK5DNSSD11ServiceBase8textDataEv@Base 4:4.3.4
 _ZNK5DNSSD11ServiceBaseeqERKS0_@Base 4:4.3.4
 _ZNK5DNSSD11ServiceBaseneERKS0_@Base 4:4.3.4
 _ZNK5DNSSD12ServiceModel10headerDataEiN2Qt11OrientationEi@Base 4:4.3.4
 _ZNK5DNSSD12ServiceModel10metaObjectEv@Base 4:4.3.4
 _ZNK5DNSSD12ServiceModel11columnCountERK11QModelIndex@Base 4:4.3.4
 _ZNK5DNSSD12ServiceModel4dataERK11QModelIndexi@Base 4:4.3.4
 _ZNK5DNSSD12ServiceModel5indexEiiRK11QModelIndex@Base 4:4.3.4
 _ZNK5DNSSD12ServiceModel6parentERK11QModelIndex@Base 4:4.3.4
 _ZNK5DNSSD12ServiceModel8hasIndexEiiRK11QModelIndex@Base 4:4.3.4
 _ZNK5DNSSD12ServiceModel8rowCountERK11QModelIndex@Base 4:4.3.4
 _ZNK5DNSSD13DomainBrowser10metaObjectEv@Base 4:4.3.4
 _ZNK5DNSSD13DomainBrowser7domainsEv@Base 4:4.3.4
 _ZNK5DNSSD13DomainBrowser9isRunningEv@Base 4:4.3.4
 _ZNK5DNSSD13PublicService10metaObjectEv@Base 4:4.3.4
 _ZNK5DNSSD13PublicService11isPublishedEv@Base 4:4.3.4
 _ZNK5DNSSD13PublicService8subtypesEv@Base 4:4.3.4
 _ZNK5DNSSD13RemoteService10isResolvedEv@Base 4:4.3.4
 _ZNK5DNSSD13RemoteService10metaObjectEv@Base 4:4.3.4
 _ZNK5DNSSD14ServiceBrowser10metaObjectEv@Base 4:4.3.4
 _ZNK5DNSSD14ServiceBrowser15isAutoResolvingEv@Base 4:4.3.4
 _ZNK5DNSSD14ServiceBrowser8servicesEv@Base 4:4.3.4
 _ZNK5DNSSD18ServiceTypeBrowser10metaObjectEv@Base 4:4.3.4
 _ZNK5DNSSD18ServiceTypeBrowser12serviceTypesEv@Base 4:4.3.4
 _ZNK5DNSSD18ServiceTypeBrowser9isRunningEv@Base 4:4.3.4
 _ZTIN5DNSSD11DomainModelE@Base 4:4.3.4
 _ZTIN5DNSSD11ServiceBaseE@Base 4:4.3.4
 _ZTIN5DNSSD12ServiceModelE@Base 4:4.3.4
 _ZTIN5DNSSD13ConfigurationE@Base 4:4.3.4
 _ZTIN5DNSSD13DomainBrowserE@Base 4:4.3.4
 _ZTIN5DNSSD13PublicServiceE@Base 4:4.3.4
 _ZTIN5DNSSD13RemoteServiceE@Base 4:4.3.4
 _ZTIN5DNSSD14ServiceBrowserE@Base 4:4.3.4
 _ZTIN5DNSSD18ServiceTypeBrowserE@Base 4:4.3.4
 _ZTSN5DNSSD11DomainModelE@Base 4:4.3.4
 _ZTSN5DNSSD11ServiceBaseE@Base 4:4.3.4
 _ZTSN5DNSSD12ServiceModelE@Base 4:4.3.4
 _ZTSN5DNSSD13ConfigurationE@Base 4:4.3.4
 _ZTSN5DNSSD13DomainBrowserE@Base 4:4.3.4
 _ZTSN5DNSSD13PublicServiceE@Base 4:4.3.4
 _ZTSN5DNSSD13RemoteServiceE@Base 4:4.3.4
 _ZTSN5DNSSD14ServiceBrowserE@Base 4:4.3.4
 _ZTSN5DNSSD18ServiceTypeBrowserE@Base 4:4.3.4
 _ZTVN5DNSSD11DomainModelE@Base 4:4.3.4
 _ZTVN5DNSSD11ServiceBaseE@Base 4:4.3.4
 _ZTVN5DNSSD12ServiceModelE@Base 4:4.3.4
 _ZTVN5DNSSD13ConfigurationE@Base 4:4.3.4
 _ZTVN5DNSSD13DomainBrowserE@Base 4:4.3.4
 _ZTVN5DNSSD13PublicServiceE@Base 4:4.3.4
 _ZTVN5DNSSD13RemoteServiceE@Base 4:4.3.4
 _ZTVN5DNSSD14ServiceBrowserE@Base 4:4.3.4
 _ZTVN5DNSSD18ServiceTypeBrowserE@Base 4:4.3.4
 (c++)"non-virtual thunk to DNSSD::PublicService::virtual_hook(int, void*)@Base" 4:4.3.4
 (c++)"non-virtual thunk to DNSSD::PublicService::~PublicService()@Base" 4:4.3.4
 (c++)"non-virtual thunk to DNSSD::RemoteService::virtual_hook(int, void*)@Base" 4:4.3.4
 (c++)"non-virtual thunk to DNSSD::RemoteService::~RemoteService()@Base" 4:4.3.4
