# SymbolsHelper-Confirmed: 4:4.4.95 amd64
libkunitconversion.so.4 libkunitconversion4 #MINVER#
* Build-Depends-Package: kdelibs5-dev
 _ZN15KUnitConversion12UnitCategory13addIdMapValueE10KSharedPtrINS_4UnitEEi@Base 4:4.4.0
 _ZN15KUnitConversion12UnitCategory14setDefaultUnitE10KSharedPtrINS_4UnitEE@Base 4:4.4.0
 _ZN15KUnitConversion12UnitCategory14setDescriptionERK7QString@Base 4:4.4.0
 _ZN15KUnitConversion12UnitCategory16addUnitMapValuesE10KSharedPtrINS_4UnitEERK7QString@Base 4:4.4.0
 _ZN15KUnitConversion12UnitCategory18setMostCommonUnitsERK5QListIiE@Base 4:4.4.95
 _ZN15KUnitConversion12UnitCategory21setSymbolStringFormatERK16KLocalizedString@Base 4:4.4.0
 _ZN15KUnitConversion12UnitCategory6setUrlERK4KUrl@Base 4:4.4.0
 _ZN15KUnitConversion12UnitCategory7convertERKNS_5ValueE10KSharedPtrINS_4UnitEE@Base 4:4.4.0
 _ZN15KUnitConversion12UnitCategory7convertERKNS_5ValueERK7QString@Base 4:4.4.0
 _ZN15KUnitConversion12UnitCategory7convertERKNS_5ValueEi@Base 4:4.4.0
 _ZN15KUnitConversion12UnitCategory7setNameERK7QString@Base 4:4.4.0
 _ZN15KUnitConversion12UnitCategoryC1Ei@Base 4:4.4.0
 _ZN15KUnitConversion12UnitCategoryC2Ei@Base 4:4.4.0
 _ZN15KUnitConversion12UnitCategoryD0Ev@Base 4:4.4.0
 _ZN15KUnitConversion12UnitCategoryD1Ev@Base 4:4.4.0
 _ZN15KUnitConversion12UnitCategoryD2Ev@Base 4:4.4.0
 _ZN15KUnitConversion4Unit13setMultiplierEd@Base 4:4.4.0
 _ZN15KUnitConversion4UnitC1EPNS_12UnitCategoryEiPKNS_7ComplexERK7QStringS8_S8_RK16KLocalizedStringSB_@Base 4:4.4.0
 _ZN15KUnitConversion4UnitC1EPNS_12UnitCategoryEidRK7QStringS5_S5_RK16KLocalizedStringS8_@Base 4:4.4.0
 _ZN15KUnitConversion4UnitC2EPNS_12UnitCategoryEiPKNS_7ComplexERK7QStringS8_S8_RK16KLocalizedStringSB_@Base 4:4.4.0
 _ZN15KUnitConversion4UnitC2EPNS_12UnitCategoryEidRK7QStringS5_S5_RK16KLocalizedStringS8_@Base 4:4.4.0
 _ZN15KUnitConversion4UnitD0Ev@Base 4:4.4.0
 _ZN15KUnitConversion4UnitD1Ev@Base 4:4.4.0
 _ZN15KUnitConversion4UnitD2Ev@Base 4:4.4.0
 _ZN15KUnitConversion5Value5roundEj@Base 4:4.4.0
 _ZN15KUnitConversion5ValueC1ERK8QVariantRK7QString@Base 4:4.4.0
 _ZN15KUnitConversion5ValueC1Ed10KSharedPtrINS_4UnitEE@Base 4:4.4.0
 _ZN15KUnitConversion5ValueC1EdRK7QString@Base 4:4.4.0
 _ZN15KUnitConversion5ValueC1Edi@Base 4:4.4.0
 _ZN15KUnitConversion5ValueC1Ev@Base 4:4.4.0
 _ZN15KUnitConversion5ValueC2ERK8QVariantRK7QString@Base 4:4.4.0
 _ZN15KUnitConversion5ValueC2Ed10KSharedPtrINS_4UnitEE@Base 4:4.4.0
 _ZN15KUnitConversion5ValueC2EdRK7QString@Base 4:4.4.0
 _ZN15KUnitConversion5ValueC2Edi@Base 4:4.4.0
 _ZN15KUnitConversion5ValueC2Ev@Base 4:4.4.0
 _ZN15KUnitConversion5ValueD1Ev@Base 4:4.4.0
 _ZN15KUnitConversion5ValueD2Ev@Base 4:4.4.0
 _ZN15KUnitConversion5ValueaSERKS0_@Base 4:4.4.0
 _ZN15KUnitConversion7ComplexC1Ev@Base 4:4.4.0
 _ZN15KUnitConversion7ComplexC2Ev@Base 4:4.4.0
 _ZN15KUnitConversion7ComplexD0Ev@Base 4:4.4.0
 _ZN15KUnitConversion7ComplexD1Ev@Base 4:4.4.0
 _ZN15KUnitConversion7ComplexD2Ev@Base 4:4.4.0
 _ZN15KUnitConversion9Converter11qt_metacallEN11QMetaObject4CallEiPPv@Base 4:4.4.0
 _ZN15KUnitConversion9Converter11qt_metacastEPKc@Base 4:4.4.0
 _ZN15KUnitConversion9Converter16staticMetaObjectE@Base 4:4.4.0
 _ZN15KUnitConversion9ConverterC1EP7QObject@Base 4:4.4.0
 _ZN15KUnitConversion9ConverterC2EP7QObject@Base 4:4.4.0
 _ZN15KUnitConversion9ConverterD0Ev@Base 4:4.4.0
 _ZN15KUnitConversion9ConverterD1Ev@Base 4:4.4.0
 _ZN15KUnitConversion9ConverterD2Ev@Base 4:4.4.0
 _ZNK15KUnitConversion12UnitCategory11defaultUnitEv@Base 4:4.4.0
 _ZNK15KUnitConversion12UnitCategory11descriptionEv@Base 4:4.4.0
 _ZNK15KUnitConversion12UnitCategory15mostCommonUnitsEv@Base 4:4.4.95
 _ZNK15KUnitConversion12UnitCategory18symbolStringFormatEv@Base 4:4.4.0
 _ZNK15KUnitConversion12UnitCategory2idEv@Base 4:4.4.0
 _ZNK15KUnitConversion12UnitCategory3urlEv@Base 4:4.4.0
 _ZNK15KUnitConversion12UnitCategory4nameEv@Base 4:4.4.0
 _ZNK15KUnitConversion12UnitCategory4unitERK7QString@Base 4:4.4.0
 _ZNK15KUnitConversion12UnitCategory4unitEi@Base 4:4.4.0
 _ZNK15KUnitConversion12UnitCategory5unitsEv@Base 4:4.4.0
 _ZNK15KUnitConversion12UnitCategory7hasUnitERK7QString@Base 4:4.4.0
 _ZNK15KUnitConversion12UnitCategory8allUnitsEv@Base 4:4.4.0
 _ZNK15KUnitConversion4Unit10multiplierEv@Base 4:4.4.0
 _ZNK15KUnitConversion4Unit11descriptionEv@Base 4:4.4.0
 _ZNK15KUnitConversion4Unit11fromDefaultEd@Base 4:4.4.0
 _ZNK15KUnitConversion4Unit14toSymbolStringEdiciRK5QChar@Base 4:4.4.0
 _ZNK15KUnitConversion4Unit2idEv@Base 4:4.4.0
 _ZNK15KUnitConversion4Unit6symbolEv@Base 4:4.4.0
 _ZNK15KUnitConversion4Unit7isValidEv@Base 4:4.4.0
 _ZNK15KUnitConversion4Unit8categoryEv@Base 4:4.4.0
 _ZNK15KUnitConversion4Unit8toStringEdiciRK5QChar@Base 4:4.4.0
 _ZNK15KUnitConversion4Unit9toDefaultEd@Base 4:4.4.0
 _ZNK15KUnitConversion5Value14toSymbolStringEiciRK5QChar@Base 4:4.4.0
 _ZNK15KUnitConversion5Value4unitEv@Base 4:4.4.0
 _ZNK15KUnitConversion5Value6numberEv@Base 4:4.4.0
 _ZNK15KUnitConversion5Value7isValidEv@Base 4:4.4.0
 _ZNK15KUnitConversion5Value8toStringEiciRK5QChar@Base 4:4.4.0
 _ZNK15KUnitConversion5Value9convertToE10KSharedPtrINS_4UnitEE@Base 4:4.4.0
 _ZNK15KUnitConversion5Value9convertToERK7QString@Base 4:4.4.0
 _ZNK15KUnitConversion5Value9convertToEi@Base 4:4.4.0
 _ZNK15KUnitConversion9Converter10categoriesEv@Base 4:4.4.0
 _ZNK15KUnitConversion9Converter10metaObjectEv@Base 4:4.4.0
 _ZNK15KUnitConversion9Converter15categoryForUnitERK7QString@Base 4:4.4.0
 _ZNK15KUnitConversion9Converter4unitERK7QString@Base 4:4.4.0
 _ZNK15KUnitConversion9Converter4unitEi@Base 4:4.4.0
 _ZNK15KUnitConversion9Converter7convertERKNS_5ValueE10KSharedPtrINS_4UnitEE@Base 4:4.4.0
 _ZNK15KUnitConversion9Converter7convertERKNS_5ValueERK7QString@Base 4:4.4.0
 _ZNK15KUnitConversion9Converter7convertERKNS_5ValueEi@Base 4:4.4.0
 _ZNK15KUnitConversion9Converter8categoryERK7QString@Base 4:4.4.0
 _ZNK15KUnitConversion9Converter8categoryEi@Base 4:4.4.0
 _ZTIN15KUnitConversion12UnitCategoryE@Base 4:4.4.0
 _ZTIN15KUnitConversion4UnitE@Base 4:4.4.0
 _ZTIN15KUnitConversion7ComplexE@Base 4:4.4.0
 _ZTIN15KUnitConversion9ConverterE@Base 4:4.4.0
 _ZTSN15KUnitConversion12UnitCategoryE@Base 4:4.4.0
 _ZTSN15KUnitConversion4UnitE@Base 4:4.4.0
 _ZTSN15KUnitConversion7ComplexE@Base 4:4.4.0
 _ZTSN15KUnitConversion9ConverterE@Base 4:4.4.0
 _ZTVN15KUnitConversion12UnitCategoryE@Base 4:4.4.0
 _ZTVN15KUnitConversion4UnitE@Base 4:4.4.0
 _ZTVN15KUnitConversion7ComplexE@Base 4:4.4.0
 _ZTVN15KUnitConversion9ConverterE@Base 4:4.4.0
