# SymbolsHelper-Confirmed: 4:4.7.4-5 armel
libktexteditor.so.4 libktexteditor4 #MINVER#
* Build-Depends-Package: kdelibs5-dev
 _ZN11KTextEditor10ConfigPage11qt_metacallEN11QMetaObject4CallEiPPv@Base 4:4.3.4
 _ZN11KTextEditor10ConfigPage11qt_metacastEPKc@Base 4:4.3.4
 _ZN11KTextEditor10ConfigPage16staticMetaObjectE@Base 4:4.3.4
 _ZN11KTextEditor10ConfigPage7changedEv@Base 4:4.3.4
 _ZN11KTextEditor10ConfigPageC1EP7QWidget@Base 4:4.3.4
 _ZN11KTextEditor10ConfigPageC2EP7QWidget@Base 4:4.3.4
 _ZN11KTextEditor10ConfigPageD0Ev@Base 4:4.3.4
 _ZN11KTextEditor10ConfigPageD1Ev@Base 4:4.3.4
 _ZN11KTextEditor10ConfigPageD2Ev@Base 4:4.3.4
 _ZN11KTextEditor10SmartRange10addWatcherEPNS_17SmartRangeWatcherE@Base 4:4.3.4
 _ZN11KTextEditor10SmartRange10removeTextEb@Base 4:4.3.4
 _ZN11KTextEditor10SmartRange11addNotifierEPNS_18SmartRangeNotifierE@Base 4:4.3.4
 _ZN11KTextEditor10SmartRange11replaceTextERK11QStringListb@Base 4:4.3.4
 _ZN11KTextEditor10SmartRange12rangeChangedEPNS_6CursorERKNS_5RangeE@Base 4:4.3.4
 _ZN11KTextEditor10SmartRange12setAttributeE10KSharedPtrINS_9AttributeEE@Base 4:4.3.4
 _ZN11KTextEditor10SmartRange13checkFeedbackEv@Base 4:4.3.4
 _ZN11KTextEditor10SmartRange13expandToRangeERKNS_5RangeE@Base 4:4.3.4
 _ZN11KTextEditor10SmartRange13removeWatcherEPNS_17SmartRangeWatcherE@Base 4:4.3.4
 _ZN11KTextEditor10SmartRange14confineToRangeERKNS_5RangeE@Base 4:4.3.4
 _ZN11KTextEditor10SmartRange14removeNotifierEPNS_18SmartRangeNotifierE@Base 4:4.3.4
 _ZN11KTextEditor10SmartRange14setParentRangeEPS0_@Base 4:4.3.4
 _ZN11KTextEditor10SmartRange15associateActionEP7KAction@Base 4:4.3.4
 _ZN11KTextEditor10SmartRange15primaryNotifierEv@Base 4:4.3.4
 _ZN11KTextEditor10SmartRange16clearChildRangesEv@Base 4:4.3.4
 _ZN11KTextEditor10SmartRange16dissociateActionEP7KAction@Base 4:4.3.4
 _ZN11KTextEditor10SmartRange16insertChildRangeEPS0_@Base 4:4.3.4
 _ZN11KTextEditor10SmartRange16removeChildRangeEPS0_@Base 4:4.3.4
 _ZN11KTextEditor10SmartRange17deleteChildRangesEv@Base 4:4.3.4
 _ZN11KTextEditor10SmartRange17setInsertBehaviorE6QFlagsINS0_14InsertBehaviorEE@Base 4:4.3.4
 _ZN11KTextEditor10SmartRange21deletePrimaryNotifierEv@Base 4:4.3.4
 _ZN11KTextEditor10SmartRange21rebuildChildStructureEv@Base 4:4.3.4
 _ZN11KTextEditor10SmartRange22clearAssociatedActionsEv@Base 4:4.3.4
 _ZN11KTextEditor10SmartRange25clearAndDeleteChildRangesEv@Base 4:4.3.4
 _ZN11KTextEditor10SmartRange8setRangeERKNS_5RangeE@Base 4:4.3.4
 _ZN11KTextEditor10SmartRangeC1EPNS_11SmartCursorES2_PS0_6QFlagsINS0_14InsertBehaviorEE@Base 4:4.3.4
 _ZN11KTextEditor10SmartRangeC2EPNS_11SmartCursorES2_PS0_6QFlagsINS0_14InsertBehaviorEE@Base 4:4.3.4
 _ZN11KTextEditor10SmartRangeD0Ev@Base 4:4.3.4
 _ZN11KTextEditor10SmartRangeD1Ev@Base 4:4.3.4
 _ZN11KTextEditor10SmartRangeD2Ev@Base 4:4.3.4
 _ZN11KTextEditor11MovingRange8setRangeERKNS_6CursorES3_@Base 4:4.4.95
 _ZN11KTextEditor11MovingRangeC1Ev@Base 4:4.4.95
 _ZN11KTextEditor11MovingRangeC2Ev@Base 4:4.4.95
 _ZN11KTextEditor11MovingRangeD0Ev@Base 4:4.4.95
 _ZN11KTextEditor11MovingRangeD1Ev@Base 4:4.4.95
 _ZN11KTextEditor11MovingRangeD2Ev@Base 4:4.4.95
 _ZN11KTextEditor11SmartCursor10insertTextERK11QStringListb@Base 4:4.3.4
 _ZN11KTextEditor11SmartCursor17setInsertBehaviorENS0_14InsertBehaviorE@Base 4:4.3.4
 _ZN11KTextEditor11SmartCursor7advanceEiNS0_11AdvanceModeE@Base 4:4.3.4
 _ZN11KTextEditor11SmartCursorC1ERKNS_6CursorEPNS_8DocumentENS0_14InsertBehaviorE@Base 4:4.3.4
 _ZN11KTextEditor11SmartCursorC2ERKNS_6CursorEPNS_8DocumentENS0_14InsertBehaviorE@Base 4:4.3.4
 _ZN11KTextEditor11SmartCursorD0Ev@Base 4:4.3.4
 _ZN11KTextEditor11SmartCursorD1Ev@Base 4:4.3.4
 _ZN11KTextEditor11SmartCursorD2Ev@Base 4:4.3.4
 _ZN11KTextEditor12MdiContainerC1Ev@Base 4:4.3.4
 _ZN11KTextEditor12MdiContainerC2Ev@Base 4:4.3.4
 _ZN11KTextEditor12MdiContainerD0Ev@Base 4:4.3.4
 _ZN11KTextEditor12MdiContainerD1Ev@Base 4:4.3.4
 _ZN11KTextEditor12MdiContainerD2Ev@Base 4:4.3.4
 _ZN11KTextEditor12MovingCursor11setPositionEii@Base 4:4.4.95
 _ZN11KTextEditor12MovingCursor12gotoNextLineEv@Base 4:4.4.95
 _ZN11KTextEditor12MovingCursor16gotoPreviousLineEv@Base 4:4.4.95
 _ZN11KTextEditor12MovingCursor4moveEiNS0_12WrapBehaviorE@Base 4:4.4.95
 _ZN11KTextEditor12MovingCursor7setLineEi@Base 4:4.4.95
 _ZN11KTextEditor12MovingCursor9setColumnEi@Base 4:4.4.95
 _ZN11KTextEditor12MovingCursorC1Ev@Base 4:4.4.95
 _ZN11KTextEditor12MovingCursorC2Ev@Base 4:4.4.95
 _ZN11KTextEditor12MovingCursorD0Ev@Base 4:4.4.95
 _ZN11KTextEditor12MovingCursorD1Ev@Base 4:4.4.95
 _ZN11KTextEditor12MovingCursorD2Ev@Base 4:4.4.95
 _ZN11KTextEditor12createPluginE10KSharedPtrI8KServiceEP7QObject@Base 4:4.3.4
 _ZN11KTextEditor13EditorChooser11qt_metacallEN11QMetaObject4CallEiPPv@Base 4:4.3.4
 _ZN11KTextEditor13EditorChooser11qt_metacastEPKc@Base 4:4.3.4
 _ZN11KTextEditor13EditorChooser14readAppSettingERK7QString@Base 4:4.3.4
 _ZN11KTextEditor13EditorChooser15writeAppSettingERK7QString@Base 4:4.3.4
 _ZN11KTextEditor13EditorChooser16staticMetaObjectE@Base 4:4.3.4
 _ZN11KTextEditor13EditorChooser6editorERK7QStringb@Base 4:4.3.4
 _ZN11KTextEditor13EditorChooser7changedEv@Base 4:4.3.4
 _ZN11KTextEditor13EditorChooserC1EP7QWidget@Base 4:4.3.4
 _ZN11KTextEditor13EditorChooserC2EP7QWidget@Base 4:4.3.4
 _ZN11KTextEditor13EditorChooserD0Ev@Base 4:4.3.4
 _ZN11KTextEditor13EditorChooserD1Ev@Base 4:4.3.4
 _ZN11KTextEditor13EditorChooserD2Ev@Base 4:4.3.4
 _ZN11KTextEditor13MarkInterfaceC1Ev@Base 4:4.3.4
 _ZN11KTextEditor13MarkInterfaceC2Ev@Base 4:4.3.4
 _ZN11KTextEditor13MarkInterfaceD0Ev@Base 4:4.3.4
 _ZN11KTextEditor13MarkInterfaceD1Ev@Base 4:4.3.4
 _ZN11KTextEditor13MarkInterfaceD2Ev@Base 4:4.3.4
 _ZN11KTextEditor13ModeInterfaceC1Ev@Base 4:4.4.95
 _ZN11KTextEditor13ModeInterfaceC2Ev@Base 4:4.4.95
 _ZN11KTextEditor13ModeInterfaceD0Ev@Base 4:4.4.95
 _ZN11KTextEditor13ModeInterfaceD1Ev@Base 4:4.4.95
 _ZN11KTextEditor13ModeInterfaceD2Ev@Base 4:4.4.95
 _ZN11KTextEditor14SmartInterface13clearRevisionEv@Base 4:4.3.4
 _ZN11KTextEditor14SmartInterface13newSmartRangeERKNS_6CursorES3_PNS_10SmartRangeE6QFlagsINS4_14InsertBehaviorEE@Base 4:4.3.4
 _ZN11KTextEditor14SmartInterface13newSmartRangeEiiiiPNS_10SmartRangeE6QFlagsINS1_14InsertBehaviorEE@Base 4:4.3.4
 _ZN11KTextEditor14SmartInterface14newSmartCursorEiiNS_11SmartCursor14InsertBehaviorE@Base 4:4.3.4
 _ZN11KTextEditor14SmartInterface24setClearOnDocumentReloadEb@Base 4:4.3.4
 _ZN11KTextEditor14SmartInterfaceC1Ev@Base 4:4.3.4
 _ZN11KTextEditor14SmartInterfaceC2Ev@Base 4:4.3.4
 _ZN11KTextEditor14SmartInterfaceD0Ev@Base 4:4.3.4
 _ZN11KTextEditor14SmartInterfaceD1Ev@Base 4:4.3.4
 _ZN11KTextEditor14SmartInterfaceD2Ev@Base 4:4.3.4
 _ZN11KTextEditor14TemplateScriptD0Ev@Base 4:4.4.95
 _ZN11KTextEditor14TemplateScriptD1Ev@Base 4:4.4.95
 _ZN11KTextEditor14TemplateScriptD2Ev@Base 4:4.4.95
 _ZN11KTextEditor15AnnotationModel11lineChangedEi@Base 4:4.3.4
 _ZN11KTextEditor15AnnotationModel11qt_metacallEN11QMetaObject4CallEiPPv@Base 4:4.3.4
 _ZN11KTextEditor15AnnotationModel11qt_metacastEPKc@Base 4:4.3.4
 _ZN11KTextEditor15AnnotationModel16staticMetaObjectE@Base 4:4.3.4
 _ZN11KTextEditor15AnnotationModel5resetEv@Base 4:4.3.4
 _ZN11KTextEditor15ConfigInterfaceC1Ev@Base 4:4.3.4
 _ZN11KTextEditor15ConfigInterfaceC2Ev@Base 4:4.3.4
 _ZN11KTextEditor15ConfigInterfaceD0Ev@Base 4:4.3.4
 _ZN11KTextEditor15ConfigInterfaceD1Ev@Base 4:4.3.4
 _ZN11KTextEditor15ConfigInterfaceD2Ev@Base 4:4.3.4
 _ZN11KTextEditor15MovingInterfaceC1Ev@Base 4:4.4.95
 _ZN11KTextEditor15MovingInterfaceC2Ev@Base 4:4.4.95
 _ZN11KTextEditor15MovingInterfaceD0Ev@Base 4:4.4.95
 _ZN11KTextEditor15MovingInterfaceD1Ev@Base 4:4.4.95
 _ZN11KTextEditor15MovingInterfaceD2Ev@Base 4:4.4.95
 _ZN11KTextEditor15SearchInterfaceC1Ev@Base 4:4.3.4
 _ZN11KTextEditor15SearchInterfaceC2Ev@Base 4:4.3.4
 _ZN11KTextEditor15SearchInterfaceD0Ev@Base 4:4.3.4
 _ZN11KTextEditor15SearchInterfaceD1Ev@Base 4:4.3.4
 _ZN11KTextEditor15SearchInterfaceD2Ev@Base 4:4.3.4
 _ZN11KTextEditor16ViewBarContainerC1Ev@Base 4:4.3.4
 _ZN11KTextEditor16ViewBarContainerC2Ev@Base 4:4.3.4
 _ZN11KTextEditor16ViewBarContainerD0Ev@Base 4:4.3.4
 _ZN11KTextEditor16ViewBarContainerD1Ev@Base 4:4.3.4
 _ZN11KTextEditor16ViewBarContainerD2Ev@Base 4:4.3.4
 _ZN11KTextEditor17RecoveryInterfaceC1Ev@Base 4:4.5.85
 _ZN11KTextEditor17RecoveryInterfaceC2Ev@Base 4:4.5.85
 _ZN11KTextEditor17RecoveryInterfaceD0Ev@Base 4:4.5.85
 _ZN11KTextEditor17RecoveryInterfaceD1Ev@Base 4:4.5.85
 _ZN11KTextEditor17RecoveryInterfaceD2Ev@Base 4:4.5.85
 _ZN11KTextEditor17SmartRangeWatcher12rangeDeletedEPNS_10SmartRangeE@Base 4:4.3.4
 _ZN11KTextEditor17SmartRangeWatcher15rangeEliminatedEPNS_10SmartRangeE@Base 4:4.3.4
 _ZN11KTextEditor17SmartRangeWatcher16caretExitedRangeEPNS_10SmartRangeEPNS_4ViewE@Base 4:4.3.4
 _ZN11KTextEditor17SmartRangeWatcher16mouseExitedRangeEPNS_10SmartRangeEPNS_4ViewE@Base 4:4.3.4
 _ZN11KTextEditor17SmartRangeWatcher17caretEnteredRangeEPNS_10SmartRangeEPNS_4ViewE@Base 4:4.3.4
 _ZN11KTextEditor17SmartRangeWatcher17childRangeRemovedEPNS_10SmartRangeES2_@Base 4:4.3.4
 _ZN11KTextEditor17SmartRangeWatcher17mouseEnteredRangeEPNS_10SmartRangeEPNS_4ViewE@Base 4:4.3.4
 _ZN11KTextEditor17SmartRangeWatcher18childRangeInsertedEPNS_10SmartRangeES2_@Base 4:4.3.4
 _ZN11KTextEditor17SmartRangeWatcher18parentRangeChangedEPNS_10SmartRangeES2_S2_@Base 4:4.3.4
 _ZN11KTextEditor17SmartRangeWatcher20rangeContentsChangedEPNS_10SmartRangeE@Base 4:4.3.4
 _ZN11KTextEditor17SmartRangeWatcher20rangeContentsChangedEPNS_10SmartRangeES2_@Base 4:4.3.4
 _ZN11KTextEditor17SmartRangeWatcher20rangePositionChangedEPNS_10SmartRangeE@Base 4:4.3.4
 _ZN11KTextEditor17SmartRangeWatcher21rangeAttributeChangedEPNS_10SmartRangeE10KSharedPtrINS_9AttributeEES5_@Base 4:4.3.4
 _ZN11KTextEditor17SmartRangeWatcher21setWantsDirectChangesEb@Base 4:4.3.4
 _ZN11KTextEditor17SmartRangeWatcherC1Ev@Base 4:4.3.4
 _ZN11KTextEditor17SmartRangeWatcherC2Ev@Base 4:4.3.4
 _ZN11KTextEditor17SmartRangeWatcherD0Ev@Base 4:4.3.4
 _ZN11KTextEditor17SmartRangeWatcherD1Ev@Base 4:4.3.4
 _ZN11KTextEditor17SmartRangeWatcherD2Ev@Base 4:4.3.4
 _ZN11KTextEditor17TemplateInterface12expandMacrosER4QMapI7QStringS2_EP7QWidget@Base 4:4.3.4
 _ZN11KTextEditor17TemplateInterface18insertTemplateTextERKNS_6CursorERK7QStringRK4QMapIS4_S4_E@Base 4:4.3.4
 _ZN11KTextEditor17TemplateInterface30KTE_INTERNAL_setupIntialValuesERK7QStringP4QMapIS1_S1_E@Base 4:4.4.95
 _ZN11KTextEditor17TemplateInterfaceC1Ev@Base 4:4.3.4
 _ZN11KTextEditor17TemplateInterfaceC2Ev@Base 4:4.3.4
 _ZN11KTextEditor17TemplateInterfaceD0Ev@Base 4:4.3.4
 _ZN11KTextEditor17TemplateInterfaceD1Ev@Base 4:4.3.4
 _ZN11KTextEditor17TemplateInterfaceD2Ev@Base 4:4.3.4
 _ZN11KTextEditor17TextHintInterfaceC1Ev@Base 4:4.3.4
 _ZN11KTextEditor17TextHintInterfaceC2Ev@Base 4:4.3.4
 _ZN11KTextEditor17TextHintInterfaceD0Ev@Base 4:4.3.4
 _ZN11KTextEditor17TextHintInterfaceD1Ev@Base 4:4.3.4
 _ZN11KTextEditor17TextHintInterfaceD2Ev@Base 4:4.3.4
 _ZN11KTextEditor17VariableInterfaceC1Ev@Base 4:4.3.4
 _ZN11KTextEditor17VariableInterfaceC2Ev@Base 4:4.3.4
 _ZN11KTextEditor17VariableInterfaceD0Ev@Base 4:4.3.4
 _ZN11KTextEditor17VariableInterfaceD1Ev@Base 4:4.3.4
 _ZN11KTextEditor17VariableInterfaceD2Ev@Base 4:4.3.4
 _ZN11KTextEditor18ContainerInterfaceC1Ev@Base 4:4.3.4
 _ZN11KTextEditor18ContainerInterfaceC2Ev@Base 4:4.3.4
 _ZN11KTextEditor18ContainerInterfaceD0Ev@Base 4:4.3.4
 _ZN11KTextEditor18ContainerInterfaceD1Ev@Base 4:4.3.4
 _ZN11KTextEditor18ContainerInterfaceD2Ev@Base 4:4.3.4
 _ZN11KTextEditor18HighlightInterfaceC1Ev@Base 4:4.4.0
 _ZN11KTextEditor18HighlightInterfaceC2Ev@Base 4:4.4.0
 _ZN11KTextEditor18HighlightInterfaceD0Ev@Base 4:4.4.0
 _ZN11KTextEditor18HighlightInterfaceD1Ev@Base 4:4.4.0
 _ZN11KTextEditor18HighlightInterfaceD2Ev@Base 4:4.4.0
 _ZN11KTextEditor18SmartCursorWatcher15positionChangedEPNS_11SmartCursorE@Base 4:4.3.4
 _ZN11KTextEditor18SmartCursorWatcher15positionDeletedEPNS_11SmartCursorE@Base 4:4.3.4
 _ZN11KTextEditor18SmartCursorWatcher16characterDeletedEPNS_11SmartCursorEb@Base 4:4.3.4
 _ZN11KTextEditor18SmartCursorWatcher17characterInsertedEPNS_11SmartCursorEb@Base 4:4.3.4
 _ZN11KTextEditor18SmartCursorWatcher21setWantsDirectChangesEb@Base 4:4.3.4
 _ZN11KTextEditor18SmartCursorWatcher7deletedEPNS_11SmartCursorE@Base 4:4.3.4
 _ZN11KTextEditor18SmartCursorWatcherC1Ev@Base 4:4.3.4
 _ZN11KTextEditor18SmartCursorWatcherC2Ev@Base 4:4.3.4
 _ZN11KTextEditor18SmartCursorWatcherD0Ev@Base 4:4.3.4
 _ZN11KTextEditor18SmartCursorWatcherD1Ev@Base 4:4.3.4
 _ZN11KTextEditor18SmartCursorWatcherD2Ev@Base 4:4.3.4
 _ZN11KTextEditor18SmartRangeNotifier11qt_metacallEN11QMetaObject4CallEiPPv@Base 4:4.3.4
 _ZN11KTextEditor18SmartRangeNotifier11qt_metacastEPKc@Base 4:4.3.4
 _ZN11KTextEditor18SmartRangeNotifier12rangeDeletedEPNS_10SmartRangeE@Base 4:4.3.4
 _ZN11KTextEditor18SmartRangeNotifier15rangeEliminatedEPNS_10SmartRangeE@Base 4:4.3.4
 _ZN11KTextEditor18SmartRangeNotifier16caretExitedRangeEPNS_10SmartRangeEPNS_4ViewE@Base 4:4.3.4
 _ZN11KTextEditor18SmartRangeNotifier16mouseExitedRangeEPNS_10SmartRangeEPNS_4ViewE@Base 4:4.3.4
 _ZN11KTextEditor18SmartRangeNotifier16staticMetaObjectE@Base 4:4.3.4
 _ZN11KTextEditor18SmartRangeNotifier17caretEnteredRangeEPNS_10SmartRangeEPNS_4ViewE@Base 4:4.3.4
 _ZN11KTextEditor18SmartRangeNotifier17childRangeRemovedEPNS_10SmartRangeES2_@Base 4:4.3.4
 _ZN11KTextEditor18SmartRangeNotifier17mouseEnteredRangeEPNS_10SmartRangeEPNS_4ViewE@Base 4:4.3.4
 _ZN11KTextEditor18SmartRangeNotifier18childRangeInsertedEPNS_10SmartRangeES2_@Base 4:4.3.4
 _ZN11KTextEditor18SmartRangeNotifier18parentRangeChangedEPNS_10SmartRangeES2_S2_@Base 4:4.3.4
 _ZN11KTextEditor18SmartRangeNotifier20rangeContentsChangedEPNS_10SmartRangeE@Base 4:4.3.4
 _ZN11KTextEditor18SmartRangeNotifier20rangeContentsChangedEPNS_10SmartRangeES2_@Base 4:4.3.4
 _ZN11KTextEditor18SmartRangeNotifier20rangePositionChangedEPNS_10SmartRangeE@Base 4:4.3.4
 _ZN11KTextEditor18SmartRangeNotifier21rangeAttributeChangedEPNS_10SmartRangeE10KSharedPtrINS_9AttributeEES5_@Base 4:4.3.4
 _ZN11KTextEditor18SmartRangeNotifier21setWantsDirectChangesEb@Base 4:4.3.4
 _ZN11KTextEditor18SmartRangeNotifierC1Ev@Base 4:4.3.4
 _ZN11KTextEditor18SmartRangeNotifierC2Ev@Base 4:4.3.4
 _ZN11KTextEditor18SmartRangeNotifierD0Ev@Base 4:4.7.4
 _ZN11KTextEditor18SmartRangeNotifierD1Ev@Base 4:4.7.4
 _ZN11KTextEditor18SmartRangeNotifierD2Ev@Base 4:4.7.4
 _ZN11KTextEditor18TemplateInterface218insertTemplateTextERKNS_6CursorERK7QStringRK4QMapIS4_S4_EPNS_14TemplateScriptE@Base 4:4.4.95
 _ZN11KTextEditor18TemplateInterface2C1Ev@Base 4:4.4.95
 _ZN11KTextEditor18TemplateInterface2C2Ev@Base 4:4.4.95
 _ZN11KTextEditor18TemplateInterface2D0Ev@Base 4:4.4.95
 _ZN11KTextEditor18TemplateInterface2D1Ev@Base 4:4.4.95
 _ZN11KTextEditor18TemplateInterface2D2Ev@Base 4:4.4.95
 _ZN11KTextEditor19CodeCompletionModel11qt_metacallEN11QMetaObject4CallEiPPv@Base 4:4.3.4
 _ZN11KTextEditor19CodeCompletionModel11qt_metacastEPKc@Base 4:4.3.4
 _ZN11KTextEditor19CodeCompletionModel11setRowCountEi@Base 4:4.3.4
 _ZN11KTextEditor19CodeCompletionModel12setHasGroupsEb@Base 4:4.3.4
 _ZN11KTextEditor19CodeCompletionModel12waitForResetEv@Base 4:4.3.4
 _ZN11KTextEditor19CodeCompletionModel16hasGroupsChangedEPS0_b@Base 4:4.3.4
 _ZN11KTextEditor19CodeCompletionModel16staticMetaObjectE@Base 4:4.3.4
 _ZN11KTextEditor19CodeCompletionModel17completionInvokedEPNS_4ViewERKNS_5RangeENS0_14InvocationTypeE@Base 4:4.3.4
 _ZN11KTextEditor19CodeCompletionModelC1EP7QObject@Base 4:4.3.4
 _ZN11KTextEditor19CodeCompletionModelC2EP7QObject@Base 4:4.3.4
 _ZN11KTextEditor19CodeCompletionModelD0Ev@Base 4:4.3.4
 _ZN11KTextEditor19CodeCompletionModelD1Ev@Base 4:4.3.4
 _ZN11KTextEditor19CodeCompletionModelD2Ev@Base 4:4.3.4
 _ZN11KTextEditor19MovingRangeFeedback10rangeEmptyEPNS_11MovingRangeE@Base 4:4.4.95
 _ZN11KTextEditor19MovingRangeFeedback12rangeInvalidEPNS_11MovingRangeE@Base 4:4.4.95
 _ZN11KTextEditor19MovingRangeFeedback16caretExitedRangeEPNS_11MovingRangeEPNS_4ViewE@Base 4:4.4.95
 _ZN11KTextEditor19MovingRangeFeedback16mouseExitedRangeEPNS_11MovingRangeEPNS_4ViewE@Base 4:4.4.95
 _ZN11KTextEditor19MovingRangeFeedback17caretEnteredRangeEPNS_11MovingRangeEPNS_4ViewE@Base 4:4.4.95
 _ZN11KTextEditor19MovingRangeFeedback17mouseEnteredRangeEPNS_11MovingRangeEPNS_4ViewE@Base 4:4.4.95
 _ZN11KTextEditor19MovingRangeFeedbackC1Ev@Base 4:4.4.95
 _ZN11KTextEditor19MovingRangeFeedbackC2Ev@Base 4:4.4.95
 _ZN11KTextEditor19MovingRangeFeedbackD0Ev@Base 4:4.4.95
 _ZN11KTextEditor19MovingRangeFeedbackD1Ev@Base 4:4.4.95
 _ZN11KTextEditor19MovingRangeFeedbackD2Ev@Base 4:4.4.95
 _ZN11KTextEditor19SmartCursorNotifier11qt_metacallEN11QMetaObject4CallEiPPv@Base 4:4.3.4
 _ZN11KTextEditor19SmartCursorNotifier11qt_metacastEPKc@Base 4:4.3.4
 _ZN11KTextEditor19SmartCursorNotifier15positionChangedEPNS_11SmartCursorE@Base 4:4.3.4
 _ZN11KTextEditor19SmartCursorNotifier15positionDeletedEPNS_11SmartCursorE@Base 4:4.3.4
 _ZN11KTextEditor19SmartCursorNotifier16characterDeletedEPNS_11SmartCursorEb@Base 4:4.3.4
 _ZN11KTextEditor19SmartCursorNotifier16staticMetaObjectE@Base 4:4.3.4
 _ZN11KTextEditor19SmartCursorNotifier17characterInsertedEPNS_11SmartCursorEb@Base 4:4.3.4
 _ZN11KTextEditor19SmartCursorNotifier21setWantsDirectChangesEb@Base 4:4.3.4
 _ZN11KTextEditor19SmartCursorNotifier7deletedEPNS_11SmartCursorE@Base 4:4.3.4
 _ZN11KTextEditor19SmartCursorNotifierC1Ev@Base 4:4.3.4
 _ZN11KTextEditor19SmartCursorNotifierC2Ev@Base 4:4.3.4
 _ZN11KTextEditor19SmartCursorNotifierD0Ev@Base 4:4.7.4
 _ZN11KTextEditor19SmartCursorNotifierD1Ev@Base 4:4.7.4
 _ZN11KTextEditor19SmartCursorNotifierD2Ev@Base 4:4.7.4
 _ZN11KTextEditor20CodeCompletionModel211qt_metacallEN11QMetaObject4CallEiPPv@Base 4:4.3.4
 _ZN11KTextEditor20CodeCompletionModel211qt_metacastEPKc@Base 4:4.3.4
 _ZN11KTextEditor20CodeCompletionModel216staticMetaObjectE@Base 4:4.3.4
 _ZN11KTextEditor20CodeCompletionModel2C1EP7QObject@Base 4:4.3.4
 _ZN11KTextEditor20CodeCompletionModel2C2EP7QObject@Base 4:4.3.4
 _ZN11KTextEditor20CodeCompletionModel2D0Ev@Base 4:4.7.4
 _ZN11KTextEditor20CodeCompletionModel2D1Ev@Base 4:4.7.4
 _ZN11KTextEditor20CodeCompletionModel2D2Ev@Base 4:4.7.4
 _ZN11KTextEditor21ModificationInterfaceC1Ev@Base 4:4.3.4
 _ZN11KTextEditor21ModificationInterfaceC2Ev@Base 4:4.3.4
 _ZN11KTextEditor21ModificationInterfaceD0Ev@Base 4:4.3.4
 _ZN11KTextEditor21ModificationInterfaceD1Ev@Base 4:4.3.4
 _ZN11KTextEditor21ModificationInterfaceD2Ev@Base 4:4.3.4
 _ZN11KTextEditor22SessionConfigInterfaceC1Ev@Base 4:4.3.4
 _ZN11KTextEditor22SessionConfigInterfaceC2Ev@Base 4:4.3.4
 _ZN11KTextEditor22SessionConfigInterfaceD0Ev@Base 4:4.3.4
 _ZN11KTextEditor22SessionConfigInterfaceD1Ev@Base 4:4.3.4
 _ZN11KTextEditor22SessionConfigInterfaceD2Ev@Base 4:4.3.4
 _ZN11KTextEditor23CodeCompletionInterfaceD0Ev@Base 4:4.3.4
 _ZN11KTextEditor23CodeCompletionInterfaceD1Ev@Base 4:4.3.4
 _ZN11KTextEditor23CodeCompletionInterfaceD2Ev@Base 4:4.3.4
 _ZN11KTextEditor23TemplateScriptRegistrarC1Ev@Base 4:4.4.95
 _ZN11KTextEditor23TemplateScriptRegistrarC2Ev@Base 4:4.4.95
 _ZN11KTextEditor23TemplateScriptRegistrarD0Ev@Base 4:4.4.95
 _ZN11KTextEditor23TemplateScriptRegistrarD1Ev@Base 4:4.4.95
 _ZN11KTextEditor23TemplateScriptRegistrarD2Ev@Base 4:4.4.95
 _ZN11KTextEditor25LoadSaveFilterCheckPlugin11qt_metacallEN11QMetaObject4CallEiPPv@Base 4:4.3.4
 _ZN11KTextEditor25LoadSaveFilterCheckPlugin11qt_metacastEPKc@Base 4:4.3.4
 _ZN11KTextEditor25LoadSaveFilterCheckPlugin16staticMetaObjectE@Base 4:4.3.4
 _ZN11KTextEditor25LoadSaveFilterCheckPluginC1EP7QObject@Base 4:4.3.4
 _ZN11KTextEditor25LoadSaveFilterCheckPluginC2EP7QObject@Base 4:4.3.4
 _ZN11KTextEditor25LoadSaveFilterCheckPluginD0Ev@Base 4:4.3.4
 _ZN11KTextEditor25LoadSaveFilterCheckPluginD1Ev@Base 4:4.3.4
 _ZN11KTextEditor25LoadSaveFilterCheckPluginD2Ev@Base 4:4.3.4
 _ZN11KTextEditor28CoordinatesToCursorInterfaceD0Ev@Base 4:4.3.4
 _ZN11KTextEditor28CoordinatesToCursorInterfaceD1Ev@Base 4:4.3.4
 _ZN11KTextEditor28CoordinatesToCursorInterfaceD2Ev@Base 4:4.3.4
 _ZN11KTextEditor35ParameterizedSessionConfigInterfaceC1Ev@Base 4:4.4.0
 _ZN11KTextEditor35ParameterizedSessionConfigInterfaceC2Ev@Base 4:4.4.0
 _ZN11KTextEditor35ParameterizedSessionConfigInterfaceD0Ev@Base 4:4.4.0
 _ZN11KTextEditor35ParameterizedSessionConfigInterfaceD1Ev@Base 4:4.4.0
 _ZN11KTextEditor35ParameterizedSessionConfigInterfaceD2Ev@Base 4:4.4.0
 _ZN11KTextEditor38CodeCompletionModelControllerInterface12filterStringEPNS_4ViewERKNS_10SmartRangeERKNS_6CursorE@Base 4:4.3.4
 _ZN11KTextEditor38CodeCompletionModelControllerInterface13shouldExecuteERK11QModelIndex5QChar@Base 4:4.3.4
 _ZN11KTextEditor38CodeCompletionModelControllerInterface15completionRangeEPNS_4ViewERKNS_6CursorE@Base 4:4.3.4
 _ZN11KTextEditor38CodeCompletionModelControllerInterface21shouldAbortCompletionEPNS_4ViewERKNS_10SmartRangeERK7QString@Base 4:4.3.4
 _ZN11KTextEditor38CodeCompletionModelControllerInterface21shouldStartCompletionEPNS_4ViewERK7QStringbRKNS_6CursorE@Base 4:4.3.4
 _ZN11KTextEditor38CodeCompletionModelControllerInterface21updateCompletionRangeEPNS_4ViewERNS_10SmartRangeE@Base 4:4.3.4
 _ZN11KTextEditor38CodeCompletionModelControllerInterface7abortedEPNS_4ViewE@Base 4:4.3.4
 _ZN11KTextEditor38CodeCompletionModelControllerInterfaceC1Ev@Base 4:4.3.4
 _ZN11KTextEditor38CodeCompletionModelControllerInterfaceC2Ev@Base 4:4.3.4
 _ZN11KTextEditor38CodeCompletionModelControllerInterfaceD0Ev@Base 4:4.3.4
 _ZN11KTextEditor38CodeCompletionModelControllerInterfaceD1Ev@Base 4:4.3.4
 _ZN11KTextEditor38CodeCompletionModelControllerInterfaceD2Ev@Base 4:4.3.4
 _ZN11KTextEditor39CodeCompletionModelControllerInterface212matchingItemERK11QModelIndex@Base 4:4.3.4
 _ZN11KTextEditor39CodeCompletionModelControllerInterface2D0Ev@Base 4:4.7.4
 _ZN11KTextEditor39CodeCompletionModelControllerInterface2D1Ev@Base 4:4.7.4
 _ZN11KTextEditor39CodeCompletionModelControllerInterface2D2Ev@Base 4:4.7.4
 _ZN11KTextEditor39CodeCompletionModelControllerInterface312filterStringEPNS_4ViewERKNS_5RangeERKNS_6CursorE@Base 4:4.4.95
 _ZN11KTextEditor39CodeCompletionModelControllerInterface312matchingItemERK11QModelIndex@Base 4:4.4.95
 _ZN11KTextEditor39CodeCompletionModelControllerInterface313shouldExecuteERK11QModelIndex5QChar@Base 4:4.4.95
 _ZN11KTextEditor39CodeCompletionModelControllerInterface315completionRangeEPNS_4ViewERKNS_6CursorE@Base 4:4.4.95
 _ZN11KTextEditor39CodeCompletionModelControllerInterface321shouldAbortCompletionEPNS_4ViewERKNS_5RangeERK7QString@Base 4:4.4.95
 _ZN11KTextEditor39CodeCompletionModelControllerInterface321shouldStartCompletionEPNS_4ViewERK7QStringbRKNS_6CursorE@Base 4:4.4.95
 _ZN11KTextEditor39CodeCompletionModelControllerInterface321updateCompletionRangeEPNS_4ViewERKNS_5RangeE@Base 4:4.4.95
 _ZN11KTextEditor39CodeCompletionModelControllerInterface37abortedEPNS_4ViewE@Base 4:4.4.95
 _ZN11KTextEditor39CodeCompletionModelControllerInterface3C1Ev@Base 4:4.4.95
 _ZN11KTextEditor39CodeCompletionModelControllerInterface3C2Ev@Base 4:4.4.95
 _ZN11KTextEditor39CodeCompletionModelControllerInterface3D0Ev@Base 4:4.4.95
 _ZN11KTextEditor39CodeCompletionModelControllerInterface3D1Ev@Base 4:4.4.95
 _ZN11KTextEditor39CodeCompletionModelControllerInterface3D2Ev@Base 4:4.4.95
 _ZN11KTextEditor4View10insertTextERK7QString@Base 4:4.3.4
 _ZN11KTextEditor4View11qt_metacallEN11QMetaObject4CallEiPPv@Base 4:4.3.4
 _ZN11KTextEditor4View11qt_metacastEPKc@Base 4:4.3.4
 _ZN11KTextEditor4View12setSelectionERKNS_6CursorEib@Base 4:4.3.4
 _ZN11KTextEditor4View12textInsertedEPS0_RKNS_6CursorERK7QString@Base 4:4.3.4
 _ZN11KTextEditor4View15viewModeChangedEPS0_@Base 4:4.3.4
 _ZN11KTextEditor4View16selectionChangedEPS0_@Base 4:4.3.4
 _ZN11KTextEditor4View16staticMetaObjectE@Base 4:4.3.4
 _ZN11KTextEditor4View18informationMessageEPS0_RK7QString@Base 4:4.3.4
 _ZN11KTextEditor4View19viewEditModeChangedEPS0_NS0_8EditModeE@Base 4:4.3.4
 _ZN11KTextEditor4View20mousePositionChangedEPS0_RKNS_6CursorE@Base 4:4.3.4
 _ZN11KTextEditor4View21cursorPositionChangedEPS0_RKNS_6CursorE@Base 4:4.3.4
 _ZN11KTextEditor4View22contextMenuAboutToShowEPS0_P5QMenu@Base 4:4.3.4
 _ZN11KTextEditor4View29verticalScrollPositionChangedEPS0_RKNS_6CursorE@Base 4:4.3.4
 _ZN11KTextEditor4View31horizontalScrollPositionChangedEPS0_@Base 4:4.3.4
 _ZN11KTextEditor4View7focusInEPS0_@Base 4:4.3.4
 _ZN11KTextEditor4View8focusOutEPS0_@Base 4:4.3.4
 _ZN11KTextEditor4ViewC1EP7QWidget@Base 4:4.3.4
 _ZN11KTextEditor4ViewC2EP7QWidget@Base 4:4.3.4
 _ZN11KTextEditor4ViewD0Ev@Base 4:4.3.4
 _ZN11KTextEditor4ViewD1Ev@Base 4:4.3.4
 _ZN11KTextEditor4ViewD2Ev@Base 4:4.3.4
 _ZN11KTextEditor5Range12rangeChangedEPNS_6CursorERKS0_@Base 4:4.3.4
 _ZN11KTextEditor5Range12setBothLinesEi@Base 4:4.3.4
 _ZN11KTextEditor5Range13expandToRangeERKS0_@Base 4:4.3.4
 _ZN11KTextEditor5Range14confineToRangeERKS0_@Base 4:4.3.4
 _ZN11KTextEditor5Range14setBothColumnsEi@Base 4:4.3.4
 _ZN11KTextEditor5Range3endEv@Base 4:4.3.4
 _ZN11KTextEditor5Range5startEv@Base 4:4.3.4
 _ZN11KTextEditor5Range7invalidEv@Base 4:4.3.4
 _ZN11KTextEditor5Range8setRangeERKNS_6CursorES3_@Base 4:4.3.4
 _ZN11KTextEditor5Range8setRangeERKS0_@Base 4:4.3.4
 _ZN11KTextEditor5RangeC1EPNS_6CursorES2_@Base 4:4.3.4
 _ZN11KTextEditor5RangeC1ERKNS_6CursorES3_@Base 4:4.3.4
 _ZN11KTextEditor5RangeC1ERKNS_6CursorEi@Base 4:4.3.4
 _ZN11KTextEditor5RangeC1ERKNS_6CursorEii@Base 4:4.3.4
 _ZN11KTextEditor5RangeC1ERKS0_@Base 4:4.3.4
 _ZN11KTextEditor5RangeC1Eiiii@Base 4:4.3.4
 _ZN11KTextEditor5RangeC1Ev@Base 4:4.3.4
 _ZN11KTextEditor5RangeC2EPNS_6CursorES2_@Base 4:4.3.4
 _ZN11KTextEditor5RangeC2ERKNS_6CursorES3_@Base 4:4.3.4
 _ZN11KTextEditor5RangeC2ERKNS_6CursorEi@Base 4:4.3.4
 _ZN11KTextEditor5RangeC2ERKNS_6CursorEii@Base 4:4.3.4
 _ZN11KTextEditor5RangeC2ERKS0_@Base 4:4.3.4
 _ZN11KTextEditor5RangeC2Eiiii@Base 4:4.3.4
 _ZN11KTextEditor5RangeC2Ev@Base 4:4.3.4
 _ZN11KTextEditor5RangeD0Ev@Base 4:4.3.4
 _ZN11KTextEditor5RangeD1Ev@Base 4:4.3.4
 _ZN11KTextEditor5RangeD2Ev@Base 4:4.3.4
 _ZN11KTextEditor6Cursor11setPositionERKS0_@Base 4:4.3.4
 _ZN11KTextEditor6Cursor11setPositionEii@Base 4:4.3.4
 _ZN11KTextEditor6Cursor21cursorChangedDirectlyERKS0_@Base 4:4.3.4
 _ZN11KTextEditor6Cursor5startEv@Base 4:4.3.4
 _ZN11KTextEditor6Cursor7invalidEv@Base 4:4.3.4
 _ZN11KTextEditor6Cursor7setLineEi@Base 4:4.3.4
 _ZN11KTextEditor6Cursor8setRangeEPNS_5RangeE@Base 4:4.3.4
 _ZN11KTextEditor6Cursor9setColumnEi@Base 4:4.3.4
 _ZN11KTextEditor6CursorC1ERKS0_@Base 4:4.3.4
 _ZN11KTextEditor6CursorC1Eii@Base 4:4.3.4
 _ZN11KTextEditor6CursorC1Ev@Base 4:4.3.4
 _ZN11KTextEditor6CursorC2ERKS0_@Base 4:4.3.4
 _ZN11KTextEditor6CursorC2Eii@Base 4:4.3.4
 _ZN11KTextEditor6CursorC2Ev@Base 4:4.3.4
 _ZN11KTextEditor6CursorD0Ev@Base 4:4.3.4
 _ZN11KTextEditor6CursorD1Ev@Base 4:4.3.4
 _ZN11KTextEditor6CursorD2Ev@Base 4:4.3.4
 _ZN11KTextEditor6Editor11qt_metacallEN11QMetaObject4CallEiPPv@Base 4:4.3.4
 _ZN11KTextEditor6Editor11qt_metacastEPKc@Base 4:4.3.4
 _ZN11KTextEditor6Editor13setSimpleModeEb@Base 4:4.3.4
 _ZN11KTextEditor6Editor15documentCreatedEPS0_PNS_8DocumentE@Base 4:4.3.4
 _ZN11KTextEditor6Editor16staticMetaObjectE@Base 4:4.3.4
 _ZN11KTextEditor6Editor18setDefaultEncodingERK7QString@Base 4:4.4.95
 _ZN11KTextEditor6EditorC1EP7QObject@Base 4:4.3.4
 _ZN11KTextEditor6EditorC2EP7QObject@Base 4:4.3.4
 _ZN11KTextEditor6EditorD0Ev@Base 4:4.3.4
 _ZN11KTextEditor6EditorD1Ev@Base 4:4.3.4
 _ZN11KTextEditor6EditorD2Ev@Base 4:4.3.4
 _ZN11KTextEditor6Plugin11qt_metacallEN11QMetaObject4CallEiPPv@Base 4:4.3.4
 _ZN11KTextEditor6Plugin11qt_metacastEPKc@Base 4:4.3.4
 _ZN11KTextEditor6Plugin16staticMetaObjectE@Base 4:4.3.4
 _ZN11KTextEditor6PluginC1EP7QObject@Base 4:4.3.4
 _ZN11KTextEditor6PluginC2EP7QObject@Base 4:4.3.4
 _ZN11KTextEditor6PluginD0Ev@Base 4:4.3.4
 _ZN11KTextEditor6PluginD1Ev@Base 4:4.3.4
 _ZN11KTextEditor6PluginD2Ev@Base 4:4.3.4
 _ZN11KTextEditor6editorEPKc@Base 4:4.3.4
 _ZN11KTextEditor7Factory11qt_metacallEN11QMetaObject4CallEiPPv@Base 4:4.3.4
 _ZN11KTextEditor7Factory11qt_metacastEPKc@Base 4:4.3.4
 _ZN11KTextEditor7Factory16staticMetaObjectE@Base 4:4.3.4
 _ZN11KTextEditor7FactoryC1EP7QObject@Base 4:4.3.4
 _ZN11KTextEditor7FactoryC2EP7QObject@Base 4:4.3.4
 _ZN11KTextEditor7FactoryD0Ev@Base 4:4.3.4
 _ZN11KTextEditor7FactoryD1Ev@Base 4:4.3.4
 _ZN11KTextEditor7FactoryD2Ev@Base 4:4.3.4
 _ZN11KTextEditor8Document11modeChangedEPS0_@Base 4:4.3.4
 _ZN11KTextEditor8Document11qt_metacallEN11QMetaObject4CallEiPPv@Base 4:4.3.4
 _ZN11KTextEditor8Document11qt_metacastEPKc@Base 4:4.3.4
 _ZN11KTextEditor8Document11replaceTextERKNS_5RangeERK11QStringListb@Base 4:4.3.4
 _ZN11KTextEditor8Document11replaceTextERKNS_5RangeERK7QStringb@Base 4:4.3.4
 _ZN11KTextEditor8Document11textChangedEPS0_@Base 4:4.3.4
 _ZN11KTextEditor8Document11textChangedEPS0_RKNS_5RangeERK7QStringS4_@Base 4:4.4.95
 _ZN11KTextEditor8Document11textChangedEPS0_RKNS_5RangeES4_@Base 4:4.3.4
 _ZN11KTextEditor8Document11textRemovedEPS0_RKNS_5RangeE@Base 4:4.3.4
 _ZN11KTextEditor8Document11textRemovedEPS0_RKNS_5RangeERK7QString@Base 4:4.4.95
 _ZN11KTextEditor8Document11viewCreatedEPS0_PNS_4ViewE@Base 4:4.3.4
 _ZN11KTextEditor8Document12aboutToCloseEPS0_@Base 4:4.3.4
 _ZN11KTextEditor8Document12cursorInTextERKNS_6CursorE@Base 4:4.3.4
 _ZN11KTextEditor8Document12textInsertedEPS0_RKNS_5RangeE@Base 4:4.3.4
 _ZN11KTextEditor8Document13aboutToReloadEPS0_@Base 4:4.3.4
 _ZN11KTextEditor8Document15modifiedChangedEPS0_@Base 4:4.3.4
 _ZN11KTextEditor8Document15setOpeningErrorEb@Base 4:4.3.4
 _ZN11KTextEditor8Document16exclusiveEditEndEPS0_@Base 4:4.4.95
 _ZN11KTextEditor8Document16staticMetaObjectE@Base 4:4.3.4
 _ZN11KTextEditor8Document18documentUrlChangedEPS0_@Base 4:4.3.4
 _ZN11KTextEditor8Document18exclusiveEditStartEPS0_@Base 4:4.4.95
 _ZN11KTextEditor8Document19documentNameChangedEPS0_@Base 4:4.3.4
 _ZN11KTextEditor8Document22setOpeningErrorMessageERK7QString@Base 4:4.3.4
 _ZN11KTextEditor8Document23documentSavedOrUploadedEPS0_b@Base 4:4.3.4
 _ZN11KTextEditor8Document23highlightingModeChangedEPS0_@Base 4:4.3.4
 _ZN11KTextEditor8Document30setSuppressOpeningErrorDialogsEb@Base 4:4.3.4
 _ZN11KTextEditor8Document8reloadedEPS0_@Base 4:4.5.85
 _ZN11KTextEditor8DocumentC1EP7QObject@Base 4:4.3.4
 _ZN11KTextEditor8DocumentC2EP7QObject@Base 4:4.3.4
 _ZN11KTextEditor8DocumentD0Ev@Base 4:4.3.4
 _ZN11KTextEditor8DocumentD1Ev@Base 4:4.3.4
 _ZN11KTextEditor8DocumentD2Ev@Base 4:4.3.4
 _ZN11KTextEditor9Attribute10setEffectsE6QFlagsINS0_6EffectEE@Base 4:4.3.4
 _ZN11KTextEditor9Attribute10setOutlineERK6QBrush@Base 4:4.3.4
 _ZN11KTextEditor9Attribute11setFontBoldEb@Base 4:4.3.4
 _ZN11KTextEditor9Attribute19setDynamicAttributeENS0_14ActivationTypeE10KSharedPtrIS0_E@Base 4:4.3.4
 _ZN11KTextEditor9Attribute21setSelectedBackgroundERK6QBrush@Base 4:4.3.4
 _ZN11KTextEditor9Attribute21setSelectedForegroundERK6QBrush@Base 4:4.3.4
 _ZN11KTextEditor9Attribute22clearAssociatedActionsEv@Base 4:4.3.4
 _ZN11KTextEditor9Attribute27setBackgroundFillWhitespaceEb@Base 4:4.3.4
 _ZN11KTextEditor9Attribute5clearEv@Base 4:4.3.4
 _ZN11KTextEditor9AttributeC1ERKS0_@Base 4:4.3.4
 _ZN11KTextEditor9AttributeC1Ev@Base 4:4.3.4
 _ZN11KTextEditor9AttributeC2ERKS0_@Base 4:4.3.4
 _ZN11KTextEditor9AttributeC2Ev@Base 4:4.3.4
 _ZN11KTextEditor9AttributeD0Ev@Base 4:4.3.4
 _ZN11KTextEditor9AttributeD1Ev@Base 4:4.3.4
 _ZN11KTextEditor9AttributeD2Ev@Base 4:4.3.4
 _ZN11KTextEditor9AttributeaSERKS0_@Base 4:4.3.4
 _ZN11KTextEditor9AttributepLERKS0_@Base 4:4.3.4
 _ZNK11KTextEditor10ConfigPage10metaObjectEv@Base 4:4.3.4
 _ZNK11KTextEditor10SmartRange10childAfterEPKS0_@Base 4:4.3.4
 _ZNK11KTextEditor10SmartRange11childBeforeEPKS0_@Base 4:4.3.4
 _ZNK11KTextEditor10SmartRange11childRangesEv@Base 4:4.3.4
 _ZNK11KTextEditor10SmartRange12isSmartRangeEv@Base 4:4.3.4
 _ZNK11KTextEditor10SmartRange12overlapCountEv@Base 4:4.3.4
 _ZNK11KTextEditor10SmartRange12toSmartRangeEv@Base 4:4.3.4
 _ZNK11KTextEditor10SmartRange14insertBehaviorEv@Base 4:4.3.4
 _ZNK11KTextEditor10SmartRange17mostSpecificRangeERKNS_5RangeE@Base 4:4.3.4
 _ZNK11KTextEditor10SmartRange20firstRangeContainingERKNS_6CursorE@Base 4:4.3.4
 _ZNK11KTextEditor10SmartRange22deepestRangeContainingERKNS_6CursorEP6QStackIPS0_ES7_@Base 4:4.3.4
 _ZNK11KTextEditor10SmartRange23deepestRangesContainingERKNS_6CursorE@Base 4:4.3.4
 _ZNK11KTextEditor10SmartRange30deepestRangeContainingInternalERKNS_6CursorEP6QStackIPS0_ES7_b@Base 4:4.3.4
 _ZNK11KTextEditor10SmartRange4textEb@Base 4:4.3.4
 _ZNK11KTextEditor10SmartRange8documentEv@Base 4:4.3.4
 _ZNK11KTextEditor10SmartRange8watchersEv@Base 4:4.3.4
 _ZNK11KTextEditor10SmartRange9attributeEv@Base 4:4.3.4
 _ZNK11KTextEditor10SmartRange9hasParentEPS0_@Base 4:4.3.4
 _ZNK11KTextEditor10SmartRange9notifiersEv@Base 4:4.3.4
 _ZNK11KTextEditor11MovingRange8overlapsERKNS_5RangeE@Base 4:4.4.95
 _ZNK11KTextEditor11SmartCursor10smartRangeEv@Base 4:4.3.4
 _ZNK11KTextEditor11SmartCursor11atEndOfLineEv@Base 4:4.3.4
 _ZNK11KTextEditor11SmartCursor13isSmartCursorEv@Base 4:4.3.4
 _ZNK11KTextEditor11SmartCursor13toSmartCursorEv@Base 4:4.3.4
 _ZNK11KTextEditor11SmartCursor14insertBehaviorEv@Base 4:4.3.4
 _ZNK11KTextEditor11SmartCursor15atEndOfDocumentEv@Base 4:4.3.4
 _ZNK11KTextEditor11SmartCursor7isValidEv@Base 4:4.3.4
 _ZNK11KTextEditor11SmartCursor8documentEv@Base 4:4.3.4
 _ZNK11KTextEditor11SmartCursor9characterEv@Base 4:4.3.4
 _ZNK11KTextEditor12MovingCursor11atEndOfLineEv@Base 4:4.4.95
 _ZNK11KTextEditor12MovingCursor13atStartOfLineEv@Base 4:4.4.95
 _ZNK11KTextEditor12MovingCursor15atEndOfDocumentEv@Base 4:4.4.95
 _ZNK11KTextEditor12MovingCursor17atStartOfDocumentEv@Base 4:4.4.95
 _ZNK11KTextEditor13EditorChooser10metaObjectEv@Base 4:4.3.4
 _ZNK11KTextEditor14SmartInterface10smartMutexEv@Base 4:4.3.4
 _ZNK11KTextEditor14SmartInterface21clearOnDocumentReloadEv@Base 4:4.3.4
 _ZNK11KTextEditor14SmartInterface21translateFromRevisionERKNS_5RangeE6QFlagsINS_10SmartRange14InsertBehaviorEE@Base 4:4.3.4
 _ZNK11KTextEditor14SmartInterface21translateFromRevisionERKNS_6CursorENS_11SmartCursor14InsertBehaviorE@Base 4:4.3.4
 _ZNK11KTextEditor15AnnotationModel10metaObjectEv@Base 4:4.3.4
 _ZNK11KTextEditor17SmartRangeWatcher18wantsDirectChangesEv@Base 4:4.3.4
 _ZNK11KTextEditor18SmartCursorWatcher18wantsDirectChangesEv@Base 4:4.3.4
 _ZNK11KTextEditor18SmartRangeNotifier10metaObjectEv@Base 4:4.3.4
 _ZNK11KTextEditor18SmartRangeNotifier18wantsDirectChangesEv@Base 4:4.3.4
 _ZNK11KTextEditor19CodeCompletionModel10metaObjectEv@Base 4:4.3.4
 _ZNK11KTextEditor19CodeCompletionModel11columnCountERK11QModelIndex@Base 4:4.3.4
 _ZNK11KTextEditor19CodeCompletionModel21executeCompletionItemEPNS_8DocumentERKNS_5RangeEi@Base 4:4.3.4
 _ZNK11KTextEditor19CodeCompletionModel5indexEiiRK11QModelIndex@Base 4:4.3.4
 _ZNK11KTextEditor19CodeCompletionModel6parentERK11QModelIndex@Base 4:4.3.4
 _ZNK11KTextEditor19CodeCompletionModel8itemDataERK11QModelIndex@Base 4:4.3.4
 _ZNK11KTextEditor19CodeCompletionModel8rowCountERK11QModelIndex@Base 4:4.3.4
 _ZNK11KTextEditor19CodeCompletionModel9hasGroupsEv@Base 4:4.3.4
 _ZNK11KTextEditor19SmartCursorNotifier10metaObjectEv@Base 4:4.3.4
 _ZNK11KTextEditor19SmartCursorNotifier18wantsDirectChangesEv@Base 4:4.3.4
 _ZNK11KTextEditor20CodeCompletionModel210metaObjectEv@Base 4:4.3.4
 _ZNK11KTextEditor20CodeCompletionModel222executeCompletionItem2EPNS_8DocumentERKNS_5RangeERK11QModelIndex@Base 4:4.3.4
 _ZNK11KTextEditor25LoadSaveFilterCheckPlugin10metaObjectEv@Base 4:4.3.4
 _ZNK11KTextEditor4View10metaObjectEv@Base 4:4.3.4
 _ZNK11KTextEditor4View12isActiveViewEv@Base 4:4.3.4
 _ZNK11KTextEditor5Range11columnWidthEv@Base 4:4.3.4
 _ZNK11KTextEditor5Range12containsLineEi@Base 4:4.3.4
 _ZNK11KTextEditor5Range12isSmartRangeEv@Base 4:4.3.4
 _ZNK11KTextEditor5Range12onSingleLineEv@Base 4:4.3.4
 _ZNK11KTextEditor5Range12overlapsLineEi@Base 4:4.3.4
 _ZNK11KTextEditor5Range12toSmartRangeEv@Base 4:4.3.4
 _ZNK11KTextEditor5Range13numberOfLinesEv@Base 4:4.3.4
 _ZNK11KTextEditor5Range14boundaryOnLineEi@Base 4:4.3.4
 _ZNK11KTextEditor5Range14containsColumnEi@Base 4:4.3.4
 _ZNK11KTextEditor5Range14overlapsColumnEi@Base 4:4.3.4
 _ZNK11KTextEditor5Range16boundaryAtCursorERKNS_6CursorE@Base 4:4.3.4
 _ZNK11KTextEditor5Range22positionRelativeToLineEi@Base 4:4.3.4
 _ZNK11KTextEditor5Range24positionRelativeToCursorERKNS_6CursorE@Base 4:4.3.4
 _ZNK11KTextEditor5Range3endEv@Base 4:4.3.4
 _ZNK11KTextEditor5Range5startEv@Base 4:4.3.4
 _ZNK11KTextEditor5Range7isEmptyEv@Base 4:4.3.4
 _ZNK11KTextEditor5Range7isValidEv@Base 4:4.3.4
 _ZNK11KTextEditor5Range8containsERKNS_6CursorE@Base 4:4.3.4
 _ZNK11KTextEditor5Range8containsERKS0_@Base 4:4.3.4
 _ZNK11KTextEditor5Range8overlapsERKS0_@Base 4:4.3.4
 _ZNK11KTextEditor5Range9encompassERKS0_@Base 4:4.3.4
 _ZNK11KTextEditor5Range9intersectERKS0_@Base 4:4.3.4
 _ZNK11KTextEditor6Cursor13atStartOfLineEv@Base 4:4.3.4
 _ZNK11KTextEditor6Cursor13isSmartCursorEv@Base 4:4.3.4
 _ZNK11KTextEditor6Cursor13toSmartCursorEv@Base 4:4.3.4
 _ZNK11KTextEditor6Cursor17atStartOfDocumentEv@Base 4:4.3.4
 _ZNK11KTextEditor6Cursor4lineEv@Base 4:4.3.4
 _ZNK11KTextEditor6Cursor5rangeEv@Base 4:4.3.4
 _ZNK11KTextEditor6Cursor6columnEv@Base 4:4.3.4
 _ZNK11KTextEditor6Cursor7isValidEv@Base 4:4.3.4
 _ZNK11KTextEditor6Cursor8positionERiS1_@Base 4:4.3.4
 _ZNK11KTextEditor6Editor10metaObjectEv@Base 4:4.3.4
 _ZNK11KTextEditor6Editor10simpleModeEv@Base 4:4.3.4
 _ZNK11KTextEditor6Editor15defaultEncodingEv@Base 4:4.4.95
 _ZNK11KTextEditor6Plugin10metaObjectEv@Base 4:4.3.4
 _ZNK11KTextEditor7Factory10metaObjectEv@Base 4:4.3.4
 _ZNK11KTextEditor8Document10metaObjectEv@Base 4:4.3.4
 _ZNK11KTextEditor8Document12openingErrorEv@Base 4:4.3.4
 _ZNK11KTextEditor8Document19openingErrorMessageEv@Base 4:4.3.4
 _ZNK11KTextEditor8Document27suppressOpeningErrorDialogsEv@Base 4:4.3.4
 _ZNK11KTextEditor8Document7isEmptyEv@Base 4:4.3.4
 _ZNK11KTextEditor9Attribute14hasAnyPropertyEv@Base 4:4.3.4
 _ZNK11KTextEditor9Attribute16dynamicAttributeENS0_14ActivationTypeE@Base 4:4.3.4
 _ZNK11KTextEditor9Attribute17associatedActionsEv@Base 4:4.3.4
 _ZNK11KTextEditor9Attribute18selectedBackgroundEv@Base 4:4.3.4
 _ZNK11KTextEditor9Attribute18selectedForegroundEv@Base 4:4.3.4
 _ZNK11KTextEditor9Attribute24backgroundFillWhitespaceEv@Base 4:4.3.4
 _ZNK11KTextEditor9Attribute7effectsEv@Base 4:4.3.4
 _ZNK11KTextEditor9Attribute7outlineEv@Base 4:4.3.4
 _ZNK11KTextEditor9Attribute8fontBoldEv@Base 4:4.3.4
 _ZTIN11KTextEditor10ConfigPageE@Base 4:4.3.4
 _ZTIN11KTextEditor10SmartRangeE@Base 4:4.3.4
 _ZTIN11KTextEditor11MovingRangeE@Base 4:4.4.95
 _ZTIN11KTextEditor11SmartCursorE@Base 4:4.3.4
 _ZTIN11KTextEditor12MdiContainerE@Base 4:4.3.4
 _ZTIN11KTextEditor12MovingCursorE@Base 4:4.4.95
 _ZTIN11KTextEditor13EditorChooserE@Base 4:4.3.4
 _ZTIN11KTextEditor13MarkInterfaceE@Base 4:4.3.4
 _ZTIN11KTextEditor13ModeInterfaceE@Base 4:4.4.95
 _ZTIN11KTextEditor14SmartInterfaceE@Base 4:4.3.4
 _ZTIN11KTextEditor14TemplateScriptE@Base 4:4.4.95
 _ZTIN11KTextEditor15AnnotationModelE@Base 4:4.3.4
 _ZTIN11KTextEditor15ConfigInterfaceE@Base 4:4.3.4
 _ZTIN11KTextEditor15MovingInterfaceE@Base 4:4.4.95
 _ZTIN11KTextEditor15SearchInterfaceE@Base 4:4.3.4
 _ZTIN11KTextEditor16ViewBarContainerE@Base 4:4.3.4
 _ZTIN11KTextEditor17RecoveryInterfaceE@Base 4:4.5.85
 _ZTIN11KTextEditor17SmartRangeWatcherE@Base 4:4.3.4
 _ZTIN11KTextEditor17TemplateInterfaceE@Base 4:4.3.4
 _ZTIN11KTextEditor17TextHintInterfaceE@Base 4:4.3.4
 _ZTIN11KTextEditor17VariableInterfaceE@Base 4:4.3.4
 _ZTIN11KTextEditor18ContainerInterfaceE@Base 4:4.3.4
 _ZTIN11KTextEditor18HighlightInterfaceE@Base 4:4.4.0
 _ZTIN11KTextEditor18SmartCursorWatcherE@Base 4:4.3.4
 _ZTIN11KTextEditor18SmartRangeNotifierE@Base 4:4.3.4
 _ZTIN11KTextEditor18TemplateInterface2E@Base 4:4.4.95
 _ZTIN11KTextEditor19CodeCompletionModelE@Base 4:4.3.4
 _ZTIN11KTextEditor19MovingRangeFeedbackE@Base 4:4.4.95
 _ZTIN11KTextEditor19SmartCursorNotifierE@Base 4:4.3.4
 _ZTIN11KTextEditor20CodeCompletionModel2E@Base 4:4.3.4
 _ZTIN11KTextEditor21ModificationInterfaceE@Base 4:4.3.4
 _ZTIN11KTextEditor22SessionConfigInterfaceE@Base 4:4.3.4
 _ZTIN11KTextEditor23CodeCompletionInterfaceE@Base 4:4.3.4
 _ZTIN11KTextEditor23TemplateScriptRegistrarE@Base 4:4.4.95
 _ZTIN11KTextEditor25LoadSaveFilterCheckPluginE@Base 4:4.3.4
 _ZTIN11KTextEditor28CoordinatesToCursorInterfaceE@Base 4:4.3.4
 _ZTIN11KTextEditor35ParameterizedSessionConfigInterfaceE@Base 4:4.4.0
 _ZTIN11KTextEditor38CodeCompletionModelControllerInterfaceE@Base 4:4.3.4
 _ZTIN11KTextEditor39CodeCompletionModelControllerInterface2E@Base 4:4.3.4
 _ZTIN11KTextEditor39CodeCompletionModelControllerInterface3E@Base 4:4.4.95
 _ZTIN11KTextEditor4ViewE@Base 4:4.3.4
 _ZTIN11KTextEditor5RangeE@Base 4:4.3.4
 _ZTIN11KTextEditor6CursorE@Base 4:4.3.4
 _ZTIN11KTextEditor6EditorE@Base 4:4.3.4
 _ZTIN11KTextEditor6PluginE@Base 4:4.3.4
 _ZTIN11KTextEditor7FactoryE@Base 4:4.3.4
 _ZTIN11KTextEditor8DocumentE@Base 4:4.3.4
 _ZTIN11KTextEditor9AttributeE@Base 4:4.3.4
 _ZTSN11KTextEditor10ConfigPageE@Base 4:4.3.4
 _ZTSN11KTextEditor10SmartRangeE@Base 4:4.3.4
 _ZTSN11KTextEditor11MovingRangeE@Base 4:4.4.95
 _ZTSN11KTextEditor11SmartCursorE@Base 4:4.3.4
 _ZTSN11KTextEditor12MdiContainerE@Base 4:4.3.4
 _ZTSN11KTextEditor12MovingCursorE@Base 4:4.4.95
 _ZTSN11KTextEditor13EditorChooserE@Base 4:4.3.4
 _ZTSN11KTextEditor13MarkInterfaceE@Base 4:4.3.4
 _ZTSN11KTextEditor13ModeInterfaceE@Base 4:4.4.95
 _ZTSN11KTextEditor14SmartInterfaceE@Base 4:4.3.4
 _ZTSN11KTextEditor14TemplateScriptE@Base 4:4.4.95
 _ZTSN11KTextEditor15AnnotationModelE@Base 4:4.3.4
 _ZTSN11KTextEditor15ConfigInterfaceE@Base 4:4.3.4
 _ZTSN11KTextEditor15MovingInterfaceE@Base 4:4.4.95
 _ZTSN11KTextEditor15SearchInterfaceE@Base 4:4.3.4
 _ZTSN11KTextEditor16ViewBarContainerE@Base 4:4.3.4
 _ZTSN11KTextEditor17RecoveryInterfaceE@Base 4:4.5.85
 _ZTSN11KTextEditor17SmartRangeWatcherE@Base 4:4.3.4
 _ZTSN11KTextEditor17TemplateInterfaceE@Base 4:4.3.4
 _ZTSN11KTextEditor17TextHintInterfaceE@Base 4:4.3.4
 _ZTSN11KTextEditor17VariableInterfaceE@Base 4:4.3.4
 _ZTSN11KTextEditor18ContainerInterfaceE@Base 4:4.3.4
 _ZTSN11KTextEditor18HighlightInterfaceE@Base 4:4.4.0
 _ZTSN11KTextEditor18SmartCursorWatcherE@Base 4:4.3.4
 _ZTSN11KTextEditor18SmartRangeNotifierE@Base 4:4.3.4
 _ZTSN11KTextEditor18TemplateInterface2E@Base 4:4.4.95
 _ZTSN11KTextEditor19CodeCompletionModelE@Base 4:4.3.4
 _ZTSN11KTextEditor19MovingRangeFeedbackE@Base 4:4.4.95
 _ZTSN11KTextEditor19SmartCursorNotifierE@Base 4:4.3.4
 _ZTSN11KTextEditor20CodeCompletionModel2E@Base 4:4.3.4
 _ZTSN11KTextEditor21ModificationInterfaceE@Base 4:4.3.4
 _ZTSN11KTextEditor22SessionConfigInterfaceE@Base 4:4.3.4
 _ZTSN11KTextEditor23CodeCompletionInterfaceE@Base 4:4.3.4
 _ZTSN11KTextEditor23TemplateScriptRegistrarE@Base 4:4.4.95
 _ZTSN11KTextEditor25LoadSaveFilterCheckPluginE@Base 4:4.3.4
 _ZTSN11KTextEditor28CoordinatesToCursorInterfaceE@Base 4:4.3.4
 _ZTSN11KTextEditor35ParameterizedSessionConfigInterfaceE@Base 4:4.4.0
 _ZTSN11KTextEditor38CodeCompletionModelControllerInterfaceE@Base 4:4.3.4
 _ZTSN11KTextEditor39CodeCompletionModelControllerInterface2E@Base 4:4.3.4
 _ZTSN11KTextEditor39CodeCompletionModelControllerInterface3E@Base 4:4.4.95
 _ZTSN11KTextEditor4ViewE@Base 4:4.3.4
 _ZTSN11KTextEditor5RangeE@Base 4:4.3.4
 _ZTSN11KTextEditor6CursorE@Base 4:4.3.4
 _ZTSN11KTextEditor6EditorE@Base 4:4.3.4
 _ZTSN11KTextEditor6PluginE@Base 4:4.3.4
 _ZTSN11KTextEditor7FactoryE@Base 4:4.3.4
 _ZTSN11KTextEditor8DocumentE@Base 4:4.3.4
 _ZTSN11KTextEditor9AttributeE@Base 4:4.3.4
 _ZTTN11KTextEditor8DocumentE@Base 4:4.3.4
 _ZTVN11KTextEditor10ConfigPageE@Base 4:4.3.4
 _ZTVN11KTextEditor10SmartRangeE@Base 4:4.3.4
 _ZTVN11KTextEditor11MovingRangeE@Base 4:4.4.95
 _ZTVN11KTextEditor11SmartCursorE@Base 4:4.3.4
 _ZTVN11KTextEditor12MdiContainerE@Base 4:4.3.4
 _ZTVN11KTextEditor12MovingCursorE@Base 4:4.4.95
 _ZTVN11KTextEditor13EditorChooserE@Base 4:4.3.4
 _ZTVN11KTextEditor13MarkInterfaceE@Base 4:4.3.4
 _ZTVN11KTextEditor13ModeInterfaceE@Base 4:4.4.95
 _ZTVN11KTextEditor14SmartInterfaceE@Base 4:4.3.4
 _ZTVN11KTextEditor14TemplateScriptE@Base 4:4.4.95
 _ZTVN11KTextEditor15AnnotationModelE@Base 4:4.3.4
 _ZTVN11KTextEditor15ConfigInterfaceE@Base 4:4.3.4
 _ZTVN11KTextEditor15MovingInterfaceE@Base 4:4.4.95
 _ZTVN11KTextEditor15SearchInterfaceE@Base 4:4.3.4
 _ZTVN11KTextEditor16ViewBarContainerE@Base 4:4.3.4
 _ZTVN11KTextEditor17RecoveryInterfaceE@Base 4:4.5.85
 _ZTVN11KTextEditor17SmartRangeWatcherE@Base 4:4.3.4
 _ZTVN11KTextEditor17TemplateInterfaceE@Base 4:4.3.4
 _ZTVN11KTextEditor17TextHintInterfaceE@Base 4:4.3.4
 _ZTVN11KTextEditor17VariableInterfaceE@Base 4:4.3.4
 _ZTVN11KTextEditor18ContainerInterfaceE@Base 4:4.3.4
 _ZTVN11KTextEditor18HighlightInterfaceE@Base 4:4.4.0
 _ZTVN11KTextEditor18SmartCursorWatcherE@Base 4:4.3.4
 _ZTVN11KTextEditor18SmartRangeNotifierE@Base 4:4.3.4
 _ZTVN11KTextEditor18TemplateInterface2E@Base 4:4.4.95
 _ZTVN11KTextEditor19CodeCompletionModelE@Base 4:4.3.4
 _ZTVN11KTextEditor19MovingRangeFeedbackE@Base 4:4.4.95
 _ZTVN11KTextEditor19SmartCursorNotifierE@Base 4:4.3.4
 _ZTVN11KTextEditor20CodeCompletionModel2E@Base 4:4.3.4
 _ZTVN11KTextEditor21ModificationInterfaceE@Base 4:4.3.4
 _ZTVN11KTextEditor22SessionConfigInterfaceE@Base 4:4.3.4
 _ZTVN11KTextEditor23CodeCompletionInterfaceE@Base 4:4.3.4
 _ZTVN11KTextEditor23TemplateScriptRegistrarE@Base 4:4.4.95
 _ZTVN11KTextEditor25LoadSaveFilterCheckPluginE@Base 4:4.3.4
 _ZTVN11KTextEditor28CoordinatesToCursorInterfaceE@Base 4:4.3.4
 _ZTVN11KTextEditor35ParameterizedSessionConfigInterfaceE@Base 4:4.4.0
 _ZTVN11KTextEditor38CodeCompletionModelControllerInterfaceE@Base 4:4.3.4
 _ZTVN11KTextEditor39CodeCompletionModelControllerInterface2E@Base 4:4.3.4
 _ZTVN11KTextEditor39CodeCompletionModelControllerInterface3E@Base 4:4.4.95
 _ZTVN11KTextEditor4ViewE@Base 4:4.3.4
 _ZTVN11KTextEditor5RangeE@Base 4:4.3.4
 _ZTVN11KTextEditor6CursorE@Base 4:4.3.4
 _ZTVN11KTextEditor6EditorE@Base 4:4.3.4
 _ZTVN11KTextEditor6PluginE@Base 4:4.3.4
 _ZTVN11KTextEditor7FactoryE@Base 4:4.3.4
 _ZTVN11KTextEditor8DocumentE@Base 4:4.3.4
 _ZTVN11KTextEditor9AttributeE@Base 4:4.3.4
 (c++)"construction vtable for KParts::Part-in-KTextEditor::Document@Base" 4:4.3.4
 (c++)"construction vtable for KParts::PartBase-in-KTextEditor::Document@Base" 4:4.3.4
 (c++)"construction vtable for KParts::ReadOnlyPart-in-KTextEditor::Document@Base" 4:4.3.4
 (c++)"construction vtable for KParts::ReadWritePart-in-KTextEditor::Document@Base" 4:4.3.4
 (c++)"non-virtual thunk to KTextEditor::ConfigPage::~ConfigPage()@Base" 4:4.3.4
 (c++)"non-virtual thunk to KTextEditor::Document::~Document()@Base" 4:4.3.4
 (c++)"non-virtual thunk to KTextEditor::EditorChooser::~EditorChooser()@Base" 4:4.3.4
 (c++)"non-virtual thunk to KTextEditor::View::~View()@Base" 4:4.3.4
 (c++)"virtual thunk to KTextEditor::Document::~Document()@Base" 4:4.3.4
