# SymbolsHelper-Confirmed: 4:4.8.4 amd64 armel armhf hurd-i386 i386 ia64 kfreebsd-amd64 kfreebsd-i386 powerpc s390 s390x
libkhtml.so.5 libkhtml5 #MINVER#
* Build-Depends-Package: kdelibs5-dev
 _ZN11KHTMLGlobal10finalCheckEv@Base 4:4.3.4
 _ZN11KHTMLGlobal10iconLoaderEv@Base 4:4.3.4
 _ZN11KHTMLGlobal10s_settingsE@Base 4:4.3.4
 _ZN11KHTMLGlobal12registerPartEP9KHTMLPart@Base 4:4.3.4
 _ZN11KHTMLGlobal12s_iconLoaderE@Base 4:4.3.4
 _ZN11KHTMLGlobal13componentDataEv@Base 4:4.3.4
 _ZN11KHTMLGlobal14deregisterPartEP9KHTMLPart@Base 4:4.3.4
 _ZN11KHTMLGlobal15s_componentDataE@Base 4:4.3.4
 _ZN11KHTMLGlobal19defaultHTMLSettingsEv@Base 4:4.3.4
 _ZN11KHTMLGlobal20registerDocumentImplEPN3DOM12DocumentImplE@Base 4:4.3.4
 _ZN11KHTMLGlobal22deregisterDocumentImplEPN3DOM12DocumentImplE@Base 4:4.3.4
 _ZN11KHTMLGlobal3refEv@Base 4:4.3.4
 _ZN11KHTMLGlobal5derefEv@Base 4:4.3.4
 _ZN11KHTMLGlobal6s_selfE@Base 4:4.3.4
 _ZN11KHTMLGlobal7s_aboutE@Base 4:4.3.4
 _ZN11KHTMLGlobal8s_refcntE@Base 4:4.3.4
 _ZN11KHTMLGlobalC1Ev@Base 4:4.3.4
 _ZN11KHTMLGlobalC2Ev@Base 4:4.3.4
 _ZN11KHTMLGlobalD1Ev@Base 4:4.3.4
 _ZN11KHTMLGlobalD2Ev@Base 4:4.3.4
 _ZN13KHTMLSettings10avFamiliesE@Base 4:4.3.4
 _ZN13KHTMLSettings11addAdFilterERK7QString@Base 4:4.3.4
 _ZN13KHTMLSettings11adviceToStrENS_17KJavaScriptAdviceE@Base 4:4.3.4
 _ZN13KHTMLSettings11strToAdviceERK7QString@Base 4:4.3.4
 _ZN13KHTMLSettings14setStdFontNameERK7QString@Base 4:4.3.4
 _ZN13KHTMLSettings16setFixedFontNameERK7QString@Base 4:4.3.4
 _ZN13KHTMLSettings17availableFamiliesEv@Base 4:4.3.4
 _ZN13KHTMLSettings17splitDomainAdviceERK7QStringRS0_RNS_17KJavaScriptAdviceES5_@Base 4:4.3.4
 _ZN13KHTMLSettings18readDomainSettingsERK12KConfigGroupbbR18KPerDomainSettings@Base 4:4.3.4
 _ZN13KHTMLSettings18setJSErrorsEnabledEb@Base 4:4.3.4
 _ZN13KHTMLSettings23isBackRightClickEnabledEv@Base 4:4.3.4
 _ZN13KHTMLSettings24isOpenMiddleClickEnabledEv@Base 4:4.3.4
 _ZN13KHTMLSettings29setJSPopupBlockerPassivePopupEb@Base 4:4.3.4
 _ZN13KHTMLSettings4initEP7KConfigb@Base 4:4.3.4
 _ZN13KHTMLSettings4initEv@Base 4:4.3.4
 _ZN13KHTMLSettingsC1ERKS_@Base 4:4.3.4
 _ZN13KHTMLSettingsC1Ev@Base 4:4.3.4
 _ZN13KHTMLSettingsC2ERKS_@Base 4:4.3.4
 _ZN13KHTMLSettingsC2Ev@Base 4:4.3.4
 _ZN13KHTMLSettingsD0Ev@Base 4:4.3.4
 _ZN13KHTMLSettingsD1Ev@Base 4:4.3.4
 _ZN13KHTMLSettingsD2Ev@Base 4:4.3.4
 _ZN17KHTMLImageFactory11qt_metacallEN11QMetaObject4CallEiPPv@Base 4:4.5.85
 _ZN17KHTMLImageFactory11qt_metacastEPKc@Base 4:4.5.85
 _ZN17KHTMLImageFactory15s_componentDataE@Base 4:4.5.85
 _ZN17KHTMLImageFactory16staticMetaObjectE@Base 4:4.5.85
 _ZN17KHTMLImageFactory6createEPKcP7QWidgetP7QObjectRK5QListI8QVariantERK7QString@Base 4:4.5.85
 _ZN17KHTMLImageFactoryC1Ev@Base 4:4.5.85
 _ZN17KHTMLImageFactoryC2Ev@Base 4:4.5.85
 _ZN17KHTMLImageFactoryD0Ev@Base 4:4.5.85
 _ZN17KHTMLImageFactoryD1Ev@Base 4:4.5.85
 _ZN17KHTMLImageFactoryD2Ev@Base 4:4.5.85
 _ZN3DOM10MouseEvent14initMouseEventERKNS_9DOMStringEbbRKNS_12AbstractViewElllllbbbbtRKNS_4NodeE@Base 4:4.3.4
 _ZN3DOM10MouseEventC1EPNS_14MouseEventImplE@Base 4:4.3.4
 _ZN3DOM10MouseEventC1ERKNS_5EventE@Base 4:4.3.4
 _ZN3DOM10MouseEventC1ERKS0_@Base 4:4.3.4
 _ZN3DOM10MouseEventC1Ev@Base 4:4.3.4
 _ZN3DOM10MouseEventC2EPNS_14MouseEventImplE@Base 4:4.3.4
 _ZN3DOM10MouseEventC2ERKNS_5EventE@Base 4:4.3.4
 _ZN3DOM10MouseEventC2ERKS0_@Base 4:4.3.4
 _ZN3DOM10MouseEventC2Ev@Base 4:4.3.4
 _ZN3DOM10MouseEventD0Ev@Base 4:4.3.4
 _ZN3DOM10MouseEventD1Ev@Base 4:4.3.4
 _ZN3DOM10MouseEventD2Ev@Base 4:4.3.4
 _ZN3DOM10MouseEventaSERKNS_5EventE@Base 4:4.3.4
 _ZN3DOM10MouseEventaSERKS0_@Base 4:4.3.4
 _ZN3DOM10NodeFilter10acceptNodeERKNS_4NodeE@Base 4:4.3.4
 _ZN3DOM10NodeFilter12createCustomEPNS_16CustomNodeFilterE@Base 4:4.3.4
 _ZN3DOM10NodeFilter16customNodeFilterEv@Base 4:4.3.4
 _ZN3DOM10NodeFilter19setCustomNodeFilterEPNS_16CustomNodeFilterE@Base 4:4.3.4
 _ZN3DOM10NodeFilterC1EPNS_14NodeFilterImplE@Base 4:4.3.4
 _ZN3DOM10NodeFilterC1ERKS0_@Base 4:4.3.4
 _ZN3DOM10NodeFilterC1Ev@Base 4:4.3.4
 _ZN3DOM10NodeFilterC2EPNS_14NodeFilterImplE@Base 4:4.3.4
 _ZN3DOM10NodeFilterC2ERKS0_@Base 4:4.3.4
 _ZN3DOM10NodeFilterC2Ev@Base 4:4.3.4
 _ZN3DOM10NodeFilterD0Ev@Base 4:4.3.4
 _ZN3DOM10NodeFilterD1Ev@Base 4:4.3.4
 _ZN3DOM10NodeFilterD2Ev@Base 4:4.3.4
 _ZN3DOM10NodeFilteraSERKS0_@Base 4:4.3.4
 _ZN3DOM10StyleSheet11setDisabledEb@Base 4:4.3.4
 _ZN3DOM10StyleSheet7baseUrlEv@Base 4:4.3.4
 _ZN3DOM10StyleSheetC1EPNS_14StyleSheetImplE@Base 4:4.3.4
 _ZN3DOM10StyleSheetC1ERKS0_@Base 4:4.3.4
 _ZN3DOM10StyleSheetC1Ev@Base 4:4.3.4
 _ZN3DOM10StyleSheetC2EPNS_14StyleSheetImplE@Base 4:4.3.4
 _ZN3DOM10StyleSheetC2ERKS0_@Base 4:4.3.4
 _ZN3DOM10StyleSheetC2Ev@Base 4:4.3.4
 _ZN3DOM10StyleSheetD1Ev@Base 4:4.3.4
 _ZN3DOM10StyleSheetD2Ev@Base 4:4.3.4
 _ZN3DOM10StyleSheetaSERKS0_@Base 4:4.3.4
 _ZN3DOM10TreeWalker10firstChildEv@Base 4:4.3.4
 _ZN3DOM10TreeWalker10parentNodeEv@Base 4:4.3.4
 _ZN3DOM10TreeWalker10whatToShowEv@Base 4:4.3.4
 _ZN3DOM10TreeWalker11currentNodeEv@Base 4:4.3.4
 _ZN3DOM10TreeWalker11nextSiblingEv@Base 4:4.3.4
 _ZN3DOM10TreeWalker12previousNodeEv@Base 4:4.3.4
 _ZN3DOM10TreeWalker14setCurrentNodeERKNS_4NodeE@Base 4:4.3.4
 _ZN3DOM10TreeWalker15previousSiblingEv@Base 4:4.3.4
 _ZN3DOM10TreeWalker22expandEntityReferencesEv@Base 4:4.3.4
 _ZN3DOM10TreeWalker4rootEv@Base 4:4.3.4
 _ZN3DOM10TreeWalker6filterEv@Base 4:4.3.4
 _ZN3DOM10TreeWalker8nextNodeEv@Base 4:4.3.4
 _ZN3DOM10TreeWalker9lastChildEv@Base 4:4.3.4
 _ZN3DOM10TreeWalkerC1EPNS_14TreeWalkerImplE@Base 4:4.3.4
 _ZN3DOM10TreeWalkerC1ERKS0_@Base 4:4.3.4
 _ZN3DOM10TreeWalkerC1Ev@Base 4:4.3.4
 _ZN3DOM10TreeWalkerC2EPNS_14TreeWalkerImplE@Base 4:4.3.4
 _ZN3DOM10TreeWalkerC2ERKS0_@Base 4:4.3.4
 _ZN3DOM10TreeWalkerC2Ev@Base 4:4.3.4
 _ZN3DOM10TreeWalkerD1Ev@Base 4:4.3.4
 _ZN3DOM10TreeWalkerD2Ev@Base 4:4.3.4
 _ZN3DOM10TreeWalkeraSERKS0_@Base 4:4.3.4
 _ZN3DOM10strcasecmpERKNS_9DOMStringEPKc@Base 4:4.3.4
 _ZN3DOM10strcasecmpERKNS_9DOMStringES2_@Base 4:4.3.4
 _ZN3DOM11CSSPageRule15setSelectorTextERKNS_9DOMStringE@Base 4:4.3.4
 _ZN3DOM11CSSPageRuleC1EPNS_15CSSPageRuleImplE@Base 4:4.3.4
 _ZN3DOM11CSSPageRuleC1ERKNS_7CSSRuleE@Base 4:4.3.4
 _ZN3DOM11CSSPageRuleC1ERKS0_@Base 4:4.3.4
 _ZN3DOM11CSSPageRuleC1Ev@Base 4:4.3.4
 _ZN3DOM11CSSPageRuleC2EPNS_15CSSPageRuleImplE@Base 4:4.3.4
 _ZN3DOM11CSSPageRuleC2ERKNS_7CSSRuleE@Base 4:4.3.4
 _ZN3DOM11CSSPageRuleC2ERKS0_@Base 4:4.3.4
 _ZN3DOM11CSSPageRuleC2Ev@Base 4:4.3.4
 _ZN3DOM11CSSPageRuleD1Ev@Base 4:4.3.4
 _ZN3DOM11CSSPageRuleD2Ev@Base 4:4.3.4
 _ZN3DOM11CSSPageRuleaSERKNS_7CSSRuleE@Base 4:4.3.4
 _ZN3DOM11CSSPageRuleaSERKS0_@Base 4:4.3.4
 _ZN3DOM11CSSRuleList4itemEm@Base 4:4.3.4
 _ZN3DOM11CSSRuleListC1EPNS_13StyleListImplE@Base 4:4.3.4
 _ZN3DOM11CSSRuleListC1EPNS_15CSSRuleListImplE@Base 4:4.3.4
 _ZN3DOM11CSSRuleListC1ERKS0_@Base 4:4.3.4
 _ZN3DOM11CSSRuleListC1Ev@Base 4:4.3.4
 _ZN3DOM11CSSRuleListC2EPNS_13StyleListImplE@Base 4:4.3.4
 _ZN3DOM11CSSRuleListC2EPNS_15CSSRuleListImplE@Base 4:4.3.4
 _ZN3DOM11CSSRuleListC2ERKS0_@Base 4:4.3.4
 _ZN3DOM11CSSRuleListC2Ev@Base 4:4.3.4
 _ZN3DOM11CSSRuleListD1Ev@Base 4:4.3.4
 _ZN3DOM11CSSRuleListD2Ev@Base 4:4.3.4
 _ZN3DOM11CSSRuleListaSERKS0_@Base 4:4.3.4
 _ZN3DOM11HTMLElement11assignOtherERKNS_4NodeEi@Base 4:4.3.4
 _ZN3DOM11HTMLElement12setClassNameERKNS_9DOMStringE@Base 4:4.3.4
 _ZN3DOM11HTMLElement12setInnerHTMLERKNS_9DOMStringE@Base 4:4.3.4
 _ZN3DOM11HTMLElement12setInnerTextERKNS_9DOMStringE@Base 4:4.3.4
 _ZN3DOM11HTMLElement14addCSSPropertyERKNS_9DOMStringES3_@Base 4:4.3.4
 _ZN3DOM11HTMLElement17removeCSSPropertyERKNS_9DOMStringE@Base 4:4.3.4
 _ZN3DOM11HTMLElement18setContentEditableERKNS_9DOMStringE@Base 4:4.3.4
 _ZN3DOM11HTMLElement5setIdERKNS_9DOMStringE@Base 4:4.3.4
 _ZN3DOM11HTMLElement6setDirERKNS_9DOMStringE@Base 4:4.3.4
 _ZN3DOM11HTMLElement7setLangERKNS_9DOMStringE@Base 4:4.3.4
 _ZN3DOM11HTMLElement8setTitleERKNS_9DOMStringE@Base 4:4.3.4
 _ZN3DOM11HTMLElementC1EPNS_15HTMLElementImplE@Base 4:4.3.4
 _ZN3DOM11HTMLElementC1ERKS0_@Base 4:4.3.4
 _ZN3DOM11HTMLElementC1Ev@Base 4:4.3.4
 _ZN3DOM11HTMLElementC2EPNS_15HTMLElementImplE@Base 4:4.3.4
 _ZN3DOM11HTMLElementC2ERKS0_@Base 4:4.3.4
 _ZN3DOM11HTMLElementC2Ev@Base 4:4.3.4
 _ZN3DOM11HTMLElementD0Ev@Base 4:4.3.4
 _ZN3DOM11HTMLElementD1Ev@Base 4:4.3.4
 _ZN3DOM11HTMLElementD2Ev@Base 4:4.3.4
 _ZN3DOM11HTMLElementaSERKNS_4NodeE@Base 4:4.3.4
 _ZN3DOM11HTMLElementaSERKS0_@Base 4:4.3.4
 _ZN3DOM12AbstractView16getComputedStyleERKNS_7ElementERKNS_9DOMStringE@Base 4:4.3.4
 _ZN3DOM12AbstractViewC1EPNS_16AbstractViewImplE@Base 4:4.3.4
 _ZN3DOM12AbstractViewC1ERKS0_@Base 4:4.3.4
 _ZN3DOM12AbstractViewC1Ev@Base 4:4.3.4
 _ZN3DOM12AbstractViewC2EPNS_16AbstractViewImplE@Base 4:4.3.4
 _ZN3DOM12AbstractViewC2ERKS0_@Base 4:4.3.4
 _ZN3DOM12AbstractViewC2Ev@Base 4:4.3.4
 _ZN3DOM12AbstractViewD0Ev@Base 4:4.3.4
 _ZN3DOM12AbstractViewD1Ev@Base 4:4.3.4
 _ZN3DOM12AbstractViewD2Ev@Base 4:4.3.4
 _ZN3DOM12AbstractViewaSERKS0_@Base 4:4.3.4
 _ZN3DOM12CDATASectionC1EPNS_16CDATASectionImplE@Base 4:4.3.4
 _ZN3DOM12CDATASectionC1ERKS0_@Base 4:4.3.4
 _ZN3DOM12CDATASectionC1Ev@Base 4:4.3.4
 _ZN3DOM12CDATASectionC2EPNS_16CDATASectionImplE@Base 4:4.3.4
 _ZN3DOM12CDATASectionC2ERKS0_@Base 4:4.3.4
 _ZN3DOM12CDATASectionC2Ev@Base 4:4.3.4
 _ZN3DOM12CDATASectionD0Ev@Base 4:4.3.4
 _ZN3DOM12CDATASectionD1Ev@Base 4:4.3.4
 _ZN3DOM12CDATASectionD2Ev@Base 4:4.3.4
 _ZN3DOM12CDATASectionaSERKNS_4NodeE@Base 4:4.3.4
 _ZN3DOM12CDATASectionaSERKS0_@Base 4:4.3.4
 _ZN3DOM12CSSException12codeAsStringEi@Base 4:4.4.95
 _ZN3DOM12CSSException18isCSSExceptionCodeEi@Base 4:4.4.95
 _ZN3DOM12CSSMediaRule10deleteRuleEm@Base 4:4.3.4
 _ZN3DOM12CSSMediaRule10insertRuleERKNS_9DOMStringEm@Base 4:4.3.4
 _ZN3DOM12CSSMediaRuleC1EPNS_16CSSMediaRuleImplE@Base 4:4.3.4
 _ZN3DOM12CSSMediaRuleC1ERKNS_7CSSRuleE@Base 4:4.3.4
 _ZN3DOM12CSSMediaRuleC1ERKS0_@Base 4:4.3.4
 _ZN3DOM12CSSMediaRuleC1Ev@Base 4:4.3.4
 _ZN3DOM12CSSMediaRuleC2EPNS_16CSSMediaRuleImplE@Base 4:4.3.4
 _ZN3DOM12CSSMediaRuleC2ERKNS_7CSSRuleE@Base 4:4.3.4
 _ZN3DOM12CSSMediaRuleC2ERKS0_@Base 4:4.3.4
 _ZN3DOM12CSSMediaRuleC2Ev@Base 4:4.3.4
 _ZN3DOM12CSSMediaRuleD1Ev@Base 4:4.3.4
 _ZN3DOM12CSSMediaRuleD2Ev@Base 4:4.3.4
 _ZN3DOM12CSSMediaRuleaSERKNS_7CSSRuleE@Base 4:4.3.4
 _ZN3DOM12CSSMediaRuleaSERKS0_@Base 4:4.3.4
 _ZN3DOM12CSSStyleRule15setSelectorTextERKNS_9DOMStringE@Base 4:4.3.4
 _ZN3DOM12CSSStyleRuleC1EPNS_16CSSStyleRuleImplE@Base 4:4.3.4
 _ZN3DOM12CSSStyleRuleC1ERKNS_7CSSRuleE@Base 4:4.3.4
 _ZN3DOM12CSSStyleRuleC1ERKS0_@Base 4:4.3.4
 _ZN3DOM12CSSStyleRuleC1Ev@Base 4:4.3.4
 _ZN3DOM12CSSStyleRuleC2EPNS_16CSSStyleRuleImplE@Base 4:4.3.4
 _ZN3DOM12CSSStyleRuleC2ERKNS_7CSSRuleE@Base 4:4.3.4
 _ZN3DOM12CSSStyleRuleC2ERKS0_@Base 4:4.3.4
 _ZN3DOM12CSSStyleRuleC2Ev@Base 4:4.3.4
 _ZN3DOM12CSSStyleRuleD1Ev@Base 4:4.3.4
 _ZN3DOM12CSSStyleRuleD2Ev@Base 4:4.3.4
 _ZN3DOM12CSSStyleRuleaSERKNS_7CSSRuleE@Base 4:4.3.4
 _ZN3DOM12CSSStyleRuleaSERKS0_@Base 4:4.3.4
 _ZN3DOM12CSSValueList4itemEm@Base 4:4.3.4
 _ZN3DOM12CSSValueListC1EPNS_16CSSValueListImplE@Base 4:4.3.4
 _ZN3DOM12CSSValueListC1ERKNS_8CSSValueE@Base 4:4.3.4
 _ZN3DOM12CSSValueListC1ERKS0_@Base 4:4.3.4
 _ZN3DOM12CSSValueListC1Ev@Base 4:4.3.4
 _ZN3DOM12CSSValueListC2EPNS_16CSSValueListImplE@Base 4:4.3.4
 _ZN3DOM12CSSValueListC2ERKNS_8CSSValueE@Base 4:4.3.4
 _ZN3DOM12CSSValueListC2ERKS0_@Base 4:4.3.4
 _ZN3DOM12CSSValueListC2Ev@Base 4:4.3.4
 _ZN3DOM12CSSValueListD1Ev@Base 4:4.3.4
 _ZN3DOM12CSSValueListD2Ev@Base 4:4.3.4
 _ZN3DOM12CSSValueListaSERKNS_8CSSValueE@Base 4:4.3.4
 _ZN3DOM12CSSValueListaSERKS0_@Base 4:4.3.4
 _ZN3DOM12DOMException12codeAsStringEi@Base 4:4.4.95
 _ZN3DOM12DOMException18isDOMExceptionCodeEi@Base 4:4.4.95
 _ZN3DOM12DocumentTypeC1EPNS_16DocumentTypeImplE@Base 4:4.3.4
 _ZN3DOM12DocumentTypeC1ERKS0_@Base 4:4.3.4
 _ZN3DOM12DocumentTypeC1Ev@Base 4:4.3.4
 _ZN3DOM12DocumentTypeC2EPNS_16DocumentTypeImplE@Base 4:4.3.4
 _ZN3DOM12DocumentTypeC2ERKS0_@Base 4:4.3.4
 _ZN3DOM12DocumentTypeC2Ev@Base 4:4.3.4
 _ZN3DOM12DocumentTypeD0Ev@Base 4:4.3.4
 _ZN3DOM12DocumentTypeD1Ev@Base 4:4.3.4
 _ZN3DOM12DocumentTypeD2Ev@Base 4:4.3.4
 _ZN3DOM12DocumentTypeaSERKNS_4NodeE@Base 4:4.3.4
 _ZN3DOM12DocumentTypeaSERKS0_@Base 4:4.3.4
 _ZN3DOM12HTMLDocument17getElementsByNameERKNS_9DOMStringE@Base 4:4.3.4
 _ZN3DOM12HTMLDocument4openEv@Base 4:4.3.4
 _ZN3DOM12HTMLDocument5closeEv@Base 4:4.3.4
 _ZN3DOM12HTMLDocument5writeERKNS_9DOMStringE@Base 4:4.3.4
 _ZN3DOM12HTMLDocument7setBodyERKNS_11HTMLElementE@Base 4:4.3.4
 _ZN3DOM12HTMLDocument7writelnERKNS_9DOMStringE@Base 4:4.3.4
 _ZN3DOM12HTMLDocument8setTitleERKNS_9DOMStringE@Base 4:4.3.4
 _ZN3DOM12HTMLDocument9setCookieERKNS_9DOMStringE@Base 4:4.3.4
 _ZN3DOM12HTMLDocumentC1EP9KHTMLView@Base 4:4.3.4
 _ZN3DOM12HTMLDocumentC1EPNS_16HTMLDocumentImplE@Base 4:4.3.4
 _ZN3DOM12HTMLDocumentC1ERKS0_@Base 4:4.3.4
 _ZN3DOM12HTMLDocumentC1Ev@Base 4:4.3.4
 _ZN3DOM12HTMLDocumentC2EP9KHTMLView@Base 4:4.3.4
 _ZN3DOM12HTMLDocumentC2EPNS_16HTMLDocumentImplE@Base 4:4.3.4
 _ZN3DOM12HTMLDocumentC2ERKS0_@Base 4:4.3.4
 _ZN3DOM12HTMLDocumentC2Ev@Base 4:4.3.4
 _ZN3DOM12HTMLDocumentD0Ev@Base 4:4.3.4
 _ZN3DOM12HTMLDocumentD1Ev@Base 4:4.3.4
 _ZN3DOM12HTMLDocumentD2Ev@Base 4:4.3.4
 _ZN3DOM12HTMLDocumentaSERKNS_4NodeE@Base 4:4.3.4
 _ZN3DOM12HTMLDocumentaSERKS0_@Base 4:4.3.4
 _ZN3DOM12NamedNodeMap12setNamedItemERKNS_4NodeE@Base 4:4.3.4
 _ZN3DOM12NamedNodeMap14setNamedItemNSERKNS_4NodeE@Base 4:4.3.4
 _ZN3DOM12NamedNodeMap15removeNamedItemERKNS_9DOMStringE@Base 4:4.3.4
 _ZN3DOM12NamedNodeMap17removeNamedItemNSERKNS_9DOMStringES3_@Base 4:4.3.4
 _ZN3DOM12NamedNodeMapC1EPNS_16NamedNodeMapImplE@Base 4:4.3.4
 _ZN3DOM12NamedNodeMapC1ERKS0_@Base 4:4.3.4
 _ZN3DOM12NamedNodeMapC1Ev@Base 4:4.3.4
 _ZN3DOM12NamedNodeMapC2EPNS_16NamedNodeMapImplE@Base 4:4.3.4
 _ZN3DOM12NamedNodeMapC2ERKS0_@Base 4:4.3.4
 _ZN3DOM12NamedNodeMapC2Ev@Base 4:4.3.4
 _ZN3DOM12NamedNodeMapD1Ev@Base 4:4.3.4
 _ZN3DOM12NamedNodeMapD2Ev@Base 4:4.3.4
 _ZN3DOM12NamedNodeMapaSERKS0_@Base 4:4.3.4
 _ZN3DOM12NodeIterator10whatToShowEv@Base 4:4.3.4
 _ZN3DOM12NodeIterator12previousNodeEv@Base 4:4.3.4
 _ZN3DOM12NodeIterator22expandEntityReferencesEv@Base 4:4.3.4
 _ZN3DOM12NodeIterator4rootEv@Base 4:4.3.4
 _ZN3DOM12NodeIterator6detachEv@Base 4:4.3.4
 _ZN3DOM12NodeIterator6filterEv@Base 4:4.3.4
 _ZN3DOM12NodeIterator8nextNodeEv@Base 4:4.3.4
 _ZN3DOM12NodeIteratorC1EPNS_16NodeIteratorImplE@Base 4:4.3.4
 _ZN3DOM12NodeIteratorC1ERKS0_@Base 4:4.3.4
 _ZN3DOM12NodeIteratorC1Ev@Base 4:4.3.4
 _ZN3DOM12NodeIteratorC2EPNS_16NodeIteratorImplE@Base 4:4.3.4
 _ZN3DOM12NodeIteratorC2ERKS0_@Base 4:4.3.4
 _ZN3DOM12NodeIteratorC2Ev@Base 4:4.3.4
 _ZN3DOM12NodeIteratorD1Ev@Base 4:4.3.4
 _ZN3DOM12NodeIteratorD2Ev@Base 4:4.3.4
 _ZN3DOM12NodeIteratoraSERKS0_@Base 4:4.3.4
 _ZN3DOM13CSSImportRuleC1EPNS_17CSSImportRuleImplE@Base 4:4.3.4
 _ZN3DOM13CSSImportRuleC1ERKNS_7CSSRuleE@Base 4:4.3.4
 _ZN3DOM13CSSImportRuleC1ERKS0_@Base 4:4.3.4
 _ZN3DOM13CSSImportRuleC1Ev@Base 4:4.3.4
 _ZN3DOM13CSSImportRuleC2EPNS_17CSSImportRuleImplE@Base 4:4.3.4
 _ZN3DOM13CSSImportRuleC2ERKNS_7CSSRuleE@Base 4:4.3.4
 _ZN3DOM13CSSImportRuleC2ERKS0_@Base 4:4.3.4
 _ZN3DOM13CSSImportRuleC2Ev@Base 4:4.3.4
 _ZN3DOM13CSSImportRuleD1Ev@Base 4:4.3.4
 _ZN3DOM13CSSImportRuleD2Ev@Base 4:4.3.4
 _ZN3DOM13CSSImportRuleaSERKNS_7CSSRuleE@Base 4:4.3.4
 _ZN3DOM13CSSImportRuleaSERKS0_@Base 4:4.3.4
 _ZN3DOM13CSSStyleSheet10deleteRuleEm@Base 4:4.3.4
 _ZN3DOM13CSSStyleSheet10insertRuleERKNS_9DOMStringEm@Base 4:4.3.4
 _ZN3DOM13CSSStyleSheetC1EPNS_17CSSStyleSheetImplE@Base 4:4.3.4
 _ZN3DOM13CSSStyleSheetC1ERKNS_10StyleSheetE@Base 4:4.3.4
 _ZN3DOM13CSSStyleSheetC1ERKS0_@Base 4:4.3.4
 _ZN3DOM13CSSStyleSheetC1Ev@Base 4:4.3.4
 _ZN3DOM13CSSStyleSheetC2EPNS_17CSSStyleSheetImplE@Base 4:4.3.4
 _ZN3DOM13CSSStyleSheetC2ERKNS_10StyleSheetE@Base 4:4.3.4
 _ZN3DOM13CSSStyleSheetC2ERKS0_@Base 4:4.3.4
 _ZN3DOM13CSSStyleSheetC2Ev@Base 4:4.3.4
 _ZN3DOM13CSSStyleSheetD1Ev@Base 4:4.3.4
 _ZN3DOM13CSSStyleSheetD2Ev@Base 4:4.3.4
 _ZN3DOM13CSSStyleSheetaSERKNS_10StyleSheetE@Base 4:4.3.4
 _ZN3DOM13CSSStyleSheetaSERKS0_@Base 4:4.3.4
 _ZN3DOM13CharacterData10appendDataERKNS_9DOMStringE@Base 4:4.3.4
 _ZN3DOM13CharacterData10deleteDataEmm@Base 4:4.3.4
 _ZN3DOM13CharacterData10insertDataEmRKNS_9DOMStringE@Base 4:4.3.4
 _ZN3DOM13CharacterData11replaceDataEmmRKNS_9DOMStringE@Base 4:4.3.4
 _ZN3DOM13CharacterData13substringDataEmm@Base 4:4.3.4
 _ZN3DOM13CharacterData7setDataERKNS_9DOMStringE@Base 4:4.3.4
 _ZN3DOM13CharacterDataC1EPNS_17CharacterDataImplE@Base 4:4.3.4
 _ZN3DOM13CharacterDataC1ERKS0_@Base 4:4.3.4
 _ZN3DOM13CharacterDataC1Ev@Base 4:4.3.4
 _ZN3DOM13CharacterDataC2EPNS_17CharacterDataImplE@Base 4:4.3.4
 _ZN3DOM13CharacterDataC2ERKS0_@Base 4:4.3.4
 _ZN3DOM13CharacterDataC2Ev@Base 4:4.3.4
 _ZN3DOM13CharacterDataD0Ev@Base 4:4.3.4
 _ZN3DOM13CharacterDataD1Ev@Base 4:4.3.4
 _ZN3DOM13CharacterDataD2Ev@Base 4:4.3.4
 _ZN3DOM13CharacterDataaSERKNS_4NodeE@Base 4:4.3.4
 _ZN3DOM13CharacterDataaSERKS0_@Base 4:4.3.4
 _ZN3DOM13DocumentStyle24setSelectedStylesheetSetERKNS_9DOMStringE@Base 4:4.3.4
 _ZN3DOM13DocumentStyleC1ERKS0_@Base 4:4.3.4
 _ZN3DOM13DocumentStyleC1Ev@Base 4:4.3.4
 _ZN3DOM13DocumentStyleC2ERKS0_@Base 4:4.3.4
 _ZN3DOM13DocumentStyleC2Ev@Base 4:4.3.4
 _ZN3DOM13DocumentStyleD1Ev@Base 4:4.3.4
 _ZN3DOM13DocumentStyleD2Ev@Base 4:4.3.4
 _ZN3DOM13DocumentStyleaSERKNS_8DocumentE@Base 4:4.3.4
 _ZN3DOM13DocumentStyleaSERKS0_@Base 4:4.3.4
 _ZN3DOM13EventListener11handleEventERNS_5EventE@Base 4:4.3.4
 _ZN3DOM13EventListener17eventListenerTypeEv@Base 4:4.3.4
 _ZN3DOM13EventListenerC1Ev@Base 4:4.3.4
 _ZN3DOM13EventListenerC2Ev@Base 4:4.3.4
 _ZN3DOM13EventListenerD0Ev@Base 4:4.3.4
 _ZN3DOM13EventListenerD1Ev@Base 4:4.3.4
 _ZN3DOM13EventListenerD2Ev@Base 4:4.3.4
 _ZN3DOM13HTMLBRElement8setClearERKNS_9DOMStringE@Base 4:4.3.4
 _ZN3DOM13HTMLBRElementC1EPNS_17HTMLBRElementImplE@Base 4:4.3.4
 _ZN3DOM13HTMLBRElementC1ERKS0_@Base 4:4.3.4
 _ZN3DOM13HTMLBRElementC1Ev@Base 4:4.3.4
 _ZN3DOM13HTMLBRElementC2EPNS_17HTMLBRElementImplE@Base 4:4.3.4
 _ZN3DOM13HTMLBRElementC2ERKS0_@Base 4:4.3.4
 _ZN3DOM13HTMLBRElementC2Ev@Base 4:4.3.4
 _ZN3DOM13HTMLBRElementD0Ev@Base 4:4.3.4
 _ZN3DOM13HTMLBRElementD1Ev@Base 4:4.3.4
 _ZN3DOM13HTMLBRElementD2Ev@Base 4:4.3.4
 _ZN3DOM13HTMLBRElementaSERKNS_4NodeE@Base 4:4.3.4
 _ZN3DOM13HTMLBRElementaSERKS0_@Base 4:4.3.4
 _ZN3DOM13HTMLHRElement10setNoShadeEb@Base 4:4.3.4
 _ZN3DOM13HTMLHRElement7setSizeERKNS_9DOMStringE@Base 4:4.3.4
 _ZN3DOM13HTMLHRElement8setAlignERKNS_9DOMStringE@Base 4:4.3.4
 _ZN3DOM13HTMLHRElement8setWidthERKNS_9DOMStringE@Base 4:4.3.4
 _ZN3DOM13HTMLHRElementC1EPNS_17HTMLHRElementImplE@Base 4:4.3.4
 _ZN3DOM13HTMLHRElementC1ERKS0_@Base 4:4.3.4
 _ZN3DOM13HTMLHRElementC1Ev@Base 4:4.3.4
 _ZN3DOM13HTMLHRElementC2EPNS_17HTMLHRElementImplE@Base 4:4.3.4
 _ZN3DOM13HTMLHRElementC2ERKS0_@Base 4:4.3.4
 _ZN3DOM13HTMLHRElementC2Ev@Base 4:4.3.4
 _ZN3DOM13HTMLHRElementD0Ev@Base 4:4.3.4
 _ZN3DOM13HTMLHRElementD1Ev@Base 4:4.3.4
 _ZN3DOM13HTMLHRElementD2Ev@Base 4:4.3.4
 _ZN3DOM13HTMLHRElementaSERKNS_4NodeE@Base 4:4.3.4
 _ZN3DOM13HTMLHRElementaSERKS0_@Base 4:4.3.4
 _ZN3DOM13HTMLLIElement7setTypeERKNS_9DOMStringE@Base 4:4.3.4
 _ZN3DOM13HTMLLIElement8setValueEl@Base 4:4.3.4
 _ZN3DOM13HTMLLIElementC1EPNS_17HTMLLIElementImplE@Base 4:4.3.4
 _ZN3DOM13HTMLLIElementC1ERKS0_@Base 4:4.3.4
 _ZN3DOM13HTMLLIElementC1Ev@Base 4:4.3.4
 _ZN3DOM13HTMLLIElementC2EPNS_17HTMLLIElementImplE@Base 4:4.3.4
 _ZN3DOM13HTMLLIElementC2ERKS0_@Base 4:4.3.4
 _ZN3DOM13HTMLLIElementC2Ev@Base 4:4.3.4
 _ZN3DOM13HTMLLIElementD0Ev@Base 4:4.3.4
 _ZN3DOM13HTMLLIElementD1Ev@Base 4:4.3.4
 _ZN3DOM13HTMLLIElementD2Ev@Base 4:4.3.4
 _ZN3DOM13HTMLLIElementaSERKNS_4NodeE@Base 4:4.3.4
 _ZN3DOM13HTMLLIElementaSERKS0_@Base 4:4.3.4
 _ZN3DOM13KeyboardEvent17initKeyboardEventENS_9DOMStringEbbNS_12AbstractViewES1_mS1_@Base 4:4.3.4
 _ZN3DOM13KeyboardEventC1ERKNS_5EventE@Base 4:4.3.4
 _ZN3DOM13KeyboardEventC1ERKS0_@Base 4:4.3.4
 _ZN3DOM13KeyboardEventC1Ev@Base 4:4.3.4
 _ZN3DOM13KeyboardEventC2ERKNS_5EventE@Base 4:4.3.4
 _ZN3DOM13KeyboardEventC2ERKS0_@Base 4:4.3.4
 _ZN3DOM13KeyboardEventC2Ev@Base 4:4.3.4
 _ZN3DOM13KeyboardEventD0Ev@Base 4:4.3.4
 _ZN3DOM13KeyboardEventD1Ev@Base 4:4.3.4
 _ZN3DOM13KeyboardEventD2Ev@Base 4:4.3.4
 _ZN3DOM13KeyboardEventaSERKNS_5EventE@Base 4:4.3.4
 _ZN3DOM13KeyboardEventaSERKS0_@Base 4:4.3.4
 _ZN3DOM13MutationEvent17initMutationEventERKNS_9DOMStringEbbRKNS_4NodeES3_S3_S3_t@Base 4:4.3.4
 _ZN3DOM13MutationEventC1EPNS_17MutationEventImplE@Base 4:4.3.4
 _ZN3DOM13MutationEventC1ERKNS_5EventE@Base 4:4.3.4
 _ZN3DOM13MutationEventC1ERKS0_@Base 4:4.3.4
 _ZN3DOM13MutationEventC1Ev@Base 4:4.3.4
 _ZN3DOM13MutationEventC2EPNS_17MutationEventImplE@Base 4:4.3.4
 _ZN3DOM13MutationEventC2ERKNS_5EventE@Base 4:4.3.4
 _ZN3DOM13MutationEventC2ERKS0_@Base 4:4.3.4
 _ZN3DOM13MutationEventC2Ev@Base 4:4.3.4
 _ZN3DOM13MutationEventD0Ev@Base 4:4.3.4
 _ZN3DOM13MutationEventD1Ev@Base 4:4.3.4
 _ZN3DOM13MutationEventD2Ev@Base 4:4.3.4
 _ZN3DOM13MutationEventaSERKNS_5EventE@Base 4:4.3.4
 _ZN3DOM13MutationEventaSERKS0_@Base 4:4.3.4
 _ZN3DOM14CSSCharsetRule11setEncodingERKNS_9DOMStringE@Base 4:4.3.4
 _ZN3DOM14CSSCharsetRuleC1EPNS_18CSSCharsetRuleImplE@Base 4:4.3.4
 _ZN3DOM14CSSCharsetRuleC1ERKNS_7CSSRuleE@Base 4:4.3.4
 _ZN3DOM14CSSCharsetRuleC1ERKS0_@Base 4:4.3.4
 _ZN3DOM14CSSCharsetRuleC1Ev@Base 4:4.3.4
 _ZN3DOM14CSSCharsetRuleC2EPNS_18CSSCharsetRuleImplE@Base 4:4.3.4
 _ZN3DOM14CSSCharsetRuleC2ERKNS_7CSSRuleE@Base 4:4.3.4
 _ZN3DOM14CSSCharsetRuleC2ERKS0_@Base 4:4.3.4
 _ZN3DOM14CSSCharsetRuleC2Ev@Base 4:4.3.4
 _ZN3DOM14CSSCharsetRuleD1Ev@Base 4:4.3.4
 _ZN3DOM14CSSCharsetRuleD2Ev@Base 4:4.3.4
 _ZN3DOM14CSSCharsetRuleaSERKNS_7CSSRuleE@Base 4:4.3.4
 _ZN3DOM14CSSCharsetRuleaSERKS0_@Base 4:4.3.4
 _ZN3DOM14CSSUnknownRuleC1EPNS_18CSSUnknownRuleImplE@Base 4:4.3.4
 _ZN3DOM14CSSUnknownRuleC1ERKNS_7CSSRuleE@Base 4:4.3.4
 _ZN3DOM14CSSUnknownRuleC1ERKS0_@Base 4:4.3.4
 _ZN3DOM14CSSUnknownRuleC1Ev@Base 4:4.3.4
 _ZN3DOM14CSSUnknownRuleC2EPNS_18CSSUnknownRuleImplE@Base 4:4.3.4
 _ZN3DOM14CSSUnknownRuleC2ERKNS_7CSSRuleE@Base 4:4.3.4
 _ZN3DOM14CSSUnknownRuleC2ERKS0_@Base 4:4.3.4
 _ZN3DOM14CSSUnknownRuleC2Ev@Base 4:4.3.4
 _ZN3DOM14CSSUnknownRuleD1Ev@Base 4:4.3.4
 _ZN3DOM14CSSUnknownRuleD2Ev@Base 4:4.3.4
 _ZN3DOM14CSSUnknownRuleaSERKNS_7CSSRuleE@Base 4:4.3.4
 _ZN3DOM14CSSUnknownRuleaSERKS0_@Base 4:4.3.4
 _ZN3DOM14EventException12codeAsStringEi@Base 4:4.4.95
 _ZN3DOM14EventException20isEventExceptionCodeEi@Base 4:4.4.95
 _ZN3DOM14EventExceptionC1ERKS0_@Base 4:4.3.4
 _ZN3DOM14EventExceptionC1Et@Base 4:4.3.4
 _ZN3DOM14EventExceptionC2ERKS0_@Base 4:4.3.4
 _ZN3DOM14EventExceptionC2Et@Base 4:4.3.4
 _ZN3DOM14EventExceptionaSERKS0_@Base 4:4.3.4
 _ZN3DOM14HTMLCollectionC1EPNS_18HTMLCollectionImplE@Base 4:4.3.4
 _ZN3DOM14HTMLCollectionC1EPNS_8NodeImplEi@Base 4:4.3.4
 _ZN3DOM14HTMLCollectionC1ERKS0_@Base 4:4.3.4
 _ZN3DOM14HTMLCollectionC1Ev@Base 4:4.3.4
 _ZN3DOM14HTMLCollectionC2EPNS_18HTMLCollectionImplE@Base 4:4.3.4
 _ZN3DOM14HTMLCollectionC2EPNS_8NodeImplEi@Base 4:4.3.4
 _ZN3DOM14HTMLCollectionC2ERKS0_@Base 4:4.3.4
 _ZN3DOM14HTMLCollectionC2Ev@Base 4:4.3.4
 _ZN3DOM14HTMLCollectionD1Ev@Base 4:4.3.4
 _ZN3DOM14HTMLCollectionD2Ev@Base 4:4.3.4
 _ZN3DOM14HTMLCollectionaSERKS0_@Base 4:4.3.4
 _ZN3DOM14HTMLDivElement8setAlignERKNS_9DOMStringE@Base 4:4.3.4
 _ZN3DOM14HTMLDivElementC1EPNS_18HTMLDivElementImplE@Base 4:4.3.4
 _ZN3DOM14HTMLDivElementC1ERKS0_@Base 4:4.3.4
 _ZN3DOM14HTMLDivElementC1Ev@Base 4:4.3.4
 _ZN3DOM14HTMLDivElementC2EPNS_18HTMLDivElementImplE@Base 4:4.3.4
 _ZN3DOM14HTMLDivElementC2ERKS0_@Base 4:4.3.4
 _ZN3DOM14HTMLDivElementC2Ev@Base 4:4.3.4
 _ZN3DOM14HTMLDivElementD0Ev@Base 4:4.3.4
 _ZN3DOM14HTMLDivElementD1Ev@Base 4:4.3.4
 _ZN3DOM14HTMLDivElementD2Ev@Base 4:4.3.4
 _ZN3DOM14HTMLDivElementaSERKNS_4NodeE@Base 4:4.3.4
 _ZN3DOM14HTMLDivElementaSERKS0_@Base 4:4.3.4
 _ZN3DOM14HTMLMapElement7setNameERKNS_9DOMStringE@Base 4:4.3.4
 _ZN3DOM14HTMLMapElementC1EPNS_18HTMLMapElementImplE@Base 4:4.3.4
 _ZN3DOM14HTMLMapElementC1ERKS0_@Base 4:4.3.4
 _ZN3DOM14HTMLMapElementC1Ev@Base 4:4.3.4
 _ZN3DOM14HTMLMapElementC2EPNS_18HTMLMapElementImplE@Base 4:4.3.4
 _ZN3DOM14HTMLMapElementC2ERKS0_@Base 4:4.3.4
 _ZN3DOM14HTMLMapElementC2Ev@Base 4:4.3.4
 _ZN3DOM14HTMLMapElementD0Ev@Base 4:4.3.4
 _ZN3DOM14HTMLMapElementD1Ev@Base 4:4.3.4
 _ZN3DOM14HTMLMapElementD2Ev@Base 4:4.3.4
 _ZN3DOM14HTMLMapElementaSERKNS_4NodeE@Base 4:4.3.4
 _ZN3DOM14HTMLMapElementaSERKS0_@Base 4:4.3.4
 _ZN3DOM14HTMLModElement11setDateTimeERKNS_9DOMStringE@Base 4:4.3.4
 _ZN3DOM14HTMLModElement7setCiteERKNS_9DOMStringE@Base 4:4.3.4
 _ZN3DOM14HTMLModElementC1EPNS_15HTMLElementImplE@Base 4:4.3.4
 _ZN3DOM14HTMLModElementC1ERKS0_@Base 4:4.3.4
 _ZN3DOM14HTMLModElementC1Ev@Base 4:4.3.4
 _ZN3DOM14HTMLModElementC2EPNS_15HTMLElementImplE@Base 4:4.3.4
 _ZN3DOM14HTMLModElementC2ERKS0_@Base 4:4.3.4
 _ZN3DOM14HTMLModElementC2Ev@Base 4:4.3.4
 _ZN3DOM14HTMLModElementD0Ev@Base 4:4.3.4
 _ZN3DOM14HTMLModElementD1Ev@Base 4:4.3.4
 _ZN3DOM14HTMLModElementD2Ev@Base 4:4.3.4
 _ZN3DOM14HTMLModElementaSERKNS_4NodeE@Base 4:4.3.4
 _ZN3DOM14HTMLModElementaSERKS0_@Base 4:4.3.4
 _ZN3DOM14HTMLPreElement8setWidthEl@Base 4:4.3.4
 _ZN3DOM14HTMLPreElementC1EPNS_18HTMLPreElementImplE@Base 4:4.3.4
 _ZN3DOM14HTMLPreElementC1ERKS0_@Base 4:4.3.4
 _ZN3DOM14HTMLPreElementC1Ev@Base 4:4.3.4
 _ZN3DOM14HTMLPreElementC2EPNS_18HTMLPreElementImplE@Base 4:4.3.4
 _ZN3DOM14HTMLPreElementC2ERKS0_@Base 4:4.3.4
 _ZN3DOM14HTMLPreElementC2Ev@Base 4:4.3.4
 _ZN3DOM14HTMLPreElementD0Ev@Base 4:4.3.4
 _ZN3DOM14HTMLPreElementD1Ev@Base 4:4.3.4
 _ZN3DOM14HTMLPreElementD2Ev@Base 4:4.3.4
 _ZN3DOM14HTMLPreElementaSERKNS_4NodeE@Base 4:4.3.4
 _ZN3DOM14HTMLPreElementaSERKS0_@Base 4:4.3.4
 _ZN3DOM14RangeException12codeAsStringEi@Base 4:4.4.95
 _ZN3DOM14RangeException20isRangeExceptionCodeEi@Base 4:4.4.95
 _ZN3DOM14StyleSheetList4itemEm@Base 4:4.3.4
 _ZN3DOM14StyleSheetListC1EPNS_18StyleSheetListImplE@Base 4:4.3.4
 _ZN3DOM14StyleSheetListC1ERKS0_@Base 4:4.3.4
 _ZN3DOM14StyleSheetListC1Ev@Base 4:4.3.4
 _ZN3DOM14StyleSheetListC2EPNS_18StyleSheetListImplE@Base 4:4.3.4
 _ZN3DOM14StyleSheetListC2ERKS0_@Base 4:4.3.4
 _ZN3DOM14StyleSheetListC2Ev@Base 4:4.3.4
 _ZN3DOM14StyleSheetListD1Ev@Base 4:4.3.4
 _ZN3DOM14StyleSheetListD2Ev@Base 4:4.3.4
 _ZN3DOM14StyleSheetListaSERKS0_@Base 4:4.3.4
 _ZN3DOM14XPathException12codeAsStringEi@Base 4:4.4.95
 _ZN3DOM14XPathException20isXPathExceptionCodeEi@Base 4:4.4.95
 _ZN3DOM14XPathException6toCodeEi@Base 4:4.4.95
 _ZN3DOM15CSSFontFaceRuleC1EPNS_19CSSFontFaceRuleImplE@Base 4:4.3.4
 _ZN3DOM15CSSFontFaceRuleC1ERKNS_7CSSRuleE@Base 4:4.3.4
 _ZN3DOM15CSSFontFaceRuleC1ERKS0_@Base 4:4.3.4
 _ZN3DOM15CSSFontFaceRuleC1Ev@Base 4:4.3.4
 _ZN3DOM15CSSFontFaceRuleC2EPNS_19CSSFontFaceRuleImplE@Base 4:4.3.4
 _ZN3DOM15CSSFontFaceRuleC2ERKNS_7CSSRuleE@Base 4:4.3.4
 _ZN3DOM15CSSFontFaceRuleC2ERKS0_@Base 4:4.3.4
 _ZN3DOM15CSSFontFaceRuleC2Ev@Base 4:4.3.4
 _ZN3DOM15CSSFontFaceRuleD1Ev@Base 4:4.3.4
 _ZN3DOM15CSSFontFaceRuleD2Ev@Base 4:4.3.4
 _ZN3DOM15CSSFontFaceRuleaSERKNS_7CSSRuleE@Base 4:4.3.4
 _ZN3DOM15CSSFontFaceRuleaSERKS0_@Base 4:4.3.4
 _ZN3DOM15EntityReferenceC1EPNS_19EntityReferenceImplE@Base 4:4.3.4
 _ZN3DOM15EntityReferenceC1ERKS0_@Base 4:4.3.4
 _ZN3DOM15EntityReferenceC1Ev@Base 4:4.3.4
 _ZN3DOM15EntityReferenceC2EPNS_19EntityReferenceImplE@Base 4:4.3.4
 _ZN3DOM15EntityReferenceC2ERKS0_@Base 4:4.3.4
 _ZN3DOM15EntityReferenceC2Ev@Base 4:4.3.4
 _ZN3DOM15EntityReferenceD0Ev@Base 4:4.3.4
 _ZN3DOM15EntityReferenceD1Ev@Base 4:4.3.4
 _ZN3DOM15EntityReferenceD2Ev@Base 4:4.3.4
 _ZN3DOM15EntityReferenceaSERKNS_4NodeE@Base 4:4.3.4
 _ZN3DOM15EntityReferenceaSERKS0_@Base 4:4.3.4
 _ZN3DOM15HTMLAreaElement11setTabIndexEl@Base 4:4.3.4
 _ZN3DOM15HTMLAreaElement12setAccessKeyERKNS_9DOMStringE@Base 4:4.3.4
 _ZN3DOM15HTMLAreaElement6setAltERKNS_9DOMStringE@Base 4:4.3.4
 _ZN3DOM15HTMLAreaElement7setHrefERKNS_9DOMStringE@Base 4:4.3.4
 _ZN3DOM15HTMLAreaElement8setShapeERKNS_9DOMStringE@Base 4:4.3.4
 _ZN3DOM15HTMLAreaElement9setCoordsERKNS_9DOMStringE@Base 4:4.3.4
 _ZN3DOM15HTMLAreaElement9setNoHrefEb@Base 4:4.3.4
 _ZN3DOM15HTMLAreaElement9setTargetERKNS_9DOMStringE@Base 4:4.3.4
 _ZN3DOM15HTMLAreaElementC1EPNS_19HTMLAreaElementImplE@Base 4:4.3.4
 _ZN3DOM15HTMLAreaElementC1ERKS0_@Base 4:4.3.4
 _ZN3DOM15HTMLAreaElementC1Ev@Base 4:4.3.4
 _ZN3DOM15HTMLAreaElementC2EPNS_19HTMLAreaElementImplE@Base 4:4.3.4
 _ZN3DOM15HTMLAreaElementC2ERKS0_@Base 4:4.3.4
 _ZN3DOM15HTMLAreaElementC2Ev@Base 4:4.3.4
 _ZN3DOM15HTMLAreaElementD0Ev@Base 4:4.3.4
 _ZN3DOM15HTMLAreaElementD1Ev@Base 4:4.3.4
 _ZN3DOM15HTMLAreaElementD2Ev@Base 4:4.3.4
 _ZN3DOM15HTMLAreaElementaSERKNS_4NodeE@Base 4:4.3.4
 _ZN3DOM15HTMLAreaElementaSERKS0_@Base 4:4.3.4
 _ZN3DOM15HTMLBaseElement7setHrefERKNS_9DOMStringE@Base 4:4.3.4
 _ZN3DOM15HTMLBaseElement9setTargetERKNS_9DOMStringE@Base 4:4.3.4
 _ZN3DOM15HTMLBaseElementC1EPNS_19HTMLBaseElementImplE@Base 4:4.3.4
 _ZN3DOM15HTMLBaseElementC1ERKS0_@Base 4:4.3.4
 _ZN3DOM15HTMLBaseElementC1Ev@Base 4:4.3.4
 _ZN3DOM15HTMLBaseElementC2EPNS_19HTMLBaseElementImplE@Base 4:4.3.4
 _ZN3DOM15HTMLBaseElementC2ERKS0_@Base 4:4.3.4
 _ZN3DOM15HTMLBaseElementC2Ev@Base 4:4.3.4
 _ZN3DOM15HTMLBaseElementD0Ev@Base 4:4.3.4
 _ZN3DOM15HTMLBaseElementD1Ev@Base 4:4.3.4
 _ZN3DOM15HTMLBaseElementD2Ev@Base 4:4.3.4
 _ZN3DOM15HTMLBaseElementaSERKNS_4NodeE@Base 4:4.3.4
 _ZN3DOM15HTMLBaseElementaSERKS0_@Base 4:4.3.4
 _ZN3DOM15HTMLBodyElement10setBgColorERKNS_9DOMStringE@Base 4:4.3.4
 _ZN3DOM15HTMLBodyElement13setBackgroundERKNS_9DOMStringE@Base 4:4.3.4
 _ZN3DOM15HTMLBodyElement7setLinkERKNS_9DOMStringE@Base 4:4.3.4
 _ZN3DOM15HTMLBodyElement7setTextERKNS_9DOMStringE@Base 4:4.3.4
 _ZN3DOM15HTMLBodyElement8setALinkERKNS_9DOMStringE@Base 4:4.3.4
 _ZN3DOM15HTMLBodyElement8setVLinkERKNS_9DOMStringE@Base 4:4.3.4
 _ZN3DOM15HTMLBodyElementC1EPNS_19HTMLBodyElementImplE@Base 4:4.3.4
 _ZN3DOM15HTMLBodyElementC1ERKS0_@Base 4:4.3.4
 _ZN3DOM15HTMLBodyElementC1Ev@Base 4:4.3.4
 _ZN3DOM15HTMLBodyElementC2EPNS_19HTMLBodyElementImplE@Base 4:4.3.4
 _ZN3DOM15HTMLBodyElementC2ERKS0_@Base 4:4.3.4
 _ZN3DOM15HTMLBodyElementC2Ev@Base 4:4.3.4
 _ZN3DOM15HTMLBodyElementD0Ev@Base 4:4.3.4
 _ZN3DOM15HTMLBodyElementD1Ev@Base 4:4.3.4
 _ZN3DOM15HTMLBodyElementD2Ev@Base 4:4.3.4
 _ZN3DOM15HTMLBodyElementaSERKNS_4NodeE@Base 4:4.3.4
 _ZN3DOM15HTMLBodyElementaSERKS0_@Base 4:4.3.4
 _ZN3DOM15HTMLFontElement7setFaceERKNS_9DOMStringE@Base 4:4.3.4
 _ZN3DOM15HTMLFontElement7setSizeERKNS_9DOMStringE@Base 4:4.3.4
 _ZN3DOM15HTMLFontElement8setColorERKNS_9DOMStringE@Base 4:4.3.4
 _ZN3DOM15HTMLFontElementC1EPNS_19HTMLFontElementImplE@Base 4:4.3.4
 _ZN3DOM15HTMLFontElementC1ERKS0_@Base 4:4.3.4
 _ZN3DOM15HTMLFontElementC1Ev@Base 4:4.3.4
 _ZN3DOM15HTMLFontElementC2EPNS_19HTMLFontElementImplE@Base 4:4.3.4
 _ZN3DOM15HTMLFontElementC2ERKS0_@Base 4:4.3.4
 _ZN3DOM15HTMLFontElementC2Ev@Base 4:4.3.4
 _ZN3DOM15HTMLFontElementD0Ev@Base 4:4.3.4
 _ZN3DOM15HTMLFontElementD1Ev@Base 4:4.3.4
 _ZN3DOM15HTMLFontElementD2Ev@Base 4:4.3.4
 _ZN3DOM15HTMLFontElementaSERKNS_4NodeE@Base 4:4.3.4
 _ZN3DOM15HTMLFontElementaSERKS0_@Base 4:4.3.4
 _ZN3DOM15HTMLFormElement10setEnctypeERKNS_9DOMStringE@Base 4:4.3.4
 _ZN3DOM15HTMLFormElement16setAcceptCharsetERKNS_9DOMStringE@Base 4:4.3.4
 _ZN3DOM15HTMLFormElement5resetEv@Base 4:4.3.4
 _ZN3DOM15HTMLFormElement6submitEv@Base 4:4.3.4
 _ZN3DOM15HTMLFormElement7setNameERKNS_9DOMStringE@Base 4:4.3.4
 _ZN3DOM15HTMLFormElement9setActionERKNS_9DOMStringE@Base 4:4.3.4
 _ZN3DOM15HTMLFormElement9setMethodERKNS_9DOMStringE@Base 4:4.3.4
 _ZN3DOM15HTMLFormElement9setTargetERKNS_9DOMStringE@Base 4:4.3.4
 _ZN3DOM15HTMLFormElementC1EPNS_19HTMLFormElementImplE@Base 4:4.3.4
 _ZN3DOM15HTMLFormElementC1ERKS0_@Base 4:4.3.4
 _ZN3DOM15HTMLFormElementC1Ev@Base 4:4.3.4
 _ZN3DOM15HTMLFormElementC2EPNS_19HTMLFormElementImplE@Base 4:4.3.4
 _ZN3DOM15HTMLFormElementC2ERKS0_@Base 4:4.3.4
 _ZN3DOM15HTMLFormElementC2Ev@Base 4:4.3.4
 _ZN3DOM15HTMLFormElementD0Ev@Base 4:4.3.4
 _ZN3DOM15HTMLFormElementD1Ev@Base 4:4.3.4
 _ZN3DOM15HTMLFormElementD2Ev@Base 4:4.3.4
 _ZN3DOM15HTMLFormElementaSERKNS_4NodeE@Base 4:4.3.4
 _ZN3DOM15HTMLFormElementaSERKS0_@Base 4:4.3.4
 _ZN3DOM15HTMLHeadElement10setProfileERKNS_9DOMStringE@Base 4:4.3.4
 _ZN3DOM15HTMLHeadElementC1EPNS_19HTMLHeadElementImplE@Base 4:4.3.4
 _ZN3DOM15HTMLHeadElementC1ERKS0_@Base 4:4.3.4
 _ZN3DOM15HTMLHeadElementC1Ev@Base 4:4.3.4
 _ZN3DOM15HTMLHeadElementC2EPNS_19HTMLHeadElementImplE@Base 4:4.3.4
 _ZN3DOM15HTMLHeadElementC2ERKS0_@Base 4:4.3.4
 _ZN3DOM15HTMLHeadElementC2Ev@Base 4:4.3.4
 _ZN3DOM15HTMLHeadElementD0Ev@Base 4:4.3.4
 _ZN3DOM15HTMLHeadElementD1Ev@Base 4:4.3.4
 _ZN3DOM15HTMLHeadElementD2Ev@Base 4:4.3.4
 _ZN3DOM15HTMLHeadElementaSERKNS_4NodeE@Base 4:4.3.4
 _ZN3DOM15HTMLHeadElementaSERKS0_@Base 4:4.3.4
 _ZN3DOM15HTMLHtmlElement10setVersionERKNS_9DOMStringE@Base 4:4.3.4
 _ZN3DOM15HTMLHtmlElementC1EPNS_19HTMLHtmlElementImplE@Base 4:4.3.4
 _ZN3DOM15HTMLHtmlElementC1ERKS0_@Base 4:4.3.4
 _ZN3DOM15HTMLHtmlElementC1Ev@Base 4:4.3.4
 _ZN3DOM15HTMLHtmlElementC2EPNS_19HTMLHtmlElementImplE@Base 4:4.3.4
 _ZN3DOM15HTMLHtmlElementC2ERKS0_@Base 4:4.3.4
 _ZN3DOM15HTMLHtmlElementC2Ev@Base 4:4.3.4
 _ZN3DOM15HTMLHtmlElementD0Ev@Base 4:4.3.4
 _ZN3DOM15HTMLHtmlElementD1Ev@Base 4:4.3.4
 _ZN3DOM15HTMLHtmlElementD2Ev@Base 4:4.3.4
 _ZN3DOM15HTMLHtmlElementaSERKNS_4NodeE@Base 4:4.3.4
 _ZN3DOM15HTMLHtmlElementaSERKS0_@Base 4:4.3.4
 _ZN3DOM15HTMLLinkElement10setCharsetERKNS_9DOMStringE@Base 4:4.3.4
 _ZN3DOM15HTMLLinkElement11setDisabledEb@Base 4:4.3.4
 _ZN3DOM15HTMLLinkElement11setHreflangERKNS_9DOMStringE@Base 4:4.3.4
 _ZN3DOM15HTMLLinkElement6setRelERKNS_9DOMStringE@Base 4:4.3.4
 _ZN3DOM15HTMLLinkElement6setRevERKNS_9DOMStringE@Base 4:4.3.4
 _ZN3DOM15HTMLLinkElement7setHrefERKNS_9DOMStringE@Base 4:4.3.4
 _ZN3DOM15HTMLLinkElement7setTypeERKNS_9DOMStringE@Base 4:4.3.4
 _ZN3DOM15HTMLLinkElement8setMediaERKNS_9DOMStringE@Base 4:4.3.4
 _ZN3DOM15HTMLLinkElement9setTargetERKNS_9DOMStringE@Base 4:4.3.4
 _ZN3DOM15HTMLLinkElementC1EPNS_19HTMLLinkElementImplE@Base 4:4.3.4
 _ZN3DOM15HTMLLinkElementC1ERKS0_@Base 4:4.3.4
 _ZN3DOM15HTMLLinkElementC1Ev@Base 4:4.3.4
 _ZN3DOM15HTMLLinkElementC2EPNS_19HTMLLinkElementImplE@Base 4:4.3.4
 _ZN3DOM15HTMLLinkElementC2ERKS0_@Base 4:4.3.4
 _ZN3DOM15HTMLLinkElementC2Ev@Base 4:4.3.4
 _ZN3DOM15HTMLLinkElementD0Ev@Base 4:4.3.4
 _ZN3DOM15HTMLLinkElementD1Ev@Base 4:4.3.4
 _ZN3DOM15HTMLLinkElementD2Ev@Base 4:4.3.4
 _ZN3DOM15HTMLLinkElementaSERKNS_4NodeE@Base 4:4.3.4
 _ZN3DOM15HTMLLinkElementaSERKS0_@Base 4:4.3.4
 _ZN3DOM15HTMLMenuElement10setCompactEb@Base 4:4.3.4
 _ZN3DOM15HTMLMenuElementC1EPNS_19HTMLMenuElementImplE@Base 4:4.3.4
 _ZN3DOM15HTMLMenuElementC1ERKS0_@Base 4:4.3.4
 _ZN3DOM15HTMLMenuElementC1Ev@Base 4:4.3.4
 _ZN3DOM15HTMLMenuElementC2EPNS_19HTMLMenuElementImplE@Base 4:4.3.4
 _ZN3DOM15HTMLMenuElementC2ERKS0_@Base 4:4.3.4
 _ZN3DOM15HTMLMenuElementC2Ev@Base 4:4.3.4
 _ZN3DOM15HTMLMenuElementD0Ev@Base 4:4.3.4
 _ZN3DOM15HTMLMenuElementD1Ev@Base 4:4.3.4
 _ZN3DOM15HTMLMenuElementD2Ev@Base 4:4.3.4
 _ZN3DOM15HTMLMenuElementaSERKNS_4NodeE@Base 4:4.3.4
 _ZN3DOM15HTMLMenuElementaSERKS0_@Base 4:4.3.4
 _ZN3DOM15HTMLMetaElement10setContentERKNS_9DOMStringE@Base 4:4.3.4
 _ZN3DOM15HTMLMetaElement12setHttpEquivERKNS_9DOMStringE@Base 4:4.3.4
 _ZN3DOM15HTMLMetaElement7setNameERKNS_9DOMStringE@Base 4:4.3.4
 _ZN3DOM15HTMLMetaElement9setSchemeERKNS_9DOMStringE@Base 4:4.3.4
 _ZN3DOM15HTMLMetaElementC1EPNS_19HTMLMetaElementImplE@Base 4:4.3.4
 _ZN3DOM15HTMLMetaElementC1ERKS0_@Base 4:4.3.4
 _ZN3DOM15HTMLMetaElementC1Ev@Base 4:4.3.4
 _ZN3DOM15HTMLMetaElementC2EPNS_19HTMLMetaElementImplE@Base 4:4.3.4
 _ZN3DOM15HTMLMetaElementC2ERKS0_@Base 4:4.3.4
 _ZN3DOM15HTMLMetaElementC2Ev@Base 4:4.3.4
 _ZN3DOM15HTMLMetaElementD0Ev@Base 4:4.3.4
 _ZN3DOM15HTMLMetaElementD1Ev@Base 4:4.3.4
 _ZN3DOM15HTMLMetaElementD2Ev@Base 4:4.3.4
 _ZN3DOM15HTMLMetaElementaSERKNS_4NodeE@Base 4:4.3.4
 _ZN3DOM15HTMLMetaElementaSERKS0_@Base 4:4.3.4
 _ZN3DOM16CSSNamespaceRuleC1EPNS_20CSSNamespaceRuleImplE@Base 4:4.5.85
 _ZN3DOM16CSSNamespaceRuleC1ERKNS_7CSSRuleE@Base 4:4.5.85
 _ZN3DOM16CSSNamespaceRuleC1ERKS0_@Base 4:4.5.85
 _ZN3DOM16CSSNamespaceRuleC1Ev@Base 4:4.5.85
 _ZN3DOM16CSSNamespaceRuleC2EPNS_20CSSNamespaceRuleImplE@Base 4:4.5.85
 _ZN3DOM16CSSNamespaceRuleC2ERKNS_7CSSRuleE@Base 4:4.5.85
 _ZN3DOM16CSSNamespaceRuleC2ERKS0_@Base 4:4.5.85
 _ZN3DOM16CSSNamespaceRuleC2Ev@Base 4:4.5.85
 _ZN3DOM16CSSNamespaceRuleD1Ev@Base 4:4.5.85
 _ZN3DOM16CSSNamespaceRuleD2Ev@Base 4:4.5.85
 _ZN3DOM16CSSNamespaceRuleaSERKNS_7CSSRuleE@Base 4:4.5.85
 _ZN3DOM16CSSNamespaceRuleaSERKS0_@Base 4:4.5.85
 _ZN3DOM16CustomNodeFilter10acceptNodeERKNS_4NodeE@Base 4:4.3.4
 _ZN3DOM16CustomNodeFilter20customNodeFilterTypeEv@Base 4:4.3.4
 _ZN3DOM16CustomNodeFilter6isNullEv@Base 4:4.3.4
 _ZN3DOM16CustomNodeFilterC1Ev@Base 4:4.3.4
 _ZN3DOM16CustomNodeFilterC2Ev@Base 4:4.3.4
 _ZN3DOM16CustomNodeFilterD0Ev@Base 4:4.3.4
 _ZN3DOM16CustomNodeFilterD1Ev@Base 4:4.3.4
 _ZN3DOM16CustomNodeFilterD2Ev@Base 4:4.3.4
 _ZN3DOM16DocumentFragmentC1EPNS_20DocumentFragmentImplE@Base 4:4.3.4
 _ZN3DOM16DocumentFragmentC1ERKS0_@Base 4:4.3.4
 _ZN3DOM16DocumentFragmentC1Ev@Base 4:4.3.4
 _ZN3DOM16DocumentFragmentC2EPNS_20DocumentFragmentImplE@Base 4:4.3.4
 _ZN3DOM16DocumentFragmentC2ERKS0_@Base 4:4.3.4
 _ZN3DOM16DocumentFragmentC2Ev@Base 4:4.3.4
 _ZN3DOM16DocumentFragmentD0Ev@Base 4:4.3.4
 _ZN3DOM16DocumentFragmentD1Ev@Base 4:4.3.4
 _ZN3DOM16DocumentFragmentD2Ev@Base 4:4.3.4
 _ZN3DOM16DocumentFragmentaSERKNS_4NodeE@Base 4:4.3.4
 _ZN3DOM16DocumentFragmentaSERKS0_@Base 4:4.3.4
 _ZN3DOM16HTMLDListElement10setCompactEb@Base 4:4.3.4
 _ZN3DOM16HTMLDListElementC1EPNS_20HTMLDListElementImplE@Base 4:4.3.4
 _ZN3DOM16HTMLDListElementC1ERKS0_@Base 4:4.3.4
 _ZN3DOM16HTMLDListElementC1Ev@Base 4:4.3.4
 _ZN3DOM16HTMLDListElementC2EPNS_20HTMLDListElementImplE@Base 4:4.3.4
 _ZN3DOM16HTMLDListElementC2ERKS0_@Base 4:4.3.4
 _ZN3DOM16HTMLDListElementC2Ev@Base 4:4.3.4
 _ZN3DOM16HTMLDListElementD0Ev@Base 4:4.3.4
 _ZN3DOM16HTMLDListElementD1Ev@Base 4:4.3.4
 _ZN3DOM16HTMLDListElementD2Ev@Base 4:4.3.4
 _ZN3DOM16HTMLDListElementaSERKNS_4NodeE@Base 4:4.3.4
 _ZN3DOM16HTMLDListElementaSERKS0_@Base 4:4.3.4
 _ZN3DOM16HTMLFrameElement11setLongDescERKNS_9DOMStringE@Base 4:4.3.4
 _ZN3DOM16HTMLFrameElement11setNoResizeEb@Base 4:4.3.4
 _ZN3DOM16HTMLFrameElement12setScrollingERKNS_9DOMStringE@Base 4:4.3.4
 _ZN3DOM16HTMLFrameElement14setFrameBorderERKNS_9DOMStringE@Base 4:4.3.4
 _ZN3DOM16HTMLFrameElement14setMarginWidthERKNS_9DOMStringE@Base 4:4.3.4
 _ZN3DOM16HTMLFrameElement15setMarginHeightERKNS_9DOMStringE@Base 4:4.3.4
 _ZN3DOM16HTMLFrameElement6setSrcERKNS_9DOMStringE@Base 4:4.3.4
 _ZN3DOM16HTMLFrameElement7setNameERKNS_9DOMStringE@Base 4:4.3.4
 _ZN3DOM16HTMLFrameElementC1EPNS_20HTMLFrameElementImplE@Base 4:4.3.4
 _ZN3DOM16HTMLFrameElementC1ERKS0_@Base 4:4.3.4
 _ZN3DOM16HTMLFrameElementC1Ev@Base 4:4.3.4
 _ZN3DOM16HTMLFrameElementC2EPNS_20HTMLFrameElementImplE@Base 4:4.3.4
 _ZN3DOM16HTMLFrameElementC2ERKS0_@Base 4:4.3.4
 _ZN3DOM16HTMLFrameElementC2Ev@Base 4:4.3.4
 _ZN3DOM16HTMLFrameElementD0Ev@Base 4:4.3.4
 _ZN3DOM16HTMLFrameElementD1Ev@Base 4:4.3.4
 _ZN3DOM16HTMLFrameElementD2Ev@Base 4:4.3.4
 _ZN3DOM16HTMLFrameElementaSERKNS_4NodeE@Base 4:4.3.4
 _ZN3DOM16HTMLFrameElementaSERKS0_@Base 4:4.3.4
 _ZN3DOM16HTMLImageElement11setLongDescERKNS_9DOMStringE@Base 4:4.3.4
 _ZN3DOM16HTMLImageElement6setAltERKNS_9DOMStringE@Base 4:4.3.4
 _ZN3DOM16HTMLImageElement6setSrcERKNS_9DOMStringE@Base 4:4.3.4
 _ZN3DOM16HTMLImageElement7setNameERKNS_9DOMStringE@Base 4:4.3.4
 _ZN3DOM16HTMLImageElement8setAlignERKNS_9DOMStringE@Base 4:4.3.4
 _ZN3DOM16HTMLImageElement8setIsMapEb@Base 4:4.3.4
 _ZN3DOM16HTMLImageElement8setWidthEl@Base 4:4.3.4
 _ZN3DOM16HTMLImageElement9setBorderERKNS_9DOMStringE@Base 4:4.3.4
 _ZN3DOM16HTMLImageElement9setBorderEl@Base 4:4.3.4
 _ZN3DOM16HTMLImageElement9setHeightEl@Base 4:4.3.4
 _ZN3DOM16HTMLImageElement9setHspaceEl@Base 4:4.3.4
 _ZN3DOM16HTMLImageElement9setUseMapERKNS_9DOMStringE@Base 4:4.3.4
 _ZN3DOM16HTMLImageElement9setVspaceEl@Base 4:4.3.4
 _ZN3DOM16HTMLImageElementC1EPNS_20HTMLImageElementImplE@Base 4:4.3.4
 _ZN3DOM16HTMLImageElementC1ERKS0_@Base 4:4.3.4
 _ZN3DOM16HTMLImageElementC1Ev@Base 4:4.3.4
 _ZN3DOM16HTMLImageElementC2EPNS_20HTMLImageElementImplE@Base 4:4.3.4
 _ZN3DOM16HTMLImageElementC2ERKS0_@Base 4:4.3.4
 _ZN3DOM16HTMLImageElementC2Ev@Base 4:4.3.4
 _ZN3DOM16HTMLImageElementD0Ev@Base 4:4.3.4
 _ZN3DOM16HTMLImageElementD1Ev@Base 4:4.3.4
 _ZN3DOM16HTMLImageElementD2Ev@Base 4:4.3.4
 _ZN3DOM16HTMLImageElementaSERKNS_4NodeE@Base 4:4.3.4
 _ZN3DOM16HTMLImageElementaSERKS0_@Base 4:4.3.4
 _ZN3DOM16HTMLInputElement10setCheckedEb@Base 4:4.3.4
 _ZN3DOM16HTMLInputElement11setDisabledEb@Base 4:4.3.4
 _ZN3DOM16HTMLInputElement11setReadOnlyEb@Base 4:4.3.4
 _ZN3DOM16HTMLInputElement11setTabIndexEl@Base 4:4.3.4
 _ZN3DOM16HTMLInputElement12selectionEndEv@Base 4:4.3.4
 _ZN3DOM16HTMLInputElement12setAccessKeyERKNS_9DOMStringE@Base 4:4.3.4
 _ZN3DOM16HTMLInputElement12setMaxLengthEl@Base 4:4.3.4
 _ZN3DOM16HTMLInputElement14selectionStartEv@Base 4:4.3.4
 _ZN3DOM16HTMLInputElement15setDefaultValueERKNS_9DOMStringE@Base 4:4.3.4
 _ZN3DOM16HTMLInputElement15setSelectionEndEl@Base 4:4.3.4
 _ZN3DOM16HTMLInputElement16setIndeterminateEb@Base 4:4.3.4
 _ZN3DOM16HTMLInputElement17setDefaultCheckedEb@Base 4:4.3.4
 _ZN3DOM16HTMLInputElement17setSelectionRangeEll@Base 4:4.3.4
 _ZN3DOM16HTMLInputElement17setSelectionStartEl@Base 4:4.3.4
 _ZN3DOM16HTMLInputElement4blurEv@Base 4:4.3.4
 _ZN3DOM16HTMLInputElement5clickEv@Base 4:4.3.4
 _ZN3DOM16HTMLInputElement5focusEv@Base 4:4.3.4
 _ZN3DOM16HTMLInputElement6selectEv@Base 4:4.3.4
 _ZN3DOM16HTMLInputElement6setAltERKNS_9DOMStringE@Base 4:4.3.4
 _ZN3DOM16HTMLInputElement6setSrcERKNS_9DOMStringE@Base 4:4.3.4
 _ZN3DOM16HTMLInputElement7setNameERKNS_9DOMStringE@Base 4:4.3.4
 _ZN3DOM16HTMLInputElement7setSizeERKNS_9DOMStringE@Base 4:4.3.4
 _ZN3DOM16HTMLInputElement7setSizeEl@Base 4:4.3.4
 _ZN3DOM16HTMLInputElement7setTypeERKNS_9DOMStringE@Base 4:4.3.4
 _ZN3DOM16HTMLInputElement8setAlignERKNS_9DOMStringE@Base 4:4.3.4
 _ZN3DOM16HTMLInputElement8setValueERKNS_9DOMStringE@Base 4:4.3.4
 _ZN3DOM16HTMLInputElement9setAcceptERKNS_9DOMStringE@Base 4:4.3.4
 _ZN3DOM16HTMLInputElement9setUseMapERKNS_9DOMStringE@Base 4:4.3.4
 _ZN3DOM16HTMLInputElementC1EPNS_20HTMLInputElementImplE@Base 4:4.3.4
 _ZN3DOM16HTMLInputElementC1ERKS0_@Base 4:4.3.4
 _ZN3DOM16HTMLInputElementC1Ev@Base 4:4.3.4
 _ZN3DOM16HTMLInputElementC2EPNS_20HTMLInputElementImplE@Base 4:4.3.4
 _ZN3DOM16HTMLInputElementC2ERKS0_@Base 4:4.3.4
 _ZN3DOM16HTMLInputElementC2Ev@Base 4:4.3.4
 _ZN3DOM16HTMLInputElementD0Ev@Base 4:4.3.4
 _ZN3DOM16HTMLInputElementD1Ev@Base 4:4.3.4
 _ZN3DOM16HTMLInputElementD2Ev@Base 4:4.3.4
 _ZN3DOM16HTMLInputElementaSERKNS_4NodeE@Base 4:4.3.4
 _ZN3DOM16HTMLInputElementaSERKS0_@Base 4:4.3.4
 _ZN3DOM16HTMLLabelElement10setHtmlForERKNS_9DOMStringE@Base 4:4.3.4
 _ZN3DOM16HTMLLabelElement12setAccessKeyERKNS_9DOMStringE@Base 4:4.3.4
 _ZN3DOM16HTMLLabelElementC1EPNS_20HTMLLabelElementImplE@Base 4:4.3.4
 _ZN3DOM16HTMLLabelElementC1ERKS0_@Base 4:4.3.4
 _ZN3DOM16HTMLLabelElementC1Ev@Base 4:4.3.4
 _ZN3DOM16HTMLLabelElementC2EPNS_20HTMLLabelElementImplE@Base 4:4.3.4
 _ZN3DOM16HTMLLabelElementC2ERKS0_@Base 4:4.3.4
 _ZN3DOM16HTMLLabelElementC2Ev@Base 4:4.3.4
 _ZN3DOM16HTMLLabelElementD0Ev@Base 4:4.3.4
 _ZN3DOM16HTMLLabelElementD1Ev@Base 4:4.3.4
 _ZN3DOM16HTMLLabelElementD2Ev@Base 4:4.3.4
 _ZN3DOM16HTMLLabelElementaSERKNS_4NodeE@Base 4:4.3.4
 _ZN3DOM16HTMLLabelElementaSERKS0_@Base 4:4.3.4
 _ZN3DOM16HTMLLayerElement10setBgColorERKNS_9DOMStringE@Base 4:4.3.4
 _ZN3DOM16HTMLLayerElement13setVisibilityERKNS_9DOMStringE@Base 4:4.3.4
 _ZN3DOM16HTMLLayerElement6setTopEl@Base 4:4.3.4
 _ZN3DOM16HTMLLayerElement7setLeftEl@Base 4:4.3.4
 _ZN3DOM16HTMLLayerElementC1EPNS_20HTMLLayerElementImplE@Base 4:4.3.4
 _ZN3DOM16HTMLLayerElementC1ERKS0_@Base 4:4.3.4
 _ZN3DOM16HTMLLayerElementC1Ev@Base 4:4.3.4
 _ZN3DOM16HTMLLayerElementC2EPNS_20HTMLLayerElementImplE@Base 4:4.3.4
 _ZN3DOM16HTMLLayerElementC2ERKS0_@Base 4:4.3.4
 _ZN3DOM16HTMLLayerElementC2Ev@Base 4:4.3.4
 _ZN3DOM16HTMLLayerElementD0Ev@Base 4:4.3.4
 _ZN3DOM16HTMLLayerElementD1Ev@Base 4:4.3.4
 _ZN3DOM16HTMLLayerElementD2Ev@Base 4:4.3.4
 _ZN3DOM16HTMLLayerElementaSERKNS_4NodeE@Base 4:4.3.4
 _ZN3DOM16HTMLLayerElementaSERKS0_@Base 4:4.3.4
 _ZN3DOM16HTMLOListElement10setCompactEb@Base 4:4.3.4
 _ZN3DOM16HTMLOListElement7setTypeERKNS_9DOMStringE@Base 4:4.3.4
 _ZN3DOM16HTMLOListElement8setStartEl@Base 4:4.3.4
 _ZN3DOM16HTMLOListElementC1EPNS_20HTMLOListElementImplE@Base 4:4.3.4
 _ZN3DOM16HTMLOListElementC1ERKS0_@Base 4:4.3.4
 _ZN3DOM16HTMLOListElementC1Ev@Base 4:4.3.4
 _ZN3DOM16HTMLOListElementC2EPNS_20HTMLOListElementImplE@Base 4:4.3.4
 _ZN3DOM16HTMLOListElementC2ERKS0_@Base 4:4.3.4
 _ZN3DOM16HTMLOListElementC2Ev@Base 4:4.3.4
 _ZN3DOM16HTMLOListElementD0Ev@Base 4:4.3.4
 _ZN3DOM16HTMLOListElementD1Ev@Base 4:4.3.4
 _ZN3DOM16HTMLOListElementD2Ev@Base 4:4.3.4
 _ZN3DOM16HTMLOListElementaSERKNS_4NodeE@Base 4:4.3.4
 _ZN3DOM16HTMLOListElementaSERKS0_@Base 4:4.3.4
 _ZN3DOM16HTMLParamElement12setValueTypeERKNS_9DOMStringE@Base 4:4.3.4
 _ZN3DOM16HTMLParamElement7setNameERKNS_9DOMStringE@Base 4:4.3.4
 _ZN3DOM16HTMLParamElement7setTypeERKNS_9DOMStringE@Base 4:4.3.4
 _ZN3DOM16HTMLParamElement8setValueERKNS_9DOMStringE@Base 4:4.3.4
 _ZN3DOM16HTMLParamElementC1EPNS_20HTMLParamElementImplE@Base 4:4.3.4
 _ZN3DOM16HTMLParamElementC1ERKS0_@Base 4:4.3.4
 _ZN3DOM16HTMLParamElementC1Ev@Base 4:4.3.4
 _ZN3DOM16HTMLParamElementC2EPNS_20HTMLParamElementImplE@Base 4:4.3.4
 _ZN3DOM16HTMLParamElementC2ERKS0_@Base 4:4.3.4
 _ZN3DOM16HTMLParamElementC2Ev@Base 4:4.3.4
 _ZN3DOM16HTMLParamElementD0Ev@Base 4:4.3.4
 _ZN3DOM16HTMLParamElementD1Ev@Base 4:4.3.4
 _ZN3DOM16HTMLParamElementD2Ev@Base 4:4.3.4
 _ZN3DOM16HTMLParamElementaSERKNS_4NodeE@Base 4:4.3.4
 _ZN3DOM16HTMLParamElementaSERKS0_@Base 4:4.3.4
 _ZN3DOM16HTMLQuoteElement7setCiteERKNS_9DOMStringE@Base 4:4.3.4
 _ZN3DOM16HTMLQuoteElementC1EPNS_22HTMLGenericElementImplE@Base 4:4.3.4
 _ZN3DOM16HTMLQuoteElementC1ERKS0_@Base 4:4.3.4
 _ZN3DOM16HTMLQuoteElementC1Ev@Base 4:4.3.4
 _ZN3DOM16HTMLQuoteElementC2EPNS_22HTMLGenericElementImplE@Base 4:4.3.4
 _ZN3DOM16HTMLQuoteElementC2ERKS0_@Base 4:4.3.4
 _ZN3DOM16HTMLQuoteElementC2Ev@Base 4:4.3.4
 _ZN3DOM16HTMLQuoteElementD0Ev@Base 4:4.3.4
 _ZN3DOM16HTMLQuoteElementD1Ev@Base 4:4.3.4
 _ZN3DOM16HTMLQuoteElementD2Ev@Base 4:4.3.4
 _ZN3DOM16HTMLQuoteElementaSERKNS_4NodeE@Base 4:4.3.4
 _ZN3DOM16HTMLQuoteElementaSERKS0_@Base 4:4.3.4
 _ZN3DOM16HTMLStyleElement11setDisabledEb@Base 4:4.3.4
 _ZN3DOM16HTMLStyleElement7setTypeERKNS_9DOMStringE@Base 4:4.3.4
 _ZN3DOM16HTMLStyleElement8setMediaERKNS_9DOMStringE@Base 4:4.3.4
 _ZN3DOM16HTMLStyleElementC1EPNS_20HTMLStyleElementImplE@Base 4:4.3.4
 _ZN3DOM16HTMLStyleElementC1ERKS0_@Base 4:4.3.4
 _ZN3DOM16HTMLStyleElementC1Ev@Base 4:4.3.4
 _ZN3DOM16HTMLStyleElementC2EPNS_20HTMLStyleElementImplE@Base 4:4.3.4
 _ZN3DOM16HTMLStyleElementC2ERKS0_@Base 4:4.3.4
 _ZN3DOM16HTMLStyleElementC2Ev@Base 4:4.3.4
 _ZN3DOM16HTMLStyleElementD0Ev@Base 4:4.3.4
 _ZN3DOM16HTMLStyleElementD1Ev@Base 4:4.3.4
 _ZN3DOM16HTMLStyleElementD2Ev@Base 4:4.3.4
 _ZN3DOM16HTMLStyleElementaSERKNS_4NodeE@Base 4:4.3.4
 _ZN3DOM16HTMLStyleElementaSERKS0_@Base 4:4.3.4
 _ZN3DOM16HTMLTableElement10setBgColorERKNS_9DOMStringE@Base 4:4.3.4
 _ZN3DOM16HTMLTableElement10setCaptionERKNS_23HTMLTableCaptionElementE@Base 4:4.3.4
 _ZN3DOM16HTMLTableElement10setSummaryERKNS_9DOMStringE@Base 4:4.3.4
 _ZN3DOM16HTMLTableElement11createTFootEv@Base 4:4.3.4
 _ZN3DOM16HTMLTableElement11createTHeadEv@Base 4:4.3.4
 _ZN3DOM16HTMLTableElement11deleteTFootEv@Base 4:4.3.4
 _ZN3DOM16HTMLTableElement11deleteTHeadEv@Base 4:4.3.4
 _ZN3DOM16HTMLTableElement13createCaptionEv@Base 4:4.3.4
 _ZN3DOM16HTMLTableElement13deleteCaptionEv@Base 4:4.3.4
 _ZN3DOM16HTMLTableElement14setCellPaddingERKNS_9DOMStringE@Base 4:4.3.4
 _ZN3DOM16HTMLTableElement14setCellSpacingERKNS_9DOMStringE@Base 4:4.3.4
 _ZN3DOM16HTMLTableElement8setAlignERKNS_9DOMStringE@Base 4:4.3.4
 _ZN3DOM16HTMLTableElement8setFrameERKNS_9DOMStringE@Base 4:4.3.4
 _ZN3DOM16HTMLTableElement8setRulesERKNS_9DOMStringE@Base 4:4.3.4
 _ZN3DOM16HTMLTableElement8setTFootERKNS_23HTMLTableSectionElementE@Base 4:4.3.4
 _ZN3DOM16HTMLTableElement8setTHeadERKNS_23HTMLTableSectionElementE@Base 4:4.3.4
 _ZN3DOM16HTMLTableElement8setWidthERKNS_9DOMStringE@Base 4:4.3.4
 _ZN3DOM16HTMLTableElement9deleteRowEl@Base 4:4.3.4
 _ZN3DOM16HTMLTableElement9insertRowEl@Base 4:4.3.4
 _ZN3DOM16HTMLTableElement9setBorderERKNS_9DOMStringE@Base 4:4.3.4
 _ZN3DOM16HTMLTableElementC1EPNS_20HTMLTableElementImplE@Base 4:4.3.4
 _ZN3DOM16HTMLTableElementC1ERKS0_@Base 4:4.3.4
 _ZN3DOM16HTMLTableElementC1Ev@Base 4:4.3.4
 _ZN3DOM16HTMLTableElementC2EPNS_20HTMLTableElementImplE@Base 4:4.3.4
 _ZN3DOM16HTMLTableElementC2ERKS0_@Base 4:4.3.4
 _ZN3DOM16HTMLTableElementC2Ev@Base 4:4.3.4
 _ZN3DOM16HTMLTableElementD0Ev@Base 4:4.3.4
 _ZN3DOM16HTMLTableElementD1Ev@Base 4:4.3.4
 _ZN3DOM16HTMLTableElementD2Ev@Base 4:4.3.4
 _ZN3DOM16HTMLTableElementaSERKNS_4NodeE@Base 4:4.3.4
 _ZN3DOM16HTMLTableElementaSERKS0_@Base 4:4.3.4
 _ZN3DOM16HTMLTitleElement7setTextERKNS_9DOMStringE@Base 4:4.3.4
 _ZN3DOM16HTMLTitleElementC1EPNS_20HTMLTitleElementImplE@Base 4:4.3.4
 _ZN3DOM16HTMLTitleElementC1ERKS0_@Base 4:4.3.4
 _ZN3DOM16HTMLTitleElementC1Ev@Base 4:4.3.4
 _ZN3DOM16HTMLTitleElementC2EPNS_20HTMLTitleElementImplE@Base 4:4.3.4
 _ZN3DOM16HTMLTitleElementC2ERKS0_@Base 4:4.3.4
 _ZN3DOM16HTMLTitleElementC2Ev@Base 4:4.3.4
 _ZN3DOM16HTMLTitleElementD0Ev@Base 4:4.3.4
 _ZN3DOM16HTMLTitleElementD1Ev@Base 4:4.3.4
 _ZN3DOM16HTMLTitleElementD2Ev@Base 4:4.3.4
 _ZN3DOM16HTMLTitleElementaSERKNS_4NodeE@Base 4:4.3.4
 _ZN3DOM16HTMLTitleElementaSERKS0_@Base 4:4.3.4
 _ZN3DOM16HTMLUListElement10setCompactEb@Base 4:4.3.4
 _ZN3DOM16HTMLUListElement7setTypeERKNS_9DOMStringE@Base 4:4.3.4
 _ZN3DOM16HTMLUListElementC1EPNS_20HTMLUListElementImplE@Base 4:4.3.4
 _ZN3DOM16HTMLUListElementC1ERKS0_@Base 4:4.3.4
 _ZN3DOM16HTMLUListElementC1Ev@Base 4:4.3.4
 _ZN3DOM16HTMLUListElementC2EPNS_20HTMLUListElementImplE@Base 4:4.3.4
 _ZN3DOM16HTMLUListElementC2ERKS0_@Base 4:4.3.4
 _ZN3DOM16HTMLUListElementC2Ev@Base 4:4.3.4
 _ZN3DOM16HTMLUListElementD0Ev@Base 4:4.3.4
 _ZN3DOM16HTMLUListElementD1Ev@Base 4:4.3.4
 _ZN3DOM16HTMLUListElementD2Ev@Base 4:4.3.4
 _ZN3DOM16HTMLUListElementaSERKNS_4NodeE@Base 4:4.3.4
 _ZN3DOM16HTMLUListElementaSERKS0_@Base 4:4.3.4
 _ZN3DOM17CSSPrimitiveValue13setFloatValueEtf@Base 4:4.3.4
 _ZN3DOM17CSSPrimitiveValue14setStringValueEtRKNS_9DOMStringE@Base 4:4.3.4
 _ZN3DOM17CSSPrimitiveValueC1EPNS_21CSSPrimitiveValueImplE@Base 4:4.3.4
 _ZN3DOM17CSSPrimitiveValueC1ERKNS_8CSSValueE@Base 4:4.3.4
 _ZN3DOM17CSSPrimitiveValueC1ERKS0_@Base 4:4.3.4
 _ZN3DOM17CSSPrimitiveValueC1Ev@Base 4:4.3.4
 _ZN3DOM17CSSPrimitiveValueC2EPNS_21CSSPrimitiveValueImplE@Base 4:4.3.4
 _ZN3DOM17CSSPrimitiveValueC2ERKNS_8CSSValueE@Base 4:4.3.4
 _ZN3DOM17CSSPrimitiveValueC2ERKS0_@Base 4:4.3.4
 _ZN3DOM17CSSPrimitiveValueC2Ev@Base 4:4.3.4
 _ZN3DOM17CSSPrimitiveValueD1Ev@Base 4:4.3.4
 _ZN3DOM17CSSPrimitiveValueD2Ev@Base 4:4.3.4
 _ZN3DOM17CSSPrimitiveValueaSERKNS_8CSSValueE@Base 4:4.3.4
 _ZN3DOM17CSSPrimitiveValueaSERKS0_@Base 4:4.3.4
 _ZN3DOM17DOMImplementation10hasFeatureERKNS_9DOMStringES3_@Base 4:4.3.4
 _ZN3DOM17DOMImplementation14createDocumentERKNS_9DOMStringES3_RKNS_12DocumentTypeE@Base 4:4.3.4
 _ZN3DOM17DOMImplementation18createDocumentTypeERKNS_9DOMStringES3_S3_@Base 4:4.3.4
 _ZN3DOM17DOMImplementation18createHTMLDocumentERKNS_9DOMStringE@Base 4:4.3.4
 _ZN3DOM17DOMImplementation19createCSSStyleSheetERKNS_9DOMStringES3_@Base 4:4.3.4
 _ZN3DOM17DOMImplementationC1EPNS_21DOMImplementationImplE@Base 4:4.3.4
 _ZN3DOM17DOMImplementationC1ERKS0_@Base 4:4.3.4
 _ZN3DOM17DOMImplementationC1Ev@Base 4:4.3.4
 _ZN3DOM17DOMImplementationC2EPNS_21DOMImplementationImplE@Base 4:4.3.4
 _ZN3DOM17DOMImplementationC2ERKS0_@Base 4:4.3.4
 _ZN3DOM17DOMImplementationC2Ev@Base 4:4.3.4
 _ZN3DOM17DOMImplementationD1Ev@Base 4:4.3.4
 _ZN3DOM17DOMImplementationD2Ev@Base 4:4.3.4
 _ZN3DOM17DOMImplementationaSERKS0_@Base 4:4.3.4
 _ZN3DOM17HTMLAnchorElement10setCharsetERKNS_9DOMStringE@Base 4:4.3.4
 _ZN3DOM17HTMLAnchorElement11setHreflangERKNS_9DOMStringE@Base 4:4.3.4
 _ZN3DOM17HTMLAnchorElement11setTabIndexEl@Base 4:4.3.4
 _ZN3DOM17HTMLAnchorElement12setAccessKeyERKNS_9DOMStringE@Base 4:4.3.4
 _ZN3DOM17HTMLAnchorElement4blurEv@Base 4:4.3.4
 _ZN3DOM17HTMLAnchorElement5focusEv@Base 4:4.3.4
 _ZN3DOM17HTMLAnchorElement6setRelERKNS_9DOMStringE@Base 4:4.3.4
 _ZN3DOM17HTMLAnchorElement6setRevERKNS_9DOMStringE@Base 4:4.3.4
 _ZN3DOM17HTMLAnchorElement7setHrefERKNS_9DOMStringE@Base 4:4.3.4
 _ZN3DOM17HTMLAnchorElement7setNameERKNS_9DOMStringE@Base 4:4.3.4
 _ZN3DOM17HTMLAnchorElement7setTypeERKNS_9DOMStringE@Base 4:4.3.4
 _ZN3DOM17HTMLAnchorElement8setShapeERKNS_9DOMStringE@Base 4:4.3.4
 _ZN3DOM17HTMLAnchorElement9setCoordsERKNS_9DOMStringE@Base 4:4.3.4
 _ZN3DOM17HTMLAnchorElement9setTargetERKNS_9DOMStringE@Base 4:4.3.4
 _ZN3DOM17HTMLAnchorElementC1EPNS_21HTMLAnchorElementImplE@Base 4:4.3.4
 _ZN3DOM17HTMLAnchorElementC1ERKS0_@Base 4:4.3.4
 _ZN3DOM17HTMLAnchorElementC1Ev@Base 4:4.3.4
 _ZN3DOM17HTMLAnchorElementC2EPNS_21HTMLAnchorElementImplE@Base 4:4.3.4
 _ZN3DOM17HTMLAnchorElementC2ERKS0_@Base 4:4.3.4
 _ZN3DOM17HTMLAnchorElementC2Ev@Base 4:4.3.4
 _ZN3DOM17HTMLAnchorElementD0Ev@Base 4:4.3.4
 _ZN3DOM17HTMLAnchorElementD1Ev@Base 4:4.3.4
 _ZN3DOM17HTMLAnchorElementD2Ev@Base 4:4.3.4
 _ZN3DOM17HTMLAnchorElementaSERKNS_4NodeE@Base 4:4.3.4
 _ZN3DOM17HTMLAnchorElementaSERKS0_@Base 4:4.3.4
 _ZN3DOM17HTMLAppletElement10setArchiveERKNS_9DOMStringE@Base 4:4.3.4
 _ZN3DOM17HTMLAppletElement11setCodeBaseERKNS_9DOMStringE@Base 4:4.3.4
 _ZN3DOM17HTMLAppletElement6setAltERKNS_9DOMStringE@Base 4:4.3.4
 _ZN3DOM17HTMLAppletElement7setCodeERKNS_9DOMStringE@Base 4:4.3.4
 _ZN3DOM17HTMLAppletElement7setNameERKNS_9DOMStringE@Base 4:4.3.4
 _ZN3DOM17HTMLAppletElement8setAlignERKNS_9DOMStringE@Base 4:4.3.4
 _ZN3DOM17HTMLAppletElement8setWidthERKNS_9DOMStringE@Base 4:4.3.4
 _ZN3DOM17HTMLAppletElement9setHeightERKNS_9DOMStringE@Base 4:4.3.4
 _ZN3DOM17HTMLAppletElement9setHspaceERKNS_9DOMStringE@Base 4:4.3.4
 _ZN3DOM17HTMLAppletElement9setHspaceEl@Base 4:4.3.4
 _ZN3DOM17HTMLAppletElement9setObjectERKNS_9DOMStringE@Base 4:4.3.4
 _ZN3DOM17HTMLAppletElement9setVspaceERKNS_9DOMStringE@Base 4:4.3.4
 _ZN3DOM17HTMLAppletElement9setVspaceEl@Base 4:4.3.4
 _ZN3DOM17HTMLAppletElementC1EPNS_21HTMLAppletElementImplE@Base 4:4.3.4
 _ZN3DOM17HTMLAppletElementC1ERKS0_@Base 4:4.3.4
 _ZN3DOM17HTMLAppletElementC1Ev@Base 4:4.3.4
 _ZN3DOM17HTMLAppletElementC2EPNS_21HTMLAppletElementImplE@Base 4:4.3.4
 _ZN3DOM17HTMLAppletElementC2ERKS0_@Base 4:4.3.4
 _ZN3DOM17HTMLAppletElementC2Ev@Base 4:4.3.4
 _ZN3DOM17HTMLAppletElementD0Ev@Base 4:4.3.4
 _ZN3DOM17HTMLAppletElementD1Ev@Base 4:4.3.4
 _ZN3DOM17HTMLAppletElementD2Ev@Base 4:4.3.4
 _ZN3DOM17HTMLAppletElementaSERKNS_4NodeE@Base 4:4.3.4
 _ZN3DOM17HTMLAppletElementaSERKS0_@Base 4:4.3.4
 _ZN3DOM17HTMLButtonElement11setDisabledEb@Base 4:4.3.4
 _ZN3DOM17HTMLButtonElement11setTabIndexEl@Base 4:4.3.4
 _ZN3DOM17HTMLButtonElement12setAccessKeyERKNS_9DOMStringE@Base 4:4.3.4
 _ZN3DOM17HTMLButtonElement4blurEv@Base 4:4.3.4
 _ZN3DOM17HTMLButtonElement5focusEv@Base 4:4.3.4
 _ZN3DOM17HTMLButtonElement7setNameERKNS_9DOMStringE@Base 4:4.3.4
 _ZN3DOM17HTMLButtonElement8setValueERKNS_9DOMStringE@Base 4:4.3.4
 _ZN3DOM17HTMLButtonElementC1EPNS_21HTMLButtonElementImplE@Base 4:4.3.4
 _ZN3DOM17HTMLButtonElementC1ERKS0_@Base 4:4.3.4
 _ZN3DOM17HTMLButtonElementC1Ev@Base 4:4.3.4
 _ZN3DOM17HTMLButtonElementC2EPNS_21HTMLButtonElementImplE@Base 4:4.3.4
 _ZN3DOM17HTMLButtonElementC2ERKS0_@Base 4:4.3.4
 _ZN3DOM17HTMLButtonElementC2Ev@Base 4:4.3.4
 _ZN3DOM17HTMLButtonElementD0Ev@Base 4:4.3.4
 _ZN3DOM17HTMLButtonElementD1Ev@Base 4:4.3.4
 _ZN3DOM17HTMLButtonElementD2Ev@Base 4:4.3.4
 _ZN3DOM17HTMLButtonElementaSERKNS_4NodeE@Base 4:4.3.4
 _ZN3DOM17HTMLButtonElementaSERKS0_@Base 4:4.3.4
 _ZN3DOM17HTMLIFrameElement11setLongDescERKNS_9DOMStringE@Base 4:4.3.4
 _ZN3DOM17HTMLIFrameElement12setScrollingERKNS_9DOMStringE@Base 4:4.3.4
 _ZN3DOM17HTMLIFrameElement14setFrameBorderERKNS_9DOMStringE@Base 4:4.3.4
 _ZN3DOM17HTMLIFrameElement14setMarginWidthERKNS_9DOMStringE@Base 4:4.3.4
 _ZN3DOM17HTMLIFrameElement15setMarginHeightERKNS_9DOMStringE@Base 4:4.3.4
 _ZN3DOM17HTMLIFrameElement6setSrcERKNS_9DOMStringE@Base 4:4.3.4
 _ZN3DOM17HTMLIFrameElement7setNameERKNS_9DOMStringE@Base 4:4.3.4
 _ZN3DOM17HTMLIFrameElement8setAlignERKNS_9DOMStringE@Base 4:4.3.4
 _ZN3DOM17HTMLIFrameElement8setWidthERKNS_9DOMStringE@Base 4:4.3.4
 _ZN3DOM17HTMLIFrameElement9setHeightERKNS_9DOMStringE@Base 4:4.3.4
 _ZN3DOM17HTMLIFrameElementC1EPNS_21HTMLIFrameElementImplE@Base 4:4.3.4
 _ZN3DOM17HTMLIFrameElementC1ERKS0_@Base 4:4.3.4
 _ZN3DOM17HTMLIFrameElementC1Ev@Base 4:4.3.4
 _ZN3DOM17HTMLIFrameElementC2EPNS_21HTMLIFrameElementImplE@Base 4:4.3.4
 _ZN3DOM17HTMLIFrameElementC2ERKS0_@Base 4:4.3.4
 _ZN3DOM17HTMLIFrameElementC2Ev@Base 4:4.3.4
 _ZN3DOM17HTMLIFrameElementD0Ev@Base 4:4.3.4
 _ZN3DOM17HTMLIFrameElementD1Ev@Base 4:4.3.4
 _ZN3DOM17HTMLIFrameElementD2Ev@Base 4:4.3.4
 _ZN3DOM17HTMLIFrameElementaSERKNS_4NodeE@Base 4:4.3.4
 _ZN3DOM17HTMLIFrameElementaSERKS0_@Base 4:4.3.4
 _ZN3DOM17HTMLLegendElement12setAccessKeyERKNS_9DOMStringE@Base 4:4.3.4
 _ZN3DOM17HTMLLegendElement8setAlignERKNS_9DOMStringE@Base 4:4.3.4
 _ZN3DOM17HTMLLegendElementC1EPNS_21HTMLLegendElementImplE@Base 4:4.3.4
 _ZN3DOM17HTMLLegendElementC1ERKS0_@Base 4:4.3.4
 _ZN3DOM17HTMLLegendElementC1Ev@Base 4:4.3.4
 _ZN3DOM17HTMLLegendElementC2EPNS_21HTMLLegendElementImplE@Base 4:4.3.4
 _ZN3DOM17HTMLLegendElementC2ERKS0_@Base 4:4.3.4
 _ZN3DOM17HTMLLegendElementC2Ev@Base 4:4.3.4
 _ZN3DOM17HTMLLegendElementD0Ev@Base 4:4.3.4
 _ZN3DOM17HTMLLegendElementD1Ev@Base 4:4.3.4
 _ZN3DOM17HTMLLegendElementD2Ev@Base 4:4.3.4
 _ZN3DOM17HTMLLegendElementaSERKNS_4NodeE@Base 4:4.3.4
 _ZN3DOM17HTMLLegendElementaSERKS0_@Base 4:4.3.4
 _ZN3DOM17HTMLObjectElement10setArchiveERKNS_9DOMStringE@Base 4:4.3.4
 _ZN3DOM17HTMLObjectElement10setDeclareEb@Base 4:4.3.4
 _ZN3DOM17HTMLObjectElement10setStandbyERKNS_9DOMStringE@Base 4:4.3.4
 _ZN3DOM17HTMLObjectElement11setCodeBaseERKNS_9DOMStringE@Base 4:4.3.4
 _ZN3DOM17HTMLObjectElement11setCodeTypeERKNS_9DOMStringE@Base 4:4.3.4
 _ZN3DOM17HTMLObjectElement11setTabIndexEl@Base 4:4.3.4
 _ZN3DOM17HTMLObjectElement7setCodeERKNS_9DOMStringE@Base 4:4.3.4
 _ZN3DOM17HTMLObjectElement7setDataERKNS_9DOMStringE@Base 4:4.3.4
 _ZN3DOM17HTMLObjectElement7setNameERKNS_9DOMStringE@Base 4:4.3.4
 _ZN3DOM17HTMLObjectElement7setTypeERKNS_9DOMStringE@Base 4:4.3.4
 _ZN3DOM17HTMLObjectElement8setAlignERKNS_9DOMStringE@Base 4:4.3.4
 _ZN3DOM17HTMLObjectElement8setWidthERKNS_9DOMStringE@Base 4:4.3.4
 _ZN3DOM17HTMLObjectElement9setBorderERKNS_9DOMStringE@Base 4:4.3.4
 _ZN3DOM17HTMLObjectElement9setHeightERKNS_9DOMStringE@Base 4:4.3.4
 _ZN3DOM17HTMLObjectElement9setHspaceERKNS_9DOMStringE@Base 4:4.3.4
 _ZN3DOM17HTMLObjectElement9setHspaceEl@Base 4:4.3.4
 _ZN3DOM17HTMLObjectElement9setUseMapERKNS_9DOMStringE@Base 4:4.3.4
 _ZN3DOM17HTMLObjectElement9setVspaceERKNS_9DOMStringE@Base 4:4.3.4
 _ZN3DOM17HTMLObjectElement9setVspaceEl@Base 4:4.3.4
 _ZN3DOM17HTMLObjectElementC1EPNS_21HTMLObjectElementImplE@Base 4:4.3.4
 _ZN3DOM17HTMLObjectElementC1ERKS0_@Base 4:4.3.4
 _ZN3DOM17HTMLObjectElementC1Ev@Base 4:4.3.4
 _ZN3DOM17HTMLObjectElementC2EPNS_21HTMLObjectElementImplE@Base 4:4.3.4
 _ZN3DOM17HTMLObjectElementC2ERKS0_@Base 4:4.3.4
 _ZN3DOM17HTMLObjectElementC2Ev@Base 4:4.3.4
 _ZN3DOM17HTMLObjectElementD0Ev@Base 4:4.3.4
 _ZN3DOM17HTMLObjectElementD1Ev@Base 4:4.3.4
 _ZN3DOM17HTMLObjectElementD2Ev@Base 4:4.3.4
 _ZN3DOM17HTMLObjectElementaSERKNS_4NodeE@Base 4:4.3.4
 _ZN3DOM17HTMLObjectElementaSERKS0_@Base 4:4.3.4
 _ZN3DOM17HTMLOptionElement11setDisabledEb@Base 4:4.3.4
 _ZN3DOM17HTMLOptionElement11setSelectedEb@Base 4:4.3.4
 _ZN3DOM17HTMLOptionElement18setDefaultSelectedEb@Base 4:4.3.4
 _ZN3DOM17HTMLOptionElement8setIndexEl@Base 4:4.3.4
 _ZN3DOM17HTMLOptionElement8setLabelERKNS_9DOMStringE@Base 4:4.3.4
 _ZN3DOM17HTMLOptionElement8setValueERKNS_9DOMStringE@Base 4:4.3.4
 _ZN3DOM17HTMLOptionElementC1EPNS_21HTMLOptionElementImplE@Base 4:4.3.4
 _ZN3DOM17HTMLOptionElementC1ERKS0_@Base 4:4.3.4
 _ZN3DOM17HTMLOptionElementC1Ev@Base 4:4.3.4
 _ZN3DOM17HTMLOptionElementC2EPNS_21HTMLOptionElementImplE@Base 4:4.3.4
 _ZN3DOM17HTMLOptionElementC2ERKS0_@Base 4:4.3.4
 _ZN3DOM17HTMLOptionElementC2Ev@Base 4:4.3.4
 _ZN3DOM17HTMLOptionElementD0Ev@Base 4:4.3.4
 _ZN3DOM17HTMLOptionElementD1Ev@Base 4:4.3.4
 _ZN3DOM17HTMLOptionElementD2Ev@Base 4:4.3.4
 _ZN3DOM17HTMLOptionElementaSERKNS_4NodeE@Base 4:4.3.4
 _ZN3DOM17HTMLOptionElementaSERKS0_@Base 4:4.3.4
 _ZN3DOM17HTMLScriptElement10setCharsetERKNS_9DOMStringE@Base 4:4.3.4
 _ZN3DOM17HTMLScriptElement10setHtmlForERKNS_9DOMStringE@Base 4:4.3.4
 _ZN3DOM17HTMLScriptElement6setSrcERKNS_9DOMStringE@Base 4:4.3.4
 _ZN3DOM17HTMLScriptElement7setTextERKNS_9DOMStringE@Base 4:4.3.4
 _ZN3DOM17HTMLScriptElement7setTypeERKNS_9DOMStringE@Base 4:4.3.4
 _ZN3DOM17HTMLScriptElement8setDeferEb@Base 4:4.3.4
 _ZN3DOM17HTMLScriptElement8setEventERKNS_9DOMStringE@Base 4:4.3.4
 _ZN3DOM17HTMLScriptElementC1EPNS_21HTMLScriptElementImplE@Base 4:4.3.4
 _ZN3DOM17HTMLScriptElementC1ERKS0_@Base 4:4.3.4
 _ZN3DOM17HTMLScriptElementC1Ev@Base 4:4.3.4
 _ZN3DOM17HTMLScriptElementC2EPNS_21HTMLScriptElementImplE@Base 4:4.3.4
 _ZN3DOM17HTMLScriptElementC2ERKS0_@Base 4:4.3.4
 _ZN3DOM17HTMLScriptElementC2Ev@Base 4:4.3.4
 _ZN3DOM17HTMLScriptElementD0Ev@Base 4:4.3.4
 _ZN3DOM17HTMLScriptElementD1Ev@Base 4:4.3.4
 _ZN3DOM17HTMLScriptElementD2Ev@Base 4:4.3.4
 _ZN3DOM17HTMLScriptElementaSERKNS_4NodeE@Base 4:4.3.4
 _ZN3DOM17HTMLScriptElementaSERKS0_@Base 4:4.3.4
 _ZN3DOM17HTMLSelectElement11setDisabledEb@Base 4:4.3.4
 _ZN3DOM17HTMLSelectElement11setMultipleEb@Base 4:4.3.4
 _ZN3DOM17HTMLSelectElement11setTabIndexEl@Base 4:4.3.4
 _ZN3DOM17HTMLSelectElement16setSelectedIndexEl@Base 4:4.3.4
 _ZN3DOM17HTMLSelectElement3addERKNS_11HTMLElementES3_@Base 4:4.3.4
 _ZN3DOM17HTMLSelectElement4blurEv@Base 4:4.3.4
 _ZN3DOM17HTMLSelectElement5focusEv@Base 4:4.3.4
 _ZN3DOM17HTMLSelectElement6removeEl@Base 4:4.3.4
 _ZN3DOM17HTMLSelectElement7setNameERKNS_9DOMStringE@Base 4:4.3.4
 _ZN3DOM17HTMLSelectElement7setSizeEl@Base 4:4.3.4
 _ZN3DOM17HTMLSelectElement8setValueERKNS_9DOMStringE@Base 4:4.3.4
 _ZN3DOM17HTMLSelectElementC1EPNS_21HTMLSelectElementImplE@Base 4:4.3.4
 _ZN3DOM17HTMLSelectElementC1ERKS0_@Base 4:4.3.4
 _ZN3DOM17HTMLSelectElementC1Ev@Base 4:4.3.4
 _ZN3DOM17HTMLSelectElementC2EPNS_21HTMLSelectElementImplE@Base 4:4.3.4
 _ZN3DOM17HTMLSelectElementC2ERKS0_@Base 4:4.3.4
 _ZN3DOM17HTMLSelectElementC2Ev@Base 4:4.3.4
 _ZN3DOM17HTMLSelectElementD0Ev@Base 4:4.3.4
 _ZN3DOM17HTMLSelectElementD1Ev@Base 4:4.3.4
 _ZN3DOM17HTMLSelectElementD2Ev@Base 4:4.3.4
 _ZN3DOM17HTMLSelectElementaSERKNS_4NodeE@Base 4:4.3.4
 _ZN3DOM17HTMLSelectElementaSERKS0_@Base 4:4.3.4
 _ZN3DOM18HTMLFormCollectionC1EPNS_8NodeImplE@Base 4:4.3.4
 _ZN3DOM18HTMLFormCollectionC2EPNS_8NodeImplE@Base 4:4.3.4
 _ZN3DOM18HTMLHeadingElement8setAlignERKNS_9DOMStringE@Base 4:4.3.4
 _ZN3DOM18HTMLHeadingElementC1EPNS_15HTMLElementImplE@Base 4:4.3.4
 _ZN3DOM18HTMLHeadingElementC1ERKS0_@Base 4:4.3.4
 _ZN3DOM18HTMLHeadingElementC1Ev@Base 4:4.3.4
 _ZN3DOM18HTMLHeadingElementC2EPNS_15HTMLElementImplE@Base 4:4.3.4
 _ZN3DOM18HTMLHeadingElementC2ERKS0_@Base 4:4.3.4
 _ZN3DOM18HTMLHeadingElementC2Ev@Base 4:4.3.4
 _ZN3DOM18HTMLHeadingElementD0Ev@Base 4:4.3.4
 _ZN3DOM18HTMLHeadingElementD1Ev@Base 4:4.3.4
 _ZN3DOM18HTMLHeadingElementD2Ev@Base 4:4.3.4
 _ZN3DOM18HTMLHeadingElementaSERKNS_4NodeE@Base 4:4.3.4
 _ZN3DOM18HTMLHeadingElementaSERKS0_@Base 4:4.3.4
 _ZN3DOM18HTMLIsIndexElement9setPromptERKNS_9DOMStringE@Base 4:4.3.4
 _ZN3DOM18HTMLIsIndexElementC1EPNS_22HTMLIsIndexElementImplE@Base 4:4.3.4
 _ZN3DOM18HTMLIsIndexElementC1ERKS0_@Base 4:4.3.4
 _ZN3DOM18HTMLIsIndexElementC1Ev@Base 4:4.3.4
 _ZN3DOM18HTMLIsIndexElementC2EPNS_22HTMLIsIndexElementImplE@Base 4:4.3.4
 _ZN3DOM18HTMLIsIndexElementC2ERKS0_@Base 4:4.3.4
 _ZN3DOM18HTMLIsIndexElementC2Ev@Base 4:4.3.4
 _ZN3DOM18HTMLIsIndexElementD0Ev@Base 4:4.3.4
 _ZN3DOM18HTMLIsIndexElementD1Ev@Base 4:4.3.4
 _ZN3DOM18HTMLIsIndexElementD2Ev@Base 4:4.3.4
 _ZN3DOM18HTMLIsIndexElementaSERKNS_4NodeE@Base 4:4.3.4
 _ZN3DOM18HTMLIsIndexElementaSERKS0_@Base 4:4.3.4
 _ZN3DOM19CSSStyleDeclaration10setCssTextERKNS_9DOMStringE@Base 4:4.3.4
 _ZN3DOM19CSSStyleDeclaration11setPropertyERKNS_9DOMStringES3_S3_@Base 4:4.3.4
 _ZN3DOM19CSSStyleDeclaration14removePropertyERKNS_9DOMStringE@Base 4:4.3.4
 _ZN3DOM19CSSStyleDeclaration4itemEm@Base 4:4.3.4
 _ZN3DOM19CSSStyleDeclarationC1EPNS_23CSSStyleDeclarationImplE@Base 4:4.3.4
 _ZN3DOM19CSSStyleDeclarationC1ERKS0_@Base 4:4.3.4
 _ZN3DOM19CSSStyleDeclarationC1Ev@Base 4:4.3.4
 _ZN3DOM19CSSStyleDeclarationC2EPNS_23CSSStyleDeclarationImplE@Base 4:4.3.4
 _ZN3DOM19CSSStyleDeclarationC2ERKS0_@Base 4:4.3.4
 _ZN3DOM19CSSStyleDeclarationC2Ev@Base 4:4.3.4
 _ZN3DOM19CSSStyleDeclarationD1Ev@Base 4:4.3.4
 _ZN3DOM19CSSStyleDeclarationD2Ev@Base 4:4.3.4
 _ZN3DOM19CSSStyleDeclarationaSERKS0_@Base 4:4.3.4
 _ZN3DOM19HTMLBaseFontElement7setFaceERKNS_9DOMStringE@Base 4:4.3.4
 _ZN3DOM19HTMLBaseFontElement7setSizeERKNS_9DOMStringE@Base 4:4.3.4
 _ZN3DOM19HTMLBaseFontElement7setSizeEl@Base 4:4.3.4
 _ZN3DOM19HTMLBaseFontElement8setColorERKNS_9DOMStringE@Base 4:4.3.4
 _ZN3DOM19HTMLBaseFontElementC1EPNS_23HTMLBaseFontElementImplE@Base 4:4.3.4
 _ZN3DOM19HTMLBaseFontElementC1ERKS0_@Base 4:4.3.4
 _ZN3DOM19HTMLBaseFontElementC1Ev@Base 4:4.3.4
 _ZN3DOM19HTMLBaseFontElementC2EPNS_23HTMLBaseFontElementImplE@Base 4:4.3.4
 _ZN3DOM19HTMLBaseFontElementC2ERKS0_@Base 4:4.3.4
 _ZN3DOM19HTMLBaseFontElementC2Ev@Base 4:4.3.4
 _ZN3DOM19HTMLBaseFontElementD0Ev@Base 4:4.3.4
 _ZN3DOM19HTMLBaseFontElementD1Ev@Base 4:4.3.4
 _ZN3DOM19HTMLBaseFontElementD2Ev@Base 4:4.3.4
 _ZN3DOM19HTMLBaseFontElementaSERKNS_4NodeE@Base 4:4.3.4
 _ZN3DOM19HTMLBaseFontElementaSERKS0_@Base 4:4.3.4
 _ZN3DOM19HTMLFieldSetElementC1EPNS_23HTMLFieldSetElementImplE@Base 4:4.3.4
 _ZN3DOM19HTMLFieldSetElementC1ERKS0_@Base 4:4.3.4
 _ZN3DOM19HTMLFieldSetElementC1Ev@Base 4:4.3.4
 _ZN3DOM19HTMLFieldSetElementC2EPNS_23HTMLFieldSetElementImplE@Base 4:4.3.4
 _ZN3DOM19HTMLFieldSetElementC2ERKS0_@Base 4:4.3.4
 _ZN3DOM19HTMLFieldSetElementC2Ev@Base 4:4.3.4
 _ZN3DOM19HTMLFieldSetElementD0Ev@Base 4:4.3.4
 _ZN3DOM19HTMLFieldSetElementD1Ev@Base 4:4.3.4
 _ZN3DOM19HTMLFieldSetElementD2Ev@Base 4:4.3.4
 _ZN3DOM19HTMLFieldSetElementaSERKNS_4NodeE@Base 4:4.3.4
 _ZN3DOM19HTMLFieldSetElementaSERKS0_@Base 4:4.3.4
 _ZN3DOM19HTMLFrameSetElement7setColsERKNS_9DOMStringE@Base 4:4.3.4
 _ZN3DOM19HTMLFrameSetElement7setRowsERKNS_9DOMStringE@Base 4:4.3.4
 _ZN3DOM19HTMLFrameSetElementC1EPNS_23HTMLFrameSetElementImplE@Base 4:4.3.4
 _ZN3DOM19HTMLFrameSetElementC1ERKS0_@Base 4:4.3.4
 _ZN3DOM19HTMLFrameSetElementC1Ev@Base 4:4.3.4
 _ZN3DOM19HTMLFrameSetElementC2EPNS_23HTMLFrameSetElementImplE@Base 4:4.3.4
 _ZN3DOM19HTMLFrameSetElementC2ERKS0_@Base 4:4.3.4
 _ZN3DOM19HTMLFrameSetElementC2Ev@Base 4:4.3.4
 _ZN3DOM19HTMLFrameSetElementD0Ev@Base 4:4.3.4
 _ZN3DOM19HTMLFrameSetElementD1Ev@Base 4:4.3.4
 _ZN3DOM19HTMLFrameSetElementD2Ev@Base 4:4.3.4
 _ZN3DOM19HTMLFrameSetElementaSERKNS_4NodeE@Base 4:4.3.4
 _ZN3DOM19HTMLFrameSetElementaSERKS0_@Base 4:4.3.4
 _ZN3DOM19HTMLOptGroupElement11setDisabledEb@Base 4:4.3.4
 _ZN3DOM19HTMLOptGroupElement8setLabelERKNS_9DOMStringE@Base 4:4.3.4
 _ZN3DOM19HTMLOptGroupElementC1EPNS_23HTMLOptGroupElementImplE@Base 4:4.3.4
 _ZN3DOM19HTMLOptGroupElementC1ERKS0_@Base 4:4.3.4
 _ZN3DOM19HTMLOptGroupElementC1Ev@Base 4:4.3.4
 _ZN3DOM19HTMLOptGroupElementC2EPNS_23HTMLOptGroupElementImplE@Base 4:4.3.4
 _ZN3DOM19HTMLOptGroupElementC2ERKS0_@Base 4:4.3.4
 _ZN3DOM19HTMLOptGroupElementC2Ev@Base 4:4.3.4
 _ZN3DOM19HTMLOptGroupElementD0Ev@Base 4:4.3.4
 _ZN3DOM19HTMLOptGroupElementD1Ev@Base 4:4.3.4
 _ZN3DOM19HTMLOptGroupElementD2Ev@Base 4:4.3.4
 _ZN3DOM19HTMLOptGroupElementaSERKNS_4NodeE@Base 4:4.3.4
 _ZN3DOM19HTMLOptGroupElementaSERKS0_@Base 4:4.3.4
 _ZN3DOM19HTMLTableColElement5setChERKNS_9DOMStringE@Base 4:4.3.4
 _ZN3DOM19HTMLTableColElement7setSpanEl@Base 4:4.3.4
 _ZN3DOM19HTMLTableColElement8setAlignERKNS_9DOMStringE@Base 4:4.3.4
 _ZN3DOM19HTMLTableColElement8setChOffERKNS_9DOMStringE@Base 4:4.3.4
 _ZN3DOM19HTMLTableColElement8setWidthERKNS_9DOMStringE@Base 4:4.3.4
 _ZN3DOM19HTMLTableColElement9setVAlignERKNS_9DOMStringE@Base 4:4.3.4
 _ZN3DOM19HTMLTableColElementC1EPNS_23HTMLTableColElementImplE@Base 4:4.3.4
 _ZN3DOM19HTMLTableColElementC1ERKS0_@Base 4:4.3.4
 _ZN3DOM19HTMLTableColElementC1Ev@Base 4:4.3.4
 _ZN3DOM19HTMLTableColElementC2EPNS_23HTMLTableColElementImplE@Base 4:4.3.4
 _ZN3DOM19HTMLTableColElementC2ERKS0_@Base 4:4.3.4
 _ZN3DOM19HTMLTableColElementC2Ev@Base 4:4.3.4
 _ZN3DOM19HTMLTableColElementD0Ev@Base 4:4.3.4
 _ZN3DOM19HTMLTableColElementD1Ev@Base 4:4.3.4
 _ZN3DOM19HTMLTableColElementD2Ev@Base 4:4.3.4
 _ZN3DOM19HTMLTableColElementaSERKNS_4NodeE@Base 4:4.3.4
 _ZN3DOM19HTMLTableColElementaSERKS0_@Base 4:4.3.4
 _ZN3DOM19HTMLTableRowElement10deleteCellEl@Base 4:4.3.4
 _ZN3DOM19HTMLTableRowElement10insertCellEl@Base 4:4.3.4
 _ZN3DOM19HTMLTableRowElement10setBgColorERKNS_9DOMStringE@Base 4:4.3.4
 _ZN3DOM19HTMLTableRowElement11setRowIndexEl@Base 4:4.3.4
 _ZN3DOM19HTMLTableRowElement18setSectionRowIndexEl@Base 4:4.3.4
 _ZN3DOM19HTMLTableRowElement5setChERKNS_9DOMStringE@Base 4:4.3.4
 _ZN3DOM19HTMLTableRowElement8setAlignERKNS_9DOMStringE@Base 4:4.3.4
 _ZN3DOM19HTMLTableRowElement8setCellsERKNS_14HTMLCollectionE@Base 4:4.3.4
 _ZN3DOM19HTMLTableRowElement8setChOffERKNS_9DOMStringE@Base 4:4.3.4
 _ZN3DOM19HTMLTableRowElement9setVAlignERKNS_9DOMStringE@Base 4:4.3.4
 _ZN3DOM19HTMLTableRowElementC1EPNS_23HTMLTableRowElementImplE@Base 4:4.3.4
 _ZN3DOM19HTMLTableRowElementC1ERKS0_@Base 4:4.3.4
 _ZN3DOM19HTMLTableRowElementC1Ev@Base 4:4.3.4
 _ZN3DOM19HTMLTableRowElementC2EPNS_23HTMLTableRowElementImplE@Base 4:4.3.4
 _ZN3DOM19HTMLTableRowElementC2ERKS0_@Base 4:4.3.4
 _ZN3DOM19HTMLTableRowElementC2Ev@Base 4:4.3.4
 _ZN3DOM19HTMLTableRowElementD0Ev@Base 4:4.3.4
 _ZN3DOM19HTMLTableRowElementD1Ev@Base 4:4.3.4
 _ZN3DOM19HTMLTableRowElementD2Ev@Base 4:4.3.4
 _ZN3DOM19HTMLTableRowElementaSERKNS_4NodeE@Base 4:4.3.4
 _ZN3DOM19HTMLTableRowElementaSERKS0_@Base 4:4.3.4
 _ZN3DOM19HTMLTextAreaElement10textLengthEv@Base 4:4.3.4
 _ZN3DOM19HTMLTextAreaElement11setDisabledEb@Base 4:4.3.4
 _ZN3DOM19HTMLTextAreaElement11setReadOnlyEb@Base 4:4.3.4
 _ZN3DOM19HTMLTextAreaElement11setTabIndexEl@Base 4:4.3.4
 _ZN3DOM19HTMLTextAreaElement12selectionEndEv@Base 4:4.3.4
 _ZN3DOM19HTMLTextAreaElement12setAccessKeyERKNS_9DOMStringE@Base 4:4.3.4
 _ZN3DOM19HTMLTextAreaElement14selectionStartEv@Base 4:4.3.4
 _ZN3DOM19HTMLTextAreaElement15setDefaultValueERKNS_9DOMStringE@Base 4:4.3.4
 _ZN3DOM19HTMLTextAreaElement15setSelectionEndEl@Base 4:4.3.4
 _ZN3DOM19HTMLTextAreaElement17setSelectionRangeEll@Base 4:4.3.4
 _ZN3DOM19HTMLTextAreaElement17setSelectionStartEl@Base 4:4.3.4
 _ZN3DOM19HTMLTextAreaElement4blurEv@Base 4:4.3.4
 _ZN3DOM19HTMLTextAreaElement5focusEv@Base 4:4.3.4
 _ZN3DOM19HTMLTextAreaElement6selectEv@Base 4:4.3.4
 _ZN3DOM19HTMLTextAreaElement7setColsEl@Base 4:4.3.4
 _ZN3DOM19HTMLTextAreaElement7setNameERKNS_9DOMStringE@Base 4:4.3.4
 _ZN3DOM19HTMLTextAreaElement7setRowsEl@Base 4:4.3.4
 _ZN3DOM19HTMLTextAreaElement8setValueERKNS_9DOMStringE@Base 4:4.3.4
 _ZN3DOM19HTMLTextAreaElementC1EPNS_23HTMLTextAreaElementImplE@Base 4:4.3.4
 _ZN3DOM19HTMLTextAreaElementC1ERKS0_@Base 4:4.3.4
 _ZN3DOM19HTMLTextAreaElementC1Ev@Base 4:4.3.4
 _ZN3DOM19HTMLTextAreaElementC2EPNS_23HTMLTextAreaElementImplE@Base 4:4.3.4
 _ZN3DOM19HTMLTextAreaElementC2ERKS0_@Base 4:4.3.4
 _ZN3DOM19HTMLTextAreaElementC2Ev@Base 4:4.3.4
 _ZN3DOM19HTMLTextAreaElementD0Ev@Base 4:4.3.4
 _ZN3DOM19HTMLTextAreaElementD1Ev@Base 4:4.3.4
 _ZN3DOM19HTMLTextAreaElementD2Ev@Base 4:4.3.4
 _ZN3DOM19HTMLTextAreaElementaSERKNS_4NodeE@Base 4:4.3.4
 _ZN3DOM19HTMLTextAreaElementaSERKS0_@Base 4:4.3.4
 _ZN3DOM20HTMLDirectoryElement10setCompactEb@Base 4:4.3.4
 _ZN3DOM20HTMLDirectoryElementC1EPNS_24HTMLDirectoryElementImplE@Base 4:4.3.4
 _ZN3DOM20HTMLDirectoryElementC1ERKS0_@Base 4:4.3.4
 _ZN3DOM20HTMLDirectoryElementC1Ev@Base 4:4.3.4
 _ZN3DOM20HTMLDirectoryElementC2EPNS_24HTMLDirectoryElementImplE@Base 4:4.3.4
 _ZN3DOM20HTMLDirectoryElementC2ERKS0_@Base 4:4.3.4
 _ZN3DOM20HTMLDirectoryElementC2Ev@Base 4:4.3.4
 _ZN3DOM20HTMLDirectoryElementD0Ev@Base 4:4.3.4
 _ZN3DOM20HTMLDirectoryElementD1Ev@Base 4:4.3.4
 _ZN3DOM20HTMLDirectoryElementD2Ev@Base 4:4.3.4
 _ZN3DOM20HTMLDirectoryElementaSERKNS_4NodeE@Base 4:4.3.4
 _ZN3DOM20HTMLDirectoryElementaSERKS0_@Base 4:4.3.4
 _ZN3DOM20HTMLParagraphElement8setAlignERKNS_9DOMStringE@Base 4:4.3.4
 _ZN3DOM20HTMLParagraphElementC1EPNS_15HTMLElementImplE@Base 4:4.3.4
 _ZN3DOM20HTMLParagraphElementC1ERKS0_@Base 4:4.3.4
 _ZN3DOM20HTMLParagraphElementC1Ev@Base 4:4.3.4
 _ZN3DOM20HTMLParagraphElementC2EPNS_15HTMLElementImplE@Base 4:4.3.4
 _ZN3DOM20HTMLParagraphElementC2ERKS0_@Base 4:4.3.4
 _ZN3DOM20HTMLParagraphElementC2Ev@Base 4:4.3.4
 _ZN3DOM20HTMLParagraphElementD0Ev@Base 4:4.3.4
 _ZN3DOM20HTMLParagraphElementD1Ev@Base 4:4.3.4
 _ZN3DOM20HTMLParagraphElementD2Ev@Base 4:4.3.4
 _ZN3DOM20HTMLParagraphElementaSERKNS_4NodeE@Base 4:4.3.4
 _ZN3DOM20HTMLParagraphElementaSERKS0_@Base 4:4.3.4
 _ZN3DOM20HTMLTableCellElement10setBgColorERKNS_9DOMStringE@Base 4:4.3.4
 _ZN3DOM20HTMLTableCellElement10setColSpanEl@Base 4:4.3.4
 _ZN3DOM20HTMLTableCellElement10setHeadersERKNS_9DOMStringE@Base 4:4.3.4
 _ZN3DOM20HTMLTableCellElement10setRowSpanEl@Base 4:4.3.4
 _ZN3DOM20HTMLTableCellElement12setCellIndexEl@Base 4:4.3.4
 _ZN3DOM20HTMLTableCellElement5setChERKNS_9DOMStringE@Base 4:4.3.4
 _ZN3DOM20HTMLTableCellElement7setAbbrERKNS_9DOMStringE@Base 4:4.3.4
 _ZN3DOM20HTMLTableCellElement7setAxisERKNS_9DOMStringE@Base 4:4.3.4
 _ZN3DOM20HTMLTableCellElement8setAlignERKNS_9DOMStringE@Base 4:4.3.4
 _ZN3DOM20HTMLTableCellElement8setChOffERKNS_9DOMStringE@Base 4:4.3.4
 _ZN3DOM20HTMLTableCellElement8setScopeERKNS_9DOMStringE@Base 4:4.3.4
 _ZN3DOM20HTMLTableCellElement8setWidthERKNS_9DOMStringE@Base 4:4.3.4
 _ZN3DOM20HTMLTableCellElement9setHeightERKNS_9DOMStringE@Base 4:4.3.4
 _ZN3DOM20HTMLTableCellElement9setNoWrapEb@Base 4:4.3.4
 _ZN3DOM20HTMLTableCellElement9setVAlignERKNS_9DOMStringE@Base 4:4.3.4
 _ZN3DOM20HTMLTableCellElementC1EPNS_24HTMLTableCellElementImplE@Base 4:4.3.4
 _ZN3DOM20HTMLTableCellElementC1ERKS0_@Base 4:4.3.4
 _ZN3DOM20HTMLTableCellElementC1Ev@Base 4:4.3.4
 _ZN3DOM20HTMLTableCellElementC2EPNS_24HTMLTableCellElementImplE@Base 4:4.3.4
 _ZN3DOM20HTMLTableCellElementC2ERKS0_@Base 4:4.3.4
 _ZN3DOM20HTMLTableCellElementC2Ev@Base 4:4.3.4
 _ZN3DOM20HTMLTableCellElementD0Ev@Base 4:4.3.4
 _ZN3DOM20HTMLTableCellElementD1Ev@Base 4:4.3.4
 _ZN3DOM20HTMLTableCellElementD2Ev@Base 4:4.3.4
 _ZN3DOM20HTMLTableCellElementaSERKNS_4NodeE@Base 4:4.3.4
 _ZN3DOM20HTMLTableCellElementaSERKS0_@Base 4:4.3.4
 _ZN3DOM21HTMLBlockquoteElement7setCiteERKNS_9DOMStringE@Base 4:4.3.4
 _ZN3DOM21HTMLBlockquoteElementC1EPNS_15HTMLElementImplE@Base 4:4.3.4
 _ZN3DOM21HTMLBlockquoteElementC1ERKS0_@Base 4:4.3.4
 _ZN3DOM21HTMLBlockquoteElementC1Ev@Base 4:4.3.4
 _ZN3DOM21HTMLBlockquoteElementC2EPNS_15HTMLElementImplE@Base 4:4.3.4
 _ZN3DOM21HTMLBlockquoteElementC2ERKS0_@Base 4:4.3.4
 _ZN3DOM21HTMLBlockquoteElementC2Ev@Base 4:4.3.4
 _ZN3DOM21HTMLBlockquoteElementD0Ev@Base 4:4.3.4
 _ZN3DOM21HTMLBlockquoteElementD1Ev@Base 4:4.3.4
 _ZN3DOM21HTMLBlockquoteElementD2Ev@Base 4:4.3.4
 _ZN3DOM21HTMLBlockquoteElementaSERKNS_4NodeE@Base 4:4.3.4
 _ZN3DOM21HTMLBlockquoteElementaSERKS0_@Base 4:4.3.4
 _ZN3DOM21ProcessingInstruction7setDataERKNS_9DOMStringE@Base 4:4.3.4
 _ZN3DOM21ProcessingInstructionC1EPNS_25ProcessingInstructionImplE@Base 4:4.3.4
 _ZN3DOM21ProcessingInstructionC1ERKS0_@Base 4:4.3.4
 _ZN3DOM21ProcessingInstructionC1Ev@Base 4:4.3.4
 _ZN3DOM21ProcessingInstructionC2EPNS_25ProcessingInstructionImplE@Base 4:4.3.4
 _ZN3DOM21ProcessingInstructionC2ERKS0_@Base 4:4.3.4
 _ZN3DOM21ProcessingInstructionC2Ev@Base 4:4.3.4
 _ZN3DOM21ProcessingInstructionD0Ev@Base 4:4.3.4
 _ZN3DOM21ProcessingInstructionD1Ev@Base 4:4.3.4
 _ZN3DOM21ProcessingInstructionD2Ev@Base 4:4.3.4
 _ZN3DOM21ProcessingInstructionaSERKNS_4NodeE@Base 4:4.3.4
 _ZN3DOM21ProcessingInstructionaSERKS0_@Base 4:4.3.4
 _ZN3DOM23HTMLTableCaptionElement8setAlignERKNS_9DOMStringE@Base 4:4.3.4
 _ZN3DOM23HTMLTableCaptionElementC1EPNS_27HTMLTableCaptionElementImplE@Base 4:4.3.4
 _ZN3DOM23HTMLTableCaptionElementC1ERKS0_@Base 4:4.3.4
 _ZN3DOM23HTMLTableCaptionElementC1Ev@Base 4:4.3.4
 _ZN3DOM23HTMLTableCaptionElementC2EPNS_27HTMLTableCaptionElementImplE@Base 4:4.3.4
 _ZN3DOM23HTMLTableCaptionElementC2ERKS0_@Base 4:4.3.4
 _ZN3DOM23HTMLTableCaptionElementC2Ev@Base 4:4.3.4
 _ZN3DOM23HTMLTableCaptionElementD0Ev@Base 4:4.3.4
 _ZN3DOM23HTMLTableCaptionElementD1Ev@Base 4:4.3.4
 _ZN3DOM23HTMLTableCaptionElementD2Ev@Base 4:4.3.4
 _ZN3DOM23HTMLTableCaptionElementaSERKNS_4NodeE@Base 4:4.3.4
 _ZN3DOM23HTMLTableCaptionElementaSERKS0_@Base 4:4.3.4
 _ZN3DOM23HTMLTableSectionElement5setChERKNS_9DOMStringE@Base 4:4.3.4
 _ZN3DOM23HTMLTableSectionElement8setAlignERKNS_9DOMStringE@Base 4:4.3.4
 _ZN3DOM23HTMLTableSectionElement8setChOffERKNS_9DOMStringE@Base 4:4.3.4
 _ZN3DOM23HTMLTableSectionElement9deleteRowEl@Base 4:4.3.4
 _ZN3DOM23HTMLTableSectionElement9insertRowEl@Base 4:4.3.4
 _ZN3DOM23HTMLTableSectionElement9setVAlignERKNS_9DOMStringE@Base 4:4.3.4
 _ZN3DOM23HTMLTableSectionElementC1EPNS_27HTMLTableSectionElementImplE@Base 4:4.3.4
 _ZN3DOM23HTMLTableSectionElementC1ERKS0_@Base 4:4.3.4
 _ZN3DOM23HTMLTableSectionElementC1Ev@Base 4:4.3.4
 _ZN3DOM23HTMLTableSectionElementC2EPNS_27HTMLTableSectionElementImplE@Base 4:4.3.4
 _ZN3DOM23HTMLTableSectionElementC2ERKS0_@Base 4:4.3.4
 _ZN3DOM23HTMLTableSectionElementC2Ev@Base 4:4.3.4
 _ZN3DOM23HTMLTableSectionElementD0Ev@Base 4:4.3.4
 _ZN3DOM23HTMLTableSectionElementD1Ev@Base 4:4.3.4
 _ZN3DOM23HTMLTableSectionElementD2Ev@Base 4:4.3.4
 _ZN3DOM23HTMLTableSectionElementaSERKNS_4NodeE@Base 4:4.3.4
 _ZN3DOM23HTMLTableSectionElementaSERKS0_@Base 4:4.3.4
 _ZN3DOM4Attr8setValueERKNS_9DOMStringE@Base 4:4.3.4
 _ZN3DOM4AttrC1EPNS_8AttrImplE@Base 4:4.3.4
 _ZN3DOM4AttrC1ERKS0_@Base 4:4.3.4
 _ZN3DOM4AttrC1Ev@Base 4:4.3.4
 _ZN3DOM4AttrC2EPNS_8AttrImplE@Base 4:4.3.4
 _ZN3DOM4AttrC2ERKS0_@Base 4:4.3.4
 _ZN3DOM4AttrC2Ev@Base 4:4.3.4
 _ZN3DOM4AttrD0Ev@Base 4:4.3.4
 _ZN3DOM4AttrD1Ev@Base 4:4.3.4
 _ZN3DOM4AttrD2Ev@Base 4:4.3.4
 _ZN3DOM4AttraSERKNS_4NodeE@Base 4:4.3.4
 _ZN3DOM4AttraSERKS0_@Base 4:4.3.4
 _ZN3DOM4Node11appendChildERKS0_@Base 4:4.3.4
 _ZN3DOM4Node11removeChildERKS0_@Base 4:4.3.4
 _ZN3DOM4Node12applyChangesEv@Base 4:4.3.4
 _ZN3DOM4Node12insertBeforeERKS0_S2_@Base 4:4.3.4
 _ZN3DOM4Node12replaceChildERKS0_S2_@Base 4:4.3.4
 _ZN3DOM4Node12setNodeValueERKNS_9DOMStringE@Base 4:4.3.4
 _ZN3DOM4Node13dispatchEventERKNS_5EventE@Base 4:4.3.4
 _ZN3DOM4Node13hasAttributesEv@Base 4:4.3.4
 _ZN3DOM4Node13hasChildNodesEv@Base 4:4.3.4
 _ZN3DOM4Node14setTextContentERKNS_9DOMStringE@Base 4:4.3.4
 _ZN3DOM4Node16addEventListenerERKNS_9DOMStringEPNS_13EventListenerEb@Base 4:4.3.4
 _ZN3DOM4Node19removeEventListenerERKNS_9DOMStringEPNS_13EventListenerEb@Base 4:4.3.4
 _ZN3DOM4Node23compareDocumentPositionERKS0_@Base 4:4.3.4
 _ZN3DOM4Node6toHTMLEv@Base 4:4.3.4
 _ZN3DOM4Node7getRectEv@Base 4:4.3.4
 _ZN3DOM4Node9cloneNodeEb@Base 4:4.3.4
 _ZN3DOM4Node9getCursorEiRiS1_S1_@Base 4:4.3.4
 _ZN3DOM4Node9normalizeEv@Base 4:4.3.4
 _ZN3DOM4Node9setPrefixERKNS_9DOMStringE@Base 4:4.3.4
 _ZN3DOM4NodeC1EPNS_8NodeImplE@Base 4:4.3.4
 _ZN3DOM4NodeC1ERKS0_@Base 4:4.3.4
 _ZN3DOM4NodeC2EPNS_8NodeImplE@Base 4:4.3.4
 _ZN3DOM4NodeC2ERKS0_@Base 4:4.3.4
 _ZN3DOM4NodeD0Ev@Base 4:4.3.4
 _ZN3DOM4NodeD1Ev@Base 4:4.3.4
 _ZN3DOM4NodeD2Ev@Base 4:4.3.4
 _ZN3DOM4NodeaSERKS0_@Base 4:4.3.4
 _ZN3DOM4RectC1EPNS_8RectImplE@Base 4:4.3.4
 _ZN3DOM4RectC1ERKS0_@Base 4:4.3.4
 _ZN3DOM4RectC1Ev@Base 4:4.3.4
 _ZN3DOM4RectC2EPNS_8RectImplE@Base 4:4.3.4
 _ZN3DOM4RectC2ERKS0_@Base 4:4.3.4
 _ZN3DOM4RectC2Ev@Base 4:4.3.4
 _ZN3DOM4RectD1Ev@Base 4:4.3.4
 _ZN3DOM4RectD2Ev@Base 4:4.3.4
 _ZN3DOM4RectaSERKS0_@Base 4:4.3.4
 _ZN3DOM4Text9splitTextEm@Base 4:4.3.4
 _ZN3DOM4TextC1EPNS_8TextImplE@Base 4:4.3.4
 _ZN3DOM4TextC1ERKS0_@Base 4:4.3.4
 _ZN3DOM4TextC1Ev@Base 4:4.3.4
 _ZN3DOM4TextC2EPNS_8TextImplE@Base 4:4.3.4
 _ZN3DOM4TextC2ERKS0_@Base 4:4.3.4
 _ZN3DOM4TextC2Ev@Base 4:4.3.4
 _ZN3DOM4TextD0Ev@Base 4:4.3.4
 _ZN3DOM4TextD1Ev@Base 4:4.3.4
 _ZN3DOM4TextD2Ev@Base 4:4.3.4
 _ZN3DOM4TextaSERKNS_4NodeE@Base 4:4.3.4
 _ZN3DOM4TextaSERKS0_@Base 4:4.3.4
 _ZN3DOM5Event14preventDefaultEv@Base 4:4.3.4
 _ZN3DOM5Event15stopPropagationEv@Base 4:4.3.4
 _ZN3DOM5Event9initEventERKNS_9DOMStringEbb@Base 4:4.3.4
 _ZN3DOM5EventC1EPNS_9EventImplE@Base 4:4.3.4
 _ZN3DOM5EventC1ERKS0_@Base 4:4.3.4
 _ZN3DOM5EventC1Ev@Base 4:4.3.4
 _ZN3DOM5EventC2EPNS_9EventImplE@Base 4:4.3.4
 _ZN3DOM5EventC2ERKS0_@Base 4:4.3.4
 _ZN3DOM5EventC2Ev@Base 4:4.3.4
 _ZN3DOM5EventD0Ev@Base 4:4.3.4
 _ZN3DOM5EventD1Ev@Base 4:4.3.4
 _ZN3DOM5EventD2Ev@Base 4:4.3.4
 _ZN3DOM5EventaSERKS0_@Base 4:4.3.4
 _ZN3DOM5Range10cloneRangeEv@Base 4:4.3.4
 _ZN3DOM5Range10insertNodeERKNS_4NodeE@Base 4:4.3.4
 _ZN3DOM5Range10selectNodeERKNS_4NodeE@Base 4:4.3.4
 _ZN3DOM5Range11setEndAfterERKNS_4NodeE@Base 4:4.3.4
 _ZN3DOM5Range12setEndBeforeERKNS_4NodeE@Base 4:4.3.4
 _ZN3DOM5Range13cloneContentsEv@Base 4:4.3.4
 _ZN3DOM5Range13setStartAfterERKNS_4NodeE@Base 4:4.3.4
 _ZN3DOM5Range14deleteContentsEv@Base 4:4.3.4
 _ZN3DOM5Range14setStartBeforeERKNS_4NodeE@Base 4:4.3.4
 _ZN3DOM5Range15extractContentsEv@Base 4:4.3.4
 _ZN3DOM5Range16surroundContentsERKNS_4NodeE@Base 4:4.3.4
 _ZN3DOM5Range18selectNodeContentsERKNS_4NodeE@Base 4:4.3.4
 _ZN3DOM5Range19boundaryPointsValidEv@Base 4:4.3.4
 _ZN3DOM5Range21compareBoundaryPointsENS0_10CompareHowERKS0_@Base 4:4.3.4
 _ZN3DOM5Range23commonAncestorContainerEv@Base 4:4.3.4
 _ZN3DOM5Range24createContextualFragmentERKNS_9DOMStringE@Base 4:4.3.4
 _ZN3DOM5Range6detachEv@Base 4:4.3.4
 _ZN3DOM5Range6setEndERKNS_4NodeEl@Base 4:4.3.4
 _ZN3DOM5Range6toHTMLEv@Base 4:4.3.4
 _ZN3DOM5Range8collapseEb@Base 4:4.3.4
 _ZN3DOM5Range8setStartERKNS_4NodeEl@Base 4:4.3.4
 _ZN3DOM5Range8toStringEv@Base 4:4.3.4
 _ZN3DOM5RangeC1ENS_4NodeElS1_l@Base 4:4.3.4
 _ZN3DOM5RangeC1ENS_8DocumentE@Base 4:4.3.4
 _ZN3DOM5RangeC1EPNS_9RangeImplE@Base 4:4.3.4
 _ZN3DOM5RangeC1ERKS0_@Base 4:4.3.4
 _ZN3DOM5RangeC1Ev@Base 4:4.3.4
 _ZN3DOM5RangeC2ENS_4NodeElS1_l@Base 4:4.3.4
 _ZN3DOM5RangeC2ENS_8DocumentE@Base 4:4.3.4
 _ZN3DOM5RangeC2EPNS_9RangeImplE@Base 4:4.3.4
 _ZN3DOM5RangeC2ERKS0_@Base 4:4.3.4
 _ZN3DOM5RangeC2Ev@Base 4:4.3.4
 _ZN3DOM5RangeD1Ev@Base 4:4.3.4
 _ZN3DOM5RangeD2Ev@Base 4:4.3.4
 _ZN3DOM5RangeaSERKS0_@Base 4:4.3.4
 _ZN3DOM6Editor10applyStyleEPNS_23CSSStyleDeclarationImplE@Base 4:4.3.4
 _ZN3DOM6Editor11closeTypingEv@Base 4:4.4.0
 _ZN3DOM6Editor11execCommandENS_13EditorCommandEbRKNS_9DOMStringE@Base 4:4.3.4
 _ZN3DOM6Editor11execCommandERKNS_9DOMStringEbS3_@Base 4:4.3.4
 _ZN3DOM6Editor11qt_metacallEN11QMetaObject4CallEiPPv@Base 4:4.3.4
 _ZN3DOM6Editor11qt_metacastEPKc@Base 4:4.3.4
 _ZN3DOM6Editor14appliedEditingEPN5khtml15EditCommandImplE@Base 4:4.4.0
 _ZN3DOM6Editor14handleKeyEventEP9QKeyEvent@Base 4:4.3.4
 _ZN3DOM6Editor14setTypingStyleEPNS_23CSSStyleDeclarationImplE@Base 4:4.3.4
 _ZN3DOM6Editor16clearTypingStyleEv@Base 4:4.3.4
 _ZN3DOM6Editor16reappliedEditingEPN5khtml15EditCommandImplE@Base 4:4.4.0
 _ZN3DOM6Editor16staticMetaObjectE@Base 4:4.3.4
 _ZN3DOM6Editor16unappliedEditingEPN5khtml15EditCommandImplE@Base 4:4.4.0
 _ZN3DOM6Editor17queryCommandStateENS_13EditorCommandE@Base 4:4.3.4
 _ZN3DOM6Editor17queryCommandStateERKNS_9DOMStringE@Base 4:4.3.4
 _ZN3DOM6Editor17queryCommandValueENS_13EditorCommandE@Base 4:4.3.4
 _ZN3DOM6Editor17queryCommandValueERKNS_9DOMStringE@Base 4:4.3.4
 _ZN3DOM6Editor19queryCommandEnabledENS_13EditorCommandE@Base 4:4.3.4
 _ZN3DOM6Editor19queryCommandEnabledERKNS_9DOMStringE@Base 4:4.3.4
 _ZN3DOM6Editor20queryCommandIndetermENS_13EditorCommandE@Base 4:4.3.4
 _ZN3DOM6Editor20queryCommandIndetermERKNS_9DOMStringE@Base 4:4.3.4
 _ZN3DOM6Editor21queryCommandSupportedENS_13EditorCommandE@Base 4:4.3.4
 _ZN3DOM6Editor21queryCommandSupportedERKNS_9DOMStringE@Base 4:4.3.4
 _ZN3DOM6Editor3cutEv@Base 4:4.3.4
 _ZN3DOM6Editor4copyEv@Base 4:4.3.4
 _ZN3DOM6Editor4redoEv@Base 4:4.3.4
 _ZN3DOM6Editor4undoEv@Base 4:4.3.4
 _ZN3DOM6Editor5pasteEv@Base 4:4.3.4
 _ZN3DOM6Editor5printEv@Base 4:4.3.4
 _ZN3DOM6Editor6indentEv@Base 4:4.4.0
 _ZN3DOM6Editor7outdentEv@Base 4:4.4.0
 _ZN3DOM6EditorC1EP9KHTMLPart@Base 4:4.3.4
 _ZN3DOM6EditorC2EP9KHTMLPart@Base 4:4.3.4
 _ZN3DOM6EditorD0Ev@Base 4:4.3.4
 _ZN3DOM6EditorD1Ev@Base 4:4.3.4
 _ZN3DOM6EditorD2Ev@Base 4:4.3.4
 _ZN3DOM6EntityC1EPNS_10EntityImplE@Base 4:4.3.4
 _ZN3DOM6EntityC1ERKS0_@Base 4:4.3.4
 _ZN3DOM6EntityC1Ev@Base 4:4.3.4
 _ZN3DOM6EntityC2EPNS_10EntityImplE@Base 4:4.3.4
 _ZN3DOM6EntityC2ERKS0_@Base 4:4.3.4
 _ZN3DOM6EntityC2Ev@Base 4:4.3.4
 _ZN3DOM6EntityD0Ev@Base 4:4.3.4
 _ZN3DOM6EntityD1Ev@Base 4:4.3.4
 _ZN3DOM6EntityD2Ev@Base 4:4.3.4
 _ZN3DOM6EntityaSERKNS_4NodeE@Base 4:4.3.4
 _ZN3DOM6EntityaSERKS0_@Base 4:4.3.4
 _ZN3DOM7CSSRule10setCssTextERKNS_9DOMStringE@Base 4:4.3.4
 _ZN3DOM7CSSRule11assignOtherERKS0_NS0_8RuleTypeE@Base 4:4.3.4
 _ZN3DOM7CSSRuleC1EPNS_11CSSRuleImplE@Base 4:4.3.4
 _ZN3DOM7CSSRuleC1ERKS0_@Base 4:4.3.4
 _ZN3DOM7CSSRuleC1Ev@Base 4:4.3.4
 _ZN3DOM7CSSRuleC2EPNS_11CSSRuleImplE@Base 4:4.3.4
 _ZN3DOM7CSSRuleC2ERKS0_@Base 4:4.3.4
 _ZN3DOM7CSSRuleC2Ev@Base 4:4.3.4
 _ZN3DOM7CSSRuleD1Ev@Base 4:4.3.4
 _ZN3DOM7CSSRuleD2Ev@Base 4:4.3.4
 _ZN3DOM7CSSRuleaSERKS0_@Base 4:4.3.4
 _ZN3DOM7CommentC1EPNS_11CommentImplE@Base 4:4.3.4
 _ZN3DOM7CommentC1ERKS0_@Base 4:4.3.4
 _ZN3DOM7CommentC1Ev@Base 4:4.3.4
 _ZN3DOM7CommentC2EPNS_11CommentImplE@Base 4:4.3.4
 _ZN3DOM7CommentC2ERKS0_@Base 4:4.3.4
 _ZN3DOM7CommentC2Ev@Base 4:4.3.4
 _ZN3DOM7CommentD0Ev@Base 4:4.3.4
 _ZN3DOM7CommentD1Ev@Base 4:4.3.4
 _ZN3DOM7CommentD2Ev@Base 4:4.3.4
 _ZN3DOM7CommentaSERKNS_4NodeE@Base 4:4.3.4
 _ZN3DOM7CommentaSERKS0_@Base 4:4.3.4
 _ZN3DOM7CounterC1EPNS_11CounterImplE@Base 4:4.3.4
 _ZN3DOM7CounterC1ERKS0_@Base 4:4.3.4
 _ZN3DOM7CounterC1Ev@Base 4:4.3.4
 _ZN3DOM7CounterC2EPNS_11CounterImplE@Base 4:4.3.4
 _ZN3DOM7CounterC2ERKS0_@Base 4:4.3.4
 _ZN3DOM7CounterC2Ev@Base 4:4.3.4
 _ZN3DOM7CounterD1Ev@Base 4:4.3.4
 _ZN3DOM7CounterD2Ev@Base 4:4.3.4
 _ZN3DOM7CounteraSERKS0_@Base 4:4.3.4
 _ZN3DOM7Element12getAttributeERKNS_9DOMStringE@Base 4:4.3.4
 _ZN3DOM7Element12hasAttributeERKNS_9DOMStringE@Base 4:4.3.4
 _ZN3DOM7Element12setAttributeERKNS_9DOMStringES3_@Base 4:4.3.4
 _ZN3DOM7Element14getAttributeNSERKNS_9DOMStringES3_@Base 4:4.3.4
 _ZN3DOM7Element14hasAttributeNSERKNS_9DOMStringES3_@Base 4:4.3.4
 _ZN3DOM7Element14setAttributeNSERKNS_9DOMStringES3_S3_@Base 4:4.3.4
 _ZN3DOM7Element15removeAttributeERKNS_9DOMStringE@Base 4:4.3.4
 _ZN3DOM7Element16getAttributeNodeERKNS_9DOMStringE@Base 4:4.3.4
 _ZN3DOM7Element16khtmlValidPrefixERKNS_9DOMStringE@Base 4:4.3.4
 _ZN3DOM7Element16setAttributeNodeERKNS_4AttrE@Base 4:4.3.4
 _ZN3DOM7Element17removeAttributeNSERKNS_9DOMStringES3_@Base 4:4.3.4
 _ZN3DOM7Element18getAttributeNodeNSERKNS_9DOMStringES3_@Base 4:4.3.4
 _ZN3DOM7Element18khtmlValidAttrNameERKNS_9DOMStringE@Base 4:4.3.4
 _ZN3DOM7Element18setAttributeNodeNSERKNS_4AttrE@Base 4:4.3.4
 _ZN3DOM7Element19removeAttributeNodeERKNS_4AttrE@Base 4:4.3.4
 _ZN3DOM7Element20getElementsByTagNameERKNS_9DOMStringE@Base 4:4.3.4
 _ZN3DOM7Element20khtmlMalformedPrefixERKNS_9DOMStringE@Base 4:4.3.4
 _ZN3DOM7Element22getElementsByClassNameERKNS_9DOMStringE@Base 4:4.3.4
 _ZN3DOM7Element22getElementsByTagNameNSERKNS_9DOMStringES3_@Base 4:4.3.4
 _ZN3DOM7Element23khtmlValidQualifiedNameERKNS_9DOMStringE@Base 4:4.3.4
 _ZN3DOM7Element27khtmlMalformedQualifiedNameERKNS_9DOMStringE@Base 4:4.3.4
 _ZN3DOM7Element5styleEv@Base 4:4.3.4
 _ZN3DOM7ElementC1EPNS_11ElementImplE@Base 4:4.3.4
 _ZN3DOM7ElementC1ERKS0_@Base 4:4.3.4
 _ZN3DOM7ElementC1Ev@Base 4:4.3.4
 _ZN3DOM7ElementC2EPNS_11ElementImplE@Base 4:4.3.4
 _ZN3DOM7ElementC2ERKS0_@Base 4:4.3.4
 _ZN3DOM7ElementC2Ev@Base 4:4.3.4
 _ZN3DOM7ElementD0Ev@Base 4:4.3.4
 _ZN3DOM7ElementD1Ev@Base 4:4.3.4
 _ZN3DOM7ElementD2Ev@Base 4:4.3.4
 _ZN3DOM7ElementaSERKNS_4NodeE@Base 4:4.3.4
 _ZN3DOM7ElementaSERKS0_@Base 4:4.3.4
 _ZN3DOM7UIEvent11initUIEventERKNS_9DOMStringEbbRKNS_12AbstractViewEl@Base 4:4.3.4
 _ZN3DOM7UIEventC1EPNS_11UIEventImplE@Base 4:4.3.4
 _ZN3DOM7UIEventC1ERKNS_5EventE@Base 4:4.3.4
 _ZN3DOM7UIEventC1ERKS0_@Base 4:4.3.4
 _ZN3DOM7UIEventC1Ev@Base 4:4.3.4
 _ZN3DOM7UIEventC2EPNS_11UIEventImplE@Base 4:4.3.4
 _ZN3DOM7UIEventC2ERKNS_5EventE@Base 4:4.3.4
 _ZN3DOM7UIEventC2ERKS0_@Base 4:4.3.4
 _ZN3DOM7UIEventC2Ev@Base 4:4.3.4
 _ZN3DOM7UIEventD0Ev@Base 4:4.3.4
 _ZN3DOM7UIEventD1Ev@Base 4:4.3.4
 _ZN3DOM7UIEventD2Ev@Base 4:4.3.4
 _ZN3DOM7UIEventaSERKNS_5EventE@Base 4:4.3.4
 _ZN3DOM7UIEventaSERKS0_@Base 4:4.3.4
 _ZN3DOM8CSSValue10setCssTextERKNS_9DOMStringE@Base 4:4.3.4
 _ZN3DOM8CSSValueC1EPNS_12CSSValueImplE@Base 4:4.3.4
 _ZN3DOM8CSSValueC1ERKS0_@Base 4:4.3.4
 _ZN3DOM8CSSValueC1Ev@Base 4:4.3.4
 _ZN3DOM8CSSValueC2EPNS_12CSSValueImplE@Base 4:4.3.4
 _ZN3DOM8CSSValueC2ERKS0_@Base 4:4.3.4
 _ZN3DOM8CSSValueC2Ev@Base 4:4.3.4
 _ZN3DOM8CSSValueD1Ev@Base 4:4.3.4
 _ZN3DOM8CSSValueD2Ev@Base 4:4.3.4
 _ZN3DOM8CSSValueaSERKS0_@Base 4:4.3.4
 _ZN3DOM8Document10importNodeERKNS_4NodeEb@Base 4:4.3.4
 _ZN3DOM8Document11completeURLERKNS_9DOMStringE@Base 4:4.3.4
 _ZN3DOM8Document11createEventERKNS_9DOMStringE@Base 4:4.3.4
 _ZN3DOM8Document11createRangeEv@Base 4:4.3.4
 _ZN3DOM8Document11execCommandERKNS_9DOMStringEbS3_@Base 4:4.3.4
 _ZN3DOM8Document13addStyleSheetERKNS_10StyleSheetE@Base 4:4.3.4
 _ZN3DOM8Document13createCommentERKNS_9DOMStringE@Base 4:4.3.4
 _ZN3DOM8Document13createElementERKNS_9DOMStringE@Base 4:4.3.4
 _ZN3DOM8Document13setDesignModeEb@Base 4:4.3.4
 _ZN3DOM8Document14createTextNodeERKNS_9DOMStringE@Base 4:4.3.4
 _ZN3DOM8Document15createAttributeERKNS_9DOMStringE@Base 4:4.3.4
 _ZN3DOM8Document15createElementNSERKNS_9DOMStringES3_@Base 4:4.3.4
 _ZN3DOM8Document15updateRenderingEv@Base 4:4.3.4
 _ZN3DOM8Document16createTreeWalkerENS_4NodeEmNS_10NodeFilterEb@Base 4:4.3.4
 _ZN3DOM8Document16getOverrideStyleERKNS_7ElementERKNS_9DOMStringE@Base 4:4.3.4
 _ZN3DOM8Document16removeStyleSheetERKNS_10StyleSheetE@Base 4:4.3.4
 _ZN3DOM8Document17createAttributeNSERKNS_9DOMStringES3_@Base 4:4.3.4
 _ZN3DOM8Document17queryCommandStateERKNS_9DOMStringE@Base 4:4.3.4
 _ZN3DOM8Document17queryCommandValueERKNS_9DOMStringE@Base 4:4.3.4
 _ZN3DOM8Document18createCDATASectionERKNS_9DOMStringE@Base 4:4.3.4
 _ZN3DOM8Document18createNodeIteratorENS_4NodeEmNS_10NodeFilterEb@Base 4:4.3.4
 _ZN3DOM8Document19queryCommandEnabledERKNS_9DOMStringE@Base 4:4.3.4
 _ZN3DOM8Document20getElementsByTagNameERKNS_9DOMStringE@Base 4:4.3.4
 _ZN3DOM8Document20queryCommandIndetermERKNS_9DOMStringE@Base 4:4.3.4
 _ZN3DOM8Document21createEntityReferenceERKNS_9DOMStringE@Base 4:4.3.4
 _ZN3DOM8Document21queryCommandSupportedERKNS_9DOMStringE@Base 4:4.3.4
 _ZN3DOM8Document21selectedStylesheetSetEv@Base 4:4.3.4
 _ZN3DOM8Document22createDocumentFragmentEv@Base 4:4.3.4
 _ZN3DOM8Document22getElementsByClassNameERKNS_9DOMStringE@Base 4:4.3.4
 _ZN3DOM8Document22getElementsByTagNameNSERKNS_9DOMStringES3_@Base 4:4.3.4
 _ZN3DOM8Document22preferredStylesheetSetEv@Base 4:4.3.4
 _ZN3DOM8Document24setSelectedStylesheetSetERKNS_9DOMStringE@Base 4:4.3.4
 _ZN3DOM8Document27createProcessingInstructionERKNS_9DOMStringES3_@Base 4:4.3.4
 _ZN3DOM8Document4loadERKNS_9DOMStringE@Base 4:4.3.4
 _ZN3DOM8Document5abortEv@Base 4:4.3.4
 _ZN3DOM8Document7loadXMLERKNS_9DOMStringE@Base 4:4.3.4
 _ZN3DOM8Document8setAsyncEb@Base 4:4.3.4
 _ZN3DOM8DocumentC1EPNS_12DocumentImplE@Base 4:4.3.4
 _ZN3DOM8DocumentC1ERKS0_@Base 4:4.3.4
 _ZN3DOM8DocumentC1Eb@Base 4:4.3.4
 _ZN3DOM8DocumentC1Ev@Base 4:4.3.4
 _ZN3DOM8DocumentC2EPNS_12DocumentImplE@Base 4:4.3.4
 _ZN3DOM8DocumentC2ERKS0_@Base 4:4.3.4
 _ZN3DOM8DocumentC2Eb@Base 4:4.3.4
 _ZN3DOM8DocumentC2Ev@Base 4:4.3.4
 _ZN3DOM8DocumentD0Ev@Base 4:4.3.4
 _ZN3DOM8DocumentD1Ev@Base 4:4.3.4
 _ZN3DOM8DocumentD2Ev@Base 4:4.3.4
 _ZN3DOM8DocumentaSERKNS_4NodeE@Base 4:4.3.4
 _ZN3DOM8DocumentaSERKS0_@Base 4:4.3.4
 _ZN3DOM8NodeListC1EPKNS_12NodeListImplE@Base 4:4.3.4
 _ZN3DOM8NodeListC1ERKS0_@Base 4:4.3.4
 _ZN3DOM8NodeListC1Ev@Base 4:4.3.4
 _ZN3DOM8NodeListC2EPKNS_12NodeListImplE@Base 4:4.3.4
 _ZN3DOM8NodeListC2ERKS0_@Base 4:4.3.4
 _ZN3DOM8NodeListC2Ev@Base 4:4.3.4
 _ZN3DOM8NodeListD1Ev@Base 4:4.3.4
 _ZN3DOM8NodeListD2Ev@Base 4:4.3.4
 _ZN3DOM8NodeListaSERKS0_@Base 4:4.3.4
 _ZN3DOM8NotationC1EPNS_12NotationImplE@Base 4:4.3.4
 _ZN3DOM8NotationC1ERKS0_@Base 4:4.3.4
 _ZN3DOM8NotationC1Ev@Base 4:4.3.4
 _ZN3DOM8NotationC2EPNS_12NotationImplE@Base 4:4.3.4
 _ZN3DOM8NotationC2ERKS0_@Base 4:4.3.4
 _ZN3DOM8NotationC2Ev@Base 4:4.3.4
 _ZN3DOM8NotationD0Ev@Base 4:4.3.4
 _ZN3DOM8NotationD1Ev@Base 4:4.3.4
 _ZN3DOM8NotationD2Ev@Base 4:4.3.4
 _ZN3DOM8NotationaSERKNS_4NodeE@Base 4:4.3.4
 _ZN3DOM8NotationaSERKS0_@Base 4:4.3.4
 _ZN3DOM8RGBColorC1ERKS0_@Base 4:4.3.4
 _ZN3DOM8RGBColorC1Ej@Base 4:4.3.4
 _ZN3DOM8RGBColorC1Ev@Base 4:4.3.4
 _ZN3DOM8RGBColorC2ERKS0_@Base 4:4.3.4
 _ZN3DOM8RGBColorC2Ej@Base 4:4.3.4
 _ZN3DOM8RGBColorC2Ev@Base 4:4.3.4
 _ZN3DOM8RGBColorD1Ev@Base 4:4.3.4
 _ZN3DOM8RGBColorD2Ev@Base 4:4.3.4
 _ZN3DOM8RGBColoraSERKS0_@Base 4:4.3.4
 _ZN3DOM9DOMString5splitEj@Base 4:4.3.4
 _ZN3DOM9DOMString6formatEPKcz@Base 4:4.3.4
 _ZN3DOM9DOMString6insertES0_j@Base 4:4.3.4
 _ZN3DOM9DOMString6numberEf@Base 4:4.3.4
 _ZN3DOM9DOMString6removeEji@Base 4:4.3.4
 _ZN3DOM9DOMString8truncateEj@Base 4:4.3.4
 _ZN3DOM9DOMStringC1EPK5QCharj@Base 4:4.3.4
 _ZN3DOM9DOMStringC1EPKc@Base 4:4.3.4
 _ZN3DOM9DOMStringC1EPKcj@Base 4:4.3.4
 _ZN3DOM9DOMStringC1EPNS_13DOMStringImplE@Base 4:4.3.4
 _ZN3DOM9DOMStringC1ERK7QString@Base 4:4.3.4
 _ZN3DOM9DOMStringC1ERKS0_@Base 4:4.3.4
 _ZN3DOM9DOMStringC2EPK5QCharj@Base 4:4.3.4
 _ZN3DOM9DOMStringC2EPKc@Base 4:4.3.4
 _ZN3DOM9DOMStringC2EPKcj@Base 4:4.3.4
 _ZN3DOM9DOMStringC2EPNS_13DOMStringImplE@Base 4:4.3.4
 _ZN3DOM9DOMStringC2ERK7QString@Base 4:4.3.4
 _ZN3DOM9DOMStringC2ERKS0_@Base 4:4.3.4
 _ZN3DOM9DOMStringD0Ev@Base 4:4.3.4
 _ZN3DOM9DOMStringD1Ev@Base 4:4.3.4
 _ZN3DOM9DOMStringD2Ev@Base 4:4.3.4
 _ZN3DOM9DOMStringaSERKS0_@Base 4:4.3.4
 _ZN3DOM9DOMStringpLERKS0_@Base 4:4.3.4
 _ZN3DOM9DOMStringplERKS0_@Base 4:4.3.4
 _ZN3DOM9DomShared8deleteMeEv@Base 4:4.3.4
 _ZN3DOM9DomSharedD0Ev@Base 4:4.3.4
 _ZN3DOM9DomSharedD1Ev@Base 4:4.3.4
 _ZN3DOM9DomSharedD2Ev@Base 4:4.3.4
 _ZN3DOM9LinkStyle5sheetEv@Base 4:4.3.4
 _ZN3DOM9LinkStyleC1ERKS0_@Base 4:4.3.4
 _ZN3DOM9LinkStyleC1Ev@Base 4:4.3.4
 _ZN3DOM9LinkStyleC2ERKS0_@Base 4:4.3.4
 _ZN3DOM9LinkStyleC2Ev@Base 4:4.3.4
 _ZN3DOM9LinkStyleD1Ev@Base 4:4.3.4
 _ZN3DOM9LinkStyleD2Ev@Base 4:4.3.4
 _ZN3DOM9LinkStyleaSERKNS_4NodeE@Base 4:4.3.4
 _ZN3DOM9LinkStyleaSERKS0_@Base 4:4.3.4
 _ZN3DOM9MediaList12appendMediumERKNS_9DOMStringE@Base 4:4.3.4
 _ZN3DOM9MediaList12deleteMediumERKNS_9DOMStringE@Base 4:4.3.4
 _ZN3DOM9MediaList12setMediaTextERKNS_9DOMStringE@Base 4:4.3.4
 _ZN3DOM9MediaListC1EPNS_13MediaListImplE@Base 4:4.3.4
 _ZN3DOM9MediaListC1ERKS0_@Base 4:4.3.4
 _ZN3DOM9MediaListC1Ev@Base 4:4.3.4
 _ZN3DOM9MediaListC2EPNS_13MediaListImplE@Base 4:4.3.4
 _ZN3DOM9MediaListC2ERKS0_@Base 4:4.3.4
 _ZN3DOM9MediaListC2Ev@Base 4:4.3.4
 _ZN3DOM9MediaListD1Ev@Base 4:4.3.4
 _ZN3DOM9MediaListD2Ev@Base 4:4.3.4
 _ZN3DOM9MediaListaSERKS0_@Base 4:4.3.4
 _ZN3DOM9TextEvent13initTextEventERKNS_9DOMStringEbbRKNS_12AbstractViewES3_@Base 4:4.3.4
 _ZN3DOM9TextEventC1ERKNS_5EventE@Base 4:4.3.4
 _ZN3DOM9TextEventC1ERKS0_@Base 4:4.3.4
 _ZN3DOM9TextEventC1Ev@Base 4:4.3.4
 _ZN3DOM9TextEventC2ERKNS_5EventE@Base 4:4.3.4
 _ZN3DOM9TextEventC2ERKS0_@Base 4:4.3.4
 _ZN3DOM9TextEventC2Ev@Base 4:4.3.4
 _ZN3DOM9TextEventD0Ev@Base 4:4.3.4
 _ZN3DOM9TextEventD1Ev@Base 4:4.3.4
 _ZN3DOM9TextEventD2Ev@Base 4:4.3.4
 _ZN3DOM9TextEventaSERKNS_5EventE@Base 4:4.3.4
 _ZN3DOM9TextEventaSERKS0_@Base 4:4.3.4
 _ZN3DOMeqERKNS_9DOMStringEPKc@Base 4:4.3.4
 _ZN3DOMeqERKNS_9DOMStringERK7QString@Base 4:4.3.4
 _ZN3DOMeqERKNS_9DOMStringES2_@Base 4:4.3.4
 (optional=external|arch=!amd64 !hurd-i386 !i386 !kfreebsd-amd64 !kfreebsd-i386)_ZN3KIO8MetaDataD1Ev@Base 4:4.7.4
 (optional=external|arch=!amd64 !hurd-i386 !i386 !kfreebsd-amd64 !kfreebsd-i386)_ZN3KIO8MetaDataD2Ev@Base 4:4.7.4
 _ZN3KJS10IdentifierD1Ev@Base 4:4.7.2
 _ZN3KJS10IdentifierD2Ev@Base 4:4.7.2
 _ZN3KJS14JSGlobalObjectD0Ev@Base 4:4.7.2
 _ZN3KJS14JSGlobalObjectD1Ev@Base 4:4.7.2
 _ZN3KJS14JSGlobalObjectD2Ev@Base 4:4.7.2
 (optional=private|arch=amd64 hurd-i386 i386 kfreebsd-amd64 kfreebsd-i386)_ZN3KJS17PropertyNameArrayD1Ev@Base 4:4.7.4
 (optional=private|arch=amd64 hurd-i386 i386 kfreebsd-amd64 kfreebsd-i386)_ZN3KJS17PropertyNameArrayD2Ev@Base 4:4.7.4
 _ZN3KJS19InternalFunctionImpD0Ev@Base 4:4.7.2
 _ZN3KJS19InternalFunctionImpD1Ev@Base 4:4.7.2
 _ZN3KJS19InternalFunctionImpD2Ev@Base 4:4.7.2
 (optional=private|arch=!amd64 !armel !armhf !hurd-i386 !i386 !ia64 !kfreebsd-amd64 !kfreebsd-i386)_ZN3KJS4List6appendEPNS_7JSValueE@Base 4:4.6.5
 (optional=private|arch=!armel !armhf)_ZN3KJS6JSCell4markEv@Base 4:4.3.4
 (optional=private|arch=!armel !armhf)_ZN3KJS6JSCellD0Ev@Base 4:4.3.4
 (optional=private|arch=!armel !armhf)_ZN3KJS6JSCellD1Ev@Base 4:4.3.4
 (arch=!armel !armhf)_ZN3KJS6JSCellD2Ev@Base 4:4.7.4
 _ZN3KJS7JSValueD0Ev@Base 4:4.3.4
 _ZN3KJS7JSValueD1Ev@Base 4:4.3.4
 _ZN3KJS7JSValueD2Ev@Base 4:4.7.2
 _ZN3KJS7UStringC1ERK7QString@Base 4:4.3.4
 _ZN3KJS7UStringC1ERKN3DOM9DOMStringE@Base 4:4.3.4
 _ZN3KJS7UStringC2ERK7QString@Base 4:4.3.4
 _ZN3KJS7UStringC2ERKN3DOM9DOMStringE@Base 4:4.3.4
 _ZN3KJS8JSObjectD0Ev@Base 4:4.7.2
 _ZN3KJS8JSObjectD1Ev@Base 4:4.7.2
 _ZN3KJS8JSObjectD2Ev@Base 4:4.7.2
 _ZN5khtml10ChildFrame11qt_metacallEN11QMetaObject4CallEiPPv@Base 4:4.3.4
 _ZN5khtml10ChildFrame11qt_metacastEPKc@Base 4:4.3.4
 _ZN5khtml10ChildFrame13dumpFrameTreeEP9KHTMLPart@Base 4:4.5.85
 _ZN5khtml10ChildFrame16staticMetaObjectE@Base 4:4.3.4
 _ZN5khtml10ChildFrame4dumpEi@Base 4:4.5.85
 _ZN5khtml10ChildFrameC1Ev@Base 4:4.5.85
 _ZN5khtml10ChildFrameC2Ev@Base 4:4.5.85
 _ZN5khtml10ChildFrameD0Ev@Base 4:4.5.85
 _ZN5khtml10ChildFrameD1Ev@Base 4:4.5.85
 _ZN5khtml10ChildFrameD2Ev@Base 4:4.5.85
 _ZN5khtml10MouseEventC1EPKcP11QMouseEventiiRKN3DOM9DOMStringES8_RKNS5_4NodeE@Base 4:4.3.4
 _ZN5khtml10MouseEventC2EPKcP11QMouseEventiiRKN3DOM9DOMStringES8_RKNS5_4NodeE@Base 4:4.3.4
 _ZN5khtml10MouseEventD0Ev@Base 4:4.3.4
 _ZN5khtml10MouseEventD1Ev@Base 4:4.3.4
 _ZN5khtml10MouseEventD2Ev@Base 4:4.3.4
 _ZN5khtml11RenderLayer10paintLayerEPS0_P8QPainterRK5QRectb@Base 4:4.3.4
 _ZN5khtml11RenderLayer5paintEP8QPainterRK5QRectb@Base 4:4.3.4
 _ZN5khtml11RenderStyle7cleanupEv@Base 4:4.3.4
 _ZN5khtml12RenderObject7cleanupEv@Base 4:4.3.4
 _ZN5khtml14MouseMoveEvent19s_strMouseMoveEventE@Base 4:4.3.4
 _ZN5khtml14MouseMoveEventD0Ev@Base 4:4.7.2
 _ZN5khtml14MouseMoveEventD1Ev@Base 4:4.7.2
 _ZN5khtml14MouseMoveEventD2Ev@Base 4:4.7.2
 _ZN5khtml15MousePressEvent20s_strMousePressEventE@Base 4:4.3.4
 _ZN5khtml15MousePressEventD0Ev@Base 4:4.7.2
 _ZN5khtml15MousePressEventD1Ev@Base 4:4.7.2
 _ZN5khtml15MousePressEventD2Ev@Base 4:4.7.2
 _ZN5khtml16CSSStyleSelector5clearEv@Base 4:4.3.4
 _ZN5khtml17DrawContentsEvent22s_strDrawContentsEventE@Base 4:4.3.4
 _ZN5khtml17DrawContentsEventC1EP8QPainteriiii@Base 4:4.3.4
 _ZN5khtml17DrawContentsEventC2EP8QPainteriiii@Base 4:4.3.4
 _ZN5khtml17DrawContentsEventD0Ev@Base 4:4.3.4
 _ZN5khtml17DrawContentsEventD1Ev@Base 4:4.3.4
 _ZN5khtml17DrawContentsEventD2Ev@Base 4:4.3.4
 _ZN5khtml17MouseReleaseEvent22s_strMouseReleaseEventE@Base 4:4.3.4
 _ZN5khtml17MouseReleaseEventD0Ev@Base 4:4.7.2
 _ZN5khtml17MouseReleaseEventD1Ev@Base 4:4.7.2
 _ZN5khtml17MouseReleaseEventD2Ev@Base 4:4.7.2
 _ZN5khtml21MouseDoubleClickEvent26s_strMouseDoubleClickEventE@Base 4:4.3.4
 _ZN5khtml21MouseDoubleClickEventD0Ev@Base 4:4.7.2
 _ZN5khtml21MouseDoubleClickEventD1Ev@Base 4:4.7.2
 _ZN5khtml21MouseDoubleClickEventD2Ev@Base 4:4.7.2
 _ZN5khtml5Cache4initEv@Base 4:4.3.4
 _ZN5khtml5Cache5clearEv@Base 4:4.3.4
 _ZN5khtml5Cache5flushEb@Base 4:4.3.4
 (optional=external|arch=amd64 hurd-i386 i386 kfreebsd-amd64 kfreebsd-i386)_ZN6KParts19ScriptableExtension11FunctionRefD1Ev@Base 4:4.7.4
 (optional=external|arch=amd64 hurd-i386 i386 kfreebsd-amd64 kfreebsd-i386)_ZN6KParts19ScriptableExtension11FunctionRefD2Ev@Base 4:4.7.4
 _ZN9KHTMLPart10createPartEP7QWidgetP7QObjectRK7QStringRS4_R11QStringListRKS8_@Base 4:4.3.4
 _ZN9KHTMLPart10docCreatedEv@Base 4:4.3.4
 _ZN9KHTMLPart10gotoAnchorERK7QString@Base 4:4.3.4
 _ZN9KHTMLPart10nextAnchorEv@Base 4:4.3.4
 _ZN9KHTMLPart10openWalletEPN3DOM19HTMLFormElementImplE@Base 4:4.3.4
 _ZN9KHTMLPart10openedByJSEv@Base 4:4.3.4
 _ZN9KHTMLPart10parentPartEv@Base 4:4.3.4
 _ZN9KHTMLPart10prevAnchorEv@Base 4:4.3.4
 _ZN9KHTMLPart10restoreURLERK4KUrl@Base 4:4.3.4
 _ZN9KHTMLPart10submitFormEPKcRK7QStringRK10QByteArrayS4_S4_S4_@Base 4:4.3.4
 _ZN9KHTMLPart10timerEventEP11QTimerEvent@Base 4:4.3.4
 _ZN9KHTMLPart10walletMenuEv@Base 4:4.3.4
 _ZN9KHTMLPart11completeURLERK7QString@Base 4:4.3.4
 _ZN9KHTMLPart11customEventEP6QEvent@Base 4:4.3.4
 _ZN9KHTMLPart11decFontSizeEPKii@Base 4:4.3.4
 _ZN9KHTMLPart11frameExistsERK7QString@Base 4:4.3.4
 _ZN9KHTMLPart11incFontSizeEPKii@Base 4:4.3.4
 _ZN9KHTMLPart11onFirstDataEv@Base 4:4.3.4
 _ZN9KHTMLPart11partManagerEv@Base 4:4.3.4
 _ZN9KHTMLPart11qt_metacallEN11QMetaObject4CallEiPPv@Base 4:4.3.4
 _ZN9KHTMLPart11qt_metacastEPKc@Base 4:4.3.4
 _ZN9KHTMLPart11runAdFilterEv@Base 4:4.3.4
 _ZN9KHTMLPart11setEditableEb@Base 4:4.3.4
 _ZN9KHTMLPart11setEncodingERK7QStringb@Base 4:4.3.4
 _ZN9KHTMLPart11slotDecZoomEv@Base 4:4.3.4
 _ZN9KHTMLPart11slotIncZoomEv@Base 4:4.3.4
 _ZN9KHTMLPart11slotJobDoneEP4KJob@Base 4:4.3.4
 _ZN9KHTMLPart11toplevelURLEv@Base 4:4.3.4
 _ZN9KHTMLPart11urlSelectedERK7QStringiiS2_RKN6KParts16OpenUrlArgumentsERKNS3_16BrowserArgumentsE@Base 4:4.3.4
 _ZN9KHTMLPart12doOpenStreamERK7QString@Base 4:4.3.4
 _ZN9KHTMLPart12findTextNextEb@Base 4:4.3.4
 _ZN9KHTMLPart12framejScriptEPN6KParts12ReadOnlyPartE@Base 4:4.3.4
 _ZN9KHTMLPart12initFindNodeEbbb@Base 4:4.3.4
 _ZN9KHTMLPart12restoreStateER11QDataStream@Base 4:4.3.4
 _ZN9KHTMLPart12saveToWalletERK7QStringRK4QMapIS0_S0_E@Base 4:4.3.4
 _ZN9KHTMLPart12setCaretModeEb@Base 4:4.3.4
 _ZN9KHTMLPart12setDragCaretERKN3DOM9SelectionE@Base 4:4.3.4
 _ZN9KHTMLPart12setFixedFontERK7QString@Base 4:4.3.4
 _ZN9KHTMLPart12setSelectionERKN3DOM5RangeE@Base 4:4.3.4
 _ZN9KHTMLPart12setURLCursorERK7QCursor@Base 4:4.3.4
 _ZN9KHTMLPart12slotFindDoneEv@Base 4:4.3.4
 _ZN9KHTMLPart12slotFindNextEv@Base 4:4.3.4
 _ZN9KHTMLPart12slotFindPrevEv@Base 4:4.3.4
 _ZN9KHTMLPart12slotFinishedEP4KJob@Base 4:4.3.4
 _ZN9KHTMLPart12slotJobSpeedEP4KJobm@Base 4:4.3.4
 _ZN9KHTMLPart12slotRedirectEv@Base 4:4.3.4
 _ZN9KHTMLPart12slotSecurityEv@Base 4:4.3.4
 _ZN9KHTMLPart12slotZoomViewEi@Base 4:4.3.4
 _ZN9KHTMLPart12walletOpenedEPN7KWallet6WalletE@Base 4:4.3.4
 _ZN9KHTMLPart13createDecoderEv@Base 4:4.3.4
 _ZN9KHTMLPart13dequeueWalletEPN3DOM19HTMLFormElementImplE@Base 4:4.3.4
 _ZN9KHTMLPart13doCloseStreamEv@Base 4:4.3.4
 _ZN9KHTMLPart13doWriteStreamERK10QByteArray@Base 4:4.3.4
 _ZN9KHTMLPart13executeScriptERK7QString@Base 4:4.3.4
 _ZN9KHTMLPart13executeScriptERK7QStringiRKN3DOM4NodeES2_@Base 4:4.3.4
 _ZN9KHTMLPart13executeScriptERKN3DOM4NodeERK7QString@Base 4:4.3.4
 _ZN9KHTMLPart13findFramePartERK7QString@Base 4:4.3.4
 _ZN9KHTMLPart13findTextBeginEv@Base 4:4.3.4
 _ZN9KHTMLPart13navigateChildEPN5khtml10ChildFrameERK4KUrl@Base 4:4.4.95
 _ZN9KHTMLPart13nodeActivatedERKN3DOM4NodeE@Base 4:4.3.4
 _ZN9KHTMLPart13preloadScriptERK7QStringS2_@Base 4:4.3.4
 _ZN9KHTMLPart13requestObjectEPN5khtml10ChildFrameERK4KUrlRKN6KParts16OpenUrlArgumentsERKNS6_16BrowserArgumentsE@Base 4:4.3.4
 _ZN9KHTMLPart13setActiveNodeERKN3DOM4NodeE@Base 4:4.3.4
 _ZN9KHTMLPart13setDNDEnabledEb@Base 4:4.3.4
 _ZN9KHTMLPart13setOpenedByJSEb@Base 4:4.3.4
 _ZN9KHTMLPart13setZoomFactorEi@Base 4:4.3.4
 _ZN9KHTMLPart13slotSaveFrameEv@Base 4:4.3.4
 _ZN9KHTMLPart13slotSelectAllEv@Base 4:4.3.4
 _ZN9KHTMLPart13updateActionsEv@Base 4:4.3.4
 _ZN9KHTMLPart14checkCompletedEv@Base 4:4.3.4
 _ZN9KHTMLPart14clearSelectionEv@Base 4:4.3.4
 _ZN9KHTMLPart14openUrlInFrameERK4KUrlRKN6KParts16OpenUrlArgumentsERKNS3_16BrowserArgumentsE@Base 4:4.3.4
 _ZN9KHTMLPart14resetHoverTextEv@Base 4:4.3.4
 _ZN9KHTMLPart14setDNSPrefetchENS_11DNSPrefetchE@Base 4:4.3.4
 _ZN9KHTMLPart14setDebugScriptEb@Base 4:4.3.4
 _ZN9KHTMLPart14setJavaEnabledEb@Base 4:4.3.4
 _ZN9KHTMLPart14slotAutoScrollEv@Base 4:4.3.4
 _ZN9KHTMLPart14slotJobPercentEP4KJobm@Base 4:4.3.4
 _ZN9KHTMLPart14slotLoadImagesEv@Base 4:4.3.4
 _ZN9KHTMLPart14slotPrintFrameEv@Base 4:4.3.4
 _ZN9KHTMLPart14stopAnimationsEv@Base 4:4.3.4
 _ZN9KHTMLPart14stopAutoScrollEv@Base 4:4.3.4
 _ZN9KHTMLPart15findFrameParentEPN6KParts12ReadOnlyPartERK7QStringPPN5khtml10ChildFrameE@Base 4:4.3.4
 _ZN9KHTMLPart15resetFromScriptEv@Base 4:4.3.4
 _ZN9KHTMLPart15setCaretVisibleEb@Base 4:4.3.4
 _ZN9KHTMLPart15setPageSecurityENS_12PageSecurityE@Base 4:4.3.4
 _ZN9KHTMLPart15setStandardFontERK7QString@Base 4:4.3.4
 _ZN9KHTMLPart15slotDebugScriptEv@Base 4:4.3.4
 _ZN9KHTMLPart15slotDecFontSizeEv@Base 4:4.3.4
 _ZN9KHTMLPart15slotDecZoomFastEv@Base 4:4.3.4
 _ZN9KHTMLPart15slotIncFontSizeEv@Base 4:4.3.4
 _ZN9KHTMLPart15slotIncZoomFastEv@Base 4:4.3.4
 _ZN9KHTMLPart15slotInfoMessageEP4KJobRK7QString@Base 4:4.3.4
 _ZN9KHTMLPart15slotPartRemovedEPN6KParts4PartE@Base 4:4.3.4
 _ZN9KHTMLPart15slotRedirectionEPN3KIO3JobERK4KUrl@Base 4:4.3.4
 _ZN9KHTMLPart15slotRestoreDataERK10QByteArray@Base 4:4.3.4
 _ZN9KHTMLPart15slotSetEncodingERK7QString@Base 4:4.3.4
 _ZN9KHTMLPart15startAutoScrollEv@Base 4:4.3.4
 _ZN9KHTMLPart15submitFormAgainEv@Base 4:4.3.4
 _ZN9KHTMLPart15submitFormProxyEPKcRK7QStringRK10QByteArrayS4_S4_S4_@Base 4:4.3.4
 _ZN9KHTMLPart16addWalletFormKeyERK7QString@Base 4:4.3.4
 _ZN9KHTMLPart16checkFrameAccessEPS_@Base 4:4.3.4
 _ZN9KHTMLPart16childLoadFailureEPN5khtml10ChildFrameE@Base 4:4.3.4
 _ZN9KHTMLPart16guiActivateEventEPN6KParts16GUIActivateEventE@Base 4:4.3.4
 _ZN9KHTMLPart16jsErrorExtensionEv@Base 4:4.3.4
 _ZN9KHTMLPart16loadFrameElementEPN3DOM28HTMLPartContainerElementImplERK7QStringS5_RK11QStringListb@Base 4:4.4.95
 _ZN9KHTMLPart16requestFrameNameEv@Base 4:4.3.4
 _ZN9KHTMLPart16selectionChangedEv@Base 4:4.3.4
 _ZN9KHTMLPart16setCaretPositionEN3DOM4NodeElb@Base 4:4.3.4
 _ZN9KHTMLPart16setStatusBarTextERK7QStringNS_17StatusBarPriorityE@Base 4:4.3.4
 _ZN9KHTMLPart16slotChildStartedEPN3KIO3JobE@Base 4:4.3.4
 _ZN9KHTMLPart16slotDebugDOMTreeEv@Base 4:4.3.4
 _ZN9KHTMLPart16slotRequestFocusEPN6KParts12ReadOnlyPartE@Base 4:4.3.4
 _ZN9KHTMLPart16slotSaveDocumentEv@Base 4:4.3.4
 _ZN9KHTMLPart16slotViewPageInfoEv@Base 4:4.3.4
 _ZN9KHTMLPart16slotWalletClosedEv@Base 4:4.3.4
 _ZN9KHTMLPart16staticMetaObjectE@Base 4:4.3.4
 _ZN9KHTMLPart16updateZoomFactorEv@Base 4:4.4.0
 _ZN9KHTMLPart17checkLinkSecurityERK4KUrlRK16KLocalizedStringRK7QString@Base 4:4.3.4
 _ZN9KHTMLPart17extendSelectionToEiiRKN3DOM4NodeE@Base 4:4.3.4
 _ZN9KHTMLPart17loadObjectElementEPN3DOM28HTMLPartContainerElementImplERK7QStringS5_RK11QStringList@Base 4:4.4.95
 _ZN9KHTMLPart17preloadStyleSheetERK7QStringS2_@Base 4:4.3.4
 _ZN9KHTMLPart17setAutoloadImagesEb@Base 4:4.3.4
 _ZN9KHTMLPart17setJScriptEnabledEb@Base 4:4.3.4
 _ZN9KHTMLPart17setPluginsEnabledEb@Base 4:4.3.4
 _ZN9KHTMLPart17setUserStyleSheetERK4KUrl@Base 4:4.3.4
 _ZN9KHTMLPart17setUserStyleSheetERK7QString@Base 4:4.3.4
 _ZN9KHTMLPart17slotFindAheadLinkEv@Base 4:4.3.4
 _ZN9KHTMLPart17slotFindAheadTextEv@Base 4:4.3.4
 _ZN9KHTMLPart17slotUseStylesheetEv@Base 4:4.3.4
 _ZN9KHTMLPart18checkEmitLoadEventEv@Base 4:4.3.4
 _ZN9KHTMLPart18connectToChildPartEPN5khtml10ChildFrameEPN6KParts12ReadOnlyPartERK7QString@Base 4:4.4.95
 _ZN9KHTMLPart18jScriptInterpreterEv@Base 4:4.3.4
 _ZN9KHTMLPart18setFontScaleFactorEi@Base 4:4.3.4
 _ZN9KHTMLPart18setJSStatusBarTextERK7QString@Base 4:4.3.4
 _ZN9KHTMLPart18slotChildCompletedEb@Base 4:4.3.4
 _ZN9KHTMLPart18slotChildCompletedEv@Base 4:4.3.4
 _ZN9KHTMLPart18slotClearSelectionEv@Base 4:4.3.4
 _ZN9KHTMLPart18slotDebugFrameTreeEv@Base 4:4.5.85
 _ZN9KHTMLPart18slotProgressUpdateEv@Base 4:4.3.4
 _ZN9KHTMLPart18slotSaveBackgroundEv@Base 4:4.3.4
 _ZN9KHTMLPart18slotStopAnimationsEv@Base 4:4.3.4
 _ZN9KHTMLPart19invalidateSelectionEv@Base 4:4.3.4
 _ZN9KHTMLPart19khtmlMouseMoveEventEPN5khtml14MouseMoveEventE@Base 4:4.3.4
 _ZN9KHTMLPart19launchJSErrorDialogEv@Base 4:4.3.4
 _ZN9KHTMLPart19launchWalletManagerEv@Base 4:4.3.4
 _ZN9KHTMLPart19mayPrefetchHostnameERK7QString@Base 4:4.3.4
 _ZN9KHTMLPart19scheduleRedirectionEiRK7QStringb@Base 4:4.3.4
 _ZN9KHTMLPart19scriptableExtensionEPKN3DOM8NodeImplE@Base 4:4.4.95
 _ZN9KHTMLPart19setFormNotificationENS_16FormNotificationE@Base 4:4.3.4
 _ZN9KHTMLPart19setSelectionVisibleEb@Base 4:4.3.4
 _ZN9KHTMLPart19slotChildDocCreatedEv@Base 4:4.3.4
 _ZN9KHTMLPart19slotChildURLRequestERK4KUrlRKN6KParts16OpenUrlArgumentsERKNS3_16BrowserArgumentsE@Base 4:4.3.4
 _ZN9KHTMLPart19slotDebugRenderTreeEv@Base 4:4.3.4
 _ZN9KHTMLPart19slotDecFontSizeFastEv@Base 4:4.3.4
 _ZN9KHTMLPart19slotFinishedParsingEv@Base 4:4.3.4
 _ZN9KHTMLPart19slotIncFontSizeFastEv@Base 4:4.3.4
 _ZN9KHTMLPart19slotParentCompletedEv@Base 4:4.3.4
 _ZN9KHTMLPart19slotToggleCaretModeEv@Base 4:4.3.4
 _ZN9KHTMLPart19slotViewFrameSourceEv@Base 4:4.3.4
 _ZN9KHTMLPart19suppressedPopupMenuEv@Base 4:4.3.4
 _ZN9KHTMLPart20caretPositionChangedERKN3DOM4NodeEl@Base 4:4.3.4
 _ZN9KHTMLPart20configurationChangedEv@Base 4:4.3.4
 _ZN9KHTMLPart20emitSelectionChangedEv@Base 4:4.3.4
 _ZN9KHTMLPart20khtmlMousePressEventEPN5khtml15MousePressEventE@Base 4:4.3.4
 _ZN9KHTMLPart20launchJSConfigDialogEv@Base 4:4.3.4
 _ZN9KHTMLPart20processObjectRequestEPN5khtml10ChildFrameERK4KUrlRK7QString@Base 4:4.3.4
 _ZN9KHTMLPart20reparseConfigurationEv@Base 4:4.3.4
 _ZN9KHTMLPart20saveLoginInformationERK7QStringS2_RK4QMapIS0_S0_E@Base 4:4.3.4
 _ZN9KHTMLPart20setFocusNodeIfNeededERKN3DOM9SelectionE@Base 4:4.3.4
 _ZN9KHTMLPart20showSuppressedPopupsEv@Base 4:4.3.4
 _ZN9KHTMLPart21navigateLocalProtocolEPN5khtml10ChildFrameEPN6KParts12ReadOnlyPartERK4KUrl@Base 4:4.4.95
 _ZN9KHTMLPart21recursiveFrameRequestEPS_RK4KUrlRKN6KParts16OpenUrlArgumentsERKNS4_16BrowserArgumentsEb@Base 4:4.3.4
 _ZN9KHTMLPart21restoreScrollPositionEv@Base 4:4.3.4
 _ZN9KHTMLPart21setMetaRefreshEnabledEb@Base 4:4.3.4
 _ZN9KHTMLPart21slotLoaderRequestDoneEPN5khtml9DocLoaderEPNS0_12CachedObjectE@Base 4:4.3.4
 _ZN9KHTMLPart21slotUserSheetStatDoneEP4KJob@Base 4:4.3.4
 _ZN9KHTMLPart22clearCaretRectIfNeededEv@Base 4:4.3.4
 _ZN9KHTMLPart22enableFindAheadActionsEb@Base 4:4.3.4
 _ZN9KHTMLPart22formSubmitNotificationEPKcRK7QStringRK10QByteArrayS4_S4_S4_@Base 4:4.3.4
 _ZN9KHTMLPart22isPointInsideSelectionEii@Base 4:4.3.4
 _ZN9KHTMLPart22khtmlDrawContentsEventEPN5khtml17DrawContentsEventE@Base 4:4.3.4
 _ZN9KHTMLPart22khtmlMouseReleaseEventEPN5khtml17MouseReleaseEventE@Base 4:4.3.4
 _ZN9KHTMLPart22notifySelectionChangedEb@Base 4:4.3.4
 _ZN9KHTMLPart22removeJSErrorExtensionEv@Base 4:4.3.4
 _ZN9KHTMLPart22selectionLayoutChangedEv@Base 4:4.3.4
 _ZN9KHTMLPart22setAlwaysHonourDoctypeEb@Base 4:4.3.4
 _ZN9KHTMLPart22setOnlyLocalReferencesEb@Base 4:4.3.4
 _ZN9KHTMLPart22slotActiveFrameChangedEPN6KParts4PartE@Base 4:4.3.4
 _ZN9KHTMLPart22slotViewDocumentSourceEv@Base 4:4.3.4
 _ZN9KHTMLPart23createHTMLEventListenerE7QStringS0_PN3DOM8NodeImplEb@Base 4:4.3.4
 _ZN9KHTMLPart23crossFrameExecuteScriptERK7QStringS2_@Base 4:4.3.4
 _ZN9KHTMLPart23disableJSErrorExtensionEv@Base 4:4.3.4
 _ZN9KHTMLPart23slotFindDialogDestroyedEv@Base 4:4.3.4
 _ZN9KHTMLPart23togglePopupPassivePopupEv@Base 4:4.3.4
 _ZN9KHTMLPart24emitCaretPositionChangedERKN3DOM8PositionE@Base 4:4.3.4
 _ZN9KHTMLPart24handleMouseMoveEventDragEPN5khtml14MouseMoveEventE@Base 4:4.3.4
 _ZN9KHTMLPart24handleMouseMoveEventOverEPN5khtml14MouseMoveEventE@Base 4:4.3.4
 _ZN9KHTMLPart24jsErrorDialogContextMenuEv@Base 4:4.3.4
 _ZN9KHTMLPart24pFindTextNextInThisFrameEb@Base 4:4.3.4
 _ZN9KHTMLPart24removeStoredPasswordFormEP7QAction@Base 4:4.3.4
 _ZN9KHTMLPart24setStatusMessagesEnabledEb@Base 4:4.3.4
 _ZN9KHTMLPart24slotLoaderRequestStartedEPN5khtml9DocLoaderEPNS0_12CachedObjectE@Base 4:4.3.4
 _ZN9KHTMLPart25setForcePermitLocalImagesEb@Base 4:4.5.85
 _ZN9KHTMLPart25setJSDefaultStatusBarTextERK7QString@Base 4:4.3.4
 _ZN9KHTMLPart26delNonPasswordStorableSiteEv@Base 4:4.3.4
 _ZN9KHTMLPart26khtmlMouseDoubleClickEventEPN5khtml21MouseDoubleClickEventE@Base 4:4.3.4
 _ZN9KHTMLPart26setPluginPageQuestionAskedERK7QString@Base 4:4.3.4
 _ZN9KHTMLPart27setSuppressedPopupIndicatorEbPS_@Base 4:4.3.4
 _ZN9KHTMLPart29handleMouseMoveEventSelectionEPN5khtml14MouseMoveEventE@Base 4:4.3.4
 _ZN9KHTMLPart30slotAutomaticDetectionLanguageEN17KEncodingDetector16AutoDetectScriptE@Base 4:4.3.4
 _ZN9KHTMLPart31setCaretDisplayPolicyNonFocusedENS_18CaretDisplayPolicyE@Base 4:4.3.4
 _ZN9KHTMLPart32handleMousePressEventDoubleClickEPN5khtml21MouseDoubleClickEventE@Base 4:4.3.4
 _ZN9KHTMLPart32handleMousePressEventSingleClickEPN5khtml15MousePressEventE@Base 4:4.3.4
 _ZN9KHTMLPart32handleMousePressEventTripleClickEPN5khtml21MouseDoubleClickEventE@Base 4:4.3.4
 _ZN9KHTMLPart3endEv@Base 4:4.3.4
 _ZN9KHTMLPart4hideEv@Base 4:4.3.4
 _ZN9KHTMLPart4initEP9KHTMLViewNS_10GUIProfileE@Base 4:4.3.4
 _ZN9KHTMLPart4showEv@Base 4:4.3.4
 _ZN9KHTMLPart5beginERK4KUrlii@Base 4:4.3.4
 _ZN9KHTMLPart5clearEv@Base 4:4.3.4
 _ZN9KHTMLPart5frameEPK7QObject@Base 4:4.3.4
 _ZN9KHTMLPart5onURLERK7QString@Base 4:4.3.4
 _ZN9KHTMLPart5paintEP8QPainterRK5QRectiPb@Base 4:4.3.4
 _ZN9KHTMLPart5writeEPKci@Base 4:4.3.4
 _ZN9KHTMLPart5writeERK7QString@Base 4:4.3.4
 _ZN9KHTMLPart6openerEv@Base 4:4.3.4
 _ZN9KHTMLPart6walletEv@Base 4:4.3.4
 _ZN9KHTMLPart6zoomInEPKii@Base 4:4.3.4
 _ZN9KHTMLPart7jScriptEv@Base 4:4.3.4
 _ZN9KHTMLPart7openUrlERK4KUrl@Base 4:4.3.4
 _ZN9KHTMLPart7overURLERK7QStringS2_b@Base 4:4.3.4
 _ZN9KHTMLPart7zoomOutEPKii@Base 4:4.3.4
 _ZN9KHTMLPart8closeUrlEv@Base 4:4.3.4
 _ZN9KHTMLPart8findTextERK7QStringlP7QWidgetP11KFindDialog@Base 4:4.3.4
 _ZN9KHTMLPart8findTextEv@Base 4:4.3.4
 _ZN9KHTMLPart8openFileEv@Base 4:4.3.4
 _ZN9KHTMLPart8setCaretERKN3DOM9SelectionEb@Base 4:4.3.4
 _ZN9KHTMLPart8slotDataEPN3KIO3JobERK10QByteArray@Base 4:4.3.4
 _ZN9KHTMLPart8slotFindEv@Base 4:4.3.4
 _ZN9KHTMLPart9findFrameERK7QString@Base 4:4.3.4
 _ZN9KHTMLPart9htmlErrorEiRK7QStringRK4KUrl@Base 4:4.3.4
 _ZN9KHTMLPart9initCaretEv@Base 4:4.3.4
 _ZN9KHTMLPart9popupMenuERK7QString@Base 4:4.3.4
 _ZN9KHTMLPart9popupMenuERK7QStringRK6QPoint@Base 4:4.3.4
 _ZN9KHTMLPart9saveStateER11QDataStream@Base 4:4.3.4
 _ZN9KHTMLPart9selectAllEv@Base 4:4.3.4
 _ZN9KHTMLPart9setOpenerEPS_@Base 4:4.3.4
 _ZN9KHTMLPart9showErrorEP4KJob@Base 4:4.3.4
 _ZN9KHTMLPartC1EP7QWidgetP7QObjectNS_10GUIProfileE@Base 4:4.3.4
 _ZN9KHTMLPartC1EP9KHTMLViewP7QObjectNS_10GUIProfileE@Base 4:4.3.4
 _ZN9KHTMLPartC2EP7QWidgetP7QObjectNS_10GUIProfileE@Base 4:4.3.4
 _ZN9KHTMLPartC2EP9KHTMLViewP7QObjectNS_10GUIProfileE@Base 4:4.3.4
 _ZN9KHTMLPartD0Ev@Base 4:4.3.4
 _ZN9KHTMLPartD1Ev@Base 4:4.3.4
 _ZN9KHTMLPartD2Ev@Base 4:4.3.4
 _ZN9KHTMLView10closeEventEP11QCloseEvent@Base 4:4.3.4
 _ZN9KHTMLView10paintEventEP11QPaintEvent@Base 4:4.3.4
 _ZN9KHTMLView10scrollTickEv@Base 4:4.3.4
 _ZN9KHTMLView10timerEventEP11QTimerEvent@Base 4:4.3.4
 _ZN9KHTMLView10wheelEventEP11QWheelEvent@Base 4:4.3.4
 _ZN9KHTMLView11eventFilterEP7QObjectP6QEvent@Base 4:4.3.4
 _ZN9KHTMLView11qt_metacallEN11QMetaObject4CallEiPPv@Base 4:4.3.4
 _ZN9KHTMLView11qt_metacastEPKc@Base 4:4.3.4
 _ZN9KHTMLView11resizeEventEP12QResizeEvent@Base 4:4.3.4
 _ZN9KHTMLView11widgetEventEP6QEvent@Base 4:4.3.4
 _ZN9KHTMLView12doAutoScrollEv@Base 4:4.3.4
 _ZN9KHTMLView12focusInEventEP11QFocusEvent@Base 4:4.3.4
 _ZN9KHTMLView12setMediaTypeERK7QString@Base 4:4.3.4
 _ZN9KHTMLView12setZoomLevelEi@Base 4:4.3.4
 _ZN9KHTMLView13focusOutEventEP11QFocusEvent@Base 4:4.3.4
 _ZN9KHTMLView13keyPressEventEP9QKeyEvent@Base 4:4.3.4
 _ZN9KHTMLView13setClipHolderEP6QStackI7QRegionE@Base 4:4.3.4
 _ZN9KHTMLView13viewportEventEP6QEvent@Base 4:4.3.4
 _ZN9KHTMLView14dialogsAllowedEv@Base 4:4.3.4
 _ZN9KHTMLView14dragEnterEventEP15QDragEnterEvent@Base 4:4.3.4
 _ZN9KHTMLView14finishedLayoutEv@Base 4:4.3.4
 _ZN9KHTMLView14hideAccessKeysEv@Base 4:4.3.4
 _ZN9KHTMLView14mouseMoveEventEP11QMouseEvent@Base 4:4.3.4
 _ZN9KHTMLView14resizeContentsEii@Base 4:4.3.4
 _ZN9KHTMLView14setContentsPosEii@Base 4:4.3.4
 _ZN9KHTMLView14setMarginWidthEi@Base 4:4.3.4
 _ZN9KHTMLView14updateContentsERK5QRect@Base 4:4.3.4
 _ZN9KHTMLView14updateContentsEiiii@Base 4:4.3.4
 _ZN9KHTMLView15addStaticObjectEb@Base 4:4.3.4
 _ZN9KHTMLView15findAheadActiveEb@Base 4:4.3.4
 _ZN9KHTMLView15handleAccessKeyEPK9QKeyEvent@Base 4:4.3.4
 _ZN9KHTMLView15keyReleaseEventEP9QKeyEvent@Base 4:4.3.4
 _ZN9KHTMLView15mousePressEventEP11QMouseEvent@Base 4:4.3.4
 _ZN9KHTMLView15repaintContentsERK5QRect@Base 4:4.3.4
 _ZN9KHTMLView15repaintContentsEiiii@Base 4:4.3.4
 _ZN9KHTMLView15scheduleRepaintEiiiib@Base 4:4.3.4
 _ZN9KHTMLView15setMarginHeightEi@Base 4:4.3.4
 _ZN9KHTMLView16dispatchKeyEventEP9QKeyEvent@Base 4:4.3.4
 _ZN9KHTMLView16hasLayoutPendingEv@Base 4:4.4.95
 _ZN9KHTMLView16restoreScrollBarEv@Base 4:4.3.4
 _ZN9KHTMLView16scheduleRelayoutEPN5khtml12RenderObjectE@Base 4:4.3.4
 _ZN9KHTMLView16scrollContentsByEii@Base 4:4.3.4
 _ZN9KHTMLView16setWidgetVisibleEPN5khtml12RenderWidgetEb@Base 4:4.3.4
 _ZN9KHTMLView16staticMetaObjectE@Base 4:4.3.4
 _ZN9KHTMLView16updateScrollBarsEv@Base 4:4.3.4
 _ZN9KHTMLView17accessKeysTimeoutEv@Base 4:4.3.4
 _ZN9KHTMLView17closeChildDialogsEv@Base 4:4.3.4
 _ZN9KHTMLView17displayAccessKeysEPS_S0_R7QVectorI5QCharEb@Base 4:4.3.4
 _ZN9KHTMLView17displayAccessKeysEv@Base 4:4.3.4
 _ZN9KHTMLView17focusNextPrevNodeEb@Base 4:4.3.4
 _ZN9KHTMLView17mouseReleaseEventEP11QMouseEvent@Base 4:4.3.4
 _ZN9KHTMLView17repaintAccessKeysEv@Base 4:4.3.4
 _ZN9KHTMLView17unscheduleRepaintEv@Base 4:4.3.4
 _ZN9KHTMLView18caretKeyPressEventEP9QKeyEvent@Base 4:4.3.4
 _ZN9KHTMLView18dispatchMouseEventEiPN3DOM8NodeImplES2_biP11QMouseEventbii@Base 4:4.3.4
 _ZN9KHTMLView18focusNextPrevChildEb@Base 4:4.3.4
 _ZN9KHTMLView18removeStaticObjectEb@Base 4:4.3.4
 _ZN9KHTMLView18slotPaletteChangedEv@Base 4:4.3.4
 _ZN9KHTMLView18tripleClickTimeoutEv@Base 4:4.3.4
 _ZN9KHTMLView18unscheduleRelayoutEv@Base 4:4.3.4
 _ZN9KHTMLView20setIgnoreWheelEventsEb@Base 4:4.3.4
 _ZN9KHTMLView20setMouseEventsTargetEP7QWidget@Base 4:4.3.4
 _ZN9KHTMLView20setupSmoothScrollingEii@Base 4:4.3.4
 _ZN9KHTMLView20slotMouseScrollTimerEv@Base 4:4.3.4
 _ZN9KHTMLView21addFormCompletionItemERK7QStringS2_@Base 4:4.3.4
 _ZN9KHTMLView21mouseDoubleClickEventEP11QMouseEvent@Base 4:4.3.4
 _ZN9KHTMLView22clearCompletionHistoryERK7QString@Base 4:4.3.4
 _ZN9KHTMLView22dispatchKeyEventHelperEP9QKeyEventb@Base 4:4.3.4
 _ZN9KHTMLView22focusNodeWithAccessKeyE5QCharPS_@Base 4:4.3.4
 _ZN9KHTMLView22setHasNormalBackgroundEv@Base 4:4.3.4
 _ZN9KHTMLView22setHasStaticBackgroundEb@Base 4:4.3.4
 _ZN9KHTMLView22setSmoothScrollingModeENS_19SmoothScrollingModeE@Base 4:4.3.4
 _ZN9KHTMLView24resizeContentsToViewportEv@Base 4:4.3.4
 _ZN9KHTMLView26addNonPasswordStorableSiteERK7QString@Base 4:4.3.4
 _ZN9KHTMLView26delNonPasswordStorableSiteERK7QString@Base 4:4.3.4
 _ZN9KHTMLView26setVerticalScrollBarPolicyEN2Qt15ScrollBarPolicyE@Base 4:4.3.4
 _ZN9KHTMLView28checkExternalWidgetsPositionEv@Base 4:4.3.4
 _ZN9KHTMLView28setHorizontalScrollBarPolicyEN2Qt15ScrollBarPolicyE@Base 4:4.3.4
 _ZN9KHTMLView29setSmoothScrollingModeDefaultENS_19SmoothScrollingModeE@Base 4:4.3.4
 _ZN9KHTMLView4initEv@Base 4:4.3.4
 _ZN9KHTMLView5clearEv@Base 4:4.3.4
 _ZN9KHTMLView5eventEP6QEvent@Base 4:4.3.4
 _ZN9KHTMLView5paintEP8QPainterRK5QRectiPb@Base 4:4.3.4
 _ZN9KHTMLView5printEb@Base 4:4.3.4
 _ZN9KHTMLView6layoutEv@Base 4:4.3.4
 _ZN9KHTMLView6renderEP8QPainterRK5QRectRK6QPoint@Base 4:4.3.4
 _ZN9KHTMLView7clearedEv@Base 4:4.3.4
 _ZN9KHTMLView7setPartEP9KHTMLPart@Base 4:4.3.4
 _ZN9KHTMLView8addChildEP7QWidgetii@Base 4:4.3.4
 _ZN9KHTMLView8completeEb@Base 4:4.3.4
 _ZN9KHTMLView8scrollByEii@Base 4:4.3.4
 _ZN9KHTMLView8scrollToERK5QRect@Base 4:4.3.4
 _ZN9KHTMLView8zoomViewEi@Base 4:4.3.4
 _ZN9KHTMLView9dropEventEP10QDropEvent@Base 4:4.3.4
 _ZN9KHTMLView9hideEventEP10QHideEvent@Base 4:4.3.4
 _ZN9KHTMLView9showEventEP10QShowEvent@Base 4:4.3.4
 _ZN9KHTMLViewC1EP9KHTMLPartP7QWidget@Base 4:4.3.4
 _ZN9KHTMLViewC2EP9KHTMLPartP7QWidget@Base 4:4.3.4
 _ZN9KHTMLViewD0Ev@Base 4:4.3.4
 _ZN9KHTMLViewD1Ev@Base 4:4.3.4
 _ZN9KHTMLViewD2Ev@Base 4:4.3.4
 (optional=templinst|arch=armel armhf ia64 mips mipsel powerpc s390 sparc)_ZNK12KConfigGroup9readCheckI6QColorEET_PKcRKS2_@Base 4:4.7.4
 (optional=templinst)_ZNK12KConfigGroup9readCheckIbEET_PKcRKS1_@Base 4:4.6.2
 (optional=templinst|arch=!amd64 !hurd-i386 !i386 !kfreebsd-amd64 !kfreebsd-i386)_ZNK12KConfigGroup9readCheckIiEET_PKcRKS1_@Base 4:4.6.3
 (optional=templinst|arch=s390x)_ZNK12KConfigGroup9readEntryI6QColorEET_PKcRKS2_@Base 4:4.8.3
 _ZNK13KHTMLSettings10lookupFontEi@Base 4:4.3.4
 _ZNK13KHTMLSettings10vLinkColorEv@Base 4:4.3.4
 _ZNK13KHTMLSettings11dnsPrefetchEv@Base 4:4.3.4
 _ZNK13KHTMLSettings11minFontSizeEv@Base 4:4.3.4
 _ZNK13KHTMLSettings11stdFontNameEv@Base 4:4.3.4
 _ZNK13KHTMLSettings12adFilteredByERK7QStringPb@Base 4:4.4.0
 _ZNK13KHTMLSettings12changeCursorEv@Base 4:4.3.4
 _ZNK13KHTMLSettings12isAdFilteredERK7QString@Base 4:4.3.4
 _ZNK13KHTMLSettings13fixedFontNameEv@Base 4:4.3.4
 _ZNK13KHTMLSettings13isJavaEnabledERK7QString@Base 4:4.3.4
 _ZNK13KHTMLSettings13serifFontNameEv@Base 4:4.3.4
 _ZNK13KHTMLSettings13settingsToCSSEv@Base 4:4.3.4
 _ZNK13KHTMLSettings13underlineLinkEv@Base 4:4.3.4
 _ZNK13KHTMLSettings14autoLoadImagesEv@Base 4:4.3.4
 _ZNK13KHTMLSettings14autoSpellCheckEv@Base 4:4.3.4
 _ZNK13KHTMLSettings14mediumFontSizeEv@Base 4:4.3.4
 _ZNK13KHTMLSettings14showAnimationsEv@Base 4:4.3.4
 _ZNK13KHTMLSettings14userStyleSheetEv@Base 4:4.3.4
 _ZNK13KHTMLSettings15allowTabulationEv@Base 4:4.3.4
 _ZNK13KHTMLSettings15cursiveFontNameEv@Base 4:4.3.4
 _ZNK13KHTMLSettings15fantasyFontNameEv@Base 4:4.3.4
 _ZNK13KHTMLSettings15jsErrorsEnabledEv@Base 4:4.3.4
 _ZNK13KHTMLSettings15smoothScrollingEv@Base 4:4.3.4
 _ZNK13KHTMLSettings16isHideAdsEnabledEv@Base 4:4.3.4
 _ZNK13KHTMLSettings16isPluginsEnabledERK7QString@Base 4:4.3.4
 _ZNK13KHTMLSettings16windowMovePolicyERK7QString@Base 4:4.3.4
 _ZNK13KHTMLSettings16windowOpenPolicyERK7QString@Base 4:4.3.4
 _ZNK13KHTMLSettings17accessKeysEnabledEv@Base 4:4.3.4
 _ZNK13KHTMLSettings17isAdFilterEnabledEv@Base 4:4.3.4
 _ZNK13KHTMLSettings17sansSerifFontNameEv@Base 4:4.3.4
 _ZNK13KHTMLSettings17windowFocusPolicyERK7QString@Base 4:4.3.4
 _ZNK13KHTMLSettings18followSystemColorsEv@Base 4:4.3.4
 _ZNK13KHTMLSettings18windowResizePolicyERK7QString@Base 4:4.3.4
 _ZNK13KHTMLSettings18windowStatusPolicyERK7QString@Base 4:4.3.4
 _ZNK13KHTMLSettings19isJavaScriptEnabledERK7QString@Base 4:4.3.4
 _ZNK13KHTMLSettings20unfinishedImageFrameEv@Base 4:4.3.4
 _ZNK13KHTMLSettings22maxFormCompletionItemsEv@Base 4:4.3.4
 _ZNK13KHTMLSettings23isFormCompletionEnabledEv@Base 4:4.3.4
 _ZNK13KHTMLSettings24isJavaScriptDebugEnabledERK7QString@Base 4:4.3.4
 _ZNK13KHTMLSettings26jsPopupBlockerPassivePopupEv@Base 4:4.3.4
 _ZNK13KHTMLSettings27isAutoDelayedActionsEnabledEv@Base 4:4.3.4
 _ZNK13KHTMLSettings29fallbackAccessKeysAssignmentsEv@Base 4:4.3.4
 _ZNK13KHTMLSettings33isJavaScriptErrorReportingEnabledERK7QString@Base 4:4.3.4
 _ZNK13KHTMLSettings8encodingEv@Base 4:4.3.4
 _ZNK13KHTMLSettings9baseColorEv@Base 4:4.3.4
 _ZNK13KHTMLSettings9hoverLinkEv@Base 4:4.3.4
 _ZNK13KHTMLSettings9linkColorEv@Base 4:4.3.4
 _ZNK13KHTMLSettings9textColorEv@Base 4:4.3.4
 _ZNK17KHTMLImageFactory10metaObjectEv@Base 4:4.5.85
 _ZNK3DOM10MouseEvent13relatedTargetEv@Base 4:4.3.4
 _ZNK3DOM10MouseEvent6altKeyEv@Base 4:4.3.4
 _ZNK3DOM10MouseEvent6buttonEv@Base 4:4.3.4
 _ZNK3DOM10MouseEvent7clientXEv@Base 4:4.3.4
 _ZNK3DOM10MouseEvent7clientYEv@Base 4:4.3.4
 _ZNK3DOM10MouseEvent7ctrlKeyEv@Base 4:4.3.4
 _ZNK3DOM10MouseEvent7metaKeyEv@Base 4:4.3.4
 _ZNK3DOM10MouseEvent7screenXEv@Base 4:4.3.4
 _ZNK3DOM10MouseEvent7screenYEv@Base 4:4.3.4
 _ZNK3DOM10MouseEvent8shiftKeyEv@Base 4:4.3.4
 _ZNK3DOM10NodeFilter6handleEv@Base 4:4.3.4
 _ZNK3DOM10NodeFilter6isNullEv@Base 4:4.3.4
 _ZNK3DOM10StyleSheet15isCSSStyleSheetEv@Base 4:4.3.4
 _ZNK3DOM10StyleSheet16parentStyleSheetEv@Base 4:4.3.4
 _ZNK3DOM10StyleSheet4hrefEv@Base 4:4.3.4
 _ZNK3DOM10StyleSheet4typeEv@Base 4:4.3.4
 _ZNK3DOM10StyleSheet5mediaEv@Base 4:4.3.4
 _ZNK3DOM10StyleSheet5titleEv@Base 4:4.3.4
 _ZNK3DOM10StyleSheet8disabledEv@Base 4:4.3.4
 _ZNK3DOM10StyleSheet9ownerNodeEv@Base 4:4.3.4
 _ZNK3DOM10TreeWalker6handleEv@Base 4:4.3.4
 _ZNK3DOM10TreeWalker6isNullEv@Base 4:4.3.4
 _ZNK3DOM11CSSPageRule12selectorTextEv@Base 4:4.3.4
 _ZNK3DOM11CSSPageRule5styleEv@Base 4:4.3.4
 _ZNK3DOM11CSSRuleList6handleEv@Base 4:4.3.4
 _ZNK3DOM11CSSRuleList6isNullEv@Base 4:4.3.4
 _ZNK3DOM11CSSRuleList6lengthEv@Base 4:4.3.4
 _ZNK3DOM11HTMLElement15contentEditableEv@Base 4:4.3.4
 _ZNK3DOM11HTMLElement17isContentEditableEv@Base 4:4.3.4
 _ZNK3DOM11HTMLElement2idEv@Base 4:4.3.4
 _ZNK3DOM11HTMLElement3allEv@Base 4:4.3.4
 _ZNK3DOM11HTMLElement3dirEv@Base 4:4.3.4
 _ZNK3DOM11HTMLElement4langEv@Base 4:4.3.4
 _ZNK3DOM11HTMLElement5titleEv@Base 4:4.3.4
 _ZNK3DOM11HTMLElement8childrenEv@Base 4:4.3.4
 _ZNK3DOM11HTMLElement9classNameEv@Base 4:4.3.4
 _ZNK3DOM11HTMLElement9innerHTMLEv@Base 4:4.3.4
 _ZNK3DOM11HTMLElement9innerTextEv@Base 4:4.3.4
 _ZNK3DOM12AbstractView6handleEv@Base 4:4.3.4
 _ZNK3DOM12AbstractView6isNullEv@Base 4:4.3.4
 _ZNK3DOM12AbstractView8documentEv@Base 4:4.3.4
 _ZNK3DOM12CSSException12codeAsStringEv@Base 4:4.4.95
 _ZNK3DOM12CSSMediaRule5mediaEv@Base 4:4.3.4
 _ZNK3DOM12CSSMediaRule8cssRulesEv@Base 4:4.3.4
 _ZNK3DOM12CSSStyleRule12selectorTextEv@Base 4:4.3.4
 _ZNK3DOM12CSSStyleRule5styleEv@Base 4:4.3.4
 _ZNK3DOM12CSSValueList6lengthEv@Base 4:4.3.4
 _ZNK3DOM12DOMException12codeAsStringEv@Base 4:4.4.95
 _ZNK3DOM12DocumentType14internalSubsetEv@Base 4:4.3.4
 _ZNK3DOM12DocumentType4nameEv@Base 4:4.3.4
 _ZNK3DOM12DocumentType8entitiesEv@Base 4:4.3.4
 _ZNK3DOM12DocumentType8publicIdEv@Base 4:4.3.4
 _ZNK3DOM12DocumentType8systemIdEv@Base 4:4.3.4
 _ZNK3DOM12DocumentType9notationsEv@Base 4:4.3.4
 _ZNK3DOM12HTMLDocument11completeURLERKNS_9DOMStringE@Base 4:4.3.4
 _ZNK3DOM12HTMLDocument12lastModifiedEv@Base 4:4.3.4
 _ZNK3DOM12HTMLDocument3URLEv@Base 4:4.3.4
 _ZNK3DOM12HTMLDocument3allEv@Base 4:4.3.4
 _ZNK3DOM12HTMLDocument4bodyEv@Base 4:4.3.4
 _ZNK3DOM12HTMLDocument5formsEv@Base 4:4.3.4
 _ZNK3DOM12HTMLDocument5linksEv@Base 4:4.3.4
 _ZNK3DOM12HTMLDocument5titleEv@Base 4:4.3.4
 _ZNK3DOM12HTMLDocument6cookieEv@Base 4:4.3.4
 _ZNK3DOM12HTMLDocument6domainEv@Base 4:4.3.4
 _ZNK3DOM12HTMLDocument6imagesEv@Base 4:4.3.4
 _ZNK3DOM12HTMLDocument6layersEv@Base 4:4.3.4
 _ZNK3DOM12HTMLDocument7anchorsEv@Base 4:4.3.4
 _ZNK3DOM12HTMLDocument7appletsEv@Base 4:4.3.4
 _ZNK3DOM12HTMLDocument7scriptsEv@Base 4:4.3.4
 _ZNK3DOM12HTMLDocument8referrerEv@Base 4:4.3.4
 _ZNK3DOM12NamedNodeMap12getNamedItemERKNS_9DOMStringE@Base 4:4.3.4
 _ZNK3DOM12NamedNodeMap14getNamedItemNSERKNS_9DOMStringES3_@Base 4:4.3.4
 _ZNK3DOM12NamedNodeMap4itemEm@Base 4:4.3.4
 _ZNK3DOM12NamedNodeMap6lengthEv@Base 4:4.3.4
 _ZNK3DOM12NodeIterator6handleEv@Base 4:4.3.4
 _ZNK3DOM12NodeIterator6isNullEv@Base 4:4.3.4
 _ZNK3DOM13CSSImportRule10styleSheetEv@Base 4:4.3.4
 _ZNK3DOM13CSSImportRule4hrefEv@Base 4:4.3.4
 _ZNK3DOM13CSSImportRule5mediaEv@Base 4:4.3.4
 _ZNK3DOM13CSSStyleSheet7charsetEv@Base 4:4.3.4
 _ZNK3DOM13CSSStyleSheet8cssRulesEv@Base 4:4.3.4
 _ZNK3DOM13CSSStyleSheet9ownerRuleEv@Base 4:4.3.4
 _ZNK3DOM13CharacterData4dataEv@Base 4:4.3.4
 _ZNK3DOM13CharacterData6lengthEv@Base 4:4.3.4
 _ZNK3DOM13DocumentStyle11styleSheetsEv@Base 4:4.3.4
 _ZNK3DOM13DocumentStyle21selectedStylesheetSetEv@Base 4:4.3.4
 _ZNK3DOM13DocumentStyle22preferredStylesheetSetEv@Base 4:4.3.4
 _ZNK3DOM13HTMLBRElement5clearEv@Base 4:4.3.4
 _ZNK3DOM13HTMLHRElement4sizeEv@Base 4:4.3.4
 _ZNK3DOM13HTMLHRElement5alignEv@Base 4:4.3.4
 _ZNK3DOM13HTMLHRElement5widthEv@Base 4:4.3.4
 _ZNK3DOM13HTMLHRElement7noShadeEv@Base 4:4.3.4
 _ZNK3DOM13HTMLLIElement4typeEv@Base 4:4.3.4
 _ZNK3DOM13HTMLLIElement5valueEv@Base 4:4.3.4
 _ZNK3DOM13KeyboardEvent11keyLocationEv@Base 4:4.3.4
 _ZNK3DOM13KeyboardEvent13keyIdentifierEv@Base 4:4.3.4
 _ZNK3DOM13KeyboardEvent16getModifierStateENS_9DOMStringE@Base 4:4.3.4
 _ZNK3DOM13KeyboardEvent6altKeyEv@Base 4:4.3.4
 _ZNK3DOM13KeyboardEvent7ctrlKeyEv@Base 4:4.3.4
 _ZNK3DOM13KeyboardEvent7metaKeyEv@Base 4:4.3.4
 _ZNK3DOM13KeyboardEvent8shiftKeyEv@Base 4:4.3.4
 _ZNK3DOM13MutationEvent10attrChangeEv@Base 4:4.3.4
 _ZNK3DOM13MutationEvent11relatedNodeEv@Base 4:4.3.4
 _ZNK3DOM13MutationEvent8attrNameEv@Base 4:4.3.4
 _ZNK3DOM13MutationEvent8newValueEv@Base 4:4.3.4
 _ZNK3DOM13MutationEvent9prevValueEv@Base 4:4.3.4
 _ZNK3DOM14CSSCharsetRule8encodingEv@Base 4:4.3.4
 _ZNK3DOM14EventException12codeAsStringEv@Base 4:4.4.95
 _ZNK3DOM14HTMLCollection13nextNamedItemERKNS_9DOMStringE@Base 4:4.3.4
 _ZNK3DOM14HTMLCollection4baseEv@Base 4:4.3.4
 _ZNK3DOM14HTMLCollection4itemEm@Base 4:4.3.4
 _ZNK3DOM14HTMLCollection6handleEv@Base 4:4.3.4
 _ZNK3DOM14HTMLCollection6isNullEv@Base 4:4.3.4
 _ZNK3DOM14HTMLCollection6lengthEv@Base 4:4.3.4
 _ZNK3DOM14HTMLCollection8nextItemEv@Base 4:4.3.4
 _ZNK3DOM14HTMLCollection9firstItemEv@Base 4:4.3.4
 _ZNK3DOM14HTMLCollection9namedItemERKNS_9DOMStringE@Base 4:4.3.4
 _ZNK3DOM14HTMLDivElement5alignEv@Base 4:4.3.4
 _ZNK3DOM14HTMLMapElement4nameEv@Base 4:4.3.4
 _ZNK3DOM14HTMLMapElement5areasEv@Base 4:4.3.4
 _ZNK3DOM14HTMLModElement4citeEv@Base 4:4.3.4
 _ZNK3DOM14HTMLModElement8dateTimeEv@Base 4:4.3.4
 _ZNK3DOM14HTMLPreElement5widthEv@Base 4:4.3.4
 _ZNK3DOM14RangeException12codeAsStringEv@Base 4:4.4.95
 _ZNK3DOM14StyleSheetList6handleEv@Base 4:4.3.4
 _ZNK3DOM14StyleSheetList6isNullEv@Base 4:4.3.4
 _ZNK3DOM14StyleSheetList6lengthEv@Base 4:4.3.4
 _ZNK3DOM14XPathException12codeAsStringEv@Base 4:4.4.95
 _ZNK3DOM15CSSFontFaceRule5styleEv@Base 4:4.3.4
 _ZNK3DOM15HTMLAreaElement3altEv@Base 4:4.3.4
 _ZNK3DOM15HTMLAreaElement4hrefEv@Base 4:4.3.4
 _ZNK3DOM15HTMLAreaElement5shapeEv@Base 4:4.3.4
 _ZNK3DOM15HTMLAreaElement6coordsEv@Base 4:4.3.4
 _ZNK3DOM15HTMLAreaElement6noHrefEv@Base 4:4.3.4
 _ZNK3DOM15HTMLAreaElement6targetEv@Base 4:4.3.4
 _ZNK3DOM15HTMLAreaElement8tabIndexEv@Base 4:4.3.4
 _ZNK3DOM15HTMLAreaElement9accessKeyEv@Base 4:4.3.4
 _ZNK3DOM15HTMLBaseElement4hrefEv@Base 4:4.3.4
 _ZNK3DOM15HTMLBaseElement6targetEv@Base 4:4.3.4
 _ZNK3DOM15HTMLBodyElement10backgroundEv@Base 4:4.3.4
 _ZNK3DOM15HTMLBodyElement4linkEv@Base 4:4.3.4
 _ZNK3DOM15HTMLBodyElement4textEv@Base 4:4.3.4
 _ZNK3DOM15HTMLBodyElement5aLinkEv@Base 4:4.3.4
 _ZNK3DOM15HTMLBodyElement5vLinkEv@Base 4:4.3.4
 _ZNK3DOM15HTMLBodyElement7bgColorEv@Base 4:4.3.4
 _ZNK3DOM15HTMLFontElement4faceEv@Base 4:4.3.4
 _ZNK3DOM15HTMLFontElement4sizeEv@Base 4:4.3.4
 _ZNK3DOM15HTMLFontElement5colorEv@Base 4:4.3.4
 _ZNK3DOM15HTMLFormElement13acceptCharsetEv@Base 4:4.3.4
 _ZNK3DOM15HTMLFormElement4nameEv@Base 4:4.3.4
 _ZNK3DOM15HTMLFormElement6actionEv@Base 4:4.3.4
 _ZNK3DOM15HTMLFormElement6lengthEv@Base 4:4.3.4
 _ZNK3DOM15HTMLFormElement6methodEv@Base 4:4.3.4
 _ZNK3DOM15HTMLFormElement6targetEv@Base 4:4.3.4
 _ZNK3DOM15HTMLFormElement7enctypeEv@Base 4:4.3.4
 _ZNK3DOM15HTMLFormElement8elementsEv@Base 4:4.3.4
 _ZNK3DOM15HTMLHeadElement7profileEv@Base 4:4.3.4
 _ZNK3DOM15HTMLHtmlElement7versionEv@Base 4:4.3.4
 _ZNK3DOM15HTMLLinkElement3relEv@Base 4:4.3.4
 _ZNK3DOM15HTMLLinkElement3revEv@Base 4:4.3.4
 _ZNK3DOM15HTMLLinkElement4hrefEv@Base 4:4.3.4
 _ZNK3DOM15HTMLLinkElement4typeEv@Base 4:4.3.4
 _ZNK3DOM15HTMLLinkElement5mediaEv@Base 4:4.3.4
 _ZNK3DOM15HTMLLinkElement5sheetEv@Base 4:4.3.4
 _ZNK3DOM15HTMLLinkElement6targetEv@Base 4:4.3.4
 _ZNK3DOM15HTMLLinkElement7charsetEv@Base 4:4.3.4
 _ZNK3DOM15HTMLLinkElement8disabledEv@Base 4:4.3.4
 _ZNK3DOM15HTMLLinkElement8hreflangEv@Base 4:4.3.4
 _ZNK3DOM15HTMLMenuElement7compactEv@Base 4:4.3.4
 _ZNK3DOM15HTMLMetaElement4nameEv@Base 4:4.3.4
 _ZNK3DOM15HTMLMetaElement6schemeEv@Base 4:4.3.4
 _ZNK3DOM15HTMLMetaElement7contentEv@Base 4:4.3.4
 _ZNK3DOM15HTMLMetaElement9httpEquivEv@Base 4:4.3.4
 _ZNK3DOM16CSSNamespaceRule12namespaceURIEv@Base 4:4.5.85
 _ZNK3DOM16CSSNamespaceRule6prefixEv@Base 4:4.5.85
 _ZNK3DOM16DocumentFragment13querySelectorERKNS_9DOMStringE@Base 4:4.4.95
 _ZNK3DOM16DocumentFragment16querySelectorAllERKNS_9DOMStringE@Base 4:4.4.95
 _ZNK3DOM16HTMLDListElement7compactEv@Base 4:4.3.4
 _ZNK3DOM16HTMLFrameElement11frameBorderEv@Base 4:4.3.4
 _ZNK3DOM16HTMLFrameElement11marginWidthEv@Base 4:4.3.4
 _ZNK3DOM16HTMLFrameElement12marginHeightEv@Base 4:4.3.4
 _ZNK3DOM16HTMLFrameElement15contentDocumentEv@Base 4:4.3.4
 _ZNK3DOM16HTMLFrameElement3srcEv@Base 4:4.3.4
 _ZNK3DOM16HTMLFrameElement4nameEv@Base 4:4.3.4
 _ZNK3DOM16HTMLFrameElement8longDescEv@Base 4:4.3.4
 _ZNK3DOM16HTMLFrameElement8noResizeEv@Base 4:4.3.4
 _ZNK3DOM16HTMLFrameElement9scrollingEv@Base 4:4.3.4
 _ZNK3DOM16HTMLImageElement1xEv@Base 4:4.3.4
 _ZNK3DOM16HTMLImageElement1yEv@Base 4:4.3.4
 _ZNK3DOM16HTMLImageElement3altEv@Base 4:4.3.4
 _ZNK3DOM16HTMLImageElement3srcEv@Base 4:4.3.4
 _ZNK3DOM16HTMLImageElement4nameEv@Base 4:4.3.4
 _ZNK3DOM16HTMLImageElement5alignEv@Base 4:4.3.4
 _ZNK3DOM16HTMLImageElement5isMapEv@Base 4:4.3.4
 _ZNK3DOM16HTMLImageElement5widthEv@Base 4:4.3.4
 _ZNK3DOM16HTMLImageElement6borderEv@Base 4:4.3.4
 _ZNK3DOM16HTMLImageElement6heightEv@Base 4:4.3.4
 _ZNK3DOM16HTMLImageElement6hspaceEv@Base 4:4.3.4
 _ZNK3DOM16HTMLImageElement6useMapEv@Base 4:4.3.4
 _ZNK3DOM16HTMLImageElement6vspaceEv@Base 4:4.3.4
 _ZNK3DOM16HTMLImageElement8longDescEv@Base 4:4.3.4
 _ZNK3DOM16HTMLImageElement9getBorderEv@Base 4:4.3.4
 _ZNK3DOM16HTMLInputElement12defaultValueEv@Base 4:4.3.4
 _ZNK3DOM16HTMLInputElement13indeterminateEv@Base 4:4.3.4
 _ZNK3DOM16HTMLInputElement14defaultCheckedEv@Base 4:4.3.4
 _ZNK3DOM16HTMLInputElement3altEv@Base 4:4.3.4
 _ZNK3DOM16HTMLInputElement3srcEv@Base 4:4.3.4
 _ZNK3DOM16HTMLInputElement4formEv@Base 4:4.3.4
 _ZNK3DOM16HTMLInputElement4nameEv@Base 4:4.3.4
 _ZNK3DOM16HTMLInputElement4sizeEv@Base 4:4.3.4
 _ZNK3DOM16HTMLInputElement4typeEv@Base 4:4.3.4
 _ZNK3DOM16HTMLInputElement5alignEv@Base 4:4.3.4
 _ZNK3DOM16HTMLInputElement5valueEv@Base 4:4.3.4
 _ZNK3DOM16HTMLInputElement6acceptEv@Base 4:4.3.4
 _ZNK3DOM16HTMLInputElement6useMapEv@Base 4:4.3.4
 _ZNK3DOM16HTMLInputElement7checkedEv@Base 4:4.3.4
 _ZNK3DOM16HTMLInputElement7getSizeEv@Base 4:4.3.4
 _ZNK3DOM16HTMLInputElement8disabledEv@Base 4:4.3.4
 _ZNK3DOM16HTMLInputElement8readOnlyEv@Base 4:4.3.4
 _ZNK3DOM16HTMLInputElement8tabIndexEv@Base 4:4.3.4
 _ZNK3DOM16HTMLInputElement9accessKeyEv@Base 4:4.3.4
 _ZNK3DOM16HTMLInputElement9maxLengthEv@Base 4:4.3.4
 _ZNK3DOM16HTMLLabelElement7htmlForEv@Base 4:4.3.4
 _ZNK3DOM16HTMLLabelElement9accessKeyEv@Base 4:4.3.4
 _ZNK3DOM16HTMLLayerElement10visibilityEv@Base 4:4.3.4
 _ZNK3DOM16HTMLLayerElement3topEv@Base 4:4.3.4
 _ZNK3DOM16HTMLLayerElement4leftEv@Base 4:4.3.4
 _ZNK3DOM16HTMLLayerElement6layersEv@Base 4:4.3.4
 _ZNK3DOM16HTMLLayerElement7bgColorEv@Base 4:4.3.4
 _ZNK3DOM16HTMLOListElement4typeEv@Base 4:4.3.4
 _ZNK3DOM16HTMLOListElement5startEv@Base 4:4.3.4
 _ZNK3DOM16HTMLOListElement7compactEv@Base 4:4.3.4
 _ZNK3DOM16HTMLParamElement4nameEv@Base 4:4.3.4
 _ZNK3DOM16HTMLParamElement4typeEv@Base 4:4.3.4
 _ZNK3DOM16HTMLParamElement5valueEv@Base 4:4.3.4
 _ZNK3DOM16HTMLParamElement9valueTypeEv@Base 4:4.3.4
 _ZNK3DOM16HTMLQuoteElement4citeEv@Base 4:4.3.4
 _ZNK3DOM16HTMLStyleElement4typeEv@Base 4:4.3.4
 _ZNK3DOM16HTMLStyleElement5mediaEv@Base 4:4.3.4
 _ZNK3DOM16HTMLStyleElement5sheetEv@Base 4:4.3.4
 _ZNK3DOM16HTMLStyleElement8disabledEv@Base 4:4.3.4
 _ZNK3DOM16HTMLTableElement11cellPaddingEv@Base 4:4.3.4
 _ZNK3DOM16HTMLTableElement11cellSpacingEv@Base 4:4.3.4
 _ZNK3DOM16HTMLTableElement4rowsEv@Base 4:4.3.4
 _ZNK3DOM16HTMLTableElement5alignEv@Base 4:4.3.4
 _ZNK3DOM16HTMLTableElement5frameEv@Base 4:4.3.4
 _ZNK3DOM16HTMLTableElement5rulesEv@Base 4:4.3.4
 _ZNK3DOM16HTMLTableElement5tFootEv@Base 4:4.3.4
 _ZNK3DOM16HTMLTableElement5tHeadEv@Base 4:4.3.4
 _ZNK3DOM16HTMLTableElement5widthEv@Base 4:4.3.4
 _ZNK3DOM16HTMLTableElement6borderEv@Base 4:4.3.4
 _ZNK3DOM16HTMLTableElement7bgColorEv@Base 4:4.3.4
 _ZNK3DOM16HTMLTableElement7captionEv@Base 4:4.3.4
 _ZNK3DOM16HTMLTableElement7summaryEv@Base 4:4.3.4
 _ZNK3DOM16HTMLTableElement7tBodiesEv@Base 4:4.3.4
 _ZNK3DOM16HTMLTitleElement4textEv@Base 4:4.3.4
 _ZNK3DOM16HTMLUListElement4typeEv@Base 4:4.3.4
 _ZNK3DOM16HTMLUListElement7compactEv@Base 4:4.3.4
 _ZNK3DOM17CSSPrimitiveValue12getRectValueEv@Base 4:4.3.4
 _ZNK3DOM17CSSPrimitiveValue13getFloatValueEt@Base 4:4.3.4
 _ZNK3DOM17CSSPrimitiveValue13primitiveTypeEv@Base 4:4.3.4
 _ZNK3DOM17CSSPrimitiveValue14getStringValueEv@Base 4:4.3.4
 _ZNK3DOM17CSSPrimitiveValue15getCounterValueEv@Base 4:4.3.4
 _ZNK3DOM17CSSPrimitiveValue16getRGBColorValueEv@Base 4:4.3.4
 _ZNK3DOM17DOMImplementation12getInterfaceERKNS_9DOMStringE@Base 4:4.3.4
 _ZNK3DOM17DOMImplementation6handleEv@Base 4:4.3.4
 _ZNK3DOM17DOMImplementation6isNullEv@Base 4:4.3.4
 _ZNK3DOM17HTMLAnchorElement3relEv@Base 4:4.3.4
 _ZNK3DOM17HTMLAnchorElement3revEv@Base 4:4.3.4
 _ZNK3DOM17HTMLAnchorElement4hrefEv@Base 4:4.3.4
 _ZNK3DOM17HTMLAnchorElement4nameEv@Base 4:4.3.4
 _ZNK3DOM17HTMLAnchorElement4typeEv@Base 4:4.3.4
 _ZNK3DOM17HTMLAnchorElement5shapeEv@Base 4:4.3.4
 _ZNK3DOM17HTMLAnchorElement6coordsEv@Base 4:4.3.4
 _ZNK3DOM17HTMLAnchorElement6targetEv@Base 4:4.3.4
 _ZNK3DOM17HTMLAnchorElement7charsetEv@Base 4:4.3.4
 _ZNK3DOM17HTMLAnchorElement8hreflangEv@Base 4:4.3.4
 _ZNK3DOM17HTMLAnchorElement8tabIndexEv@Base 4:4.3.4
 _ZNK3DOM17HTMLAnchorElement9accessKeyEv@Base 4:4.3.4
 _ZNK3DOM17HTMLAppletElement3altEv@Base 4:4.3.4
 _ZNK3DOM17HTMLAppletElement4codeEv@Base 4:4.3.4
 _ZNK3DOM17HTMLAppletElement4nameEv@Base 4:4.3.4
 _ZNK3DOM17HTMLAppletElement5alignEv@Base 4:4.3.4
 _ZNK3DOM17HTMLAppletElement5widthEv@Base 4:4.3.4
 _ZNK3DOM17HTMLAppletElement6heightEv@Base 4:4.3.4
 _ZNK3DOM17HTMLAppletElement6hspaceEv@Base 4:4.3.4
 _ZNK3DOM17HTMLAppletElement6objectEv@Base 4:4.3.4
 _ZNK3DOM17HTMLAppletElement6vspaceEv@Base 4:4.3.4
 _ZNK3DOM17HTMLAppletElement7archiveEv@Base 4:4.3.4
 _ZNK3DOM17HTMLAppletElement8codeBaseEv@Base 4:4.3.4
 _ZNK3DOM17HTMLAppletElement9getHspaceEv@Base 4:4.3.4
 _ZNK3DOM17HTMLAppletElement9getVspaceEv@Base 4:4.3.4
 _ZNK3DOM17HTMLButtonElement4formEv@Base 4:4.3.4
 _ZNK3DOM17HTMLButtonElement4nameEv@Base 4:4.3.4
 _ZNK3DOM17HTMLButtonElement4typeEv@Base 4:4.3.4
 _ZNK3DOM17HTMLButtonElement5valueEv@Base 4:4.3.4
 _ZNK3DOM17HTMLButtonElement8disabledEv@Base 4:4.3.4
 _ZNK3DOM17HTMLButtonElement8tabIndexEv@Base 4:4.3.4
 _ZNK3DOM17HTMLButtonElement9accessKeyEv@Base 4:4.3.4
 _ZNK3DOM17HTMLIFrameElement11frameBorderEv@Base 4:4.3.4
 _ZNK3DOM17HTMLIFrameElement11marginWidthEv@Base 4:4.3.4
 _ZNK3DOM17HTMLIFrameElement12marginHeightEv@Base 4:4.3.4
 _ZNK3DOM17HTMLIFrameElement15contentDocumentEv@Base 4:4.3.4
 _ZNK3DOM17HTMLIFrameElement3srcEv@Base 4:4.3.4
 _ZNK3DOM17HTMLIFrameElement4nameEv@Base 4:4.3.4
 _ZNK3DOM17HTMLIFrameElement5alignEv@Base 4:4.3.4
 _ZNK3DOM17HTMLIFrameElement5widthEv@Base 4:4.3.4
 _ZNK3DOM17HTMLIFrameElement6heightEv@Base 4:4.3.4
 _ZNK3DOM17HTMLIFrameElement8longDescEv@Base 4:4.3.4
 _ZNK3DOM17HTMLIFrameElement9scrollingEv@Base 4:4.3.4
 _ZNK3DOM17HTMLLegendElement4formEv@Base 4:4.3.4
 _ZNK3DOM17HTMLLegendElement5alignEv@Base 4:4.3.4
 _ZNK3DOM17HTMLLegendElement9accessKeyEv@Base 4:4.3.4
 _ZNK3DOM17HTMLObjectElement15contentDocumentEv@Base 4:4.3.4
 _ZNK3DOM17HTMLObjectElement4codeEv@Base 4:4.3.4
 _ZNK3DOM17HTMLObjectElement4dataEv@Base 4:4.3.4
 _ZNK3DOM17HTMLObjectElement4formEv@Base 4:4.3.4
 _ZNK3DOM17HTMLObjectElement4nameEv@Base 4:4.3.4
 _ZNK3DOM17HTMLObjectElement4typeEv@Base 4:4.3.4
 _ZNK3DOM17HTMLObjectElement5alignEv@Base 4:4.3.4
 _ZNK3DOM17HTMLObjectElement5widthEv@Base 4:4.3.4
 _ZNK3DOM17HTMLObjectElement6borderEv@Base 4:4.3.4
 _ZNK3DOM17HTMLObjectElement6heightEv@Base 4:4.3.4
 _ZNK3DOM17HTMLObjectElement6hspaceEv@Base 4:4.3.4
 _ZNK3DOM17HTMLObjectElement6useMapEv@Base 4:4.3.4
 _ZNK3DOM17HTMLObjectElement6vspaceEv@Base 4:4.3.4
 _ZNK3DOM17HTMLObjectElement7archiveEv@Base 4:4.3.4
 _ZNK3DOM17HTMLObjectElement7declareEv@Base 4:4.3.4
 _ZNK3DOM17HTMLObjectElement7standbyEv@Base 4:4.3.4
 _ZNK3DOM17HTMLObjectElement8codeBaseEv@Base 4:4.3.4
 _ZNK3DOM17HTMLObjectElement8codeTypeEv@Base 4:4.3.4
 _ZNK3DOM17HTMLObjectElement8tabIndexEv@Base 4:4.3.4
 _ZNK3DOM17HTMLObjectElement9getHspaceEv@Base 4:4.3.4
 _ZNK3DOM17HTMLObjectElement9getVspaceEv@Base 4:4.3.4
 _ZNK3DOM17HTMLOptionElement15defaultSelectedEv@Base 4:4.3.4
 _ZNK3DOM17HTMLOptionElement4formEv@Base 4:4.3.4
 _ZNK3DOM17HTMLOptionElement4textEv@Base 4:4.3.4
 _ZNK3DOM17HTMLOptionElement5indexEv@Base 4:4.3.4
 _ZNK3DOM17HTMLOptionElement5labelEv@Base 4:4.3.4
 _ZNK3DOM17HTMLOptionElement5valueEv@Base 4:4.3.4
 _ZNK3DOM17HTMLOptionElement8disabledEv@Base 4:4.3.4
 _ZNK3DOM17HTMLOptionElement8selectedEv@Base 4:4.3.4
 _ZNK3DOM17HTMLScriptElement3srcEv@Base 4:4.3.4
 _ZNK3DOM17HTMLScriptElement4textEv@Base 4:4.3.4
 _ZNK3DOM17HTMLScriptElement4typeEv@Base 4:4.3.4
 _ZNK3DOM17HTMLScriptElement5deferEv@Base 4:4.3.4
 _ZNK3DOM17HTMLScriptElement5eventEv@Base 4:4.3.4
 _ZNK3DOM17HTMLScriptElement7charsetEv@Base 4:4.3.4
 _ZNK3DOM17HTMLScriptElement7htmlForEv@Base 4:4.3.4
 _ZNK3DOM17HTMLSelectElement13selectedIndexEv@Base 4:4.3.4
 _ZNK3DOM17HTMLSelectElement4formEv@Base 4:4.3.4
 _ZNK3DOM17HTMLSelectElement4nameEv@Base 4:4.3.4
 _ZNK3DOM17HTMLSelectElement4sizeEv@Base 4:4.3.4
 _ZNK3DOM17HTMLSelectElement4typeEv@Base 4:4.3.4
 _ZNK3DOM17HTMLSelectElement5valueEv@Base 4:4.3.4
 _ZNK3DOM17HTMLSelectElement6lengthEv@Base 4:4.3.4
 _ZNK3DOM17HTMLSelectElement7optionsEv@Base 4:4.3.4
 _ZNK3DOM17HTMLSelectElement8disabledEv@Base 4:4.3.4
 _ZNK3DOM17HTMLSelectElement8multipleEv@Base 4:4.3.4
 _ZNK3DOM17HTMLSelectElement8tabIndexEv@Base 4:4.3.4
 _ZNK3DOM18HTMLHeadingElement5alignEv@Base 4:4.3.4
 _ZNK3DOM18HTMLIsIndexElement4formEv@Base 4:4.3.4
 _ZNK3DOM18HTMLIsIndexElement6promptEv@Base 4:4.3.4
 _ZNK3DOM19CSSStyleDeclaration10parentRuleEv@Base 4:4.3.4
 _ZNK3DOM19CSSStyleDeclaration16getPropertyValueERKNS_9DOMStringE@Base 4:4.3.4
 _ZNK3DOM19CSSStyleDeclaration19getPropertyCSSValueERKNS_9DOMStringE@Base 4:4.3.4
 _ZNK3DOM19CSSStyleDeclaration19getPropertyPriorityERKNS_9DOMStringE@Base 4:4.3.4
 _ZNK3DOM19CSSStyleDeclaration4itemEm@Base 4:4.3.4
 _ZNK3DOM19CSSStyleDeclaration6handleEv@Base 4:4.3.4
 _ZNK3DOM19CSSStyleDeclaration6isNullEv@Base 4:4.3.4
 _ZNK3DOM19CSSStyleDeclaration6lengthEv@Base 4:4.3.4
 _ZNK3DOM19CSSStyleDeclaration7cssTextEv@Base 4:4.3.4
 _ZNK3DOM19HTMLBaseFontElement4faceEv@Base 4:4.3.4
 _ZNK3DOM19HTMLBaseFontElement4sizeEv@Base 4:4.3.4
 _ZNK3DOM19HTMLBaseFontElement5colorEv@Base 4:4.3.4
 _ZNK3DOM19HTMLBaseFontElement7getSizeEv@Base 4:4.3.4
 _ZNK3DOM19HTMLFieldSetElement4formEv@Base 4:4.3.4
 _ZNK3DOM19HTMLFrameSetElement4colsEv@Base 4:4.3.4
 _ZNK3DOM19HTMLFrameSetElement4rowsEv@Base 4:4.3.4
 _ZNK3DOM19HTMLOptGroupElement5labelEv@Base 4:4.3.4
 _ZNK3DOM19HTMLOptGroupElement8disabledEv@Base 4:4.3.4
 _ZNK3DOM19HTMLTableColElement2chEv@Base 4:4.3.4
 _ZNK3DOM19HTMLTableColElement4spanEv@Base 4:4.3.4
 _ZNK3DOM19HTMLTableColElement5alignEv@Base 4:4.3.4
 _ZNK3DOM19HTMLTableColElement5chOffEv@Base 4:4.3.4
 _ZNK3DOM19HTMLTableColElement5widthEv@Base 4:4.3.4
 _ZNK3DOM19HTMLTableColElement6vAlignEv@Base 4:4.3.4
 _ZNK3DOM19HTMLTableRowElement15sectionRowIndexEv@Base 4:4.3.4
 _ZNK3DOM19HTMLTableRowElement2chEv@Base 4:4.3.4
 _ZNK3DOM19HTMLTableRowElement5alignEv@Base 4:4.3.4
 _ZNK3DOM19HTMLTableRowElement5cellsEv@Base 4:4.3.4
 _ZNK3DOM19HTMLTableRowElement5chOffEv@Base 4:4.3.4
 _ZNK3DOM19HTMLTableRowElement6vAlignEv@Base 4:4.3.4
 _ZNK3DOM19HTMLTableRowElement7bgColorEv@Base 4:4.3.4
 _ZNK3DOM19HTMLTableRowElement8rowIndexEv@Base 4:4.3.4
 _ZNK3DOM19HTMLTextAreaElement12defaultValueEv@Base 4:4.3.4
 _ZNK3DOM19HTMLTextAreaElement4colsEv@Base 4:4.3.4
 _ZNK3DOM19HTMLTextAreaElement4formEv@Base 4:4.3.4
 _ZNK3DOM19HTMLTextAreaElement4nameEv@Base 4:4.3.4
 _ZNK3DOM19HTMLTextAreaElement4rowsEv@Base 4:4.3.4
 _ZNK3DOM19HTMLTextAreaElement4typeEv@Base 4:4.3.4
 _ZNK3DOM19HTMLTextAreaElement5valueEv@Base 4:4.3.4
 _ZNK3DOM19HTMLTextAreaElement8disabledEv@Base 4:4.3.4
 _ZNK3DOM19HTMLTextAreaElement8readOnlyEv@Base 4:4.3.4
 _ZNK3DOM19HTMLTextAreaElement8tabIndexEv@Base 4:4.3.4
 _ZNK3DOM19HTMLTextAreaElement9accessKeyEv@Base 4:4.3.4
 _ZNK3DOM20HTMLDirectoryElement7compactEv@Base 4:4.3.4
 _ZNK3DOM20HTMLParagraphElement5alignEv@Base 4:4.3.4
 _ZNK3DOM20HTMLTableCellElement2chEv@Base 4:4.3.4
 _ZNK3DOM20HTMLTableCellElement4abbrEv@Base 4:4.3.4
 _ZNK3DOM20HTMLTableCellElement4axisEv@Base 4:4.3.4
 _ZNK3DOM20HTMLTableCellElement5alignEv@Base 4:4.3.4
 _ZNK3DOM20HTMLTableCellElement5chOffEv@Base 4:4.3.4
 _ZNK3DOM20HTMLTableCellElement5scopeEv@Base 4:4.3.4
 _ZNK3DOM20HTMLTableCellElement5widthEv@Base 4:4.3.4
 _ZNK3DOM20HTMLTableCellElement6heightEv@Base 4:4.3.4
 _ZNK3DOM20HTMLTableCellElement6noWrapEv@Base 4:4.3.4
 _ZNK3DOM20HTMLTableCellElement6vAlignEv@Base 4:4.3.4
 _ZNK3DOM20HTMLTableCellElement7bgColorEv@Base 4:4.3.4
 _ZNK3DOM20HTMLTableCellElement7colSpanEv@Base 4:4.3.4
 _ZNK3DOM20HTMLTableCellElement7headersEv@Base 4:4.3.4
 _ZNK3DOM20HTMLTableCellElement7rowSpanEv@Base 4:4.3.4
 _ZNK3DOM20HTMLTableCellElement9cellIndexEv@Base 4:4.3.4
 _ZNK3DOM21HTMLBlockquoteElement4citeEv@Base 4:4.3.4
 _ZNK3DOM21ProcessingInstruction4dataEv@Base 4:4.3.4
 _ZNK3DOM21ProcessingInstruction5sheetEv@Base 4:4.3.4
 _ZNK3DOM21ProcessingInstruction6targetEv@Base 4:4.3.4
 _ZNK3DOM23HTMLTableCaptionElement5alignEv@Base 4:4.3.4
 _ZNK3DOM23HTMLTableSectionElement2chEv@Base 4:4.3.4
 _ZNK3DOM23HTMLTableSectionElement4rowsEv@Base 4:4.3.4
 _ZNK3DOM23HTMLTableSectionElement5alignEv@Base 4:4.3.4
 _ZNK3DOM23HTMLTableSectionElement5chOffEv@Base 4:4.3.4
 _ZNK3DOM23HTMLTableSectionElement6vAlignEv@Base 4:4.3.4
 _ZNK3DOM4Attr12ownerElementEv@Base 4:4.3.4
 _ZNK3DOM4Attr4nameEv@Base 4:4.3.4
 _ZNK3DOM4Attr5valueEv@Base 4:4.3.4
 _ZNK3DOM4Attr9specifiedEv@Base 4:4.3.4
 _ZNK3DOM4Node10attributesEv@Base 4:4.3.4
 _ZNK3DOM4Node10childNodesEv@Base 4:4.3.4
 _ZNK3DOM4Node10firstChildEv@Base 4:4.3.4
 _ZNK3DOM4Node10parentNodeEv@Base 4:4.3.4
 _ZNK3DOM4Node11isSupportedERKNS_9DOMStringES3_@Base 4:4.3.4
 _ZNK3DOM4Node11nextSiblingEv@Base 4:4.3.4
 _ZNK3DOM4Node11textContentEv@Base 4:4.3.4
 _ZNK3DOM4Node12namespaceURIEv@Base 4:4.3.4
 _ZNK3DOM4Node13ownerDocumentEv@Base 4:4.3.4
 _ZNK3DOM4Node15previousSiblingEv@Base 4:4.3.4
 _ZNK3DOM4Node5indexEv@Base 4:4.3.4
 _ZNK3DOM4Node6prefixEv@Base 4:4.3.4
 _ZNK3DOM4Node8nodeNameEv@Base 4:4.3.4
 _ZNK3DOM4Node8nodeTypeEv@Base 4:4.3.4
 _ZNK3DOM4Node9elementIdEv@Base 4:4.3.4
 _ZNK3DOM4Node9lastChildEv@Base 4:4.3.4
 _ZNK3DOM4Node9localNameEv@Base 4:4.3.4
 _ZNK3DOM4Node9nodeValueEv@Base 4:4.3.4
 _ZNK3DOM4NodeeqERKS0_@Base 4:4.3.4
 _ZNK3DOM4NodeneERKS0_@Base 4:4.3.4
 _ZNK3DOM4Rect3topEv@Base 4:4.3.4
 _ZNK3DOM4Rect4leftEv@Base 4:4.3.4
 _ZNK3DOM4Rect5rightEv@Base 4:4.3.4
 _ZNK3DOM4Rect6bottomEv@Base 4:4.3.4
 _ZNK3DOM4Rect6handleEv@Base 4:4.3.4
 _ZNK3DOM4Rect6isNullEv@Base 4:4.3.4
 _ZNK3DOM5Event10cancelableEv@Base 4:4.3.4
 _ZNK3DOM5Event10eventPhaseEv@Base 4:4.3.4
 _ZNK3DOM5Event13currentTargetEv@Base 4:4.3.4
 _ZNK3DOM5Event4typeEv@Base 4:4.3.4
 _ZNK3DOM5Event6handleEv@Base 4:4.3.4
 _ZNK3DOM5Event6isNullEv@Base 4:4.3.4
 _ZNK3DOM5Event6targetEv@Base 4:4.3.4
 _ZNK3DOM5Event7bubblesEv@Base 4:4.3.4
 _ZNK3DOM5Event9timeStampEv@Base 4:4.3.4
 _ZNK3DOM5Range10isDetachedEv@Base 4:4.3.4
 _ZNK3DOM5Range11startOffsetEv@Base 4:4.3.4
 _ZNK3DOM5Range12endContainerEv@Base 4:4.3.4
 _ZNK3DOM5Range14startContainerEv@Base 4:4.3.4
 _ZNK3DOM5Range14throwExceptionEi@Base 4:4.3.4
 _ZNK3DOM5Range6handleEv@Base 4:4.3.4
 _ZNK3DOM5Range6isNullEv@Base 4:4.3.4
 _ZNK3DOM5Range9collapsedEv@Base 4:4.3.4
 _ZNK3DOM5Range9endOffsetEv@Base 4:4.3.4
 _ZNK3DOM6Editor10metaObjectEv@Base 4:4.3.4
 _ZNK3DOM6Editor11typingStyleEv@Base 4:4.3.4
 _ZNK3DOM6Editor15lastEditCommandEv@Base 4:4.3.4
 _ZNK3DOM6Editor17selectionHasStyleEPNS_23CSSStyleDeclarationImplE@Base 4:4.3.4
 _ZNK3DOM6Editor22selectionComputedStyleERPNS_8NodeImplE@Base 4:4.3.4
 _ZNK3DOM6Editor22selectionStartHasStyleEPNS_23CSSStyleDeclarationImplE@Base 4:4.3.4
 _ZNK3DOM6Editor32selectionStartStylePropertyValueEi@Base 4:4.3.4
 _ZNK3DOM6Editor7canRedoEv@Base 4:4.3.4
 _ZNK3DOM6Editor7canUndoEv@Base 4:4.3.4
 _ZNK3DOM6Editor8canPasteEv@Base 4:4.3.4
 _ZNK3DOM6Entity12notationNameEv@Base 4:4.3.4
 _ZNK3DOM6Entity8publicIdEv@Base 4:4.3.4
 _ZNK3DOM6Entity8systemIdEv@Base 4:4.3.4
 _ZNK3DOM7CSSRule10parentRuleEv@Base 4:4.3.4
 _ZNK3DOM7CSSRule16parentStyleSheetEv@Base 4:4.3.4
 _ZNK3DOM7CSSRule4typeEv@Base 4:4.3.4
 _ZNK3DOM7CSSRule6handleEv@Base 4:4.3.4
 _ZNK3DOM7CSSRule6isNullEv@Base 4:4.3.4
 _ZNK3DOM7CSSRule7cssTextEv@Base 4:4.3.4
 _ZNK3DOM7Counter10identifierEv@Base 4:4.3.4
 _ZNK3DOM7Counter6handleEv@Base 4:4.3.4
 _ZNK3DOM7Counter6isNullEv@Base 4:4.3.4
 _ZNK3DOM7Counter9listStyleEv@Base 4:4.3.4
 _ZNK3DOM7Counter9separatorEv@Base 4:4.3.4
 _ZNK3DOM7Element13isHTMLElementEv@Base 4:4.3.4
 _ZNK3DOM7Element13querySelectorERKNS_9DOMStringE@Base 4:4.4.95
 _ZNK3DOM7Element16lastElementChildEv@Base 4:4.3.4
 _ZNK3DOM7Element16querySelectorAllERKNS_9DOMStringE@Base 4:4.4.95
 _ZNK3DOM7Element17childElementCountEv@Base 4:4.3.4
 _ZNK3DOM7Element17firstElementChildEv@Base 4:4.3.4
 _ZNK3DOM7Element18nextElementSiblingEv@Base 4:4.3.4
 _ZNK3DOM7Element22previousElementSiblingEv@Base 4:4.3.4
 _ZNK3DOM7Element4formEv@Base 4:4.3.4
 _ZNK3DOM7Element7tagNameEv@Base 4:4.3.4
 _ZNK3DOM7UIEvent4viewEv@Base 4:4.3.4
 _ZNK3DOM7UIEvent5pageXEv@Base 4:4.3.4
 _ZNK3DOM7UIEvent5pageYEv@Base 4:4.3.4
 _ZNK3DOM7UIEvent5whichEv@Base 4:4.3.4
 _ZNK3DOM7UIEvent6detailEv@Base 4:4.3.4
 _ZNK3DOM7UIEvent6layerXEv@Base 4:4.3.4
 _ZNK3DOM7UIEvent6layerYEv@Base 4:4.3.4
 _ZNK3DOM7UIEvent7keyCodeEv@Base 4:4.3.4
 _ZNK3DOM7UIEvent8charCodeEv@Base 4:4.3.4
 _ZNK3DOM8CSSValue12cssValueTypeEv@Base 4:4.3.4
 _ZNK3DOM8CSSValue14isCSSValueListEv@Base 4:4.3.4
 _ZNK3DOM8CSSValue19isCSSPrimitiveValueEv@Base 4:4.3.4
 _ZNK3DOM8CSSValue6handleEv@Base 4:4.3.4
 _ZNK3DOM8CSSValue6isNullEv@Base 4:4.3.4
 _ZNK3DOM8CSSValue7cssTextEv@Base 4:4.3.4
 _ZNK3DOM8Document10designModeEv@Base 4:4.3.4
 _ZNK3DOM8Document11defaultViewEv@Base 4:4.3.4
 _ZNK3DOM8Document11styleSheetsEv@Base 4:4.3.4
 _ZNK3DOM8Document13querySelectorERKNS_9DOMStringE@Base 4:4.4.95
 _ZNK3DOM8Document14getElementByIdERKNS_9DOMStringE@Base 4:4.3.4
 _ZNK3DOM8Document14implementationEv@Base 4:4.3.4
 _ZNK3DOM8Document14isHTMLDocumentEv@Base 4:4.3.4
 _ZNK3DOM8Document15documentElementEv@Base 4:4.3.4
 _ZNK3DOM8Document16querySelectorAllERKNS_9DOMStringE@Base 4:4.4.95
 _ZNK3DOM8Document4viewEv@Base 4:4.3.4
 _ZNK3DOM8Document5asyncEv@Base 4:4.3.4
 _ZNK3DOM8Document7doctypeEv@Base 4:4.3.4
 _ZNK3DOM8Document8toStringEv@Base 4:4.3.4
 _ZNK3DOM8NodeList4itemEm@Base 4:4.3.4
 _ZNK3DOM8NodeList6lengthEv@Base 4:4.3.4
 _ZNK3DOM8Notation8publicIdEv@Base 4:4.3.4
 _ZNK3DOM8Notation8systemIdEv@Base 4:4.3.4
 _ZNK3DOM8RGBColor3redEv@Base 4:4.3.4
 _ZNK3DOM8RGBColor4blueEv@Base 4:4.3.4
 _ZNK3DOM8RGBColor5greenEv@Base 4:4.3.4
 _ZNK3DOM9DOMString10percentageERi@Base 4:4.3.4
 _ZNK3DOM9DOMString10startsWithERKS0_@Base 4:4.3.4
 _ZNK3DOM9DOMString11reverseFindE5QChari@Base 4:4.3.4
 _ZNK3DOM9DOMString4copyEv@Base 4:4.3.4
 _ZNK3DOM9DOMString4findE5QChari@Base 4:4.3.4
 _ZNK3DOM9DOMString5lowerEv@Base 4:4.3.4
 _ZNK3DOM9DOMString5toIntEPb@Base 4:4.3.4
 _ZNK3DOM9DOMString5toIntEv@Base 4:4.3.4
 _ZNK3DOM9DOMString5upperEv@Base 4:4.3.4
 _ZNK3DOM9DOMString6lengthEv@Base 4:4.3.4
 _ZNK3DOM9DOMString6stringEv@Base 4:4.3.4
 _ZNK3DOM9DOMString7isEmptyEv@Base 4:4.3.4
 _ZNK3DOM9DOMString7toFloatEPb@Base 4:4.3.4
 _ZNK3DOM9DOMString7unicodeEv@Base 4:4.3.4
 _ZNK3DOM9DOMString8endsWithERKS0_@Base 4:4.3.4
 _ZNK3DOM9DOMString9substringEjj@Base 4:4.3.4
 _ZNK3DOM9DOMStringixEj@Base 4:4.3.4
 _ZNK3DOM9LinkStyle6isNullEv@Base 4:4.3.4
 _ZNK3DOM9MediaList4itemEm@Base 4:4.3.4
 _ZNK3DOM9MediaList6handleEv@Base 4:4.3.4
 _ZNK3DOM9MediaList6isNullEv@Base 4:4.3.4
 _ZNK3DOM9MediaList6lengthEv@Base 4:4.3.4
 _ZNK3DOM9MediaList9mediaTextEv@Base 4:4.3.4
 _ZNK3KJS10Identifier7qstringEv@Base 4:4.3.4
 _ZNK3KJS10Identifier9domStringEv@Base 4:4.3.4
 _ZNK3KJS7JSValue4typeEv@Base 4:4.3.4
 _ZNK3KJS7JSValue8toStringEPNS_9ExecStateE@Base 4:4.3.4
 _ZNK3KJS7JSValue9toBooleanEPNS_9ExecStateE@Base 4:4.3.4
 _ZNK3KJS7UString7qstringEv@Base 4:4.3.4
 _ZNK3KJS7UString9domStringEv@Base 4:4.3.4
 _ZNK3KJS8JSObject11toPrimitiveEPNS_9ExecStateENS_6JSTypeE@Base 4:4.3.4
 _ZNK5khtml10ChildFrame10metaObjectEv@Base 4:4.3.4
 _ZNK5khtml10ChildFrame10typeStringEv@Base 4:4.5.85
 _ZNK5khtml10MouseEvent6offsetEv@Base 4:4.3.4
 _ZNK9KHTMLPart10activeNodeEv@Base 4:4.3.4
 _ZNK9KHTMLPart10dndEnabledEv@Base 4:4.3.4
 _ZNK9KHTMLPart10frameNamesEv@Base 4:4.3.4
 _ZNK9KHTMLPart10inProgressEv@Base 4:4.3.4
 _ZNK9KHTMLPart10isEditableEv@Base 4:4.3.4
 _ZNK9KHTMLPart10isModifiedEv@Base 4:4.3.4
 _ZNK9KHTMLPart10metaObjectEv@Base 4:4.3.4
 _ZNK9KHTMLPart10paintCaretEP8QPainterRK5QRect@Base 4:4.3.4
 _ZNK9KHTMLPart10xmlDocImplEv@Base 4:4.3.4
 _ZNK9KHTMLPart10zoomFactorEv@Base 4:4.3.4
 _ZNK9KHTMLPart11dnsPrefetchEv@Base 4:4.3.4
 _ZNK9KHTMLPart11isCaretModeEv@Base 4:4.3.4
 _ZNK9KHTMLPart11javaEnabledEv@Base 4:4.3.4
 _ZNK9KHTMLPart11pTopViewBarEv@Base 4:4.3.4
 _ZNK9KHTMLPart12currentFrameEv@Base 4:4.3.4
 _ZNK9KHTMLPart12hasSelectionEv@Base 4:4.3.4
 _ZNK9KHTMLPart12htmlDocumentEv@Base 4:4.3.4
 _ZNK9KHTMLPart12lastModifiedEv@Base 4:4.3.4
 _ZNK9KHTMLPart12pageReferrerEv@Base 4:4.3.4
 _ZNK9KHTMLPart12selectedTextEv@Base 4:4.3.4
 _ZNK9KHTMLPart13backgroundURLEv@Base 4:4.3.4
 _ZNK9KHTMLPart13editorContextEv@Base 4:4.3.4
 _ZNK9KHTMLPart14autoloadImagesEv@Base 4:4.3.4
 _ZNK9KHTMLPart14documentSourceEv@Base 4:4.3.4
 _ZNK9KHTMLPart14jScriptEnabledEv@Base 4:4.3.4
 _ZNK9KHTMLPart14nodeUnderMouseEv@Base 4:4.3.4
 _ZNK9KHTMLPart14pBottomViewBarEv@Base 4:4.3.4
 _ZNK9KHTMLPart14paintDragCaretEP8QPainterRK5QRect@Base 4:4.3.4
 _ZNK9KHTMLPart14pluginsEnabledEv@Base 4:4.3.4
 _ZNK9KHTMLPart15defaultEncodingEv@Base 4:4.3.4
 _ZNK9KHTMLPart15fontScaleFactorEv@Base 4:4.3.4
 _ZNK9KHTMLPart15jsStatusBarTextEv@Base 4:4.3.4
 _ZNK9KHTMLPart16browserExtensionEv@Base 4:4.3.4
 _ZNK9KHTMLPart16defaultExtensionEv@Base 4:4.3.4
 _ZNK9KHTMLPart16formNotificationEv@Base 4:4.3.4
 _ZNK9KHTMLPart18metaRefreshEnabledEv@Base 4:4.3.4
 _ZNK9KHTMLPart18selectedTextAsHTMLEv@Base 4:4.3.4
 _ZNK9KHTMLPart19onlyLocalReferencesEv@Base 4:4.3.4
 _ZNK9KHTMLPart20browserHostExtensionEv@Base 4:4.3.4
 _ZNK9KHTMLPart20isExtendingSelectionEv@Base 4:4.3.4
 _ZNK9KHTMLPart21statusMessagesEnabledEv@Base 4:4.3.4
 _ZNK9KHTMLPart22forcePermitLocalImagesEv@Base 4:4.5.85
 _ZNK9KHTMLPart22jsDefaultStatusBarTextEv@Base 4:4.3.4
 _ZNK9KHTMLPart22simplifiedSelectedTextEv@Base 4:4.3.4
 _ZNK9KHTMLPart23nonSharedNodeUnderMouseEv@Base 4:4.3.4
 _ZNK9KHTMLPart23pluginPageQuestionAskedERK7QString@Base 4:4.3.4
 _ZNK9KHTMLPart28caretDisplayPolicyNonFocusedEv@Base 4:4.3.4
 _ZNK9KHTMLPart4viewEv@Base 4:4.3.4
 _ZNK9KHTMLPart5caretEv@Base 4:4.3.4
 _ZNK9KHTMLPart6editorEv@Base 4:4.3.4
 _ZNK9KHTMLPart6framesEv@Base 4:4.3.4
 _ZNK9KHTMLPart7baseURLEv@Base 4:4.3.4
 _ZNK9KHTMLPart7cacheIdEv@Base 4:4.3.4
 _ZNK9KHTMLPart7docImplEv@Base 4:4.3.4
 _ZNK9KHTMLPart8documentEv@Base 4:4.3.4
 _ZNK9KHTMLPart8encodingEv@Base 4:4.3.4
 _ZNK9KHTMLPart8referrerEv@Base 4:4.3.4
 _ZNK9KHTMLPart8restoredEv@Base 4:4.3.4
 _ZNK9KHTMLPart8settingsEv@Base 4:4.3.4
 _ZNK9KHTMLPart9dragCaretEv@Base 4:4.3.4
 _ZNK9KHTMLPart9selectionERN3DOM4NodeERlS2_S3_@Base 4:4.3.4
 _ZNK9KHTMLPart9selectionEv@Base 4:4.3.4
 _ZNK9KHTMLPart9urlCursorEv@Base 4:4.3.4
 _ZNK9KHTMLView10clipHolderEv@Base 4:4.3.4
 _ZNK9KHTMLView10metaObjectEv@Base 4:4.3.4
 _ZNK9KHTMLView12visibleWidthEv@Base 4:4.3.4
 _ZNK9KHTMLView13contentsWidthEv@Base 4:4.3.4
 _ZNK9KHTMLView13visibleHeightEv@Base 4:4.3.4
 _ZNK9KHTMLView14contentsHeightEv@Base 4:4.3.4
 _ZNK9KHTMLView14nodeUnderMouseEv@Base 4:4.3.4
 _ZNK9KHTMLView15applyTransformsERiS0_S0_S0_@Base 4:4.3.4
 _ZNK9KHTMLView16needsFullRepaintEv@Base 4:4.3.4
 _ZNK9KHTMLView16revertTransformsERiS0_@Base 4:4.3.4
 _ZNK9KHTMLView16revertTransformsERiS0_S0_S0_@Base 4:4.3.4
 _ZNK9KHTMLView17mouseEventsTargetEv@Base 4:4.3.4
 _ZNK9KHTMLView18contentsToViewportERK6QPoint@Base 4:4.3.4
 _ZNK9KHTMLView18contentsToViewportEiiRiS0_@Base 4:4.3.4
 _ZNK9KHTMLView18viewportToContentsERK6QPoint@Base 4:4.3.4
 _ZNK9KHTMLView18viewportToContentsEiiRiS0_@Base 4:4.3.4
 _ZNK9KHTMLView19formCompletionItemsERK7QString@Base 4:4.3.4
 _ZNK9KHTMLView19smoothScrollingModeEv@Base 4:4.3.4
 _ZNK9KHTMLView23buildFallbackAccessKeysEv@Base 4:4.3.4
 _ZNK9KHTMLView23nonPasswordStorableSiteERK7QString@Base 4:4.3.4
 _ZNK9KHTMLView23nonSharedNodeUnderMouseEv@Base 4:4.3.4
 _ZNK9KHTMLView25isScrollingFromMouseWheelEv@Base 4:4.3.4
 _ZNK9KHTMLView9contentsXEv@Base 4:4.3.4
 _ZNK9KHTMLView9contentsYEv@Base 4:4.3.4
 _ZNK9KHTMLView9mediaTypeEv@Base 4:4.3.4
 _ZNK9KHTMLView9pagedModeEv@Base 4:4.3.4
 _ZNK9KHTMLView9zoomLevelEv@Base 4:4.3.4
 (optional=templinst|arch=!amd64 !hurd-i386 !i386 !kfreebsd-amd64 !kfreebsd-i386)_ZSt10__pop_heapIPN7WebCore18SVGGlyphIdentifierEPFbRKS1_S4_EEvT_S7_S7_T0_@Base 4:4.6.3
 (optional=templinst|subst|arch=!amd64 !hurd-i386 !i386 !kfreebsd-amd64 !kfreebsd-i386)_ZSt13__adjust_heapIPN7WebCore18SVGGlyphIdentifierE{ssize_t}S1_PFbRKS1_S4_EEvT_T0_S8_T1_T2_@Base 4:4.6.1
 (optional=templinst|arch=!amd64 !hurd-i386 !i386 !kfreebsd-amd64 !kfreebsd-i386)_ZSt16__insertion_sortIPN7WebCore18SVGGlyphIdentifierEPFbRKS1_S4_EEvT_S7_T0_@Base 4:4.6.1
 (optional=templinst|subst|arch=!amd64 !hurd-i386 !i386 !kfreebsd-amd64 !kfreebsd-i386)_ZSt16__introsort_loopIPN7WebCore18SVGGlyphIdentifierE{ssize_t}PFbRKS1_S4_EEvT_S7_T0_T1_@Base 4:4.6.1
 (optional=templinst|arch=!amd64 !hurd-i386 !i386 !kfreebsd-amd64 !kfreebsd-i386)_ZSt19__move_median_firstIPN7WebCore18SVGGlyphIdentifierEPFbRKS1_S4_EEvT_S7_S7_T0_@Base 4:4.6.1
 (optional=templinst|arch=!amd64 !hurd-i386 !i386 !kfreebsd-amd64 !kfreebsd-i386)_ZSt25__unguarded_linear_insertIPN7WebCore18SVGGlyphIdentifierEPFbRKS1_S4_EEvT_T0_@Base 4:4.6.1
 (optional=templinst|arch=!amd64 !hurd-i386 !i386 !kfreebsd-amd64 !kfreebsd-i386)_ZSt9make_heapIPN7WebCore18SVGGlyphIdentifierEPFbRKS1_S4_EEvT_S7_T0_@Base 4:4.6.1
 _ZTI13KHTMLSettings@Base 4:4.3.4
 _ZTI17KHTMLImageFactory@Base 4:4.5.85
 _ZTI9KHTMLPart@Base 4:4.3.4
 _ZTI9KHTMLView@Base 4:4.3.4
 _ZTIN14WTFNoncopyable11NoncopyableE@Base 4:4.3.4
 _ZTIN3DOM10MouseEventE@Base 4:4.3.4
 _ZTIN3DOM10NodeFilterE@Base 4:4.3.4
 _ZTIN3DOM11HTMLElementE@Base 4:4.3.4
 _ZTIN3DOM12AbstractViewE@Base 4:4.3.4
 _ZTIN3DOM12CDATASectionE@Base 4:4.3.4
 _ZTIN3DOM12CSSExceptionE@Base 4:4.3.4
 _ZTIN3DOM12DOMExceptionE@Base 4:4.3.4
 _ZTIN3DOM12DocumentTypeE@Base 4:4.3.4
 _ZTIN3DOM12HTMLDocumentE@Base 4:4.3.4
 _ZTIN3DOM13CharacterDataE@Base 4:4.3.4
 _ZTIN3DOM13EventListenerE@Base 4:4.3.4
 _ZTIN3DOM13HTMLBRElementE@Base 4:4.3.4
 _ZTIN3DOM13HTMLHRElementE@Base 4:4.3.4
 _ZTIN3DOM13HTMLLIElementE@Base 4:4.3.4
 _ZTIN3DOM13KeyboardEventE@Base 4:4.3.4
 _ZTIN3DOM13MutationEventE@Base 4:4.3.4
 _ZTIN3DOM14EventExceptionE@Base 4:4.3.4
 _ZTIN3DOM14HTMLDivElementE@Base 4:4.3.4
 _ZTIN3DOM14HTMLMapElementE@Base 4:4.3.4
 _ZTIN3DOM14HTMLModElementE@Base 4:4.3.4
 _ZTIN3DOM14HTMLPreElementE@Base 4:4.3.4
 _ZTIN3DOM14RangeExceptionE@Base 4:4.3.4
 _ZTIN3DOM15EntityReferenceE@Base 4:4.3.4
 _ZTIN3DOM15HTMLAreaElementE@Base 4:4.3.4
 _ZTIN3DOM15HTMLBaseElementE@Base 4:4.3.4
 _ZTIN3DOM15HTMLBodyElementE@Base 4:4.3.4
 _ZTIN3DOM15HTMLFontElementE@Base 4:4.3.4
 _ZTIN3DOM15HTMLFormElementE@Base 4:4.3.4
 _ZTIN3DOM15HTMLHeadElementE@Base 4:4.3.4
 _ZTIN3DOM15HTMLHtmlElementE@Base 4:4.3.4
 _ZTIN3DOM15HTMLLinkElementE@Base 4:4.3.4
 _ZTIN3DOM15HTMLMenuElementE@Base 4:4.3.4
 _ZTIN3DOM15HTMLMetaElementE@Base 4:4.3.4
 _ZTIN3DOM16CustomNodeFilterE@Base 4:4.3.4
 _ZTIN3DOM16DocumentFragmentE@Base 4:4.3.4
 _ZTIN3DOM16HTMLDListElementE@Base 4:4.3.4
 _ZTIN3DOM16HTMLFrameElementE@Base 4:4.3.4
 _ZTIN3DOM16HTMLImageElementE@Base 4:4.3.4
 _ZTIN3DOM16HTMLInputElementE@Base 4:4.3.4
 _ZTIN3DOM16HTMLLabelElementE@Base 4:4.3.4
 _ZTIN3DOM16HTMLLayerElementE@Base 4:4.3.4
 _ZTIN3DOM16HTMLOListElementE@Base 4:4.3.4
 _ZTIN3DOM16HTMLParamElementE@Base 4:4.3.4
 _ZTIN3DOM16HTMLQuoteElementE@Base 4:4.3.4
 _ZTIN3DOM16HTMLStyleElementE@Base 4:4.3.4
 _ZTIN3DOM16HTMLTableElementE@Base 4:4.3.4
 _ZTIN3DOM16HTMLTitleElementE@Base 4:4.3.4
 _ZTIN3DOM16HTMLUListElementE@Base 4:4.3.4
 _ZTIN3DOM17HTMLAnchorElementE@Base 4:4.3.4
 _ZTIN3DOM17HTMLAppletElementE@Base 4:4.3.4
 _ZTIN3DOM17HTMLButtonElementE@Base 4:4.3.4
 _ZTIN3DOM17HTMLIFrameElementE@Base 4:4.3.4
 _ZTIN3DOM17HTMLLegendElementE@Base 4:4.3.4
 _ZTIN3DOM17HTMLObjectElementE@Base 4:4.3.4
 _ZTIN3DOM17HTMLOptionElementE@Base 4:4.3.4
 _ZTIN3DOM17HTMLScriptElementE@Base 4:4.3.4
 _ZTIN3DOM17HTMLSelectElementE@Base 4:4.3.4
 _ZTIN3DOM18HTMLHeadingElementE@Base 4:4.3.4
 _ZTIN3DOM18HTMLIsIndexElementE@Base 4:4.3.4
 _ZTIN3DOM19HTMLBaseFontElementE@Base 4:4.3.4
 _ZTIN3DOM19HTMLFieldSetElementE@Base 4:4.3.4
 _ZTIN3DOM19HTMLFrameSetElementE@Base 4:4.3.4
 _ZTIN3DOM19HTMLOptGroupElementE@Base 4:4.3.4
 _ZTIN3DOM19HTMLTableColElementE@Base 4:4.3.4
 _ZTIN3DOM19HTMLTableRowElementE@Base 4:4.3.4
 _ZTIN3DOM19HTMLTextAreaElementE@Base 4:4.3.4
 _ZTIN3DOM20HTMLDirectoryElementE@Base 4:4.3.4
 _ZTIN3DOM20HTMLParagraphElementE@Base 4:4.3.4
 _ZTIN3DOM20HTMLTableCellElementE@Base 4:4.3.4
 _ZTIN3DOM21HTMLBlockquoteElementE@Base 4:4.3.4
 _ZTIN3DOM21ProcessingInstructionE@Base 4:4.3.4
 _ZTIN3DOM23HTMLTableCaptionElementE@Base 4:4.3.4
 _ZTIN3DOM23HTMLTableSectionElementE@Base 4:4.3.4
 _ZTIN3DOM4AttrE@Base 4:4.3.4
 _ZTIN3DOM4NodeE@Base 4:4.3.4
 _ZTIN3DOM4TextE@Base 4:4.3.4
 _ZTIN3DOM5EventE@Base 4:4.3.4
 _ZTIN3DOM6EditorE@Base 4:4.3.4
 _ZTIN3DOM6EntityE@Base 4:4.3.4
 _ZTIN3DOM7CommentE@Base 4:4.3.4
 _ZTIN3DOM7ElementE@Base 4:4.3.4
 _ZTIN3DOM7UIEventE@Base 4:4.3.4
 _ZTIN3DOM8DocumentE@Base 4:4.3.4
 _ZTIN3DOM8NotationE@Base 4:4.3.4
 _ZTIN3DOM9DOMStringE@Base 4:4.3.4
 _ZTIN3DOM9DomSharedE@Base 4:4.3.4
 _ZTIN3DOM9TextEventE@Base 4:4.3.4
 _ZTIN3KJS14JSGlobalObjectE@Base 4:4.3.4
 (arch=!armel !armhf)_ZTIN3KJS6JSCellE@Base 4:4.3.4
 _ZTIN3KJS7JSValueE@Base 4:4.3.4
 _ZTIN5khtml10ChildFrameE@Base 4:4.3.4
 _ZTIN5khtml10MouseEventE@Base 4:4.3.4
 _ZTIN5khtml14MouseMoveEventE@Base 4:4.3.4
 _ZTIN5khtml15MousePressEventE@Base 4:4.3.4
 _ZTIN5khtml17DrawContentsEventE@Base 4:4.3.4
 _ZTIN5khtml17MouseReleaseEventE@Base 4:4.3.4
 _ZTIN5khtml21MouseDoubleClickEventE@Base 4:4.3.4
 _ZTIN6KParts21HtmlSettingsInterfaceE@Base 4:4.8.1
 _ZTS13KHTMLSettings@Base 4:4.3.4
 _ZTS17KHTMLImageFactory@Base 4:4.5.85
 _ZTS9KHTMLPart@Base 4:4.3.4
 _ZTS9KHTMLView@Base 4:4.3.4
 _ZTSN14WTFNoncopyable11NoncopyableE@Base 4:4.3.4
 _ZTSN3DOM10MouseEventE@Base 4:4.3.4
 _ZTSN3DOM10NodeFilterE@Base 4:4.3.4
 _ZTSN3DOM11HTMLElementE@Base 4:4.3.4
 _ZTSN3DOM12AbstractViewE@Base 4:4.3.4
 _ZTSN3DOM12CDATASectionE@Base 4:4.3.4
 _ZTSN3DOM12CSSExceptionE@Base 4:4.3.4
 _ZTSN3DOM12DOMExceptionE@Base 4:4.3.4
 _ZTSN3DOM12DocumentTypeE@Base 4:4.3.4
 _ZTSN3DOM12HTMLDocumentE@Base 4:4.3.4
 _ZTSN3DOM13CharacterDataE@Base 4:4.3.4
 _ZTSN3DOM13EventListenerE@Base 4:4.3.4
 _ZTSN3DOM13HTMLBRElementE@Base 4:4.3.4
 _ZTSN3DOM13HTMLHRElementE@Base 4:4.3.4
 _ZTSN3DOM13HTMLLIElementE@Base 4:4.3.4
 _ZTSN3DOM13KeyboardEventE@Base 4:4.3.4
 _ZTSN3DOM13MutationEventE@Base 4:4.3.4
 _ZTSN3DOM14EventExceptionE@Base 4:4.3.4
 _ZTSN3DOM14HTMLDivElementE@Base 4:4.3.4
 _ZTSN3DOM14HTMLMapElementE@Base 4:4.3.4
 _ZTSN3DOM14HTMLModElementE@Base 4:4.3.4
 _ZTSN3DOM14HTMLPreElementE@Base 4:4.3.4
 _ZTSN3DOM14RangeExceptionE@Base 4:4.3.4
 _ZTSN3DOM15EntityReferenceE@Base 4:4.3.4
 _ZTSN3DOM15HTMLAreaElementE@Base 4:4.3.4
 _ZTSN3DOM15HTMLBaseElementE@Base 4:4.3.4
 _ZTSN3DOM15HTMLBodyElementE@Base 4:4.3.4
 _ZTSN3DOM15HTMLFontElementE@Base 4:4.3.4
 _ZTSN3DOM15HTMLFormElementE@Base 4:4.3.4
 _ZTSN3DOM15HTMLHeadElementE@Base 4:4.3.4
 _ZTSN3DOM15HTMLHtmlElementE@Base 4:4.3.4
 _ZTSN3DOM15HTMLLinkElementE@Base 4:4.3.4
 _ZTSN3DOM15HTMLMenuElementE@Base 4:4.3.4
 _ZTSN3DOM15HTMLMetaElementE@Base 4:4.3.4
 _ZTSN3DOM16CustomNodeFilterE@Base 4:4.3.4
 _ZTSN3DOM16DocumentFragmentE@Base 4:4.3.4
 _ZTSN3DOM16HTMLDListElementE@Base 4:4.3.4
 _ZTSN3DOM16HTMLFrameElementE@Base 4:4.3.4
 _ZTSN3DOM16HTMLImageElementE@Base 4:4.3.4
 _ZTSN3DOM16HTMLInputElementE@Base 4:4.3.4
 _ZTSN3DOM16HTMLLabelElementE@Base 4:4.3.4
 _ZTSN3DOM16HTMLLayerElementE@Base 4:4.3.4
 _ZTSN3DOM16HTMLOListElementE@Base 4:4.3.4
 _ZTSN3DOM16HTMLParamElementE@Base 4:4.3.4
 _ZTSN3DOM16HTMLQuoteElementE@Base 4:4.3.4
 _ZTSN3DOM16HTMLStyleElementE@Base 4:4.3.4
 _ZTSN3DOM16HTMLTableElementE@Base 4:4.3.4
 _ZTSN3DOM16HTMLTitleElementE@Base 4:4.3.4
 _ZTSN3DOM16HTMLUListElementE@Base 4:4.3.4
 _ZTSN3DOM17HTMLAnchorElementE@Base 4:4.3.4
 _ZTSN3DOM17HTMLAppletElementE@Base 4:4.3.4
 _ZTSN3DOM17HTMLButtonElementE@Base 4:4.3.4
 _ZTSN3DOM17HTMLIFrameElementE@Base 4:4.3.4
 _ZTSN3DOM17HTMLLegendElementE@Base 4:4.3.4
 _ZTSN3DOM17HTMLObjectElementE@Base 4:4.3.4
 _ZTSN3DOM17HTMLOptionElementE@Base 4:4.3.4
 _ZTSN3DOM17HTMLScriptElementE@Base 4:4.3.4
 _ZTSN3DOM17HTMLSelectElementE@Base 4:4.3.4
 _ZTSN3DOM18HTMLHeadingElementE@Base 4:4.3.4
 _ZTSN3DOM18HTMLIsIndexElementE@Base 4:4.3.4
 _ZTSN3DOM19HTMLBaseFontElementE@Base 4:4.3.4
 _ZTSN3DOM19HTMLFieldSetElementE@Base 4:4.3.4
 _ZTSN3DOM19HTMLFrameSetElementE@Base 4:4.3.4
 _ZTSN3DOM19HTMLOptGroupElementE@Base 4:4.3.4
 _ZTSN3DOM19HTMLTableColElementE@Base 4:4.3.4
 _ZTSN3DOM19HTMLTableRowElementE@Base 4:4.3.4
 _ZTSN3DOM19HTMLTextAreaElementE@Base 4:4.3.4
 _ZTSN3DOM20HTMLDirectoryElementE@Base 4:4.3.4
 _ZTSN3DOM20HTMLParagraphElementE@Base 4:4.3.4
 _ZTSN3DOM20HTMLTableCellElementE@Base 4:4.3.4
 _ZTSN3DOM21HTMLBlockquoteElementE@Base 4:4.3.4
 _ZTSN3DOM21ProcessingInstructionE@Base 4:4.3.4
 _ZTSN3DOM23HTMLTableCaptionElementE@Base 4:4.3.4
 _ZTSN3DOM23HTMLTableSectionElementE@Base 4:4.3.4
 _ZTSN3DOM4AttrE@Base 4:4.3.4
 _ZTSN3DOM4NodeE@Base 4:4.3.4
 _ZTSN3DOM4TextE@Base 4:4.3.4
 _ZTSN3DOM5EventE@Base 4:4.3.4
 _ZTSN3DOM6EditorE@Base 4:4.3.4
 _ZTSN3DOM6EntityE@Base 4:4.3.4
 _ZTSN3DOM7CommentE@Base 4:4.3.4
 _ZTSN3DOM7ElementE@Base 4:4.3.4
 _ZTSN3DOM7UIEventE@Base 4:4.3.4
 _ZTSN3DOM8DocumentE@Base 4:4.3.4
 _ZTSN3DOM8NotationE@Base 4:4.3.4
 _ZTSN3DOM9DOMStringE@Base 4:4.3.4
 _ZTSN3DOM9DomSharedE@Base 4:4.3.4
 _ZTSN3DOM9TextEventE@Base 4:4.3.4
 _ZTSN3KJS14JSGlobalObjectE@Base 4:4.3.4
 (arch=!armel !armhf)_ZTSN3KJS6JSCellE@Base 4:4.3.4
 _ZTSN3KJS7JSValueE@Base 4:4.3.4
 _ZTSN5khtml10ChildFrameE@Base 4:4.3.4
 _ZTSN5khtml10MouseEventE@Base 4:4.3.4
 _ZTSN5khtml14MouseMoveEventE@Base 4:4.3.4
 _ZTSN5khtml15MousePressEventE@Base 4:4.3.4
 _ZTSN5khtml17DrawContentsEventE@Base 4:4.3.4
 _ZTSN5khtml17MouseReleaseEventE@Base 4:4.3.4
 _ZTSN5khtml21MouseDoubleClickEventE@Base 4:4.3.4
 _ZTSN6KParts21HtmlSettingsInterfaceE@Base 4:4.8.1
 _ZTT9KHTMLPart@Base 4:4.3.4
 _ZTV13KHTMLSettings@Base 4:4.3.4
 _ZTV17KHTMLImageFactory@Base 4:4.5.85
 _ZTV9KHTMLPart@Base 4:4.3.4
 _ZTV9KHTMLView@Base 4:4.3.4
 _ZTVN3DOM10MouseEventE@Base 4:4.3.4
 _ZTVN3DOM10NodeFilterE@Base 4:4.3.4
 _ZTVN3DOM11HTMLElementE@Base 4:4.3.4
 _ZTVN3DOM12AbstractViewE@Base 4:4.3.4
 _ZTVN3DOM12CDATASectionE@Base 4:4.3.4
 _ZTVN3DOM12CSSExceptionE@Base 4:4.3.4
 _ZTVN3DOM12DOMExceptionE@Base 4:4.3.4
 _ZTVN3DOM12DocumentTypeE@Base 4:4.3.4
 _ZTVN3DOM12HTMLDocumentE@Base 4:4.3.4
 _ZTVN3DOM13CharacterDataE@Base 4:4.3.4
 _ZTVN3DOM13EventListenerE@Base 4:4.3.4
 _ZTVN3DOM13HTMLBRElementE@Base 4:4.3.4
 _ZTVN3DOM13HTMLHRElementE@Base 4:4.3.4
 _ZTVN3DOM13HTMLLIElementE@Base 4:4.3.4
 _ZTVN3DOM13KeyboardEventE@Base 4:4.3.4
 _ZTVN3DOM13MutationEventE@Base 4:4.3.4
 _ZTVN3DOM14EventExceptionE@Base 4:4.3.4
 _ZTVN3DOM14HTMLDivElementE@Base 4:4.3.4
 _ZTVN3DOM14HTMLMapElementE@Base 4:4.3.4
 _ZTVN3DOM14HTMLModElementE@Base 4:4.3.4
 _ZTVN3DOM14HTMLPreElementE@Base 4:4.3.4
 _ZTVN3DOM14RangeExceptionE@Base 4:4.3.4
 _ZTVN3DOM15EntityReferenceE@Base 4:4.3.4
 _ZTVN3DOM15HTMLAreaElementE@Base 4:4.3.4
 _ZTVN3DOM15HTMLBaseElementE@Base 4:4.3.4
 _ZTVN3DOM15HTMLBodyElementE@Base 4:4.3.4
 _ZTVN3DOM15HTMLFontElementE@Base 4:4.3.4
 _ZTVN3DOM15HTMLFormElementE@Base 4:4.3.4
 _ZTVN3DOM15HTMLHeadElementE@Base 4:4.3.4
 _ZTVN3DOM15HTMLHtmlElementE@Base 4:4.3.4
 _ZTVN3DOM15HTMLLinkElementE@Base 4:4.3.4
 _ZTVN3DOM15HTMLMenuElementE@Base 4:4.3.4
 _ZTVN3DOM15HTMLMetaElementE@Base 4:4.3.4
 _ZTVN3DOM16CustomNodeFilterE@Base 4:4.3.4
 _ZTVN3DOM16DocumentFragmentE@Base 4:4.3.4
 _ZTVN3DOM16HTMLDListElementE@Base 4:4.3.4
 _ZTVN3DOM16HTMLFrameElementE@Base 4:4.3.4
 _ZTVN3DOM16HTMLImageElementE@Base 4:4.3.4
 _ZTVN3DOM16HTMLInputElementE@Base 4:4.3.4
 _ZTVN3DOM16HTMLLabelElementE@Base 4:4.3.4
 _ZTVN3DOM16HTMLLayerElementE@Base 4:4.3.4
 _ZTVN3DOM16HTMLOListElementE@Base 4:4.3.4
 _ZTVN3DOM16HTMLParamElementE@Base 4:4.3.4
 _ZTVN3DOM16HTMLQuoteElementE@Base 4:4.3.4
 _ZTVN3DOM16HTMLStyleElementE@Base 4:4.3.4
 _ZTVN3DOM16HTMLTableElementE@Base 4:4.3.4
 _ZTVN3DOM16HTMLTitleElementE@Base 4:4.3.4
 _ZTVN3DOM16HTMLUListElementE@Base 4:4.3.4
 _ZTVN3DOM17HTMLAnchorElementE@Base 4:4.3.4
 _ZTVN3DOM17HTMLAppletElementE@Base 4:4.3.4
 _ZTVN3DOM17HTMLButtonElementE@Base 4:4.3.4
 _ZTVN3DOM17HTMLIFrameElementE@Base 4:4.3.4
 _ZTVN3DOM17HTMLLegendElementE@Base 4:4.3.4
 _ZTVN3DOM17HTMLObjectElementE@Base 4:4.3.4
 _ZTVN3DOM17HTMLOptionElementE@Base 4:4.3.4
 _ZTVN3DOM17HTMLScriptElementE@Base 4:4.3.4
 _ZTVN3DOM17HTMLSelectElementE@Base 4:4.3.4
 _ZTVN3DOM18HTMLHeadingElementE@Base 4:4.3.4
 _ZTVN3DOM18HTMLIsIndexElementE@Base 4:4.3.4
 _ZTVN3DOM19HTMLBaseFontElementE@Base 4:4.3.4
 _ZTVN3DOM19HTMLFieldSetElementE@Base 4:4.3.4
 _ZTVN3DOM19HTMLFrameSetElementE@Base 4:4.3.4
 _ZTVN3DOM19HTMLOptGroupElementE@Base 4:4.3.4
 _ZTVN3DOM19HTMLTableColElementE@Base 4:4.3.4
 _ZTVN3DOM19HTMLTableRowElementE@Base 4:4.3.4
 _ZTVN3DOM19HTMLTextAreaElementE@Base 4:4.3.4
 _ZTVN3DOM20HTMLDirectoryElementE@Base 4:4.3.4
 _ZTVN3DOM20HTMLParagraphElementE@Base 4:4.3.4
 _ZTVN3DOM20HTMLTableCellElementE@Base 4:4.3.4
 _ZTVN3DOM21HTMLBlockquoteElementE@Base 4:4.3.4
 _ZTVN3DOM21ProcessingInstructionE@Base 4:4.3.4
 _ZTVN3DOM23HTMLTableCaptionElementE@Base 4:4.3.4
 _ZTVN3DOM23HTMLTableSectionElementE@Base 4:4.3.4
 _ZTVN3DOM4AttrE@Base 4:4.3.4
 _ZTVN3DOM4NodeE@Base 4:4.3.4
 _ZTVN3DOM4TextE@Base 4:4.3.4
 _ZTVN3DOM5EventE@Base 4:4.3.4
 _ZTVN3DOM6EditorE@Base 4:4.3.4
 _ZTVN3DOM6EntityE@Base 4:4.3.4
 _ZTVN3DOM7CommentE@Base 4:4.3.4
 _ZTVN3DOM7ElementE@Base 4:4.3.4
 _ZTVN3DOM7UIEventE@Base 4:4.3.4
 _ZTVN3DOM8DocumentE@Base 4:4.3.4
 _ZTVN3DOM8NotationE@Base 4:4.3.4
 _ZTVN3DOM9DOMStringE@Base 4:4.3.4
 _ZTVN3DOM9DomSharedE@Base 4:4.3.4
 _ZTVN3DOM9TextEventE@Base 4:4.3.4
 _ZTVN3KJS14JSGlobalObjectE@Base 4:4.3.4
 (arch=!armel !armhf)_ZTVN3KJS6JSCellE@Base 4:4.3.4
 _ZTVN3KJS7JSValueE@Base 4:4.3.4
 _ZTVN5khtml10ChildFrameE@Base 4:4.3.4
 _ZTVN5khtml10MouseEventE@Base 4:4.3.4
 _ZTVN5khtml14MouseMoveEventE@Base 4:4.3.4
 _ZTVN5khtml15MousePressEventE@Base 4:4.3.4
 _ZTVN5khtml17DrawContentsEventE@Base 4:4.3.4
 _ZTVN5khtml17MouseReleaseEventE@Base 4:4.3.4
 _ZTVN5khtml21MouseDoubleClickEventE@Base 4:4.3.4
 _ZTVN6KParts21HtmlSettingsInterfaceE@Base 4:4.8.1
 (c++)"construction vtable for KParts::Part-in-KHTMLPart@Base" 4:4.3.4
 (c++)"construction vtable for KParts::PartBase-in-KHTMLPart@Base" 4:4.3.4
 (c++)"construction vtable for KParts::ReadOnlyPart-in-KHTMLPart@Base" 4:4.3.4
 (c++)"non-virtual thunk to KHTMLPart::~KHTMLPart()@Base" 4:4.3.4
 (c++)"non-virtual thunk to KHTMLView::~KHTMLView()@Base" 4:4.3.4
 (c++)"virtual thunk to KHTMLPart::~KHTMLPart()@Base" 4:4.3.4
