# SymbolsHelper-Confirmed: 4:4.8.4 amd64 armel armhf hurd-i386 i386 ia64 kfreebsd-amd64 kfreebsd-i386 powerpc s390 s390x
libkjs.so.4 libkjsapi4 #MINVER#
* Build-Depends-Package: kdelibs5-dev
 _ZN3KJS10Identifier11addSlowCaseEPNS_7UString3RepE@Base 4:4.3.4
 _ZN3KJS10Identifier3addEPKNS_5UCharEi@Base 4:4.3.4
 _ZN3KJS10Identifier3addEPKc@Base 4:4.3.4
 _ZN3KJS10Identifier5equalEPKNS_7UString3RepEPKNS_5UCharEi@Base 4:4.3.4
 _ZN3KJS10Identifier5equalEPKNS_7UString3RepEPKc@Base 4:4.3.4
 _ZN3KJS10Identifier6removeEPNS_7UString3RepE@Base 4:4.3.4
 (arch=kfreebsd-amd64 kfreebsd-i386)_ZN3KJS10IdentifierD1Ev@Base 4:4.6.5
 (arch=kfreebsd-amd64 kfreebsd-i386)_ZN3KJS10IdentifierD2Ev@Base 4:4.6.5
 _ZN3KJS10throwErrorEPNS_9ExecStateENS_9ErrorTypeE@Base 4:4.3.4
 _ZN3KJS10throwErrorEPNS_9ExecStateENS_9ErrorTypeEPKc@Base 4:4.3.4
 _ZN3KJS10throwErrorEPNS_9ExecStateENS_9ErrorTypeERKNS_7UStringE@Base 4:4.3.4
 _ZN3KJS10throwErrorEPNS_9ExecStateENS_9ErrorTypeERKNS_7UStringEiiS5_@Base 4:4.3.4
 _ZN3KJS11FunctionImp10nameGetterEPNS_9ExecStateEPNS_8JSObjectERKNS_10IdentifierERKNS_12PropertySlotE@Base 4:4.3.4
 _ZN3KJS11FunctionImp12callerGetterEPNS_9ExecStateEPNS_8JSObjectERKNS_10IdentifierERKNS_12PropertySlotE@Base 4:4.3.4
 _ZN3KJS11FunctionImp12lengthGetterEPNS_9ExecStateEPNS_8JSObjectERKNS_10IdentifierERKNS_12PropertySlotE@Base 4:4.3.4
 _ZN3KJS11FunctionImp14callAsFunctionEPNS_9ExecStateEPNS_8JSObjectERKNS_4ListE@Base 4:4.3.4
 _ZN3KJS11FunctionImp14deletePropertyEPNS_9ExecStateERKNS_10IdentifierE@Base 4:4.3.4
 _ZN3KJS11FunctionImp14initialCompileEPNS_9ExecStateE@Base 4:4.3.4
 _ZN3KJS11FunctionImp15argumentsGetterEPNS_9ExecStateEPNS_8JSObjectERKNS_10IdentifierERKNS_12PropertySlotE@Base 4:4.3.4
 (subst)_ZN3KJS11FunctionImp16getParameterNameE{size_t}@Base 4:4.4.0
 _ZN3KJS11FunctionImp18getOwnPropertySlotEPNS_9ExecStateERKNS_10IdentifierERNS_12PropertySlotE@Base 4:4.3.4
 _ZN3KJS11FunctionImp3putEPNS_9ExecStateERKNS_10IdentifierEPNS_7JSValueEi@Base 4:4.3.4
 _ZN3KJS11FunctionImp4infoE@Base 4:4.3.4
 _ZN3KJS11FunctionImp4markEv@Base 4:4.3.4
 _ZN3KJS11FunctionImp9constructEPNS_9ExecStateERKNS_4ListE@Base 4:4.3.4
 _ZN3KJS11FunctionImpC1EPNS_9ExecStateERKNS_10IdentifierEPNS_16FunctionBodyNodeERKNS_10ScopeChainE@Base 4:4.3.4
 _ZN3KJS11FunctionImpC2EPNS_9ExecStateERKNS_10IdentifierEPNS_16FunctionBodyNodeERKNS_10ScopeChainE@Base 4:4.3.4
 _ZN3KJS11FunctionImpD0Ev@Base 4:4.3.4
 _ZN3KJS11FunctionImpD1Ev@Base 4:4.3.4
 _ZN3KJS11FunctionImpD2Ev@Base 4:4.3.4
 _ZN3KJS11Interpreter10globalExecEv@Base 4:4.3.4
 _ZN3KJS11Interpreter11checkSyntaxERKNS_7UStringEiPKNS_5UCharEi@Base 4:4.3.4
 _ZN3KJS11Interpreter11checkSyntaxERKNS_7UStringEiS3_@Base 4:4.3.4
 (subst)_ZN3KJS11Interpreter11extendStackE{size_t}@Base 4:4.3.4
 _ZN3KJS11Interpreter12internStringERKNS_7UStringE@Base 4:4.3.4
 _ZN3KJS11Interpreter13globalPackageEv@Base 4:4.3.4
 _ZN3KJS11Interpreter13handleTimeoutEv@Base 4:4.3.4
 _ZN3KJS11Interpreter13normalizeCodeERKNS_7UStringEPS1_PiS4_@Base 4:4.3.4
 _ZN3KJS11Interpreter14printExceptionERKNS_10CompletionERKNS_7UStringE@Base 4:4.3.4
 _ZN3KJS11Interpreter15restoreBuiltinsERKNS_13SavedBuiltinsE@Base 4:4.3.4
 _ZN3KJS11Interpreter16initGlobalObjectEv@Base 4:4.3.4
 _ZN3KJS11Interpreter16setGlobalPackageEPNS_7PackageE@Base 4:4.3.4
 _ZN3KJS11Interpreter16stopTimeoutCheckEv@Base 4:4.3.4
 _ZN3KJS11Interpreter17pauseTimeoutCheckEv@Base 4:4.3.4
 _ZN3KJS11Interpreter17recycleActivationEPNS_13ActivationImpE@Base 4:4.3.4
 _ZN3KJS11Interpreter17s_internedStringsE@Base 4:4.3.4
 _ZN3KJS11Interpreter17startTimeoutCheckEv@Base 4:4.3.4
 _ZN3KJS11Interpreter18resumeTimeoutCheckEv@Base 4:4.3.4
 _ZN3KJS11Interpreter19putNamedConstructorEPKcPNS_8JSObjectE@Base 4:4.5.85
 _ZN3KJS11Interpreter19restartTimeoutCheckEv@Base 4:4.3.4
 _ZN3KJS11Interpreter21releaseInternedStringERKNS_7UStringE@Base 4:4.3.4
 _ZN3KJS11Interpreter21shouldPrintExceptionsEv@Base 4:4.3.4
 _ZN3KJS11Interpreter23markSourceCachedObjectsEv@Base 4:4.3.4
 _ZN3KJS11Interpreter24initInternedStringsTableEv@Base 4:4.3.4
 _ZN3KJS11Interpreter24markInternedStringsTableEv@Base 4:4.3.4
 _ZN3KJS11Interpreter24setShouldPrintExceptionsEb@Base 4:4.3.4
 _ZN3KJS11Interpreter4initEv@Base 4:4.3.4
 _ZN3KJS11Interpreter4markEb@Base 4:4.3.4
 _ZN3KJS11Interpreter6s_hookE@Base 4:4.3.4
 _ZN3KJS11Interpreter7collectEv@Base 4:4.3.4
 _ZN3KJS11Interpreter8evaluateERKNS_7UStringEiPKNS_5UCharEiPNS_7JSValueE@Base 4:4.3.4
 _ZN3KJS11Interpreter8evaluateERKNS_7UStringEiS3_PNS_7JSValueE@Base 4:4.3.4
 _ZN3KJS11InterpreterC1EPNS_14JSGlobalObjectE@Base 4:4.3.4
 _ZN3KJS11InterpreterC1Ev@Base 4:4.3.4
 _ZN3KJS11InterpreterC2EPNS_14JSGlobalObjectE@Base 4:4.3.4
 _ZN3KJS11InterpreterC2Ev@Base 4:4.3.4
 _ZN3KJS11InterpreterD0Ev@Base 4:4.3.4
 _ZN3KJS11InterpreterD1Ev@Base 4:4.3.4
 _ZN3KJS11InterpreterD2Ev@Base 4:4.3.4
 _ZN3KJS11JSImmediate4typeEPKNS_7JSValueE@Base 4:4.3.4
 _ZN3KJS11JSImmediate8toObjectEPKNS_7JSValueEPNS_9ExecStateE@Base 4:4.3.4
 _ZN3KJS11JSImmediate8toStringEPKNS_7JSValueE@Base 4:4.3.4
 _ZN3KJS11PropertyMap11createTableEv@Base 4:4.3.4
 _ZN3KJS11PropertyMap11getLocationERKNS_10IdentifierE@Base 4:4.3.4
 _ZN3KJS11PropertyMap16getWriteLocationERKNS_10IdentifierE@Base 4:4.3.4
 _ZN3KJS11PropertyMap3putERKNS_10IdentifierEPNS_7JSValueEib@Base 4:4.3.4
 _ZN3KJS11PropertyMap5clearEv@Base 4:4.3.4
 _ZN3KJS11PropertyMap6expandEv@Base 4:4.3.4
 _ZN3KJS11PropertyMap6insertEPNS_7UString3RepEPNS_7JSValueEii@Base 4:4.3.4
 _ZN3KJS11PropertyMap6rehashEi@Base 4:4.3.4
 _ZN3KJS11PropertyMap6rehashEv@Base 4:4.3.4
 _ZN3KJS11PropertyMap6removeERKNS_10IdentifierE@Base 4:4.3.4
 _ZN3KJS11PropertyMap7restoreERKNS_15SavedPropertiesE@Base 4:4.3.4
 _ZN3KJS11PropertyMapD1Ev@Base 4:4.3.4
 _ZN3KJS11PropertyMapD2Ev@Base 4:4.3.4
 _ZN3KJS12PropertySlot14functionGetterEPNS_9ExecStateEPNS_8JSObjectERKNS_10IdentifierERKS0_@Base 4:4.3.4
 _ZN3KJS12PropertySlot15undefinedGetterEPNS_9ExecStateEPNS_8JSObjectERKNS_10IdentifierERKS0_@Base 4:4.3.4
 _ZN3KJS12jsNumberCellEd@Base 4:4.3.4
 _ZN3KJS13ArrayInstance12lengthGetterEPNS_9ExecStateEPNS_8JSObjectERKNS_10IdentifierERKNS_12PropertySlotE@Base 4:4.3.4
 _ZN3KJS13ArrayInstance14deletePropertyEPNS_9ExecStateERKNS_10IdentifierE@Base 4:4.3.4
 _ZN3KJS13ArrayInstance14deletePropertyEPNS_9ExecStateEj@Base 4:4.3.4
 _ZN3KJS13ArrayInstance17compactForSortingEv@Base 4:4.3.4
 _ZN3KJS13ArrayInstance18getOwnPropertySlotEPNS_9ExecStateERKNS_10IdentifierERNS_12PropertySlotE@Base 4:4.3.4
 _ZN3KJS13ArrayInstance18getOwnPropertySlotEPNS_9ExecStateEjRNS_12PropertySlotE@Base 4:4.3.4
 _ZN3KJS13ArrayInstance19getOwnPropertyNamesEPNS_9ExecStateERNS_17PropertyNameArrayENS_11PropertyMap12PropertyModeE@Base 4:4.8.4
 _ZN3KJS13ArrayInstance20increaseVectorLengthEj@Base 4:4.3.4
 _ZN3KJS13ArrayInstance3putEPNS_9ExecStateERKNS_10IdentifierEPNS_7JSValueEi@Base 4:4.3.4
 _ZN3KJS13ArrayInstance3putEPNS_9ExecStateEjPNS_7JSValueEi@Base 4:4.3.4
 _ZN3KJS13ArrayInstance4infoE@Base 4:4.3.4
 _ZN3KJS13ArrayInstance4markEv@Base 4:4.3.4
 _ZN3KJS13ArrayInstance4sortEPNS_9ExecStateE@Base 4:4.3.4
 _ZN3KJS13ArrayInstance4sortEPNS_9ExecStateEPNS_8JSObjectE@Base 4:4.3.4
 _ZN3KJS13ArrayInstance9setLengthEj@Base 4:4.3.4
 _ZN3KJS13ArrayInstanceC1EPNS_8JSObjectERKNS_4ListE@Base 4:4.3.4
 _ZN3KJS13ArrayInstanceC1EPNS_8JSObjectEj@Base 4:4.3.4
 _ZN3KJS13ArrayInstanceC2EPNS_8JSObjectERKNS_4ListE@Base 4:4.3.4
 _ZN3KJS13ArrayInstanceC2EPNS_8JSObjectEj@Base 4:4.3.4
 _ZN3KJS13ArrayInstanceD0Ev@Base 4:4.3.4
 _ZN3KJS13ArrayInstanceD1Ev@Base 4:4.3.4
 _ZN3KJS13ArrayInstanceD2Ev@Base 4:4.3.4
 _ZN3KJS13PackageObject4infoE@Base 4:4.3.4
 _ZN3KJS13PackageObjectD0Ev@Base 4:4.7.2
 _ZN3KJS13PackageObjectD1Ev@Base 4:4.7.2
 _ZN3KJS13PackageObjectD2Ev@Base 4:4.7.2
 _ZN3KJS14JSGlobalObjectD0Ev@Base 4:4.7.2
 _ZN3KJS14JSGlobalObjectD1Ev@Base 4:4.7.2
 _ZN3KJS14JSGlobalObjectD2Ev@Base 4:4.7.2
 (optional=internal|arch=powerpc s390 s390x)_ZN3KJS14ScopeChainLink5derefEv@Base 4:4.8.3
 _ZN3KJS14UnicodeSupport18setToLowerFunctionEPFiPtiRS1_E@Base 4:4.3.4
 _ZN3KJS14UnicodeSupport18setToUpperFunctionEPFiPtiRS1_E@Base 4:4.3.4
 _ZN3KJS14UnicodeSupport19setIdentPartCheckerEPFbiE@Base 4:4.3.4
 _ZN3KJS14UnicodeSupport20setIdentStartCheckerEPFbiE@Base 4:4.3.4
 _ZN3KJS14UnicodeSupportC1Ev@Base 4:4.3.4
 _ZN3KJS14UnicodeSupportC2Ev@Base 4:4.3.4
 _ZN3KJS15ObjectPrototype4selfEPNS_9ExecStateE@Base 4:4.3.4
 _ZN3KJS15ObjectPrototypeC1EPNS_9ExecStateEPNS_17FunctionPrototypeE@Base 4:4.3.4
 _ZN3KJS15ObjectPrototypeC2EPNS_9ExecStateEPNS_17FunctionPrototypeE@Base 4:4.3.4
 _ZN3KJS15ObjectPrototypeD0Ev@Base 4:4.7.2
 _ZN3KJS15ObjectPrototypeD1Ev@Base 4:4.7.2
 _ZN3KJS15ObjectPrototypeD2Ev@Base 4:4.7.2
 _ZN3KJS17CommonIdentifiers6sharedEv@Base 4:4.3.4
 _ZN3KJS17CommonIdentifiersC1Ev@Base 4:4.3.4
 _ZN3KJS17CommonIdentifiersC2Ev@Base 4:4.3.4
 _ZN3KJS17PropertyNameArray3addERKNS_10IdentifierE@Base 4:4.3.4
 (optional=external|arch=kfreebsd-amd64 kfreebsd-i386)_ZN3KJS17PropertyNameArrayD1Ev@Base 4:4.8.4
 (optional=external|arch=kfreebsd-amd64 kfreebsd-i386)_ZN3KJS17PropertyNameArrayD2Ev@Base 4:4.8.4
 _ZN3KJS19InternalFunctionImp4infoE@Base 4:4.3.4
 _ZN3KJS19InternalFunctionImpC1EPNS_17FunctionPrototypeE@Base 4:4.3.4
 _ZN3KJS19InternalFunctionImpC1EPNS_17FunctionPrototypeERKNS_10IdentifierE@Base 4:4.3.4
 _ZN3KJS19InternalFunctionImpC1Ev@Base 4:4.3.4
 _ZN3KJS19InternalFunctionImpC2EPNS_17FunctionPrototypeE@Base 4:4.3.4
 _ZN3KJS19InternalFunctionImpC2EPNS_17FunctionPrototypeERKNS_10IdentifierE@Base 4:4.3.4
 _ZN3KJS19InternalFunctionImpC2Ev@Base 4:4.3.4
 _ZN3KJS19InternalFunctionImpD0Ev@Base 4:4.7.2
 _ZN3KJS19InternalFunctionImpD1Ev@Base 4:4.7.2
 _ZN3KJS19InternalFunctionImpD2Ev@Base 4:4.7.2
 _ZN3KJS21StandardGlobalPackage14loadSubPackageERKNS_10IdentifierEPNS_7UStringE@Base 4:4.3.4
 _ZN3KJS21StandardGlobalPackageC1Ev@Base 4:4.3.4
 _ZN3KJS21StandardGlobalPackageC2Ev@Base 4:4.3.4
 _ZN3KJS21StandardGlobalPackageD0Ev@Base 4:4.7.2
 _ZN3KJS21StandardGlobalPackageD1Ev@Base 4:4.7.2
 _ZN3KJS21StandardGlobalPackageD2Ev@Base 4:4.7.2
 _ZN3KJS3InfE@Base 4:4.4.95
 _ZN3KJS3NaNE@Base 4:4.3.4
 _ZN3KJS4List14appendSlowCaseEPNS_7JSValueE@Base 4:4.4.95
 _ZN3KJS4List18markProtectedListsEv@Base 4:4.3.4
 _ZN3KJS4List5emptyEv@Base 4:4.3.4
 _ZN3KJS4List7releaseEv@Base 4:4.3.4
 _ZN3KJS4List8copyFromERKS0_@Base 4:4.3.4
 _ZN3KJS4ListC1Ev@Base 4:4.3.4
 _ZN3KJS4ListC2Ev@Base 4:4.3.4
 _ZN3KJS4ListaSERKS0_@Base 4:4.3.4
 _ZN3KJS5Error10errorNamesE@Base 4:4.3.4
 _ZN3KJS5Error6createEPNS_9ExecStateENS_9ErrorTypeEPKc@Base 4:4.3.4
 _ZN3KJS5Error6createEPNS_9ExecStateENS_9ErrorTypeERKNS_7UStringEiiS6_@Base 4:4.3.4
 _ZN3KJS5isInfEd@Base 4:4.3.4
 _ZN3KJS5isNaNEd@Base 4:4.3.4
 _ZN3KJS6JSCell4markEv@Base 4:4.3.4
 _ZN3KJS6JSCell9getObjectEv@Base 4:4.3.4
 _ZN3KJS6JSCellD0Ev@Base 4:4.3.4
 _ZN3KJS6JSCellD1Ev@Base 4:4.3.4
 _ZN3KJS6JSCellD2Ev@Base 4:4.7.2
 (subst)_ZN3KJS6JSCellnwE{size_t}@Base 4:4.3.4
 _ZN3KJS6JSLock12DropAllLocksC1Ev@Base 4:4.3.4
 _ZN3KJS6JSLock12DropAllLocksC2Ev@Base 4:4.3.4
 _ZN3KJS6JSLock12DropAllLocksD1Ev@Base 4:4.3.4
 _ZN3KJS6JSLock12DropAllLocksD2Ev@Base 4:4.3.4
 _ZN3KJS6Lookup4findEPKNS_9HashTableEPKNS_5UCharEj@Base 4:4.3.4
 _ZN3KJS6Lookup4findEPKNS_9HashTableERKNS_10IdentifierE@Base 4:4.3.4
 _ZN3KJS6Lookup9findEntryEPKNS_9HashTableERKNS_10IdentifierE@Base 4:4.3.4
 _ZN3KJS7CStringC1EPKc@Base 4:4.3.4
 (subst)_ZN3KJS7CStringC1EPKc{size_t}@Base 4:4.3.4
 _ZN3KJS7CStringC1ERKS0_@Base 4:4.3.4
 _ZN3KJS7CStringC2EPKc@Base 4:4.3.4
 (subst)_ZN3KJS7CStringC2EPKc{size_t}@Base 4:4.3.4
 _ZN3KJS7CStringC2ERKS0_@Base 4:4.3.4
 _ZN3KJS7CStringD1Ev@Base 4:4.3.4
 _ZN3KJS7CStringD2Ev@Base 4:4.3.4
 _ZN3KJS7CStringaSEPKc@Base 4:4.3.4
 _ZN3KJS7CStringaSERKS0_@Base 4:4.3.4
 _ZN3KJS7JSValue15toInt32SlowCaseEdRb@Base 4:4.3.4
 _ZN3KJS7JSValue16toUInt32SlowCaseEdRb@Base 4:4.3.4
 _ZN3KJS7JSValueD0Ev@Base 4:4.3.4
 _ZN3KJS7JSValueD1Ev@Base 4:4.3.4
 _ZN3KJS7JSValueD2Ev@Base 4:4.7.2
 _ZN3KJS7Package10loadSymbolEPNS_9ExecStateEPNS_8JSObjectERKNS_10IdentifierE@Base 4:4.3.4
 _ZN3KJS7Package14loadAllSymbolsEPNS_9ExecStateEPNS_8JSObjectE@Base 4:4.3.4
 _ZN3KJS7Package14loadSubPackageERKNS_10IdentifierEPNS_7UStringE@Base 4:4.3.4
 _ZN3KJS7UString14copyForWritingEv@Base 4:4.3.4
 _ZN3KJS7UString14expandCapacityEi@Base 4:4.3.4
 _ZN3KJS7UString17expandPreCapacityEi@Base 4:4.3.4
 _ZN3KJS7UString3Rep11computeHashEPKNS_5UCharEi@Base 4:4.3.4
 _ZN3KJS7UString3Rep11computeHashEPKc@Base 4:4.3.4
 _ZN3KJS7UString3Rep11computeHashEPKci@Base 4:4.3.4
 _ZN3KJS7UString3Rep13createCopyingEPKNS_5UCharEi@Base 4:4.3.4
 _ZN3KJS7UString3Rep4nullE@Base 4:4.3.4
 _ZN3KJS7UString3Rep5emptyE@Base 4:4.3.4
 _ZN3KJS7UString3Rep6createEN3WTF10PassRefPtrIS1_EEii@Base 4:4.3.4
 _ZN3KJS7UString3Rep6createEPNS_5UCharEi@Base 4:4.3.4
 _ZN3KJS7UString3Rep7destroyEv@Base 4:4.3.4
 _ZN3KJS7UString3setEPKci@Base 4:4.3.4
 _ZN3KJS7UString4fromEd@Base 4:4.3.4
 _ZN3KJS7UString4fromEi@Base 4:4.3.4
 _ZN3KJS7UString4fromEj@Base 4:4.3.4
 _ZN3KJS7UString4fromEl@Base 4:4.3.4
 _ZN3KJS7UString4nullEv@Base 4:4.3.4
 _ZN3KJS7UString5equalEPKNS0_3RepES3_@Base 4:4.3.4
 _ZN3KJS7UString6appendEPKc@Base 4:4.3.4
 _ZN3KJS7UString6appendERKS0_@Base 4:4.3.4
 _ZN3KJS7UString6appendERKS0_ii@Base 4:4.3.4
 _ZN3KJS7UString6appendEt@Base 4:4.3.4
 _ZN3KJS7UStringC1ENS0_5EmptyE@Base 4:4.3.4
 _ZN3KJS7UStringC1EPKNS_5UCharEi@Base 4:4.3.4
 _ZN3KJS7UStringC1EPKc@Base 4:4.3.4
 (subst)_ZN3KJS7UStringC1EPKc{size_t}@Base 4:4.3.4
 _ZN3KJS7UStringC1EPNS_5UCharEib@Base 4:4.3.4
 (subst)_ZN3KJS7UStringC1ERKN3WTF6VectorINS_5UCharEL{size_t}0EEE@Base 4:4.3.4
 _ZN3KJS7UStringC1ERKS0_S2_@Base 4:4.3.4
 _ZN3KJS7UStringC1Ec@Base 4:4.3.4
 _ZN3KJS7UStringC2ENS0_5EmptyE@Base 4:4.3.4
 _ZN3KJS7UStringC2EPKNS_5UCharEi@Base 4:4.3.4
 _ZN3KJS7UStringC2EPKc@Base 4:4.3.4
 (subst)_ZN3KJS7UStringC2EPKc{size_t}@Base 4:4.3.4
 _ZN3KJS7UStringC2EPNS_5UCharEib@Base 4:4.3.4
 (subst)_ZN3KJS7UStringC2ERKN3WTF6VectorINS_5UCharEL{size_t}0EEE@Base 4:4.3.4
 _ZN3KJS7UStringC2ERKS0_S2_@Base 4:4.3.4
 _ZN3KJS7UStringC2Ec@Base 4:4.3.4
 _ZN3KJS7UStringaSENS0_5EmptyE@Base 4:4.3.4
 _ZN3KJS7UStringaSEPKc@Base 4:4.3.4
 _ZN3KJS7compareERKNS_7UStringES2_@Base 4:4.3.4
 _ZN3KJS8Debugger11atStatementEPNS_9ExecStateEiii@Base 4:4.3.4
 _ZN3KJS8Debugger11exitContextEPNS_9ExecStateEiiPNS_8JSObjectE@Base 4:4.3.4
 _ZN3KJS8Debugger12enterContextEPNS_9ExecStateEiiPNS_8JSObjectERKNS_4ListE@Base 4:4.3.4
 _ZN3KJS8Debugger12sourceParsedEPNS_9ExecStateEiRKNS_7UStringES5_iiS5_@Base 4:4.3.4
 _ZN3KJS8Debugger15reportExceptionEPNS_9ExecStateEPNS_7JSValueE@Base 4:4.3.4
 _ZN3KJS8Debugger16debuggersPresentE@Base 4:4.3.4
 _ZN3KJS8Debugger17reportAtStatementEPNS_9ExecStateEiii@Base 4:4.3.4
 _ZN3KJS8Debugger18reportSourceParsedEPNS_9ExecStateEPNS_16FunctionBodyNodeEiNS_7UStringERKS5_iiS7_@Base 4:4.3.4
 _ZN3KJS8Debugger19hasHandledExceptionEPNS_9ExecStateEPNS_7JSValueE@Base 4:4.3.4
 _ZN3KJS8Debugger6attachEPNS_11InterpreterE@Base 4:4.3.4
 _ZN3KJS8Debugger6detachEPNS_11InterpreterE@Base 4:4.3.4
 _ZN3KJS8Debugger9exceptionEPNS_9ExecStateEiiPNS_7JSValueE@Base 4:4.3.4
 _ZN3KJS8DebuggerC1Ev@Base 4:4.3.4
 _ZN3KJS8DebuggerC2Ev@Base 4:4.3.4
 _ZN3KJS8DebuggerD0Ev@Base 4:4.3.4
 _ZN3KJS8DebuggerD1Ev@Base 4:4.3.4
 _ZN3KJS8DebuggerD2Ev@Base 4:4.3.4
 _ZN3KJS8JSObject11hasInstanceEPNS_9ExecStateEPNS_7JSValueE@Base 4:4.3.4
 _ZN3KJS8JSObject12defineGetterEPNS_9ExecStateERKNS_10IdentifierEPS0_@Base 4:4.3.4
 _ZN3KJS8JSObject12defineSetterEPNS_9ExecStateERKNS_10IdentifierEPS0_@Base 4:4.3.4
 _ZN3KJS8JSObject12removeDirectERKNS_10IdentifierE@Base 4:4.3.4
 _ZN3KJS8JSObject14callAsFunctionEPNS_9ExecStateEPS0_RKNS_4ListE@Base 4:4.3.4
 _ZN3KJS8JSObject14deletePropertyEPNS_9ExecStateERKNS_10IdentifierE@Base 4:4.3.4
 _ZN3KJS8JSObject14deletePropertyEPNS_9ExecStateEj@Base 4:4.3.4
 _ZN3KJS8JSObject15getPropertySlotEPNS_9ExecStateEjRNS_12PropertySlotE@Base 4:4.3.4
 _ZN3KJS8JSObject17putDirectFunctionEPNS_19InternalFunctionImpEi@Base 4:4.3.4
 _ZN3KJS8JSObject18getOwnPropertySlotEPNS_9ExecStateERKNS_10IdentifierERNS_12PropertySlotE@Base 4:4.3.4
 _ZN3KJS8JSObject18getOwnPropertySlotEPNS_9ExecStateEjRNS_12PropertySlotE@Base 4:4.3.4
 _ZN3KJS8JSObject18getPrimitiveNumberEPNS_9ExecStateERdRPNS_7JSValueE@Base 4:4.3.4
 _ZN3KJS8JSObject19getOwnPropertyNamesEPNS_9ExecStateERNS_17PropertyNameArrayENS_11PropertyMap12PropertyModeE@Base 4:4.8.4
 _ZN3KJS8JSObject22fillGetterPropertySlotERNS_12PropertySlotEPPNS_7JSValueE@Base 4:4.3.4
 _ZN3KJS8JSObject3putEPNS_9ExecStateERKNS_10IdentifierEPNS_7JSValueEi@Base 4:4.3.4
 _ZN3KJS8JSObject3putEPNS_9ExecStateEjPNS_7JSValueEi@Base 4:4.3.4
 _ZN3KJS8JSObject4markEv@Base 4:4.3.4
 _ZN3KJS8JSObject9constructEPNS_9ExecStateERKNS_4ListE@Base 4:4.3.4
 _ZN3KJS8JSObject9constructEPNS_9ExecStateERKNS_4ListERKNS_10IdentifierERKNS_7UStringEi@Base 4:4.3.4
 _ZN3KJS8JSObject9putDirectERKNS_10IdentifierEii@Base 4:4.3.4
 _ZN3KJS8JSObjectD0Ev@Base 4:4.7.2
 _ZN3KJS8JSObjectD1Ev@Base 4:4.7.2
 _ZN3KJS8JSObjectD2Ev@Base 4:4.7.2
 _ZN3KJS8isNegInfEd@Base 4:4.3.4
 _ZN3KJS8isPosInfEd@Base 4:4.3.4
 _ZN3KJS8jsStringEPKc@Base 4:4.3.4
 _ZN3KJS8jsStringEPKci@Base 4:4.3.4
 _ZN3KJS8jsStringERKNS_7UStringE@Base 4:4.3.4
 _ZN3KJS8jsStringEv@Base 4:4.3.4
 _ZN3KJS9Collector10memoryFullE@Base 4:4.3.4
 _ZN3KJS9Collector15numInterpretersEv@Base 4:4.3.4
 (subst)_ZN3KJS9Collector15recordExtraCostE{size_t}@Base 4:4.3.4
 _ZN3KJS9Collector19numProtectedObjectsEv@Base 4:4.3.4
 _ZN3KJS9Collector20markProtectedObjectsEv@Base 4:4.3.4
 _ZN3KJS9Collector20rootObjectTypeCountsEv@Base 4:4.3.4
 _ZN3KJS9Collector30markStackObjectsConservativelyEPvS1_@Base 4:4.3.4
 _ZN3KJS9Collector30markStackObjectsConservativelyEv@Base 4:4.3.4
 _ZN3KJS9Collector31markCurrentThreadConservativelyEv@Base 4:4.3.4
 _ZN3KJS9Collector34reportOutOfMemoryToAllInterpretersEv@Base 4:4.3.4
 _ZN3KJS9Collector4sizeEv@Base 4:4.3.4
 _ZN3KJS9Collector7collectEv@Base 4:4.3.4
 _ZN3KJS9Collector7protectEPNS_7JSValueE@Base 4:4.3.4
 (subst)_ZN3KJS9Collector8allocateE{size_t}@Base 4:4.3.4
 _ZN3KJS9Collector9unprotectEPNS_7JSValueE@Base 4:4.3.4
 _ZN3KJS9ExecState11quietUnwindEi@Base 4:4.3.4
 _ZN3KJS9ExecState12setExceptionEPNS_7JSValueE@Base 4:4.3.4
 _ZN3KJS9ExecState19popExceptionHandlerEv@Base 4:4.3.4
 _ZN3KJS9ExecState19setAbruptCompletionENS_10CompletionE@Base 4:4.3.4
 _ZN3KJS9ExecState20pushExceptionHandlerENS0_11HandlerTypeEj@Base 4:4.3.4
 _ZN3KJS9ExecState20reactivateCompletionEb@Base 4:4.3.4
 _ZN3KJS9ExecState4markEv@Base 4:4.3.4
 _ZN3KJS9ExecState8markSelfEv@Base 4:4.3.4
 _ZN3KJS9ExecStateC1EPNS_11InterpreterEPS0_@Base 4:4.3.4
 _ZN3KJS9ExecStateC2EPNS_11InterpreterEPS0_@Base 4:4.3.4
 _ZN3KJS9ExecStateD1Ev@Base 4:4.3.4
 _ZN3KJS9ExecStateD2Ev@Base 4:4.3.4
 _ZN3KJSeqERKNS_7CStringES2_@Base 4:4.3.4
 _ZN3KJSeqERKNS_7UStringEPKc@Base 4:4.3.4
 _ZN3KJSeqERKNS_7UStringES2_@Base 4:4.3.4
 _ZN3KJSltERKNS_7UStringES2_@Base 4:4.3.4
 _ZNK3KJS11FunctionImp19implementsConstructEv@Base 4:4.3.4
 _ZNK3KJS11FunctionImp8toSourceEv@Base 4:4.3.4
 _ZNK3KJS11Interpreter11builtinDateEv@Base 4:4.3.4
 _ZNK3KJS11Interpreter12builtinArrayEv@Base 4:4.3.4
 _ZNK3KJS11Interpreter12builtinErrorEv@Base 4:4.3.4
 _ZNK3KJS11Interpreter12globalObjectEv@Base 4:4.3.4
 _ZNK3KJS11Interpreter12saveBuiltinsERNS_13SavedBuiltinsE@Base 4:4.3.4
 _ZNK3KJS11Interpreter13builtinNumberEv@Base 4:4.3.4
 _ZNK3KJS11Interpreter13builtinObjectEv@Base 4:4.3.4
 _ZNK3KJS11Interpreter13builtinRegExpEv@Base 4:4.3.4
 _ZNK3KJS11Interpreter13builtinStringEv@Base 4:4.3.4
 _ZNK3KJS11Interpreter14builtinBooleanEv@Base 4:4.3.4
 _ZNK3KJS11Interpreter15builtinFunctionEv@Base 4:4.3.4
 _ZNK3KJS11Interpreter15builtinURIErrorEv@Base 4:4.3.4
 _ZNK3KJS11Interpreter16builtinEvalErrorEv@Base 4:4.3.4
 _ZNK3KJS11Interpreter16builtinTypeErrorEv@Base 4:4.3.4
 _ZNK3KJS11Interpreter17builtinRangeErrorEv@Base 4:4.3.4
 _ZNK3KJS11Interpreter18builtinSyntaxErrorEv@Base 4:4.3.4
 _ZNK3KJS11Interpreter20builtinDatePrototypeEv@Base 4:4.3.4
 _ZNK3KJS11Interpreter21builtinArrayPrototypeEv@Base 4:4.3.4
 _ZNK3KJS11Interpreter21builtinErrorPrototypeEv@Base 4:4.3.4
 _ZNK3KJS11Interpreter21builtinReferenceErrorEv@Base 4:4.3.4
 _ZNK3KJS11Interpreter22builtinNumberPrototypeEv@Base 4:4.3.4
 _ZNK3KJS11Interpreter22builtinObjectPrototypeEv@Base 4:4.3.4
 _ZNK3KJS11Interpreter22builtinRegExpPrototypeEv@Base 4:4.3.4
 _ZNK3KJS11Interpreter22builtinStringPrototypeEv@Base 4:4.3.4
 _ZNK3KJS11Interpreter23builtinBooleanPrototypeEv@Base 4:4.3.4
 _ZNK3KJS11Interpreter24builtinFunctionPrototypeEv@Base 4:4.3.4
 _ZNK3KJS11Interpreter24builtinURIErrorPrototypeEv@Base 4:4.3.4
 _ZNK3KJS11Interpreter25builtinEvalErrorPrototypeEv@Base 4:4.3.4
 _ZNK3KJS11Interpreter25builtinTypeErrorPrototypeEv@Base 4:4.3.4
 _ZNK3KJS11Interpreter26builtinRangeErrorPrototypeEv@Base 4:4.3.4
 _ZNK3KJS11Interpreter27builtinSyntaxErrorPrototypeEv@Base 4:4.3.4
 _ZNK3KJS11Interpreter30builtinReferenceErrorPrototypeEv@Base 4:4.3.4
 _ZNK3KJS11PropertyMap16getPropertyNamesERNS_17PropertyNameArrayENS0_12PropertyModeE@Base 4:4.8.4
 _ZNK3KJS11PropertyMap24containsGettersOrSettersEv@Base 4:4.3.4
 _ZNK3KJS11PropertyMap3getERKNS_10IdentifierE@Base 4:4.3.4
 _ZNK3KJS11PropertyMap3getERKNS_10IdentifierERj@Base 4:4.3.4
 _ZNK3KJS11PropertyMap4markEv@Base 4:4.3.4
 _ZNK3KJS11PropertyMap4saveERNS_15SavedPropertiesE@Base 4:4.3.4
 _ZNK3KJS11PropertyMap7isEmptyEv@Base 4:4.3.4
 _ZNK3KJS13ArrayInstance7getItemEj@Base 4:4.3.4
 _ZNK3KJS19InternalFunctionImp14implementsCallEv@Base 4:4.3.4
 _ZNK3KJS19InternalFunctionImp21implementsHasInstanceEv@Base 4:4.3.4
 _ZNK3KJS4List4copyEv@Base 4:4.3.4
 _ZNK3KJS4List8copyTailEv@Base 4:4.3.4
 _ZNK3KJS6JSCell14implementsCallEv@Base 4:4.3.4
 _ZNK3KJS6JSCell17getTruncatedInt32ERi@Base 4:4.3.4
 _ZNK3KJS6JSCell18getTruncatedUInt32ERj@Base 4:4.3.4
 _ZNK3KJS6JSCell9getNumberERd@Base 4:4.3.4
 _ZNK3KJS6JSCell9getNumberEv@Base 4:4.3.4
 _ZNK3KJS6JSCell9getObjectEv@Base 4:4.3.4
 _ZNK3KJS6JSCell9getStringERNS_7UStringE@Base 4:4.3.4
 _ZNK3KJS6JSCell9getStringEv@Base 4:4.3.4
 _ZNK3KJS6JSCell9getUInt32ERj@Base 4:4.3.4
 _ZNK3KJS7JSValue10getByIndexEPNS_9ExecStateEj@Base 4:4.3.4
 _ZNK3KJS7JSValue15toInt32SlowCaseEPNS_9ExecStateERb@Base 4:4.3.4
 _ZNK3KJS7JSValue16toUInt32SlowCaseEPNS_9ExecStateERb@Base 4:4.3.4
 _ZNK3KJS7JSValue20toIntegerPreserveNaNEPNS_9ExecStateE@Base 4:4.3.4
 _ZNK3KJS7JSValue7toFloatEPNS_9ExecStateE@Base 4:4.3.4
 _ZNK3KJS7JSValue8toUInt16EPNS_9ExecStateE@Base 4:4.3.4
 _ZNK3KJS7JSValue9toIntegerEPNS_9ExecStateE@Base 4:4.3.4
 _ZNK3KJS7UString10UTF8StringEv@Base 4:4.3.4
 _ZNK3KJS7UString14toStrictUInt32EPb@Base 4:4.3.4
 _ZNK3KJS7UString30spliceSubstringsWithSeparatorsEPKNS0_5RangeEiPKS0_i@Base 4:4.3.4
 _ZNK3KJS7UString4findENS_5UCharEi@Base 4:4.3.4
 _ZNK3KJS7UString4findERKS0_i@Base 4:4.3.4
 _ZNK3KJS7UString5asciiEv@Base 4:4.3.4
 _ZNK3KJS7UString5rfindENS_5UCharEi@Base 4:4.3.4
 _ZNK3KJS7UString5rfindERKS0_i@Base 4:4.3.4
 _ZNK3KJS7UString6is8BitEv@Base 4:4.3.4
 _ZNK3KJS7UString6substrEii@Base 4:4.3.4
 _ZNK3KJS7UString7cstringEv@Base 4:4.3.4
 _ZNK3KJS7UString8toDoubleEb@Base 4:4.3.4
 _ZNK3KJS7UString8toDoubleEbb@Base 4:4.3.4
 _ZNK3KJS7UString8toDoubleEv@Base 4:4.3.4
 _ZNK3KJS7UStringixEi@Base 4:4.3.4
 _ZNK3KJS8Debugger18shouldReportCaughtEv@Base 4:4.3.4
 _ZNK3KJS8Debugger21shouldReindentSourcesEv@Base 4:4.3.4
 _ZNK3KJS8JSObject10valueCloneEPNS_11InterpreterE@Base 4:4.5.2
 _ZNK3KJS8JSObject11hasPropertyEPNS_9ExecStateERKNS_10IdentifierE@Base 4:4.3.4
 _ZNK3KJS8JSObject11hasPropertyEPNS_9ExecStateEj@Base 4:4.3.4
 _ZNK3KJS8JSObject11toPrimitiveEPNS_9ExecStateENS_6JSTypeE@Base 4:4.3.4
 _ZNK3KJS8JSObject12defaultValueEPNS_9ExecStateENS_6JSTypeE@Base 4:4.3.4
 _ZNK3KJS8JSObject14isFunctionTypeEv@Base 4:4.3.4
 _ZNK3KJS8JSObject19implementsConstructEv@Base 4:4.3.4
 _ZNK3KJS8JSObject20propertyIsEnumerableEPNS_9ExecStateERKNS_10IdentifierE@Base 4:4.3.4
 _ZNK3KJS8JSObject21findPropertyHashEntryERKNS_10IdentifierE@Base 4:4.3.4
 _ZNK3KJS8JSObject21getPropertyAttributesERKNS_10IdentifierERj@Base 4:4.3.4
 _ZNK3KJS8JSObject21implementsHasInstanceEv@Base 4:4.3.4
 _ZNK3KJS8JSObject3getEPNS_9ExecStateERKNS_10IdentifierE@Base 4:4.3.4
 _ZNK3KJS8JSObject3getEPNS_9ExecStateEj@Base 4:4.3.4
 _ZNK3KJS8JSObject4typeEv@Base 4:4.3.4
 _ZNK3KJS8JSObject6canPutEPNS_9ExecStateERKNS_10IdentifierE@Base 4:4.3.4
 _ZNK3KJS8JSObject8toNumberEPNS_9ExecStateE@Base 4:4.3.4
 _ZNK3KJS8JSObject8toObjectEPNS_9ExecStateE@Base 4:4.3.4
 _ZNK3KJS8JSObject8toStringEPNS_9ExecStateE@Base 4:4.3.4
 _ZNK3KJS8JSObject9classInfoEv@Base 4:4.3.4
 _ZNK3KJS8JSObject9classNameEv@Base 4:4.3.4
 _ZNK3KJS8JSObject9toBooleanEPNS_9ExecStateE@Base 4:4.3.4
 _ZNK3KJS9ExecState18lexicalInterpreterEv@Base 4:4.3.4
 _ZTIN14WTFNoncopyable11NoncopyableE@Base 4:4.3.4
 _ZTIN3KJS11FunctionImpE@Base 4:4.3.4
 _ZTIN3KJS11InterpreterE@Base 4:4.3.4
 _ZTIN3KJS13ArrayInstanceE@Base 4:4.3.4
 _ZTIN3KJS13PackageObjectE@Base 4:4.3.4
 _ZTIN3KJS14JSGlobalObjectE@Base 4:4.3.4
 _ZTIN3KJS15ObjectPrototypeE@Base 4:4.3.4
 _ZTIN3KJS19InternalFunctionImpE@Base 4:4.3.4
 _ZTIN3KJS21StandardGlobalPackageE@Base 4:4.3.4
 _ZTIN3KJS6JSCellE@Base 4:4.3.4
 _ZTIN3KJS7JSValueE@Base 4:4.3.4
 _ZTIN3KJS7PackageE@Base 4:4.3.4
 _ZTIN3KJS8DebuggerE@Base 4:4.3.4
 _ZTIN3KJS8JSObjectE@Base 4:4.3.4
 _ZTSN14WTFNoncopyable11NoncopyableE@Base 4:4.3.4
 _ZTSN3KJS11FunctionImpE@Base 4:4.3.4
 _ZTSN3KJS11InterpreterE@Base 4:4.3.4
 _ZTSN3KJS13ArrayInstanceE@Base 4:4.3.4
 _ZTSN3KJS13PackageObjectE@Base 4:4.3.4
 _ZTSN3KJS14JSGlobalObjectE@Base 4:4.3.4
 _ZTSN3KJS15ObjectPrototypeE@Base 4:4.3.4
 _ZTSN3KJS19InternalFunctionImpE@Base 4:4.3.4
 _ZTSN3KJS21StandardGlobalPackageE@Base 4:4.3.4
 _ZTSN3KJS6JSCellE@Base 4:4.3.4
 _ZTSN3KJS7JSValueE@Base 4:4.3.4
 _ZTSN3KJS7PackageE@Base 4:4.3.4
 _ZTSN3KJS8DebuggerE@Base 4:4.3.4
 _ZTSN3KJS8JSObjectE@Base 4:4.3.4
 _ZTVN3KJS11FunctionImpE@Base 4:4.3.4
 _ZTVN3KJS11InterpreterE@Base 4:4.3.4
 _ZTVN3KJS13ArrayInstanceE@Base 4:4.3.4
 _ZTVN3KJS13PackageObjectE@Base 4:4.3.4
 _ZTVN3KJS14JSGlobalObjectE@Base 4:4.3.4
 _ZTVN3KJS15ObjectPrototypeE@Base 4:4.3.4
 _ZTVN3KJS19InternalFunctionImpE@Base 4:4.3.4
 _ZTVN3KJS21StandardGlobalPackageE@Base 4:4.3.4
 _ZTVN3KJS6JSCellE@Base 4:4.3.4
 _ZTVN3KJS7JSValueE@Base 4:4.3.4
 _ZTVN3KJS7PackageE@Base 4:4.3.4
 _ZTVN3KJS8DebuggerE@Base 4:4.3.4
 _ZTVN3KJS8JSObjectE@Base 4:4.3.4
libkjsapi.so.4 libkjsapi4 #MINVER#
* Build-Depends-Package: kdelibs5-dev
 _ZN10KJSBooleanC1Eb@Base 4:4.3.4
 _ZN10KJSBooleanC2Eb@Base 4:4.3.4
 _ZN10KJSContext11interpreterEv@Base 4:4.3.4
 _ZN10KJSContextC1EP16KJSContextHandle@Base 4:4.3.4
 _ZN10KJSContextC2EP16KJSContextHandle@Base 4:4.3.4
 _ZN12KJSPrototype14defineConstantERK7QStringRK9KJSObject@Base 4:4.3.4
 _ZN12KJSPrototype14defineConstantERK7QStringS2_@Base 4:4.3.4
 _ZN12KJSPrototype14defineConstantERK7QStringd@Base 4:4.3.4
 _ZN12KJSPrototype14defineFunctionEP10KJSContextRK7QStringPF9KJSObjectS1_PvRK12KJSArgumentsE@Base 4:4.3.4
 _ZN12KJSPrototype14definePropertyEP10KJSContextRK7QStringPF9KJSObjectS1_PvEPFvS1_S6_S5_E@Base 4:4.3.4
 _ZN12KJSPrototype15constructObjectEP10KJSContextPv@Base 4:4.3.4
 _ZN12KJSPrototype21constructGlobalObjectEPv@Base 4:4.3.4
 _ZN12KJSPrototypeC1Ev@Base 4:4.3.4
 _ZN12KJSPrototypeC2Ev@Base 4:4.3.4
 _ZN12KJSPrototypeD1Ev@Base 4:4.3.4
 _ZN12KJSPrototypeD2Ev@Base 4:4.3.4
 _ZN12KJSUndefinedC1Ev@Base 4:4.3.4
 _ZN12KJSUndefinedC2Ev@Base 4:4.3.4
 _ZN14KJSInterpreter12globalObjectEv@Base 4:4.3.4
 _ZN14KJSInterpreter13globalContextEv@Base 4:4.3.4
 _ZN14KJSInterpreter13normalizeCodeERK7QStringPS0_PiS3_@Base 4:4.3.4
 _ZN14KJSInterpreter8evaluateERK7QStringP9KJSObject@Base 4:4.3.4
 _ZN14KJSInterpreter8evaluateERK7QStringiS2_P9KJSObject@Base 4:4.3.4
 _ZN14KJSInterpreterC1EP20KJSInterpreterHandle@Base 4:4.3.4
 _ZN14KJSInterpreterC1ERK15KJSGlobalObject@Base 4:4.3.4
 _ZN14KJSInterpreterC1ERKS_@Base 4:4.3.4
 _ZN14KJSInterpreterC1Ev@Base 4:4.3.4
 _ZN14KJSInterpreterC2EP20KJSInterpreterHandle@Base 4:4.3.4
 _ZN14KJSInterpreterC2ERK15KJSGlobalObject@Base 4:4.3.4
 _ZN14KJSInterpreterC2ERKS_@Base 4:4.3.4
 _ZN14KJSInterpreterC2Ev@Base 4:4.3.4
 _ZN14KJSInterpreterD1Ev@Base 4:4.3.4
 _ZN14KJSInterpreterD2Ev@Base 4:4.3.4
 _ZN14KJSInterpreteraSERKS_@Base 4:4.3.4
 _ZN15KJSGlobalObjectC1Ev@Base 4:4.3.4
 _ZN15KJSGlobalObjectC2Ev@Base 4:4.3.4
 (arch=kfreebsd-amd64 kfreebsd-i386)_ZN3KJS10IdentifierD1Ev@Base 4:4.7.4
 (arch=kfreebsd-amd64 kfreebsd-i386)_ZN3KJS10IdentifierD2Ev@Base 4:4.7.4
 _ZN3KJS14JSGlobalObjectD0Ev@Base 4:4.7.2
 _ZN3KJS14JSGlobalObjectD1Ev@Base 4:4.7.2
 _ZN3KJS14JSGlobalObjectD2Ev@Base 4:4.7.2
 (arch=!armel !armhf)_ZN3KJS6JSCell4markEv@Base 4:4.3.4
 (arch=!armel !armhf)_ZN3KJS6JSCellD0Ev@Base 4:4.3.4
 (arch=!armel !armhf)_ZN3KJS6JSCellD1Ev@Base 4:4.3.4
 (arch=!armel !armhf)_ZN3KJS6JSCellD2Ev@Base 4:4.7.4
 _ZN3KJS7JSValueD0Ev@Base 4:4.3.4
 _ZN3KJS7JSValueD1Ev@Base 4:4.3.4
 _ZN3KJS7JSValueD2Ev@Base 4:4.7.2
 (arch=kfreebsd-amd64 kfreebsd-i386)_ZN3KJS8JSObjectD0Ev@Base 4:4.6.5
 (arch=kfreebsd-amd64 kfreebsd-i386)_ZN3KJS8JSObjectD1Ev@Base 4:4.6.5
 (arch=kfreebsd-amd64 kfreebsd-i386)_ZN3KJS8JSObjectD2Ev@Base 4:4.6.5
 _ZN7KJSDateC1EP10KJSContextRK9QDateTime@Base 4:4.3.4
 _ZN7KJSDateC2EP10KJSContextRK9QDateTime@Base 4:4.3.4
 _ZN7KJSNullC1Ev@Base 4:4.3.4
 _ZN7KJSNullC2Ev@Base 4:4.3.4
 _ZN8KJSArrayC1EP10KJSContexti@Base 4:4.3.4
 _ZN8KJSArrayC2EP10KJSContexti@Base 4:4.3.4
 _ZN9KJSNumberC1Ed@Base 4:4.3.4
 _ZN9KJSNumberC2Ed@Base 4:4.3.4
 _ZN9KJSObject11setPropertyEP10KJSContextRK7QStringPKc@Base 4:4.3.4
 _ZN9KJSObject11setPropertyEP10KJSContextRK7QStringRKS_@Base 4:4.3.4
 _ZN9KJSObject11setPropertyEP10KJSContextRK7QStringS4_@Base 4:4.3.4
 _ZN9KJSObject11setPropertyEP10KJSContextRK7QStringb@Base 4:4.3.4
 _ZN9KJSObject11setPropertyEP10KJSContextRK7QStringd@Base 4:4.3.4
 _ZN9KJSObject11setPropertyEP10KJSContextRK7QStringi@Base 4:4.3.4
 _ZN9KJSObject7toInt32EP10KJSContext@Base 4:4.3.4
 _ZN9KJSObject8propertyEP10KJSContextRK7QString@Base 4:4.3.4
 _ZN9KJSObject8toNumberEP10KJSContext@Base 4:4.3.4
 _ZN9KJSObject8toStringEP10KJSContext@Base 4:4.3.4
 _ZN9KJSObject9toBooleanEP10KJSContext@Base 4:4.3.4
 _ZN9KJSObjectC1ERKS_@Base 4:4.3.4
 _ZN9KJSObjectC1Ev@Base 4:4.3.4
 _ZN9KJSObjectC2ERKS_@Base 4:4.3.4
 _ZN9KJSObjectC2Ev@Base 4:4.3.4
 _ZN9KJSObjectD1Ev@Base 4:4.3.4
 _ZN9KJSObjectD2Ev@Base 4:4.3.4
 _ZN9KJSObjectaSERKS_@Base 4:4.3.4
 _ZN9KJSResultC1ERKS_@Base 4:4.3.4
 _ZN9KJSResultC1Ev@Base 4:4.3.4
 _ZN9KJSResultC2ERKS_@Base 4:4.3.4
 _ZN9KJSResultC2Ev@Base 4:4.3.4
 _ZN9KJSResultD1Ev@Base 4:4.3.4
 _ZN9KJSResultD2Ev@Base 4:4.3.4
 _ZN9KJSResultaSERKS_@Base 4:4.3.4
 _ZN9KJSStringC1EPKc@Base 4:4.3.4
 _ZN9KJSStringC1ERK7QString@Base 4:4.3.4
 _ZN9KJSStringC2EPKc@Base 4:4.3.4
 _ZN9KJSStringC2ERK7QString@Base 4:4.3.4
 _ZNK10KJSContext12hasExceptionEv@Base 4:4.3.4
 _ZNK10KJSContext14throwExceptionERK7QString@Base 4:4.3.4
 _ZNK12KJSArguments2atEi@Base 4:4.3.4
 _ZNK12KJSArguments5countEv@Base 4:4.3.4
 _ZNK3KJS8JSObject11toPrimitiveEPNS_9ExecStateENS_6JSTypeE@Base 4:4.3.4
 _ZNK9KJSObject11isUndefinedEv@Base 4:4.3.4
 _ZNK9KJSObject6isNullEv@Base 4:4.3.4
 _ZNK9KJSObject8isNumberEv@Base 4:4.3.4
 _ZNK9KJSObject8isObjectEv@Base 4:4.3.4
 _ZNK9KJSObject8isStringEv@Base 4:4.3.4
 _ZNK9KJSObject9isBooleanEv@Base 4:4.3.4
 _ZNK9KJSResult11isExceptionEv@Base 4:4.3.4
 _ZNK9KJSResult12errorMessageEv@Base 4:4.3.4
 _ZNK9KJSResult5valueEv@Base 4:4.3.4
 _ZTIN14WTFNoncopyable11NoncopyableE@Base 4:4.3.4
 _ZTIN3KJS14JSGlobalObjectE@Base 4:4.3.4
 (arch=!armel !armhf)_ZTIN3KJS6JSCellE@Base 4:4.3.4
 _ZTIN3KJS7JSValueE@Base 4:4.3.4
 _ZTSN14WTFNoncopyable11NoncopyableE@Base 4:4.3.4
 _ZTSN3KJS14JSGlobalObjectE@Base 4:4.3.4
 (arch=!armel !armhf)_ZTSN3KJS6JSCellE@Base 4:4.3.4
 _ZTSN3KJS7JSValueE@Base 4:4.3.4
 _ZTVN3KJS14JSGlobalObjectE@Base 4:4.3.4
 (arch=!armel !armhf)_ZTVN3KJS6JSCellE@Base 4:4.3.4
 _ZTVN3KJS7JSValueE@Base 4:4.3.4
