# SymbolsHelper-Confirmed: 4:4.5.85 amd64
libkdesu.so.5 libkdesu5 #MINVER#
* Build-Depends-Package: kdelibs5-dev
 _ZN5KDESu10PtyProcess10unreadLineERK10QByteArrayb@Base 4:4.3.4
 _ZN5KDESu10PtyProcess11setTerminalEb@Base 4:4.3.4
 _ZN5KDESu10PtyProcess12virtual_hookEiPv@Base 4:4.3.4
 _ZN5KDESu10PtyProcess12waitForChildEv@Base 4:4.3.4
 _ZN5KDESu10PtyProcess13setExitStringERK10QByteArray@Base 4:4.3.4
 _ZN5KDESu10PtyProcess14checkPidExitedEi@Base 4:4.3.4
 _ZN5KDESu10PtyProcess14setEnvironmentERK5QListI10QByteArrayE@Base 4:4.3.4
 _ZN5KDESu10PtyProcess15enableLocalEchoEb@Base 4:4.3.4
 _ZN5KDESu10PtyProcess4execERK10QByteArrayRK5QListIS1_E@Base 4:4.3.4
 _ZN5KDESu10PtyProcess4initEv@Base 4:4.3.4
 _ZN5KDESu10PtyProcess6waitMSEii@Base 4:4.3.4
 _ZN5KDESu10PtyProcess7readAllEb@Base 4:4.3.4
 _ZN5KDESu10PtyProcess8checkPidEi@Base 4:4.3.4
 _ZN5KDESu10PtyProcess8readLineEb@Base 4:4.3.4
 _ZN5KDESu10PtyProcess8setEraseEb@Base 4:4.3.4
 _ZN5KDESu10PtyProcess8setupTTYEv@Base 4:4.3.4
 _ZN5KDESu10PtyProcess9WaitSlaveEv@Base 4:4.3.4
 _ZN5KDESu10PtyProcess9writeLineERK10QByteArrayb@Base 4:4.3.4
 _ZN5KDESu10PtyProcessC1Ev@Base 4:4.3.4
 _ZN5KDESu10PtyProcessC2Ev@Base 4:4.3.4
 _ZN5KDESu10PtyProcessD0Ev@Base 4:4.3.4
 _ZN5KDESu10PtyProcessD1Ev@Base 4:4.3.4
 _ZN5KDESu10PtyProcessD2Ev@Base 4:4.3.4
 _ZN5KDESu10SshProcess11ConverseSshEPKci@Base 4:4.3.4
 _ZN5KDESu10SshProcess11displayAuthEv@Base 4:4.3.4
 _ZN5KDESu10SshProcess12checkInstallEPKc@Base 4:4.3.4
 _ZN5KDESu10SshProcess12virtual_hookEiPv@Base 4:4.3.4
 _ZN5KDESu10SshProcess17checkNeedPasswordEv@Base 4:4.3.4
 _ZN5KDESu10SshProcess4execEPKci@Base 4:4.3.4
 _ZN5KDESu10SshProcess7displayEv@Base 4:4.3.4
 _ZN5KDESu10SshProcess7setHostERK10QByteArray@Base 4:4.3.4
 _ZN5KDESu10SshProcess7setStubERK10QByteArray@Base 4:4.3.4
 _ZN5KDESu10SshProcessC1ERK10QByteArrayS3_S3_@Base 4:4.3.4
 _ZN5KDESu10SshProcessC2ERK10QByteArrayS3_S3_@Base 4:4.3.4
 _ZN5KDESu10SshProcessD0Ev@Base 4:4.3.4
 _ZN5KDESu10SshProcessD1Ev@Base 4:4.3.4
 _ZN5KDESu10SshProcessD2Ev@Base 4:4.3.4
 _ZN5KDESu11KDEsuClient10delCommandERK10QByteArrayS3_@Base 4:4.3.4
 _ZN5KDESu11KDEsuClient10stopServerEv@Base 4:4.3.4
 _ZN5KDESu11KDEsuClient11setPriorityEi@Base 4:4.3.4
 _ZN5KDESu11KDEsuClient11startServerEv@Base 4:4.3.4
 _ZN5KDESu11KDEsuClient12isServerSGIDEv@Base 4:4.3.4
 _ZN5KDESu11KDEsuClient12setSchedulerEi@Base 4:4.3.4
 _ZN5KDESu11KDEsuClient4execERK10QByteArrayS3_S3_RK5QListIS1_E@Base 4:4.3.4
 _ZN5KDESu11KDEsuClient4pingEv@Base 4:4.3.4
 _ZN5KDESu11KDEsuClient6delVarERK10QByteArray@Base 4:4.3.4
 _ZN5KDESu11KDEsuClient6escapeERK10QByteArray@Base 4:4.3.4
 _ZN5KDESu11KDEsuClient6getVarERK10QByteArray@Base 4:4.3.4
 _ZN5KDESu11KDEsuClient6setVarERK10QByteArrayS3_iS3_@Base 4:4.3.4
 _ZN5KDESu11KDEsuClient7commandERK10QByteArrayPS1_@Base 4:4.3.4
 _ZN5KDESu11KDEsuClient7connectEv@Base 4:4.3.4
 _ZN5KDESu11KDEsuClient7delVarsERK10QByteArray@Base 4:4.3.4
 _ZN5KDESu11KDEsuClient7getKeysERK10QByteArray@Base 4:4.3.4
 _ZN5KDESu11KDEsuClient7setHostERK10QByteArray@Base 4:4.3.4
 _ZN5KDESu11KDEsuClient7setPassEPKci@Base 4:4.3.4
 _ZN5KDESu11KDEsuClient8delGroupERK10QByteArray@Base 4:4.3.4
 _ZN5KDESu11KDEsuClient8exitCodeEv@Base 4:4.3.4
 _ZN5KDESu11KDEsuClient9findGroupERK10QByteArray@Base 4:4.3.4
 _ZN5KDESu11KDEsuClientC1Ev@Base 4:4.3.4
 _ZN5KDESu11KDEsuClientC2Ev@Base 4:4.3.4
 _ZN5KDESu11KDEsuClientD1Ev@Base 4:4.3.4
 _ZN5KDESu11KDEsuClientD2Ev@Base 4:4.3.4
 _ZN5KDESu11StubProcess10setCommandERK10QByteArray@Base 4:4.3.4
 _ZN5KDESu11StubProcess11displayAuthEv@Base 4:4.3.4
 _ZN5KDESu11StubProcess11setPriorityEi@Base 4:4.3.4
 _ZN5KDESu11StubProcess11writeStringERK10QByteArray@Base 4:4.5.85
 _ZN5KDESu11StubProcess12ConverseStubEi@Base 4:4.3.4
 _ZN5KDESu11StubProcess12setSchedulerEi@Base 4:4.3.4
 _ZN5KDESu11StubProcess12virtual_hookEiPv@Base 4:4.3.4
 _ZN5KDESu11StubProcess18commaSeparatedListERK5QListI10QByteArrayE@Base 4:4.3.4
 _ZN5KDESu11StubProcess7displayEv@Base 4:4.3.4
 _ZN5KDESu11StubProcess7setUserERK10QByteArray@Base 4:4.3.4
 _ZN5KDESu11StubProcess8setXOnlyEb@Base 4:4.3.4
 _ZN5KDESu11StubProcessC1Ev@Base 4:4.3.4
 _ZN5KDESu11StubProcessC2Ev@Base 4:4.3.4
 _ZN5KDESu11StubProcessD0Ev@Base 4:4.3.4
 _ZN5KDESu11StubProcessD1Ev@Base 4:4.3.4
 _ZN5KDESu11StubProcessD2Ev@Base 4:4.3.4
 _ZN5KDESu9SuProcess10ConverseSUEPKc@Base 4:4.3.4
 _ZN5KDESu9SuProcess12checkInstallEPKc@Base 4:4.3.4
 _ZN5KDESu9SuProcess12virtual_hookEiPv@Base 4:4.3.4
 _ZN5KDESu9SuProcess16superUserCommandEv@Base 4:4.3.4
 _ZN5KDESu9SuProcess17checkNeedPasswordEv@Base 4:4.3.4
 _ZN5KDESu9SuProcess19useUsersOwnPasswordEv@Base 4:4.3.4
 _ZN5KDESu9SuProcess4execEPKci@Base 4:4.3.4
 _ZN5KDESu9SuProcessC1ERK10QByteArrayS3_@Base 4:4.3.4
 _ZN5KDESu9SuProcessC2ERK10QByteArrayS3_@Base 4:4.3.4
 _ZN5KDESu9SuProcessD0Ev@Base 4:4.3.4
 _ZN5KDESu9SuProcessD1Ev@Base 4:4.3.4
 _ZN5KDESu9SuProcessD2Ev@Base 4:4.3.4
 _ZNK5KDESu10PtyProcess11environmentEv@Base 4:4.3.4
 _ZNK5KDESu10PtyProcess2fdEv@Base 4:4.3.4
 _ZNK5KDESu10PtyProcess3pidEv@Base 4:4.3.4
 _ZNK5KDESu10SshProcess5errorEv@Base 4:4.3.4
 _ZNK5KDESu10SshProcess6promptEv@Base 4:4.3.4
 _ZTIN5KDESu10PtyProcessE@Base 4:4.3.4
 _ZTIN5KDESu10SshProcessE@Base 4:4.3.4
 _ZTIN5KDESu11StubProcessE@Base 4:4.3.4
 _ZTIN5KDESu9SuProcessE@Base 4:4.3.4
 _ZTSN5KDESu10PtyProcessE@Base 4:4.3.4
 _ZTSN5KDESu10SshProcessE@Base 4:4.3.4
 _ZTSN5KDESu11StubProcessE@Base 4:4.3.4
 _ZTSN5KDESu9SuProcessE@Base 4:4.3.4
 _ZTVN5KDESu10PtyProcessE@Base 4:4.3.4
 _ZTVN5KDESu10SshProcessE@Base 4:4.3.4
 _ZTVN5KDESu11StubProcessE@Base 4:4.3.4
 _ZTVN5KDESu9SuProcessE@Base 4:4.3.4
