# SymbolsHelper-Confirmed: 4:4.3.4 alpha amd64 armel hppa i386 ia64 kfreebsd-amd64 kfreebsd-i386 mips mipsel powerpc s390 sparc
libkimproxy.so.4 libkimproxy4 #MINVER#
* Build-Depends-Package: kdelibs5-dev
 _ZN8KIMProxy10addContactERK7QStringS2_@Base 4:4.3.4
 _ZN8KIMProxy10canRespondERK7QString@Base 4:4.3.4
 _ZN8KIMProxy10initializeEv@Base 4:4.3.4
 _ZN8KIMProxy10stubForUidERK7QString@Base 4:4.3.4
 _ZN8KIMProxy11allContactsEv@Base 4:4.3.4
 _ZN8KIMProxy11displayNameERK7QString@Base 4:4.3.4
 _ZN8KIMProxy11qt_metacallEN11QMetaObject4CallEiPPv@Base 4:4.3.4
 _ZN8KIMProxy11qt_metacastEPKc@Base 4:4.3.4
 _ZN8KIMProxy12preferredAppEv@Base 4:4.3.4
 _ZN8KIMProxy12presenceIconERK7QString@Base 4:4.3.4
 _ZN8KIMProxy14messageContactERK7QStringS2_@Base 4:4.3.4
 _ZN8KIMProxy14onlineContactsEv@Base 4:4.3.4
 _ZN8KIMProxy14presenceStringERK7QString@Base 4:4.3.4
 _ZN8KIMProxy15canReceiveFilesERK7QString@Base 4:4.3.4
 _ZN8KIMProxy15chatWithContactERK7QString@Base 4:4.3.4
 _ZN8KIMProxy15imAppsAvailableEv@Base 4:4.3.4
 _ZN8KIMProxy15presenceNumericERK7QString@Base 4:4.3.4
 _ZN8KIMProxy15stubForProtocolERK7QString@Base 4:4.3.4
 _ZN8KIMProxy16nameOwnerChangedERK7QStringS2_S2_@Base 4:4.3.4
 _ZN8KIMProxy16staticMetaObjectE@Base 4:4.3.4
 _ZN8KIMProxy17reachableContactsEv@Base 4:4.3.4
 _ZN8KIMProxy17startPreferredAppEv@Base 4:4.3.4
 _ZN8KIMProxy20fileTransferContactsEv@Base 4:4.3.4
 _ZN8KIMProxy22contactPresenceChangedERK7QStringS2_i@Base 4:4.3.4
 _ZN8KIMProxy22sigPresenceInfoExpiredEv@Base 4:4.3.4
 _ZN8KIMProxy25sigContactPresenceChangedERK7QString@Base 4:4.3.4
 _ZN8KIMProxy6locateERK7QStringS2_@Base 4:4.3.4
 _ZN8KIMProxy7contextERK7QString@Base 4:4.3.4
 _ZN8KIMProxy7pollAllERK7QString@Base 4:4.3.4
 _ZN8KIMProxy7pollAppERK7QString@Base 4:4.3.4
 _ZN8KIMProxy8instanceEv@Base 4:4.3.4
 _ZN8KIMProxy8sendFileERK7QStringS2_S2_j@Base 4:4.3.4
 _ZN8KIMProxy9isPresentERK7QString@Base 4:4.3.4
 _ZN8KIMProxyC1Ev@Base 4:4.3.4
 _ZN8KIMProxyC2Ev@Base 4:4.3.4
 _ZN8KIMProxyD0Ev@Base 4:4.3.4
 _ZN8KIMProxyD1Ev@Base 4:4.3.4
 _ZN8KIMProxyD2Ev@Base 4:4.3.4
 _ZNK8KIMProxy10metaObjectEv@Base 4:4.3.4
 _ZTI8KIMProxy@Base 4:4.3.4
 _ZTS8KIMProxy@Base 4:4.3.4
 _ZTV8KIMProxy@Base 4:4.3.4
