# SymbolsHelper-Confirmed: 4:4.8.4 amd64 armel armhf hurd-i386 i386 ia64 kfreebsd-amd64 kfreebsd-i386 powerpc s390 s390x sparc
libkde3support.so.4 libkde3support4 #MINVER#
* Build-Depends-Package: kdelibs5-dev
 _ZN10K3DockArea11qt_metacallEN11QMetaObject4CallEiPPv@Base 4:4.3.4
 _ZN10K3DockArea11qt_metacastEPKc@Base 4:4.3.4
 _ZN10K3DockArea11resizeEventEP12QResizeEvent@Base 4:4.3.4
 _ZN10K3DockArea12activateDockEv@Base 4:4.3.4
 _ZN10K3DockArea12virtual_hookEiPv@Base 4:4.3.4
 _ZN10K3DockArea14readDockConfigEP7KConfigRK7QString@Base 4:4.3.4
 _ZN10K3DockArea14readDockConfigER11QDomElement@Base 4:4.3.4
 _ZN10K3DockArea15makeDockVisibleEP12K3DockWidget@Base 4:4.3.4
 _ZN10K3DockArea15writeDockConfigEP7KConfigRK7QString@Base 4:4.3.4
 _ZN10K3DockArea15writeDockConfigER11QDomElement@Base 4:4.3.4
 _ZN10K3DockArea16createDockWidgetERK7QStringRK7QPixmapP7QWidgetS2_S2_@Base 4:4.3.4
 _ZN10K3DockArea16dockHideShowMenuEv@Base 4:4.3.4
 _ZN10K3DockArea16staticMetaObjectE@Base 4:4.3.4
 _ZN10K3DockArea17getMainDockWidgetEv@Base 4:4.3.4
 _ZN10K3DockArea17makeDockInvisibleEP12K3DockWidget@Base 4:4.3.4
 _ZN10K3DockArea17setMainDockWidgetEP12K3DockWidget@Base 4:4.3.4
 _ZN10K3DockArea21dockWidgetHasUndockedEP12K3DockWidget@Base 4:4.3.4
 _ZN10K3DockArea21makeWidgetDockVisibleEP7QWidget@Base 4:4.3.4
 _ZN10K3DockArea22slotDockWidgetUndockedEv@Base 4:4.3.4
 _ZN10K3DockArea7managerEv@Base 4:4.3.4
 _ZN10K3DockAreaC1EP7QWidgetPKc@Base 4:4.3.4
 _ZN10K3DockAreaC2EP7QWidgetPKc@Base 4:4.3.4
 _ZN10K3DockAreaD0Ev@Base 4:4.3.4
 _ZN10K3DockAreaD1Ev@Base 4:4.3.4
 _ZN10K3DockAreaD2Ev@Base 4:4.3.4
 _ZN10K3FileView10insertItemERK9KFileItem@Base 4:4.3.4
 _ZN10K3FileView10readConfigEP12KConfigGroup@Base 4:4.3.4
 _ZN10K3FileView10removeItemERK9KFileItem@Base 4:4.3.4
 _ZN10K3FileView10setSortingE6QFlagsIN4QDir8SortFlagEE@Base 4:4.3.4
 _ZN10K3FileView10sortingKeyERK7QStringb6QFlagsIN4QDir8SortFlagEE@Base 4:4.3.4
 _ZN10K3FileView10sortingKeyEyb6QFlagsIN4QDir8SortFlagEE@Base 4:4.3.4
 _ZN10K3FileView10updateViewERK9KFileItem@Base 4:4.3.4
 _ZN10K3FileView10updateViewEb@Base 4:4.3.4
 _ZN10K3FileView11addItemListERK13KFileItemList@Base 4:4.3.4
 _ZN10K3FileView11dropOptionsEv@Base 4:4.3.4
 _ZN10K3FileView11setViewModeENS_8ViewModeE@Base 4:4.3.4
 _ZN10K3FileView11setViewNameERK7QString@Base 4:4.3.4
 _ZN10K3FileView11writeConfigEP12KConfigGroup@Base 4:4.3.4
 _ZN10K3FileView12sortReversedEv@Base 4:4.3.4
 _ZN10K3FileView13autoOpenDelayEv@Base 4:4.3.4
 _ZN10K3FileView13setParentViewEPS_@Base 4:4.3.4
 _ZN10K3FileView13updateNumbersERK9KFileItem@Base 4:4.3.4
 _ZN10K3FileView14setCurrentItemERK7QString@Base 4:4.3.4
 _ZN10K3FileView14setDropOptionsEi@Base 4:4.3.4
 _ZN10K3FileView15invertSelectionEv@Base 4:4.3.4
 _ZN10K3FileView16listingCompletedEv@Base 4:4.3.4
 _ZN10K3FileView16setSelectionModeEN5KFile13SelectionModeE@Base 4:4.3.4
 _ZN10K3FileView17K3FileViewPrivate16defaultSortFlagsE@Base 4:4.3.4
 _ZN10K3FileView30setOnlyDoubleClickSelectsFilesEb@Base 4:4.3.4
 _ZN10K3FileView5clearEv@Base 4:4.3.4
 _ZN10K3FileView9selectAllEv@Base 4:4.3.4
 _ZN10K3FileViewC1Ev@Base 4:4.3.4
 _ZN10K3FileViewC2Ev@Base 4:4.3.4
 _ZN10K3FileViewD0Ev@Base 4:4.3.4
 _ZN10K3FileViewD1Ev@Base 4:4.3.4
 _ZN10K3FileViewD2Ev@Base 4:4.3.4
 _ZN10K3IconView10leaveEventEP6QEvent@Base 4:4.3.4
 _ZN10K3IconView10slotOnItemEP14Q3IconViewItem@Base 4:4.3.4
 _ZN10K3IconView10wheelEventEP11QWheelEvent@Base 4:4.3.4
 _ZN10K3IconView11emitExecuteEP14Q3IconViewItemRK6QPoint@Base 4:4.3.4
 _ZN10K3IconView11qt_metacallEN11QMetaObject4CallEiPPv@Base 4:4.3.4
 _ZN10K3IconView11qt_metacastEPKc@Base 4:4.3.4
 _ZN10K3IconView13doubleClickedEP14Q3IconViewItemRK6QPoint@Base 4:4.3.4
 _ZN10K3IconView13focusOutEventEP11QFocusEvent@Base 4:4.3.4
 _ZN10K3IconView14slotAutoSelectEv@Base 4:4.3.4
 _ZN10K3IconView14slotOnViewportEv@Base 4:4.3.4
 _ZN10K3IconView16staticMetaObjectE@Base 4:4.3.4
 _ZN10K3IconView17contentsDropEventEP10QDropEvent@Base 4:4.3.4
 _ZN10K3IconView17setIconTextHeightEi@Base 4:4.3.4
 _ZN10K3IconView18updateDragHoldItemEP10QDropEvent@Base 4:4.3.4
 _ZN10K3IconView19slotDragHoldTimeoutEv@Base 4:4.3.4
 _ZN10K3IconView19slotSettingsChangedEi@Base 4:4.3.4
 _ZN10K3IconView21contentsDragMoveEventEP14QDragMoveEvent@Base 4:4.3.4
 _ZN10K3IconView22contentsDragEnterEventEP15QDragEnterEvent@Base 4:4.3.4
 _ZN10K3IconView22contentsDragLeaveEventEP15QDragLeaveEvent@Base 4:4.3.4
 _ZN10K3IconView22slotMouseButtonClickedEiP14Q3IconViewItemRK6QPoint@Base 4:4.3.4
 _ZN10K3IconView23cancelPendingHeldSignalEv@Base 4:4.3.4
 _ZN10K3IconView23contentsMousePressEventEP11QMouseEvent@Base 4:4.3.4
 _ZN10K3IconView25contentsMouseReleaseEventEP11QMouseEvent@Base 4:4.3.4
 _ZN10K3IconView29contentsMouseDoubleClickEventEP11QMouseEvent@Base 4:4.3.4
 _ZN10K3IconView4heldEP14Q3IconViewItem@Base 4:4.3.4
 _ZN10K3IconView7setFontERK5QFont@Base 4:4.3.4
 _ZN10K3IconView7setModeENS_4ModeE@Base 4:4.3.4
 _ZN10K3IconView8executedEP14Q3IconViewItem@Base 4:4.3.4
 _ZN10K3IconView8executedEP14Q3IconViewItemRK6QPoint@Base 4:4.3.4
 _ZN10K3IconView8takeItemEP14Q3IconViewItem@Base 4:4.3.4
 _ZN10K3IconViewC1EP7QWidgetPKc6QFlagsIN2Qt10WindowTypeEE@Base 4:4.3.4
 _ZN10K3IconViewC2EP7QWidgetPKc6QFlagsIN2Qt10WindowTypeEE@Base 4:4.3.4
 _ZN10K3IconViewD0Ev@Base 4:4.3.4
 _ZN10K3IconViewD1Ev@Base 4:4.3.4
 _ZN10K3IconViewD2Ev@Base 4:4.3.4
 _ZN10K3ListView10dragObjectEv@Base 4:4.3.4
 _ZN10K3ListView10leaveEventEP6QEvent@Base 4:4.3.4
 _ZN10K3ListView10setSortingEib@Base 4:4.3.4
 _ZN10K3ListView10slotOnItemEP14Q3ListViewItem@Base 4:4.3.4
 _ZN10K3ListView11aboutToMoveEv@Base 4:4.3.4
 _ZN10K3ListView11contextMenuEPS_P14Q3ListViewItemRK6QPoint@Base 4:4.3.4
 _ZN10K3ListView11doneEditingEP14Q3ListViewItemi@Base 4:4.3.4
 _ZN10K3ListView11emitExecuteEP14Q3ListViewItemRK6QPointi@Base 4:4.3.4
 _ZN10K3ListView11itemAtIndexEi@Base 4:4.3.4
 _ZN10K3ListView11itemRemovedEP14Q3ListViewItem@Base 4:4.3.4
 _ZN10K3ListView11itemRenamedEP14Q3ListViewItem@Base 4:4.3.4
 _ZN10K3ListView11itemRenamedEP14Q3ListViewItemRK7QStringi@Base 4:4.3.4
 _ZN10K3ListView11qt_metacallEN11QMetaObject4CallEiPPv@Base 4:4.3.4
 _ZN10K3ListView11qt_metacastEPKc@Base 4:4.3.4
 _ZN10K3ListView11setAutoOpenEb@Base 4:4.3.4
 _ZN10K3ListView12focusInEventEP11QFocusEvent@Base 4:4.3.4
 _ZN10K3ListView12removeColumnEi@Base 4:4.3.4
 _ZN10K3ListView12setFullWidthEb@Base 4:4.3.4
 _ZN10K3ListView12setFullWidthEv@Base 4:4.3.4
 _ZN10K3ListView13depthToPixelsEi@Base 4:4.3.4
 _ZN10K3ListView13doubleClickedEP14Q3ListViewItemRK6QPointi@Base 4:4.3.4
 _ZN10K3ListView13focusOutEventEP11QFocusEvent@Base 4:4.3.4
 _ZN10K3ListView13isExecuteAreaERK6QPoint@Base 4:4.3.4
 _ZN10K3ListView13isExecuteAreaEi@Base 4:4.3.4
 _ZN10K3ListView13isExecuteAreaEiP14Q3ListViewItem@Base 4:4.3.4
 _ZN10K3ListView13keyPressEventEP9QKeyEvent@Base 4:4.3.4
 _ZN10K3ListView13restoreLayoutEP7KConfigRK7QString@Base 4:4.3.4
 _ZN10K3ListView13restoreLayoutER12KConfigGroup@Base 4:4.3.4
 _ZN10K3ListView13setRenameableEib@Base 4:4.3.4
 _ZN10K3ListView14setAcceptDropsEb@Base 4:4.3.4
 _ZN10K3ListView14setDragEnabledEb@Base 4:4.3.4
 _ZN10K3ListView14slotAutoSelectEv@Base 4:4.3.4
 _ZN10K3ListView14slotDragExpandEv@Base 4:4.3.4
 _ZN10K3ListView14slotOnViewportEv@Base 4:4.3.4
 _ZN10K3ListView15emitContextMenuEP14Q3ListViewItemRK6QPointi@Base 4:4.3.4
 _ZN10K3ListView15emitContextMenuEPS_P14Q3ListViewItem@Base 4:4.3.4
 _ZN10K3ListView15setItemsMovableEb@Base 4:4.3.4
 _ZN10K3ListView16movableDropEventEP14Q3ListViewItemS1_@Base 4:4.3.4
 _ZN10K3ListView16setTooltipColumnEi@Base 4:4.3.4
 _ZN10K3ListView16staticMetaObjectE@Base 4:4.3.4
 _ZN10K3ListView17contentsDropEventEP10QDropEvent@Base 4:4.3.4
 _ZN10K3ListView17setDropVisualizerEb@Base 4:4.3.4
 _ZN10K3ListView17slotHeaderChangedEv@Base 4:4.3.4
 _ZN10K3ListView18drawDropVisualizerEP8QPainterP14Q3ListViewItemS3_@Base 4:4.3.4
 _ZN10K3ListView18resetAutoSelectionEv@Base 4:4.3.4
 _ZN10K3ListView18setDropHighlighterEb@Base 4:4.3.4
 _ZN10K3ListView18setItemsRenameableEb@Base 4:4.3.4
 _ZN10K3ListView18setShadeSortColumnEb@Base 4:4.3.4
 _ZN10K3ListView18viewportPaintEventEP11QPaintEvent@Base 4:4.3.4
 _ZN10K3ListView19cleanDropVisualizerEv@Base 4:4.3.4
 _ZN10K3ListView19drawItemHighlighterEP8QPainterP14Q3ListViewItem@Base 4:4.3.4
 _ZN10K3ListView19menuShortCutPressedEPS_P14Q3ListViewItem@Base 4:4.3.4
 _ZN10K3ListView19setSelectionModeExtENS_16SelectionModeExtE@Base 4:4.3.4
 _ZN10K3ListView19slotSettingsChangedEi@Base 4:4.3.4
 _ZN10K3ListView19viewportResizeEventEP12QResizeEvent@Base 4:4.3.4
 _ZN10K3ListView20cleanItemHighlighterEv@Base 4:4.3.4
 _ZN10K3ListView20disableAutoSelectionEv@Base 4:4.3.4
 _ZN10K3ListView21contentsDragMoveEventEP14QDragMoveEvent@Base 4:4.3.4
 _ZN10K3ListView21setTabOrderedRenamingEb@Base 4:4.3.4
 _ZN10K3ListView22contentsDragEnterEventEP15QDragEnterEvent@Base 4:4.3.4
 _ZN10K3ListView22contentsDragLeaveEventEP15QDragLeaveEvent@Base 4:4.3.4
 _ZN10K3ListView22contentsMouseMoveEventEP11QMouseEvent@Base 4:4.3.4
 _ZN10K3ListView22setAlternateBackgroundERK6QColor@Base 4:4.3.4
 _ZN10K3ListView22setDropVisualizerWidthEi@Base 4:4.3.4
 _ZN10K3ListView22slotMouseButtonClickedEiP14Q3ListViewItemRK6QPointi@Base 4:4.3.4
 _ZN10K3ListView23contentsMousePressEventEP11QMouseEvent@Base 4:4.3.4
 _ZN10K3ListView24contentsContextMenuEventEP17QContextMenuEvent@Base 4:4.3.4
 _ZN10K3ListView24fileManagerKeyPressEventEP9QKeyEvent@Base 4:4.3.4
 _ZN10K3ListView25contentsMouseReleaseEventEP11QMouseEvent@Base 4:4.3.4
 _ZN10K3ListView26activateAutomaticSelectionEv@Base 4:4.3.4
 _ZN10K3ListView28deactivateAutomaticSelectionEv@Base 4:4.3.4
 _ZN10K3ListView29contentsMouseDoubleClickEventEP11QMouseEvent@Base 4:4.3.4
 _ZN10K3ListView5belowEP14Q3ListViewItemRK6QPoint@Base 4:4.3.4
 _ZN10K3ListView5belowERK5QRectRK6QPoint@Base 4:4.3.4
 _ZN10K3ListView5eventEP6QEvent@Base 4:4.3.4
 _ZN10K3ListView5movedEP14Q3ListViewItemS1_S1_@Base 4:4.3.4
 _ZN10K3ListView5movedER9Q3PtrListI14Q3ListViewItemES3_S3_@Base 4:4.3.4
 _ZN10K3ListView5movedEv@Base 4:4.3.4
 _ZN10K3ListView6renameEP14Q3ListViewItemi@Base 4:4.3.4
 _ZN10K3ListView7droppedEP10QDropEventP14Q3ListViewItem@Base 4:4.3.4
 _ZN10K3ListView7droppedEP10QDropEventP14Q3ListViewItemS3_@Base 4:4.3.4
 _ZN10K3ListView7droppedEPS_P10QDropEventP14Q3ListViewItem@Base 4:4.3.4
 _ZN10K3ListView7droppedEPS_P10QDropEventP14Q3ListViewItemS4_@Base 4:4.3.4
 _ZN10K3ListView8executedEP14Q3ListViewItem@Base 4:4.3.4
 _ZN10K3ListView8executedEP14Q3ListViewItemRK6QPointi@Base 4:4.3.4
 _ZN10K3ListView8findDropERK6QPointRP14Q3ListViewItemS5_@Base 4:4.3.4
 _ZN10K3ListView8moveItemEP14Q3ListViewItemS1_S1_@Base 4:4.3.4
 _ZN10K3ListView8takeItemEP14Q3ListViewItem@Base 4:4.3.4
 _ZN10K3ListView9addColumnERK5QIconRK7QStringi@Base 4:4.3.4
 _ZN10K3ListView9addColumnERK7QStringi@Base 4:4.3.4
 _ZN10K3ListView9itemAddedEP14Q3ListViewItem@Base 4:4.3.4
 _ZN10K3ListView9startDragEv@Base 4:4.3.4
 _ZN10K3ListViewC1EP7QWidget@Base 4:4.3.4
 _ZN10K3ListViewC2EP7QWidget@Base 4:4.3.4
 _ZN10K3ListViewD0Ev@Base 4:4.3.4
 _ZN10K3ListViewD1Ev@Base 4:4.3.4
 _ZN10K3ListViewD2Ev@Base 4:4.3.4
 _ZN10K3SpellDlg10closeEventEP11QCloseEvent@Base 4:4.3.4
 _ZN10K3SpellDlg10replaceAllEv@Base 4:4.3.4
 _ZN10K3SpellDlg11qt_metacallEN11QMetaObject4CallEiPPv@Base 4:4.3.4
 _ZN10K3SpellDlg11qt_metacastEPKc@Base 4:4.3.4
 _ZN10K3SpellDlg11textChangedERK7QString@Base 4:4.3.4
 _ZN10K3SpellDlg12slotProgressEj@Base 4:4.3.4
 _ZN10K3SpellDlg16staticMetaObjectE@Base 4:4.3.4
 _ZN10K3SpellDlg17slotConfigChangedEv@Base 4:4.3.4
 _ZN10K3SpellDlg20slotSelectionChangedEP14Q3ListViewItem@Base 4:4.3.4
 _ZN10K3SpellDlg3addEv@Base 4:4.3.4
 _ZN10K3SpellDlg4doneEi@Base 4:4.3.4
 _ZN10K3SpellDlg4initERK7QStringP11QStringList@Base 4:4.3.4
 _ZN10K3SpellDlg4initERK7QStringP11QStringListS2_@Base 4:4.3.4
 _ZN10K3SpellDlg4stopEv@Base 4:4.3.4
 _ZN10K3SpellDlg5readyEb@Base 4:4.3.4
 _ZN10K3SpellDlg6cancelEv@Base 4:4.3.4
 _ZN10K3SpellDlg6ignoreEv@Base 4:4.3.4
 _ZN10K3SpellDlg7commandEi@Base 4:4.3.4
 _ZN10K3SpellDlg7replaceEv@Base 4:4.3.4
 _ZN10K3SpellDlg7standbyEv@Base 4:4.3.4
 _ZN10K3SpellDlg7suggestEv@Base 4:4.3.4
 _ZN10K3SpellDlg9ignoreAllEv@Base 4:4.3.4
 _ZN10K3SpellDlgC1EP7QWidgetbb@Base 4:4.3.4
 _ZN10K3SpellDlgC2EP7QWidgetbb@Base 4:4.3.4
 _ZN10K3SpellDlgD0Ev@Base 4:4.3.4
 _ZN10K3SpellDlgD1Ev@Base 4:4.3.4
 _ZN10K3SpellDlgD2Ev@Base 4:4.3.4
 _ZN10K3TempFile10dataStreamEv@Base 4:4.3.4
 _ZN10K3TempFile10textStreamEv@Base 4:4.3.4
 _ZN10K3TempFile13setAutoDeleteEb@Base 4:4.3.4
 _ZN10K3TempFile4fileEv@Base 4:4.3.4
 _ZN10K3TempFile4syncEv@Base 4:4.3.4
 _ZN10K3TempFile5closeEv@Base 4:4.3.4
 _ZN10K3TempFile6createERK7QStringS2_i@Base 4:4.3.4
 _ZN10K3TempFile6unlinkEv@Base 4:4.3.4
 _ZN10K3TempFile7fstreamEv@Base 4:4.3.4
 _ZN10K3TempFile8setErrorEi@Base 4:4.3.4
 _ZN10K3TempFileC1ERK7QStringS2_i@Base 4:4.3.4
 _ZN10K3TempFileC1Eb@Base 4:4.3.4
 _ZN10K3TempFileC2ERK7QStringS2_i@Base 4:4.3.4
 _ZN10K3TempFileC2Eb@Base 4:4.3.4
 _ZN10K3TempFileD1Ev@Base 4:4.3.4
 _ZN10K3TempFileD2Ev@Base 4:4.3.4
 _ZN10K3TextEdit10setPaletteERK8QPalette@Base 4:4.3.4
 _ZN10K3TextEdit11posToRowColEjRjS0_@Base 4:4.3.4
 _ZN10K3TextEdit11qt_metacallEN11QMetaObject4CallEiPPv@Base 4:4.3.4
 _ZN10K3TextEdit11qt_metacastEPKc@Base 4:4.3.4
 _ZN10K3TextEdit11setReadOnlyEb@Base 4:4.3.4
 _ZN10K3TextEdit12focusInEventEP11QFocusEvent@Base 4:4.3.4
 _ZN10K3TextEdit12slotAllowTabEv@Base 4:4.3.4
 _ZN10K3TextEdit12virtual_hookEiPv@Base 4:4.3.4
 _ZN10K3TextEdit13checkSpellingEv@Base 4:4.3.4
 _ZN10K3TextEdit13highLightWordEjj@Base 4:4.3.4
 _ZN10K3TextEdit13keyPressEventEP9QKeyEvent@Base 4:4.3.4
 _ZN10K3TextEdit14deleteWordBackEv@Base 4:4.3.4
 _ZN10K3TextEdit15createPopupMenuERK6QPoint@Base 4:4.3.4
 _ZN10K3TextEdit15createPopupMenuEv@Base 4:4.3.4
 _ZN10K3TextEdit16staticMetaObjectE@Base 4:4.3.4
 _ZN10K3TextEdit17deleteWordForwardEv@Base 4:4.3.4
 _ZN10K3TextEdit18contentsWheelEventEP11QWheelEvent@Base 4:4.3.4
 _ZN10K3TextEdit18slotSpellCheckDoneERK7QString@Base 4:4.3.4
 _ZN10K3TextEdit19slotSpellCheckReadyEP7K3Spell@Base 4:4.3.4
 _ZN10K3TextEdit20spellCheckerFinishedEv@Base 4:4.3.4
 _ZN10K3TextEdit20toggleAutoSpellCheckEv@Base 4:4.3.4
 _ZN10K3TextEdit21spellCheckerCorrectedERK7QStringS2_j@Base 4:4.3.4
 _ZN10K3TextEdit23setCheckSpellingEnabledEb@Base 4:4.3.4
 _ZN10K3TextEdit23spellCheckerMisspellingERK7QStringRK11QStringListj@Base 4:4.3.4
 _ZN10K3TextEditC1EP7QWidgetPKc@Base 4:4.3.4
 _ZN10K3TextEditC1ERK7QStringS2_P7QWidgetPKc@Base 4:4.3.4
 _ZN10K3TextEditC2EP7QWidgetPKc@Base 4:4.3.4
 _ZN10K3TextEditC2ERK7QStringS2_P7QWidgetPKc@Base 4:4.3.4
 _ZN10K3TextEditD0Ev@Base 4:4.3.4
 _ZN10K3TextEditD1Ev@Base 4:4.3.4
 _ZN10K3TextEditD2Ev@Base 4:4.3.4
 _ZN11K3ButtonBox10addStretchEi@Base 4:4.3.4
 _ZN11K3ButtonBox11qt_metacallEN11QMetaObject4CallEiPPv@Base 4:4.3.4
 _ZN11K3ButtonBox11qt_metacastEPKc@Base 4:4.3.4
 _ZN11K3ButtonBox11resizeEventEP12QResizeEvent@Base 4:4.3.4
 _ZN11K3ButtonBox12placeButtonsEv@Base 4:4.3.4
 _ZN11K3ButtonBox16staticMetaObjectE@Base 4:4.3.4
 _ZN11K3ButtonBox6layoutEv@Base 4:4.3.4
 _ZN11K3ButtonBox9addButtonERK7QStringP7QObjectPKcb@Base 4:4.3.4
 _ZN11K3ButtonBox9addButtonERK7QStringb@Base 4:4.3.4
 _ZN11K3ButtonBox9addButtonERK8KGuiItemP7QObjectPKcb@Base 4:4.3.4
 _ZN11K3ButtonBox9addButtonERK8KGuiItemb@Base 4:4.3.4
 _ZN11K3ButtonBoxC1EP7QWidgetN2Qt11OrientationEii@Base 4:4.3.4
 _ZN11K3ButtonBoxC2EP7QWidgetN2Qt11OrientationEii@Base 4:4.3.4
 _ZN11K3ButtonBoxD0Ev@Base 4:4.3.4
 _ZN11K3ButtonBoxD1Ev@Base 4:4.3.4
 _ZN11K3ButtonBoxD2Ev@Base 4:4.3.4
 _ZN11K3ColorDrag11qt_metacallEN11QMetaObject4CallEiPPv@Base 4:4.3.4
 _ZN11K3ColorDrag11qt_metacastEPKc@Base 4:4.3.4
 _ZN11K3ColorDrag12virtual_hookEiPv@Base 4:4.3.4
 _ZN11K3ColorDrag16staticMetaObjectE@Base 4:4.3.4
 _ZN11K3ColorDrag6decodeEP11QMimeSourceR6QColor@Base 4:4.3.4
 _ZN11K3ColorDrag8makeDragERK6QColorP7QWidget@Base 4:4.3.4
 _ZN11K3ColorDrag8setColorERK6QColor@Base 4:4.3.4
 _ZN11K3ColorDrag9canDecodeEP11QMimeSource@Base 4:4.3.4
 _ZN11K3ColorDragC1EP7QWidgetPKc@Base 4:4.3.4
 _ZN11K3ColorDragC1ERK6QColorP7QWidgetPKc@Base 4:4.3.4
 _ZN11K3ColorDragC2EP7QWidgetPKc@Base 4:4.3.4
 _ZN11K3ColorDragC2ERK6QColorP7QWidgetPKc@Base 4:4.3.4
 _ZN11K3PanelMenu11qt_metacallEN11QMetaObject4CallEiPPv@Base 4:4.3.4
 _ZN11K3PanelMenu11qt_metacastEPKc@Base 4:4.3.4
 _ZN11K3PanelMenu12deinitializeEv@Base 4:4.3.4
 _ZN11K3PanelMenu12reinitializeEv@Base 4:4.3.4
 _ZN11K3PanelMenu14setInitializedEb@Base 4:4.3.4
 _ZN11K3PanelMenu15slotAboutToShowEv@Base 4:4.3.4
 _ZN11K3PanelMenu16disableAutoClearEv@Base 4:4.3.4
 _ZN11K3PanelMenu16staticMetaObjectE@Base 4:4.3.4
 _ZN11K3PanelMenu18internalInitializeEv@Base 4:4.3.4
 _ZN11K3PanelMenu4initERK7QString@Base 4:4.3.4
 _ZN11K3PanelMenu7setPathERK7QString@Base 4:4.3.4
 _ZN11K3PanelMenu9hideEventEP10QHideEvent@Base 4:4.3.4
 _ZN11K3PanelMenu9slotClearEv@Base 4:4.3.4
 _ZN11K3PanelMenuC1EP7QWidget@Base 4:4.3.4
 _ZN11K3PanelMenuC1ERK7QStringP7QWidget@Base 4:4.3.4
 _ZN11K3PanelMenuC2EP7QWidget@Base 4:4.3.4
 _ZN11K3PanelMenuC2ERK7QStringP7QWidget@Base 4:4.3.4
 _ZN11K3PanelMenuD0Ev@Base 4:4.3.4
 _ZN11K3PanelMenuD1Ev@Base 4:4.3.4
 _ZN11K3PanelMenuD2Ev@Base 4:4.3.4
 _ZN11K3PopupMenu10closeEventEP11QCloseEvent@Base 4:4.3.4
 _ZN11K3PopupMenu11changeTitleEiRK7QPixmapRK7QString@Base 4:4.3.4
 _ZN11K3PopupMenu11changeTitleEiRK7QString@Base 4:4.3.4
 _ZN11K3PopupMenu11contextMenuEv@Base 4:4.3.4
 _ZN11K3PopupMenu11insertTitleERK7QPixmapRK7QStringii@Base 4:4.3.4
 _ZN11K3PopupMenu11insertTitleERK7QStringii@Base 4:4.3.4
 _ZN11K3PopupMenu11qt_metacallEN11QMetaObject4CallEiPPv@Base 4:4.3.4
 _ZN11K3PopupMenu11qt_metacastEPKc@Base 4:4.3.4
 _ZN11K3PopupMenu11showCtxMenuERK6QPoint@Base 4:4.3.4
 _ZN11K3PopupMenu12virtual_hookEiPv@Base 4:4.3.4
 _ZN11K3PopupMenu13actionHoveredEP7QAction@Base 4:4.3.4
 _ZN11K3PopupMenu13ctxMenuHidingEv@Base 4:4.3.4
 _ZN11K3PopupMenu13keyPressEventEP9QKeyEvent@Base 4:4.3.4
 _ZN11K3PopupMenu13underlineTextERK7QStringj@Base 4:4.3.4
 _ZN11K3PopupMenu14activateItemAtEi@Base 4:4.3.4
 _ZN11K3PopupMenu15hideContextMenuEv@Base 4:4.3.4
 _ZN11K3PopupMenu15mousePressEventEP11QMouseEvent@Base 4:4.3.4
 _ZN11K3PopupMenu16contextMenuEventEP17QContextMenuEvent@Base 4:4.3.4
 _ZN11K3PopupMenu16contextMenuFocusEv@Base 4:4.3.4
 _ZN11K3PopupMenu16staticMetaObjectE@Base 4:4.3.4
 _ZN11K3PopupMenu17mouseReleaseEventEP11QMouseEvent@Base 4:4.3.4
 _ZN11K3PopupMenu17resetKeyboardVarsEb@Base 4:4.3.4
 _ZN11K3PopupMenu18K3PopupMenuPrivate15s_contextedMenuE@Base 4:4.3.4
 _ZN11K3PopupMenu18K3PopupMenuPrivate17s_highlightedItemE@Base 4:4.3.4
 _ZN11K3PopupMenu18K3PopupMenuPrivate19s_highlightedActionE@Base 4:4.3.4
 _ZN11K3PopupMenu18K3PopupMenuPrivate21s_continueCtxMenuShowE@Base 4:4.3.4
 _ZN11K3PopupMenu18focusNextPrevChildEb@Base 4:4.3.4
 _ZN11K3PopupMenu20contextMenuFocusItemEv@Base 4:4.3.4
 _ZN11K3PopupMenu22aboutToShowContextMenuEPS_P7QActionP5QMenu@Base 4:4.3.4
 _ZN11K3PopupMenu22aboutToShowContextMenuEPS_iP11Q3PopupMenu@Base 4:4.3.4
 _ZN11K3PopupMenu22contextMenuFocusActionEv@Base 4:4.3.4
 _ZN11K3PopupMenu22ctxMenuHideShowingMenuEv@Base 4:4.3.4
 _ZN11K3PopupMenu27setKeyboardShortcutsEnabledEb@Base 4:4.3.4
 _ZN11K3PopupMenu27setKeyboardShortcutsExecuteEb@Base 4:4.3.4
 _ZN11K3PopupMenu8addTitleERK5QIconRK7QStringP7QAction@Base 4:4.3.4
 _ZN11K3PopupMenu8addTitleERK7QStringP7QAction@Base 4:4.3.4
 _ZN11K3PopupMenu8setTitleERK7QString@Base 4:4.3.4
 _ZN11K3PopupMenu9hideEventEP10QHideEvent@Base 4:4.3.4
 _ZN11K3PopupMenuC1EP7QWidget@Base 4:4.3.4
 _ZN11K3PopupMenuC1ERK7QStringP7QWidget@Base 4:4.3.4
 _ZN11K3PopupMenuC2EP7QWidget@Base 4:4.3.4
 _ZN11K3PopupMenuC2ERK7QStringP7QWidget@Base 4:4.3.4
 _ZN11K3PopupMenuD0Ev@Base 4:4.3.4
 _ZN11K3PopupMenuD1Ev@Base 4:4.3.4
 _ZN11K3PopupMenuD2Ev@Base 4:4.3.4
 _ZN12K3DockWidget10leaveEventEP6QEvent@Base 4:4.3.4
 _ZN12K3DockWidget10manualDockEPS_NS_12DockPositionEi6QPointbi@Base 4:4.3.4
 _ZN12K3DockWidget10paintEventEP11QPaintEvent@Base 4:4.3.4
 _ZN12K3DockWidget11hasUndockedEv@Base 4:4.3.4
 _ZN12K3DockWidget11qt_metacallEN11QMetaObject4CallEiPPv@Base 4:4.3.4
 _ZN12K3DockWidget11qt_metacastEPKc@Base 4:4.3.4
 _ZN12K3DockWidget11setDockSiteEi@Base 4:4.3.4
 _ZN12K3DockWidget11transientToEv@Base 4:4.3.4
 _ZN12K3DockWidget12updateHeaderEv@Base 4:4.3.4
 _ZN12K3DockWidget12virtual_hookEiPv@Base 4:4.3.4
 _ZN12K3DockWidget13applyToWidgetEP7QWidgetRK6QPoint@Base 4:4.3.4
 _ZN12K3DockWidget13iMBeingClosedEv@Base 4:4.3.4
 _ZN12K3DockWidget14mouseMoveEventEP11QMouseEvent@Base 4:4.3.4
 _ZN12K3DockWidget14setDockTabNameEP14K3DockTabGroup@Base 4:4.3.4
 _ZN12K3DockWidget15makeDockVisibleEv@Base 4:4.3.4
 _ZN12K3DockWidget15mousePressEventEP11QMouseEvent@Base 4:4.3.4
 _ZN12K3DockWidget15setTabPageLabelERK7QString@Base 4:4.3.4
 _ZN12K3DockWidget16forcedFixedWidthEv@Base 4:4.3.4
 _ZN12K3DockWidget16setEnableDockingEi@Base 4:4.3.4
 _ZN12K3DockWidget16setToolTipStringERK7QString@Base 4:4.3.4
 _ZN12K3DockWidget16staticMetaObjectE@Base 4:4.3.4
 _ZN12K3DockWidget17forcedFixedHeightEv@Base 4:4.3.4
 _ZN12K3DockWidget17mouseReleaseEventEP11QMouseEvent@Base 4:4.3.4
 _ZN12K3DockWidget17setDockDefaultPosEv@Base 4:4.3.4
 _ZN12K3DockWidget17setDockWindowTypeEN3NET10WindowTypeE@Base 4:4.3.4
 _ZN12K3DockWidget19changeHideShowStateEv@Base 4:4.3.4
 _ZN12K3DockWidget19setForcedFixedWidthEi@Base 4:4.3.4
 _ZN12K3DockWidget20setForcedFixedHeightEi@Base 4:4.3.4
 _ZN12K3DockWidget21findNearestDockWidgetENS_12DockPositionE@Base 4:4.3.4
 _ZN12K3DockWidget21latestK3DockContainerEv@Base 4:4.3.4
 _ZN12K3DockWidget22setDockWindowTransientEP7QWidgetb@Base 4:4.3.4
 _ZN12K3DockWidget24headerCloseButtonClickedEv@Base 4:4.3.4
 _ZN12K3DockWidget24setLatestK3DockContainerEP7QWidget@Base 4:4.3.4
 _ZN12K3DockWidget26restoreFromForcedFixedSizeEv@Base 4:4.3.4
 _ZN12K3DockWidget26setFormerBrotherDockWidgetEPS_@Base 4:4.3.4
 _ZN12K3DockWidget27headerDockbackButtonClickedEv@Base 4:4.3.4
 _ZN12K3DockWidget27loseFormerBrotherDockWidgetEv@Base 4:4.3.4
 _ZN12K3DockWidget4showEv@Base 4:4.3.4
 _ZN12K3DockWidget5eventEP6QEvent@Base 4:4.3.4
 _ZN12K3DockWidget6undockEv@Base 4:4.3.4
 _ZN12K3DockWidget7dockingEPS_NS_12DockPositionE@Base 4:4.3.4
 _ZN12K3DockWidget8dockBackEv@Base 4:4.3.4
 _ZN12K3DockWidget9getHeaderEv@Base 4:4.3.4
 _ZN12K3DockWidget9setHeaderEP26K3DockWidgetAbstractHeader@Base 4:4.3.4
 _ZN12K3DockWidget9setPixmapERK7QPixmap@Base 4:4.3.4
 _ZN12K3DockWidget9setWidgetEP7QWidget@Base 4:4.3.4
 _ZN12K3DockWidget9toDesktopEv@Base 4:4.3.4
 _ZN12K3DockWidget9widgetSetEP7QWidget@Base 4:4.3.4
 _ZN12K3DockWidgetC1EP13K3DockManagerPKcRK7QPixmapP7QWidgetRK7QStringSB_6QFlagsIN2Qt10WindowTypeEE@Base 4:4.3.4
 _ZN12K3DockWidgetC2EP13K3DockManagerPKcRK7QPixmapP7QWidgetRK7QStringSB_6QFlagsIN2Qt10WindowTypeEE@Base 4:4.3.4
 _ZN12K3DockWidgetD0Ev@Base 4:4.3.4
 _ZN12K3DockWidgetD1Ev@Base 4:4.3.4
 _ZN12K3DockWidgetD2Ev@Base 4:4.3.4
 _ZN13K3AboutDialog10setProductERK7QStringS2_S2_S2_@Base 4:4.3.4
 _ZN13K3AboutDialog10setVersionERK7QString@Base 4:4.3.4
 _ZN13K3AboutDialog11addTextPageERK7QStringS2_bi@Base 4:4.3.4
 _ZN13K3AboutDialog11qt_metacallEN11QMetaObject4CallEiPPv@Base 4:4.3.4
 _ZN13K3AboutDialog11qt_metacastEPKc@Base 4:4.3.4
 _ZN13K3AboutDialog12addContainerE6QFlagsIN2Qt13AlignmentFlagEES3_@Base 4:4.3.4
 _ZN13K3AboutDialog13setImageFrameEb@Base 4:4.3.4
 _ZN13K3AboutDialog13setMaintainerERK7QStringS2_S2_S2_@Base 4:4.3.4
 _ZN13K3AboutDialog14addContributorERK7QStringS2_S2_S2_@Base 4:4.3.4
 _ZN13K3AboutDialog14addLicensePageERK7QStringS2_i@Base 4:4.3.4
 _ZN13K3AboutDialog14setProgramLogoERK7QPixmap@Base 4:4.3.4
 _ZN13K3AboutDialog14setProgramLogoERK7QString@Base 4:4.3.4
 _ZN13K3AboutDialog16addContainerPageERK7QString6QFlagsIN2Qt13AlignmentFlagEES6_@Base 4:4.3.4
 _ZN13K3AboutDialog16staticMetaObjectE@Base 4:4.3.4
 _ZN13K3AboutDialog23setImageBackgroundColorERK6QColor@Base 4:4.3.4
 _ZN13K3AboutDialog24addScrolledContainerPageERK7QString6QFlagsIN2Qt13AlignmentFlagEES6_@Base 4:4.3.4
 _ZN13K3AboutDialog4showEP7QWidget@Base 4:4.3.4
 _ZN13K3AboutDialog4showEv@Base 4:4.3.4
 _ZN13K3AboutDialog6adjustEv@Base 4:4.3.4
 _ZN13K3AboutDialog7addPageERK7QString@Base 4:4.3.4
 _ZN13K3AboutDialog7setLogoERK7QPixmap@Base 4:4.3.4
 _ZN13K3AboutDialog8imageUrlEP7QWidgetRK7QStringS4_RK6QColorS4_@Base 4:4.3.4
 _ZN13K3AboutDialog8setImageERK7QString@Base 4:4.3.4
 _ZN13K3AboutDialog8setTitleERK7QString@Base 4:4.3.4
 _ZN13K3AboutDialog9setAuthorERK7QStringS2_S2_S2_@Base 4:4.3.4
 _ZN13K3AboutDialogC1EP7QWidget@Base 4:4.3.4
 _ZN13K3AboutDialogC1EiRK7QStringP7QWidget@Base 4:4.3.4
 _ZN13K3AboutDialogC2EP7QWidget@Base 4:4.3.4
 _ZN13K3AboutDialogC2EiRK7QStringP7QWidget@Base 4:4.3.4
 _ZN13K3AboutDialogD0Ev@Base 4:4.7.2
 _ZN13K3AboutDialogD1Ev@Base 4:4.7.2
 _ZN13K3AboutDialogD2Ev@Base 4:4.7.2
 _ZN13K3AboutWidget10setVersionERK7QString@Base 4:4.3.4
 _ZN13K3AboutWidget11qt_metacallEN11QMetaObject4CallEiPPv@Base 4:4.3.4
 _ZN13K3AboutWidget11qt_metacastEPKc@Base 4:4.3.4
 _ZN13K3AboutWidget11resizeEventEP12QResizeEvent@Base 4:4.3.4
 _ZN13K3AboutWidget13setMaintainerERK7QStringS2_S2_S2_@Base 4:4.3.4
 _ZN13K3AboutWidget14addContributorERK7QStringS2_S2_S2_@Base 4:4.3.4
 _ZN13K3AboutWidget16staticMetaObjectE@Base 4:4.3.4
 _ZN13K3AboutWidget6adjustEv@Base 4:4.3.4
 _ZN13K3AboutWidget7setLogoERK7QPixmap@Base 4:4.3.4
 _ZN13K3AboutWidget9setAuthorERK7QStringS2_S2_S2_@Base 4:4.3.4
 _ZN13K3AboutWidgetC1EP7QWidget@Base 4:4.3.4
 _ZN13K3AboutWidgetC2EP7QWidget@Base 4:4.3.4
 _ZN13K3AboutWidgetD0Ev@Base 4:4.7.2
 _ZN13K3AboutWidgetD1Ev@Base 4:4.7.2
 _ZN13K3AboutWidgetD2Ev@Base 4:4.7.2
 _ZN13K3ActiveLabel11qt_metacallEN11QMetaObject4CallEiPPv@Base 4:4.3.4
 _ZN13K3ActiveLabel11qt_metacastEPKc@Base 4:4.3.4
 _ZN13K3ActiveLabel12focusInEventEP11QFocusEvent@Base 4:4.3.4
 _ZN13K3ActiveLabel13focusOutEventEP11QFocusEvent@Base 4:4.3.4
 _ZN13K3ActiveLabel13keyPressEventEP9QKeyEvent@Base 4:4.3.4
 _ZN13K3ActiveLabel16staticMetaObjectE@Base 4:4.3.4
 _ZN13K3ActiveLabel5eventEP6QEvent@Base 4:4.3.4
 _ZN13K3ActiveLabelC1EP7QWidget@Base 4:4.3.4
 _ZN13K3ActiveLabelC1ERK7QStringP7QWidget@Base 4:4.3.4
 _ZN13K3ActiveLabelC2EP7QWidget@Base 4:4.3.4
 _ZN13K3ActiveLabelC2ERK7QStringP7QWidget@Base 4:4.3.4
 _ZN13K3ActiveLabelD0Ev@Base 4:4.3.4
 _ZN13K3ActiveLabelD1Ev@Base 4:4.3.4
 _ZN13K3ActiveLabelD2Ev@Base 4:4.3.4
 _ZN13K3DockManager10cancelDropEv@Base 4:4.3.4
 _ZN13K3DockManager10readConfigEP7KConfigRK7QString@Base 4:4.3.4
 _ZN13K3DockManager10readConfigER11QDomElement@Base 4:4.3.4
 _ZN13K3DockManager11eventFilterEP7QObjectP6QEvent@Base 4:4.3.4
 _ZN13K3DockManager11qt_metacallEN11QMetaObject4CallEiPPv@Base 4:4.3.4
 _ZN13K3DockManager11qt_metacastEPKc@Base 4:4.3.4
 _ZN13K3DockManager11replaceDockEP12K3DockWidgetS1_@Base 4:4.3.4
 _ZN13K3DockManager11writeConfigEP7KConfigRK7QString@Base 4:4.3.4
 _ZN13K3DockManager11writeConfigER11QDomElement@Base 4:4.3.4
 _ZN13K3DockManager12virtual_hookEiPv@Base 4:4.3.4
 _ZN13K3DockManager13slotMenuPopupEv@Base 4:4.3.4
 _ZN13K3DockManager15dumpDockWidgetsEv@Base 4:4.3.4
 _ZN13K3DockManager16findDockWidgetAtERK6QPoint@Base 4:4.3.4
 _ZN13K3DockManager16staticMetaObjectE@Base 4:4.3.4
 _ZN13K3DockManager17drawDragRectangleEv@Base 4:4.3.4
 _ZN13K3DockManager17setDockDefaultPosEP12K3DockWidget@Base 4:4.3.4
 _ZN13K3DockManager17slotMenuActivatedEi@Base 4:4.3.4
 _ZN13K3DockManager18setMainDockWidget2EP12K3DockWidget@Base 4:4.3.4
 _ZN13K3DockManager19findChildDockWidgetEPK7QWidgetRP5QListIPS0_E@Base 4:4.3.4
 _ZN13K3DockManager19findChildDockWidgetERP7QWidgetPKS0_RK6QPoint@Base 4:4.3.4
 _ZN13K3DockManager19setSplitterKeepSizeEb@Base 4:4.3.4
 _ZN13K3DockManager20finishReadDockConfigEv@Base 4:4.3.4
 _ZN13K3DockManager21getDockWidgetFromNameERK7QString@Base 4:4.3.4
 _ZN13K3DockManager21makeWidgetDockVisibleEP7QWidget@Base 4:4.3.4
 _ZN13K3DockManager21setReadDockConfigModeEi@Base 4:4.3.4
 _ZN13K3DockManager23setSplitterOpaqueResizeEb@Base 4:4.3.4
 _ZN13K3DockManager24removeFromAutoCreateListEP12K3DockWidget@Base 4:4.3.4
 _ZN13K3DockManager25setSplitterHighResolutionEb@Base 4:4.3.4
 _ZN13K3DockManager26setSpecialTopDockContainerEP12K3DockWidget@Base 4:4.3.4
 _ZN13K3DockManager27setSpecialLeftDockContainerEP12K3DockWidget@Base 4:4.3.4
 _ZN13K3DockManager28setSpecialRightDockContainerEP12K3DockWidget@Base 4:4.3.4
 _ZN13K3DockManager29setSpecialBottomDockContainerEP12K3DockWidget@Base 4:4.3.4
 _ZN13K3DockManager4dropEv@Base 4:4.3.4
 _ZN13K3DockManager6changeEv@Base 4:4.3.4
 _ZN13K3DockManager8activateEv@Base 4:4.3.4
 _ZN13K3DockManager8dragMoveEP12K3DockWidget6QPoint@Base 4:4.3.4
 _ZN13K3DockManager9startDragEP12K3DockWidget@Base 4:4.3.4
 _ZN13K3DockManagerC1EP7QWidgetPKc@Base 4:4.3.4
 _ZN13K3DockManagerC2EP7QWidgetPKc@Base 4:4.3.4
 _ZN13K3DockManagerD0Ev@Base 4:4.3.4
 _ZN13K3DockManagerD1Ev@Base 4:4.3.4
 _ZN13K3DockManagerD2Ev@Base 4:4.3.4
 _ZN13K3PanelApplet10needsFocusEb@Base 4:4.3.4
 _ZN13K3PanelApplet11eventFilterEP7QObjectP6QEvent@Base 4:4.3.4
 _ZN13K3PanelApplet11qt_metacallEN11QMetaObject4CallEiPPv@Base 4:4.3.4
 _ZN13K3PanelApplet11qt_metacastEPKc@Base 4:4.3.4
 _ZN13K3PanelApplet11setPositionENS_8PositionE@Base 4:4.3.4
 _ZN13K3PanelApplet12requestFocusEb@Base 4:4.3.4
 _ZN13K3PanelApplet12requestFocusEv@Base 4:4.3.4
 _ZN13K3PanelApplet12setAlignmentENS_9AlignmentE@Base 4:4.3.4
 _ZN13K3PanelApplet12updateLayoutEv@Base 4:4.3.4
 _ZN13K3PanelApplet13setCustomMenuEPK5QMenu@Base 4:4.3.4
 _ZN13K3PanelApplet13watchForFocusEP7QWidgetb@Base 4:4.3.4
 _ZN13K3PanelApplet14popupDirectionEv@Base 4:4.3.4
 _ZN13K3PanelApplet14positionChangeENS_8PositionE@Base 4:4.3.4
 _ZN13K3PanelApplet16staticMetaObjectE@Base 4:4.3.4
 _ZN13K3PanelApplet6actionENS_6ActionE@Base 4:4.3.4
 _ZN13K3PanelAppletC1ERK7QStringNS_4TypeEiP7QWidget6QFlagsIN2Qt10WindowTypeEE@Base 4:4.3.4
 _ZN13K3PanelAppletC2ERK7QStringNS_4TypeEiP7QWidget6QFlagsIN2Qt10WindowTypeEE@Base 4:4.3.4
 _ZN13K3PanelAppletD0Ev@Base 4:4.3.4
 _ZN13K3PanelAppletD1Ev@Base 4:4.3.4
 _ZN13K3PanelAppletD2Ev@Base 4:4.3.4
 _ZN13K3SpellConfig11qt_metacallEN11QMetaObject4CallEiPPv@Base 4:4.3.4
 _ZN13K3SpellConfig11qt_metacastEPKc@Base 4:4.3.4
 _ZN13K3SpellConfig11sDictionaryEb@Base 4:4.3.4
 _ZN13K3SpellConfig11setEncodingEi@Base 4:4.3.4
 _ZN13K3SpellConfig12activateHelpEv@Base 4:4.3.4
 _ZN13K3SpellConfig12fillInDialogEv@Base 4:4.3.4
 _ZN13K3SpellConfig12sRunTogetherEb@Base 4:4.3.4
 _ZN13K3SpellConfig13configChangedEv@Base 4:4.3.4
 _ZN13K3SpellConfig13sChangeClientEi@Base 4:4.3.4
 _ZN13K3SpellConfig13setDictionaryE7QString@Base 4:4.3.4
 _ZN13K3SpellConfig13setIgnoreListERK11QStringList@Base 4:4.3.4
 _ZN13K3SpellConfig14sSetDictionaryEi@Base 4:4.3.4
 _ZN13K3SpellConfig14setNoRootAffixEb@Base 4:4.3.4
 _ZN13K3SpellConfig14setRunTogetherEb@Base 4:4.3.4
 _ZN13K3SpellConfig15sChangeEncodingEi@Base 4:4.3.4
 _ZN13K3SpellConfig15sPathDictionaryEb@Base 4:4.3.4
 _ZN13K3SpellConfig15setDictFromListEb@Base 4:4.3.4
 _ZN13K3SpellConfig16staticMetaObjectE@Base 4:4.3.4
 _ZN13K3SpellConfig17setReplaceAllListERK11QStringList@Base 4:4.3.4
 _ZN13K3SpellConfig18readGlobalSettingsEv@Base 4:4.3.4
 _ZN13K3SpellConfig18setDoSpellCheckingEb@Base 4:4.3.4
 _ZN13K3SpellConfig19getAvailDictsAspellEv@Base 4:4.3.4
 _ZN13K3SpellConfig19getAvailDictsIspellEv@Base 4:4.3.4
 _ZN13K3SpellConfig19writeGlobalSettingsEv@Base 4:4.3.4
 _ZN13K3SpellConfig21getAvailDictsHunspellEv@Base 4:4.4.95
 _ZN13K3SpellConfig5sHelpEv@Base 4:4.3.4
 _ZN13K3SpellConfig6sNoAffEb@Base 4:4.3.4
 _ZN13K3SpellConfig8sDoSpellEv@Base 4:4.3.4
 _ZN13K3SpellConfig9fillDictsEP9QComboBoxP11QStringList@Base 4:4.3.4
 _ZN13K3SpellConfig9interpretERK7QStringRS0_S3_@Base 4:4.3.4
 _ZN13K3SpellConfig9setClientEi@Base 4:4.3.4
 _ZN13K3SpellConfigC1EP7QWidgetPS_b@Base 4:4.3.4
 _ZN13K3SpellConfigC1ERKS_@Base 4:4.3.4
 _ZN13K3SpellConfigC2EP7QWidgetPS_b@Base 4:4.3.4
 _ZN13K3SpellConfigC2ERKS_@Base 4:4.3.4
 _ZN13K3SpellConfigD0Ev@Base 4:4.3.4
 _ZN13K3SpellConfigD1Ev@Base 4:4.3.4
 _ZN13K3SpellConfigD2Ev@Base 4:4.3.4
 _ZN13K3SpellConfigaSERKS_@Base 4:4.3.4
 (arch=kfreebsd-amd64 kfreebsd-i386)_ZN13KFileItemListD1Ev@Base 4:4.6.5
 (arch=kfreebsd-amd64 kfreebsd-i386)_ZN13KFileItemListD2Ev@Base 4:4.6.5
 _ZN14K3BookmarkDrag6decodeEPK11QMimeSource@Base 4:4.3.4
 _ZN14K3BookmarkDrag7newDragERK11Q3ValueListI9KBookmarkEP7QWidgetPKc@Base 4:4.3.4
 _ZN14K3BookmarkDrag7newDragERK9KBookmarkP7QWidgetPKc@Base 4:4.3.4
 _ZN14K3BookmarkDrag9canDecodeEPK11QMimeSource@Base 4:4.3.4
 _ZN14K3BookmarkDragC1ERK11Q3ValueListI9KBookmarkERK9Q3StrListP7QWidgetPKc@Base 4:4.3.4
 _ZN14K3BookmarkDragC2ERK11Q3ValueListI9KBookmarkERK9Q3StrListP7QWidgetPKc@Base 4:4.3.4
 _ZN14K3DockSplitter10deactivateEv@Base 4:4.3.4
 _ZN14K3DockSplitter10updateNameEv@Base 4:4.3.4
 _ZN14K3DockSplitter11eventFilterEP7QObjectP6QEvent@Base 4:4.3.4
 _ZN14K3DockSplitter11qt_metacallEN11QMetaObject4CallEiPPv@Base 4:4.3.4
 _ZN14K3DockSplitter11qt_metacastEPKc@Base 4:4.3.4
 _ZN14K3DockSplitter11resizeEventEP12QResizeEvent@Base 4:4.3.4
 _ZN14K3DockSplitter11setKeepSizeEb@Base 4:4.3.4
 _ZN14K3DockSplitter15setOpaqueResizeEb@Base 4:4.3.4
 _ZN14K3DockSplitter15setSeparatorPosEib@Base 4:4.3.4
 _ZN14K3DockSplitter15setupMinMaxSizeEv@Base 4:4.3.4
 _ZN14K3DockSplitter16setSeparatorPosXEib@Base 4:4.3.4
 _ZN14K3DockSplitter16staticMetaObjectE@Base 4:4.3.4
 _ZN14K3DockSplitter19setForcedFixedWidthEP12K3DockWidgeti@Base 4:4.3.4
 _ZN14K3DockSplitter20setForcedFixedHeightEP12K3DockWidgeti@Base 4:4.3.4
 _ZN14K3DockSplitter21separatorPosInPercentEv@Base 4:4.3.4
 _ZN14K3DockSplitter24setSeparatorPosInPercentEi@Base 4:4.3.4
 _ZN14K3DockSplitter26restoreFromForcedFixedSizeEP12K3DockWidget@Base 4:4.3.4
 _ZN14K3DockSplitter5eventEP6QEvent@Base 4:4.3.4
 _ZN14K3DockSplitter8activateEP7QWidgetS1_@Base 4:4.3.4
 _ZN14K3DockSplitterC1EP7QWidgetPKcN2Qt11OrientationEi@Base 4:4.3.4
 _ZN14K3DockSplitterC2EP7QWidgetPKcN2Qt11OrientationEi@Base 4:4.3.4
 _ZN14K3DockTabGroup11qt_metacallEN11QMetaObject4CallEiPPv@Base 4:4.3.4
 _ZN14K3DockTabGroup11qt_metacastEPKc@Base 4:4.3.4
 _ZN14K3DockTabGroup11transientToEv@Base 4:4.3.4
 _ZN14K3DockTabGroup12virtual_hookEiPv@Base 4:4.3.4
 _ZN14K3DockTabGroup16staticMetaObjectE@Base 4:4.3.4
 _ZN14K3DockTabGroupC1EP7QWidgetPKc@Base 4:4.3.4
 _ZN14K3DockTabGroupC2EP7QWidgetPKc@Base 4:4.3.4
 _ZN14K3DockTabGroupD0Ev@Base 4:4.3.4
 _ZN14K3DockTabGroupD1Ev@Base 4:4.3.4
 _ZN14K3DockTabGroupD2Ev@Base 4:4.3.4
 _ZN14K3FileTreeView10dragObjectEv@Base 4:4.3.4
 _ZN14K3FileTreeView10slotOnItemEP14Q3ListViewItem@Base 4:4.3.4
 _ZN14K3FileTreeView11isValidItemEP14Q3ListViewItem@Base 4:4.3.4
 _ZN14K3FileTreeView11qt_metacallEN11QMetaObject4CallEiPPv@Base 4:4.3.4
 _ZN14K3FileTreeView11qt_metacastEPKc@Base 4:4.3.4
 _ZN14K3FileTreeView12removeBranchEP15KFileTreeBranch@Base 4:4.3.4
 _ZN14K3FileTreeView12slotExecutedEP14Q3ListViewItem@Base 4:4.3.4
 _ZN14K3FileTreeView12slotExpandedEP14Q3ListViewItem@Base 4:4.3.4
 _ZN14K3FileTreeView13slotAnimationEv@Base 4:4.3.4
 _ZN14K3FileTreeView13slotCollapsedEP14Q3ListViewItem@Base 4:4.3.4
 _ZN14K3FileTreeView13stopAnimationEP18K3FileTreeViewItem@Base 4:4.3.4
 _ZN14K3FileTreeView14setDirOnlyModeEP15KFileTreeBranchb@Base 4:4.3.4
 _ZN14K3FileTreeView14startAnimationEP18K3FileTreeViewItemPKcj@Base 4:4.3.4
 _ZN14K3FileTreeView15slotItemRenamedEP14Q3ListViewItemRK7QStringi@Base 4:4.3.4
 _ZN14K3FileTreeView16staticMetaObjectE@Base 4:4.3.4
 _ZN14K3FileTreeView17contentsDropEventEP10QDropEvent@Base 4:4.3.4
 _ZN14K3FileTreeView18slotAutoOpenFolderEv@Base 4:4.3.4
 _ZN14K3FileTreeView20slotNewTreeViewItemsEP15KFileTreeBranchRK9Q3PtrListI18K3FileTreeViewItemE@Base 4:4.3.4
 _ZN14K3FileTreeView20slotPopulateFinishedEP18K3FileTreeViewItem@Base 4:4.3.4
 _ZN14K3FileTreeView20slotSelectionChangedEv@Base 4:4.3.4
 _ZN14K3FileTreeView21contentsDragMoveEventEP14QDragMoveEvent@Base 4:4.3.4
 _ZN14K3FileTreeView22contentsDragEnterEventEP15QDragEnterEvent@Base 4:4.3.4
 _ZN14K3FileTreeView22contentsDragLeaveEventEP15QDragLeaveEvent@Base 4:4.3.4
 _ZN14K3FileTreeView22slotSetNextUrlToSelectERK4KUrl@Base 4:4.3.4
 _ZN14K3FileTreeView23setShowFolderOpenPixmapEb@Base 4:4.3.4
 _ZN14K3FileTreeView6branchERK7QString@Base 4:4.3.4
 _ZN14K3FileTreeView6onItemERK7QString@Base 4:4.3.4
 _ZN14K3FileTreeView7droppedEP10QDropEventP14Q3ListViewItem@Base 4:4.3.4
 _ZN14K3FileTreeView7droppedEP10QDropEventP14Q3ListViewItemS3_@Base 4:4.3.4
 _ZN14K3FileTreeView7droppedEP7QWidgetP10QDropEvent@Base 4:4.3.4
 _ZN14K3FileTreeView7droppedEP7QWidgetP10QDropEventRN4KUrl4ListE@Base 4:4.3.4
 _ZN14K3FileTreeView7droppedEP7QWidgetP10QDropEventRN4KUrl4ListERS4_@Base 4:4.3.4
 _ZN14K3FileTreeView7droppedEPS_P10QDropEventP14Q3ListViewItem@Base 4:4.3.4
 _ZN14K3FileTreeView7droppedEPS_P10QDropEventP14Q3ListViewItemS4_@Base 4:4.3.4
 _ZN14K3FileTreeView7droppedERN4KUrl4ListERS0_@Base 4:4.3.4
 _ZN14K3FileTreeView8branchesEv@Base 4:4.3.4
 _ZN14K3FileTreeView8findItemEP15KFileTreeBranchRK7QString@Base 4:4.3.4
 _ZN14K3FileTreeView8findItemERK7QStringS2_@Base 4:4.3.4
 _ZN14K3FileTreeView9addBranchEP15KFileTreeBranch@Base 4:4.3.4
 _ZN14K3FileTreeView9addBranchERK4KUrlRK7QStringRK7QPixmapb@Base 4:4.3.4
 _ZN14K3FileTreeView9addBranchERK4KUrlRK7QStringb@Base 4:4.3.4
 _ZN14K3FileTreeViewC1EP7QWidget@Base 4:4.3.4
 _ZN14K3FileTreeViewC2EP7QWidget@Base 4:4.3.4
 _ZN14K3FileTreeViewD0Ev@Base 4:4.3.4
 _ZN14K3FileTreeViewD1Ev@Base 4:4.3.4
 _ZN14K3FileTreeViewD2Ev@Base 4:4.3.4
 _ZN14K3IconViewItem11paintPixmapEP8QPainterRK11QColorGroup@Base 4:4.3.4
 _ZN14K3IconViewItem13setPixmapSizeERK5QSize@Base 4:4.3.4
 _ZN14K3IconViewItem4initEv@Base 4:4.3.4
 _ZN14K3IconViewItem8calcRectERK7QString@Base 4:4.3.4
 _ZN14K3IconViewItem8wordWrapEv@Base 4:4.3.4
 _ZN14K3IconViewItem9paintItemEP8QPainterRK11QColorGroup@Base 4:4.3.4
 _ZN14K3IconViewItem9paintTextEP8QPainterRK11QColorGroup@Base 4:4.3.4
 _ZN14K3IconViewItemD0Ev@Base 4:4.3.4
 _ZN14K3IconViewItemD1Ev@Base 4:4.3.4
 _ZN14K3IconViewItemD2Ev@Base 4:4.3.4
 _ZN14K3ListViewItem10insertItemEP14Q3ListViewItem@Base 4:4.3.4
 _ZN14K3ListViewItem11isAlternateEv@Base 4:4.3.4
 _ZN14K3ListViewItem15backgroundColorEi@Base 4:4.3.4
 _ZN14K3ListViewItem15backgroundColorEv@Base 4:4.3.4
 _ZN14K3ListViewItem4initEv@Base 4:4.3.4
 _ZN14K3ListViewItem8takeItemEP14Q3ListViewItem@Base 4:4.3.4
 _ZN14K3ListViewItem9paintCellEP8QPainterRK11QColorGroupiii@Base 4:4.3.4
 _ZN14K3ListViewItemC1EP10Q3ListView@Base 4:4.3.4
 _ZN14K3ListViewItemC1EP10Q3ListViewP14Q3ListViewItem@Base 4:4.3.4
 _ZN14K3ListViewItemC1EP10Q3ListViewP14Q3ListViewItemRK7QStringS6_S6_S6_S6_S6_S6_S6_@Base 4:4.3.4
 _ZN14K3ListViewItemC1EP10Q3ListViewRK7QStringS4_S4_S4_S4_S4_S4_S4_@Base 4:4.3.4
 _ZN14K3ListViewItemC1EP14Q3ListViewItem@Base 4:4.3.4
 _ZN14K3ListViewItemC1EP14Q3ListViewItemRK7QStringS4_S4_S4_S4_S4_S4_S4_@Base 4:4.3.4
 _ZN14K3ListViewItemC1EP14Q3ListViewItemS1_@Base 4:4.3.4
 _ZN14K3ListViewItemC1EP14Q3ListViewItemS1_RK7QStringS4_S4_S4_S4_S4_S4_S4_@Base 4:4.3.4
 _ZN14K3ListViewItemC2EP10Q3ListView@Base 4:4.3.4
 _ZN14K3ListViewItemC2EP10Q3ListViewP14Q3ListViewItem@Base 4:4.3.4
 _ZN14K3ListViewItemC2EP10Q3ListViewP14Q3ListViewItemRK7QStringS6_S6_S6_S6_S6_S6_S6_@Base 4:4.3.4
 _ZN14K3ListViewItemC2EP10Q3ListViewRK7QStringS4_S4_S4_S4_S4_S4_S4_@Base 4:4.3.4
 _ZN14K3ListViewItemC2EP14Q3ListViewItem@Base 4:4.3.4
 _ZN14K3ListViewItemC2EP14Q3ListViewItemRK7QStringS4_S4_S4_S4_S4_S4_S4_@Base 4:4.3.4
 _ZN14K3ListViewItemC2EP14Q3ListViewItemS1_@Base 4:4.3.4
 _ZN14K3ListViewItemC2EP14Q3ListViewItemS1_RK7QStringS4_S4_S4_S4_S4_S4_S4_@Base 4:4.3.4
 _ZN14K3ListViewItemD0Ev@Base 4:4.3.4
 _ZN14K3ListViewItemD1Ev@Base 4:4.3.4
 _ZN14K3ListViewItemD2Ev@Base 4:4.3.4
 _ZN14K3MacroCommand10addCommandEP9K3Command@Base 4:4.3.4
 _ZN14K3MacroCommand12virtual_hookEiPv@Base 4:4.3.4
 _ZN14K3MacroCommand7executeEv@Base 4:4.3.4
 _ZN14K3MacroCommand9unexecuteEv@Base 4:4.3.4
 _ZN14K3MacroCommandC1ERK7QString@Base 4:4.3.4
 _ZN14K3MacroCommandC2ERK7QString@Base 4:4.3.4
 _ZN14K3MacroCommandD0Ev@Base 4:4.3.4
 _ZN14K3MacroCommandD1Ev@Base 4:4.3.4
 _ZN14K3MacroCommandD2Ev@Base 4:4.3.4
 _ZN14K3MultipleDrag11qt_metacallEN11QMetaObject4CallEiPPv@Base 4:4.3.4
 _ZN14K3MultipleDrag11qt_metacastEPKc@Base 4:4.3.4
 _ZN14K3MultipleDrag12virtual_hookEiPv@Base 4:4.3.4
 _ZN14K3MultipleDrag13addDragObjectEP12Q3DragObject@Base 4:4.3.4
 _ZN14K3MultipleDrag16staticMetaObjectE@Base 4:4.3.4
 _ZN14K3MultipleDragC1EP7QWidgetPKc@Base 4:4.3.4
 _ZN14K3MultipleDragC2EP7QWidgetPKc@Base 4:4.3.4
 _ZN14K3MultipleDragD0Ev@Base 4:4.7.2
 _ZN14K3MultipleDragD1Ev@Base 4:4.7.2
 _ZN14K3MultipleDragD2Ev@Base 4:4.7.2
 _ZN14K3NamedCommand12virtual_hookEiPv@Base 4:4.3.4
 _ZN14K3NamedCommand7setNameERK7QString@Base 4:4.3.4
 _ZN14K3NamedCommandC1ERK7QString@Base 4:4.3.4
 _ZN14K3NamedCommandC2ERK7QString@Base 4:4.3.4
 _ZN14K3NamedCommandD0Ev@Base 4:4.3.4
 _ZN14K3NamedCommandD1Ev@Base 4:4.3.4
 _ZN14K3NamedCommandD2Ev@Base 4:4.3.4
 _ZN14K3PasswordEdit11qt_metacallEN11QMetaObject4CallEiPPv@Base 4:4.3.4
 _ZN14K3PasswordEdit11qt_metacastEPKc@Base 4:4.3.4
 _ZN14K3PasswordEdit12focusInEventEP11QFocusEvent@Base 4:4.3.4
 _ZN14K3PasswordEdit13keyPressEventEP9QKeyEvent@Base 4:4.3.4
 _ZN14K3PasswordEdit16staticMetaObjectE@Base 4:4.3.4
 _ZN14K3PasswordEdit20setMaxPasswordLengthEi@Base 4:4.3.4
 _ZN14K3PasswordEdit4initEv@Base 4:4.3.4
 _ZN14K3PasswordEdit5eraseEv@Base 4:4.3.4
 _ZN14K3PasswordEdit5eventEP6QEvent@Base 4:4.3.4
 _ZN14K3PasswordEdit6insertERK7QString@Base 4:4.3.4
 _ZN14K3PasswordEdit7PassLenE@Base 4:4.3.4
 _ZN14K3PasswordEdit8showPassEv@Base 4:4.3.4
 _ZN14K3PasswordEditC1EN9QLineEdit8EchoModeEP7QWidget@Base 4:4.3.4
 _ZN14K3PasswordEditC1ENS_9EchoModesEP7QWidget@Base 4:4.3.4
 _ZN14K3PasswordEditC1EP7QWidget@Base 4:4.3.4
 _ZN14K3PasswordEditC2EN9QLineEdit8EchoModeEP7QWidget@Base 4:4.3.4
 _ZN14K3PasswordEditC2ENS_9EchoModesEP7QWidget@Base 4:4.3.4
 _ZN14K3PasswordEditC2EP7QWidget@Base 4:4.3.4
 _ZN14K3PasswordEditD0Ev@Base 4:4.3.4
 _ZN14K3PasswordEditD1Ev@Base 4:4.3.4
 _ZN14K3PasswordEditD2Ev@Base 4:4.3.4
 _ZN14K3ShellProcess11qt_metacallEN11QMetaObject4CallEiPPv@Base 4:4.3.4
 _ZN14K3ShellProcess11qt_metacastEPKc@Base 4:4.3.4
 _ZN14K3ShellProcess16staticMetaObjectE@Base 4:4.3.4
 _ZN14K3ShellProcess5quoteERK7QString@Base 4:4.3.4
 _ZN14K3ShellProcess5startEN9K3Process7RunModeE6QFlagsINS0_17CommunicationFlagEE@Base 4:4.3.4
 _ZN14K3ShellProcessC1EPKc@Base 4:4.3.4
 _ZN14K3ShellProcessC2EPKc@Base 4:4.3.4
 _ZN14K3ShellProcessD0Ev@Base 4:4.3.4
 _ZN14K3ShellProcessD1Ev@Base 4:4.3.4
 _ZN14K3ShellProcessD2Ev@Base 4:4.3.4
 _ZN15K3DockContainer10setToolTipEP12K3DockWidgetR7QString@Base 4:4.3.4
 _ZN15K3DockContainer10showWidgetEP12K3DockWidget@Base 4:4.3.4
 _ZN15K3DockContainer11prepareSaveER11QStringList@Base 4:4.3.4
 _ZN15K3DockContainer12dockDragMoveEP12K3DockWidgetP11QMouseEvent@Base 4:4.3.4
 _ZN15K3DockContainer12insertWidgetEP12K3DockWidgetRK7QPixmapRK7QStringRi@Base 4:4.3.4
 _ZN15K3DockContainer12removeWidgetEP12K3DockWidget@Base 4:4.3.4
 _ZN15K3DockContainer12undockWidgetEP12K3DockWidget@Base 4:4.3.4
 _ZN15K3DockContainer13dockDragEnterEP12K3DockWidgetP11QMouseEvent@Base 4:4.3.4
 _ZN15K3DockContainer13dockDragLeaveEP12K3DockWidgetP11QMouseEvent@Base 4:4.3.4
 _ZN15K3DockContainer13isOverlapModeEv@Base 4:4.3.4
 _ZN15K3DockContainer16parentDockWidgetEv@Base 4:4.3.4
 _ZN15K3DockContainer19activateOverlapModeEi@Base 4:4.3.4
 _ZN15K3DockContainer21deactivateOverlapModeEv@Base 4:4.3.4
 _ZN15K3DockContainer4loadEP7KConfigRK7QString@Base 4:4.3.4
 _ZN15K3DockContainer4loadER11QDomElement@Base 4:4.3.4
 _ZN15K3DockContainer4saveEP7KConfigRK7QString@Base 4:4.3.4
 _ZN15K3DockContainer4saveER11QDomElement@Base 4:4.3.4
 _ZN15K3DockContainer9setPixmapEP12K3DockWidgetRK7QPixmap@Base 4:4.3.4
 _ZN15K3DockContainerC1Ev@Base 4:4.3.4
 _ZN15K3DockContainerC2Ev@Base 4:4.3.4
 _ZN15K3DockContainerD0Ev@Base 4:4.3.4
 _ZN15K3DockContainerD1Ev@Base 4:4.3.4
 _ZN15K3DockContainerD2Ev@Base 4:4.3.4
 _ZN15KFileTreeBranch11qt_metacallEN11QMetaObject4CallEiPPv@Base 4:4.3.4
 _ZN15KFileTreeBranch11qt_metacastEPKc@Base 4:4.3.4
 _ZN15KFileTreeBranch11slCompletedERK4KUrl@Base 4:4.3.4
 _ZN15KFileTreeBranch12childRecurseEv@Base 4:4.3.4
 _ZN15KFileTreeBranch12findTVIByUrlERK4KUrl@Base 4:4.3.4
 _ZN15KFileTreeBranch12slotCanceledERK4KUrl@Base 4:4.3.4
 _ZN15KFileTreeBranch12slotRedirectERK4KUrlS2_@Base 4:4.3.4
 _ZN15KFileTreeBranch13setOpenPixmapERK7QPixmap@Base 4:4.3.4
 _ZN15KFileTreeBranch14parentKFTVItemERK9KFileItem@Base 4:4.3.4
 _ZN15KFileTreeBranch14slotDeleteItemERK9KFileItem@Base 4:4.3.4
 _ZN15KFileTreeBranch15setChildRecurseEb@Base 4:4.3.4
 _ZN15KFileTreeBranch16deleteChildrenOfEP14Q3ListViewItem@Base 4:4.3.4
 _ZN15KFileTreeBranch16newTreeViewItemsEPS_RK9Q3PtrListI18K3FileTreeViewItemE@Base 4:4.3.4
 _ZN15KFileTreeBranch16populateFinishedEP18K3FileTreeViewItem@Base 4:4.3.4
 _ZN15KFileTreeBranch16slotRefreshItemsERK5QListI5QPairI9KFileItemS2_EE@Base 4:4.3.4
 _ZN15KFileTreeBranch16staticMetaObjectE@Base 4:4.3.4
 _ZN15KFileTreeBranch17setShowExtensionsEb@Base 4:4.3.4
 _ZN15KFileTreeBranch17slotListerStartedERK4KUrl@Base 4:4.3.4
 _ZN15KFileTreeBranch18createTreeViewItemEP18K3FileTreeViewItemRK9KFileItem@Base 4:4.3.4
 _ZN15KFileTreeBranch18slotDirlisterClearEv@Base 4:4.3.4
 _ZN15KFileTreeBranch19directoryChildCountEP18K3FileTreeViewItemi@Base 4:4.3.4
 _ZN15KFileTreeBranch19treeItemForFileItemERK9KFileItem@Base 4:4.3.4
 _ZN15KFileTreeBranch21slotDirlisterClearUrlERK4KUrl@Base 4:4.3.4
 _ZN15KFileTreeBranch4rootEv@Base 4:4.3.4
 _ZN15KFileTreeBranch7setNameE7QString@Base 4:4.3.4
 _ZN15KFileTreeBranch7setOpenEb@Base 4:4.3.4
 _ZN15KFileTreeBranch7setRootEP18K3FileTreeViewItem@Base 4:4.3.4
 _ZN15KFileTreeBranch8addItemsERK13KFileItemList@Base 4:4.3.4
 _ZN15KFileTreeBranch8populateERK4KUrlP18K3FileTreeViewItem@Base 4:4.3.4
 _ZN15KFileTreeBranchC1EP14K3FileTreeViewRK4KUrlRK7QStringRK7QPixmapbP18K3FileTreeViewItem@Base 4:4.3.4
 _ZN15KFileTreeBranchC2EP14K3FileTreeViewRK4KUrlRK7QStringRK7QPixmapbP18K3FileTreeViewItem@Base 4:4.3.4
 _ZN15KFileTreeBranchD0Ev@Base 4:4.7.2
 _ZN15KFileTreeBranchD1Ev@Base 4:4.7.2
 _ZN15KFileTreeBranchD2Ev@Base 4:4.7.2
 _ZN16K3AboutContainer11qt_metacallEN11QMetaObject4CallEiPPv@Base 4:4.3.4
 _ZN16K3AboutContainer11qt_metacastEPKc@Base 4:4.3.4
 _ZN16K3AboutContainer16staticMetaObjectE@Base 4:4.3.4
 _ZN16K3AboutContainer8addImageERK7QString6QFlagsIN2Qt13AlignmentFlagEE@Base 4:4.3.4
 _ZN16K3AboutContainer8addTitleERK7QString6QFlagsIN2Qt13AlignmentFlagEEbb@Base 4:4.3.4
 _ZN16K3AboutContainer9addPersonERK7QStringS2_S2_S2_bbb@Base 4:4.3.4
 _ZN16K3AboutContainer9addWidgetEP7QWidget@Base 4:4.3.4
 _ZN16K3AboutContainerC1EP7QWidgetii6QFlagsIN2Qt13AlignmentFlagEES5_@Base 4:4.3.4
 _ZN16K3AboutContainerC2EP7QWidgetii6QFlagsIN2Qt13AlignmentFlagEES5_@Base 4:4.3.4
 _ZN16K3AboutContainerD0Ev@Base 4:4.3.4
 _ZN16K3AboutContainerD1Ev@Base 4:4.3.4
 _ZN16K3AboutContainerD2Ev@Base 4:4.3.4
 _ZN16K3CommandHistory10addCommandEP9K3Commandb@Base 4:4.3.4
 _ZN16K3CommandHistory11qt_metacallEN11QMetaObject4CallEiPPv@Base 4:4.3.4
 _ZN16K3CommandHistory11qt_metacastEPKc@Base 4:4.3.4
 _ZN16K3CommandHistory12clipCommandsEv@Base 4:4.3.4
 _ZN16K3CommandHistory12setRedoLimitEi@Base 4:4.3.4
 _ZN16K3CommandHistory12setUndoLimitEi@Base 4:4.3.4
 _ZN16K3CommandHistory13documentSavedEv@Base 4:4.3.4
 _ZN16K3CommandHistory13updateActionsEv@Base 4:4.3.4
 _ZN16K3CommandHistory15commandExecutedEP9K3Command@Base 4:4.3.4
 _ZN16K3CommandHistory16documentRestoredEv@Base 4:4.3.4
 _ZN16K3CommandHistory16staticMetaObjectE@Base 4:4.3.4
 _ZN16K3CommandHistory21commandHistoryChangedEv@Base 4:4.3.4
 _ZN16K3CommandHistory4redoEv@Base 4:4.3.4
 _ZN16K3CommandHistory4undoEv@Base 4:4.3.4
 _ZN16K3CommandHistory5clearEv@Base 4:4.3.4
 _ZN16K3CommandHistoryC1EP17KActionCollectionb@Base 4:4.3.4
 _ZN16K3CommandHistoryC1Ev@Base 4:4.3.4
 _ZN16K3CommandHistoryC2EP17KActionCollectionb@Base 4:4.3.4
 _ZN16K3CommandHistoryC2Ev@Base 4:4.3.4
 _ZN16K3CommandHistoryD0Ev@Base 4:4.3.4
 _ZN16K3CommandHistoryD1Ev@Base 4:4.3.4
 _ZN16K3CommandHistoryD2Ev@Base 4:4.3.4
 _ZN16K3DockMainWindow11qt_metacallEN11QMetaObject4CallEiPPv@Base 4:4.3.4
 _ZN16K3DockMainWindow11qt_metacastEPKc@Base 4:4.3.4
 _ZN16K3DockMainWindow12activateDockEv@Base 4:4.3.4
 _ZN16K3DockMainWindow12virtual_hookEiPv@Base 4:4.3.4
 _ZN16K3DockMainWindow14readDockConfigEP7KConfigRK7QString@Base 4:4.3.4
 _ZN16K3DockMainWindow14readDockConfigER11QDomElement@Base 4:4.3.4
 _ZN16K3DockMainWindow15makeDockVisibleEP12K3DockWidget@Base 4:4.3.4
 _ZN16K3DockMainWindow15writeDockConfigEP7KConfigRK7QString@Base 4:4.3.4
 _ZN16K3DockMainWindow15writeDockConfigER11QDomElement@Base 4:4.3.4
 _ZN16K3DockMainWindow16createDockWidgetERK7QStringRK7QPixmapP7QWidgetS2_S2_@Base 4:4.3.4
 _ZN16K3DockMainWindow16staticMetaObjectE@Base 4:4.3.4
 _ZN16K3DockMainWindow17makeDockInvisibleEP12K3DockWidget@Base 4:4.3.4
 _ZN16K3DockMainWindow17setMainDockWidgetEP12K3DockWidget@Base 4:4.3.4
 _ZN16K3DockMainWindow21dockWidgetHasUndockedEP12K3DockWidget@Base 4:4.3.4
 _ZN16K3DockMainWindow21makeWidgetDockVisibleEP7QWidget@Base 4:4.3.4
 _ZN16K3DockMainWindow22slotDockWidgetUndockedEv@Base 4:4.3.4
 _ZN16K3DockMainWindow7setViewEP7QWidget@Base 4:4.3.4
 _ZN16K3DockMainWindowC1EP7QWidgetPKc6QFlagsIN2Qt10WindowTypeEE@Base 4:4.3.4
 _ZN16K3DockMainWindowC2EP7QWidgetPKc6QFlagsIN2Qt10WindowTypeEE@Base 4:4.3.4
 _ZN16K3DockMainWindowD0Ev@Base 4:4.3.4
 _ZN16K3DockMainWindowD1Ev@Base 4:4.3.4
 _ZN16K3DockMainWindowD2Ev@Base 4:4.3.4
 _ZN16K3PasswordDialog11enableOkBtnEv@Base 4:4.3.4
 _ZN16K3PasswordDialog11getPasswordEP7QWidgetR10QByteArrayRK7QStringPi@Base 4:4.3.4
 _ZN16K3PasswordDialog11getPasswordEP7QWidgetR10QByteArrayRK7QStringS6_Pb@Base 4:4.3.4
 _ZN16K3PasswordDialog11qt_metacallEN11QMetaObject4CallEiPPv@Base 4:4.3.4
 _ZN16K3PasswordDialog11qt_metacastEPKc@Base 4:4.3.4
 _ZN16K3PasswordDialog13checkPasswordEPKc@Base 4:4.3.4
 _ZN16K3PasswordDialog13clearPasswordEv@Base 4:4.3.4
 _ZN16K3PasswordDialog14getNewPasswordEP7QWidgetR10QByteArrayRK7QString@Base 4:4.3.4
 _ZN16K3PasswordDialog14getNewPasswordEP7QWidgetR10QByteArrayRK7QStringS6_@Base 4:4.3.4
 _ZN16K3PasswordDialog16disableCoreDumpsEv@Base 4:4.3.4
 _ZN16K3PasswordDialog16staticMetaObjectE@Base 4:4.3.4
 _ZN16K3PasswordDialog22setAllowEmptyPasswordsEb@Base 4:4.3.4
 _ZN16K3PasswordDialog24setMaximumPasswordLengthEi@Base 4:4.3.4
 _ZN16K3PasswordDialog24setMinimumPasswordLengthEi@Base 4:4.3.4
 _ZN16K3PasswordDialog27setReasonablePasswordLengthEi@Base 4:4.3.4
 _ZN16K3PasswordDialog31setPasswordStrengthWarningLevelEi@Base 4:4.3.4
 _ZN16K3PasswordDialog4initEv@Base 4:4.3.4
 _ZN16K3PasswordDialog5eraseEv@Base 4:4.3.4
 _ZN16K3PasswordDialog6acceptEv@Base 4:4.3.4
 _ZN16K3PasswordDialog7addLineERK7QStringS2_@Base 4:4.3.4
 _ZN16K3PasswordDialog8slotKeepEb@Base 4:4.3.4
 _ZN16K3PasswordDialog9setPromptERK7QString@Base 4:4.3.4
 _ZN16K3PasswordDialogC1ENS_5TypesEb6QFlagsIN7KDialog10ButtonCodeEEP7QWidget@Base 4:4.3.4
 _ZN16K3PasswordDialogC1ENS_5TypesEb6QFlagsIN7KDialog10ButtonCodeEERK7QStringP7QWidget@Base 4:4.3.4
 _ZN16K3PasswordDialogC2ENS_5TypesEb6QFlagsIN7KDialog10ButtonCodeEEP7QWidget@Base 4:4.3.4
 _ZN16K3PasswordDialogC2ENS_5TypesEb6QFlagsIN7KDialog10ButtonCodeEERK7QStringP7QWidget@Base 4:4.3.4
 _ZN16K3PasswordDialogD0Ev@Base 4:4.3.4
 _ZN16K3PasswordDialogD1Ev@Base 4:4.3.4
 _ZN16K3PasswordDialogD2Ev@Base 4:4.3.4
 _ZN18K3AboutApplicationC1EPK10KAboutDataP7QWidgetb@Base 4:4.3.4
 _ZN18K3AboutApplicationC2EPK10KAboutDataP7QWidgetb@Base 4:4.3.4
 _ZN18K3AboutApplicationD0Ev@Base 4:4.7.2
 _ZN18K3AboutApplicationD1Ev@Base 4:4.7.2
 _ZN18K3AboutApplicationD2Ev@Base 4:4.7.2
 _ZN18K3AboutContributor10fontChangeERK5QFont@Base 4:4.3.4
 _ZN18K3AboutContributor11qt_metacallEN11QMetaObject4CallEiPPv@Base 4:4.3.4
 _ZN18K3AboutContributor11qt_metacastEPKc@Base 4:4.3.4
 _ZN18K3AboutContributor16staticMetaObjectE@Base 4:4.3.4
 _ZN18K3AboutContributor6setUrlERK7QStringS2_b@Base 4:4.3.4
 _ZN18K3AboutContributor7Private12updateLayoutEv@Base 4:4.3.4
 _ZN18K3AboutContributor7setNameERK7QStringS2_b@Base 4:4.3.4
 _ZN18K3AboutContributor7setWorkERK7QStringS2_b@Base 4:4.3.4
 _ZN18K3AboutContributor8setEmailERK7QStringS2_b@Base 4:4.3.4
 _ZN18K3AboutContributorC1EP7QWidgetRK7QStringS4_S4_S4_bbb@Base 4:4.3.4
 _ZN18K3AboutContributorC2EP7QWidgetRK7QStringS4_S4_S4_bbb@Base 4:4.3.4
 _ZN18K3AboutContributorD0Ev@Base 4:4.3.4
 _ZN18K3AboutContributorD1Ev@Base 4:4.3.4
 _ZN18K3AboutContributorD2Ev@Base 4:4.3.4
 _ZN18K3DockWidgetHeader10loadConfigEP12KConfigGroup@Base 4:4.3.4
 _ZN18K3DockWidgetHeader10saveConfigEP12KConfigGroup@Base 4:4.3.4
 _ZN18K3DockWidgetHeader11qt_metacallEN11QMetaObject4CallEiPPv@Base 4:4.3.4
 _ZN18K3DockWidgetHeader11qt_metacastEPKc@Base 4:4.3.4
 _ZN18K3DockWidgetHeader11setTopLevelEb@Base 4:4.3.4
 _ZN18K3DockWidgetHeader12removeButtonEP20K3DockButton_Private@Base 4:4.3.4
 _ZN18K3DockWidgetHeader12setDragPanelEP22K3DockWidgetHeaderDrag@Base 4:4.3.4
 _ZN18K3DockWidgetHeader12virtual_hookEiPv@Base 4:4.3.4
 _ZN18K3DockWidgetHeader14setDragEnabledEb@Base 4:4.3.4
 _ZN18K3DockWidgetHeader15slotStayClickedEv@Base 4:4.3.4
 _ZN18K3DockWidgetHeader16showUndockButtonEb@Base 4:4.3.4
 _ZN18K3DockWidgetHeader16staticMetaObjectE@Base 4:4.3.4
 _ZN18K3DockWidgetHeader22forceCloseButtonHiddenEb@Base 4:4.3.4
 _ZN18K3DockWidgetHeader9addButtonEP20K3DockButton_Private@Base 4:4.3.4
 _ZN18K3DockWidgetHeader9dragPanelEv@Base 4:4.3.4
 _ZN18K3DockWidgetHeaderC1EP12K3DockWidgetPKc@Base 4:4.3.4
 _ZN18K3DockWidgetHeaderC2EP12K3DockWidgetPKc@Base 4:4.3.4
 _ZN18K3DockWidgetHeaderD0Ev@Base 4:4.3.4
 _ZN18K3DockWidgetHeaderD1Ev@Base 4:4.3.4
 _ZN18K3DockWidgetHeaderD2Ev@Base 4:4.3.4
 _ZN18K3FileTreeViewItem9setListedEb@Base 4:4.3.4
 _ZN18K3FileTreeViewItemC1EP14K3FileTreeViewRK9KFileItemP15KFileTreeBranch@Base 4:4.3.4
 _ZN18K3FileTreeViewItemC1EPS_RK9KFileItemP15KFileTreeBranch@Base 4:4.3.4
 _ZN18K3FileTreeViewItemC2EP14K3FileTreeViewRK9KFileItemP15KFileTreeBranch@Base 4:4.3.4
 _ZN18K3FileTreeViewItemC2EPS_RK9KFileItemP15KFileTreeBranch@Base 4:4.3.4
 _ZN18K3FileTreeViewItemD0Ev@Base 4:4.3.4
 _ZN18K3FileTreeViewItemD1Ev@Base 4:4.3.4
 _ZN18K3FileTreeViewItemD2Ev@Base 4:4.3.4
 _ZN18K3FileViewSignaler11qt_metacallEN11QMetaObject4CallEiPPv@Base 4:4.3.4
 _ZN18K3FileViewSignaler11qt_metacastEPKc@Base 4:4.3.4
 _ZN18K3FileViewSignaler12activateMenuERK9KFileItemRK6QPoint@Base 4:4.3.4
 _ZN18K3FileViewSignaler12dirActivatedERK9KFileItem@Base 4:4.3.4
 _ZN18K3FileViewSignaler12fileSelectedERK9KFileItem@Base 4:4.3.4
 _ZN18K3FileViewSignaler13activatedMenuERK9KFileItemRK6QPoint@Base 4:4.3.4
 _ZN18K3FileViewSignaler13changeSortingE6QFlagsIN4QDir8SortFlagEE@Base 4:4.3.4
 _ZN18K3FileViewSignaler13highlightFileERK9KFileItem@Base 4:4.3.4
 _ZN18K3FileViewSignaler14sortingChangedE6QFlagsIN4QDir8SortFlagEE@Base 4:4.3.4
 _ZN18K3FileViewSignaler15fileHighlightedERK9KFileItem@Base 4:4.3.4
 _ZN18K3FileViewSignaler16staticMetaObjectE@Base 4:4.3.4
 _ZN18K3FileViewSignaler7droppedERK9KFileItemP10QDropEventRKN4KUrl4ListE@Base 4:4.3.4
 _ZN18K3FileViewSignaler8activateERK9KFileItem@Base 4:4.3.4
 _ZN18K3FileViewSignaler8dropURLsERK9KFileItemP10QDropEventRKN4KUrl4ListE@Base 4:4.3.4
 _ZN18K3FileViewSignalerD0Ev@Base 4:4.7.2
 _ZN18K3FileViewSignalerD1Ev@Base 4:4.7.2
 _ZN18K3FileViewSignalerD2Ev@Base 4:4.7.2
 _ZN19K3MimeSourceFactory12virtual_hookEiPv@Base 4:4.3.4
 _ZN19K3MimeSourceFactory7installEv@Base 4:4.3.4
 _ZN19K3MimeSourceFactoryC1EP11KIconLoader@Base 4:4.3.4
 _ZN19K3MimeSourceFactoryC2EP11KIconLoader@Base 4:4.3.4
 _ZN19K3MimeSourceFactoryD0Ev@Base 4:4.3.4
 _ZN19K3MimeSourceFactoryD1Ev@Base 4:4.3.4
 _ZN19K3MimeSourceFactoryD2Ev@Base 4:4.3.4
 _ZN19K3ProcessController10addProcessEi@Base 4:4.3.4
 _ZN19K3ProcessController11addKProcessEP9K3Process@Base 4:4.3.4
 _ZN19K3ProcessController11qt_metacallEN11QMetaObject4CallEiPPv@Base 4:4.3.4
 _ZN19K3ProcessController11qt_metacastEPKc@Base 4:4.3.4
 _ZN19K3ProcessController13resetHandlersEv@Base 4:4.3.4
 _ZN19K3ProcessController13setupHandlersEv@Base 4:4.3.4
 _ZN19K3ProcessController14removeKProcessEP9K3Process@Base 4:4.3.4
 _ZN19K3ProcessController15rescheduleCheckEv@Base 4:4.3.4
 _ZN19K3ProcessController15unscheduleCheckEv@Base 4:4.3.4
 _ZN19K3ProcessController16staticMetaObjectE@Base 4:4.3.4
 _ZN19K3ProcessController17theSigCHLDHandlerEi@Base 4:4.3.4
 _ZN19K3ProcessController18slotDoHousekeepingEv@Base 4:4.3.4
 _ZN19K3ProcessController18waitForProcessExitEi@Base 4:4.3.4
 _ZN19K3ProcessController3refEv@Base 4:4.3.4
 _ZN19K3ProcessController5derefEv@Base 4:4.3.4
 _ZN19K3ProcessController7Private10handlerSetE@Base 4:4.3.4
 _ZN19K3ProcessController7Private19oldChildHandlerDataE@Base 4:4.3.4
 _ZN19K3ProcessController7Private8instanceE@Base 4:4.3.4
 _ZN19K3ProcessController7Private8refCountE@Base 4:4.3.4
 _ZN19K3ProcessController8instanceEv@Base 4:4.3.4
 _ZN19K3ProcessControllerC1Ev@Base 4:4.3.4
 _ZN19K3ProcessControllerC2Ev@Base 4:4.3.4
 _ZN19K3ProcessControllerD0Ev@Base 4:4.3.4
 _ZN19K3ProcessControllerD1Ev@Base 4:4.3.4
 _ZN19K3ProcessControllerD2Ev@Base 4:4.3.4
 _ZN19K3StaticDeleterBase14destructObjectEv@Base 4:4.3.4
 _ZN19K3StaticDeleterBaseD0Ev@Base 4:4.3.4
 _ZN19K3StaticDeleterBaseD1Ev@Base 4:4.3.4
 _ZN19K3StaticDeleterBaseD2Ev@Base 4:4.3.4
 _ZN19K3SyntaxHighlighter18highlightParagraphERK7QStringi@Base 4:4.3.4
 _ZN19K3SyntaxHighlighterC1EP10Q3TextEditbRK6QColorS4_S4_S4_NS_10SyntaxModeE@Base 4:4.3.4
 _ZN19K3SyntaxHighlighterC2EP10Q3TextEditbRK6QColorS4_S4_S4_NS_10SyntaxModeE@Base 4:4.3.4
 _ZN19K3SyntaxHighlighterD0Ev@Base 4:4.3.4
 _ZN19K3SyntaxHighlighterD1Ev@Base 4:4.3.4
 _ZN19K3SyntaxHighlighterD2Ev@Base 4:4.3.4
 _ZN20K3DockButton_Private10drawButtonEP8QPainter@Base 4:4.3.4
 _ZN20K3DockButton_Private10enterEventEP6QEvent@Base 4:4.3.4
 _ZN20K3DockButton_Private10leaveEventEP6QEvent@Base 4:4.3.4
 _ZN20K3DockButton_Private10paintEventEP11QPaintEvent@Base 4:4.3.4
 _ZN20K3DockButton_Private11qt_metacallEN11QMetaObject4CallEiPPv@Base 4:4.3.4
 _ZN20K3DockButton_Private11qt_metacastEPKc@Base 4:4.3.4
 _ZN20K3DockButton_Private16staticMetaObjectE@Base 4:4.3.4
 _ZN20K3DockButton_PrivateC1EP7QWidgetPKc@Base 4:4.3.4
 _ZN20K3DockButton_PrivateC2EP7QWidgetPKc@Base 4:4.3.4
 _ZN20K3DockButton_PrivateD0Ev@Base 4:4.3.4
 _ZN20K3DockButton_PrivateD1Ev@Base 4:4.3.4
 _ZN20K3DockButton_PrivateD2Ev@Base 4:4.3.4
 _ZN20K3IconViewSearchLine11qt_metacallEN11QMetaObject4CallEiPPv@Base 4:4.3.4
 _ZN20K3IconViewSearchLine11qt_metacastEPKc@Base 4:4.3.4
 _ZN20K3IconViewSearchLine11queueSearchERK7QString@Base 4:4.3.4
 _ZN20K3IconViewSearchLine11setIconViewEP10Q3IconView@Base 4:4.3.4
 _ZN20K3IconViewSearchLine12updateSearchERK7QString@Base 4:4.3.4
 _ZN20K3IconViewSearchLine14activateSearchEv@Base 4:4.3.4
 _ZN20K3IconViewSearchLine15iconViewDeletedEv@Base 4:4.3.4
 _ZN20K3IconViewSearchLine16setCaseSensitiveEb@Base 4:4.3.4
 _ZN20K3IconViewSearchLine16staticMetaObjectE@Base 4:4.3.4
 _ZN20K3IconViewSearchLine4initEP10Q3IconView@Base 4:4.3.4
 _ZN20K3IconViewSearchLine5clearEv@Base 4:4.3.4
 _ZN20K3IconViewSearchLine8hideItemEP14Q3IconViewItem@Base 4:4.3.4
 _ZN20K3IconViewSearchLine8showItemEP14Q3IconViewItem@Base 4:4.3.4
 _ZN20K3IconViewSearchLineC1EP7QWidgetP10Q3IconView@Base 4:4.3.4
 _ZN20K3IconViewSearchLineC2EP7QWidgetP10Q3IconView@Base 4:4.3.4
 _ZN20K3IconViewSearchLineD0Ev@Base 4:4.3.4
 _ZN20K3IconViewSearchLineD1Ev@Base 4:4.3.4
 _ZN20K3IconViewSearchLineD2Ev@Base 4:4.3.4
 _ZN20K3ListViewSearchLine11addListViewEP10K3ListView@Base 4:4.3.4
 _ZN20K3ListViewSearchLine11qt_metacallEN11QMetaObject4CallEiPPv@Base 4:4.3.4
 _ZN20K3ListViewSearchLine11qt_metacastEPKc@Base 4:4.3.4
 _ZN20K3ListViewSearchLine11queueSearchERK7QString@Base 4:4.3.4
 _ZN20K3ListViewSearchLine11setListViewEP10K3ListView@Base 4:4.3.4
 _ZN20K3ListViewSearchLine12checkColumnsEv@Base 4:4.3.4
 _ZN20K3ListViewSearchLine12setListViewsERK5QListIP10K3ListViewE@Base 4:4.3.4
 _ZN20K3ListViewSearchLine12updateSearchEP10K3ListView@Base 4:4.3.4
 _ZN20K3ListViewSearchLine12updateSearchERK7QString@Base 4:4.3.4
 _ZN20K3ListViewSearchLine14activateSearchEv@Base 4:4.3.4
 _ZN20K3ListViewSearchLine14removeListViewEP10K3ListView@Base 4:4.3.4
 _ZN20K3ListViewSearchLine15connectListViewEP10K3ListView@Base 4:4.3.4
 _ZN20K3ListViewSearchLine15listViewDeletedEP7QObject@Base 4:4.3.4
 _ZN20K3ListViewSearchLine16contextMenuEventEP17QContextMenuEvent@Base 4:4.3.4
 _ZN20K3ListViewSearchLine16setCaseSensitiveEb@Base 4:4.3.4
 _ZN20K3ListViewSearchLine16setSearchColumnsERK5QListIiE@Base 4:4.3.4
 _ZN20K3ListViewSearchLine16staticMetaObjectE@Base 4:4.3.4
 _ZN20K3ListViewSearchLine18disconnectListViewEP10K3ListView@Base 4:4.3.4
 _ZN20K3ListViewSearchLine21canChooseColumnsCheckEv@Base 4:4.3.4
 _ZN20K3ListViewSearchLine21setKeepParentsVisibleEb@Base 4:4.3.4
 _ZN20K3ListViewSearchLine23checkItemParentsVisibleEP14Q3ListViewItemS1_@Base 4:4.3.4
 _ZN20K3ListViewSearchLine26checkItemParentsNotVisibleEP10K3ListView@Base 4:4.3.4
 _ZN20K3ListViewSearchLine26searchColumnsMenuActivatedEP7QAction@Base 4:4.3.4
 _ZN20K3ListViewSearchLineC1EP7QWidgetP10K3ListView@Base 4:4.3.4
 _ZN20K3ListViewSearchLineC1EP7QWidgetRK5QListIP10K3ListViewE@Base 4:4.3.4
 _ZN20K3ListViewSearchLineC2EP7QWidgetP10K3ListView@Base 4:4.3.4
 _ZN20K3ListViewSearchLineC2EP7QWidgetRK5QListIP10K3ListViewE@Base 4:4.3.4
 _ZN20K3ListViewSearchLineD0Ev@Base 4:4.3.4
 _ZN20K3ListViewSearchLineD1Ev@Base 4:4.3.4
 _ZN20K3ListViewSearchLineD2Ev@Base 4:4.3.4
 _ZN21K3SpellingHighlighter13personalWordsEv@Base 4:4.3.4
 _ZN21K3SpellingHighlighter16flushCurrentWordEv@Base 4:4.3.4
 _ZN21K3SpellingHighlighter18highlightParagraphERK7QStringi@Base 4:4.3.4
 _ZN21K3SpellingHighlighter19setIntraWordEditingEb@Base 4:4.3.4
 _ZN21K3SpellingHighlighterC1EP10Q3TextEditRK6QColorbS4_S4_S4_S4_@Base 4:4.3.4
 _ZN21K3SpellingHighlighterC2EP10Q3TextEditRK6QColorbS4_S4_S4_S4_@Base 4:4.3.4
 _ZN21K3SpellingHighlighterD0Ev@Base 4:4.3.4
 _ZN21K3SpellingHighlighterD1Ev@Base 4:4.3.4
 _ZN21K3SpellingHighlighterD2Ev@Base 4:4.3.4
 _ZN22K3DockWidgetHeaderDrag10paintEventEP11QPaintEvent@Base 4:4.3.4
 _ZN22K3DockWidgetHeaderDrag11qt_metacallEN11QMetaObject4CallEiPPv@Base 4:4.3.4
 _ZN22K3DockWidgetHeaderDrag11qt_metacastEPKc@Base 4:4.3.4
 _ZN22K3DockWidgetHeaderDrag12virtual_hookEiPv@Base 4:4.3.4
 _ZN22K3DockWidgetHeaderDrag16staticMetaObjectE@Base 4:4.3.4
 _ZN22K3DockWidgetHeaderDragC1EP26K3DockWidgetAbstractHeaderP12K3DockWidgetPKc@Base 4:4.3.4
 _ZN22K3DockWidgetHeaderDragC2EP26K3DockWidgetAbstractHeaderP12K3DockWidgetPKc@Base 4:4.3.4
 _ZN22K3DockWidgetHeaderDragD0Ev@Base 4:4.3.4
 _ZN22K3DockWidgetHeaderDragD1Ev@Base 4:4.3.4
 _ZN22K3DockWidgetHeaderDragD2Ev@Base 4:4.3.4
 _ZN22K3StaticDeleterHelpers20deleteStaticDeletersEv@Base 4:4.3.4
 _ZN22K3StaticDeleterHelpers21registerStaticDeleterEP19K3StaticDeleterBase@Base 4:4.3.4
 _ZN22K3StaticDeleterHelpers23unregisterStaticDeleterEP19K3StaticDeleterBase@Base 4:4.3.4
 _ZN25K3DictSpellingHighlighter11eventFilterEP7QObjectP6QEvent@Base 4:4.3.4
 _ZN25K3DictSpellingHighlighter11qt_metacallEN11QMetaObject4CallEiPPv@Base 4:4.3.4
 _ZN25K3DictSpellingHighlighter11qt_metacastEPKc@Base 4:4.3.4
 _ZN25K3DictSpellingHighlighter12isMisspelledERK7QString@Base 4:4.3.4
 _ZN25K3DictSpellingHighlighter12setAutomaticEb@Base 4:4.3.4
 _ZN25K3DictSpellingHighlighter13activeChangedERK7QString@Base 4:4.3.4
 _ZN25K3DictSpellingHighlighter13slotCorrectedERK7QStringS2_j@Base 4:4.3.4
 _ZN25K3DictSpellingHighlighter14newSuggestionsERK7QStringRK11QStringListj@Base 4:4.3.4
 _ZN25K3DictSpellingHighlighter14slotSpellReadyEP7K3Spell@Base 4:4.3.4
 _ZN25K3DictSpellingHighlighter15slotMisspellingERK7QStringRK11QStringListj@Base 4:4.3.4
 _ZN25K3DictSpellingHighlighter15slotRehighlightEv@Base 4:4.3.4
 _ZN25K3DictSpellingHighlighter16staticMetaObjectE@Base 4:4.3.4
 _ZN25K3DictSpellingHighlighter17dictionaryChangedEv@Base 4:4.3.4
 _ZN25K3DictSpellingHighlighter17slotAutoDetectionEv@Base 4:4.3.4
 _ZN25K3DictSpellingHighlighter21slotDictionaryChangedEv@Base 4:4.3.4
 _ZN25K3DictSpellingHighlighter24slotK3SpellNotRespondingEv@Base 4:4.3.4
 _ZN25K3DictSpellingHighlighter27restartBackgroundSpellCheckEv@Base 4:4.3.4
 _ZN25K3DictSpellingHighlighter27slotLocalSpellConfigChangedEv@Base 4:4.3.4
 _ZN25K3DictSpellingHighlighter32K3DictSpellingHighlighterPrivate18sDictionaryMonitorE@Base 4:4.3.4
 _ZN25K3DictSpellingHighlighter32K3DictSpellingHighlighterPrivate8statDictE@Base 4:4.3.4
 _ZN25K3DictSpellingHighlighter8spellKeyEv@Base 4:4.3.4
 _ZN25K3DictSpellingHighlighter9setActiveEb@Base 4:4.3.4
 _ZN25K3DictSpellingHighlighterC1EP10Q3TextEditbbRK6QColorbS4_S4_S4_S4_P13K3SpellConfig@Base 4:4.3.4
 _ZN25K3DictSpellingHighlighterC2EP10Q3TextEditbbRK6QColorbS4_S4_S4_S4_P13K3SpellConfig@Base 4:4.3.4
 _ZN25K3DictSpellingHighlighterD0Ev@Base 4:4.3.4
 _ZN25K3DictSpellingHighlighterD1Ev@Base 4:4.3.4
 _ZN25K3DictSpellingHighlighterD2Ev@Base 4:4.3.4
 _ZN26K3DockWidgetAbstractHeader11qt_metacallEN11QMetaObject4CallEiPPv@Base 4:4.3.4
 _ZN26K3DockWidgetAbstractHeader11qt_metacastEPKc@Base 4:4.3.4
 _ZN26K3DockWidgetAbstractHeader12virtual_hookEiPv@Base 4:4.3.4
 _ZN26K3DockWidgetAbstractHeader16staticMetaObjectE@Base 4:4.3.4
 _ZN26K3DockWidgetAbstractHeaderC1EP12K3DockWidgetPKc@Base 4:4.3.4
 _ZN26K3DockWidgetAbstractHeaderC2EP12K3DockWidgetPKc@Base 4:4.3.4
 _ZN26K3ListViewSearchLineWidget11qt_metacallEN11QMetaObject4CallEiPPv@Base 4:4.3.4
 _ZN26K3ListViewSearchLineWidget11qt_metacastEPKc@Base 4:4.3.4
 _ZN26K3ListViewSearchLineWidget13createWidgetsEv@Base 4:4.3.4
 _ZN26K3ListViewSearchLineWidget16createSearchLineEP10K3ListView@Base 4:4.3.4
 _ZN26K3ListViewSearchLineWidget16staticMetaObjectE@Base 4:4.3.4
 _ZN26K3ListViewSearchLineWidgetC1EP10K3ListViewP7QWidget@Base 4:4.3.4
 _ZN26K3ListViewSearchLineWidgetC2EP10K3ListViewP7QWidget@Base 4:4.3.4
 _ZN26K3ListViewSearchLineWidgetD0Ev@Base 4:4.3.4
 _ZN26K3ListViewSearchLineWidgetD1Ev@Base 4:4.3.4
 _ZN26K3ListViewSearchLineWidgetD2Ev@Base 4:4.3.4
 _ZN30K3DockWidgetAbstractHeaderDrag11qt_metacallEN11QMetaObject4CallEiPPv@Base 4:4.3.4
 _ZN30K3DockWidgetAbstractHeaderDrag11qt_metacastEPKc@Base 4:4.3.4
 _ZN30K3DockWidgetAbstractHeaderDrag12virtual_hookEiPv@Base 4:4.3.4
 _ZN30K3DockWidgetAbstractHeaderDrag16staticMetaObjectE@Base 4:4.3.4
 _ZN30K3DockWidgetAbstractHeaderDragC1EP26K3DockWidgetAbstractHeaderP12K3DockWidgetPKc@Base 4:4.3.4
 _ZN30K3DockWidgetAbstractHeaderDragC2EP26K3DockWidgetAbstractHeaderP12K3DockWidgetPKc@Base 4:4.3.4
 _ZN30K3DockWidgetAbstractHeaderDragD0Ev@Base 4:4.3.4
 _ZN30K3DockWidgetAbstractHeaderDragD1Ev@Base 4:4.3.4
 _ZN30K3DockWidgetAbstractHeaderDragD2Ev@Base 4:4.3.4
 _ZN6KParts15DockMainWindow311qt_metacallEN11QMetaObject4CallEiPPv@Base 4:4.3.4
 _ZN6KParts15DockMainWindow311qt_metacastEPKc@Base 4:4.3.4
 _ZN6KParts15DockMainWindow314createShellGUIEb@Base 4:4.3.4
 _ZN6KParts15DockMainWindow316staticMetaObjectE@Base 4:4.3.4
 _ZN6KParts15DockMainWindow320slotSetStatusBarTextERK7QString@Base 4:4.3.4
 _ZN6KParts15DockMainWindow39createGUIEPNS_4PartE@Base 4:4.3.4
 _ZN6KParts15DockMainWindow3C1EP7QWidgetPKc6QFlagsIN2Qt10WindowTypeEE@Base 4:4.3.4
 _ZN6KParts15DockMainWindow3C2EP7QWidgetPKc6QFlagsIN2Qt10WindowTypeEE@Base 4:4.3.4
 _ZN6KParts15DockMainWindow3D0Ev@Base 4:4.3.4
 _ZN6KParts15DockMainWindow3D1Ev@Base 4:4.3.4
 _ZN6KParts15DockMainWindow3D2Ev@Base 4:4.3.4
 _ZN7K3Spell10checkList2Ev@Base 4:4.3.4
 _ZN7K3Spell10checkList4Ev@Base 4:4.3.4
 _ZN7K3Spell10checkWord2Ev@Base 4:4.3.4
 _ZN7K3Spell10checkWord3Ev@Base 4:4.3.4
 _ZN7K3Spell10cleanFputsERK7QString@Base 4:4.3.4
 _ZN7K3Spell10ignorewordERK7QString@Base 4:4.3.4
 _ZN7K3Spell10initializeEP7QWidgetRK7QStringP7QObjectPKcP13K3SpellConfigbbNS_11SpellerTypeE@Base 4:4.3.4
 _ZN7K3Spell10ispellExitEv@Base 4:4.3.4
 _ZN7K3Spell10modalCheckER7QString@Base 4:4.3.4
 _ZN7K3Spell10modalCheckER7QStringP13K3SpellConfig@Base 4:4.3.4
 _ZN7K3Spell10replaceallERK7QStringS2_@Base 4:4.3.4
 _ZN7K3Spell11addPersonalERK7QString@Base 4:4.3.4
 _ZN7K3Spell11checkList3aEv@Base 4:4.3.4
 _ZN7K3Spell11misspellingERK7QStringRK11QStringListj@Base 4:4.3.4
 _ZN7K3Spell11modalreturnE@Base 4:4.3.4
 _ZN7K3Spell11qt_metacallEN11QMetaObject4CallEiPPv@Base 4:4.3.4
 _ZN7K3Spell11qt_metacastEPKc@Base 4:4.3.4
 _ZN7K3Spell11setUpDialogEb@Base 4:4.3.4
 _ZN7K3Spell11startIspellEv@Base 4:4.3.4
 _ZN7K3Spell11suggestWordEv@Base 4:4.3.4
 _ZN7K3Spell12emitProgressEv@Base 4:4.3.4
 _ZN7K3Spell12ispellErrorsEv@Base 4:4.3.4
 _ZN7K3Spell13setAutoDeleteEb@Base 4:4.3.4
 _ZN7K3Spell13slotModalDoneERK7QString@Base 4:4.3.4
 _ZN7K3Spell14cleanFputsWordERK7QString@Base 4:4.3.4
 _ZN7K3Spell14slotModalReadyEv@Base 4:4.3.4
 _ZN7K3Spell14slotStopCancelEi@Base 4:4.3.4
 _ZN7K3Spell15modalWidgetHackE@Base 4:4.3.4
 _ZN7K3Spell16parseOneResponseERK7QStringRS0_R11QStringList@Base 4:4.3.4
 _ZN7K3Spell16staticMetaObjectE@Base 4:4.3.4
 _ZN7K3Spell18setIgnoreTitleCaseEb@Base 4:4.3.4
 _ZN7K3Spell19setIgnoreUpperWordsEb@Base 4:4.3.4
 _ZN7K3Spell21setProgressResolutionEj@Base 4:4.3.4
 _ZN7K3Spell23checkListReplaceCurrentEv@Base 4:4.3.4
 _ZN7K3Spell23writePersonalDictionaryEv@Base 4:4.3.4
 _ZN7K3Spell25slotSpellCheckerCorrectedERK7QStringS2_j@Base 4:4.3.4
 _ZN7K3Spell29slotModalSpellCheckerFinishedEv@Base 4:4.3.4
 _ZN7K3Spell4doneERK7QString@Base 4:4.3.4
 _ZN7K3Spell4doneEb@Base 4:4.3.4
 _ZN7K3Spell4hideEv@Base 4:4.3.4
 _ZN7K3Spell5checkERK7QStringb@Base 4:4.3.4
 _ZN7K3Spell5deathEv@Base 4:4.3.4
 _ZN7K3Spell5readyEPS_@Base 4:4.3.4
 _ZN7K3Spell6check2Ev@Base 4:4.3.4
 _ZN7K3Spell6check3Ev@Base 4:4.3.4
 _ZN7K3Spell6dialogERK7QStringR11QStringListPKc@Base 4:4.3.4
 _ZN7K3Spell6ignoreERK7QString@Base 4:4.3.4
 _ZN7K3Spell7addwordERK7QString@Base 4:4.3.4
 _ZN7K3Spell7cleanUpEv@Base 4:4.3.4
 _ZN7K3Spell7dialog2Ei@Base 4:4.3.4
 _ZN7K3Spell7dialog3Ev@Base 4:4.3.4
 _ZN7K3Spell7moveDlgEii@Base 4:4.3.4
 _ZN7K3Spell8K3Spell2Ev@Base 4:4.3.4
 _ZN7K3Spell8progressEj@Base 4:4.3.4
 _ZN7K3Spell9checkListEP11QStringListb@Base 4:4.3.4
 _ZN7K3Spell9checkNextEv@Base 4:4.3.4
 _ZN7K3Spell9checkWordERK7QStringb@Base 4:4.3.4
 _ZN7K3Spell9checkWordERK7QStringbb@Base 4:4.3.4
 _ZN7K3Spell9correctedERK7QStringS2_j@Base 4:4.3.4
 _ZN7K3Spell9emitDeathEv@Base 4:4.3.4
 _ZN7K3Spell9funnyWordERK7QString@Base 4:4.3.4
 _ZN7K3Spell9ignoreallERK7QString@Base 4:4.3.4
 _ZN7K3Spell9modaltextE@Base 4:4.3.4
 _ZN7K3SpellC1EP7QWidgetRK7QStringP7QObjectPKcP13K3SpellConfigbb@Base 4:4.3.4
 _ZN7K3SpellC1EP7QWidgetRK7QStringP7QObjectPKcP13K3SpellConfigbbNS_11SpellerTypeE@Base 4:4.3.4
 _ZN7K3SpellC2EP7QWidgetRK7QStringP7QObjectPKcP13K3SpellConfigbb@Base 4:4.3.4
 _ZN7K3SpellC2EP7QWidgetRK7QStringP7QObjectPKcP13K3SpellConfigbbNS_11SpellerTypeE@Base 4:4.3.4
 _ZN7K3SpellD0Ev@Base 4:4.3.4
 _ZN7K3SpellD1Ev@Base 4:4.3.4
 _ZN7K3SpellD2Ev@Base 4:4.3.4
 _ZN8K3ProcIO10writeStdinERK10QByteArray@Base 4:4.3.4
 _ZN8K3ProcIO10writeStdinERK10QByteArrayb@Base 4:4.3.4
 _ZN8K3ProcIO10writeStdinERK7QStringb@Base 4:4.3.4
 _ZN8K3ProcIO11qt_metacallEN11QMetaObject4CallEiPPv@Base 4:4.3.4
 _ZN8K3ProcIO11qt_metacastEPKc@Base 4:4.3.4
 _ZN8K3ProcIO13closeWhenDoneEv@Base 4:4.3.4
 _ZN8K3ProcIO16staticMetaObjectE@Base 4:4.3.4
 _ZN8K3ProcIO17enableReadSignalsEb@Base 4:4.3.4
 _ZN8K3ProcIO18controlledEmissionEv@Base 4:4.3.4
 _ZN8K3ProcIO4sentEP9K3Process@Base 4:4.3.4
 _ZN8K3ProcIO5startEN9K3Process7RunModeEb@Base 4:4.3.4
 _ZN8K3ProcIO6readlnER7QStringbPb@Base 4:4.3.4
 _ZN8K3ProcIO7ackReadEv@Base 4:4.3.4
 _ZN8K3ProcIO7setCommE6QFlagsIN9K3Process17CommunicationFlagEE@Base 4:4.3.4
 _ZN8K3ProcIO8receivedEP9K3ProcessPci@Base 4:4.3.4
 _ZN8K3ProcIO8resetAllEv@Base 4:4.3.4
 _ZN8K3ProcIO9readReadyEPS_@Base 4:4.3.4
 _ZN8K3ProcIOC1EP10QTextCodec@Base 4:4.3.4
 _ZN8K3ProcIOC2EP10QTextCodec@Base 4:4.3.4
 _ZN8K3ProcIOD0Ev@Base 4:4.3.4
 _ZN8K3ProcIOD1Ev@Base 4:4.3.4
 _ZN8K3ProcIOD2Ev@Base 4:4.3.4
 _ZN8K3Wizard11qt_metacallEN11QMetaObject4CallEiPPv@Base 4:4.3.4
 _ZN8K3Wizard11qt_metacastEPKc@Base 4:4.3.4
 _ZN8K3Wizard16staticMetaObjectE@Base 4:4.3.4
 _ZN8K3WizardC1EP7QWidgetPKcb6QFlagsIN2Qt10WindowTypeEE@Base 4:4.3.4
 _ZN8K3WizardC2EP7QWidgetPKcb6QFlagsIN2Qt10WindowTypeEE@Base 4:4.3.4
 _ZN9K3Command12virtual_hookEiPv@Base 4:4.3.4
 _ZN9K3CommandC1Ev@Base 4:4.3.4
 _ZN9K3CommandC2Ev@Base 4:4.3.4
 _ZN9K3CommandD0Ev@Base 4:4.3.4
 _ZN9K3CommandD1Ev@Base 4:4.3.4
 _ZN9K3CommandD2Ev@Base 4:4.3.4
 _ZN9K3ListBox10leaveEventEP6QEvent@Base 4:4.3.4
 _ZN9K3ListBox10slotOnItemEP13Q3ListBoxItem@Base 4:4.3.4
 _ZN9K3ListBox11emitExecuteEP13Q3ListBoxItemRK6QPoint@Base 4:4.3.4
 _ZN9K3ListBox11qt_metacallEN11QMetaObject4CallEiPPv@Base 4:4.3.4
 _ZN9K3ListBox11qt_metacastEPKc@Base 4:4.3.4
 _ZN9K3ListBox13doubleClickedEP13Q3ListBoxItemRK6QPoint@Base 4:4.3.4
 _ZN9K3ListBox13focusOutEventEP11QFocusEvent@Base 4:4.3.4
 _ZN9K3ListBox13keyPressEventEP9QKeyEvent@Base 4:4.3.4
 _ZN9K3ListBox14slotAutoSelectEv@Base 4:4.3.4
 _ZN9K3ListBox14slotOnViewportEv@Base 4:4.3.4
 _ZN9K3ListBox16staticMetaObjectE@Base 4:4.3.4
 _ZN9K3ListBox19slotSettingsChangedEi@Base 4:4.3.4
 _ZN9K3ListBox22slotMouseButtonClickedEiP13Q3ListBoxItemRK6QPoint@Base 4:4.3.4
 _ZN9K3ListBox23contentsMousePressEventEP11QMouseEvent@Base 4:4.3.4
 _ZN9K3ListBox29contentsMouseDoubleClickEventEP11QMouseEvent@Base 4:4.3.4
 _ZN9K3ListBox8executedEP13Q3ListBoxItem@Base 4:4.3.4
 _ZN9K3ListBox8executedEP13Q3ListBoxItemRK6QPoint@Base 4:4.3.4
 _ZN9K3ListBoxC1EP7QWidgetPKc6QFlagsIN2Qt10WindowTypeEE@Base 4:4.3.4
 _ZN9K3ListBoxC2EP7QWidgetPKc6QFlagsIN2Qt10WindowTypeEE@Base 4:4.3.4
 _ZN9K3ListBoxD0Ev@Base 4:4.7.2
 _ZN9K3ListBoxD1Ev@Base 4:4.7.2
 _ZN9K3ListBoxD2Ev@Base 4:4.7.2
 _ZN9K3Process10childErrorEi@Base 4:4.3.4
 _ZN9K3Process10closeStdinEv@Base 4:4.3.4
 _ZN9K3Process10writeStdinEPKci@Base 4:4.3.4
 _ZN9K3Process10wroteStdinEPS_@Base 4:4.3.4
 _ZN9K3Process11childOutputEi@Base 4:4.3.4
 _ZN9K3Process11closeStderrEv@Base 4:4.3.4
 _ZN9K3Process11closeStdoutEv@Base 4:4.3.4
 _ZN9K3Process11qt_metacallEN11QMetaObject4CallEiPPv@Base 4:4.3.4
 _ZN9K3Process11qt_metacastEPKc@Base 4:4.3.4
 _ZN9K3Process11setPriorityEi@Base 4:4.3.4
 _ZN9K3Process11setUseShellEbPKc@Base 4:4.3.4
 _ZN9K3Process12slotSendDataEi@Base 4:4.3.4
 _ZN9K3Process13processExitedEPS_@Base 4:4.3.4
 _ZN9K3Process14clearArgumentsEv@Base 4:4.3.4
 _ZN9K3Process14commSetupDoneCEv@Base 4:4.3.4
 _ZN9K3Process14commSetupDonePEv@Base 4:4.3.4
 _ZN9K3Process14receivedStderrEPS_Pci@Base 4:4.3.4
 _ZN9K3Process14receivedStdoutEPS_Pci@Base 4:4.3.4
 _ZN9K3Process14receivedStdoutEiRi@Base 4:4.3.4
 _ZN9K3Process14setEnvironmentERK7QStringS2_@Base 4:4.3.4
 _ZN9K3Process14slotChildErrorEi@Base 4:4.3.4
 _ZN9K3Process15slotChildOutputEi@Base 4:4.3.4
 _ZN9K3Process16processHasExitedEi@Base 4:4.3.4
 _ZN9K3Process16setRunPrivilegedEb@Base 4:4.3.4
 _ZN9K3Process16setupEnvironmentEv@Base 4:4.3.4
 _ZN9K3Process16staticMetaObjectE@Base 4:4.3.4
 _ZN9K3Process18setupCommunicationE6QFlagsINS_17CommunicationFlagEE@Base 4:4.3.4
 _ZN9K3Process19setBinaryExecutableEPKc@Base 4:4.3.4
 _ZN9K3Process19setWorkingDirectoryERK7QString@Base 4:4.3.4
 _ZN9K3Process4killEi@Base 4:4.3.4
 _ZN9K3Process4waitEi@Base 4:4.3.4
 _ZN9K3Process5quoteERK7QString@Base 4:4.3.4
 _ZN9K3Process5startENS_7RunModeE6QFlagsINS_17CommunicationFlagEE@Base 4:4.3.4
 _ZN9K3Process6detachEv@Base 4:4.3.4
 _ZN9K3Process6resumeEv@Base 4:4.3.4
 _ZN9K3Process7suspendEv@Base 4:4.3.4
 _ZN9K3Process8closeAllEv@Base 4:4.3.4
 _ZN9K3Process8closePtyEv@Base 4:4.3.4
 _ZN9K3Process9commCloseEv@Base 4:4.3.4
 _ZN9K3Process9setUsePtyE6QFlagsINS_17CommunicationFlagEEb@Base 4:4.3.4
 _ZN9K3ProcessC1EP7QObject@Base 4:4.3.4
 _ZN9K3ProcessC2EP7QObject@Base 4:4.3.4
 _ZN9K3ProcessD0Ev@Base 4:4.3.4
 _ZN9K3ProcessD1Ev@Base 4:4.3.4
 _ZN9K3ProcessD2Ev@Base 4:4.3.4
 _ZN9K3ProcesslsEPKc@Base 4:4.3.4
 _ZN9K3ProcesslsERK10QByteArray@Base 4:4.3.4
 _ZN9K3ProcesslsERK11QStringList@Base 4:4.3.4
 _ZN9K3ProcesslsERK7QString@Base 4:4.3.4
 _ZN9K3RFCDate14localUTCOffsetEv@Base 4:4.3.4
 _ZN9K3RFCDate16parseDateISO8601ERK7QString@Base 4:4.3.4
 _ZN9K3RFCDate17rfc2822DateStringEli@Base 4:4.3.4
 _ZN9K3RFCDate9parseDateERK7QString@Base 4:4.3.4
 _ZN9K3URLDrag11stringToUrlERK10QByteArray@Base 4:4.3.4
 _ZN9K3URLDrag11urlToStringERK4KUrl@Base 4:4.3.4
 _ZN9K3URLDrag15setExportAsTextEb@Base 4:4.3.4
 _ZN9K3URLDrag4initERKN4KUrl4ListE@Base 4:4.3.4
 _ZN9K3URLDrag6decodeEPK11QMimeSourceRN4KUrl4ListE@Base 4:4.3.4
 _ZN9K3URLDrag6decodeEPK11QMimeSourceRN4KUrl4ListER4QMapI7QStringS7_E@Base 4:4.3.4
 _ZN9K3URLDrag7newDragERKN4KUrl4ListEP7QWidget@Base 4:4.3.4
 _ZN9K3URLDrag7newDragERKN4KUrl4ListERK4QMapI7QStringS5_EP7QWidget@Base 4:4.3.4
 _ZN9K3URLDrag8metaDataEv@Base 4:4.3.4
 _ZN9K3URLDragC1ERK9Q3StrListRK4QMapI7QStringS4_EP7QWidget@Base 4:4.3.4
 _ZN9K3URLDragC1ERKN4KUrl4ListEP7QWidget@Base 4:4.3.4
 _ZN9K3URLDragC1ERKN4KUrl4ListERK4QMapI7QStringS5_EP7QWidget@Base 4:4.3.4
 _ZN9K3URLDragC2ERK9Q3StrListRK4QMapI7QStringS4_EP7QWidget@Base 4:4.3.4
 _ZN9K3URLDragC2ERKN4KUrl4ListEP7QWidget@Base 4:4.3.4
 _ZN9K3URLDragC2ERKN4KUrl4ListERK4QMapI7QStringS5_EP7QWidget@Base 4:4.3.4
 _ZN9K3URLDragD0Ev@Base 4:4.3.4
 _ZN9K3URLDragD1Ev@Base 4:4.3.4
 _ZN9K3URLDragD2Ev@Base 4:4.3.4
 _ZNK10K3DockArea10metaObjectEv@Base 4:4.3.4
 _ZNK10K3FileView10isReversedEv@Base 4:4.3.4
 _ZNK10K3FileView13selectedItemsEv@Base 4:4.3.4
 _ZNK10K3FileView13selectionModeEv@Base 4:4.3.4
 _ZNK10K3FileView16actionCollectionEv@Base 4:4.3.4
 _ZNK10K3FileView27onlyDoubleClickSelectsFilesEv@Base 4:4.3.4
 _ZNK10K3FileView5countEv@Base 4:4.3.4
 _ZNK10K3FileView5itemsEv@Base 4:4.3.4
 _ZNK10K3FileView6widgetEv@Base 4:4.3.4
 _ZNK10K3FileView7numDirsEv@Base 4:4.3.4
 _ZNK10K3FileView7sortingEv@Base 4:4.3.4
 _ZNK10K3FileView8numFilesEv@Base 4:4.3.4
 _ZNK10K3FileView8signalerEv@Base 4:4.3.4
 _ZNK10K3FileView8viewModeEv@Base 4:4.3.4
 _ZNK10K3FileView8viewNameEv@Base 4:4.3.4
 _ZNK10K3IconView10metaObjectEv@Base 4:4.3.4
 _ZNK10K3IconView14iconTextHeightEv@Base 4:4.3.4
 _ZNK10K3IconView15itemFontMetricsEv@Base 4:4.3.4
 _ZNK10K3IconView18selectedIconPixmapEP7QPixmapRK6QColor@Base 4:4.3.4
 _ZNK10K3IconView4modeEv@Base 4:4.3.4
 _ZNK10K3ListView10acceptDragEP10QDropEvent@Base 4:4.3.4
 _ZNK10K3ListView10metaObjectEv@Base 4:4.3.4
 _ZNK10K3ListView10saveLayoutEP7KConfigRK7QString@Base 4:4.3.4
 _ZNK10K3ListView10saveLayoutER12KConfigGroup@Base 4:4.3.4
 _ZNK10K3ListView11dragEnabledEv@Base 4:4.3.4
 _ZNK10K3ListView11showTooltipEP14Q3ListViewItemRK6QPointi@Base 4:4.3.4
 _ZNK10K3ListView12columnSortedEv@Base 4:4.3.4
 _ZNK10K3ListView12isRenameableEi@Base 4:4.3.4
 _ZNK10K3ListView12itemsMovableEv@Base 4:4.3.4
 _ZNK10K3ListView13ascendingSortEv@Base 4:4.3.4
 _ZNK10K3ListView13selectedItemsEb@Base 4:4.3.4
 _ZNK10K3ListView13tooltipColumnEv@Base 4:4.3.4
 _ZNK10K3ListView14dropVisualizerEv@Base 4:4.3.4
 _ZNK10K3ListView14renameLineEditEv@Base 4:4.3.4
 _ZNK10K3ListView15dropHighlighterEv@Base 4:4.3.4
 _ZNK10K3ListView15itemsRenameableEv@Base 4:4.3.4
 _ZNK10K3ListView15shadeSortColumnEv@Base 4:4.3.4
 _ZNK10K3ListView16selectionModeExtEv@Base 4:4.3.4
 _ZNK10K3ListView18automaticSelectionEv@Base 4:4.3.4
 _ZNK10K3ListView18tabOrderedRenamingEv@Base 4:4.3.4
 _ZNK10K3ListView19alternateBackgroundEv@Base 4:4.3.4
 _ZNK10K3ListView19dropVisualizerWidthEv@Base 4:4.3.4
 _ZNK10K3ListView7tooltipEP14Q3ListViewItemi@Base 4:4.3.4
 _ZNK10K3ListView8autoOpenEv@Base 4:4.3.4
 _ZNK10K3ListView8lastItemEv@Base 4:4.3.4
 _ZNK10K3ListView9fullWidthEv@Base 4:4.3.4
 _ZNK10K3ListView9itemIndexEPK14Q3ListViewItem@Base 4:4.3.4
 _ZNK10K3ListView9lastChildEv@Base 4:4.3.4
 _ZNK10K3SpellDlg10metaObjectEv@Base 4:4.3.4
 _ZNK10K3SpellDlg11replacementEv@Base 4:4.3.4
 _ZNK10K3TempFile4nameEv@Base 4:4.3.4
 _ZNK10K3TempFile6handleEv@Base 4:4.3.4
 _ZNK10K3TempFile6isOpenEv@Base 4:4.3.4
 _ZNK10K3TempFile6statusEv@Base 4:4.3.4
 _ZNK10K3TextEdit10metaObjectEv@Base 4:4.3.4
 _ZNK10K3TextEdit20checkSpellingEnabledEv@Base 4:4.3.4
 _ZNK11K3ButtonBox10metaObjectEv@Base 4:4.3.4
 _ZNK11K3ButtonBox10sizePolicyEv@Base 4:4.3.4
 _ZNK11K3ButtonBox14bestButtonSizeEv@Base 4:4.3.4
 _ZNK11K3ButtonBox14buttonSizeHintEP11QPushButton@Base 4:4.3.4
 _ZNK11K3ButtonBox8sizeHintEv@Base 4:4.3.4
 _ZNK11K3ColorDrag10metaObjectEv@Base 4:4.3.4
 _ZNK11K3ColorDrag11encodedDataEPKc@Base 4:4.3.4
 _ZNK11K3ColorDrag6formatEi@Base 4:4.3.4
 _ZNK11K3PanelMenu10metaObjectEv@Base 4:4.3.4
 _ZNK11K3PanelMenu11initializedEv@Base 4:4.3.4
 _ZNK11K3PanelMenu4pathEv@Base 4:4.3.4
 _ZNK11K3PopupMenu10metaObjectEv@Base 4:4.3.4
 _ZNK11K3PopupMenu11contextMenuEv@Base 4:4.3.4
 _ZNK11K3PopupMenu11titlePixmapEi@Base 4:4.3.4
 _ZNK11K3PopupMenu12mouseButtonsEv@Base 4:4.3.4
 _ZNK11K3PopupMenu17keyboardModifiersEv@Base 4:4.3.4
 _ZNK11K3PopupMenu5stateEv@Base 4:4.3.4
 _ZNK11K3PopupMenu5titleEi@Base 4:4.3.4
 _ZNK12K3DockWidget10metaObjectEv@Base 4:4.3.4
 _ZNK12K3DockWidget11dockManagerEv@Base 4:4.3.4
 _ZNK12K3DockWidget12tabPageLabelEv@Base 4:4.3.4
 _ZNK12K3DockWidget13enableDockingEv@Base 4:4.3.4
 _ZNK12K3DockWidget13toolTipStringEv@Base 4:4.3.4
 _ZNK12K3DockWidget18isDockBackPossibleEv@Base 4:4.3.4
 _ZNK12K3DockWidget18parentDockTabGroupEv@Base 4:4.3.4
 _ZNK12K3DockWidget19currentDockPositionEv@Base 4:4.3.4
 _ZNK12K3DockWidget19parentDockContainerEv@Base 4:4.3.4
 _ZNK12K3DockWidget6pixmapEv@Base 4:4.3.4
 _ZNK12K3DockWidget8dockSiteEv@Base 4:4.3.4
 _ZNK12K3DockWidget9getWidgetEv@Base 4:4.3.4
 _ZNK12K3DockWidget9mayBeHideEv@Base 4:4.3.4
 _ZNK12K3DockWidget9mayBeShowEv@Base 4:4.3.4
 (optional=templinst|arch=armel armhf kfreebsd-amd64 kfreebsd-i386)_ZNK12KConfigGroup9readCheckIbEET_PKcRKS1_@Base 4:4.6.3
 (optional=templinst|arch=amd64 hurd-i386 i386)_ZNK12KConfigGroup9readEntryIiEET_RK7QStringRKS1_@Base 4:4.7.4
 _ZNK13K3AboutDialog10metaObjectEv@Base 4:4.3.4
 _ZNK13K3AboutWidget10metaObjectEv@Base 4:4.3.4
 _ZNK13K3ActiveLabel10metaObjectEv@Base 4:4.3.4
 _ZNK13K3ActiveLabel15minimumSizeHintEv@Base 4:4.3.4
 _ZNK13K3ActiveLabel8sizeHintEv@Base 4:4.3.4
 _ZNK13K3DockManager10metaObjectEv@Base 4:4.3.4
 _ZNK13K3DockManager16dockHideShowMenuEv@Base 4:4.3.4
 _ZNK13K3DockManager16splitterKeepSizeEv@Base 4:4.3.4
 _ZNK13K3DockManager20findWidgetParentDockEP7QWidget@Base 4:4.3.4
 _ZNK13K3DockManager20splitterOpaqueResizeEv@Base 4:4.3.4
 _ZNK13K3DockManager22splitterHighResolutionEv@Base 4:4.3.4
 _ZNK13K3PanelApplet10customMenuEv@Base 4:4.3.4
 _ZNK13K3PanelApplet10metaObjectEv@Base 4:4.3.4
 _ZNK13K3PanelApplet11orientationEv@Base 4:4.3.4
 _ZNK13K3PanelApplet12sharedConfigEv@Base 4:4.3.4
 _ZNK13K3PanelApplet4typeEv@Base 4:4.3.4
 _ZNK13K3PanelApplet6configEv@Base 4:4.3.4
 _ZNK13K3PanelApplet7actionsEv@Base 4:4.3.4
 _ZNK13K3PanelApplet8positionEv@Base 4:4.3.4
 _ZNK13K3PanelApplet9alignmentEv@Base 4:4.3.4
 _ZNK13K3SpellConfig10dictionaryEv@Base 4:4.3.4
 _ZNK13K3SpellConfig10ignoreListEv@Base 4:4.3.4
 _ZNK13K3SpellConfig10metaObjectEv@Base 4:4.3.4
 _ZNK13K3SpellConfig11noRootAffixEv@Base 4:4.3.4
 _ZNK13K3SpellConfig11runTogetherEv@Base 4:4.3.4
 _ZNK13K3SpellConfig12dictFromListEv@Base 4:4.3.4
 _ZNK13K3SpellConfig14replaceAllListEv@Base 4:4.3.4
 _ZNK13K3SpellConfig15doSpellCheckingEv@Base 4:4.3.4
 _ZNK13K3SpellConfig6clientEv@Base 4:4.3.4
 _ZNK13K3SpellConfig8encodingEv@Base 4:4.3.4
 _ZNK14K3BookmarkDrag11encodedDataEPKc@Base 4:4.3.4
 _ZNK14K3BookmarkDrag6formatEi@Base 4:4.3.4
 _ZNK14K3DockSplitter10checkValueEi@Base 4:4.3.4
 _ZNK14K3DockSplitter10getAnotherEP7QWidget@Base 4:4.3.4
 _ZNK14K3DockSplitter10metaObjectEv@Base 4:4.3.4
 _ZNK14K3DockSplitter12opaqueResizeEv@Base 4:4.3.4
 _ZNK14K3DockSplitter12separatorPosEv@Base 4:4.3.4
 _ZNK14K3DockSplitter20checkValueOverlappedEiP7QWidget@Base 4:4.3.4
 _ZNK14K3DockSplitter8keepSizeEv@Base 4:4.3.4
 _ZNK14K3DockTabGroup10metaObjectEv@Base 4:4.3.4
 _ZNK14K3FileTreeView10acceptDragEP10QDropEvent@Base 4:4.3.4
 _ZNK14K3FileTreeView10currentUrlEv@Base 4:4.3.4
 _ZNK14K3FileTreeView10metaObjectEv@Base 4:4.3.4
 _ZNK14K3FileTreeView20showFolderOpenPixmapEv@Base 4:4.3.4
 _ZNK14K3FileTreeView24currentKFileTreeViewItemEv@Base 4:4.3.4
 _ZNK14K3FileTreeView8itemIconEP18K3FileTreeViewItemi@Base 4:4.3.4
 _ZNK14K3IconViewItem10pixmapSizeEv@Base 4:4.3.4
 _ZNK14K3MacroCommand8commandsEv@Base 4:4.3.4
 _ZNK14K3MultipleDrag10metaObjectEv@Base 4:4.3.4
 _ZNK14K3MultipleDrag11encodedDataEPKc@Base 4:4.3.4
 _ZNK14K3MultipleDrag6formatEi@Base 4:4.3.4
 _ZNK14K3NamedCommand4nameEv@Base 4:4.3.4
 _ZNK14K3PasswordEdit10metaObjectEv@Base 4:4.3.4
 _ZNK14K3PasswordEdit17maxPasswordLengthEv@Base 4:4.3.4
 _ZNK14K3PasswordEdit8passwordEv@Base 4:4.3.4
 _ZNK14K3ShellProcess10metaObjectEv@Base 4:4.3.4
 _ZNK15K3DockContainer16containedWidgetsEv@Base 4:4.3.4
 _ZNK15KFileTreeBranch10metaObjectEv@Base 4:4.3.4
 _ZNK15KFileTreeBranch10openPixmapEv@Base 4:4.3.4
 _ZNK15KFileTreeBranch14showExtensionsEv@Base 4:4.3.4
 _ZNK15KFileTreeBranch4nameEv@Base 4:4.3.4
 _ZNK15KFileTreeBranch6pixmapEv@Base 4:4.3.4
 _ZNK15KFileTreeBranch7rootUrlEv@Base 4:4.3.4
 _ZNK16K3AboutContainer10metaObjectEv@Base 4:4.3.4
 _ZNK16K3AboutContainer15minimumSizeHintEv@Base 4:4.3.4
 _ZNK16K3AboutContainer8sizeHintEv@Base 4:4.3.4
 _ZNK16K3CommandHistory10metaObjectEv@Base 4:4.3.4
 _ZNK16K3CommandHistory12redoCommandsEi@Base 4:4.3.4
 _ZNK16K3CommandHistory12undoCommandsEi@Base 4:4.3.4
 _ZNK16K3CommandHistory14presentCommandEv@Base 4:4.3.4
 _ZNK16K3CommandHistory15isRedoAvailableEv@Base 4:4.3.4
 _ZNK16K3CommandHistory15isUndoAvailableEv@Base 4:4.3.4
 _ZNK16K3CommandHistory9redoLimitEv@Base 4:4.3.4
 _ZNK16K3CommandHistory9undoLimitEv@Base 4:4.3.4
 _ZNK16K3DockMainWindow10metaObjectEv@Base 4:4.3.4
 _ZNK16K3DockMainWindow16dockHideShowMenuEv@Base 4:4.3.4
 _ZNK16K3DockMainWindow17getMainDockWidgetEv@Base 4:4.3.4
 _ZNK16K3DockMainWindow7managerEv@Base 4:4.3.4
 _ZNK16K3PasswordDialog10metaObjectEv@Base 4:4.3.4
 _ZNK16K3PasswordDialog19allowEmptyPasswordsEv@Base 4:4.3.4
 _ZNK16K3PasswordDialog21maximumPasswordLengthEv@Base 4:4.3.4
 _ZNK16K3PasswordDialog21minimumPasswordLengthEv@Base 4:4.3.4
 _ZNK16K3PasswordDialog24reasonablePasswordLengthEv@Base 4:4.3.4
 _ZNK16K3PasswordDialog28passwordStrengthWarningLevelEv@Base 4:4.3.4
 _ZNK16K3PasswordDialog4keepEv@Base 4:4.3.4
 _ZNK16K3PasswordDialog6promptEv@Base 4:4.3.4
 _ZNK16K3PasswordDialog8passwordEv@Base 4:4.3.4
 _ZNK18K3AboutContributor10metaObjectEv@Base 4:4.3.4
 _ZNK18K3AboutContributor3urlEv@Base 4:4.3.4
 _ZNK18K3AboutContributor4nameEv@Base 4:4.3.4
 _ZNK18K3AboutContributor4workEv@Base 4:4.3.4
 _ZNK18K3AboutContributor5emailEv@Base 4:4.3.4
 _ZNK18K3AboutContributor8sizeHintEv@Base 4:4.3.4
 _ZNK18K3DockWidgetHeader10metaObjectEv@Base 4:4.3.4
 _ZNK18K3DockWidgetHeader11dragEnabledEv@Base 4:4.3.4
 _ZNK18K3FileTreeViewItem13alreadyListedEv@Base 4:4.3.4
 _ZNK18K3FileTreeViewItem3urlEv@Base 4:4.3.4
 _ZNK18K3FileTreeViewItem4pathEv@Base 4:4.3.4
 _ZNK18K3FileTreeViewItem5isDirEv@Base 4:4.3.4
 _ZNK18K3FileViewSignaler10metaObjectEv@Base 4:4.3.4
 _ZNK19K3MimeSourceFactory12makeAbsoluteERK7QStringS2_@Base 4:4.3.4
 _ZNK19K3ProcessController10metaObjectEv@Base 4:4.3.4
 _ZNK19K3ProcessController10notifierFdEv@Base 4:4.3.4
 _ZNK20K3DockButton_Private10metaObjectEv@Base 4:4.3.4
 _ZNK20K3IconViewSearchLine10metaObjectEv@Base 4:4.3.4
 _ZNK20K3IconViewSearchLine11itemMatchesEPK14Q3IconViewItemRK7QString@Base 4:4.3.4
 _ZNK20K3IconViewSearchLine13caseSensitiveEv@Base 4:4.3.4
 _ZNK20K3IconViewSearchLine8iconViewEv@Base 4:4.3.4
 _ZNK20K3ListViewSearchLine10metaObjectEv@Base 4:4.3.4
 _ZNK20K3ListViewSearchLine11itemMatchesEPK14Q3ListViewItemRK7QString@Base 4:4.3.4
 _ZNK20K3ListViewSearchLine13caseSensitiveEv@Base 4:4.3.4
 _ZNK20K3ListViewSearchLine13searchColumnsEv@Base 4:4.3.4
 _ZNK20K3ListViewSearchLine18keepParentsVisibleEv@Base 4:4.3.4
 _ZNK20K3ListViewSearchLine8listViewEv@Base 4:4.3.4
 _ZNK20K3ListViewSearchLine9itemAddedEP14Q3ListViewItem@Base 4:4.3.4
 _ZNK20K3ListViewSearchLine9listViewsEv@Base 4:4.3.4
 _ZNK21K3SpellingHighlighter16intraWordEditingEv@Base 4:4.3.4
 _ZNK22K3DockWidgetHeaderDrag10metaObjectEv@Base 4:4.3.4
 _ZNK25K3DictSpellingHighlighter10metaObjectEv@Base 4:4.3.4
 _ZNK25K3DictSpellingHighlighter8isActiveEv@Base 4:4.3.4
 _ZNK25K3DictSpellingHighlighter9automaticEv@Base 4:4.3.4
 _ZNK26K3DockWidgetAbstractHeader10metaObjectEv@Base 4:4.3.4
 _ZNK26K3ListViewSearchLineWidget10metaObjectEv@Base 4:4.3.4
 _ZNK26K3ListViewSearchLineWidget10searchLineEv@Base 4:4.3.4
 _ZNK30K3DockWidgetAbstractHeaderDrag10dockWidgetEv@Base 4:4.3.4
 _ZNK30K3DockWidgetAbstractHeaderDrag10metaObjectEv@Base 4:4.3.4
 _ZNK6KParts15DockMainWindow310metaObjectEv@Base 4:4.3.4
 _ZNK7K3Spell10metaObjectEv@Base 4:4.3.4
 _ZNK7K3Spell11replacementEv@Base 4:4.3.4
 _ZNK7K3Spell11suggestionsEv@Base 4:4.3.4
 _ZNK7K3Spell12lastPositionEv@Base 4:4.3.4
 _ZNK7K3Spell18intermediateBufferEv@Base 4:4.3.4
 _ZNK7K3Spell6statusEv@Base 4:4.3.4
 _ZNK7K3Spell8ksConfigEv@Base 4:4.3.4
 _ZNK7K3Spell8widthDlgEv@Base 4:4.3.4
 _ZNK7K3Spell9dlgResultEv@Base 4:4.3.4
 _ZNK7K3Spell9heightDlgEv@Base 4:4.3.4
 _ZNK8K3ProcIO10metaObjectEv@Base 4:4.3.4
 _ZNK8K3Wizard10metaObjectEv@Base 4:4.3.4
 _ZNK9K3ListBox10metaObjectEv@Base 4:4.3.4
 _ZNK9K3Process10coreDumpedEv@Base 4:4.3.4
 _ZNK9K3Process10exitSignalEv@Base 4:4.3.4
 _ZNK9K3Process10exitStatusEv@Base 4:4.3.4
 _ZNK9K3Process10metaObjectEv@Base 4:4.3.4
 _ZNK9K3Process10normalExitEv@Base 4:4.3.4
 _ZNK9K3Process13runPrivilegedEv@Base 4:4.3.4
 _ZNK9K3Process3pidEv@Base 4:4.3.4
 _ZNK9K3Process3ptyEv@Base 4:4.3.4
 _ZNK9K3Process9isRunningEv@Base 4:4.3.4
 _ZNK9K3Process9signalledEv@Base 4:4.3.4
 _ZNK9K3URLDrag11encodedDataEPKc@Base 4:4.3.4
 _ZNK9K3URLDrag6formatEi@Base 4:4.3.4
 _ZTI10K3DockArea@Base 4:4.3.4
 _ZTI10K3FileView@Base 4:4.3.4
 _ZTI10K3IconView@Base 4:4.3.4
 _ZTI10K3ListView@Base 4:4.3.4
 _ZTI10K3SpellDlg@Base 4:4.3.4
 _ZTI10K3TextEdit@Base 4:4.3.4
 _ZTI11K3ButtonBox@Base 4:4.3.4
 _ZTI11K3ColorDrag@Base 4:4.3.4
 _ZTI11K3PanelMenu@Base 4:4.3.4
 _ZTI11K3PopupMenu@Base 4:4.3.4
 _ZTI12K3DockWidget@Base 4:4.3.4
 _ZTI13K3AboutDialog@Base 4:4.3.4
 _ZTI13K3AboutWidget@Base 4:4.3.4
 _ZTI13K3ActiveLabel@Base 4:4.3.4
 _ZTI13K3DockManager@Base 4:4.3.4
 _ZTI13K3PanelApplet@Base 4:4.3.4
 _ZTI13K3SpellConfig@Base 4:4.3.4
 _ZTI14K3BookmarkDrag@Base 4:4.3.4
 _ZTI14K3DockSplitter@Base 4:4.3.4
 _ZTI14K3DockTabGroup@Base 4:4.3.4
 _ZTI14K3FileTreeView@Base 4:4.3.4
 _ZTI14K3IconViewItem@Base 4:4.3.4
 _ZTI14K3ListViewItem@Base 4:4.3.4
 _ZTI14K3MacroCommand@Base 4:4.3.4
 _ZTI14K3MultipleDrag@Base 4:4.3.4
 _ZTI14K3NamedCommand@Base 4:4.3.4
 _ZTI14K3PasswordEdit@Base 4:4.3.4
 _ZTI14K3ShellProcess@Base 4:4.3.4
 _ZTI15K3DockContainer@Base 4:4.3.4
 _ZTI15KFileTreeBranch@Base 4:4.3.4
 _ZTI16K3AboutContainer@Base 4:4.3.4
 _ZTI16K3CommandHistory@Base 4:4.3.4
 _ZTI16K3DockMainWindow@Base 4:4.3.4
 _ZTI16K3PasswordDialog@Base 4:4.3.4
 _ZTI18K3AboutApplication@Base 4:4.3.4
 _ZTI18K3AboutContributor@Base 4:4.3.4
 _ZTI18K3DockWidgetHeader@Base 4:4.3.4
 _ZTI18K3FileTreeViewItem@Base 4:4.3.4
 _ZTI18K3FileViewSignaler@Base 4:4.3.4
 _ZTI19K3MimeSourceFactory@Base 4:4.3.4
 _ZTI19K3ProcessController@Base 4:4.3.4
 _ZTI19K3StaticDeleterBase@Base 4:4.3.4
 _ZTI19K3SyntaxHighlighter@Base 4:4.3.4
 _ZTI20K3DockButton_Private@Base 4:4.3.4
 _ZTI20K3IconViewSearchLine@Base 4:4.3.4
 _ZTI20K3ListViewSearchLine@Base 4:4.3.4
 _ZTI21K3SpellingHighlighter@Base 4:4.3.4
 _ZTI22K3DockWidgetHeaderDrag@Base 4:4.3.4
 _ZTI25K3DictSpellingHighlighter@Base 4:4.3.4
 _ZTI26K3DockWidgetAbstractHeader@Base 4:4.3.4
 _ZTI26K3ListViewSearchLineWidget@Base 4:4.3.4
 _ZTI30K3DockWidgetAbstractHeaderDrag@Base 4:4.3.4
 _ZTI7K3Spell@Base 4:4.3.4
 _ZTI8K3ProcIO@Base 4:4.3.4
 _ZTI8K3Wizard@Base 4:4.3.4
 _ZTI9K3Command@Base 4:4.3.4
 _ZTI9K3ListBox@Base 4:4.3.4
 _ZTI9K3Process@Base 4:4.3.4
 _ZTI9K3URLDrag@Base 4:4.3.4
 _ZTIN6KParts15DockMainWindow3E@Base 4:4.3.4
 _ZTS10K3DockArea@Base 4:4.3.4
 _ZTS10K3FileView@Base 4:4.3.4
 _ZTS10K3IconView@Base 4:4.3.4
 _ZTS10K3ListView@Base 4:4.3.4
 _ZTS10K3SpellDlg@Base 4:4.3.4
 _ZTS10K3TextEdit@Base 4:4.3.4
 _ZTS11K3ButtonBox@Base 4:4.3.4
 _ZTS11K3ColorDrag@Base 4:4.3.4
 _ZTS11K3PanelMenu@Base 4:4.3.4
 _ZTS11K3PopupMenu@Base 4:4.3.4
 _ZTS12K3DockWidget@Base 4:4.3.4
 _ZTS13K3AboutDialog@Base 4:4.3.4
 _ZTS13K3AboutWidget@Base 4:4.3.4
 _ZTS13K3ActiveLabel@Base 4:4.3.4
 _ZTS13K3DockManager@Base 4:4.3.4
 _ZTS13K3PanelApplet@Base 4:4.3.4
 _ZTS13K3SpellConfig@Base 4:4.3.4
 _ZTS14K3BookmarkDrag@Base 4:4.3.4
 _ZTS14K3DockSplitter@Base 4:4.3.4
 _ZTS14K3DockTabGroup@Base 4:4.3.4
 _ZTS14K3FileTreeView@Base 4:4.3.4
 _ZTS14K3IconViewItem@Base 4:4.3.4
 _ZTS14K3ListViewItem@Base 4:4.3.4
 _ZTS14K3MacroCommand@Base 4:4.3.4
 _ZTS14K3MultipleDrag@Base 4:4.3.4
 _ZTS14K3NamedCommand@Base 4:4.3.4
 _ZTS14K3PasswordEdit@Base 4:4.3.4
 _ZTS14K3ShellProcess@Base 4:4.3.4
 _ZTS15K3DockContainer@Base 4:4.3.4
 _ZTS15KFileTreeBranch@Base 4:4.3.4
 _ZTS16K3AboutContainer@Base 4:4.3.4
 _ZTS16K3CommandHistory@Base 4:4.3.4
 _ZTS16K3DockMainWindow@Base 4:4.3.4
 _ZTS16K3PasswordDialog@Base 4:4.3.4
 _ZTS18K3AboutApplication@Base 4:4.3.4
 _ZTS18K3AboutContributor@Base 4:4.3.4
 _ZTS18K3DockWidgetHeader@Base 4:4.3.4
 _ZTS18K3FileTreeViewItem@Base 4:4.3.4
 _ZTS18K3FileViewSignaler@Base 4:4.3.4
 _ZTS19K3MimeSourceFactory@Base 4:4.3.4
 _ZTS19K3ProcessController@Base 4:4.3.4
 _ZTS19K3StaticDeleterBase@Base 4:4.3.4
 _ZTS19K3SyntaxHighlighter@Base 4:4.3.4
 _ZTS20K3DockButton_Private@Base 4:4.3.4
 _ZTS20K3IconViewSearchLine@Base 4:4.3.4
 _ZTS20K3ListViewSearchLine@Base 4:4.3.4
 _ZTS21K3SpellingHighlighter@Base 4:4.3.4
 _ZTS22K3DockWidgetHeaderDrag@Base 4:4.3.4
 _ZTS25K3DictSpellingHighlighter@Base 4:4.3.4
 _ZTS26K3DockWidgetAbstractHeader@Base 4:4.3.4
 _ZTS26K3ListViewSearchLineWidget@Base 4:4.3.4
 _ZTS30K3DockWidgetAbstractHeaderDrag@Base 4:4.3.4
 _ZTS7K3Spell@Base 4:4.3.4
 _ZTS8K3ProcIO@Base 4:4.3.4
 _ZTS8K3Wizard@Base 4:4.3.4
 _ZTS9K3Command@Base 4:4.3.4
 _ZTS9K3ListBox@Base 4:4.3.4
 _ZTS9K3Process@Base 4:4.3.4
 _ZTS9K3URLDrag@Base 4:4.3.4
 _ZTSN6KParts15DockMainWindow3E@Base 4:4.3.4
 _ZTT16K3DockMainWindow@Base 4:4.3.4
 _ZTTN6KParts15DockMainWindow3E@Base 4:4.3.4
 _ZTV10K3DockArea@Base 4:4.3.4
 _ZTV10K3FileView@Base 4:4.3.4
 _ZTV10K3IconView@Base 4:4.3.4
 _ZTV10K3ListView@Base 4:4.3.4
 _ZTV10K3SpellDlg@Base 4:4.3.4
 _ZTV10K3TextEdit@Base 4:4.3.4
 _ZTV11K3ButtonBox@Base 4:4.3.4
 _ZTV11K3ColorDrag@Base 4:4.3.4
 _ZTV11K3PanelMenu@Base 4:4.3.4
 _ZTV11K3PopupMenu@Base 4:4.3.4
 _ZTV12K3DockWidget@Base 4:4.3.4
 _ZTV13K3AboutDialog@Base 4:4.3.4
 _ZTV13K3AboutWidget@Base 4:4.3.4
 _ZTV13K3ActiveLabel@Base 4:4.3.4
 _ZTV13K3DockManager@Base 4:4.3.4
 _ZTV13K3PanelApplet@Base 4:4.3.4
 _ZTV13K3SpellConfig@Base 4:4.3.4
 _ZTV14K3BookmarkDrag@Base 4:4.3.4
 _ZTV14K3DockSplitter@Base 4:4.3.4
 _ZTV14K3DockTabGroup@Base 4:4.3.4
 _ZTV14K3FileTreeView@Base 4:4.3.4
 _ZTV14K3IconViewItem@Base 4:4.3.4
 _ZTV14K3ListViewItem@Base 4:4.3.4
 _ZTV14K3MacroCommand@Base 4:4.3.4
 _ZTV14K3MultipleDrag@Base 4:4.3.4
 _ZTV14K3NamedCommand@Base 4:4.3.4
 _ZTV14K3PasswordEdit@Base 4:4.3.4
 _ZTV14K3ShellProcess@Base 4:4.3.4
 _ZTV15K3DockContainer@Base 4:4.3.4
 _ZTV15KFileTreeBranch@Base 4:4.3.4
 _ZTV16K3AboutContainer@Base 4:4.3.4
 _ZTV16K3CommandHistory@Base 4:4.3.4
 _ZTV16K3DockMainWindow@Base 4:4.3.4
 _ZTV16K3PasswordDialog@Base 4:4.3.4
 _ZTV18K3AboutApplication@Base 4:4.3.4
 _ZTV18K3AboutContributor@Base 4:4.3.4
 _ZTV18K3DockWidgetHeader@Base 4:4.3.4
 _ZTV18K3FileTreeViewItem@Base 4:4.3.4
 _ZTV18K3FileViewSignaler@Base 4:4.3.4
 _ZTV19K3MimeSourceFactory@Base 4:4.3.4
 _ZTV19K3ProcessController@Base 4:4.3.4
 _ZTV19K3StaticDeleterBase@Base 4:4.3.4
 _ZTV19K3SyntaxHighlighter@Base 4:4.3.4
 _ZTV20K3DockButton_Private@Base 4:4.3.4
 _ZTV20K3IconViewSearchLine@Base 4:4.3.4
 _ZTV20K3ListViewSearchLine@Base 4:4.3.4
 _ZTV21K3SpellingHighlighter@Base 4:4.3.4
 _ZTV22K3DockWidgetHeaderDrag@Base 4:4.3.4
 _ZTV25K3DictSpellingHighlighter@Base 4:4.3.4
 _ZTV26K3DockWidgetAbstractHeader@Base 4:4.3.4
 _ZTV26K3ListViewSearchLineWidget@Base 4:4.3.4
 _ZTV30K3DockWidgetAbstractHeaderDrag@Base 4:4.3.4
 _ZTV7K3Spell@Base 4:4.3.4
 _ZTV8K3ProcIO@Base 4:4.3.4
 _ZTV8K3Wizard@Base 4:4.3.4
 _ZTV9K3Command@Base 4:4.3.4
 _ZTV9K3ListBox@Base 4:4.3.4
 _ZTV9K3Process@Base 4:4.3.4
 _ZTV9K3URLDrag@Base 4:4.3.4
 _ZTVN6KParts15DockMainWindow3E@Base 4:4.3.4
 (c++)"construction vtable for K3DockMainWindow-in-KParts::DockMainWindow3@Base" 4:4.3.4
 (c++)"construction vtable for KParts::PartBase-in-KParts::DockMainWindow3@Base" 4:4.3.4
 (c++)"construction vtable for KXmlGuiWindow-in-K3DockMainWindow@Base" 4:4.3.4
 (c++)"construction vtable for KXmlGuiWindow-in-KParts::DockMainWindow3@Base" 4:4.3.4
 (c++)"non-virtual thunk to K3AboutApplication::~K3AboutApplication()@Base" 4:4.7.2
 (c++)"non-virtual thunk to K3AboutContainer::~K3AboutContainer()@Base" 4:4.3.4
 (c++)"non-virtual thunk to K3AboutContributor::~K3AboutContributor()@Base" 4:4.3.4
 (c++)"non-virtual thunk to K3AboutDialog::~K3AboutDialog()@Base" 4:4.7.2
 (c++)"non-virtual thunk to K3AboutWidget::~K3AboutWidget()@Base" 4:4.7.2
 (c++)"non-virtual thunk to K3ActiveLabel::~K3ActiveLabel()@Base" 4:4.3.4
 (c++)"non-virtual thunk to K3BookmarkDrag::encodedData(char const*) const@Base" 4:4.3.4
 (c++)"non-virtual thunk to K3BookmarkDrag::format(int) const@Base" 4:4.3.4
 (c++)"non-virtual thunk to K3ButtonBox::~K3ButtonBox()@Base" 4:4.3.4
 (c++)"non-virtual thunk to K3ColorDrag::encodedData(char const*) const@Base" 4:4.3.4
 (c++)"non-virtual thunk to K3ColorDrag::format(int) const@Base" 4:4.3.4
 (c++)"non-virtual thunk to K3DictSpellingHighlighter::isMisspelled(QString const&)@Base" 4:4.3.4
 (c++)"non-virtual thunk to K3DictSpellingHighlighter::~K3DictSpellingHighlighter()@Base" 4:4.3.4
 (c++)"non-virtual thunk to K3DockArea::~K3DockArea()@Base" 4:4.3.4
 (c++)"non-virtual thunk to K3DockButton_Private::~K3DockButton_Private()@Base" 4:4.3.4
 (c++)"non-virtual thunk to K3DockMainWindow::virtual_hook(int, void*)@Base" 4:4.3.4
 (c++)"non-virtual thunk to K3DockMainWindow::~K3DockMainWindow()@Base" 4:4.3.4
 (c++)"non-virtual thunk to K3DockTabGroup::~K3DockTabGroup()@Base" 4:4.3.4
 (c++)"non-virtual thunk to K3DockWidget::~K3DockWidget()@Base" 4:4.3.4
 (c++)"non-virtual thunk to K3DockWidgetAbstractHeaderDrag::~K3DockWidgetAbstractHeaderDrag()@Base" 4:4.3.4
 (c++)"non-virtual thunk to K3DockWidgetHeader::~K3DockWidgetHeader()@Base" 4:4.3.4
 (c++)"non-virtual thunk to K3DockWidgetHeaderDrag::~K3DockWidgetHeaderDrag()@Base" 4:4.3.4
 (c++)"non-virtual thunk to K3FileTreeView::~K3FileTreeView()@Base" 4:4.3.4
 (c++)"non-virtual thunk to K3IconView::~K3IconView()@Base" 4:4.3.4
 (c++)"non-virtual thunk to K3IconViewSearchLine::~K3IconViewSearchLine()@Base" 4:4.3.4
 (c++)"non-virtual thunk to K3ListBox::~K3ListBox()@Base" 4:4.7.2
 (c++)"non-virtual thunk to K3ListView::~K3ListView()@Base" 4:4.3.4
 (c++)"non-virtual thunk to K3ListViewSearchLine::~K3ListViewSearchLine()@Base" 4:4.3.4
 (c++)"non-virtual thunk to K3ListViewSearchLineWidget::~K3ListViewSearchLineWidget()@Base" 4:4.3.4
 (c++)"non-virtual thunk to K3MultipleDrag::encodedData(char const*) const@Base" 4:4.3.4
 (c++)"non-virtual thunk to K3MultipleDrag::format(int) const@Base" 4:4.3.4
 (c++)"non-virtual thunk to K3MultipleDrag::~K3MultipleDrag()@Base" 4:4.7.2
 (c++)"non-virtual thunk to K3PanelApplet::~K3PanelApplet()@Base" 4:4.3.4
 (c++)"non-virtual thunk to K3PanelMenu::~K3PanelMenu()@Base" 4:4.3.4
 (c++)"non-virtual thunk to K3PasswordDialog::~K3PasswordDialog()@Base" 4:4.3.4
 (c++)"non-virtual thunk to K3PasswordEdit::~K3PasswordEdit()@Base" 4:4.3.4
 (c++)"non-virtual thunk to K3PopupMenu::~K3PopupMenu()@Base" 4:4.3.4
 (c++)"non-virtual thunk to K3SpellConfig::~K3SpellConfig()@Base" 4:4.3.4
 (c++)"non-virtual thunk to K3SpellDlg::~K3SpellDlg()@Base" 4:4.3.4
 (c++)"non-virtual thunk to K3TextEdit::~K3TextEdit()@Base" 4:4.3.4
 (c++)"non-virtual thunk to K3URLDrag::encodedData(char const*) const@Base" 4:4.3.4
 (c++)"non-virtual thunk to K3URLDrag::format(int) const@Base" 4:4.3.4
 (c++)"non-virtual thunk to K3URLDrag::~K3URLDrag()@Base" 4:4.3.4
 (c++)"non-virtual thunk to KParts::DockMainWindow3::~DockMainWindow3()@Base" 4:4.3.4
 (c++)"virtual thunk to K3DockMainWindow::virtual_hook(int, void*)@Base" 4:4.3.4
 (c++)"virtual thunk to K3DockMainWindow::~K3DockMainWindow()@Base" 4:4.3.4
 (c++)"virtual thunk to KParts::DockMainWindow3::~DockMainWindow3()@Base" 4:4.3.4
libkunittest.so.4 libkde3support4 #MINVER#
* Build-Depends-Package: kdelibs5-dev
 _ZN9KUnitTest10SlotTester11qt_metacallEN11QMetaObject4CallEiPPv@Base 4:4.3.4
 _ZN9KUnitTest10SlotTester11qt_metacastEPKc@Base 4:4.3.4
 _ZN9KUnitTest10SlotTester12invokeMemberERK7QString@Base 4:4.3.4
 _ZN9KUnitTest10SlotTester16staticMetaObjectE@Base 4:4.3.4
 _ZN9KUnitTest10SlotTester6invokeEv@Base 4:4.3.4
 _ZN9KUnitTest10SlotTester7resultsEPKc@Base 4:4.3.4
 _ZN9KUnitTest10SlotTester8allTestsEv@Base 4:4.3.4
 _ZN9KUnitTest10SlotTesterC1Ev@Base 4:4.3.4
 _ZN9KUnitTest10SlotTesterC2Ev@Base 4:4.3.4
 _ZN9KUnitTest10SlotTesterD0Ev@Base 4:4.3.4
 _ZN9KUnitTest10SlotTesterD1Ev@Base 4:4.3.4
 _ZN9KUnitTest10SlotTesterD2Ev@Base 4:4.3.4
 _ZN9KUnitTest6Runner11loadModulesERK7QStringS3_@Base 4:4.3.4
 _ZN9KUnitTest6Runner11qt_metacallEN11QMetaObject4CallEiPPv@Base 4:4.3.4
 _ZN9KUnitTest6Runner11qt_metacastEPKc@Base 4:4.3.4
 _ZN9KUnitTest6Runner14registerTesterEPKcPNS_6TesterE@Base 4:4.3.4
 _ZN9KUnitTest6Runner16runMatchingTestsERK7QString@Base 4:4.3.4
 _ZN9KUnitTest6Runner16staticMetaObjectE@Base 4:4.3.4
 _ZN9KUnitTest6Runner17numberOfTestCasesEv@Base 4:4.3.4
 _ZN9KUnitTest6Runner23s_debugCapturingEnabledE@Base 4:4.3.4
 _ZN9KUnitTest6Runner24setDebugCapturingEnabledEb@Base 4:4.3.4
 _ZN9KUnitTest6Runner4selfEv@Base 4:4.3.4
 _ZN9KUnitTest6Runner5resetEv@Base 4:4.3.4
 _ZN9KUnitTest6Runner6invokeEv@Base 4:4.3.4
 _ZN9KUnitTest6Runner6s_selfE@Base 4:4.3.4
 _ZN9KUnitTest6Runner7runTestEPKc@Base 4:4.3.4
 _ZN9KUnitTest6Runner8finishedEPKcPNS_6TesterE@Base 4:4.3.4
 _ZN9KUnitTest6Runner8registryEv@Base 4:4.3.4
 _ZN9KUnitTest6Runner8runTestsEv@Base 4:4.3.4
 _ZN9KUnitTest6RunnerC1Ev@Base 4:4.3.4
 _ZN9KUnitTest6RunnerC2Ev@Base 4:4.3.4
 _ZN9KUnitTest6RunnerD0Ev@Base 4:4.7.2
 _ZN9KUnitTest6RunnerD1Ev@Base 4:4.7.2
 _ZN9KUnitTest6RunnerD2Ev@Base 4:4.7.2
 _ZNK9KUnitTest10SlotTester10metaObjectEv@Base 4:4.3.4
 _ZNK9KUnitTest6Runner10metaObjectEv@Base 4:4.3.4
 _ZNK9KUnitTest6Runner13numberOfTestsEv@Base 4:4.3.4
 _ZNK9KUnitTest6Runner19numberOfFailedTestsEv@Base 4:4.3.4
 _ZNK9KUnitTest6Runner19numberOfPassedTestsEv@Base 4:4.3.4
 _ZNK9KUnitTest6Runner20numberOfSkippedTestsEv@Base 4:4.3.4
 _ZNK9KUnitTest6Runner24numberOfExpectedFailuresEv@Base 4:4.3.4
 _ZTIN9KUnitTest10SlotTesterE@Base 4:4.3.4
 _ZTIN9KUnitTest11TestResultsE@Base 4:4.3.4
 _ZTIN9KUnitTest6RunnerE@Base 4:4.3.4
 _ZTIN9KUnitTest6TesterE@Base 4:4.3.4
 _ZTSN9KUnitTest10SlotTesterE@Base 4:4.3.4
 _ZTSN9KUnitTest11TestResultsE@Base 4:4.3.4
 _ZTSN9KUnitTest6RunnerE@Base 4:4.3.4
 _ZTSN9KUnitTest6TesterE@Base 4:4.3.4
 _ZTVN9KUnitTest10SlotTesterE@Base 4:4.3.4
 _ZTVN9KUnitTest11TestResultsE@Base 4:4.3.4
 _ZTVN9KUnitTest6RunnerE@Base 4:4.3.4
 _ZTVN9KUnitTest6TesterE@Base 4:4.3.4
 _ZlsR11QTextStreamRK5QRect@Base 4:4.3.4
 _ZlsR11QTextStreamRK5QSize@Base 4:4.3.4
 _ZlsR11QTextStreamRK6QPoint@Base 4:4.3.4
