# SymbolsHelper-Confirmed: 4:4.8.3 amd64 armhf hurd-i386 i386 ia64 kfreebsd-amd64 kfreebsd-i386 powerpc s390 s390x
libkfile.so.4 libkfile4 #MINVER#
* Build-Depends-Package: kdelibs5-dev
 _ZN11KFileWidget10readConfigER12KConfigGroup@Base 4:4.4.0
 _ZN11KFileWidget10slotCancelEv@Base 4:4.3.4
 _ZN11KFileWidget11clearFilterEv@Base 4:4.3.4
 _ZN11KFileWidget11dirOperatorEv@Base 4:4.3.4
 _ZN11KFileWidget11eventFilterEP7QObjectP6QEvent@Base 4:4.3.4
 _ZN11KFileWidget11getStartUrlERK4KUrlR7QString@Base 4:4.3.4
 _ZN11KFileWidget11getStartUrlERK4KUrlR7QStringS4_@Base 4:4.3.4
 _ZN11KFileWidget11qt_metacallEN11QMetaObject4CallEiPPv@Base 4:4.3.4
 _ZN11KFileWidget11qt_metacastEPKc@Base 4:4.3.4
 _ZN11KFileWidget11resizeEventEP12QResizeEvent@Base 4:4.3.4
 _ZN11KFileWidget11setStartDirERK4KUrl@Base 4:4.3.4
 _ZN11KFileWidget12fileSelectedERK4KUrl@Base 4:4.4.0
 _ZN11KFileWidget12fileSelectedERK7QString@Base 4:4.3.4
 _ZN11KFileWidget12setSelectionERK7QString@Base 4:4.3.4
 _ZN11KFileWidget12virtual_hookEiPv@Base 4:4.3.4
 _ZN11KFileWidget13filterChangedERK7QString@Base 4:4.3.4
 _ZN11KFileWidget13setMimeFilterERK11QStringListRK7QString@Base 4:4.3.4
 _ZN11KFileWidget15fileHighlightedERK4KUrl@Base 4:4.4.0
 _ZN11KFileWidget15fileHighlightedERK7QString@Base 4:4.3.4
 _ZN11KFileWidget15setCustomWidgetEP7QWidget@Base 4:4.3.4
 _ZN11KFileWidget15setCustomWidgetERK7QStringP7QWidget@Base 4:4.3.4
 _ZN11KFileWidget15setKeepLocationEb@Base 4:4.3.4
 _ZN11KFileWidget16selectionChangedEv@Base 4:4.3.4
 _ZN11KFileWidget16setLocationLabelERK7QString@Base 4:4.3.4
 _ZN11KFileWidget16setOperationModeEN19KAbstractFileWidget13OperationModeE@Base 4:4.3.4
 _ZN11KFileWidget16setPreviewWidgetEP18KPreviewWidgetBase@Base 4:4.3.4
 _ZN11KFileWidget16staticMetaObjectE@Base 4:4.3.4
 _ZN11KFileWidget21currentFilterMimeTypeEv@Base 4:4.3.4
 _ZN11KFileWidget6acceptEv@Base 4:4.3.4
 _ZN11KFileWidget6setUrlERK4KUrlb@Base 4:4.3.4
 _ZN11KFileWidget6slotOkEv@Base 4:4.3.4
 _ZN11KFileWidget7setModeE6QFlagsIN5KFile4ModeEE@Base 4:4.3.4
 _ZN11KFileWidget8acceptedEv@Base 4:4.3.4
 _ZN11KFileWidget9setFilterERK7QString@Base 4:4.3.4
 _ZN11KFileWidget9showEventEP10QShowEvent@Base 4:4.3.4
 _ZN11KFileWidgetC1ERK4KUrlP7QWidget@Base 4:4.3.4
 _ZN11KFileWidgetC2ERK4KUrlP7QWidget@Base 4:4.3.4
 _ZN11KFileWidgetD0Ev@Base 4:4.3.4
 _ZN11KFileWidgetD1Ev@Base 4:4.3.4
 _ZN11KFileWidgetD2Ev@Base 4:4.3.4
 (optional=templinst|arch=armel)_ZN12KConfigGroup10writeEntryIbEEvRK7QStringRKT_6QFlagsIN11KConfigBase15WriteConfigFlagEE@Base 4:4.6.3
 (optional=templinst|arch=armel armhf mips mipsel s390 s390x sparc)_ZN12KConfigGroup10writeEntryIiEEvRK7QStringRKT_6QFlagsIN11KConfigBase15WriteConfigFlagEE@Base 4:4.6.2
 _ZN12KDirOperator10completionERK7QString@Base 4:4.3.4
 _ZN12KDirOperator10createViewEP7QWidgetN5KFile8FileViewE@Base 4:4.3.4
 _ZN12KDirOperator10readConfigERK12KConfigGroup@Base 4:4.3.4
 _ZN12KDirOperator10selectFileERK9KFileItem@Base 4:4.3.4
 _ZN12KDirOperator10setSortingE6QFlagsIN4QDir8SortFlagEE@Base 4:4.3.4
 _ZN12KDirOperator10sortByDateEv@Base 4:4.3.4
 _ZN12KDirOperator10sortByNameEv@Base 4:4.3.4
 _ZN12KDirOperator10sortBySizeEv@Base 4:4.3.4
 _ZN12KDirOperator10sortByTypeEv@Base 4:4.3.4
 _ZN12KDirOperator10urlEnteredERK4KUrl@Base 4:4.3.4
 _ZN12KDirOperator11changeEventEP6QEvent@Base 4:4.3.4
 _ZN12KDirOperator11clearFilterEv@Base 4:4.3.4
 _ZN12KDirOperator11dirOnlyModeEj@Base 4:4.3.4
 _ZN12KDirOperator11eventFilterEP7QObjectP6QEvent@Base 4:4.3.4
 _ZN12KDirOperator11pathChangedEv@Base 4:4.3.4
 _ZN12KDirOperator11qt_metacallEN11QMetaObject4CallEiPPv@Base 4:4.3.4
 _ZN12KDirOperator11qt_metacastEPKc@Base 4:4.3.4
 _ZN12KDirOperator11resetCursorEv@Base 4:4.3.4
 _ZN12KDirOperator11resizeEventEP12QResizeEvent@Base 4:4.3.4
 _ZN12KDirOperator11setIsSavingEb@Base 4:4.3.4
 _ZN12KDirOperator11viewChangedEP17QAbstractItemView@Base 4:4.3.4
 _ZN12KDirOperator11writeConfigER12KConfigGroup@Base 4:4.3.4
 _ZN12KDirOperator12clearHistoryEv@Base 4:4.3.4
 _ZN12KDirOperator12dirActivatedERK9KFileItem@Base 4:4.3.4
 _ZN12KDirOperator12fileSelectedERK9KFileItem@Base 4:4.3.4
 _ZN12KDirOperator12setDirListerEP10KDirLister@Base 4:4.3.4
 _ZN12KDirOperator12setIconsZoomEi@Base 4:4.3.4
 _ZN12KDirOperator12setupActionsEv@Base 4:4.3.4
 _ZN12KDirOperator12sortReversedEv@Base 4:4.3.4
 _ZN12KDirOperator13activatedMenuERK9KFileItemRK6QPoint@Base 4:4.3.4
 _ZN12KDirOperator13highlightFileERK9KFileItem@Base 4:4.3.4
 _ZN12KDirOperator13keyPressEventEP9QKeyEvent@Base 4:4.4.95
 _ZN12KDirOperator13setMimeFilterERK11QStringList@Base 4:4.3.4
 _ZN12KDirOperator13setNameFilterERK7QString@Base 4:4.3.4
 _ZN12KDirOperator13setViewConfigER12KConfigGroup@Base 4:4.3.4
 _ZN12KDirOperator13trashSelectedEv@Base 4:4.3.4
 _ZN12KDirOperator14deleteSelectedEv@Base 4:4.3.4
 _ZN12KDirOperator14makeCompletionERK7QString@Base 4:4.3.4
 _ZN12KDirOperator14setAcceptDropsEb@Base 4:4.3.4
 _ZN12KDirOperator14setCurrentItemERK7QString@Base 4:4.3.4
 _ZN12KDirOperator14setCurrentItemERK9KFileItem@Base 4:4.3.4
 _ZN12KDirOperator14setDropOptionsEi@Base 4:4.3.4
 _ZN12KDirOperator15fileHighlightedERK9KFileItem@Base 4:4.3.4
 _ZN12KDirOperator15finishedLoadingEv@Base 4:4.3.4
 _ZN12KDirOperator15setCurrentItemsERK11QStringList@Base 4:4.3.4
 _ZN12KDirOperator15setCurrentItemsERK13KFileItemList@Base 4:4.3.4
 _ZN12KDirOperator15toggleDirsFirstEv@Base 4:4.3.4
 _ZN12KDirOperator16setPreviewWidgetEP18KPreviewWidgetBase@Base 4:4.3.4
 _ZN12KDirOperator16staticMetaObjectE@Base 4:4.3.4
 _ZN12KDirOperator16toggleIgnoreCaseEv@Base 4:4.3.4
 _ZN12KDirOperator17makeDirCompletionERK7QString@Base 4:4.3.4
 _ZN12KDirOperator17updateInformationEii@Base 4:4.3.4
 _ZN12KDirOperator17updateSortActionsEv@Base 4:4.3.4
 _ZN12KDirOperator17updateViewActionsEv@Base 4:4.3.4
 _ZN12KDirOperator18setShowHiddenFilesEb@Base 4:4.3.4
 _ZN12KDirOperator19checkPreviewSupportEv@Base 4:4.3.4
 _ZN12KDirOperator19slotCompletionMatchERK7QString@Base 4:4.3.4
 _ZN12KDirOperator21setDecorationPositionEN20QStyleOptionViewItem8PositionE@Base 4:4.3.4
 _ZN12KDirOperator21setInlinePreviewShownEb@Base 4:4.3.4
 _ZN12KDirOperator22contextMenuAboutToShowERK9KFileItemP5QMenu@Base 4:4.3.4
 _ZN12KDirOperator22currentIconSizeChangedEi@Base 4:4.3.4
 _ZN12KDirOperator24prepareCompletionObjectsEv@Base 4:4.3.4
 _ZN12KDirOperator24setEnableDirHighlightingEb@Base 4:4.3.4
 _ZN12KDirOperator30setOnlyDoubleClickSelectsFilesEb@Base 4:4.3.4
 _ZN12KDirOperator31updateSelectionDependentActionsEv@Base 4:4.3.4
 _ZN12KDirOperator32setNewFileMenuSupportedMimeTypesERK11QStringList@Base 4:4.4.95
 _ZN12KDirOperator3delERK13KFileItemListP7QWidgetbb@Base 4:4.3.4
 _ZN12KDirOperator4backEv@Base 4:4.3.4
 _ZN12KDirOperator4cdUpEv@Base 4:4.3.4
 _ZN12KDirOperator4homeEv@Base 4:4.3.4
 _ZN12KDirOperator5closeEv@Base 4:4.3.4
 _ZN12KDirOperator5mkdirERK7QStringb@Base 4:4.3.4
 _ZN12KDirOperator5mkdirEv@Base 4:4.3.4
 _ZN12KDirOperator5trashERK13KFileItemListP7QWidgetbb@Base 4:4.3.4
 _ZN12KDirOperator6setUrlERK4KUrlb@Base 4:4.3.4
 _ZN12KDirOperator7Private10isReadableERK4KUrl@Base 4:4.3.4
 _ZN12KDirOperator7Private13updateSortingE6QFlagsIN4QDir8SortFlagEE@Base 4:4.3.4
 _ZN12KDirOperator7Private14_k_showPreviewEv@Base 4:4.3.4
 _ZN12KDirOperator7Private14_k_slotStartedEv@Base 4:4.3.4
 _ZN12KDirOperator7Private15_k_slotCanceledEv@Base 4:4.3.4
 _ZN12KDirOperator7Private15_k_slotProgressEi@Base 4:4.3.4
 _ZN12KDirOperator7Private15_k_slotTreeViewEv@Base 4:4.3.4
 _ZN12KDirOperator7Private16_k_slotActivatedERK11QModelIndex@Base 4:4.3.4
 _ZN12KDirOperator7Private16_k_togglePreviewEb@Base 4:4.3.4
 _ZN12KDirOperator7Private17_k_slotIOFinishedEv@Base 4:4.3.4
 _ZN12KDirOperator7Private17_k_slotPropertiesEv@Base 4:4.3.4
 _ZN12KDirOperator7Private17_k_slotRedirectedERK4KUrl@Base 4:4.3.4
 _ZN12KDirOperator7Private17_k_slotSimpleViewEv@Base 4:4.3.4
 _ZN12KDirOperator7Private17_k_slotSortByDateEv@Base 4:4.3.4
 _ZN12KDirOperator7Private17_k_slotSortByNameEv@Base 4:4.3.4
 _ZN12KDirOperator7Private17_k_slotSortBySizeEv@Base 4:4.3.4
 _ZN12KDirOperator7Private17_k_slotSortByTypeEv@Base 4:4.3.4
 _ZN12KDirOperator7Private17_k_triggerPreviewERK11QModelIndex@Base 4:4.3.4
 _ZN12KDirOperator7Private18_k_openContextMenuERK6QPoint@Base 4:4.3.4
 _ZN12KDirOperator7Private18_k_slotExpandToUrlERK11QModelIndex@Base 4:4.3.4
 _ZN12KDirOperator7Private18updateListViewGridEv@Base 4:4.3.4
 _ZN12KDirOperator7Private19_k_slotDetailedViewEv@Base 4:4.3.4
 _ZN12KDirOperator7Private19_k_slotItemsChangedEv@Base 4:4.3.4
 _ZN12KDirOperator7Private19_k_slotShowProgressEv@Base 4:4.3.4
 _ZN12KDirOperator7Private19_k_slotSortReversedEb@Base 4:4.3.4
 _ZN12KDirOperator7Private19_k_slotToggleHiddenEb@Base 4:4.3.4
 _ZN12KDirOperator7Private20_k_slotSplitterMovedEii@Base 4:4.3.4
 _ZN12KDirOperator7Private22_k_slotOpenFileManagerEv@Base 4:4.4.95
 _ZN12KDirOperator7Private22_k_slotToggleDirsFirstEv@Base 4:4.3.4
 _ZN12KDirOperator7Private23_k_slotDetailedTreeViewEv@Base 4:4.3.4
 _ZN12KDirOperator7Private23_k_slotDirectoryCreatedERK4KUrl@Base 4:4.4.95
 _ZN12KDirOperator7Private23_k_slotSelectionChangedEv@Base 4:4.3.4
 _ZN12KDirOperator7Private23_k_slotToggleIgnoreCaseEv@Base 4:4.3.4
 _ZN12KDirOperator7Private23_k_toggleInlinePreviewsEb@Base 4:4.3.4
 _ZN12KDirOperator7Private25_k_assureVisibleSelectionEv@Base 4:4.3.4
 _ZN12KDirOperator7Private26_k_synchronizeSortingStateEiN2Qt9SortOrderE@Base 4:4.3.4
 _ZN12KDirOperator7Private31_k_slotChangeDecorationPositionEv@Base 4:4.3.4
 _ZN12KDirOperator7Private7openUrlERK4KUrl6QFlagsIN10KDirLister11OpenUrlFlagEE@Base 4:4.3.4
 _ZN12KDirOperator7Private8allViewsEv@Base 4:4.3.4
 _ZN12KDirOperator7Private9checkPathERK7QStringb@Base 4:4.3.4
 _ZN12KDirOperator7PrivateC1EPS_@Base 4:4.3.4
 _ZN12KDirOperator7PrivateC2EPS_@Base 4:4.3.4
 _ZN12KDirOperator7PrivateD1Ev@Base 4:4.3.4
 _ZN12KDirOperator7PrivateD2Ev@Base 4:4.3.4
 _ZN12KDirOperator7droppedERK9KFileItemP10QDropEventRKN4KUrl4ListE@Base 4:4.3.4
 _ZN12KDirOperator7forwardEv@Base 4:4.3.4
 _ZN12KDirOperator7setModeE6QFlagsIN5KFile4ModeEE@Base 4:4.3.4
 _ZN12KDirOperator7setViewEN5KFile8FileViewE@Base 4:4.3.4
 _ZN12KDirOperator7setViewEP17QAbstractItemView@Base 4:4.3.4
 _ZN12KDirOperator9rereadDirEv@Base 4:4.3.4
 _ZN12KDirOperator9selectDirERK9KFileItem@Base 4:4.3.4
 _ZN12KDirOperator9setupMenuEi@Base 4:4.3.4
 _ZN12KDirOperator9setupMenuEv@Base 4:4.3.4
 _ZN12KDirOperator9updateDirEv@Base 4:4.3.4
 _ZN12KDirOperatorC1ERK4KUrlP7QWidget@Base 4:4.3.4
 _ZN12KDirOperatorC2ERK4KUrlP7QWidget@Base 4:4.3.4
 _ZN12KDirOperatorD0Ev@Base 4:4.3.4
 _ZN12KDirOperatorD1Ev@Base 4:4.3.4
 _ZN12KDirOperatorD2Ev@Base 4:4.3.4
 _ZN12KNewFileMenu10slotResultEP4KJob@Base 4:4.4.95
 _ZN12KNewFileMenu11fileCreatedERK4KUrl@Base 4:4.4.95
 _ZN12KNewFileMenu11qt_metacallEN11QMetaObject4CallEiPPv@Base 4:4.4.95
 _ZN12KNewFileMenu11qt_metacastEPKc@Base 4:4.4.95
 _ZN12KNewFileMenu13checkUpToDateEv@Base 4:4.4.95
 _ZN12KNewFileMenu13setPopupFilesERKN4KUrl4ListE@Base 4:4.4.95
 _ZN12KNewFileMenu15createDirectoryEv@Base 4:4.4.95
 _ZN12KNewFileMenu15setParentWidgetEP7QWidget@Base 4:4.4.95
 _ZN12KNewFileMenu16directoryCreatedERK4KUrl@Base 4:4.4.95
 _ZN12KNewFileMenu16staticMetaObjectE@Base 4:4.4.95
 _ZN12KNewFileMenu21setSupportedMimeTypesERK11QStringList@Base 4:4.4.95
 _ZN12KNewFileMenu23setViewShowsHiddenFilesEb@Base 4:4.4.95
 _ZN12KNewFileMenu8setModalEb@Base 4:4.5.85
 _ZN12KNewFileMenuC1EP17KActionCollectionRK7QStringP7QObject@Base 4:4.4.95
 _ZN12KNewFileMenuC2EP17KActionCollectionRK7QStringP7QObject@Base 4:4.4.95
 _ZN12KNewFileMenuD0Ev@Base 4:4.4.95
 _ZN12KNewFileMenuD1Ev@Base 4:4.4.95
 _ZN12KNewFileMenuD2Ev@Base 4:4.4.95
 (arch=kfreebsd-amd64 kfreebsd-i386)_ZN13KFileItemListD1Ev@Base 4:4.6.5
 (arch=kfreebsd-amd64 kfreebsd-i386)_ZN13KFileItemListD2Ev@Base 4:4.6.5
 _ZN13KFileTreeView10setRootUrlERK4KUrl@Base 4:4.3.4
 _ZN13KFileTreeView11qt_metacallEN11QMetaObject4CallEiPPv@Base 4:4.3.4
 _ZN13KFileTreeView11qt_metacastEPKc@Base 4:4.3.4
 _ZN13KFileTreeView13setCurrentUrlERK4KUrl@Base 4:4.3.4
 _ZN13KFileTreeView14currentChangedERK4KUrl@Base 4:4.3.4
 _ZN13KFileTreeView14setDirOnlyModeEb@Base 4:4.3.4
 _ZN13KFileTreeView16contextMenuEventEP17QContextMenuEvent@Base 4:4.3.4
 _ZN13KFileTreeView16staticMetaObjectE@Base 4:4.3.4
 _ZN13KFileTreeView18setShowHiddenFilesEb@Base 4:4.3.4
 _ZN13KFileTreeView7Private11_k_expandedERK11QModelIndex@Base 4:4.3.4
 _ZN13KFileTreeView7Private12_k_activatedERK11QModelIndex@Base 4:4.3.4
 _ZN13KFileTreeView7Private17_k_currentChangedERK11QModelIndexS3_@Base 4:4.3.4
 _ZN13KFileTreeView9activatedERK4KUrl@Base 4:4.3.4
 _ZN13KFileTreeViewC1EP7QWidget@Base 4:4.3.4
 _ZN13KFileTreeViewC2EP7QWidget@Base 4:4.3.4
 _ZN13KFileTreeViewD0Ev@Base 4:4.3.4
 _ZN13KFileTreeViewD1Ev@Base 4:4.3.4
 _ZN13KFileTreeViewD2Ev@Base 4:4.3.4
 _ZN13KUrlNavigator10setHomeUrlERK4KUrl@Base 4:4.4.95
 _ZN13KUrlNavigator10setHomeUrlERK7QString@Base 4:4.3.4
 _ZN13KUrlNavigator10urlChangedERK4KUrl@Base 4:4.3.4
 _ZN13KUrlNavigator10wheelEventEP11QWheelEvent@Base 4:4.7.0
 _ZN13KUrlNavigator11eventFilterEP7QObjectP6QEvent@Base 4:4.3.4
 _ZN13KUrlNavigator11qt_metacallEN11QMetaObject4CallEiPPv@Base 4:4.3.4
 _ZN13KUrlNavigator11qt_metacastEPKc@Base 4:4.3.4
 _ZN13KUrlNavigator11resizeEventEP12QResizeEvent@Base 4:4.3.4
 _ZN13KUrlNavigator11saveRootUrlERK4KUrl@Base 4:4.3.4
 _ZN13KUrlNavigator11urlsDroppedERK4KUrlP10QDropEvent@Base 4:4.3.4
 _ZN13KUrlNavigator11urlsDroppedERKN4KUrl4ListERKS0_@Base 4:4.3.4
 _ZN13KUrlNavigator12savePositionEii@Base 4:4.3.4
 _ZN13KUrlNavigator12tabRequestedERK4KUrl@Base 4:4.4.95
 _ZN13KUrlNavigator13keyPressEventEP9QKeyEvent@Base 4:4.4.95
 _ZN13KUrlNavigator13returnPressedEv@Base 4:4.3.4
 _ZN13KUrlNavigator14historyChangedEv@Base 4:4.3.4
 _ZN13KUrlNavigator14setLocationUrlERK4KUrl@Base 4:4.4.95
 _ZN13KUrlNavigator14setUrlEditableEb@Base 4:4.3.4
 _ZN13KUrlNavigator15keyReleaseEventEP9QKeyEvent@Base 4:4.5.0
 _ZN13KUrlNavigator15setShowFullPathEb@Base 4:4.3.4
 _ZN13KUrlNavigator16staticMetaObjectE@Base 4:4.3.4
 _ZN13KUrlNavigator17mouseReleaseEventEP11QMouseEvent@Base 4:4.3.4
 _ZN13KUrlNavigator17requestActivationEv@Base 4:4.3.4
 _ZN13KUrlNavigator17saveLocationStateERK10QByteArray@Base 4:4.4.95
 _ZN13KUrlNavigator18setCustomProtocolsERK11QStringList@Base 4:4.3.4
 _ZN13KUrlNavigator19urlAboutToBeChangedERK4KUrl@Base 4:4.4.95
 _ZN13KUrlNavigator20editableStateChangedEb@Base 4:4.3.4
 _ZN13KUrlNavigator24setPlacesSelectorVisibleEb@Base 4:4.3.4
 _ZN13KUrlNavigator4goUpEv@Base 4:4.3.4
 _ZN13KUrlNavigator6goBackEv@Base 4:4.3.4
 _ZN13KUrlNavigator6goHomeEv@Base 4:4.3.4
 _ZN13KUrlNavigator6setUrlERK4KUrl@Base 4:4.3.4
 _ZN13KUrlNavigator7Private10initializeERK4KUrl@Base 4:4.4.95
 (optional=private)_ZN13KUrlNavigator7Private10switchViewEv@Base 4:4.3.4
 (optional=private)_ZN13KUrlNavigator7Private12appendWidgetEP7QWidgeti@Base 4:4.3.4
 (optional=private)_ZN13KUrlNavigator7Private13deleteButtonsEv@Base 4:4.3.4
 (optional=private)_ZN13KUrlNavigator7Private13updateButtonsEi@Base 4:4.4.0
 (optional=private)_ZN13KUrlNavigator7Private13updateContentEv@Base 4:4.3.4
 _ZN13KUrlNavigator7Private15openContextMenuEv@Base 4:4.4.95
 (optional=private)_ZN13KUrlNavigator7Private17slotReturnPressedEv@Base 4:4.3.4
 _ZN13KUrlNavigator7Private18slotPathBoxChangedERK7QString@Base 4:4.4.95
 (optional=private)_ZN13KUrlNavigator7Private19slotProtocolChangedERK7QString@Base 4:4.3.4
 (optional=private)_ZN13KUrlNavigator7Private20openPathSelectorMenuEv@Base 4:4.3.4
 (optional=private)_ZN13KUrlNavigator7Private22switchToBreadcrumbModeEv@Base 4:4.3.4
 (optional=private)_ZN13KUrlNavigator7Private22updateButtonVisibilityEv@Base 4:4.3.4
 _ZN13KUrlNavigator7Private26slotNavigatorButtonClickedERK4KUrlN2Qt11MouseButtonE@Base 4:4.4.95
 (optional=private)_ZN13KUrlNavigator7Private8dropUrlsERK4KUrlP10QDropEvent@Base 4:4.3.4
 (optional=private)_ZN13KUrlNavigator7PrivateC1EPS_P16KFilePlacesModel@Base 4:4.3.4
 (optional=private)_ZN13KUrlNavigator7PrivateC2EPS_P16KFilePlacesModel@Base 4:4.3.4
 _ZN13KUrlNavigator8setFocusEv@Base 4:4.3.4
 _ZN13KUrlNavigator9activatedEv@Base 4:4.3.4
 _ZN13KUrlNavigator9goForwardEv@Base 4:4.3.4
 _ZN13KUrlNavigator9setActiveEb@Base 4:4.3.4
 _ZN13KUrlNavigatorC1EP16KFilePlacesModelRK4KUrlP7QWidget@Base 4:4.3.4
 _ZN13KUrlNavigatorC1EP7QWidget@Base 4:4.4.95
 _ZN13KUrlNavigatorC2EP16KFilePlacesModelRK4KUrlP7QWidget@Base 4:4.3.4
 _ZN13KUrlNavigatorC2EP7QWidget@Base 4:4.4.95
 _ZN13KUrlNavigatorD0Ev@Base 4:4.3.4
 _ZN13KUrlNavigatorD1Ev@Base 4:4.3.4
 _ZN13KUrlNavigatorD2Ev@Base 4:4.3.4
 (arch=kfreebsd-amd64 kfreebsd-i386)_ZN14KBookmarkGroupD1Ev@Base 4:4.7.4
 (arch=kfreebsd-amd64 kfreebsd-i386)_ZN14KBookmarkGroupD2Ev@Base 4:4.7.4
 _ZN15KFilePlacesView10paintEventEP11QPaintEvent@Base 4:4.3.4
 _ZN15KFilePlacesView10setShowAllEb@Base 4:4.3.4
 _ZN15KFilePlacesView10urlChangedERK4KUrl@Base 4:4.3.4
 _ZN15KFilePlacesView11dataChangedERK11QModelIndexS2_@Base 4:4.3.4
 _ZN15KFilePlacesView11qt_metacallEN11QMetaObject4CallEiPPv@Base 4:4.3.4
 _ZN15KFilePlacesView11qt_metacastEPKc@Base 4:4.3.4
 _ZN15KFilePlacesView11resizeEventEP12QResizeEvent@Base 4:4.3.4
 _ZN15KFilePlacesView11urlsDroppedERK4KUrlP10QDropEventP7QWidget@Base 4:4.3.4
 _ZN15KFilePlacesView12rowsInsertedERK11QModelIndexii@Base 4:4.3.4
 _ZN15KFilePlacesView13dragMoveEventEP14QDragMoveEvent@Base 4:4.3.4
 _ZN15KFilePlacesView13keyPressEventEP9QKeyEvent@Base 4:4.3.4
 _ZN15KFilePlacesView14dragEnterEventEP15QDragEnterEvent@Base 4:4.3.4
 _ZN15KFilePlacesView14dragLeaveEventEP15QDragLeaveEvent@Base 4:4.3.4
 _ZN15KFilePlacesView16contextMenuEventEP17QContextMenuEvent@Base 4:4.3.4
 _ZN15KFilePlacesView16staticMetaObjectE@Base 4:4.3.4
 _ZN15KFilePlacesView21setDropOnPlaceEnabledEb@Base 4:4.3.4
 _ZN15KFilePlacesView25setAutoResizeItemsEnabledEb@Base 4:4.3.4
 _ZN15KFilePlacesView6setUrlERK4KUrl@Base 4:4.3.4
 _ZN15KFilePlacesView7Private12_k_placeLeftERK11QModelIndex@Base 4:4.3.4
 _ZN15KFilePlacesView7Private13adaptItemSizeEv@Base 4:4.3.4
 _ZN15KFilePlacesView7Private15_k_placeClickedERK11QModelIndex@Base 4:4.3.4
 _ZN15KFilePlacesView7Private15_k_placeEnteredERK11QModelIndex@Base 4:4.3.4
 _ZN15KFilePlacesView7Private15_k_trashUpdatedEP4KJob@Base 4:4.3.4
 _ZN15KFilePlacesView7Private15fadeCapacityBarERK11QModelIndexNS0_8FadeTypeE@Base 4:4.3.4
 _ZN15KFilePlacesView7Private15setCurrentIndexERK11QModelIndex@Base 4:4.3.4
 _ZN15KFilePlacesView7Private16updateHiddenRowsEv@Base 4:4.3.4
 (subst)_ZN15KFilePlacesView7Private19_k_adaptItemsUpdateE{qreal}@Base 4:4.3.4
 (subst)_ZN15KFilePlacesView7Private19_k_itemAppearUpdateE{qreal}@Base 4:4.3.4
 _ZN15KFilePlacesView7Private19_k_storageSetupDoneERK11QModelIndexb@Base 4:4.3.4
 (subst)_ZN15KFilePlacesView7Private22_k_itemDisappearUpdateE{qreal}@Base 4:4.3.4
 _ZN15KFilePlacesView7Private23_k_triggerDevicePollingEv@Base 4:4.3.4
 _ZN15KFilePlacesView7Private27_k_enableSmoothItemResizingEv@Base 4:4.3.4
 _ZN15KFilePlacesView7Private30_k_capacityBarFadeValueChangedEv@Base 4:4.3.4
 _ZN15KFilePlacesView8setModelEP18QAbstractItemModel@Base 4:4.3.4
 _ZN15KFilePlacesView9dropEventEP10QDropEvent@Base 4:4.3.4
 _ZN15KFilePlacesView9hideEventEP10QHideEvent@Base 4:4.3.4
 _ZN15KFilePlacesView9showEventEP10QShowEvent@Base 4:4.3.4
 _ZN15KFilePlacesViewC1EP7QWidget@Base 4:4.3.4
 _ZN15KFilePlacesViewC2EP7QWidget@Base 4:4.3.4
 _ZN15KFilePlacesViewD0Ev@Base 4:4.3.4
 _ZN15KFilePlacesViewD1Ev@Base 4:4.3.4
 _ZN15KFilePlacesViewD2Ev@Base 4:4.3.4
 _ZN16KDirSelectDialog11qt_metacallEN11QMetaObject4CallEiPPv@Base 4:4.3.4
 _ZN16KDirSelectDialog11qt_metacastEPKc@Base 4:4.3.4
 _ZN16KDirSelectDialog13setCurrentUrlERK4KUrl@Base 4:4.3.4
 _ZN16KDirSelectDialog15selectDirectoryERK4KUrlbP7QWidgetRK7QString@Base 4:4.3.4
 _ZN16KDirSelectDialog16staticMetaObjectE@Base 4:4.3.4
 _ZN16KDirSelectDialog6acceptEv@Base 4:4.3.4
 _ZN16KDirSelectDialog7Private10readConfigERK10KSharedPtrI13KSharedConfigERK7QString@Base 4:4.3.4
 _ZN16KDirSelectDialog7Private10saveConfigE10KSharedPtrI13KSharedConfigERK7QString@Base 4:4.3.4
 _ZN16KDirSelectDialog7Private10slotDeleteEv@Base 4:4.3.4
 _ZN16KDirSelectDialog7Private10slotExpandERK11QModelIndex@Base 4:4.3.4
 _ZN16KDirSelectDialog7Private13slotNewFolderEv@Base 4:4.3.4
 _ZN16KDirSelectDialog7Private14slotPropertiesEv@Base 4:4.3.4
 _ZN16KDirSelectDialog7Private15slotMoveToTrashEv@Base 4:4.3.4
 _ZN16KDirSelectDialog7Private16slotUrlActivatedERK7QString@Base 4:4.3.4
 _ZN16KDirSelectDialog7Private18slotCurrentChangedEv@Base 4:4.3.4
 _ZN16KDirSelectDialog7Private20slotComboTextChangedERK7QString@Base 4:4.3.4
 _ZN16KDirSelectDialog7Private24slotContextMenuRequestedERK6QPoint@Base 4:4.3.4
 _ZN16KDirSelectDialog7Private9slotMkdirEv@Base 4:4.3.4
 _ZN16KDirSelectDialog9hideEventEP10QHideEvent@Base 4:4.3.4
 _ZN16KDirSelectDialogC1ERK4KUrlbP7QWidget@Base 4:4.3.4
 _ZN16KDirSelectDialogC2ERK4KUrlbP7QWidget@Base 4:4.3.4
 _ZN16KDirSelectDialogD0Ev@Base 4:4.3.4
 _ZN16KDirSelectDialogD1Ev@Base 4:4.3.4
 _ZN16KDirSelectDialogD2Ev@Base 4:4.3.4
 _ZN16KFileFilterCombo11eventFilterEP7QObjectP6QEvent@Base 4:4.3.4
 _ZN16KFileFilterCombo11qt_metacallEN11QMetaObject4CallEiPPv@Base 4:4.3.4
 _ZN16KFileFilterCombo11qt_metacastEPKc@Base 4:4.3.4
 _ZN16KFileFilterCombo13filterChangedEv@Base 4:4.3.4
 _ZN16KFileFilterCombo13setMimeFilterERK11QStringListRK7QString@Base 4:4.3.4
 _ZN16KFileFilterCombo16setCurrentFilterERK7QString@Base 4:4.3.4
 _ZN16KFileFilterCombo16setDefaultFilterERK7QString@Base 4:4.3.4
 _ZN16KFileFilterCombo16staticMetaObjectE@Base 4:4.3.4
 _ZN16KFileFilterCombo7Private20_k_slotFilterChangedEv@Base 4:4.3.4
 _ZN16KFileFilterCombo9setFilterERK7QString@Base 4:4.3.4
 _ZN16KFileFilterComboC1EP7QWidget@Base 4:4.3.4
 _ZN16KFileFilterComboC2EP7QWidget@Base 4:4.3.4
 _ZN16KFileFilterComboD0Ev@Base 4:4.3.4
 _ZN16KFileFilterComboD1Ev@Base 4:4.3.4
 _ZN16KFileFilterComboD2Ev@Base 4:4.3.4
 _ZN16KFilePlacesModel11qt_metacallEN11QMetaObject4CallEiPPv@Base 4:4.3.4
 _ZN16KFilePlacesModel11qt_metacastEPKc@Base 4:4.3.4
 _ZN16KFilePlacesModel12dropMimeDataEPK9QMimeDataN2Qt10DropActionEiiRK11QModelIndex@Base 4:4.3.4
 _ZN16KFilePlacesModel12errorMessageERK7QString@Base 4:4.3.4
 _ZN16KFilePlacesModel12requestEjectERK11QModelIndex@Base 4:4.3.4
 _ZN16KFilePlacesModel12requestSetupERK11QModelIndex@Base 4:4.3.4
 _ZN16KFilePlacesModel14setPlaceHiddenERK11QModelIndexb@Base 4:4.3.4
 _ZN16KFilePlacesModel15requestTeardownERK11QModelIndex@Base 4:4.3.4
 _ZN16KFilePlacesModel16staticMetaObjectE@Base 4:4.3.4
 _ZN16KFilePlacesModel7Private14_k_deviceAddedERK7QString@Base 4:4.3.4
 _ZN16KFilePlacesModel7Private14_k_itemChangedERK7QString@Base 4:4.3.4
 _ZN16KFilePlacesModel7Private15reloadAndSignalEv@Base 4:4.3.4
 _ZN16KFilePlacesModel7Private16_k_deviceRemovedERK7QString@Base 4:4.3.4
 _ZN16KFilePlacesModel7Private16loadBookmarkListEv@Base 4:4.3.4
 _ZN16KFilePlacesModel7Private17_k_initDeviceListEv@Base 4:4.3.4
 _ZN16KFilePlacesModel7Private18_k_reloadBookmarksEv@Base 4:4.3.4
 _ZN16KFilePlacesModel7Private19_k_storageSetupDoneEN5Solid9ErrorTypeE8QVariant@Base 4:4.3.4
 _ZN16KFilePlacesModel7Private22_k_storageTeardownDoneEN5Solid9ErrorTypeE8QVariant@Base 4:4.3.4
 _ZN16KFilePlacesModel8addPlaceERK7QStringRK4KUrlS2_S2_@Base 4:4.3.4
 _ZN16KFilePlacesModel8addPlaceERK7QStringRK4KUrlS2_S2_RK11QModelIndex@Base 4:4.4.95
 _ZN16KFilePlacesModel9editPlaceERK11QModelIndexRK7QStringRK4KUrlS5_S5_@Base 4:4.3.4
 _ZN16KFilePlacesModel9setupDoneERK11QModelIndexb@Base 4:4.3.4
 _ZN16KFilePlacesModelC1EP7QObject@Base 4:4.3.4
 _ZN16KFilePlacesModelC2EP7QObject@Base 4:4.3.4
 _ZN16KFilePlacesModelD0Ev@Base 4:4.3.4
 _ZN16KFilePlacesModelD1Ev@Base 4:4.3.4
 _ZN16KFilePlacesModelD2Ev@Base 4:4.3.4
 _ZN21KFilePreviewGenerator11qt_metacallEN11QMetaObject4CallEiPPv@Base 4:4.3.4
 _ZN21KFilePreviewGenerator11qt_metacastEPKc@Base 4:4.3.4
 _ZN21KFilePreviewGenerator11updateIconsEv@Base 4:4.3.4
 _ZN21KFilePreviewGenerator14cancelPreviewsEv@Base 4:4.3.4
 _ZN21KFilePreviewGenerator14updatePreviewsEv@Base 4:4.3.4
 _ZN21KFilePreviewGenerator15setPreviewShownEb@Base 4:4.3.4
 _ZN21KFilePreviewGenerator16staticMetaObjectE@Base 4:4.3.4
 _ZN21KFilePreviewGenerator17setEnabledPluginsERK11QStringList@Base 4:4.3.4
 _ZN21KFilePreviewGenerator7Private10orderItemsER13KFileItemList@Base 4:4.3.4
 _ZN21KFilePreviewGenerator7Private11limitToSizeER7QPixmapRK5QSize@Base 4:4.3.4
 _ZN21KFilePreviewGenerator7Private11updateIconsERK11QModelIndexS3_@Base 4:4.3.4
 _ZN21KFilePreviewGenerator7Private11updateIconsERK13KFileItemList@Base 4:4.3.4
 _ZN21KFilePreviewGenerator7Private14addItemsToListERK11QModelIndexR13KFileItemList@Base 4:4.3.4
 _ZN21KFilePreviewGenerator7Private14createPreviewsERK13KFileItemList@Base 4:4.3.4
 _ZN21KFilePreviewGenerator7Private14updateCutItemsEv@Base 4:4.3.4
 _ZN21KFilePreviewGenerator7Private15applyImageFrameER7QPixmap@Base 4:4.3.4
 _ZN21KFilePreviewGenerator7Private15killPreviewJobsEv@Base 4:4.3.4
 _ZN21KFilePreviewGenerator7Private15resolveMimeTypeEv@Base 4:4.3.4
 _ZN21KFilePreviewGenerator7Private15startPreviewJobERK13KFileItemListii@Base 4:4.3.4
 _ZN21KFilePreviewGenerator7Private16pauseIconUpdatesEv@Base 4:4.3.4
 _ZN21KFilePreviewGenerator7Private17addToPreviewQueueERK9KFileItemRK7QPixmap@Base 4:4.3.4
 _ZN21KFilePreviewGenerator7Private17delayedIconUpdateEv@Base 4:4.3.4
 _ZN21KFilePreviewGenerator7Private17resumeIconUpdatesEv@Base 4:4.3.4
 _ZN21KFilePreviewGenerator7Private18applyCutItemEffectERK13KFileItemList@Base 4:4.3.4
 _ZN21KFilePreviewGenerator7Private18clearCutItemsCacheEv@Base 4:4.3.4
 _ZN21KFilePreviewGenerator7Private19requestSequenceIconERK11QModelIndexi@Base 4:4.3.4
 _ZN21KFilePreviewGenerator7Private20decodeIsCutSelectionEPK9QMimeData@Base 4:4.3.4
 _ZN21KFilePreviewGenerator7Private20rowsAboutToBeRemovedERK11QModelIndexii@Base 4:4.4.0
 _ZN21KFilePreviewGenerator7Private22slotPreviewJobFinishedEP4KJob@Base 4:4.3.4
 _ZN21KFilePreviewGenerator7Private22startMimeTypeResolvingEv@Base 4:4.3.4
 _ZN21KFilePreviewGenerator7Private23dispatchIconUpdateQueueEv@Base 4:4.3.4
 (arch=kfreebsd-amd64 kfreebsd-i386)_ZN21KFilePreviewGenerator7Private8ItemInfoD1Ev@Base 4:4.6.5
 (arch=kfreebsd-amd64 kfreebsd-i386)_ZN21KFilePreviewGenerator7Private8ItemInfoD2Ev@Base 4:4.6.5
 _ZN21KFilePreviewGenerator7PrivateC1EPS_P20KAbstractViewAdapterP18QAbstractItemModel@Base 4:4.3.4
 _ZN21KFilePreviewGenerator7PrivateC2EPS_P20KAbstractViewAdapterP18QAbstractItemModel@Base 4:4.3.4
 _ZN21KFilePreviewGenerator7PrivateD1Ev@Base 4:4.3.4
 _ZN21KFilePreviewGenerator7PrivateD2Ev@Base 4:4.3.4
 _ZN21KFilePreviewGeneratorC1EP17QAbstractItemView@Base 4:4.3.4
 _ZN21KFilePreviewGeneratorC1EP20KAbstractViewAdapterP19QAbstractProxyModel@Base 4:4.3.4
 _ZN21KFilePreviewGeneratorC2EP17QAbstractItemView@Base 4:4.3.4
 _ZN21KFilePreviewGeneratorC2EP20KAbstractViewAdapterP19QAbstractProxyModel@Base 4:4.3.4
 _ZN21KFilePreviewGeneratorD0Ev@Base 4:4.3.4
 _ZN21KFilePreviewGeneratorD1Ev@Base 4:4.3.4
 _ZN21KFilePreviewGeneratorD2Ev@Base 4:4.3.4
 _ZN22KNameAndUrlInputDialog11qt_metacallEN11QMetaObject4CallEiPPv@Base 4:4.4.95
 _ZN22KNameAndUrlInputDialog11qt_metacastEPKc@Base 4:4.4.95
 _ZN22KNameAndUrlInputDialog15setSuggestedUrlERK4KUrl@Base 4:4.4.95
 _ZN22KNameAndUrlInputDialog16setSuggestedNameERK7QString@Base 4:4.4.95
 _ZN22KNameAndUrlInputDialog16staticMetaObjectE@Base 4:4.4.95
 _ZN22KNameAndUrlInputDialogC1ERK7QStringS2_RK4KUrlP7QWidget@Base 4:4.4.95
 _ZN22KNameAndUrlInputDialogC2ERK7QStringS2_RK4KUrlP7QWidget@Base 4:4.4.95
 _ZN22KNameAndUrlInputDialogD0Ev@Base 4:4.4.95
 _ZN22KNameAndUrlInputDialogD1Ev@Base 4:4.4.95
 _ZN22KNameAndUrlInputDialogD2Ev@Base 4:4.4.95
 _ZN24KDirSortFilterProxyModel11qt_metacallEN11QMetaObject4CallEiPPv@Base 4:4.4.0
 _ZN24KDirSortFilterProxyModel11qt_metacastEPKc@Base 4:4.4.0
 _ZN24KDirSortFilterProxyModel16staticMetaObjectE@Base 4:4.4.0
 _ZN24KDirSortFilterProxyModel19setSortFoldersFirstEb@Base 4:4.3.4
 _ZN24KDirSortFilterProxyModel20pointsForPermissionsERK9QFileInfo@Base 4:4.3.4
 _ZN24KDirSortFilterProxyModel31KDirSortFilterProxyModelPrivate25slotNaturalSortingChangedEv@Base 4:4.4.0
 _ZN24KDirSortFilterProxyModel31KDirSortFilterProxyModelPrivateC1EPS_@Base 4:4.4.0
 _ZN24KDirSortFilterProxyModel31KDirSortFilterProxyModelPrivateC2EPS_@Base 4:4.4.0
 _ZN24KDirSortFilterProxyModelC1EP7QObject@Base 4:4.3.4
 _ZN24KDirSortFilterProxyModelC2EP7QObject@Base 4:4.3.4
 _ZN24KDirSortFilterProxyModelD0Ev@Base 4:4.3.4
 _ZN24KDirSortFilterProxyModelD1Ev@Base 4:4.3.4
 _ZN24KDirSortFilterProxyModelD2Ev@Base 4:4.3.4
 (arch=kfreebsd-amd64 kfreebsd-i386)_ZN4KUrl4ListD1Ev@Base 4:4.6.5
 (arch=kfreebsd-amd64 kfreebsd-i386)_ZN4KUrl4ListD2Ev@Base 4:4.6.5
 (arch=kfreebsd-amd64 kfreebsd-i386)_ZN9KBookmarkD1Ev@Base 4:4.7.4
 (arch=kfreebsd-amd64 kfreebsd-i386)_ZN9KBookmarkD2Ev@Base 4:4.7.4
 _ZNK11KFileWidget10metaObjectEv@Base 4:4.3.4
 _ZNK11KFileWidget11selectedUrlEv@Base 4:4.3.4
 _ZNK11KFileWidget12cancelButtonEv@Base 4:4.3.4
 _ZNK11KFileWidget12filterWidgetEv@Base 4:4.3.4
 _ZNK11KFileWidget12locationEditEv@Base 4:4.3.4
 _ZNK11KFileWidget12selectedFileEv@Base 4:4.3.4
 _ZNK11KFileWidget12selectedUrlsEv@Base 4:4.3.4
 _ZNK11KFileWidget13currentFilterEv@Base 4:4.3.4
 _ZNK11KFileWidget13keepsLocationEv@Base 4:4.3.4
 _ZNK11KFileWidget13operationModeEv@Base 4:4.3.4
 _ZNK11KFileWidget13selectedFilesEv@Base 4:4.3.4
 _ZNK11KFileWidget16actionCollectionEv@Base 4:4.3.4
 _ZNK11KFileWidget17currentMimeFilterEv@Base 4:4.3.4
 _ZNK11KFileWidget4modeEv@Base 4:4.3.4
 _ZNK11KFileWidget7baseUrlEv@Base 4:4.3.4
 _ZNK11KFileWidget7toolBarEv@Base 4:4.3.4
 _ZNK11KFileWidget8okButtonEv@Base 4:4.3.4
 (optional=templinst|arch=armel armhf mips mipsel s390 s390x sparc)_ZNK12KConfigGroup9readCheckIbEET_PKcRKS1_@Base 4:4.4.2
 (optional=templinst|arch=amd64 hurd-i386 i386 ia64 kfreebsd-amd64 kfreebsd-i386 powerpc)_ZNK12KConfigGroup9readEntryIiEET_RK7QStringRKS1_@Base 4:4.6.1
 _ZNK12KDirOperator10isSelectedERK9KFileItem@Base 4:4.3.4
 _ZNK12KDirOperator10metaObjectEv@Base 4:4.3.4
 _ZNK12KDirOperator10mimeFilterEv@Base 4:4.3.4
 _ZNK12KDirOperator10nameFilterEv@Base 4:4.3.4
 _ZNK12KDirOperator11dirOnlyModeEv@Base 4:4.3.4
 _ZNK12KDirOperator11progressBarEv@Base 4:4.3.4
 _ZNK12KDirOperator13selectedItemsEv@Base 4:4.3.4
 _ZNK12KDirOperator15dirHighlightingEv@Base 4:4.3.4
 _ZNK12KDirOperator15showHiddenFilesEv@Base 4:4.3.4
 _ZNK12KDirOperator15viewConfigGroupEv@Base 4:4.3.4
 _ZNK12KDirOperator16actionCollectionEv@Base 4:4.3.4
 _ZNK12KDirOperator16completionObjectEv@Base 4:4.3.4
 _ZNK12KDirOperator16previewGeneratorEv@Base 4:4.3.4
 _ZNK12KDirOperator18decorationPositionEv@Base 4:4.3.4
 _ZNK12KDirOperator19dirCompletionObjectEv@Base 4:4.3.4
 _ZNK12KDirOperator20isInlinePreviewShownEv@Base 4:4.3.4
 _ZNK12KDirOperator27onlyDoubleClickSelectsFilesEv@Base 4:4.3.4
 _ZNK12KDirOperator29newFileMenuSupportedMimeTypesEv@Base 4:4.4.95
 _ZNK12KDirOperator3urlEv@Base 4:4.3.4
 _ZNK12KDirOperator4modeEv@Base 4:4.3.4
 _ZNK12KDirOperator4viewEv@Base 4:4.3.4
 _ZNK12KDirOperator6isRootEv@Base 4:4.3.4
 _ZNK12KDirOperator7Private10sortColumnEv@Base 4:4.3.4
 _ZNK12KDirOperator7Private19iconSizeForViewTypeEP17QAbstractItemView@Base 4:4.3.4
 _ZNK12KDirOperator7Private20checkPreviewInternalEv@Base 4:4.3.4
 _ZNK12KDirOperator7Private9sortOrderEv@Base 4:4.3.4
 _ZNK12KDirOperator7numDirsEv@Base 4:4.3.4
 _ZNK12KDirOperator7sortingEv@Base 4:4.3.4
 _ZNK12KDirOperator8isSavingEv@Base 4:4.3.4
 _ZNK12KDirOperator8numFilesEv@Base 4:4.3.4
 _ZNK12KDirOperator9dirListerEv@Base 4:4.3.4
 _ZNK12KDirOperator9iconsZoomEv@Base 4:4.3.4
 _ZNK12KNewFileMenu10metaObjectEv@Base 4:4.4.95
 _ZNK12KNewFileMenu10popupFilesEv@Base 4:4.4.95
 _ZNK12KNewFileMenu18supportedMimeTypesEv@Base 4:4.4.95
 _ZNK12KNewFileMenu7isModalEv@Base 4:4.5.85
 _ZNK13KFileTreeView10currentUrlEv@Base 4:4.3.4
 _ZNK13KFileTreeView10metaObjectEv@Base 4:4.3.4
 _ZNK13KFileTreeView11selectedUrlEv@Base 4:4.3.4
 _ZNK13KFileTreeView12selectedUrlsEv@Base 4:4.3.4
 _ZNK13KFileTreeView15showHiddenFilesEv@Base 4:4.3.4
 _ZNK13KFileTreeView7Private16urlForProxyIndexERK11QModelIndex@Base 4:4.3.4
 _ZNK13KFileTreeView7rootUrlEv@Base 4:4.3.4
 _ZNK13KFileTreeView8sizeHintEv@Base 4:4.6.5
 _ZNK13KUrlNavigator10historyUrlEi@Base 4:4.3.4
 _ZNK13KUrlNavigator10metaObjectEv@Base 4:4.3.4
 _ZNK13KUrlNavigator11historySizeEv@Base 4:4.3.4
 _ZNK13KUrlNavigator11locationUrlEi@Base 4:4.4.95
 _ZNK13KUrlNavigator12historyIndexEv@Base 4:4.3.4
 _ZNK13KUrlNavigator12savedRootUrlEv@Base 4:4.3.4
 _ZNK13KUrlNavigator12showFullPathEv@Base 4:4.3.4
 _ZNK13KUrlNavigator13isUrlEditableEv@Base 4:4.3.4
 _ZNK13KUrlNavigator13locationStateEi@Base 4:4.4.95
 _ZNK13KUrlNavigator13savedPositionEv@Base 4:4.3.4
 _ZNK13KUrlNavigator14uncommittedUrlEv@Base 4:4.3.4
 _ZNK13KUrlNavigator15customProtocolsEv@Base 4:4.3.4
 _ZNK13KUrlNavigator23isPlacesSelectorVisibleEv@Base 4:4.3.4
 _ZNK13KUrlNavigator3urlEi@Base 4:4.3.4
 _ZNK13KUrlNavigator3urlEv@Base 4:4.3.4
 _ZNK13KUrlNavigator6editorEv@Base 4:4.3.4
 _ZNK13KUrlNavigator7Private15firstButtonTextEv@Base 4:4.4.95
 _ZNK13KUrlNavigator7Private16isCompressedPathERK4KUrl@Base 4:4.3.4
 _ZNK13KUrlNavigator7Private17retrievePlacePathEv@Base 4:4.3.4
 _ZNK13KUrlNavigator7Private19removeTrailingSlashER7QString@Base 4:4.3.4
 _ZNK13KUrlNavigator7Private20adjustedHistoryIndexEi@Base 4:4.4.95
 _ZNK13KUrlNavigator7Private9buttonUrlEi@Base 4:4.4.95
 _ZNK13KUrlNavigator7homeUrlEv@Base 4:4.4.95
 _ZNK13KUrlNavigator8isActiveEv@Base 4:4.3.4
 _ZNK15KFilePlacesView10metaObjectEv@Base 4:4.3.4
 _ZNK15KFilePlacesView20isDropOnPlaceEnabledEv@Base 4:4.3.4
 _ZNK15KFilePlacesView24isAutoResizeItemsEnabledEv@Base 4:4.3.4
 _ZNK15KFilePlacesView7Private11insertAboveERK5QRectRK6QPoint@Base 4:4.3.4
 _ZNK15KFilePlacesView7Private11insertBelowERK5QRectRK6QPoint@Base 4:4.3.4
 _ZNK15KFilePlacesView7Private21insertIndicatorHeightEi@Base 4:4.3.4
 _ZNK15KFilePlacesView8sizeHintEv@Base 4:4.3.4
 _ZNK16KDirSelectDialog10metaObjectEv@Base 4:4.3.4
 _ZNK16KDirSelectDialog3urlEv@Base 4:4.3.4
 _ZNK16KDirSelectDialog4viewEv@Base 4:4.3.4
 _ZNK16KDirSelectDialog8startDirEv@Base 4:4.3.4
 _ZNK16KDirSelectDialog9localOnlyEv@Base 4:4.3.4
 _ZNK16KFileFilterCombo10metaObjectEv@Base 4:4.3.4
 _ZNK16KFileFilterCombo12isMimeFilterEv@Base 4:4.6.1
 _ZNK16KFileFilterCombo13currentFilterEv@Base 4:4.3.4
 _ZNK16KFileFilterCombo13defaultFilterEv@Base 4:4.3.4
 _ZNK16KFileFilterCombo13showsAllTypesEv@Base 4:4.3.4
 _ZNK16KFileFilterCombo7filtersEv@Base 4:4.3.4
 _ZNK16KFilePlacesModel10metaObjectEv@Base 4:4.3.4
 _ZNK16KFilePlacesModel11closestItemERK4KUrl@Base 4:4.3.4
 _ZNK16KFilePlacesModel11columnCountERK11QModelIndex@Base 4:4.3.4
 _ZNK16KFilePlacesModel11hiddenCountEv@Base 4:4.3.4
 _ZNK16KFilePlacesModel11removePlaceERK11QModelIndex@Base 4:4.3.4
 _ZNK16KFilePlacesModel11setupNeededERK11QModelIndex@Base 4:4.3.4
 _ZNK16KFilePlacesModel14deviceForIndexERK11QModelIndex@Base 4:4.3.4
 _ZNK16KFilePlacesModel16bookmarkForIndexERK11QModelIndex@Base 4:4.3.4
 _ZNK16KFilePlacesModel19ejectActionForIndexERK11QModelIndex@Base 4:4.3.4
 _ZNK16KFilePlacesModel20supportedDropActionsEv@Base 4:4.3.4
 _ZNK16KFilePlacesModel22teardownActionForIndexERK11QModelIndex@Base 4:4.3.4
 _ZNK16KFilePlacesModel3urlERK11QModelIndex@Base 4:4.3.4
 _ZNK16KFilePlacesModel4dataERK11QModelIndexi@Base 4:4.3.4
 _ZNK16KFilePlacesModel4iconERK11QModelIndex@Base 4:4.3.4
 _ZNK16KFilePlacesModel4textERK11QModelIndex@Base 4:4.3.4
 _ZNK16KFilePlacesModel5flagsERK11QModelIndex@Base 4:4.3.4
 _ZNK16KFilePlacesModel5indexEiiRK11QModelIndex@Base 4:4.3.4
 _ZNK16KFilePlacesModel6parentERK11QModelIndex@Base 4:4.3.4
 _ZNK16KFilePlacesModel8isDeviceERK11QModelIndex@Base 4:4.3.4
 _ZNK16KFilePlacesModel8isHiddenERK11QModelIndex@Base 4:4.3.4
 _ZNK16KFilePlacesModel8mimeDataERK5QListI11QModelIndexE@Base 4:4.3.4
 _ZNK16KFilePlacesModel8rowCountERK11QModelIndex@Base 4:4.3.4
 _ZNK16KFilePlacesModel9mimeTypesEv@Base 4:4.3.4
 _ZNK21KFilePreviewGenerator10metaObjectEv@Base 4:4.3.4
 _ZNK21KFilePreviewGenerator14enabledPluginsEv@Base 4:4.3.4
 _ZNK21KFilePreviewGenerator14isPreviewShownEv@Base 4:4.3.4
 _ZNK21KFilePreviewGenerator7Private9isCutItemERK9KFileItem@Base 4:4.3.4
 _ZNK22KNameAndUrlInputDialog10metaObjectEv@Base 4:4.4.95
 _ZNK22KNameAndUrlInputDialog3urlEv@Base 4:4.4.95
 _ZNK22KNameAndUrlInputDialog4nameEv@Base 4:4.4.95
 _ZNK24KDirSortFilterProxyModel10metaObjectEv@Base 4:4.4.0
 _ZNK24KDirSortFilterProxyModel11hasChildrenERK11QModelIndex@Base 4:4.3.4
 _ZNK24KDirSortFilterProxyModel12canFetchMoreERK11QModelIndex@Base 4:4.3.4
 _ZNK24KDirSortFilterProxyModel15subSortLessThanERK11QModelIndexS2_@Base 4:4.3.4
 _ZNK24KDirSortFilterProxyModel16sortFoldersFirstEv@Base 4:4.3.4
 _ZNK24KDirSortFilterProxyModel31KDirSortFilterProxyModelPrivate7compareERK7QStringS3_N2Qt15CaseSensitivityE@Base 4:4.4.0
 _ZTI11KFileWidget@Base 4:4.3.4
 _ZTI12KDirOperator@Base 4:4.3.4
 _ZTI12KNewFileMenu@Base 4:4.4.95
 _ZTI13KFileTreeView@Base 4:4.3.4
 _ZTI13KUrlNavigator@Base 4:4.3.4
 _ZTI15KFilePlacesView@Base 4:4.3.4
 _ZTI16KDirSelectDialog@Base 4:4.3.4
 _ZTI16KFileFilterCombo@Base 4:4.3.4
 _ZTI16KFilePlacesModel@Base 4:4.3.4
 _ZTI19KAbstractFileWidget@Base 4:4.3.4
 _ZTI21KFilePreviewGenerator@Base 4:4.3.4
 _ZTI22KNameAndUrlInputDialog@Base 4:4.4.95
 _ZTI24KDirSortFilterProxyModel@Base 4:4.3.4
 _ZTS11KFileWidget@Base 4:4.3.4
 _ZTS12KDirOperator@Base 4:4.3.4
 _ZTS12KNewFileMenu@Base 4:4.4.95
 _ZTS13KFileTreeView@Base 4:4.3.4
 _ZTS13KUrlNavigator@Base 4:4.3.4
 _ZTS15KFilePlacesView@Base 4:4.3.4
 _ZTS16KDirSelectDialog@Base 4:4.3.4
 _ZTS16KFileFilterCombo@Base 4:4.3.4
 _ZTS16KFilePlacesModel@Base 4:4.3.4
 _ZTS19KAbstractFileWidget@Base 4:4.3.4
 _ZTS21KFilePreviewGenerator@Base 4:4.3.4
 _ZTS22KNameAndUrlInputDialog@Base 4:4.4.95
 _ZTS24KDirSortFilterProxyModel@Base 4:4.3.4
 _ZTV11KFileWidget@Base 4:4.3.4
 _ZTV12KDirOperator@Base 4:4.3.4
 _ZTV12KNewFileMenu@Base 4:4.4.95
 _ZTV13KFileTreeView@Base 4:4.3.4
 _ZTV13KUrlNavigator@Base 4:4.3.4
 _ZTV15KFilePlacesView@Base 4:4.3.4
 _ZTV16KDirSelectDialog@Base 4:4.3.4
 _ZTV16KFileFilterCombo@Base 4:4.3.4
 _ZTV16KFilePlacesModel@Base 4:4.3.4
 _ZTV19KAbstractFileWidget@Base 4:4.3.4
 _ZTV21KFilePreviewGenerator@Base 4:4.3.4
 _ZTV22KNameAndUrlInputDialog@Base 4:4.4.95
 _ZTV24KDirSortFilterProxyModel@Base 4:4.3.4
 (c++)"non-virtual thunk to KDirOperator::~KDirOperator()@Base" 4:4.3.4
 (c++)"non-virtual thunk to KDirSelectDialog::~KDirSelectDialog()@Base" 4:4.3.4
 (c++)"non-virtual thunk to KFileFilterCombo::~KFileFilterCombo()@Base" 4:4.3.4
 (c++)"non-virtual thunk to KFilePlacesView::~KFilePlacesView()@Base" 4:4.3.4
 (c++)"non-virtual thunk to KFileTreeView::~KFileTreeView()@Base" 4:4.3.4
 (c++)"non-virtual thunk to KFileWidget::accept()@Base" 4:4.3.4
 (c++)"non-virtual thunk to KFileWidget::actionCollection() const@Base" 4:4.3.4
 (c++)"non-virtual thunk to KFileWidget::baseUrl() const@Base" 4:4.3.4
 (c++)"non-virtual thunk to KFileWidget::cancelButton() const@Base" 4:4.3.4
 (c++)"non-virtual thunk to KFileWidget::clearFilter()@Base" 4:4.3.4
 (c++)"non-virtual thunk to KFileWidget::currentFilter() const@Base" 4:4.3.4
 (c++)"non-virtual thunk to KFileWidget::currentFilterMimeType()@Base" 4:4.3.4
 (c++)"non-virtual thunk to KFileWidget::currentMimeFilter() const@Base" 4:4.3.4
 (c++)"non-virtual thunk to KFileWidget::filterWidget() const@Base" 4:4.3.4
 (c++)"non-virtual thunk to KFileWidget::keepsLocation() const@Base" 4:4.3.4
 (c++)"non-virtual thunk to KFileWidget::locationEdit() const@Base" 4:4.3.4
 (c++)"non-virtual thunk to KFileWidget::mode() const@Base" 4:4.3.4
 (c++)"non-virtual thunk to KFileWidget::okButton() const@Base" 4:4.3.4
 (c++)"non-virtual thunk to KFileWidget::operationMode() const@Base" 4:4.3.4
 (c++)"non-virtual thunk to KFileWidget::selectedFile() const@Base" 4:4.3.4
 (c++)"non-virtual thunk to KFileWidget::selectedFiles() const@Base" 4:4.3.4
 (c++)"non-virtual thunk to KFileWidget::selectedUrl() const@Base" 4:4.3.4
 (c++)"non-virtual thunk to KFileWidget::selectedUrls() const@Base" 4:4.3.4
 (c++)"non-virtual thunk to KFileWidget::setCustomWidget(QString const&, QWidget*)@Base" 4:4.3.4
 (c++)"non-virtual thunk to KFileWidget::setCustomWidget(QWidget*)@Base" 4:4.3.4
 (c++)"non-virtual thunk to KFileWidget::setFilter(QString const&)@Base" 4:4.3.4
 (c++)"non-virtual thunk to KFileWidget::setKeepLocation(bool)@Base" 4:4.3.4
 (c++)"non-virtual thunk to KFileWidget::setLocationLabel(QString const&)@Base" 4:4.3.4
 (c++)"non-virtual thunk to KFileWidget::setMimeFilter(QStringList const&, QString const&)@Base" 4:4.3.4
 (c++)"non-virtual thunk to KFileWidget::setMode(QFlags<KFile::Mode>)@Base" 4:4.3.4
 (c++)"non-virtual thunk to KFileWidget::setOperationMode(KAbstractFileWidget::OperationMode)@Base" 4:4.3.4
 (c++)"non-virtual thunk to KFileWidget::setPreviewWidget(KPreviewWidgetBase*)@Base" 4:4.3.4
 (c++)"non-virtual thunk to KFileWidget::setSelection(QString const&)@Base" 4:4.3.4
 (c++)"non-virtual thunk to KFileWidget::setUrl(KUrl const&, bool)@Base" 4:4.3.4
 (c++)"non-virtual thunk to KFileWidget::slotCancel()@Base" 4:4.3.4
 (c++)"non-virtual thunk to KFileWidget::slotOk()@Base" 4:4.3.4
 (c++)"non-virtual thunk to KFileWidget::toolBar() const@Base" 4:4.3.4
 (c++)"non-virtual thunk to KFileWidget::virtual_hook(int, void*)@Base" 4:4.3.4
 (c++)"non-virtual thunk to KFileWidget::~KFileWidget()@Base" 4:4.3.4
 (c++)"non-virtual thunk to KNameAndUrlInputDialog::~KNameAndUrlInputDialog()@Base" 4:4.4.95
 (c++)"non-virtual thunk to KUrlNavigator::~KUrlNavigator()@Base" 4:4.3.4
