# SymbolsHelper-Confirmed: 4:4.8.4 amd64 armel armhf hurd-i386 i386 ia64 kfreebsd-amd64 kfreebsd-i386 mips mipsel powerpc s390 s390x sparc
libplasma.so.3 libplasma3 #MINVER#
* Build-Depends-Package: kdelibs5-dev
 (optional=templinst|arch=armel armhf ia64 mips mipsel powerpc s390 s390x sparc)_ZN12KConfigGroup14writeListCheckI7QStringEEvPKcRK5QListIT_E6QFlagsIN11KConfigBase15WriteConfigFlagEE@Base 4:4.6.2
 (optional=templinst|arch=armel armhf mips mipsel powerpc s390 s390x sparc|subst)_ZN12KConfigGroup14writeListCheckI{qreal}EEvPKcRK5QListIT_E6QFlagsIN11KConfigBase15WriteConfigFlagEE@Base 4:4.8.3
 (arch=kfreebsd-amd64 kfreebsd-i386)_ZN15KConfigSkeletonD0Ev@Base 4:4.7.4
 (arch=kfreebsd-amd64 kfreebsd-i386)_ZN15KConfigSkeletonD1Ev@Base 4:4.7.4
 (arch=kfreebsd-amd64 kfreebsd-i386)_ZN15KConfigSkeletonD2Ev@Base 4:4.7.4
 (arch=kfreebsd-amd64 kfreebsd-i386)_ZN19KCoreConfigSkeleton8ItemEnum6ChoiceD1Ev@Base 4:4.6.5
 (arch=kfreebsd-amd64 kfreebsd-i386)_ZN19KCoreConfigSkeleton8ItemEnum6ChoiceD2Ev@Base 4:4.6.5
 _ZN5Jolie11MetaService11loadServiceERK7QStringS3_@Base 4:4.4.4-2~
 _ZN5Jolie11MetaService13unloadServiceERK7QString@Base 4:4.4.4-2~
 _ZN5Jolie11MetaService14addRedirectionERK7QStringS3_RKNS_5ValueES6_@Base 4:4.4.4-2~
 _ZN5Jolie11MetaService4stopEv@Base 4:4.4.4-2~
 _ZN5Jolie11MetaService5startEv@Base 4:4.4.4-2~
 _ZN5Jolie11MetaServiceC1Ev@Base 4:4.4.4-2~
 _ZN5Jolie11MetaServiceC2Ev@Base 4:4.4.4-2~
 _ZN5Jolie11MetaServiceD1Ev@Base 4:4.4.4-2~
 _ZN5Jolie11MetaServiceD2Ev@Base 4:4.4.4-2~
 _ZN5Jolie11PendingCallC1E28QExplicitlySharedDataPointerINS_18PendingCallPrivateEE@Base 4:4.4.4-2~
 _ZN5Jolie11PendingCallC1ERKS0_@Base 4:4.4.4-2~
 _ZN5Jolie11PendingCallC2E28QExplicitlySharedDataPointerINS_18PendingCallPrivateEE@Base 4:4.4.4-2~
 _ZN5Jolie11PendingCallC2ERKS0_@Base 4:4.4.4-2~
 _ZN5Jolie11PendingCallD1Ev@Base 4:4.4.4-2~
 _ZN5Jolie11PendingCallD2Ev@Base 4:4.4.4-2~
 _ZN5Jolie11PendingCallaSERKS0_@Base 4:4.4.4-2~
 _ZN5Jolie12PendingReply15waitForFinishedEv@Base 4:4.4.4-2~
 _ZN5Jolie12PendingReplyC1ERKNS_11PendingCallE@Base 4:4.4.4-2~
 _ZN5Jolie12PendingReplyC1ERKS0_@Base 4:4.4.4-2~
 _ZN5Jolie12PendingReplyC1Ev@Base 4:4.4.4-2~
 _ZN5Jolie12PendingReplyC2ERKNS_11PendingCallE@Base 4:4.4.4-2~
 _ZN5Jolie12PendingReplyC2ERKS0_@Base 4:4.4.4-2~
 _ZN5Jolie12PendingReplyC2Ev@Base 4:4.4.4-2~
 _ZN5Jolie12PendingReplyD1Ev@Base 4:4.4.4-2~
 _ZN5Jolie12PendingReplyD2Ev@Base 4:4.4.4-2~
 _ZN5Jolie12PendingReplyaSERKNS_11PendingCallE@Base 4:4.4.4-2~
 _ZN5Jolie12PendingReplyaSERKS0_@Base 4:4.4.4-2~
 _ZN5Jolie15AbstractAdaptor11qt_metacallEN11QMetaObject4CallEiPPv@Base 4:4.4.4-2~
 _ZN5Jolie15AbstractAdaptor11qt_metacastEPKc@Base 4:4.4.4-2~
 _ZN5Jolie15AbstractAdaptor16staticMetaObjectE@Base 4:4.4.4-2~
 _ZN5Jolie15AbstractAdaptorC1EP7QObject@Base 4:4.4.4-2~
 _ZN5Jolie15AbstractAdaptorC2EP7QObject@Base 4:4.4.4-2~
 _ZN5Jolie15AbstractAdaptorD0Ev@Base 4:4.4.4-2~
 _ZN5Jolie15AbstractAdaptorD1Ev@Base 4:4.4.4-2~
 _ZN5Jolie15AbstractAdaptorD2Ev@Base 4:4.4.4-2~
 _ZN5Jolie18PendingCallWatcher11qt_metacallEN11QMetaObject4CallEiPPv@Base 4:4.4.4-2~
 _ZN5Jolie18PendingCallWatcher11qt_metacastEPKc@Base 4:4.4.4-2~
 _ZN5Jolie18PendingCallWatcher15waitForFinishedEv@Base 4:4.4.4-2~
 _ZN5Jolie18PendingCallWatcher16staticMetaObjectE@Base 4:4.4.4-2~
 _ZN5Jolie18PendingCallWatcher8finishedEPS0_@Base 4:4.4.4-2~
 _ZN5Jolie18PendingCallWatcherC1ERKNS_11PendingCallEP7QObject@Base 4:4.4.4-2~
 _ZN5Jolie18PendingCallWatcherC2ERKNS_11PendingCallEP7QObject@Base 4:4.4.4-2~
 _ZN5Jolie18PendingCallWatcherD0Ev@Base 4:4.4.4-2~
 _ZN5Jolie18PendingCallWatcherD1Ev@Base 4:4.4.4-2~
 _ZN5Jolie18PendingCallWatcherD2Ev@Base 4:4.4.4-2~
 _ZN5Jolie5FaultC1ERK10QByteArrayRKNS_5ValueE@Base 4:4.4.4-2~
 _ZN5Jolie5FaultC1ERKS0_@Base 4:4.4.4-2~
 _ZN5Jolie5FaultC1Ev@Base 4:4.4.4-2~
 _ZN5Jolie5FaultC2ERK10QByteArrayRKNS_5ValueE@Base 4:4.4.4-2~
 _ZN5Jolie5FaultC2ERKS0_@Base 4:4.4.4-2~
 _ZN5Jolie5FaultC2Ev@Base 4:4.4.4-2~
 _ZN5Jolie5FaultD1Ev@Base 4:4.4.4-2~
 _ZN5Jolie5FaultD2Ev@Base 4:4.4.4-2~
 _ZN5Jolie5FaultaSERKS0_@Base 4:4.4.4-2~
 _ZN5Jolie5Value8childrenERK10QByteArray@Base 4:4.4.4-2~
 _ZN5Jolie5ValueC1ERK10QByteArray@Base 4:4.4.4-2~
 _ZN5Jolie5ValueC1ERKS0_@Base 4:4.4.4-2~
 _ZN5Jolie5ValueC1Ed@Base 4:4.4.4-2~
 _ZN5Jolie5ValueC1Ei@Base 4:4.4.4-2~
 _ZN5Jolie5ValueC1Ev@Base 4:4.4.4-2~
 _ZN5Jolie5ValueC2ERK10QByteArray@Base 4:4.4.4-2~
 _ZN5Jolie5ValueC2ERKS0_@Base 4:4.4.4-2~
 _ZN5Jolie5ValueC2Ed@Base 4:4.4.4-2~
 _ZN5Jolie5ValueC2Ei@Base 4:4.4.4-2~
 _ZN5Jolie5ValueC2Ev@Base 4:4.4.4-2~
 _ZN5Jolie5ValueD1Ev@Base 4:4.4.4-2~
 _ZN5Jolie5ValueD2Ev@Base 4:4.4.4-2~
 _ZN5Jolie5ValueaSERKS0_@Base 4:4.4.4-2~
 _ZN5Jolie6Client11callNoReplyERKNS_7MessageE@Base 4:4.4.4-2~
 _ZN5Jolie6Client4callERKNS_7MessageE@Base 4:4.4.4-2~
 _ZN5Jolie6Client9asyncCallERKNS_7MessageE@Base 4:4.4.4-2~
 _ZN5Jolie6ClientC1ERK7QStringt@Base 4:4.4.4-2~
 _ZN5Jolie6ClientC2ERK7QStringt@Base 4:4.4.4-2~
 _ZN5Jolie6ClientD1Ev@Base 4:4.4.4-2~
 _ZN5Jolie6ClientD2Ev@Base 4:4.4.4-2~
 _ZN5Jolie6Server15registerAdaptorERK10QByteArrayPNS_15AbstractAdaptorE@Base 4:4.4.4-2~
 _ZN5Jolie6Server17unregisterAdaptorERK10QByteArray@Base 4:4.4.4-2~
 _ZN5Jolie6Server9sendReplyEiRKNS_7MessageE@Base 4:4.4.4-2~
 _ZN5Jolie6ServerC1Et@Base 4:4.4.4-2~
 _ZN5Jolie6ServerC2Et@Base 4:4.4.4-2~
 _ZN5Jolie6ServerD1Ev@Base 4:4.4.4-2~
 _ZN5Jolie6ServerD2Ev@Base 4:4.4.4-2~
 _ZN5Jolie7Message7isValidEv@Base 4:4.4.4-2~
 _ZN5Jolie7Message7setDataERKNS_5ValueE@Base 4:4.4.4-2~
 _ZN5Jolie7Message8setFaultERKNS_5FaultE@Base 4:4.4.4-2~
 _ZN5Jolie7MessageC1ERK10QByteArrayS3_x@Base 4:4.4.4-2~
 _ZN5Jolie7MessageC1ERKS0_@Base 4:4.4.4-2~
 _ZN5Jolie7MessageC1Ev@Base 4:4.4.4-2~
 _ZN5Jolie7MessageC2ERK10QByteArrayS3_x@Base 4:4.4.4-2~
 _ZN5Jolie7MessageC2ERKS0_@Base 4:4.4.4-2~
 _ZN5Jolie7MessageC2Ev@Base 4:4.4.4-2~
 _ZN5Jolie7MessageD1Ev@Base 4:4.4.4-2~
 _ZN5Jolie7MessageD2Ev@Base 4:4.4.4-2~
 _ZN5Jolie7MessageaSERKS0_@Base 4:4.4.4-2~
 _ZN6Plasma10BusyWidget10setRunningEb@Base 4:4.4.4-2~
 _ZN6Plasma10BusyWidget10timerEventEP11QTimerEvent@Base 4:4.4.4-2~
 _ZN6Plasma10BusyWidget11qt_metacallEN11QMetaObject4CallEiPPv@Base 4:4.4.4-2~
 _ZN6Plasma10BusyWidget11qt_metacastEPKc@Base 4:4.4.4-2~
 _ZN6Plasma10BusyWidget11resizeEventEP25QGraphicsSceneResizeEvent@Base 4:4.4.4-2~
 _ZN6Plasma10BusyWidget15mousePressEventEP24QGraphicsSceneMouseEvent@Base 4:4.4.4-2~
 _ZN6Plasma10BusyWidget16staticMetaObjectE@Base 4:4.4.4-2~
 _ZN6Plasma10BusyWidget17mouseReleaseEventEP24QGraphicsSceneMouseEvent@Base 4:4.5.90
 _ZN6Plasma10BusyWidget5paintEP8QPainterPK24QStyleOptionGraphicsItemP7QWidget@Base 4:4.4.4-2~
 _ZN6Plasma10BusyWidget7clickedEv@Base 4:4.4.4-2~
 _ZN6Plasma10BusyWidget8setLabelERK7QString@Base 4:4.4.4-2~
 _ZN6Plasma10BusyWidget9hideEventEP10QHideEvent@Base 4:4.4.4-2~
 _ZN6Plasma10BusyWidget9showEventEP10QShowEvent@Base 4:4.4.4-2~
 _ZN6Plasma10BusyWidgetC1EP15QGraphicsWidget@Base 4:4.4.4-2~
 _ZN6Plasma10BusyWidgetC2EP15QGraphicsWidget@Base 4:4.4.4-2~
 _ZN6Plasma10BusyWidgetD0Ev@Base 4:4.4.4-2~
 _ZN6Plasma10BusyWidgetD1Ev@Base 4:4.4.4-2~
 _ZN6Plasma10BusyWidgetD2Ev@Base 4:4.4.4-2~
 _ZN6Plasma10DataEngine10removeDataERK7QStringS3_@Base 4:4.4.4-2~
 _ZN6Plasma10DataEngine10timerEventEP11QTimerEvent@Base 4:4.4.4-2~
 _ZN6Plasma10DataEngine11qt_metacallEN11QMetaObject4CallEiPPv@Base 4:4.4.4-2~
 _ZN6Plasma10DataEngine11qt_metacastEPKc@Base 4:4.4.4-2~
 _ZN6Plasma10DataEngine11sourceAddedERK7QString@Base 4:4.4.4-2~
 _ZN6Plasma10DataEngine12removeSourceERK7QString@Base 4:4.4.4-2~
 _ZN6Plasma10DataEngine13removeAllDataERK7QString@Base 4:4.4.4-2~
 _ZN6Plasma10DataEngine13sourceRemovedERK7QString@Base 4:4.4.4-2~
 _ZN6Plasma10DataEngine16removeAllSourcesEv@Base 4:4.4.4-2~
 _ZN6Plasma10DataEngine16serviceForSourceERK7QString@Base 4:4.4.4-2~
 _ZN6Plasma10DataEngine16staticMetaObjectE@Base 4:4.4.4-2~
 _ZN6Plasma10DataEngine16updateAllSourcesEv@Base 4:4.4.4-2~
 _ZN6Plasma10DataEngine17setDefaultServiceERK7QString@Base 4:4.4.95
 _ZN6Plasma10DataEngine17setMaxSourceCountEj@Base 4:4.4.4-2~
 _ZN6Plasma10DataEngine17setStorageEnabledERK7QStringb@Base 4:4.5.86
 _ZN6Plasma10DataEngine17updateSourceEventERK7QString@Base 4:4.4.4-2~
 _ZN6Plasma10DataEngine18containerForSourceERK7QString@Base 4:4.4.4-2~
 _ZN6Plasma10DataEngine18setPollingIntervalEj@Base 4:4.4.4-2~
 _ZN6Plasma10DataEngine18sourceRequestEventERK7QString@Base 4:4.4.4-2~
 _ZN6Plasma10DataEngine20createDefaultServiceEP7QObject@Base 4:4.4.95
 _ZN6Plasma10DataEngine22scheduleSourcesUpdatedEv@Base 4:4.4.4-2~
 _ZN6Plasma10DataEngine25setMinimumPollingIntervalEi@Base 4:4.4.4-2~
 _ZN6Plasma10DataEngine39forceImmediateUpdateOfAllVisualizationsEv@Base 4:4.4.4-2~
 _ZN6Plasma10DataEngine4initEv@Base 4:4.4.4-2~
 _ZN6Plasma10DataEngine7setDataERK7QStringRK5QHashIS1_8QVariantE@Base 4:4.4.4-2~
 _ZN6Plasma10DataEngine7setDataERK7QStringRK8QVariant@Base 4:4.4.4-2~
 _ZN6Plasma10DataEngine7setDataERK7QStringS3_RK8QVariant@Base 4:4.4.4-2~
 _ZN6Plasma10DataEngine7setIconERK7QString@Base 4:4.4.4-2~
 _ZN6Plasma10DataEngine7setNameERK7QString@Base 4:4.4.4-2~
 _ZN6Plasma10DataEngine8setValidEb@Base 4:4.4.4-2~
 _ZN6Plasma10DataEngine9addSourceEPNS_13DataContainerE@Base 4:4.4.4-2~
 _ZN6Plasma10DataEngineC1EP7QObject10KSharedPtrI8KServiceE@Base 4:4.4.4-2~
 _ZN6Plasma10DataEngineC1EP7QObjectRK5QListI8QVariantE@Base 4:4.4.4-2~
 _ZN6Plasma10DataEngineC2EP7QObject10KSharedPtrI8KServiceE@Base 4:4.4.4-2~
 _ZN6Plasma10DataEngineC2EP7QObjectRK5QListI8QVariantE@Base 4:4.4.4-2~
 _ZN6Plasma10DataEngineD0Ev@Base 4:4.4.4-2~
 _ZN6Plasma10DataEngineD1Ev@Base 4:4.4.4-2~
 _ZN6Plasma10DataEngineD2Ev@Base 4:4.4.4-2~
 _ZN6Plasma10IconAction11setSelectedEb@Base 4:4.4.4-2~
 _ZN6Plasma10IconAction13rebuildPixmapEv@Base 4:4.4.4-2~
 _ZN6Plasma10IconAction4hideEv@Base 4:4.4.4-2~
 _ZN6Plasma10IconAction4showEv@Base 4:4.4.4-2~
 _ZN6Plasma10IconAction5eventEN6QEvent4TypeERK7QPointF@Base 4:4.4.4-2~
 _ZN6Plasma10IconAction7setRectERK6QRectF@Base 4:4.4.4-2~
 _ZN6Plasma10IconActionC1EPNS_10IconWidgetEP7QAction@Base 4:4.4.4-2~
 _ZN6Plasma10IconActionC2EPNS_10IconWidgetEP7QAction@Base 4:4.4.4-2~
 _ZN6Plasma10IconWidget10setPressedEb@Base 4:4.4.4-2~
 _ZN6Plasma10IconWidget11changeEventEP6QEvent@Base 4:4.4.4-2~
 _ZN6Plasma10IconWidget11qt_metacallEN11QMetaObject4CallEiPPv@Base 4:4.4.4-2~
 _ZN6Plasma10IconWidget11qt_metacastEPKc@Base 4:4.4.4-2~
 _ZN6Plasma10IconWidget11setInfoTextERK7QString@Base 4:4.4.4-2~
 _ZN6Plasma10IconWidget12invertLayoutEb@Base 4:4.4.4-2~
 _ZN6Plasma10IconWidget12setUnpressedEv@Base 4:4.4.4-2~
 _ZN6Plasma10IconWidget13addIconActionEP7QAction@Base 4:4.4.4-2~
 _ZN6Plasma10IconWidget13doubleClickedEv@Base 4:4.4.4-2~
 _ZN6Plasma10IconWidget14mouseMoveEventEP24QGraphicsSceneMouseEvent@Base 4:4.4.4-2~
 _ZN6Plasma10IconWidget14setOrientationEN2Qt11OrientationE@Base 4:4.4.4-2~
 _ZN6Plasma10IconWidget15hoverEnterEventEP24QGraphicsSceneHoverEvent@Base 4:4.4.4-2~
 _ZN6Plasma10IconWidget15hoverLeaveEventEP24QGraphicsSceneHoverEvent@Base 4:4.4.4-2~
 _ZN6Plasma10IconWidget15mousePressEventEP24QGraphicsSceneMouseEvent@Base 4:4.4.4-2~
 _ZN6Plasma10IconWidget15numDisplayLinesEv@Base 4:4.4.4-2~
 _ZN6Plasma10IconWidget16removeIconActionEP7QAction@Base 4:4.4.4-2~
 _ZN6Plasma10IconWidget16sceneEventFilterEP13QGraphicsItemP6QEvent@Base 4:4.4.4-2~
 _ZN6Plasma10IconWidget16staticMetaObjectE@Base 4:4.4.4-2~
 _ZN6Plasma10IconWidget17mouseReleaseEventEP24QGraphicsSceneMouseEvent@Base 4:4.4.4-2~
 _ZN6Plasma10IconWidget17setDrawBackgroundEb@Base 4:4.4.4-2~
 _ZN6Plasma10IconWidget18setMaximumIconSizeERK6QSizeF@Base 4:4.4.95
 _ZN6Plasma10IconWidget18setMinimumIconSizeERK6QSizeF@Base 4:4.4.95
 _ZN6Plasma10IconWidget18setNumDisplayLinesEi@Base 4:4.4.4-2~
 _ZN6Plasma10IconWidget20drawActionButtonBaseEP8QPainterRK5QSizei@Base 4:4.4.4-2~
 _ZN6Plasma10IconWidget20setPreferredIconSizeERK6QSizeF@Base 4:4.4.95
 _ZN6Plasma10IconWidget21mouseDoubleClickEventEP24QGraphicsSceneMouseEvent@Base 4:4.4.4-2~
 _ZN6Plasma10IconWidget22setTextBackgroundColorERK6QColor@Base 4:4.4.4-2~
 _ZN6Plasma10IconWidget5paintEP8QPainterPK24QStyleOptionGraphicsItemP7QWidget@Base 4:4.4.4-2~
 _ZN6Plasma10IconWidget6isDownEv@Base 4:4.4.4-2~
 _ZN6Plasma10IconWidget6setSvgERK7QStringS3_@Base 4:4.4.4-2~
 _ZN6Plasma10IconWidget7changedEv@Base 4:4.4.4-2~
 _ZN6Plasma10IconWidget7clickedEv@Base 4:4.4.4-2~
 _ZN6Plasma10IconWidget7pressedEb@Base 4:4.4.4-2~
 _ZN6Plasma10IconWidget7setIconERK5QIcon@Base 4:4.4.4-2~
 _ZN6Plasma10IconWidget7setIconERK7QString@Base 4:4.4.4-2~
 _ZN6Plasma10IconWidget7setTextERK7QString@Base 4:4.4.4-2~
 _ZN6Plasma10IconWidget9activatedEv@Base 4:4.4.4-2~
 _ZN6Plasma10IconWidget9setActionEP7QAction@Base 4:4.4.4-2~
 _ZN6Plasma10IconWidgetC1EP13QGraphicsItem@Base 4:4.4.4-2~
 _ZN6Plasma10IconWidgetC1ERK5QIconRK7QStringP13QGraphicsItem@Base 4:4.4.4-2~
 _ZN6Plasma10IconWidgetC1ERK7QStringP13QGraphicsItem@Base 4:4.4.4-2~
 _ZN6Plasma10IconWidgetC2EP13QGraphicsItem@Base 4:4.4.4-2~
 _ZN6Plasma10IconWidgetC2ERK5QIconRK7QStringP13QGraphicsItem@Base 4:4.4.4-2~
 _ZN6Plasma10IconWidgetC2ERK7QStringP13QGraphicsItem@Base 4:4.4.4-2~
 _ZN6Plasma10IconWidgetD0Ev@Base 4:4.4.4-2~
 _ZN6Plasma10IconWidgetD1Ev@Base 4:4.4.4-2~
 _ZN6Plasma10IconWidgetD2Ev@Base 4:4.4.4-2~
 _ZN6Plasma10PaintUtils10shadowBlurER6QImageiRK6QColor@Base 4:4.4.4-2~
 _ZN6Plasma10PaintUtils10shadowTextE7QString6QColorS2_6QPointi@Base 4:4.4.4-2~
 _ZN6Plasma10PaintUtils10shadowTextE7QStringRK5QFont6QColorS5_6QPointi@Base 4:4.4.4-2~
 (subst)_ZN6Plasma10PaintUtils10transitionERK7QPixmapS3_{qreal}@Base 4:4.4.4-2~
 _ZN6Plasma10PaintUtils12texturedTextERK7QStringRK5QFontPNS_3SvgE@Base 4:4.7.0
 _ZN6Plasma10PaintUtils13centerPixmapsER7QPixmapS2_@Base 4:4.4.95
 (subst)_ZN6Plasma10PaintUtils16roundedRectangleERK6QRectF{qreal}@Base 4:4.4.4-2~
 _ZN6Plasma10PaintUtils8drawHaloEP8QPainterRK6QRectF@Base 4:4.4.4-2~
 _ZN6Plasma10PushButton10setCheckedEb@Base 4:4.4.4-2~
 _ZN6Plasma10PushButton10styleSheetEv@Base 4:4.4.4-2~
 _ZN6Plasma10PushButton11changeEventEP6QEvent@Base 4:4.4.4-2~
 _ZN6Plasma10PushButton11qt_metacallEN11QMetaObject4CallEiPPv@Base 4:4.4.4-2~
 _ZN6Plasma10PushButton11qt_metacastEPKc@Base 4:4.4.4-2~
 _ZN6Plasma10PushButton11resizeEventEP25QGraphicsSceneResizeEvent@Base 4:4.4.4-2~
 _ZN6Plasma10PushButton12setCheckableEb@Base 4:4.4.4-2~
 _ZN6Plasma10PushButton13setStyleSheetERK7QString@Base 4:4.4.4-2~
 _ZN6Plasma10PushButton15hoverEnterEventEP24QGraphicsSceneHoverEvent@Base 4:4.4.4-2~
 _ZN6Plasma10PushButton15hoverLeaveEventEP24QGraphicsSceneHoverEvent@Base 4:4.4.4-2~
 _ZN6Plasma10PushButton16staticMetaObjectE@Base 4:4.4.4-2~
 _ZN6Plasma10PushButton5clickEv@Base 4:4.5.86
 _ZN6Plasma10PushButton5paintEP8QPainterPK24QStyleOptionGraphicsItemP7QWidget@Base 4:4.4.4-2~
 _ZN6Plasma10PushButton7clickedEv@Base 4:4.4.4-2~
 _ZN6Plasma10PushButton7pressedEv@Base 4:4.4.4-2~
 _ZN6Plasma10PushButton7setIconERK5KIcon@Base 4:4.4.4-2~
 _ZN6Plasma10PushButton7setIconERK5QIcon@Base 4:4.4.4-2~
 _ZN6Plasma10PushButton7setTextERK7QString@Base 4:4.4.4-2~
 _ZN6Plasma10PushButton7toggledEb@Base 4:4.4.4-2~
 _ZN6Plasma10PushButton8releasedEv@Base 4:4.4.4-2~
 _ZN6Plasma10PushButton8setImageERK7QString@Base 4:4.4.4-2~
 _ZN6Plasma10PushButton8setImageERK7QStringS3_@Base 4:4.4.4-2~
 _ZN6Plasma10PushButton9setActionEP7QAction@Base 4:4.4.4-2~
 _ZN6Plasma10PushButtonC1EP15QGraphicsWidget@Base 4:4.4.4-2~
 _ZN6Plasma10PushButtonC2EP15QGraphicsWidget@Base 4:4.4.4-2~
 _ZN6Plasma10PushButtonD0Ev@Base 4:4.4.4-2~
 _ZN6Plasma10PushButtonD1Ev@Base 4:4.4.4-2~
 _ZN6Plasma10PushButtonD2Ev@Base 4:4.4.4-2~
 _ZN6Plasma10QueryMatch10setEnabledEb@Base 4:4.4.4-2~
 _ZN6Plasma10QueryMatch10setSubtextERK7QString@Base 4:4.4.4-2~
 (subst)_ZN6Plasma10QueryMatch12setRelevanceE{qreal}@Base 4:4.4.4-2~
 _ZN6Plasma10QueryMatch17setSelectedActionEP7QAction@Base 4:4.4.4-2~
 _ZN6Plasma10QueryMatch28createConfigurationInterfaceEP7QWidget@Base 4:4.4.4-2~
 _ZN6Plasma10QueryMatch5setIdERK7QString@Base 4:4.4.4-2~
 _ZN6Plasma10QueryMatch7setDataERK8QVariant@Base 4:4.4.4-2~
 _ZN6Plasma10QueryMatch7setIconERK5QIcon@Base 4:4.4.4-2~
 _ZN6Plasma10QueryMatch7setTextERK7QString@Base 4:4.4.4-2~
 _ZN6Plasma10QueryMatch7setTypeENS0_4TypeE@Base 4:4.4.4-2~
 _ZN6Plasma10QueryMatchC1EPNS_14AbstractRunnerE@Base 4:4.4.4-2~
 _ZN6Plasma10QueryMatchC1ERKS0_@Base 4:4.4.4-2~
 _ZN6Plasma10QueryMatchC2EPNS_14AbstractRunnerE@Base 4:4.4.4-2~
 _ZN6Plasma10QueryMatchC2ERKS0_@Base 4:4.4.4-2~
 _ZN6Plasma10QueryMatchD1Ev@Base 4:4.4.4-2~
 _ZN6Plasma10QueryMatchD2Ev@Base 4:4.4.4-2~
 _ZN6Plasma10QueryMatchaSERKS0_@Base 4:4.4.4-2~
 _ZN6Plasma10ServiceJob11qt_metacallEN11QMetaObject4CallEiPPv@Base 4:4.4.4-2~
 _ZN6Plasma10ServiceJob11qt_metacastEPKc@Base 4:4.4.4-2~
 _ZN6Plasma10ServiceJob16staticMetaObjectE@Base 4:4.4.4-2~
 _ZN6Plasma10ServiceJob5startEv@Base 4:4.4.4-2~
 _ZN6Plasma10ServiceJob9setResultERK8QVariant@Base 4:4.4.4-2~
 _ZN6Plasma10ServiceJobC1ERK7QStringS3_RK4QMapIS1_8QVariantEP7QObject@Base 4:4.4.4-2~
 _ZN6Plasma10ServiceJobC2ERK7QStringS3_RK4QMapIS1_8QVariantEP7QObject@Base 4:4.4.4-2~
 _ZN6Plasma10ServiceJobD0Ev@Base 4:4.4.4-2~
 _ZN6Plasma10ServiceJobD1Ev@Base 4:4.4.4-2~
 _ZN6Plasma10ServiceJobD2Ev@Base 4:4.4.4-2~
 _ZN6Plasma10ToolButton10itemChangeEN13QGraphicsItem18GraphicsItemChangeERK8QVariant@Base 4:4.4.95
 _ZN6Plasma10ToolButton10styleSheetEv@Base 4:4.4.4-2~
 _ZN6Plasma10ToolButton11changeEventEP6QEvent@Base 4:4.4.4-2~
 _ZN6Plasma10ToolButton11qt_metacallEN11QMetaObject4CallEiPPv@Base 4:4.4.4-2~
 _ZN6Plasma10ToolButton11qt_metacastEPKc@Base 4:4.4.4-2~
 _ZN6Plasma10ToolButton11resizeEventEP25QGraphicsSceneResizeEvent@Base 4:4.4.4-2~
 _ZN6Plasma10ToolButton12setAutoRaiseEb@Base 4:4.4.4-2~
 _ZN6Plasma10ToolButton13setStyleSheetERK7QString@Base 4:4.4.4-2~
 _ZN6Plasma10ToolButton15hoverEnterEventEP24QGraphicsSceneHoverEvent@Base 4:4.4.4-2~
 _ZN6Plasma10ToolButton15hoverLeaveEventEP24QGraphicsSceneHoverEvent@Base 4:4.4.4-2~
 _ZN6Plasma10ToolButton16staticMetaObjectE@Base 4:4.4.4-2~
 (subst)_ZN6Plasma10ToolButton18setAnimationUpdateE{qreal}@Base 4:4.4.95
 _ZN6Plasma10ToolButton5paintEP8QPainterPK24QStyleOptionGraphicsItemP7QWidget@Base 4:4.4.4-2~
 _ZN6Plasma10ToolButton7clickedEv@Base 4:4.4.4-2~
 _ZN6Plasma10ToolButton7pressedEv@Base 4:4.4.4-2~
 _ZN6Plasma10ToolButton7setDownEb@Base 4:4.4.95
 _ZN6Plasma10ToolButton7setIconERK5QIcon@Base 4:4.4.4-2~
 _ZN6Plasma10ToolButton7setTextERK7QString@Base 4:4.4.4-2~
 _ZN6Plasma10ToolButton8releasedEv@Base 4:4.4.4-2~
 _ZN6Plasma10ToolButton8setImageERK7QString@Base 4:4.4.4-2~
 _ZN6Plasma10ToolButton8setImageERK7QStringS3_@Base 4:4.4.4-2~
 _ZN6Plasma10ToolButton9setActionEP7QAction@Base 4:4.4.4-2~
 _ZN6Plasma10ToolButtonC1EP15QGraphicsWidget@Base 4:4.4.4-2~
 _ZN6Plasma10ToolButtonC2EP15QGraphicsWidget@Base 4:4.4.4-2~
 _ZN6Plasma10ToolButtonD0Ev@Base 4:4.4.4-2~
 _ZN6Plasma10ToolButtonD1Ev@Base 4:4.4.4-2~
 _ZN6Plasma10ToolButtonD2Ev@Base 4:4.4.4-2~
 _ZN6Plasma11Containment10itemChangeEN13QGraphicsItem18GraphicsItemChangeERK8QVariant@Base 4:4.4.4-2~
 _ZN6Plasma11Containment10setToolBoxEPNS_15AbstractToolBoxE@Base 4:4.4.4-2~
 _ZN6Plasma11Containment10wheelEventEP24QGraphicsSceneWheelEvent@Base 4:4.4.4-2~
 _ZN6Plasma11Containment11StyleOptionC1ERK24QStyleOptionGraphicsItem@Base 4:4.4.4-2~
 _ZN6Plasma11Containment11StyleOptionC1ERKS1_@Base 4:4.4.4-2~
 _ZN6Plasma11Containment11StyleOptionC1Ev@Base 4:4.4.4-2~
 _ZN6Plasma11Containment11StyleOptionC2ERK24QStyleOptionGraphicsItem@Base 4:4.4.4-2~
 _ZN6Plasma11Containment11StyleOptionC2ERKS1_@Base 4:4.4.4-2~
 _ZN6Plasma11Containment11StyleOptionC2Ev@Base 4:4.4.4-2~
 _ZN6Plasma11Containment11appletAddedEPNS_6AppletERK7QPointF@Base 4:4.4.4-2~
 _ZN6Plasma11Containment11openToolBoxEv@Base 4:4.4.4-2~
 _ZN6Plasma11Containment11qt_metacallEN11QMetaObject4CallEiPPv@Base 4:4.4.4-2~
 _ZN6Plasma11Containment11qt_metacastEPKc@Base 4:4.4.4-2~
 _ZN6Plasma11Containment11resizeEventEP25QGraphicsSceneResizeEvent@Base 4:4.4.4-2~
 _ZN6Plasma11Containment11setActivityERK7QString@Base 4:4.4.4-2~
 _ZN6Plasma11Containment11setLocationENS_8LocationE@Base 4:4.4.4-2~
 _ZN6Plasma11Containment12clearAppletsEv@Base 4:4.4.4-2~
 _ZN6Plasma11Containment12closeToolBoxEv@Base 4:4.4.4-2~
 _ZN6Plasma11Containment12enableActionERK7QStringb@Base 4:4.4.4-2~
 _ZN6Plasma11Containment12setWallpaperERK7QStringS3_@Base 4:4.4.4-2~
 _ZN6Plasma11Containment12showDropZoneE6QPoint@Base 4:4.4.4-2~
 _ZN6Plasma11Containment13appletRemovedEPNS_6AppletE@Base 4:4.4.4-2~
 _ZN6Plasma11Containment13configChangedEv@Base 4:4.5.86
 _ZN6Plasma11Containment13dragMoveEventEP27QGraphicsSceneDragDropEvent@Base 4:4.4.4-2~
 _ZN6Plasma11Containment13drawWallpaperEv@Base 4:4.4.4-2~
 _ZN6Plasma11Containment13keyPressEventEP9QKeyEvent@Base 4:4.4.4-2~
 _ZN6Plasma11Containment13screenChangedEiiPS0_@Base 4:4.4.4-2~
 _ZN6Plasma11Containment13setFormFactorENS_10FormFactorE@Base 4:4.4.4-2~
 _ZN6Plasma11Containment13zoomRequestedEPS0_NS_13ZoomDirectionE@Base 4:4.4.4-2~
 _ZN6Plasma11Containment14contextChangedEPNS_7ContextE@Base 4:4.4.4-2~
 _ZN6Plasma11Containment14dragEnterEventEP27QGraphicsSceneDragDropEvent@Base 4:4.4.4-2~
 _ZN6Plasma11Containment14dragLeaveEventEP27QGraphicsSceneDragDropEvent@Base 4:4.4.4-2~
 _ZN6Plasma11Containment14mouseMoveEventEP24QGraphicsSceneMouseEvent@Base 4:4.4.4-2~
 _ZN6Plasma11Containment14setToolBoxOpenEb@Base 4:4.4.4-2~
 _ZN6Plasma11Containment14toolBoxToggledEv@Base 4:4.4.4-2~
 _ZN6Plasma11Containment15focusNextAppletEv@Base 4:4.4.4-2~
 _ZN6Plasma11Containment15mousePressEventEP24QGraphicsSceneMouseEvent@Base 4:4.4.4-2~
 _ZN6Plasma11Containment15restoreContentsER12KConfigGroup@Base 4:4.4.4-2~
 _ZN6Plasma11Containment15showContextMenuERK7QPointFRK6QPoint@Base 4:4.4.4-2~
 _ZN6Plasma11Containment16addToolBoxActionEP7QAction@Base 4:4.4.4-2~
 _ZN6Plasma11Containment16contextMenuEventEP30QGraphicsSceneContextMenuEvent@Base 4:4.4.4-2~
 _ZN6Plasma11Containment16listContainmentsERK7QStringS3_@Base 4:4.4.4-2~
 _ZN6Plasma11Containment16sceneEventFilterEP13QGraphicsItemP6QEvent@Base 4:4.4.4-2~
 _ZN6Plasma11Containment16setDrawWallpaperEb@Base 4:4.4.4-2~
 _ZN6Plasma11Containment16staticMetaObjectE@Base 4:4.4.4-2~
 _ZN6Plasma11Containment17mouseReleaseEventEP24QGraphicsSceneMouseEvent@Base 4:4.4.4-2~
 _ZN6Plasma11Containment18configureRequestedEPS0_@Base 4:4.4.4-2~
 _ZN6Plasma11Containment18containmentActionsERK7QString@Base 4:4.4.4-2~
 _ZN6Plasma11Containment18setContainmentTypeENS0_4TypeE@Base 4:4.4.4-2~
 _ZN6Plasma11Containment19addAssociatedWidgetEP7QWidget@Base 4:4.4.4-2~
 _ZN6Plasma11Containment19focusPreviousAppletEv@Base 4:4.4.4-2~
 _ZN6Plasma11Containment19removeToolBoxActionEP7QAction@Base 4:4.4.4-2~
 _ZN6Plasma11Containment20listContainmentTypesEv@Base 4:4.4.4-2~
 _ZN6Plasma11Containment21addSiblingContainmentEPS0_@Base 4:4.4.4-2~
 _ZN6Plasma11Containment21addSiblingContainmentEv@Base 4:4.4.4-2~
 _ZN6Plasma11Containment21setContainmentActionsERK7QStringS3_@Base 4:4.4.4-2~
 _ZN6Plasma11Containment22listContainmentsOfTypeERK7QStringS3_S3_@Base 4:4.4.4-2~
 _ZN6Plasma11Containment22removeAssociatedWidgetEP7QWidget@Base 4:4.4.4-2~
 _ZN6Plasma11Containment23showAddWidgetsInterfaceERK7QPointF@Base 4:4.4.4-2~
 _ZN6Plasma11Containment24containmentActionsConfigEv@Base 4:4.5.86
 _ZN6Plasma11Containment24toolBoxVisibilityChangedEb@Base 4:4.4.4-2~
 _ZN6Plasma11Containment26containmentActionsTriggersEv@Base 4:4.4.4-2~
 _ZN6Plasma11Containment26showConfigurationInterfaceEv@Base 4:4.4.4-2~
 _ZN6Plasma11Containment27listContainmentsForMimetypeERK7QString@Base 4:4.4.4-2~
 _ZN6Plasma11Containment4initEv@Base 4:4.4.4-2~
 _ZN6Plasma11Containment7destroyEb@Base 4:4.4.4-2~
 _ZN6Plasma11Containment7destroyEv@Base 4:4.4.4-2~
 _ZN6Plasma11Containment7restoreER12KConfigGroup@Base 4:4.4.4-2~
 _ZN6Plasma11Containment9addAppletEPNS_6AppletERK7QPointFb@Base 4:4.4.4-2~
 _ZN6Plasma11Containment9addAppletERK7QStringRK5QListI8QVariantERK6QRectF@Base 4:4.4.4-2~
 _ZN6Plasma11Containment9dropEventEP27QGraphicsSceneDragDropEvent@Base 4:4.4.4-2~
 _ZN6Plasma11Containment9setScreenEii@Base 4:4.4.4-2~
 _ZN6Plasma11ContainmentC1EP13QGraphicsItemRK7QStringj@Base 4:4.4.4-2~
 _ZN6Plasma11ContainmentC1EP7QObjectRK5QListI8QVariantE@Base 4:4.4.4-2~
 _ZN6Plasma11ContainmentC1ERK7QStringjRK5QListI8QVariantE@Base 4:4.4.4-2~
 _ZN6Plasma11ContainmentC2EP13QGraphicsItemRK7QStringj@Base 4:4.4.4-2~
 _ZN6Plasma11ContainmentC2EP7QObjectRK5QListI8QVariantE@Base 4:4.4.4-2~
 _ZN6Plasma11ContainmentC2ERK7QStringjRK5QListI8QVariantE@Base 4:4.4.4-2~
 _ZN6Plasma11ContainmentD0Ev@Base 4:4.4.4-2~
 _ZN6Plasma11ContainmentD1Ev@Base 4:4.4.4-2~
 _ZN6Plasma11ContainmentD2Ev@Base 4:4.4.4-2~
 _ZN6Plasma11PopupApplet10popupEventEb@Base 4:4.4.4-2~
 _ZN6Plasma11PopupApplet10timerEventEP11QTimerEvent@Base 4:4.5.90
 _ZN6Plasma11PopupApplet11eventFilterEP7QObjectP6QEvent@Base 4:4.4.4-2~
 _ZN6Plasma11PopupApplet11qt_metacallEN11QMetaObject4CallEiPPv@Base 4:4.4.4-2~
 _ZN6Plasma11PopupApplet11qt_metacastEPKc@Base 4:4.4.4-2~
 _ZN6Plasma11PopupApplet11togglePopupEv@Base 4:4.4.4-2~
 _ZN6Plasma11PopupApplet12setPopupIconERK5QIcon@Base 4:4.4.4-2~
 _ZN6Plasma11PopupApplet12setPopupIconERK7QString@Base 4:4.4.4-2~
 _ZN6Plasma11PopupApplet14dragEnterEventEP27QGraphicsSceneDragDropEvent@Base 4:4.4.4-2~
 _ZN6Plasma11PopupApplet14dragLeaveEventEP27QGraphicsSceneDragDropEvent@Base 4:4.4.4-2~
 _ZN6Plasma11PopupApplet14graphicsWidgetEv@Base 4:4.4.4-2~
 _ZN6Plasma11PopupApplet15mousePressEventEP24QGraphicsSceneMouseEvent@Base 4:4.4.4-2~
 _ZN6Plasma11PopupApplet15setPassivePopupEb@Base 4:4.4.4-2~
 _ZN6Plasma11PopupApplet16staticMetaObjectE@Base 4:4.4.4-2~
 _ZN6Plasma11PopupApplet17mouseReleaseEventEP24QGraphicsSceneMouseEvent@Base 4:4.4.4-2~
 _ZN6Plasma11PopupApplet17setGraphicsWidgetEP15QGraphicsWidget@Base 4:4.4.4-2~
 _ZN6Plasma11PopupApplet17setPopupAlignmentEN2Qt13AlignmentFlagE@Base 4:4.5.86
 _ZN6Plasma11PopupApplet6widgetEv@Base 4:4.4.4-2~
 _ZN6Plasma11PopupApplet9dropEventEP27QGraphicsSceneDragDropEvent@Base 4:4.4.4-2~
 _ZN6Plasma11PopupApplet9hidePopupEv@Base 4:4.4.4-2~
 _ZN6Plasma11PopupApplet9setWidgetEP7QWidget@Base 4:4.4.4-2~
 _ZN6Plasma11PopupApplet9showPopupEj@Base 4:4.4.4-2~
 _ZN6Plasma11PopupAppletC1EP7QObjectRK5QListI8QVariantE@Base 4:4.4.4-2~
 _ZN6Plasma11PopupAppletC1ERK7QStringjRK5QListI8QVariantE@Base 4:4.4.4-2~
 _ZN6Plasma11PopupAppletC2EP7QObjectRK5QListI8QVariantE@Base 4:4.4.4-2~
 _ZN6Plasma11PopupAppletC2ERK7QStringjRK5QListI8QVariantE@Base 4:4.4.4-2~
 _ZN6Plasma11PopupAppletD0Ev@Base 4:4.4.4-2~
 _ZN6Plasma11PopupAppletD1Ev@Base 4:4.4.4-2~
 _ZN6Plasma11PopupAppletD2Ev@Base 4:4.4.4-2~
 _ZN6Plasma11RadioButton10setCheckedEb@Base 4:4.4.4-2~
 _ZN6Plasma11RadioButton10styleSheetEv@Base 4:4.4.4-2~
 _ZN6Plasma11RadioButton11changeEventEP6QEvent@Base 4:4.4.4-2~
 _ZN6Plasma11RadioButton11qt_metacallEN11QMetaObject4CallEiPPv@Base 4:4.4.4-2~
 _ZN6Plasma11RadioButton11qt_metacastEPKc@Base 4:4.4.4-2~
 _ZN6Plasma11RadioButton11resizeEventEP25QGraphicsSceneResizeEvent@Base 4:4.4.4-2~
 _ZN6Plasma11RadioButton13setStyleSheetERK7QString@Base 4:4.4.4-2~
 _ZN6Plasma11RadioButton16staticMetaObjectE@Base 4:4.4.4-2~
 _ZN6Plasma11RadioButton7setTextERK7QString@Base 4:4.4.4-2~
 _ZN6Plasma11RadioButton7toggledEb@Base 4:4.4.4-2~
 _ZN6Plasma11RadioButton8setImageERK7QString@Base 4:4.4.4-2~
 _ZN6Plasma11RadioButtonC1EP15QGraphicsWidget@Base 4:4.4.4-2~
 _ZN6Plasma11RadioButtonC2EP15QGraphicsWidget@Base 4:4.4.4-2~
 _ZN6Plasma11RadioButtonD0Ev@Base 4:4.4.4-2~
 _ZN6Plasma11RadioButtonD1Ev@Base 4:4.4.4-2~
 _ZN6Plasma11RadioButtonD2Ev@Base 4:4.4.4-2~
 _ZN6Plasma11TextBrowser10styleSheetEv@Base 4:4.4.4-2~
 _ZN6Plasma11TextBrowser10wheelEventEP24QGraphicsSceneWheelEvent@Base 4:4.4.4-2~
 _ZN6Plasma11TextBrowser11changeEventEP6QEvent@Base 4:4.4.4-2~
 _ZN6Plasma11TextBrowser11dataUpdatedERK7QStringRK5QHashIS1_8QVariantE@Base 4:4.4.4-2~
 _ZN6Plasma11TextBrowser11qt_metacallEN11QMetaObject4CallEiPPv@Base 4:4.4.4-2~
 _ZN6Plasma11TextBrowser11qt_metacastEPKc@Base 4:4.4.4-2~
 _ZN6Plasma11TextBrowser11resizeEventEP25QGraphicsSceneResizeEvent@Base 4:4.4.4-2~
 _ZN6Plasma11TextBrowser11textChangedEv@Base 4:4.4.4-2~
 _ZN6Plasma11TextBrowser13setStyleSheetERK7QString@Base 4:4.4.4-2~
 _ZN6Plasma11TextBrowser16contextMenuEventEP30QGraphicsSceneContextMenuEvent@Base 4:4.4.4-2~
 _ZN6Plasma11TextBrowser16staticMetaObjectE@Base 4:4.4.4-2~
 _ZN6Plasma11TextBrowser26setVerticalScrollBarPolicyEN2Qt15ScrollBarPolicyE@Base 4:4.4.4-2~
 _ZN6Plasma11TextBrowser28setHorizontalScrollBarPolicyEN2Qt15ScrollBarPolicyE@Base 4:4.4.4-2~
 _ZN6Plasma11TextBrowser6appendERK7QString@Base 4:4.4.4-2~
 _ZN6Plasma11TextBrowser7setTextERK7QString@Base 4:4.4.4-2~
 _ZN6Plasma11TextBrowserC1EP15QGraphicsWidget@Base 4:4.4.4-2~
 _ZN6Plasma11TextBrowserC2EP15QGraphicsWidget@Base 4:4.4.4-2~
 _ZN6Plasma11TextBrowserD0Ev@Base 4:4.4.4-2~
 _ZN6Plasma11TextBrowserD1Ev@Base 4:4.4.4-2~
 _ZN6Plasma11TextBrowserD2Ev@Base 4:4.4.4-2~
 _ZN6Plasma11VideoWidget10styleSheetEv@Base 4:4.4.4-2~
 _ZN6Plasma11VideoWidget11qt_metacallEN11QMetaObject4CallEiPPv@Base 4:4.4.4-2~
 _ZN6Plasma11VideoWidget11qt_metacastEPKc@Base 4:4.4.4-2~
 _ZN6Plasma11VideoWidget11resizeEventEP25QGraphicsSceneResizeEvent@Base 4:4.4.4-2~
 _ZN6Plasma11VideoWidget13aboutToFinishEv@Base 4:4.4.4-2~
 _ZN6Plasma11VideoWidget13nextRequestedEv@Base 4:4.4.4-2~
 _ZN6Plasma11VideoWidget13setStyleSheetERK7QString@Base 4:4.4.4-2~
 _ZN6Plasma11VideoWidget14hoverMoveEventEP24QGraphicsSceneHoverEvent@Base 4:4.4.4-2~
 _ZN6Plasma11VideoWidget15hoverEnterEventEP24QGraphicsSceneHoverEvent@Base 4:4.4.4-2~
 _ZN6Plasma11VideoWidget15hoverLeaveEventEP24QGraphicsSceneHoverEvent@Base 4:4.4.4-2~
 _ZN6Plasma11VideoWidget15setTickIntervalEx@Base 4:4.7.1
 _ZN6Plasma11VideoWidget15setUsedControlsE6QFlagsINS0_7ControlEE@Base 4:4.4.4-2~
 _ZN6Plasma11VideoWidget16staticMetaObjectE@Base 4:4.4.4-2~
 _ZN6Plasma11VideoWidget17previousRequestedEv@Base 4:4.4.4-2~
 _ZN6Plasma11VideoWidget18setControlsVisibleEb@Base 4:4.4.4-2~
 _ZN6Plasma11VideoWidget4playEv@Base 4:4.4.4-2~
 _ZN6Plasma11VideoWidget4seekEx@Base 4:4.4.4-2~
 _ZN6Plasma11VideoWidget4stopEv@Base 4:4.4.4-2~
 _ZN6Plasma11VideoWidget4tickEx@Base 4:4.4.4-2~
 _ZN6Plasma11VideoWidget5pauseEv@Base 4:4.4.4-2~
 _ZN6Plasma11VideoWidget6setUrlERK7QString@Base 4:4.4.4-2~
 _ZN6Plasma11VideoWidgetC1EP15QGraphicsWidget@Base 4:4.4.4-2~
 _ZN6Plasma11VideoWidgetC2EP15QGraphicsWidget@Base 4:4.4.4-2~
 _ZN6Plasma11VideoWidgetD0Ev@Base 4:4.4.4-2~
 _ZN6Plasma11VideoWidgetD1Ev@Base 4:4.4.4-2~
 _ZN6Plasma11VideoWidgetD2Ev@Base 4:4.4.4-2~
 _ZN6Plasma12AppletScript11qt_metacallEN11QMetaObject4CallEiPPv@Base 4:4.4.4-2~
 _ZN6Plasma12AppletScript11qt_metacastEPKc@Base 4:4.4.4-2~
 _ZN6Plasma12AppletScript11showMessageERK5QIconRK7QString6QFlagsINS_13MessageButtonEE@Base 4:4.4.4-2~
 _ZN6Plasma12AppletScript13configChangedEv@Base 4:4.4.4-2~
 _ZN6Plasma12AppletScript14paintInterfaceEP8QPainterPK24QStyleOptionGraphicsItemRK5QRect@Base 4:4.4.4-2~
 _ZN6Plasma12AppletScript16constraintsEventE6QFlagsINS_10ConstraintEE@Base 4:4.4.4-2~
 _ZN6Plasma12AppletScript16setDrawWallpaperEb@Base 4:4.7.0
 _ZN6Plasma12AppletScript16staticMetaObjectE@Base 4:4.4.4-2~
 _ZN6Plasma12AppletScript17contextualActionsEv@Base 4:4.4.4-2~
 _ZN6Plasma12AppletScript17setFailedToLaunchEbRK7QString@Base 4:4.4.4-2~
 _ZN6Plasma12AppletScript18setContainmentTypeENS_11Containment4TypeE@Base 4:4.7.0
 _ZN6Plasma12AppletScript20registerAsDragHandleEP13QGraphicsItem@Base 4:4.4.4-2~
 _ZN6Plasma12AppletScript22unregisterAsDragHandleEP13QGraphicsItem@Base 4:4.4.4-2~
 _ZN6Plasma12AppletScript24isRegisteredAsDragHandleEP13QGraphicsItem@Base 4:4.4.4-2~
 _ZN6Plasma12AppletScript24loadAnimationFromPackageERK7QStringP7QObject@Base 4:4.4.95
 _ZN6Plasma12AppletScript24setConfigurationRequiredEbRK7QString@Base 4:4.4.4-2~
 _ZN6Plasma12AppletScript26showConfigurationInterfaceEv@Base 4:4.4.4-2~
 _ZN6Plasma12AppletScript27standardConfigurationDialogEv@Base 4:4.4.4-2~
 _ZN6Plasma12AppletScript28setHasConfigurationInterfaceEb@Base 4:4.4.4-2~
 _ZN6Plasma12AppletScript29addStandardConfigurationPagesEP13KConfigDialog@Base 4:4.4.4-2~
 _ZN6Plasma12AppletScript9setAppletEPNS_6AppletE@Base 4:4.4.4-2~
 _ZN6Plasma12AppletScriptC1EP7QObject@Base 4:4.4.4-2~
 _ZN6Plasma12AppletScriptC2EP7QObject@Base 4:4.4.4-2~
 _ZN6Plasma12AppletScriptD0Ev@Base 4:4.4.4-2~
 _ZN6Plasma12AppletScriptD1Ev@Base 4:4.4.4-2~
 _ZN6Plasma12AppletScriptD2Ev@Base 4:4.4.4-2~
 _ZN6Plasma12ConfigLoader14findItemByNameERK7QString@Base 4:4.4.4-2~
 _ZN6Plasma12ConfigLoader14usrWriteConfigEv@Base 4:4.4.4-2~
 _ZN6Plasma12ConfigLoader8findItemERK7QStringS3_@Base 4:4.4.4-2~
 _ZN6Plasma12ConfigLoader8propertyERK7QString@Base 4:4.4.4-2~
 _ZN6Plasma12ConfigLoaderC1E10KSharedPtrI13KSharedConfigEP9QIODeviceP7QObject@Base 4:4.4.4-2~
 _ZN6Plasma12ConfigLoaderC1EPK12KConfigGroupP9QIODeviceP7QObject@Base 4:4.4.4-2~
 _ZN6Plasma12ConfigLoaderC1ERK7QStringP9QIODeviceP7QObject@Base 4:4.4.4-2~
 _ZN6Plasma12ConfigLoaderC2E10KSharedPtrI13KSharedConfigEP9QIODeviceP7QObject@Base 4:4.4.4-2~
 _ZN6Plasma12ConfigLoaderC2EPK12KConfigGroupP9QIODeviceP7QObject@Base 4:4.4.4-2~
 _ZN6Plasma12ConfigLoaderC2ERK7QStringP9QIODeviceP7QObject@Base 4:4.4.4-2~
 _ZN6Plasma12ConfigLoaderD0Ev@Base 4:4.4.4-2~
 _ZN6Plasma12ConfigLoaderD1Ev@Base 4:4.4.4-2~
 _ZN6Plasma12ConfigLoaderD2Ev@Base 4:4.4.4-2~
 _ZN6Plasma12ExtenderItem11qt_metacallEN11QMetaObject4CallEiPPv@Base 4:4.4.4-2~
 _ZN6Plasma12ExtenderItem11qt_metacastEPKc@Base 4:4.4.4-2~
 _ZN6Plasma12ExtenderItem11resizeEventEP25QGraphicsSceneResizeEvent@Base 4:4.4.4-2~
 _ZN6Plasma12ExtenderItem11setExtenderEPNS_8ExtenderERK7QPointF@Base 4:4.4.4-2~
 _ZN6Plasma12ExtenderItem12setCollapsedEb@Base 4:4.4.4-2~
 _ZN6Plasma12ExtenderItem12setTransientEb@Base 4:4.5.86
 _ZN6Plasma12ExtenderItem14hoverMoveEventEP24QGraphicsSceneHoverEvent@Base 4:4.4.4-2~
 _ZN6Plasma12ExtenderItem14mouseMoveEventEP24QGraphicsSceneMouseEvent@Base 4:4.4.4-2~
 _ZN6Plasma12ExtenderItem14returnToSourceEv@Base 4:4.4.4-2~
 _ZN6Plasma12ExtenderItem15hideCloseButtonEv@Base 4:4.4.4-2~
 _ZN6Plasma12ExtenderItem15hoverLeaveEventEP24QGraphicsSceneHoverEvent@Base 4:4.4.4-2~
 _ZN6Plasma12ExtenderItem15mousePressEventEP24QGraphicsSceneMouseEvent@Base 4:4.4.4-2~
 _ZN6Plasma12ExtenderItem15showCloseButtonEv@Base 4:4.4.4-2~
 _ZN6Plasma12ExtenderItem16sceneEventFilterEP13QGraphicsItemP6QEvent@Base 4:4.4.4-2~
 _ZN6Plasma12ExtenderItem16staticMetaObjectE@Base 4:4.4.4-2~
 _ZN6Plasma12ExtenderItem17mouseReleaseEventEP24QGraphicsSceneMouseEvent@Base 4:4.4.4-2~
 _ZN6Plasma12ExtenderItem18setAutoExpireDelayEj@Base 4:4.4.4-2~
 _ZN6Plasma12ExtenderItem21mouseDoubleClickEventEP24QGraphicsSceneMouseEvent@Base 4:4.4.4-2~
 _ZN6Plasma12ExtenderItem5paintEP8QPainterPK24QStyleOptionGraphicsItemP7QWidget@Base 4:4.4.4-2~
 _ZN6Plasma12ExtenderItem7destroyEv@Base 4:4.4.4-2~
 _ZN6Plasma12ExtenderItem7setIconERK5QIcon@Base 4:4.4.4-2~
 _ZN6Plasma12ExtenderItem7setIconERK7QString@Base 4:4.4.4-2~
 _ZN6Plasma12ExtenderItem7setNameERK7QString@Base 4:4.4.4-2~
 _ZN6Plasma12ExtenderItem8setGroupEPNS_13ExtenderGroupE@Base 4:4.4.4-2~
 _ZN6Plasma12ExtenderItem8setGroupEPNS_13ExtenderGroupERK7QPointF@Base 4:4.4.95
 _ZN6Plasma12ExtenderItem8setTitleERK7QString@Base 4:4.4.4-2~
 _ZN6Plasma12ExtenderItem9addActionERK7QStringP7QAction@Base 4:4.4.4-2~
 _ZN6Plasma12ExtenderItem9destroyedEPS0_@Base 4:4.4.4-2~
 _ZN6Plasma12ExtenderItem9moveEventEP23QGraphicsSceneMoveEvent@Base 4:4.4.4-2~
 _ZN6Plasma12ExtenderItem9setWidgetEP13QGraphicsItem@Base 4:4.4.4-2~
 _ZN6Plasma12ExtenderItemC1EPNS_8ExtenderEj@Base 4:4.4.4-2~
 _ZN6Plasma12ExtenderItemC2EPNS_8ExtenderEj@Base 4:4.4.4-2~
 _ZN6Plasma12ExtenderItemD0Ev@Base 4:4.4.4-2~
 _ZN6Plasma12ExtenderItemD1Ev@Base 4:4.4.4-2~
 _ZN6Plasma12ExtenderItemD2Ev@Base 4:4.4.4-2~
 _ZN6Plasma12PluginLoader10loadAppletERK7QStringjRK5QListI8QVariantE@Base 4:4.5.86
 _ZN6Plasma12PluginLoader10loadRunnerERK7QString@Base 4:4.5.86
 _ZN6Plasma12PluginLoader11loadServiceERK7QStringRK5QListI8QVariantEP7QObject@Base 4:4.5.86
 _ZN6Plasma12PluginLoader12pluginLoaderEv@Base 4:4.5.86
 _ZN6Plasma12PluginLoader14listAppletInfoERK7QStringS3_@Base 4:4.5.86
 _ZN6Plasma12PluginLoader14listRunnerInfoERK7QString@Base 4:4.5.86
 _ZN6Plasma12PluginLoader14loadDataEngineERK7QString@Base 4:4.5.86
 _ZN6Plasma12PluginLoader15setPluginLoaderEPS0_@Base 4:4.5.86
 _ZN6Plasma12PluginLoader18internalLoadAppletERK7QStringjRK5QListI8QVariantE@Base 4:4.5.86
 _ZN6Plasma12PluginLoader18internalLoadRunnerERK7QString@Base 4:4.5.86
 _ZN6Plasma12PluginLoader18listDataEngineInfoERK7QString@Base 4:4.5.86
 _ZN6Plasma12PluginLoader19internalLoadServiceERK7QStringRK5QListI8QVariantEP7QObject@Base 4:4.5.86
 _ZN6Plasma12PluginLoader22internalLoadDataEngineERK7QString@Base 4:4.5.86
 _ZN6Plasma12PluginLoaderC1Ev@Base 4:4.5.86
 _ZN6Plasma12PluginLoaderC2Ev@Base 4:4.5.86
 _ZN6Plasma12PluginLoaderD0Ev@Base 4:4.5.86
 _ZN6Plasma12PluginLoaderD1Ev@Base 4:4.5.86
 _ZN6Plasma12PluginLoaderD2Ev@Base 4:4.5.86
 _ZN6Plasma12RunnerScript10dataEngineERK7QString@Base 4:4.4.4-2~
 _ZN6Plasma12RunnerScript11qt_metacallEN11QMetaObject4CallEiPPv@Base 4:4.4.4-2~
 _ZN6Plasma12RunnerScript11qt_metacastEPKc@Base 4:4.4.4-2~
 _ZN6Plasma12RunnerScript11setPriorityENS_14AbstractRunner8PriorityE@Base 4:4.4.4-2~
 _ZN6Plasma12RunnerScript11setSyntaxesERK5QListINS_12RunnerSyntaxEE@Base 4:4.4.4-2~
 _ZN6Plasma12RunnerScript12clearActionsEv@Base 4:4.4.4-2~
 _ZN6Plasma12RunnerScript12removeActionERK7QString@Base 4:4.4.4-2~
 _ZN6Plasma12RunnerScript15actionsForMatchERKNS_10QueryMatchEP5QListIP7QActionE@Base 4:4.4.4-2~
 _ZN6Plasma12RunnerScript15setIgnoredTypesE6QFlagsINS_13RunnerContext4TypeEE@Base 4:4.4.4-2~
 _ZN6Plasma12RunnerScript16createRunOptionsEP7QWidget@Base 4:4.4.4-2~
 _ZN6Plasma12RunnerScript16setHasRunOptionsEb@Base 4:4.4.4-2~
 _ZN6Plasma12RunnerScript16staticMetaObjectE@Base 4:4.4.4-2~
 _ZN6Plasma12RunnerScript19reloadConfigurationEv@Base 4:4.4.4-2~
 _ZN6Plasma12RunnerScript3runERKNS_13RunnerContextERKNS_10QueryMatchE@Base 4:4.4.4-2~
 _ZN6Plasma12RunnerScript5matchERNS_13RunnerContextE@Base 4:4.4.4-2~
 _ZN6Plasma12RunnerScript7prepareEv@Base 4:4.4.4-2~
 _ZN6Plasma12RunnerScript8setSpeedENS_14AbstractRunner5SpeedE@Base 4:4.4.4-2~
 _ZN6Plasma12RunnerScript8teardownEv@Base 4:4.4.4-2~
 _ZN6Plasma12RunnerScript9addActionERK7QStringP7QAction@Base 4:4.4.4-2~
 _ZN6Plasma12RunnerScript9addActionERK7QStringRK5QIconS3_@Base 4:4.4.4-2~
 _ZN6Plasma12RunnerScript9addSyntaxERKNS_12RunnerSyntaxE@Base 4:4.4.4-2~
 _ZN6Plasma12RunnerScript9setRunnerEPNS_14AbstractRunnerE@Base 4:4.4.4-2~
 _ZN6Plasma12RunnerScriptC1EP7QObject@Base 4:4.4.4-2~
 _ZN6Plasma12RunnerScriptC2EP7QObject@Base 4:4.4.4-2~
 _ZN6Plasma12RunnerScriptD0Ev@Base 4:4.4.4-2~
 _ZN6Plasma12RunnerScriptD1Ev@Base 4:4.4.4-2~
 _ZN6Plasma12RunnerScriptD2Ev@Base 4:4.4.4-2~
 _ZN6Plasma12RunnerSyntax14setDescriptionERK7QString@Base 4:4.4.4-2~
 _ZN6Plasma12RunnerSyntax15addExampleQueryERK7QString@Base 4:4.4.4-2~
 _ZN6Plasma12RunnerSyntax24setSearchTermDescriptionERK7QString@Base 4:4.4.4-2~
 _ZN6Plasma12RunnerSyntaxC1ERK7QStringS3_@Base 4:4.4.4-2~
 _ZN6Plasma12RunnerSyntaxC1ERKS0_@Base 4:4.4.4-2~
 _ZN6Plasma12RunnerSyntaxC2ERK7QStringS3_@Base 4:4.4.4-2~
 _ZN6Plasma12RunnerSyntaxC2ERKS0_@Base 4:4.4.4-2~
 _ZN6Plasma12RunnerSyntaxD1Ev@Base 4:4.4.4-2~
 _ZN6Plasma12RunnerSyntaxD2Ev@Base 4:4.4.4-2~
 _ZN6Plasma12RunnerSyntaxaSERKS0_@Base 4:4.4.4-2~
 _ZN6Plasma12ScriptEngine11qt_metacallEN11QMetaObject4CallEiPPv@Base 4:4.4.4-2~
 _ZN6Plasma12ScriptEngine11qt_metacastEPKc@Base 4:4.4.4-2~
 _ZN6Plasma12ScriptEngine16staticMetaObjectE@Base 4:4.4.4-2~
 _ZN6Plasma12ScriptEngine4initEv@Base 4:4.4.4-2~
 _ZN6Plasma12ScriptEngineC1EP7QObject@Base 4:4.4.4-2~
 _ZN6Plasma12ScriptEngineC2EP7QObject@Base 4:4.4.4-2~
 _ZN6Plasma12ScriptEngineD0Ev@Base 4:4.4.4-2~
 _ZN6Plasma12ScriptEngineD1Ev@Base 4:4.4.4-2~
 _ZN6Plasma12ScriptEngineD2Ev@Base 4:4.4.4-2~
 _ZN6Plasma12ScrollWidget10wheelEventEP24QGraphicsSceneWheelEvent@Base 4:4.4.4-2~
 _ZN6Plasma12ScrollWidget11eventFilterEP7QObjectP6QEvent@Base 4:4.4.4-2~
 _ZN6Plasma12ScrollWidget11qt_metacallEN11QMetaObject4CallEiPPv@Base 4:4.4.4-2~
 _ZN6Plasma12ScrollWidget11qt_metacastEPKc@Base 4:4.4.4-2~
 _ZN6Plasma12ScrollWidget11resizeEventEP25QGraphicsSceneResizeEvent@Base 4:4.4.4-2~
 _ZN6Plasma12ScrollWidget11setSnapSizeERK6QSizeF@Base 4:4.4.95
 _ZN6Plasma12ScrollWidget12focusInEventEP11QFocusEvent@Base 4:4.4.4-2~
 _ZN6Plasma12ScrollWidget12setAlignmentE6QFlagsIN2Qt13AlignmentFlagEE@Base 4:4.4.95
 _ZN6Plasma12ScrollWidget12setOverShootEb@Base 4:4.4.95
 _ZN6Plasma12ScrollWidget13keyPressEventEP9QKeyEvent@Base 4:4.4.95
 _ZN6Plasma12ScrollWidget13setStyleSheetERK7QString@Base 4:4.4.4-2~
 _ZN6Plasma12ScrollWidget14mouseMoveEventEP24QGraphicsSceneMouseEvent@Base 4:4.4.4-2~
 _ZN6Plasma12ScrollWidget15mousePressEventEP24QGraphicsSceneMouseEvent@Base 4:4.4.4-2~
 _ZN6Plasma12ScrollWidget16sceneEventFilterEP13QGraphicsItemP6QEvent@Base 4:4.4.95
 _ZN6Plasma12ScrollWidget16staticMetaObjectE@Base 4:4.4.4-2~
 _ZN6Plasma12ScrollWidget17ensureItemVisibleEP13QGraphicsItem@Base 4:4.4.4-2~
 _ZN6Plasma12ScrollWidget17ensureRectVisibleERK6QRectF@Base 4:4.4.4-2~
 _ZN6Plasma12ScrollWidget17mouseReleaseEventEP24QGraphicsSceneMouseEvent@Base 4:4.4.4-2~
 _ZN6Plasma12ScrollWidget17setScrollPositionERK7QPointF@Base 4:4.4.4-2~
 _ZN6Plasma12ScrollWidget18scrollStateChangedEN18QAbstractAnimation5StateES2_@Base 4:4.4.4-2~
 _ZN6Plasma12ScrollWidget20registerAsDragHandleEP15QGraphicsWidget@Base 4:4.4.4-2~
 _ZN6Plasma12ScrollWidget22unregisterAsDragHandleEP15QGraphicsWidget@Base 4:4.4.4-2~
 _ZN6Plasma12ScrollWidget23viewportGeometryChangedERK6QRectF@Base 4:4.4.95
 _ZN6Plasma12ScrollWidget25setOverflowBordersVisibleEb@Base 4:4.5.86
 _ZN6Plasma12ScrollWidget26setVerticalScrollBarPolicyEN2Qt15ScrollBarPolicyE@Base 4:4.4.4-2~
 _ZN6Plasma12ScrollWidget28setHorizontalScrollBarPolicyEN2Qt15ScrollBarPolicyE@Base 4:4.4.4-2~
 _ZN6Plasma12ScrollWidget9setWidgetEP15QGraphicsWidget@Base 4:4.4.4-2~
 _ZN6Plasma12ScrollWidgetC1EP13QGraphicsItem@Base 4:4.4.4-2~
 _ZN6Plasma12ScrollWidgetC1EP15QGraphicsWidget@Base 4:4.4.4-2~
 _ZN6Plasma12ScrollWidgetC2EP13QGraphicsItem@Base 4:4.4.4-2~
 _ZN6Plasma12ScrollWidgetC2EP15QGraphicsWidget@Base 4:4.4.4-2~
 _ZN6Plasma12ScrollWidgetD0Ev@Base 4:4.4.4-2~
 _ZN6Plasma12ScrollWidgetD1Ev@Base 4:4.4.4-2~
 _ZN6Plasma12ScrollWidgetD2Ev@Base 4:4.4.4-2~
 _ZN6Plasma12versionMajorEv@Base 4:4.4.4-2~
 _ZN6Plasma12versionMinorEv@Base 4:4.4.4-2~
 _ZN6Plasma13AccessManager11qt_metacallEN11QMetaObject4CallEiPPv@Base 4:4.4.4-2~
 _ZN6Plasma13AccessManager11qt_metacastEPKc@Base 4:4.4.4-2~
 _ZN6Plasma13AccessManager16staticMetaObjectE@Base 4:4.4.4-2~
 _ZN6Plasma13AccessManager18supportedProtocolsEv@Base 4:4.4.4-2~
 _ZN6Plasma13AccessManager21remoteAppletAnnouncedENS_15PackageMetadataE@Base 4:4.4.4-2~
 _ZN6Plasma13AccessManager23remoteAppletUnannouncedENS_15PackageMetadataE@Base 4:4.4.4-2~
 _ZN6Plasma13AccessManager4selfEv@Base 4:4.4.4-2~
 _ZN6Plasma13AccessManager8finishedEPNS_15AccessAppletJobE@Base 4:4.4.4-2~
 _ZN6Plasma13AccessManagerC1Ev@Base 4:4.4.4-2~
 _ZN6Plasma13AccessManagerC2Ev@Base 4:4.4.4-2~
 _ZN6Plasma13AccessManagerD0Ev@Base 4:4.4.4-2~
 _ZN6Plasma13AccessManagerD1Ev@Base 4:4.4.4-2~
 _ZN6Plasma13AccessManagerD2Ev@Base 4:4.4.4-2~
 _ZN6Plasma13DataContainer10checkUsageEv@Base 4:4.4.4-2~
 _ZN6Plasma13DataContainer10timerEventEP11QTimerEvent@Base 4:4.7.4
 _ZN6Plasma13DataContainer11dataUpdatedERK7QStringRK5QHashIS1_8QVariantE@Base 4:4.4.4-2~
 _ZN6Plasma13DataContainer11qt_metacallEN11QMetaObject4CallEiPPv@Base 4:4.4.4-2~
 _ZN6Plasma13DataContainer11qt_metacastEPKc@Base 4:4.4.4-2~
 _ZN6Plasma13DataContainer12becameUnusedERK7QString@Base 4:4.4.4-2~
 _ZN6Plasma13DataContainer13getDataEngineEv@Base 4:4.5.86
 _ZN6Plasma13DataContainer13removeAllDataEv@Base 4:4.4.4-2~
 _ZN6Plasma13DataContainer14checkForUpdateEv@Base 4:4.4.4-2~
 _ZN6Plasma13DataContainer14setNeedsUpdateEb@Base 4:4.4.4-2~
 _ZN6Plasma13DataContainer15updateRequestedEPS0_@Base 4:4.4.4-2~
 _ZN6Plasma13DataContainer16staticMetaObjectE@Base 4:4.4.4-2~
 _ZN6Plasma13DataContainer17setStorageEnabledEb@Base 4:4.5.86
 _ZN6Plasma13DataContainer18setNeedsToBeStoredEb@Base 4:4.5.86
 _ZN6Plasma13DataContainer20connectVisualizationEP7QObjectjNS_17IntervalAlignmentE@Base 4:4.4.4-2~
 _ZN6Plasma13DataContainer20forceImmediateUpdateEv@Base 4:4.4.4-2~
 _ZN6Plasma13DataContainer23disconnectVisualizationEP7QObject@Base 4:4.4.4-2~
 _ZN6Plasma13DataContainer7setDataERK7QStringRK8QVariant@Base 4:4.4.4-2~
 _ZN6Plasma13DataContainerC1EP7QObject@Base 4:4.4.4-2~
 _ZN6Plasma13DataContainerC2EP7QObject@Base 4:4.4.4-2~
 _ZN6Plasma13DataContainerD0Ev@Base 4:4.4.4-2~
 _ZN6Plasma13DataContainerD1Ev@Base 4:4.4.4-2~
 _ZN6Plasma13DataContainerD2Ev@Base 4:4.4.4-2~
 _ZN6Plasma13ExtenderGroup11eventFilterEP7QObjectP6QEvent@Base 4:4.4.95
 _ZN6Plasma13ExtenderGroup11expandGroupEv@Base 4:4.4.4-2~
 _ZN6Plasma13ExtenderGroup11qt_metacallEN11QMetaObject4CallEiPPv@Base 4:4.4.4-2~
 _ZN6Plasma13ExtenderGroup11qt_metacastEPKc@Base 4:4.4.4-2~
 _ZN6Plasma13ExtenderGroup11resizeEventEP25QGraphicsSceneResizeEvent@Base 4:4.4.95
 _ZN6Plasma13ExtenderGroup11setAutoHideEb@Base 4:4.4.4-2~
 _ZN6Plasma13ExtenderGroup13collapseGroupEv@Base 4:4.4.4-2~
 _ZN6Plasma13ExtenderGroup13dragMoveEventEP27QGraphicsSceneDragDropEvent@Base 4:4.4.95
 _ZN6Plasma13ExtenderGroup14dragEnterEventEP27QGraphicsSceneDragDropEvent@Base 4:4.4.95
 _ZN6Plasma13ExtenderGroup14dragLeaveEventEP27QGraphicsSceneDragDropEvent@Base 4:4.4.95
 _ZN6Plasma13ExtenderGroup15setAutoCollapseEb@Base 4:4.4.4-2~
 _ZN6Plasma13ExtenderGroup16staticMetaObjectE@Base 4:4.4.4-2~
 _ZN6Plasma13ExtenderGroup17setGroupCollapsedEb@Base 4:4.4.4-2~
 _ZN6Plasma13ExtenderGroup9dropEventEP27QGraphicsSceneDragDropEvent@Base 4:4.4.95
 _ZN6Plasma13ExtenderGroupC1EPNS_8ExtenderEj@Base 4:4.4.4-2~
 _ZN6Plasma13ExtenderGroupC2EPNS_8ExtenderEj@Base 4:4.4.4-2~
 _ZN6Plasma13ExtenderGroupD0Ev@Base 4:4.4.4-2~
 _ZN6Plasma13ExtenderGroupD1Ev@Base 4:4.4.4-2~
 _ZN6Plasma13ExtenderGroupD2Ev@Base 4:4.4.4-2~
 _ZN6Plasma13FlashingLabel11qt_metacallEN11QMetaObject4CallEiPPv@Base 4:4.4.4-2~
 _ZN6Plasma13FlashingLabel11qt_metacastEPKc@Base 4:4.4.4-2~
 _ZN6Plasma13FlashingLabel11setAutohideEb@Base 4:4.4.4-2~
 _ZN6Plasma13FlashingLabel11setDurationEi@Base 4:4.4.4-2~
 _ZN6Plasma13FlashingLabel16staticMetaObjectE@Base 4:4.4.4-2~
 _ZN6Plasma13FlashingLabel4killEv@Base 4:4.4.4-2~
 _ZN6Plasma13FlashingLabel5flashERK7QPixmapi6QFlagsIN2Qt13AlignmentFlagEE@Base 4:4.4.4-2~
 _ZN6Plasma13FlashingLabel5flashERK7QStringiRK11QTextOption@Base 4:4.4.4-2~
 _ZN6Plasma13FlashingLabel5paintEP8QPainterPK24QStyleOptionGraphicsItemP7QWidget@Base 4:4.4.4-2~
 _ZN6Plasma13FlashingLabel6fadeInEv@Base 4:4.4.4-2~
 _ZN6Plasma13FlashingLabel7fadeOutEv@Base 4:4.4.4-2~
 _ZN6Plasma13FlashingLabel7setFontERK5QFont@Base 4:4.4.4-2~
 _ZN6Plasma13FlashingLabel8setColorERK6QColor@Base 4:4.4.4-2~
 _ZN6Plasma13FlashingLabelC1EP13QGraphicsItem@Base 4:4.4.4-2~
 _ZN6Plasma13FlashingLabelC2EP13QGraphicsItem@Base 4:4.4.4-2~
 _ZN6Plasma13FlashingLabelD0Ev@Base 4:4.4.4-2~
 _ZN6Plasma13FlashingLabelD1Ev@Base 4:4.4.4-2~
 _ZN6Plasma13FlashingLabelD2Ev@Base 4:4.4.4-2~
 _ZN6Plasma13RunnerContext10addMatchesERK7QStringRK5QListINS_10QueryMatchEE@Base 4:4.4.4-2~
 _ZN6Plasma13RunnerContext11qt_metacallEN11QMetaObject4CallEiPPv@Base 4:4.4.4-2~
 _ZN6Plasma13RunnerContext11qt_metacastEPKc@Base 4:4.4.4-2~
 _ZN6Plasma13RunnerContext11removeMatchE7QString@Base 4:4.4.4-2~
 _ZN6Plasma13RunnerContext13removeMatchesE11QStringList@Base 4:4.4.4-2~
 _ZN6Plasma13RunnerContext14matchesChangedEv@Base 4:4.4.4-2~
 _ZN6Plasma13RunnerContext16staticMetaObjectE@Base 4:4.4.4-2~
 _ZN6Plasma13RunnerContext24setSingleRunnerQueryModeEb@Base 4:4.4.4-2~
 _ZN6Plasma13RunnerContext3runERKNS_10QueryMatchE@Base 4:4.4.4-2~
 _ZN6Plasma13RunnerContext4saveER12KConfigGroup@Base 4:4.4.4-2~
 _ZN6Plasma13RunnerContext5resetEv@Base 4:4.4.4-2~
 _ZN6Plasma13RunnerContext7restoreERK12KConfigGroup@Base 4:4.4.4-2~
 _ZN6Plasma13RunnerContext8addMatchERK7QStringRKNS_10QueryMatchE@Base 4:4.4.4-2~
 _ZN6Plasma13RunnerContext8setQueryERK7QString@Base 4:4.4.4-2~
 _ZN6Plasma13RunnerContextC1EP7QObject@Base 4:4.4.4-2~
 _ZN6Plasma13RunnerContextC1ERS0_P7QObject@Base 4:4.4.4-2~
 _ZN6Plasma13RunnerContextC2EP7QObject@Base 4:4.4.4-2~
 _ZN6Plasma13RunnerContextC2ERS0_P7QObject@Base 4:4.4.4-2~
 _ZN6Plasma13RunnerContextD0Ev@Base 4:4.4.4-2~
 _ZN6Plasma13RunnerContextD1Ev@Base 4:4.4.4-2~
 _ZN6Plasma13RunnerContextD2Ev@Base 4:4.4.4-2~
 _ZN6Plasma13RunnerContextaSERKS0_@Base 4:4.4.4-2~
 _ZN6Plasma13RunnerManager10loadRunnerE10KSharedPtrI8KServiceE@Base 4:4.4.95
 _ZN6Plasma13RunnerManager10loadRunnerERK7QString@Base 4:4.4.95
 _ZN6Plasma13RunnerManager11launchQueryERK7QString@Base 4:4.4.4-2~
 _ZN6Plasma13RunnerManager11launchQueryERK7QStringS3_@Base 4:4.4.4-2~
 _ZN6Plasma13RunnerManager11qt_metacallEN11QMetaObject4CallEiPPv@Base 4:4.4.4-2~
 _ZN6Plasma13RunnerManager11qt_metacastEPKc@Base 4:4.4.4-2~
 _ZN6Plasma13RunnerManager13queryFinishedEv@Base 4:4.4.95
 _ZN6Plasma13RunnerManager13setSingleModeEb@Base 4:4.4.4-2~
 _ZN6Plasma13RunnerManager14listRunnerInfoERK7QString@Base 4:4.5.86
 _ZN6Plasma13RunnerManager14matchesChangedERK5QListINS_10QueryMatchEE@Base 4:4.4.4-2~
 _ZN6Plasma13RunnerManager15actionsForMatchERKNS_10QueryMatchE@Base 4:4.4.4-2~
 _ZN6Plasma13RunnerManager16staticMetaObjectE@Base 4:4.4.4-2~
 _ZN6Plasma13RunnerManager17setAllowedRunnersERK11QStringList@Base 4:4.4.4-2~
 _ZN6Plasma13RunnerManager17setupMatchSessionEv@Base 4:4.4.4-2~
 _ZN6Plasma13RunnerManager19reloadConfigurationEv@Base 4:4.4.4-2~
 _ZN6Plasma13RunnerManager20matchSessionCompleteEv@Base 4:4.4.4-2~
 _ZN6Plasma13RunnerManager21setSingleModeRunnerIdERK7QString@Base 4:4.4.4-2~
 _ZN6Plasma13RunnerManager3runERK7QString@Base 4:4.4.4-2~
 _ZN6Plasma13RunnerManager3runERKNS_10QueryMatchE@Base 4:4.4.4-2~
 _ZN6Plasma13RunnerManager5resetEv@Base 4:4.4.4-2~
 _ZN6Plasma13RunnerManager9execQueryERK7QString@Base 4:4.4.4-2~
 _ZN6Plasma13RunnerManager9execQueryERK7QStringS3_@Base 4:4.4.4-2~
 _ZN6Plasma13RunnerManagerC1EP7QObject@Base 4:4.4.4-2~
 _ZN6Plasma13RunnerManagerC1ER12KConfigGroupP7QObject@Base 4:4.4.4-2~
 _ZN6Plasma13RunnerManagerC2EP7QObject@Base 4:4.4.4-2~
 _ZN6Plasma13RunnerManagerC2ER12KConfigGroupP7QObject@Base 4:4.4.4-2~
 _ZN6Plasma13RunnerManagerD0Ev@Base 4:4.4.4-2~
 _ZN6Plasma13RunnerManagerD1Ev@Base 4:4.4.4-2~
 _ZN6Plasma13RunnerManagerD2Ev@Base 4:4.4.4-2~
 _ZN6Plasma13SignalPlotter10drawWidgetEP8QPainterjji@Base 4:4.4.4-2~
 _ZN6Plasma13SignalPlotter10plotColorsEv@Base 4:4.4.4-2~
 _ZN6Plasma13SignalPlotter10removePlotEj@Base 4:4.4.4-2~
 _ZN6Plasma13SignalPlotter11qt_metacallEN11QMetaObject4CallEiPPv@Base 4:4.4.4-2~
 _ZN6Plasma13SignalPlotter11qt_metacastEPKc@Base 4:4.4.4-2~
 _ZN6Plasma13SignalPlotter11setGeometryERK6QRectF@Base 4:4.4.4-2~
 _ZN6Plasma13SignalPlotter12drawAxisTextEP8QPainterii@Base 4:4.4.4-2~
 _ZN6Plasma13SignalPlotter12reorderPlotsERK5QListIjE@Base 4:4.4.4-2~
 _ZN6Plasma13SignalPlotter12setFontColorERK6QColor@Base 4:4.4.4-2~
 _ZN6Plasma13SignalPlotter12setThinFrameEb@Base 4:4.4.4-2~
 _ZN6Plasma13SignalPlotter13drawThinFrameEP8QPainterii@Base 4:4.4.4-2~
 _ZN6Plasma13SignalPlotter13setShowLabelsEb@Base 4:4.4.4-2~
 _ZN6Plasma13SignalPlotter13setShowTopBarEb@Base 4:4.4.4-2~
 _ZN6Plasma13SignalPlotter13setStackPlotsEb@Base 4:4.4.4-2~
 _ZN6Plasma13SignalPlotter13svgBackgroundEv@Base 4:4.4.4-2~
 _ZN6Plasma13SignalPlotter14drawBackgroundEP8QPainterii@Base 4:4.4.4-2~
 _ZN6Plasma13SignalPlotter15drawTopBarFrameEP8QPainterii@Base 4:4.4.4-2~
 _ZN6Plasma13SignalPlotter15setUseAutoRangeEb@Base 4:4.4.4-2~
 _ZN6Plasma13SignalPlotter16getSnapshotImageEjj@Base 4:4.4.4-2~
 _ZN6Plasma13SignalPlotter16setSvgBackgroundERK7QString@Base 4:4.4.4-2~
 _ZN6Plasma13SignalPlotter16setVerticalRangeEdd@Base 4:4.4.4-2~
 _ZN6Plasma13SignalPlotter16staticMetaObjectE@Base 4:4.4.4-2~
 _ZN6Plasma13SignalPlotter17drawVerticalLinesEP8QPainteriii@Base 4:4.4.4-2~
 _ZN6Plasma13SignalPlotter17updateDataBuffersEv@Base 4:4.4.4-2~
 _ZN6Plasma13SignalPlotter18calculateNiceRangeEv@Base 4:4.4.4-2~
 _ZN6Plasma13SignalPlotter18drawTopBarContentsEP8QPainteriii@Base 4:4.4.4-2~
 _ZN6Plasma13SignalPlotter18setBackgroundColorERK6QColor@Base 4:4.4.4-2~
 _ZN6Plasma13SignalPlotter18setHorizontalScaleEj@Base 4:4.4.4-2~
 _ZN6Plasma13SignalPlotter19drawHorizontalLinesEP8QPainteriii@Base 4:4.4.4-2~
 _ZN6Plasma13SignalPlotter20setShowVerticalLinesEb@Base 4:4.4.4-2~
 _ZN6Plasma13SignalPlotter21setVerticalLinesColorERK6QColor@Base 4:4.4.4-2~
 _ZN6Plasma13SignalPlotter22setShowHorizontalLinesEb@Base 4:4.4.4-2~
 _ZN6Plasma13SignalPlotter22setVerticalLinesScrollEb@Base 4:4.4.4-2~
 _ZN6Plasma13SignalPlotter23setHorizontalLinesColorERK6QColor@Base 4:4.4.4-2~
 _ZN6Plasma13SignalPlotter23setHorizontalLinesCountEj@Base 4:4.4.4-2~
 _ZN6Plasma13SignalPlotter24setVerticalLinesDistanceEj@Base 4:4.4.4-2~
 _ZN6Plasma13SignalPlotter5paintEP8QPainterPK24QStyleOptionGraphicsItemP7QWidget@Base 4:4.4.4-2~
 (subst)_ZN6Plasma13SignalPlotter5scaleE{qreal}@Base 4:4.4.4-2~
 _ZN6Plasma13SignalPlotter7addPlotERK6QColor@Base 4:4.4.4-2~
 _ZN6Plasma13SignalPlotter7setFontERK5QFont@Base 4:4.4.4-2~
 _ZN6Plasma13SignalPlotter7setUnitERK7QString@Base 4:4.4.4-2~
 _ZN6Plasma13SignalPlotter8setTitleERK7QString@Base 4:4.4.4-2~
 _ZN6Plasma13SignalPlotter9addSampleERK5QListIdE@Base 4:4.4.4-2~
 _ZN6Plasma13SignalPlotter9drawPlotsEP8QPainteriiii@Base 4:4.4.4-2~
 _ZN6Plasma13SignalPlotterC1EP13QGraphicsItem@Base 4:4.4.4-2~
 _ZN6Plasma13SignalPlotterC2EP13QGraphicsItem@Base 4:4.4.4-2~
 _ZN6Plasma13SignalPlotterD0Ev@Base 4:4.4.4-2~
 _ZN6Plasma13SignalPlotterD1Ev@Base 4:4.4.4-2~
 _ZN6Plasma13SignalPlotterD2Ev@Base 4:4.4.4-2~
 _ZN6Plasma13WindowEffects11slideWindowEP7QWidgetNS_8LocationE@Base 4:4.4.4-2~
 _ZN6Plasma13WindowEffects11slideWindowEmNS_8LocationEi@Base 4:4.4.4-2~
 _ZN6Plasma13WindowEffects11windowSizesERK5QListImE@Base 4:4.4.4-2~
 _ZN6Plasma13WindowEffects14overrideShadowEmb@Base 4:4.4.4-2~
 _ZN6Plasma13WindowEffects14presentWindowsEmRK5QListImE@Base 4:4.4.4-2~
 _ZN6Plasma13WindowEffects14presentWindowsEmi@Base 4:4.4.4-2~
 _ZN6Plasma13WindowEffects15markAsDashboardEm@Base 4:4.5.86
 _ZN6Plasma13WindowEffects16enableBlurBehindEmbRK7QRegion@Base 4:4.4.95
 _ZN6Plasma13WindowEffects16highlightWindowsEmRK5QListImE@Base 4:4.4.4-2~
 _ZN6Plasma13WindowEffects17isEffectAvailableENS0_6EffectE@Base 4:4.4.4-2~
 _ZN6Plasma13WindowEffects20showWindowThumbnailsEmRK5QListImERKS1_I5QRectE@Base 4:4.4.4-2~
 _ZN6Plasma13scalingFactorENS_9ZoomLevelE@Base 4:4.4.4-2~
 _ZN6Plasma13versionStringEv@Base 4:4.4.4-2~
 _ZN6Plasma14AbstractRunner11qt_metacallEN11QMetaObject4CallEiPPv@Base 4:4.4.4-2~
 _ZN6Plasma14AbstractRunner11qt_metacastEPKc@Base 4:4.4.4-2~
 _ZN6Plasma14AbstractRunner11setPriorityENS0_8PriorityE@Base 4:4.4.4-2~
 _ZN6Plasma14AbstractRunner11setSyntaxesERK5QListINS_12RunnerSyntaxEE@Base 4:4.4.4-2~
 _ZN6Plasma14AbstractRunner12clearActionsEv@Base 4:4.4.4-2~
 _ZN6Plasma14AbstractRunner12performMatchERNS_13RunnerContextE@Base 4:4.4.4-2~
 _ZN6Plasma14AbstractRunner12removeActionERK7QString@Base 4:4.4.4-2~
 _ZN6Plasma14AbstractRunner13hasRunOptionsEv@Base 4:4.4.4-2~
 _ZN6Plasma14AbstractRunner15actionsForMatchERKNS_10QueryMatchE@Base 4:4.4.4-2~
 _ZN6Plasma14AbstractRunner15setIgnoredTypesE6QFlagsINS_13RunnerContext4TypeEE@Base 4:4.4.4-2~
 _ZN6Plasma14AbstractRunner15suspendMatchingEb@Base 4:4.5.86
 _ZN6Plasma14AbstractRunner16createRunOptionsEP7QWidget@Base 4:4.4.4-2~
 _ZN6Plasma14AbstractRunner16mimeDataForMatchEPKNS_10QueryMatchE@Base 4:4.4.95
 _ZN6Plasma14AbstractRunner16setDefaultSyntaxERKNS_12RunnerSyntaxE@Base 4:4.4.4-2~
 _ZN6Plasma14AbstractRunner16setHasRunOptionsEb@Base 4:4.4.4-2~
 _ZN6Plasma14AbstractRunner16staticMetaObjectE@Base 4:4.4.4-2~
 _ZN6Plasma14AbstractRunner17matchingSuspendedEb@Base 4:4.5.86
 _ZN6Plasma14AbstractRunner19reloadConfigurationEv@Base 4:4.4.4-2~
 _ZN6Plasma14AbstractRunner3runERKNS_13RunnerContextERKNS_10QueryMatchE@Base 4:4.4.4-2~
 _ZN6Plasma14AbstractRunner4initEv@Base 4:4.4.4-2~
 _ZN6Plasma14AbstractRunner5matchERNS_13RunnerContextE@Base 4:4.4.4-2~
 _ZN6Plasma14AbstractRunner7bigLockEv@Base 4:4.4.4-2~
 _ZN6Plasma14AbstractRunner7prepareEv@Base 4:4.4.4-2~
 _ZN6Plasma14AbstractRunner8setSpeedENS0_5SpeedE@Base 4:4.4.4-2~
 _ZN6Plasma14AbstractRunner8teardownEv@Base 4:4.4.4-2~
 _ZN6Plasma14AbstractRunner9addActionERK7QStringP7QAction@Base 4:4.4.4-2~
 _ZN6Plasma14AbstractRunner9addActionERK7QStringRK5QIconS3_@Base 4:4.4.4-2~
 _ZN6Plasma14AbstractRunner9addSyntaxERKNS_12RunnerSyntaxE@Base 4:4.4.4-2~
 _ZN6Plasma14AbstractRunnerC1E10KSharedPtrI8KServiceEP7QObject@Base 4:4.4.95
 _ZN6Plasma14AbstractRunnerC1EP7QObjectRK5QListI8QVariantE@Base 4:4.4.4-2~
 _ZN6Plasma14AbstractRunnerC1EP7QObjectRK7QString@Base 4:4.4.4-2~
 _ZN6Plasma14AbstractRunnerC2E10KSharedPtrI8KServiceEP7QObject@Base 4:4.4.95
 _ZN6Plasma14AbstractRunnerC2EP7QObjectRK5QListI8QVariantE@Base 4:4.4.4-2~
 _ZN6Plasma14AbstractRunnerC2EP7QObjectRK7QString@Base 4:4.4.4-2~
 _ZN6Plasma14AbstractRunnerD0Ev@Base 4:4.4.4-2~
 _ZN6Plasma14AbstractRunnerD1Ev@Base 4:4.4.4-2~
 _ZN6Plasma14AbstractRunnerD2Ev@Base 4:4.4.4-2~
 _ZN6Plasma14ItemBackground10itemChangeEN13QGraphicsItem18GraphicsItemChangeERK8QVariant@Base 4:4.4.4-2~
 _ZN6Plasma14ItemBackground11eventFilterEP7QObjectP6QEvent@Base 4:4.4.4-2~
 _ZN6Plasma14ItemBackground11qt_metacallEN11QMetaObject4CallEiPPv@Base 4:4.4.4-2~
 _ZN6Plasma14ItemBackground11qt_metacastEPKc@Base 4:4.4.4-2~
 _ZN6Plasma14ItemBackground11resizeEventEP25QGraphicsSceneResizeEvent@Base 4:4.4.4-2~
 (subst)_ZN6Plasma14ItemBackground13animationStepE{qreal}@Base 4:4.4.4-2~
 _ZN6Plasma14ItemBackground13setTargetItemEP13QGraphicsItem@Base 4:4.4.4-2~
 _ZN6Plasma14ItemBackground13targetReachedE6QRectF@Base 4:4.4.4-2~
 _ZN6Plasma14ItemBackground16sceneEventFilterEP13QGraphicsItemP6QEvent@Base 4:4.4.4-2~
 _ZN6Plasma14ItemBackground16staticMetaObjectE@Base 4:4.4.4-2~
 _ZN6Plasma14ItemBackground17appearanceChangedEv@Base 4:4.4.4-2~
 _ZN6Plasma14ItemBackground17targetItemReachedEP13QGraphicsItem@Base 4:4.4.4-2~
 (subst)_ZN6Plasma14ItemBackground18setAnimationUpdateE{qreal}@Base 4:4.4.95
 _ZN6Plasma14ItemBackground5paintEP8QPainterPK24QStyleOptionGraphicsItemP7QWidget@Base 4:4.4.4-2~
 _ZN6Plasma14ItemBackground9setTargetERK6QRectF@Base 4:4.4.4-2~
 _ZN6Plasma14ItemBackgroundC1EP15QGraphicsWidget@Base 4:4.4.4-2~
 _ZN6Plasma14ItemBackgroundC2EP15QGraphicsWidget@Base 4:4.4.4-2~
 _ZN6Plasma14ItemBackgroundD0Ev@Base 4:4.4.4-2~
 _ZN6Plasma14ItemBackgroundD1Ev@Base 4:4.4.4-2~
 _ZN6Plasma14ItemBackgroundD2Ev@Base 4:4.4.4-2~
 _ZN6Plasma14ToolTipContent10setSubTextERK7QString@Base 4:4.4.4-2~
 _ZN6Plasma14ToolTipContent11addResourceENS0_12ResourceTypeERK4QUrlRK8QVariant@Base 4:4.4.4-2~
 _ZN6Plasma14ToolTipContent11setAutohideEb@Base 4:4.4.4-2~
 _ZN6Plasma14ToolTipContent11setMainTextERK7QString@Base 4:4.4.4-2~
 _ZN6Plasma14ToolTipContent12setClickableEb@Base 4:4.4.4-2~
 _ZN6Plasma14ToolTipContent15setInstantPopupEb@Base 4:4.7.0
 _ZN6Plasma14ToolTipContent17setGraphicsWidgetEP15QGraphicsWidget@Base 4:4.5.86
 _ZN6Plasma14ToolTipContent18setWindowToPreviewEm@Base 4:4.4.4-2~
 _ZN6Plasma14ToolTipContent19setHighlightWindowsEb@Base 4:4.4.4-2~
 _ZN6Plasma14ToolTipContent19setWindowsToPreviewERK5QListImE@Base 4:4.4.4-2~
 _ZN6Plasma14ToolTipContent8setImageERK5QIcon@Base 4:4.4.4-2~
 _ZN6Plasma14ToolTipContent8setImageERK7QPixmap@Base 4:4.4.4-2~
 _ZN6Plasma14ToolTipContentC1ERK7QStringS3_RK5QIcon@Base 4:4.4.4-2~
 _ZN6Plasma14ToolTipContentC1ERK7QStringS3_RK7QPixmap@Base 4:4.4.4-2~
 _ZN6Plasma14ToolTipContentC1ERKS0_@Base 4:4.4.4-2~
 _ZN6Plasma14ToolTipContentC1Ev@Base 4:4.4.4-2~
 _ZN6Plasma14ToolTipContentC2ERK7QStringS3_RK5QIcon@Base 4:4.4.4-2~
 _ZN6Plasma14ToolTipContentC2ERK7QStringS3_RK7QPixmap@Base 4:4.4.4-2~
 _ZN6Plasma14ToolTipContentC2ERKS0_@Base 4:4.4.4-2~
 _ZN6Plasma14ToolTipContentC2Ev@Base 4:4.4.4-2~
 _ZN6Plasma14ToolTipContentD1Ev@Base 4:4.4.4-2~
 _ZN6Plasma14ToolTipContentD2Ev@Base 4:4.4.4-2~
 _ZN6Plasma14ToolTipContentaSERKS0_@Base 4:4.4.4-2~
 _ZN6Plasma14ToolTipManager10setContentEP15QGraphicsWidgetRKNS_14ToolTipContentE@Base 4:4.4.4-2~
 _ZN6Plasma14ToolTipManager11eventFilterEP7QObjectP6QEvent@Base 4:4.4.4-2~
 _ZN6Plasma14ToolTipManager11qt_metacallEN11QMetaObject4CallEiPPv@Base 4:4.4.4-2~
 _ZN6Plasma14ToolTipManager11qt_metacastEPKc@Base 4:4.4.4-2~
 _ZN6Plasma14ToolTipManager12clearContentEP15QGraphicsWidget@Base 4:4.4.4-2~
 _ZN6Plasma14ToolTipManager13linkActivatedERK7QString6QFlagsIN2Qt11MouseButtonEES4_INS5_16KeyboardModifierEERK6QPoint@Base 4:4.4.4-2~
 _ZN6Plasma14ToolTipManager14registerWidgetEP15QGraphicsWidget@Base 4:4.4.4-2~
 _ZN6Plasma14ToolTipManager16staticMetaObjectE@Base 4:4.4.4-2~
 _ZN6Plasma14ToolTipManager16unregisterWidgetEP15QGraphicsWidget@Base 4:4.4.4-2~
 _ZN6Plasma14ToolTipManager22windowPreviewActivatedEm6QFlagsIN2Qt11MouseButtonEES1_INS2_16KeyboardModifierEERK6QPoint@Base 4:4.4.4-2~
 _ZN6Plasma14ToolTipManager4hideEP15QGraphicsWidget@Base 4:4.4.4-2~
 _ZN6Plasma14ToolTipManager4selfEv@Base 4:4.4.4-2~
 _ZN6Plasma14ToolTipManager4showEP15QGraphicsWidget@Base 4:4.4.4-2~
 _ZN6Plasma14ToolTipManager8setStateENS0_5StateE@Base 4:4.4.4-2~
 _ZN6Plasma14ToolTipManagerC1EP7QObject@Base 4:4.4.4-2~
 _ZN6Plasma14ToolTipManagerC2EP7QObject@Base 4:4.4.4-2~
 _ZN6Plasma14ToolTipManagerD0Ev@Base 4:4.4.4-2~
 _ZN6Plasma14ToolTipManagerD1Ev@Base 4:4.4.4-2~
 _ZN6Plasma14ToolTipManagerD2Ev@Base 4:4.4.4-2~
 _ZN6Plasma14knownLanguagesE6QFlagsINS_13ComponentTypeEE@Base 4:4.4.4-2~
 _ZN6Plasma14versionReleaseEv@Base 4:4.4.4-2~
 _ZN6Plasma15AbstractToolBox10repositionEv@Base 4:4.5.86
 _ZN6Plasma15AbstractToolBox11qt_metacallEN11QMetaObject4CallEiPPv@Base 4:4.4.4-2~
 _ZN6Plasma15AbstractToolBox11qt_metacastEPKc@Base 4:4.4.4-2~
 _ZN6Plasma15AbstractToolBox15listToolBoxInfoERK7QString@Base 4:4.5.86
 _ZN6Plasma15AbstractToolBox16staticMetaObjectE@Base 4:4.4.4-2~
 _ZN6Plasma15AbstractToolBox17visibilityChangedEb@Base 4:4.4.4-2~
 _ZN6Plasma15AbstractToolBox4loadERK7QStringRK5QListI8QVariantEPNS_11ContainmentE@Base 4:4.5.86
 _ZN6Plasma15AbstractToolBox4saveERK12KConfigGroup@Base 4:4.5.86
 _ZN6Plasma15AbstractToolBox7restoreERK12KConfigGroup@Base 4:4.5.86
 _ZN6Plasma15AbstractToolBox7toggledEv@Base 4:4.4.4-2~
 _ZN6Plasma15AbstractToolBoxC1EP7QObjectRK5QListI8QVariantE@Base 4:4.5.86
 _ZN6Plasma15AbstractToolBoxC1EPNS_11ContainmentE@Base 4:4.4.4-2~
 _ZN6Plasma15AbstractToolBoxC2EP7QObjectRK5QListI8QVariantE@Base 4:4.5.86
 _ZN6Plasma15AbstractToolBoxC2EPNS_11ContainmentE@Base 4:4.4.4-2~
 _ZN6Plasma15AbstractToolBoxD0Ev@Base 4:4.4.4-2~
 _ZN6Plasma15AbstractToolBoxD1Ev@Base 4:4.4.4-2~
 _ZN6Plasma15AbstractToolBoxD2Ev@Base 4:4.4.4-2~
 _ZN6Plasma15AccessAppletJob11qt_metacallEN11QMetaObject4CallEiPPv@Base 4:4.4.4-2~
 _ZN6Plasma15AccessAppletJob11qt_metacastEPKc@Base 4:4.4.4-2~
 _ZN6Plasma15AccessAppletJob16staticMetaObjectE@Base 4:4.4.4-2~
 _ZN6Plasma15AccessAppletJob5startEv@Base 4:4.4.4-2~
 _ZN6Plasma15AccessAppletJobC1ERK4KUrlP7QObject@Base 4:4.4.4-2~
 _ZN6Plasma15AccessAppletJobC2ERK4KUrlP7QObject@Base 4:4.4.4-2~
 _ZN6Plasma15AccessAppletJobD0Ev@Base 4:4.4.4-2~
 _ZN6Plasma15AccessAppletJobD1Ev@Base 4:4.4.4-2~
 _ZN6Plasma15AccessAppletJobD2Ev@Base 4:4.4.4-2~
 (subst)_ZN6Plasma15AnimationDriver10itemAppearE{qreal}P13QGraphicsItem@Base 4:4.4.4-2~
 (subst)_ZN6Plasma15AnimationDriver11itemSlideInE{qreal}P13QGraphicsItemRK6QPointS5_@Base 4:4.4.4-2~
 _ZN6Plasma15AnimationDriver11qt_metacallEN11QMetaObject4CallEiPPv@Base 4:4.4.4-2~
 _ZN6Plasma15AnimationDriver11qt_metacastEPKc@Base 4:4.4.4-2~
 (subst)_ZN6Plasma15AnimationDriver12itemSlideOutE{qreal}P13QGraphicsItemRK6QPointS5_@Base 4:4.4.4-2~
 (subst)_ZN6Plasma15AnimationDriver13elementAppearE{qreal}RK7QPixmap@Base 4:4.4.4-2~
 (subst)_ZN6Plasma15AnimationDriver13itemActivatedE{qreal}P13QGraphicsItem@Base 4:4.4.4-2~
 (subst)_ZN6Plasma15AnimationDriver13itemDisappearE{qreal}P13QGraphicsItem@Base 4:4.4.4-2~
 (subst)_ZN6Plasma15AnimationDriver16elementDisappearE{qreal}RK7QPixmap@Base 4:4.4.4-2~
 _ZN6Plasma15AnimationDriver16staticMetaObjectE@Base 4:4.4.4-2~
 _ZN6Plasma15AnimationDriverC1EP7QObject@Base 4:4.4.4-2~
 _ZN6Plasma15AnimationDriverC2EP7QObject@Base 4:4.4.4-2~
 _ZN6Plasma15AnimationDriverD0Ev@Base 4:4.4.4-2~
 _ZN6Plasma15AnimationDriverD1Ev@Base 4:4.4.4-2~
 _ZN6Plasma15AnimationDriverD2Ev@Base 4:4.4.4-2~
 _ZN6Plasma15PackageMetadata10setLicenseERK7QString@Base 4:4.4.4-2~
 _ZN6Plasma15PackageMetadata10setVersionERK7QString@Base 4:4.4.4-2~
 _ZN6Plasma15PackageMetadata10setWebsiteERK7QString@Base 4:4.4.4-2~
 _ZN6Plasma15PackageMetadata11setCategoryERK7QString@Base 4:4.4.4-2~
 _ZN6Plasma15PackageMetadata11setKeywordsERK11QStringList@Base 4:4.4.4-2~
 _ZN6Plasma15PackageMetadata13setPluginNameERK7QString@Base 4:4.4.4-2~
 _ZN6Plasma15PackageMetadata14setApplicationERK7QString@Base 4:4.4.4-2~
 _ZN6Plasma15PackageMetadata14setDescriptionERK7QString@Base 4:4.4.4-2~
 _ZN6Plasma15PackageMetadata14setServiceTypeERK7QString@Base 4:4.4.4-2~
 _ZN6Plasma15PackageMetadata17setRemoteLocationERK4KUrl@Base 4:4.4.4-2~
 _ZN6Plasma15PackageMetadata18setRequiredVersionERK7QString@Base 4:4.4.4-2~
 _ZN6Plasma15PackageMetadata20setImplementationApiERK7QString@Base 4:4.4.4-2~
 _ZN6Plasma15PackageMetadata4readERK7QString@Base 4:4.4.4-2~
 _ZN6Plasma15PackageMetadata7setIconERK7QString@Base 4:4.4.95
 _ZN6Plasma15PackageMetadata7setNameERK7QString@Base 4:4.4.4-2~
 _ZN6Plasma15PackageMetadata7setTypeERK7QString@Base 4:4.4.4-2~
 _ZN6Plasma15PackageMetadata8setEmailERK7QString@Base 4:4.4.4-2~
 _ZN6Plasma15PackageMetadata9setAuthorERK7QString@Base 4:4.4.4-2~
 _ZN6Plasma15PackageMetadataC1ERK7QString@Base 4:4.4.4-2~
 _ZN6Plasma15PackageMetadataC1ERKS0_@Base 4:4.4.4-2~
 _ZN6Plasma15PackageMetadataC2ERK7QString@Base 4:4.4.4-2~
 _ZN6Plasma15PackageMetadataC2ERKS0_@Base 4:4.4.4-2~
 _ZN6Plasma15PackageMetadataD1Ev@Base 4:4.4.4-2~
 _ZN6Plasma15PackageMetadataD2Ev@Base 4:4.4.4-2~
 _ZN6Plasma15PackageMetadataaSERKS0_@Base 4:4.4.4-2~
 _ZN6Plasma15WallpaperScript10urlDroppedERK4KUrl@Base 4:4.4.4-2~
 _ZN6Plasma15WallpaperScript10wheelEventEP24QGraphicsSceneWheelEvent@Base 4:4.4.4-2~
 _ZN6Plasma15WallpaperScript11findInCacheERK7QStringR6QImagej@Base 4:4.4.4-2~
 _ZN6Plasma15WallpaperScript11qt_metacallEN11QMetaObject4CallEiPPv@Base 4:4.4.4-2~
 _ZN6Plasma15WallpaperScript11qt_metacastEPKc@Base 4:4.4.4-2~
 _ZN6Plasma15WallpaperScript12setWallpaperEPNS_9WallpaperE@Base 4:4.4.4-2~
 _ZN6Plasma15WallpaperScript13initWallpaperERK12KConfigGroup@Base 4:4.4.4-2~
 _ZN6Plasma15WallpaperScript14mouseMoveEventEP24QGraphicsSceneMouseEvent@Base 4:4.4.4-2~
 _ZN6Plasma15WallpaperScript15insertIntoCacheERK7QStringRK6QImage@Base 4:4.4.4-2~
 _ZN6Plasma15WallpaperScript15mousePressEventEP24QGraphicsSceneMouseEvent@Base 4:4.4.4-2~
 _ZN6Plasma15WallpaperScript15renderCompletedERK6QImage@Base 4:4.4.4-2~
 _ZN6Plasma15WallpaperScript16staticMetaObjectE@Base 4:4.4.4-2~
 _ZN6Plasma15WallpaperScript17configNeedsSavingEv@Base 4:4.4.4-2~
 _ZN6Plasma15WallpaperScript17mouseReleaseEventEP24QGraphicsSceneMouseEvent@Base 4:4.4.4-2~
 _ZN6Plasma15WallpaperScript17setTargetSizeHintERK6QSizeF@Base 4:4.4.4-2~
 _ZN6Plasma15WallpaperScript19setResizeMethodHintENS_9Wallpaper12ResizeMethodE@Base 4:4.4.4-2~
 _ZN6Plasma15WallpaperScript20setContextualActionsERK5QListIP7QActionE@Base 4:4.4.4-2~
 _ZN6Plasma15WallpaperScript22setUsingRenderingCacheEb@Base 4:4.4.4-2~
 _ZN6Plasma15WallpaperScript24setConfigurationRequiredEbRK7QString@Base 4:4.4.4-2~
 _ZN6Plasma15WallpaperScript28createConfigurationInterfaceEP7QWidget@Base 4:4.4.4-2~
 _ZN6Plasma15WallpaperScript4saveER12KConfigGroup@Base 4:4.4.4-2~
 _ZN6Plasma15WallpaperScript5paintEP8QPainterRK6QRectF@Base 4:4.4.4-2~
 _ZN6Plasma15WallpaperScript6renderERK7QStringRK5QSizeNS_9Wallpaper12ResizeMethodERK6QColor@Base 4:4.4.4-2~
 _ZN6Plasma15WallpaperScript6updateERK6QRectF@Base 4:4.4.4-2~
 _ZN6Plasma15WallpaperScript7setUrlsEN4KUrl4ListE@Base 4:4.7.0
 _ZN6Plasma15WallpaperScriptC1EP7QObject@Base 4:4.4.4-2~
 _ZN6Plasma15WallpaperScriptC2EP7QObject@Base 4:4.4.4-2~
 _ZN6Plasma15WallpaperScriptD0Ev@Base 4:4.4.4-2~
 _ZN6Plasma15WallpaperScriptD1Ev@Base 4:4.4.4-2~
 _ZN6Plasma15WallpaperScriptD2Ev@Base 4:4.4.4-2~
 _ZN6Plasma15actionsFromMenuEP5QMenuRK7QStringP7QObject@Base 4:4.4.4-2~
 _ZN6Plasma16ClientPinRequest11qt_metacallEN11QMetaObject4CallEiPPv@Base 4:4.4.4-2~
 _ZN6Plasma16ClientPinRequest11qt_metacastEPKc@Base 4:4.4.4-2~
 _ZN6Plasma16ClientPinRequest16staticMetaObjectE@Base 4:4.4.4-2~
 _ZN6Plasma16ClientPinRequest6setPinERK7QString@Base 4:4.4.4-2~
 _ZN6Plasma16ClientPinRequest7changedEPS0_@Base 4:4.4.4-2~
 _ZN6Plasma16ClientPinRequestC1EPNS_13RemoteServiceE@Base 4:4.4.4-2~
 _ZN6Plasma16ClientPinRequestC2EPNS_13RemoteServiceE@Base 4:4.4.4-2~
 _ZN6Plasma16ClientPinRequestD0Ev@Base 4:4.4.4-2~
 _ZN6Plasma16ClientPinRequestD1Ev@Base 4:4.4.4-2~
 _ZN6Plasma16ClientPinRequestD2Ev@Base 4:4.4.4-2~
 _ZN6Plasma16DataEngineScript10removeDataERK7QStringS3_@Base 4:4.4.4-2~
 _ZN6Plasma16DataEngineScript11qt_metacallEN11QMetaObject4CallEiPPv@Base 4:4.4.4-2~
 _ZN6Plasma16DataEngineScript11qt_metacastEPKc@Base 4:4.4.4-2~
 _ZN6Plasma16DataEngineScript12removeSourceERK7QString@Base 4:4.4.4-2~
 _ZN6Plasma16DataEngineScript13removeAllDataERK7QString@Base 4:4.4.4-2~
 _ZN6Plasma16DataEngineScript13setDataEngineEPNS_10DataEngineE@Base 4:4.4.4-2~
 _ZN6Plasma16DataEngineScript16removeAllSourcesEv@Base 4:4.4.4-2~
 _ZN6Plasma16DataEngineScript16serviceForSourceERK7QString@Base 4:4.4.4-2~
 _ZN6Plasma16DataEngineScript16staticMetaObjectE@Base 4:4.4.4-2~
 _ZN6Plasma16DataEngineScript16updateAllSourcesEv@Base 4:4.4.4-2~
 _ZN6Plasma16DataEngineScript17setMaxSourceCountEj@Base 4:4.4.4-2~
 _ZN6Plasma16DataEngineScript17updateSourceEventERK7QString@Base 4:4.4.4-2~
 _ZN6Plasma16DataEngineScript18setPollingIntervalEj@Base 4:4.4.4-2~
 _ZN6Plasma16DataEngineScript18sourceRequestEventERK7QString@Base 4:4.4.4-2~
 _ZN6Plasma16DataEngineScript22scheduleSourcesUpdatedEv@Base 4:4.4.4-2~
 _ZN6Plasma16DataEngineScript25setMinimumPollingIntervalEi@Base 4:4.4.4-2~
 _ZN6Plasma16DataEngineScript39forceImmediateUpdateOfAllVisualizationsEv@Base 4:4.4.4-2~
 _ZN6Plasma16DataEngineScript7setDataERK7QStringRK5QHashIS1_8QVariantE@Base 4:4.4.95
 _ZN6Plasma16DataEngineScript7setDataERK7QStringRK8QVariant@Base 4:4.4.4-2~
 _ZN6Plasma16DataEngineScript7setDataERK7QStringS3_RK8QVariant@Base 4:4.4.4-2~
 _ZN6Plasma16DataEngineScript7setIconERK7QString@Base 4:4.4.4-2~
 _ZN6Plasma16DataEngineScript7setNameERK7QString@Base 4:4.4.4-2~
 _ZN6Plasma16DataEngineScript9addSourceEPNS_13DataContainerE@Base 4:4.4.4-2~
 _ZN6Plasma16DataEngineScriptC1EP7QObject@Base 4:4.4.4-2~
 _ZN6Plasma16DataEngineScriptC2EP7QObject@Base 4:4.4.4-2~
 _ZN6Plasma16DataEngineScriptD0Ev@Base 4:4.4.4-2~
 _ZN6Plasma16DataEngineScriptD1Ev@Base 4:4.4.4-2~
 _ZN6Plasma16DataEngineScriptD2Ev@Base 4:4.4.4-2~
 _ZN6Plasma16PackageStructure11pathChangedEv@Base 4:4.4.4-2~
 _ZN6Plasma16PackageStructure11qt_metacallEN11QMetaObject4CallEiPPv@Base 4:4.4.4-2~
 _ZN6Plasma16PackageStructure11qt_metacastEPKc@Base 4:4.4.4-2~
 _ZN6Plasma16PackageStructure11setRequiredEPKcb@Base 4:4.4.4-2~
 _ZN6Plasma16PackageStructure12setMimetypesEPKc11QStringList@Base 4:4.4.4-2~
 _ZN6Plasma16PackageStructure14installPackageERK7QStringS3_@Base 4:4.4.4-2~
 _ZN6Plasma16PackageStructure16removeDefinitionEPKc@Base 4:4.5.86
 _ZN6Plasma16PackageStructure16setServicePrefixERK7QString@Base 4:4.4.4-2~
 _ZN6Plasma16PackageStructure16staticMetaObjectE@Base 4:4.4.4-2~
 _ZN6Plasma16PackageStructure16uninstallPackageERK7QStringS3_@Base 4:4.4.4-2~
 _ZN6Plasma16PackageStructure17addFileDefinitionEPKcRK7QStringS5_@Base 4:4.4.4-2~
 _ZN6Plasma16PackageStructure17setContentsPrefixERK7QString@Base 4:4.4.4-2~
 _ZN6Plasma16PackageStructure19setDefaultMimetypesE11QStringList@Base 4:4.4.4-2~
 _ZN6Plasma16PackageStructure21setAllowExternalPathsEb@Base 4:4.4.4-2~
 _ZN6Plasma16PackageStructure21setDefaultPackageRootERK7QString@Base 4:4.4.4-2~
 _ZN6Plasma16PackageStructure22addDirectoryDefinitionEPKcRK7QStringS5_@Base 4:4.4.4-2~
 _ZN6Plasma16PackageStructure22createNewWidgetBrowserEP7QWidget@Base 4:4.4.4-2~
 _ZN6Plasma16PackageStructure22setContentsPrefixPathsERK11QStringList@Base 4:4.5.86
 _ZN6Plasma16PackageStructure24newWidgetBrowserFinishedEv@Base 4:4.4.4-2~
 _ZN6Plasma16PackageStructure4loadERK7QString@Base 4:4.4.4-2~
 _ZN6Plasma16PackageStructure4readEPK11KConfigBase@Base 4:4.4.4-2~
 _ZN6Plasma16PackageStructure7setPathERK7QString@Base 4:4.4.4-2~
 _ZN6Plasma16PackageStructure8metadataEv@Base 4:4.4.4-2~
 _ZN6Plasma16PackageStructure9entryListEPKc@Base 4:4.4.4-2~
 _ZN6Plasma16PackageStructureC1EP7QObjectRK7QString@Base 4:4.4.4-2~
 _ZN6Plasma16PackageStructureC2EP7QObjectRK7QString@Base 4:4.4.4-2~
 _ZN6Plasma16PackageStructureD0Ev@Base 4:4.4.4-2~
 _ZN6Plasma16PackageStructureD1Ev@Base 4:4.4.4-2~
 _ZN6Plasma16PackageStructureD2Ev@Base 4:4.4.4-2~
 _ZN6Plasma16PackageStructureaSERKS0_@Base 4:4.4.4-2~
 _ZN6Plasma16PinPairingDialog11qt_metacallEN11QMetaObject4CallEiPPv@Base 4:4.4.4-2~
 _ZN6Plasma16PinPairingDialog11qt_metacastEPKc@Base 4:4.4.4-2~
 _ZN6Plasma16PinPairingDialog16staticMetaObjectE@Base 4:4.4.4-2~
 _ZN6Plasma16PinPairingDialogC1ERNS_16ClientPinRequestEP7QObject@Base 4:4.4.4-2~
 _ZN6Plasma16PinPairingDialogC1ERNS_17AuthorizationRuleEP7QObject@Base 4:4.4.4-2~
 _ZN6Plasma16PinPairingDialogC2ERNS_16ClientPinRequestEP7QObject@Base 4:4.4.4-2~
 _ZN6Plasma16PinPairingDialogC2ERNS_17AuthorizationRuleEP7QObject@Base 4:4.4.4-2~
 _ZN6Plasma16PinPairingDialogD0Ev@Base 4:4.4.4-2~
 _ZN6Plasma16PinPairingDialogD1Ev@Base 4:4.4.4-2~
 _ZN6Plasma16PinPairingDialogD2Ev@Base 4:4.4.4-2~
 _ZN6Plasma16ServiceAccessJob11qt_metacallEN11QMetaObject4CallEiPPv@Base 4:4.4.4-2~
 _ZN6Plasma16ServiceAccessJob11qt_metacastEPKc@Base 4:4.4.4-2~
 _ZN6Plasma16ServiceAccessJob16staticMetaObjectE@Base 4:4.4.4-2~
 _ZN6Plasma16ServiceAccessJob5startEv@Base 4:4.4.4-2~
 _ZN6Plasma16ServiceAccessJobC1E4KUrlP7QObject@Base 4:4.4.4-2~
 _ZN6Plasma16ServiceAccessJobC2E4KUrlP7QObject@Base 4:4.4.4-2~
 _ZN6Plasma16ServiceAccessJobD0Ev@Base 4:4.4.4-2~
 _ZN6Plasma16ServiceAccessJobD1Ev@Base 4:4.4.4-2~
 _ZN6Plasma16ServiceAccessJobD2Ev@Base 4:4.4.4-2~
 _ZN6Plasma16loadScriptEngineERK7QStringPNS_10DataEngineE@Base 4:4.4.4-2~
 _ZN6Plasma16loadScriptEngineERK7QStringPNS_14AbstractRunnerE@Base 4:4.4.4-2~
 _ZN6Plasma16loadScriptEngineERK7QStringPNS_6AppletE@Base 4:4.4.4-2~
 _ZN6Plasma16loadScriptEngineERK7QStringPNS_9WallpaperE@Base 4:4.4.4-2~
 _ZN6Plasma16packageStructureERK7QStringNS_13ComponentTypeE@Base 4:4.4.4-2~
 _ZN6Plasma17AuthorizationRule10setTargetsE6QFlagsINS0_6TargetEE@Base 4:4.4.4-2~
 _ZN6Plasma17AuthorizationRule11persistenceEv@Base 4:4.4.4-2~
 _ZN6Plasma17AuthorizationRule11qt_metacallEN11QMetaObject4CallEiPPv@Base 4:4.4.4-2~
 _ZN6Plasma17AuthorizationRule11qt_metacastEPKc@Base 4:4.4.4-2~
 _ZN6Plasma17AuthorizationRule14setPersistenceENS0_11PersistenceE@Base 4:4.4.4-2~
 _ZN6Plasma17AuthorizationRule16staticMetaObjectE@Base 4:4.4.4-2~
 _ZN6Plasma17AuthorizationRule6policyEv@Base 4:4.4.4-2~
 _ZN6Plasma17AuthorizationRule6setPinERK7QString@Base 4:4.4.4-2~
 _ZN6Plasma17AuthorizationRule7changedEPS0_@Base 4:4.4.4-2~
 _ZN6Plasma17AuthorizationRule7targetsEv@Base 4:4.4.4-2~
 _ZN6Plasma17AuthorizationRule9setPolicyENS0_6PolicyE@Base 4:4.4.4-2~
 _ZN6Plasma17AuthorizationRuleC1ERK7QStringS3_@Base 4:4.4.4-2~
 _ZN6Plasma17AuthorizationRuleC2ERK7QStringS3_@Base 4:4.4.4-2~
 _ZN6Plasma17AuthorizationRuleD0Ev@Base 4:4.4.4-2~
 _ZN6Plasma17AuthorizationRuleD1Ev@Base 4:4.4.4-2~
 _ZN6Plasma17AuthorizationRuleD2Ev@Base 4:4.4.4-2~
 _ZN6Plasma17DataEngineManager10loadEngineERK7QString@Base 4:4.4.4-2~
 _ZN6Plasma17DataEngineManager10timerEventEP11QTimerEvent@Base 4:4.5.86
 _ZN6Plasma17DataEngineManager11qt_metacallEN11QMetaObject4CallEiPPv@Base 4:4.4.4-2~
 _ZN6Plasma17DataEngineManager11qt_metacastEPKc@Base 4:4.4.4-2~
 _ZN6Plasma17DataEngineManager12unloadEngineERK7QString@Base 4:4.4.4-2~
 _ZN6Plasma17DataEngineManager14listAllEnginesERK7QString@Base 4:4.4.4-2~
 _ZN6Plasma17DataEngineManager14listEngineInfoERK7QString@Base 4:4.4.4-2~
 _ZN6Plasma17DataEngineManager16staticMetaObjectE@Base 4:4.4.4-2~
 _ZN6Plasma17DataEngineManager24listEngineInfoByCategoryERK7QStringS3_@Base 4:4.4.4-2~
 _ZN6Plasma17DataEngineManager4selfEv@Base 4:4.4.4-2~
 _ZN6Plasma17DataEngineManagerC1Ev@Base 4:4.4.4-2~
 _ZN6Plasma17DataEngineManagerC2Ev@Base 4:4.4.4-2~
 _ZN6Plasma17DataEngineManagerD0Ev@Base 4:4.4.4-2~
 _ZN6Plasma17DataEngineManagerD1Ev@Base 4:4.4.4-2~
 _ZN6Plasma17DataEngineManagerD2Ev@Base 4:4.4.4-2~
 _ZN6Plasma17DeclarativeWidget10setQmlPathERK7QString@Base 4:4.5.86
 _ZN6Plasma17DeclarativeWidget11qt_metacallEN11QMetaObject4CallEiPPv@Base 4:4.5.86
 _ZN6Plasma17DeclarativeWidget11qt_metacastEPKc@Base 4:4.5.86
 _ZN6Plasma17DeclarativeWidget11resizeEventEP25QGraphicsSceneResizeEvent@Base 4:4.5.86
 _ZN6Plasma17DeclarativeWidget16staticMetaObjectE@Base 4:4.5.86
 _ZN6Plasma17DeclarativeWidget24setInitializationDelayedEb@Base 4:4.5.86
 _ZN6Plasma17DeclarativeWidget6engineEv@Base 4:4.5.86
 _ZN6Plasma17DeclarativeWidget8finishedEv@Base 4:4.5.86
 _ZN6Plasma17DeclarativeWidgetC1EP15QGraphicsWidget@Base 4:4.5.86
 _ZN6Plasma17DeclarativeWidgetC2EP15QGraphicsWidget@Base 4:4.5.86
 _ZN6Plasma17DeclarativeWidgetD0Ev@Base 4:4.5.86
 _ZN6Plasma17DeclarativeWidgetD1Ev@Base 4:4.5.86
 _ZN6Plasma17DeclarativeWidgetD2Ev@Base 4:4.5.86
 _ZN6Plasma18ContainmentActions11containmentEv@Base 4:4.4.4-2~
 _ZN6Plasma18ContainmentActions11qt_metacallEN11QMetaObject4CallEiPPv@Base 4:4.4.4-2~
 _ZN6Plasma18ContainmentActions11qt_metacastEPKc@Base 4:4.4.4-2~
 _ZN6Plasma18ContainmentActions12contextEventEP6QEvent@Base 4:4.4.4-2~
 _ZN6Plasma18ContainmentActions13eventToStringEP6QEvent@Base 4:4.4.4-2~
 _ZN6Plasma18ContainmentActions13popupPositionERK5QSizeP6QEvent@Base 4:4.5.86
 _ZN6Plasma18ContainmentActions14setContainmentEPNS_11ContainmentE@Base 4:4.5.86
 _ZN6Plasma18ContainmentActions16packageStructureEv@Base 4:4.4.4-2~
 _ZN6Plasma18ContainmentActions16staticMetaObjectE@Base 4:4.4.4-2~
 _ZN6Plasma18ContainmentActions17contextualActionsEv@Base 4:4.4.4-2~
 _ZN6Plasma18ContainmentActions21configurationAcceptedEv@Base 4:4.4.4-2~
 _ZN6Plasma18ContainmentActions24setConfigurationRequiredEb@Base 4:4.4.4-2~
 _ZN6Plasma18ContainmentActions26listContainmentActionsInfoEv@Base 4:4.4.4-2~
 _ZN6Plasma18ContainmentActions28createConfigurationInterfaceEP7QWidget@Base 4:4.4.4-2~
 _ZN6Plasma18ContainmentActions4initERK12KConfigGroup@Base 4:4.4.4-2~
 _ZN6Plasma18ContainmentActions4loadEPNS_11ContainmentERK11KPluginInfoRK5QListI8QVariantE@Base 4:4.4.4-2~
 _ZN6Plasma18ContainmentActions4loadEPNS_11ContainmentERK7QStringRK5QListI8QVariantE@Base 4:4.4.4-2~
 _ZN6Plasma18ContainmentActions4saveER12KConfigGroup@Base 4:4.4.4-2~
 _ZN6Plasma18ContainmentActions5eventEP6QEvent@Base 4:4.4.4-2~
 _ZN6Plasma18ContainmentActions5pasteE7QPointF6QPoint@Base 4:4.4.4-2~
 _ZN6Plasma18ContainmentActions7restoreERK12KConfigGroup@Base 4:4.4.4-2~
 _ZN6Plasma18ContainmentActionsC1EP7QObject@Base 4:4.4.4-2~
 _ZN6Plasma18ContainmentActionsC1EP7QObjectRK5QListI8QVariantE@Base 4:4.4.4-2~
 _ZN6Plasma18ContainmentActionsC2EP7QObject@Base 4:4.4.4-2~
 _ZN6Plasma18ContainmentActionsC2EP7QObjectRK5QListI8QVariantE@Base 4:4.4.4-2~
 _ZN6Plasma18ContainmentActionsD0Ev@Base 4:4.4.4-2~
 _ZN6Plasma18ContainmentActionsD1Ev@Base 4:4.4.4-2~
 _ZN6Plasma18ContainmentActionsD2Ev@Base 4:4.4.4-2~
 _ZN6Plasma19locationToDirectionENS_8LocationE@Base 4:4.4.4-2~
 _ZN6Plasma20AuthorizationManager11qt_metacallEN11QMetaObject4CallEiPPv@Base 4:4.4.4-2~
 _ZN6Plasma20AuthorizationManager11qt_metacastEPKc@Base 4:4.4.4-2~
 _ZN6Plasma20AuthorizationManager16staticMetaObjectE@Base 4:4.4.4-2~
 _ZN6Plasma20AuthorizationManager20readyForRemoteAccessEv@Base 4:4.4.4-2~
 _ZN6Plasma20AuthorizationManager22setAuthorizationPolicyENS0_19AuthorizationPolicyE@Base 4:4.4.4-2~
 _ZN6Plasma20AuthorizationManager25setAuthorizationInterfaceEPNS_22AuthorizationInterfaceE@Base 4:4.4.4-2~
 _ZN6Plasma20AuthorizationManager4selfEv@Base 4:4.4.4-2~
 _ZN6Plasma20AuthorizationManagerC1Ev@Base 4:4.4.4-2~
 _ZN6Plasma20AuthorizationManagerC2Ev@Base 4:4.4.4-2~
 _ZN6Plasma20AuthorizationManagerD0Ev@Base 4:4.4.4-2~
 _ZN6Plasma20AuthorizationManagerD1Ev@Base 4:4.4.4-2~
 _ZN6Plasma20AuthorizationManagerD2Ev@Base 4:4.4.4-2~
 _ZN6Plasma20DenyAllAuthorization16clientPinRequestERNS_16ClientPinRequestE@Base 4:4.4.4-2~
 _ZN6Plasma20DenyAllAuthorization20authorizationRequestERNS_17AuthorizationRuleE@Base 4:4.4.4-2~
 _ZN6Plasma20DenyAllAuthorizationC1Ev@Base 4:4.4.4-2~
 _ZN6Plasma20DenyAllAuthorizationC2Ev@Base 4:4.4.4-2~
 _ZN6Plasma20DenyAllAuthorizationD0Ev@Base 4:4.4.4-2~
 _ZN6Plasma20DenyAllAuthorizationD1Ev@Base 4:4.4.4-2~
 _ZN6Plasma20DenyAllAuthorizationD2Ev@Base 4:4.4.4-2~
 _ZN6Plasma21AbstractDialogManager10showDialogEP7QWidgetPNS_6AppletE@Base 4:4.4.95
 _ZN6Plasma21AbstractDialogManager11qt_metacallEN11QMetaObject4CallEiPPv@Base 4:4.4.95
 _ZN6Plasma21AbstractDialogManager11qt_metacastEPKc@Base 4:4.4.95
 _ZN6Plasma21AbstractDialogManager16staticMetaObjectE@Base 4:4.4.95
 _ZN6Plasma21AbstractDialogManagerC1EPNS_6CoronaE@Base 4:4.4.95
 _ZN6Plasma21AbstractDialogManagerC2EPNS_6CoronaE@Base 4:4.4.95
 _ZN6Plasma21AbstractDialogManagerD0Ev@Base 4:4.4.95
 _ZN6Plasma21AbstractDialogManagerD1Ev@Base 4:4.4.95
 _ZN6Plasma21AbstractDialogManagerD2Ev@Base 4:4.4.95
 _ZN6Plasma22AuthorizationInterfaceC1Ev@Base 4:4.4.4-2~
 _ZN6Plasma22AuthorizationInterfaceC2Ev@Base 4:4.4.4-2~
 _ZN6Plasma22AuthorizationInterfaceD0Ev@Base 4:4.4.4-2~
 _ZN6Plasma22AuthorizationInterfaceD1Ev@Base 4:4.4.4-2~
 _ZN6Plasma22AuthorizationInterfaceD2Ev@Base 4:4.4.4-2~
 _ZN6Plasma23PinPairingAuthorization16clientPinRequestERNS_16ClientPinRequestE@Base 4:4.4.4-2~
 _ZN6Plasma23PinPairingAuthorization20authorizationRequestERNS_17AuthorizationRuleE@Base 4:4.4.4-2~
 _ZN6Plasma23PinPairingAuthorizationC1Ev@Base 4:4.4.4-2~
 _ZN6Plasma23PinPairingAuthorizationC2Ev@Base 4:4.4.4-2~
 _ZN6Plasma23PinPairingAuthorizationD0Ev@Base 4:4.4.4-2~
 _ZN6Plasma23PinPairingAuthorizationD1Ev@Base 4:4.4.4-2~
 _ZN6Plasma23PinPairingAuthorizationD2Ev@Base 4:4.4.4-2~
 _ZN6Plasma24TrustedOnlyAuthorization16clientPinRequestERNS_16ClientPinRequestE@Base 4:4.4.4-2~
 _ZN6Plasma24TrustedOnlyAuthorization20authorizationRequestERNS_17AuthorizationRuleE@Base 4:4.4.4-2~
 _ZN6Plasma24TrustedOnlyAuthorizationC1Ev@Base 4:4.4.4-2~
 _ZN6Plasma24TrustedOnlyAuthorizationC2Ev@Base 4:4.4.4-2~
 _ZN6Plasma24TrustedOnlyAuthorizationD0Ev@Base 4:4.4.4-2~
 _ZN6Plasma24TrustedOnlyAuthorizationD1Ev@Base 4:4.4.4-2~
 _ZN6Plasma24TrustedOnlyAuthorizationD2Ev@Base 4:4.4.4-2~
 _ZN6Plasma25isPluginVersionCompatibleEj@Base 4:4.4.4-2~
 _ZN6Plasma26locationToInverseDirectionENS_8LocationE@Base 4:4.4.4-2~
 _ZN6Plasma31ContainmentActionsPluginsConfig5clearEv@Base 4:4.4.4-2~
 _ZN6Plasma31ContainmentActionsPluginsConfig6removeEP6QEvent@Base 4:4.4.4-2~
 _ZN6Plasma31ContainmentActionsPluginsConfig9addPluginE6QFlagsIN2Qt16KeyboardModifierEENS2_11MouseButtonERK7QString@Base 4:4.4.4-2~
 _ZN6Plasma31ContainmentActionsPluginsConfig9addPluginE6QFlagsIN2Qt16KeyboardModifierEENS2_11OrientationERK7QString@Base 4:4.4.4-2~
 _ZN6Plasma31ContainmentActionsPluginsConfig9addPluginEP6QEventRK7QString@Base 4:4.4.4-2~
 _ZN6Plasma31ContainmentActionsPluginsConfigC1ERKS0_@Base 4:4.4.4-2~
 _ZN6Plasma31ContainmentActionsPluginsConfigC1Ev@Base 4:4.4.4-2~
 _ZN6Plasma31ContainmentActionsPluginsConfigC2ERKS0_@Base 4:4.4.4-2~
 _ZN6Plasma31ContainmentActionsPluginsConfigC2Ev@Base 4:4.4.4-2~
 _ZN6Plasma31ContainmentActionsPluginsConfigD1Ev@Base 4:4.4.4-2~
 _ZN6Plasma31ContainmentActionsPluginsConfigD2Ev@Base 4:4.4.4-2~
 _ZN6Plasma31ContainmentActionsPluginsConfigaSERKS0_@Base 4:4.4.4-2~
 _ZN6Plasma3Svg11qt_metacallEN11QMetaObject4CallEiPPv@Base 4:4.4.4-2~
 _ZN6Plasma3Svg11qt_metacastEPKc@Base 4:4.4.4-2~
 _ZN6Plasma3Svg11sizeChangedEv@Base 4:4.5.86
 _ZN6Plasma3Svg12setImagePathERK7QString@Base 4:4.4.4-2~
 _ZN6Plasma3Svg13repaintNeededEv@Base 4:4.4.4-2~
 _ZN6Plasma3Svg16staticMetaObjectE@Base 4:4.4.4-2~
 _ZN6Plasma3Svg22setUsingRenderingCacheEb@Base 4:4.4.4-2~
 _ZN6Plasma3Svg25setContainsMultipleImagesEb@Base 4:4.4.4-2~
 _ZN6Plasma3Svg5paintEP8QPainterRK6QRectFRK7QString@Base 4:4.4.4-2~
 _ZN6Plasma3Svg5paintEP8QPainterRK7QPointFRK7QString@Base 4:4.4.4-2~
 _ZN6Plasma3Svg5paintEP8QPainteriiRK7QString@Base 4:4.4.4-2~
 _ZN6Plasma3Svg5paintEP8QPainteriiiiRK7QString@Base 4:4.4.4-2~
 _ZN6Plasma3Svg6pixmapERK7QString@Base 4:4.4.4-2~
 _ZN6Plasma3Svg6resizeERK6QSizeF@Base 4:4.4.4-2~
 _ZN6Plasma3Svg6resizeEv@Base 4:4.4.4-2~
 (subst)_ZN6Plasma3Svg6resizeE{qreal}{qreal}@Base 4:4.4.4-2~
 _ZN6Plasma3Svg8setThemeEPNS_5ThemeE@Base 4:4.4.4-2~
 _ZN6Plasma3SvgC1EP7QObject@Base 4:4.4.4-2~
 _ZN6Plasma3SvgC2EP7QObject@Base 4:4.4.4-2~
 _ZN6Plasma3SvgD0Ev@Base 4:4.4.4-2~
 _ZN6Plasma3SvgD1Ev@Base 4:4.4.4-2~
 _ZN6Plasma3SvgD2Ev@Base 4:4.4.4-2~
 _ZN6Plasma4View11qt_metacallEN11QMetaObject4CallEiPPv@Base 4:4.4.4-2~
 _ZN6Plasma4View11qt_metacastEPKc@Base 4:4.4.4-2~
 _ZN6Plasma4View14setContainmentEPNS_11ContainmentE@Base 4:4.4.4-2~
 _ZN6Plasma4View14topLevelViewAtERK6QPoint@Base 4:4.4.4-2~
 _ZN6Plasma4View15lostContainmentEv@Base 4:4.4.4-2~
 _ZN6Plasma4View15swapContainmentEPNS_11ContainmentERK7QStringRK5QListI8QVariantE@Base 4:4.4.4-2~
 _ZN6Plasma4View15swapContainmentERK7QStringRK5QListI8QVariantE@Base 4:4.4.4-2~
 _ZN6Plasma4View16sceneRectChangedEv@Base 4:4.4.4-2~
 _ZN6Plasma4View16staticMetaObjectE@Base 4:4.4.4-2~
 _ZN6Plasma4View19setWallpaperEnabledEb@Base 4:4.4.4-2~
 _ZN6Plasma4View22sceneRectAboutToChangeEv@Base 4:4.4.4-2~
 _ZN6Plasma4View23trackContainmentChangesEv@Base 4:4.4.4-2~
 _ZN6Plasma4View26setTrackContainmentChangesEb@Base 4:4.4.4-2~
 _ZN6Plasma4View9setScreenEii@Base 4:4.4.4-2~
 _ZN6Plasma4ViewC1EPNS_11ContainmentEP7QWidget@Base 4:4.4.4-2~
 _ZN6Plasma4ViewC1EPNS_11ContainmentEiP7QWidget@Base 4:4.4.4-2~
 _ZN6Plasma4ViewC2EPNS_11ContainmentEP7QWidget@Base 4:4.4.4-2~
 _ZN6Plasma4ViewC2EPNS_11ContainmentEiP7QWidget@Base 4:4.4.4-2~
 _ZN6Plasma4ViewD0Ev@Base 4:4.4.4-2~
 _ZN6Plasma4ViewD1Ev@Base 4:4.4.4-2~
 _ZN6Plasma4ViewD2Ev@Base 4:4.4.4-2~
 _ZN6Plasma5Frame11changeEventEP6QEvent@Base 4:4.4.4-2~
 _ZN6Plasma5Frame11qt_metacallEN11QMetaObject4CallEiPPv@Base 4:4.4.4-2~
 _ZN6Plasma5Frame11qt_metacastEPKc@Base 4:4.4.4-2~
 _ZN6Plasma5Frame11resizeEventEP25QGraphicsSceneResizeEvent@Base 4:4.4.4-2~
 _ZN6Plasma5Frame13setStyleSheetERK7QString@Base 4:4.4.4-2~
 _ZN6Plasma5Frame14setFrameShadowENS0_6ShadowE@Base 4:4.4.4-2~
 _ZN6Plasma5Frame16staticMetaObjectE@Base 4:4.4.4-2~
 _ZN6Plasma5Frame17setEnabledBordersE6QFlagsINS_8FrameSvg13EnabledBorderEE@Base 4:4.4.4-2~
 _ZN6Plasma5Frame5paintEP8QPainterPK24QStyleOptionGraphicsItemP7QWidget@Base 4:4.4.4-2~
 _ZN6Plasma5Frame7setTextE7QString@Base 4:4.4.4-2~
 _ZN6Plasma5Frame8setImageERK7QString@Base 4:4.4.4-2~
 _ZN6Plasma5FrameC1EP15QGraphicsWidget@Base 4:4.4.4-2~
 _ZN6Plasma5FrameC2EP15QGraphicsWidget@Base 4:4.4.4-2~
 _ZN6Plasma5FrameD0Ev@Base 4:4.4.4-2~
 _ZN6Plasma5FrameD1Ev@Base 4:4.4.4-2~
 _ZN6Plasma5FrameD2Ev@Base 4:4.4.4-2~
 _ZN6Plasma5Label10itemChangeEN13QGraphicsItem18GraphicsItemChangeERK8QVariant@Base 4:4.4.95
 _ZN6Plasma5Label10styleSheetEv@Base 4:4.4.4-2~
 _ZN6Plasma5Label11changeEventEP6QEvent@Base 4:4.4.4-2~
 _ZN6Plasma5Label11dataUpdatedERK7QStringRK5QHashIS1_8QVariantE@Base 4:4.4.4-2~
 _ZN6Plasma5Label11linkHoveredERK7QString@Base 4:4.4.4-2~
 _ZN6Plasma5Label11qt_metacallEN11QMetaObject4CallEiPPv@Base 4:4.4.4-2~
 _ZN6Plasma5Label11qt_metacastEPKc@Base 4:4.4.4-2~
 _ZN6Plasma5Label11resizeEventEP25QGraphicsSceneResizeEvent@Base 4:4.4.4-2~
 _ZN6Plasma5Label11setWordWrapEb@Base 4:4.4.95
 _ZN6Plasma5Label12setAlignmentE6QFlagsIN2Qt13AlignmentFlagEE@Base 4:4.4.4-2~
 _ZN6Plasma5Label13linkActivatedERK7QString@Base 4:4.4.4-2~
 _ZN6Plasma5Label13setStyleSheetERK7QString@Base 4:4.4.4-2~
 _ZN6Plasma5Label14mouseMoveEventEP24QGraphicsSceneMouseEvent@Base 4:4.4.4-2~
 _ZN6Plasma5Label15mousePressEventEP24QGraphicsSceneMouseEvent@Base 4:4.4.4-2~
 _ZN6Plasma5Label16contextMenuEventEP30QGraphicsSceneContextMenuEvent@Base 4:4.4.4-2~
 _ZN6Plasma5Label16staticMetaObjectE@Base 4:4.4.4-2~
 _ZN6Plasma5Label17setScaledContentsEb@Base 4:4.4.4-2~
 _ZN6Plasma5Label17setTextSelectableEb@Base 4:4.4.4-2~
 _ZN6Plasma5Label5eventEP6QEvent@Base 4:4.4.4-2~
 _ZN6Plasma5Label5paintEP8QPainterPK24QStyleOptionGraphicsItemP7QWidget@Base 4:4.4.4-2~
 _ZN6Plasma5Label7setTextERK7QString@Base 4:4.4.4-2~
 _ZN6Plasma5Label8setImageERK7QString@Base 4:4.4.4-2~
 _ZN6Plasma5LabelC1EP15QGraphicsWidget@Base 4:4.4.4-2~
 _ZN6Plasma5LabelC2EP15QGraphicsWidget@Base 4:4.4.4-2~
 _ZN6Plasma5LabelD0Ev@Base 4:4.4.4-2~
 _ZN6Plasma5LabelD1Ev@Base 4:4.4.4-2~
 _ZN6Plasma5LabelD2Ev@Base 4:4.4.4-2~
 _ZN6Plasma5Meter10setMaximumEi@Base 4:4.4.4-2~
 _ZN6Plasma5Meter10setMinimumEi@Base 4:4.4.4-2~
 _ZN6Plasma5Meter11dataUpdatedERK7QStringRK5QHashIS1_8QVariantE@Base 4:4.4.4-2~
 _ZN6Plasma5Meter11qt_metacallEN11QMetaObject4CallEiPPv@Base 4:4.4.4-2~
 _ZN6Plasma5Meter11qt_metacastEPKc@Base 4:4.4.4-2~
 _ZN6Plasma5Meter12setLabelFontEiRK5QFont@Base 4:4.4.4-2~
 _ZN6Plasma5Meter12setMeterTypeENS0_9MeterTypeE@Base 4:4.4.4-2~
 _ZN6Plasma5Meter12valueChangedERKi@Base 4:4.7.0
 _ZN6Plasma5Meter13setLabelColorEiRK6QColor@Base 4:4.4.4-2~
 _ZN6Plasma5Meter16staticMetaObjectE@Base 4:4.4.4-2~
 _ZN6Plasma5Meter17setLabelAlignmentEi6QFlagsIN2Qt13AlignmentFlagEE@Base 4:4.4.4-2~
 _ZN6Plasma5Meter5paintEP8QPainterPK24QStyleOptionGraphicsItemP7QWidget@Base 4:4.4.4-2~
 _ZN6Plasma5Meter6setSvgERK7QString@Base 4:4.4.4-2~
 _ZN6Plasma5Meter8setLabelEiRK7QString@Base 4:4.4.4-2~
 _ZN6Plasma5Meter8setValueEi@Base 4:4.4.4-2~
 _ZN6Plasma5MeterC1EP13QGraphicsItem@Base 4:4.4.4-2~
 _ZN6Plasma5MeterC2EP13QGraphicsItem@Base 4:4.4.4-2~
 _ZN6Plasma5MeterD0Ev@Base 4:4.4.4-2~
 _ZN6Plasma5MeterD1Ev@Base 4:4.4.4-2~
 _ZN6Plasma5MeterD2Ev@Base 4:4.4.4-2~
 _ZN6Plasma5Theme11findInCacheERK7QStringR7QPixmap@Base 4:4.4.4-2~
 _ZN6Plasma5Theme11findInCacheERK7QStringR7QPixmapj@Base 4:4.4.4-2~
 _ZN6Plasma5Theme11qt_metacallEN11QMetaObject4CallEiPPv@Base 4:4.4.4-2~
 _ZN6Plasma5Theme11qt_metacastEPKc@Base 4:4.4.4-2~
 _ZN6Plasma5Theme12defaultThemeEv@Base 4:4.4.4-2~
 _ZN6Plasma5Theme12setThemeNameERK7QString@Base 4:4.4.4-2~
 _ZN6Plasma5Theme12themeChangedEv@Base 4:4.4.4-2~
 _ZN6Plasma5Theme13listThemeInfoEv@Base 4:4.4.4-2~
 _ZN6Plasma5Theme13setCacheLimitEi@Base 4:4.4.4-2~
 _ZN6Plasma5Theme15insertIntoCacheERK7QStringRK7QPixmap@Base 4:4.4.4-2~
 _ZN6Plasma5Theme15insertIntoCacheERK7QStringRK7QPixmapS3_@Base 4:4.4.4-2~
 _ZN6Plasma5Theme15settingsChangedEv@Base 4:4.4.4-2~
 _ZN6Plasma5Theme16packageStructureEv@Base 4:4.4.4-2~
 _ZN6Plasma5Theme16staticMetaObjectE@Base 4:4.4.4-2~
 _ZN6Plasma5Theme17releaseRectsCacheERK7QString@Base 4:4.4.4-2~
 _ZN6Plasma5Theme20insertIntoRectsCacheERK7QStringS3_RK6QRectF@Base 4:4.4.4-2~
 _ZN6Plasma5Theme20invalidateRectsCacheERK7QString@Base 4:4.4.4-2~
 _ZN6Plasma5Theme20setUseGlobalSettingsEb@Base 4:4.4.4-2~
 _ZN6Plasma5Theme7setFontERK5QFontNS0_8FontRoleE@Base 4:4.4.4-2~
 _ZN6Plasma5ThemeC1EP7QObject@Base 4:4.4.4-2~
 _ZN6Plasma5ThemeC1ERK7QStringP7QObject@Base 4:4.4.4-2~
 _ZN6Plasma5ThemeC2EP7QObject@Base 4:4.4.4-2~
 _ZN6Plasma5ThemeC2ERK7QStringP7QObject@Base 4:4.4.4-2~
 _ZN6Plasma5ThemeD0Ev@Base 4:4.4.4-2~
 _ZN6Plasma5ThemeD1Ev@Base 4:4.4.4-2~
 _ZN6Plasma5ThemeD2Ev@Base 4:4.4.4-2~
 _ZN6Plasma6Applet10itemChangeEN13QGraphicsItem18GraphicsItemChangeERK8QVariant@Base 4:4.4.4-2~
 _ZN6Plasma6Applet10timerEventEP11QTimerEvent@Base 4:4.4.4-2~
 _ZN6Plasma6Applet11eventFilterEP7QObjectP6QEvent@Base 4:4.4.4-2~
 _ZN6Plasma6Applet11qt_metacallEN11QMetaObject4CallEiPPv@Base 4:4.4.4-2~
 _ZN6Plasma6Applet11qt_metacastEPKc@Base 4:4.4.4-2~
 _ZN6Plasma6Applet11resizeEventEP25QGraphicsSceneResizeEvent@Base 4:4.4.4-2~
 _ZN6Plasma6Applet11showMessageERK5QIconRK7QString6QFlagsINS_13MessageButtonEE@Base 4:4.4.4-2~
 _ZN6Plasma6Applet12focusInEventEP11QFocusEvent@Base 4:4.4.4-2~
 _ZN6Plasma6Applet12loadPlasmoidERK7QStringjRK5QListI8QVariantE@Base 4:4.4.4-2~
 _ZN6Plasma6Applet13configChangedEv@Base 4:4.4.4-2~
 _ZN6Plasma6Applet14listAppletInfoERK7QStringS3_@Base 4:4.4.4-2~
 _ZN6Plasma6Applet14listCategoriesERK7QStringb@Base 4:4.4.4-2~
 _ZN6Plasma6Applet14mouseMoveEventEP24QGraphicsSceneMouseEvent@Base 4:4.4.4-2~
 _ZN6Plasma6Applet14paintInterfaceEP8QPainterPK24QStyleOptionGraphicsItemRK5QRect@Base 4:4.4.4-2~
 _ZN6Plasma6Applet15appletDestroyedEPS0_@Base 4:4.4.4-2~
 _ZN6Plasma6Applet15geometryChangedEv@Base 4:4.4.4-2~
 _ZN6Plasma6Applet15hoverEnterEventEP24QGraphicsSceneHoverEvent@Base 4:4.4.4-2~
 _ZN6Plasma6Applet15hoverLeaveEventEP24QGraphicsSceneHoverEvent@Base 4:4.4.4-2~
 _ZN6Plasma6Applet15setImmutabilityENS_16ImmutabilityTypeE@Base 4:4.4.4-2~
 _ZN6Plasma6Applet15sizeHintChangedEN2Qt8SizeHintE@Base 4:4.4.4-2~
 _ZN6Plasma6Applet16constraintsEventE6QFlagsINS_10ConstraintEE@Base 4:4.4.4-2~
 _ZN6Plasma6Applet16customCategoriesEv@Base 4:4.4.4-2~
 _ZN6Plasma6Applet16initExtenderItemEPNS_12ExtenderItemE@Base 4:4.4.4-2~
 _ZN6Plasma6Applet16packageStructureEv@Base 4:4.4.4-2~
 _ZN6Plasma6Applet16paintWindowFrameEP8QPainterPK24QStyleOptionGraphicsItemP7QWidget@Base 4:4.4.4-2~
 _ZN6Plasma6Applet16sceneEventFilterEP13QGraphicsItemP6QEvent@Base 4:4.4.4-2~
 _ZN6Plasma6Applet16staticMetaObjectE@Base 4:4.4.4-2~
 _ZN6Plasma6Applet17configNeedsSavingEv@Base 4:4.4.4-2~
 _ZN6Plasma6Applet17contextualActionsEv@Base 4:4.4.4-2~
 _ZN6Plasma6Applet17setFailedToLaunchEbRK7QString@Base 4:4.4.4-2~
 _ZN6Plasma6Applet17setGlobalShortcutERK9KShortcut@Base 4:4.4.4-2~
 _ZN6Plasma6Applet17updateConstraintsE6QFlagsINS_10ConstraintEE@Base 4:4.4.4-2~
 _ZN6Plasma6Applet18releaseVisualFocusEv@Base 4:4.4.4-2~
 _ZN6Plasma6Applet18setAspectRatioModeENS_15AspectRatioModeE@Base 4:4.4.4-2~
 _ZN6Plasma6Applet18setBackgroundHintsE6QFlagsINS0_14BackgroundHintEE@Base 4:4.4.4-2~
 _ZN6Plasma6Applet19addAssociatedWidgetEP7QWidget@Base 4:4.4.4-2~
 _ZN6Plasma6Applet19immutabilityChangedENS_16ImmutabilityTypeE@Base 4:4.4.4-2~
 _ZN6Plasma6Applet19setCustomCategoriesERK11QStringList@Base 4:4.4.4-2~
 _ZN6Plasma6Applet20extenderItemRestoredEPNS_12ExtenderItemE@Base 4:4.4.4-2~
 _ZN6Plasma6Applet20listAppletInfoForUrlERK4QUrl@Base 4:4.4.4-2~
 _ZN6Plasma6Applet20messageButtonPressedENS_13MessageButtonE@Base 4:4.4.4-2~
 _ZN6Plasma6Applet20registerAsDragHandleEP13QGraphicsItem@Base 4:4.4.4-2~
 _ZN6Plasma6Applet22removeAssociatedWidgetEP7QWidget@Base 4:4.4.4-2~
 _ZN6Plasma6Applet22unregisterAsDragHandleEP13QGraphicsItem@Base 4:4.4.4-2~
 _ZN6Plasma6Applet23appletTransformedByUserEv@Base 4:4.4.4-2~
 _ZN6Plasma6Applet23appletTransformedItselfEv@Base 4:4.4.4-2~
 _ZN6Plasma6Applet24isRegisteredAsDragHandleEP13QGraphicsItem@Base 4:4.4.4-2~
 _ZN6Plasma6Applet24runAssociatedApplicationEv@Base 4:4.4.4-2~
 _ZN6Plasma6Applet24setAssociatedApplicationERK7QString@Base 4:4.4.4-2~
 _ZN6Plasma6Applet24setConfigurationRequiredEbRK7QString@Base 4:4.4.4-2~
 _ZN6Plasma6Applet25listAppletInfoForMimetypeERK7QString@Base 4:4.4.4-2~
 _ZN6Plasma6Applet26showConfigurationInterfaceEP7QWidget@Base 4:4.4.95
 _ZN6Plasma6Applet26showConfigurationInterfaceEv@Base 4:4.4.4-2~
 _ZN6Plasma6Applet28createConfigurationInterfaceEP13KConfigDialog@Base 4:4.4.4-2~
 _ZN6Plasma6Applet28setAssociatedApplicationUrlsERKN4KUrl4ListE@Base 4:4.4.4-2~
 _ZN6Plasma6Applet28setHasConfigurationInterfaceEb@Base 4:4.4.4-2~
 _ZN6Plasma6Applet29flushPendingConstraintsEventsEv@Base 4:4.4.4-2~
 _ZN6Plasma6Applet4initEv@Base 4:4.4.4-2~
 _ZN6Plasma6Applet4loadERK11KPluginInfojRK5QListI8QVariantE@Base 4:4.4.4-2~
 _ZN6Plasma6Applet4loadERK7QStringjRK5QListI8QVariantE@Base 4:4.4.4-2~
 _ZN6Plasma6Applet5lowerEv@Base 4:4.4.4-2~
 _ZN6Plasma6Applet5paintEP8QPainterPK24QStyleOptionGraphicsItemP7QWidget@Base 4:4.4.4-2~
 _ZN6Plasma6Applet5raiseEv@Base 4:4.4.4-2~
 _ZN6Plasma6Applet7destroyEv@Base 4:4.4.4-2~
 _ZN6Plasma6Applet7publishE6QFlagsINS_18AnnouncementMethodEERK7QString@Base 4:4.4.4-2~
 _ZN6Plasma6Applet7restoreER12KConfigGroup@Base 4:4.4.4-2~
 _ZN6Plasma6Applet7setBusyEb@Base 4:4.4.4-2~
 _ZN6Plasma6Applet8activateEv@Base 4:4.4.4-2~
 _ZN6Plasma6Applet8categoryERK11KPluginInfo@Base 4:4.4.4-2~
 _ZN6Plasma6Applet8categoryERK7QString@Base 4:4.4.4-2~
 _ZN6Plasma6Applet9addActionE7QStringP7QAction@Base 4:4.4.4-2~
 _ZN6Plasma6Applet9newStatusENS_10ItemStatusE@Base 4:4.4.4-2~
 _ZN6Plasma6Applet9setStatusENS_10ItemStatusE@Base 4:4.4.4-2~
 _ZN6Plasma6Applet9unpublishEv@Base 4:4.4.4-2~
 _ZN6Plasma6AppletC1EP13QGraphicsItemRK7QStringj@Base 4:4.4.4-2~
 _ZN6Plasma6AppletC1EP13QGraphicsItemRK7QStringjRK5QListI8QVariantE@Base 4:4.4.4-2~
 _ZN6Plasma6AppletC1EP7QObjectRK5QListI8QVariantE@Base 4:4.4.4-2~
 _ZN6Plasma6AppletC1ERK11KPluginInfoP13QGraphicsItemj@Base 4:4.5.86
 _ZN6Plasma6AppletC1ERK7QStringjRK5QListI8QVariantE@Base 4:4.4.4-2~
 _ZN6Plasma6AppletC2EP13QGraphicsItemRK7QStringj@Base 4:4.4.4-2~
 _ZN6Plasma6AppletC2EP13QGraphicsItemRK7QStringjRK5QListI8QVariantE@Base 4:4.4.4-2~
 _ZN6Plasma6AppletC2EP7QObjectRK5QListI8QVariantE@Base 4:4.4.4-2~
 _ZN6Plasma6AppletC2ERK11KPluginInfoP13QGraphicsItemj@Base 4:4.5.86
 _ZN6Plasma6AppletC2ERK7QStringjRK5QListI8QVariantE@Base 4:4.4.4-2~
 _ZN6Plasma6AppletD0Ev@Base 4:4.4.4-2~
 _ZN6Plasma6AppletD1Ev@Base 4:4.4.4-2~
 _ZN6Plasma6AppletD2Ev@Base 4:4.4.4-2~
 _ZN6Plasma6Corona10loadLayoutERK7QString@Base 4:4.4.4-2~
 _ZN6Plasma6Corona11qt_metacallEN11QMetaObject4CallEiPPv@Base 4:4.4.4-2~
 _ZN6Plasma6Corona11qt_metacastEPKc@Base 4:4.4.4-2~
 _ZN6Plasma6Corona12addShortcutsEP17KActionCollection@Base 4:4.4.4-2~
 _ZN6Plasma6Corona12configSyncedEv@Base 4:4.4.4-2~
 _ZN6Plasma6Corona12enableActionERK7QStringb@Base 4:4.4.4-2~
 _ZN6Plasma6Corona12exportLayoutER12KConfigGroup5QListIPNS_11ContainmentEE@Base 4:4.5.86
 _ZN6Plasma6Corona12importLayoutERK11KConfigBase@Base 4:4.4.95
 _ZN6Plasma6Corona12importLayoutERK12KConfigGroup@Base 4:4.5.86
 _ZN6Plasma6Corona12mapAnimationENS_8Animator9AnimationERK7QString@Base 4:4.4.95
 _ZN6Plasma6Corona12mapAnimationENS_8Animator9AnimationES2_@Base 4:4.4.95
 _ZN6Plasma6Corona13dialogManagerEv@Base 4:4.4.95
 _ZN6Plasma6Corona13dragMoveEventEP27QGraphicsSceneDragDropEvent@Base 4:4.4.4-2~
 _ZN6Plasma6Corona13popupPositionEPK13QGraphicsItemRK5QSize@Base 4:4.4.4-2~
 _ZN6Plasma6Corona13popupPositionEPK13QGraphicsItemRK5QSizeN2Qt13AlignmentFlagE@Base 4:4.4.4-2~
 _ZN6Plasma6Corona14addContainmentERK7QStringRK5QListI8QVariantE@Base 4:4.4.4-2~
 _ZN6Plasma6Corona14appletMimeTypeEv@Base 4:4.4.4-2~
 _ZN6Plasma6Corona14dragEnterEventEP27QGraphicsSceneDragDropEvent@Base 4:4.4.4-2~
 _ZN6Plasma6Corona14dragLeaveEventEP27QGraphicsSceneDragDropEvent@Base 4:4.4.4-2~
 _ZN6Plasma6Corona15setImmutabilityENS_16ImmutabilityTypeE@Base 4:4.4.4-2~
 _ZN6Plasma6Corona15updateShortcutsEv@Base 4:4.4.4-2~
 _ZN6Plasma6Corona16containmentAddedEPNS_11ContainmentE@Base 4:4.4.4-2~
 _ZN6Plasma6Corona16initializeLayoutERK7QString@Base 4:4.4.4-2~
 _ZN6Plasma6Corona16setDialogManagerEPNS_21AbstractDialogManagerE@Base 4:4.4.95
 _ZN6Plasma6Corona16shortcutsChangedEv@Base 4:4.4.4-2~
 _ZN6Plasma6Corona16staticMetaObjectE@Base 4:4.4.4-2~
 _ZN6Plasma6Corona17clearContainmentsEv@Base 4:4.4.4-2~
 _ZN6Plasma6Corona17loadDefaultLayoutEv@Base 4:4.4.4-2~
 _ZN6Plasma6Corona17requestConfigSyncEv@Base 4:4.4.4-2~
 _ZN6Plasma6Corona17requireConfigSyncEv@Base 4:4.4.4-2~
 _ZN6Plasma6Corona17setAppletMimeTypeERK7QString@Base 4:4.4.4-2~
 _ZN6Plasma6Corona18addOffscreenWidgetEP15QGraphicsWidget@Base 4:4.4.4-2~
 _ZN6Plasma6Corona18layoutContainmentsEv@Base 4:4.4.95
 _ZN6Plasma6Corona18releaseVisualFocusEv@Base 4:4.4.4-2~
 _ZN6Plasma6Corona18screenOwnerChangedEiiPNS_11ContainmentE@Base 4:4.4.4-2~
 _ZN6Plasma6Corona19immutabilityChangedENS_16ImmutabilityTypeE@Base 4:4.4.4-2~
 _ZN6Plasma6Corona20containmentForScreenEiiRK7QStringRK5QListI8QVariantE@Base 4:4.5.86
 _ZN6Plasma6Corona21addContainmentDelayedERK7QStringRK5QListI8QVariantE@Base 4:4.4.4-2~
 _ZN6Plasma6Corona21removeOffscreenWidgetEP15QGraphicsWidget@Base 4:4.4.4-2~
 _ZN6Plasma6Corona25setPreferredToolBoxPluginENS_11Containment4TypeERK7QString@Base 4:4.5.86
 _ZN6Plasma6Corona26containmentActionsDefaultsENS_11Containment4TypeE@Base 4:4.4.4-2~
 _ZN6Plasma6Corona27setDefaultContainmentPluginERK7QString@Base 4:4.7.0
 _ZN6Plasma6Corona28availableScreenRegionChangedEv@Base 4:4.4.4-2~
 _ZN6Plasma6Corona29setContainmentActionsDefaultsENS_11Containment4TypeERKNS_31ContainmentActionsPluginsConfigE@Base 4:4.4.4-2~
 _ZN6Plasma6Corona9addActionE7QString@Base 4:4.4.4-2~
 _ZN6Plasma6Corona9addActionE7QStringP7QAction@Base 4:4.4.4-2~
 _ZN6Plasma6CoronaC1EP7QObject@Base 4:4.4.4-2~
 _ZN6Plasma6CoronaC2EP7QObject@Base 4:4.4.4-2~
 _ZN6Plasma6CoronaD0Ev@Base 4:4.4.4-2~
 _ZN6Plasma6CoronaD1Ev@Base 4:4.4.4-2~
 _ZN6Plasma6CoronaD2Ev@Base 4:4.4.4-2~
 _ZN6Plasma6Dialog10paintEventEP11QPaintEvent@Base 4:4.4.4-2~
 _ZN6Plasma6Dialog11eventFilterEP7QObjectP6QEvent@Base 4:4.4.4-2~
 _ZN6Plasma6Dialog11qt_metacallEN11QMetaObject4CallEiPPv@Base 4:4.4.4-2~
 _ZN6Plasma6Dialog11qt_metacastEPKc@Base 4:4.4.4-2~
 _ZN6Plasma6Dialog11resizeEventEP12QResizeEvent@Base 4:4.4.4-2~
 _ZN6Plasma6Dialog12animatedHideENS_9DirectionE@Base 4:4.4.4-2~
 _ZN6Plasma6Dialog12animatedShowENS_9DirectionE@Base 4:4.4.4-2~
 _ZN6Plasma6Dialog12focusInEventEP11QFocusEvent@Base 4:4.4.4-2~
 _ZN6Plasma6Dialog13dialogResizedEv@Base 4:4.4.4-2~
 _ZN6Plasma6Dialog13dialogVisibleEb@Base 4:4.4.4-2~
 _ZN6Plasma6Dialog13inControlAreaERK6QPoint@Base 4:4.4.4-2~
 _ZN6Plasma6Dialog13keyPressEventEP9QKeyEvent@Base 4:4.4.4-2~
 _ZN6Plasma6Dialog14graphicsWidgetEv@Base 4:4.4.4-2~
 _ZN6Plasma6Dialog14mouseMoveEventEP11QMouseEvent@Base 4:4.4.4-2~
 _ZN6Plasma6Dialog15mousePressEventEP11QMouseEvent@Base 4:4.4.4-2~
 _ZN6Plasma6Dialog16staticMetaObjectE@Base 4:4.4.4-2~
 _ZN6Plasma6Dialog17mouseReleaseEventEP11QMouseEvent@Base 4:4.4.4-2~
 _ZN6Plasma6Dialog17setGraphicsWidgetEP15QGraphicsWidget@Base 4:4.4.4-2~
 _ZN6Plasma6Dialog18setAspectRatioModeENS_15AspectRatioModeE@Base 4:4.4.4-2~
 _ZN6Plasma6Dialog20syncToGraphicsWidgetEv@Base 4:4.4.95
 _ZN6Plasma6Dialog22getMinimumResizeLimitsEPiS1_S1_S1_@Base 4:4.8.1
 _ZN6Plasma6Dialog22setMinimumResizeLimitsEiiii@Base 4:4.8.1
 _ZN6Plasma6Dialog22setResizeHandleCornersE6QFlagsINS0_12ResizeCornerEE@Base 4:4.4.4-2~
 _ZN6Plasma6Dialog5eventEP6QEvent@Base 4:4.4.4-2~
 _ZN6Plasma6Dialog9hideEventEP10QHideEvent@Base 4:4.4.4-2~
 _ZN6Plasma6Dialog9moveEventEP10QMoveEvent@Base 4:4.4.4-2~
 _ZN6Plasma6Dialog9showEventEP10QShowEvent@Base 4:4.4.4-2~
 _ZN6Plasma6DialogC1EP7QWidget6QFlagsIN2Qt10WindowTypeEE@Base 4:4.4.4-2~
 _ZN6Plasma6DialogC2EP7QWidget6QFlagsIN2Qt10WindowTypeEE@Base 4:4.4.4-2~
 _ZN6Plasma6DialogD0Ev@Base 4:4.4.4-2~
 _ZN6Plasma6DialogD1Ev@Base 4:4.4.4-2~
 _ZN6Plasma6DialogD2Ev@Base 4:4.4.4-2~
 _ZN6Plasma6Slider10setMaximumEi@Base 4:4.4.4-2~
 _ZN6Plasma6Slider10setMinimumEi@Base 4:4.4.4-2~
 _ZN6Plasma6Slider10styleSheetEv@Base 4:4.4.4-2~
 _ZN6Plasma6Slider10wheelEventEP24QGraphicsSceneWheelEvent@Base 4:4.4.4-2~
 _ZN6Plasma6Slider11qt_metacallEN11QMetaObject4CallEiPPv@Base 4:4.4.4-2~
 _ZN6Plasma6Slider11qt_metacastEPKc@Base 4:4.4.4-2~
 _ZN6Plasma6Slider11sliderMovedEi@Base 4:4.4.4-2~
 _ZN6Plasma6Slider12valueChangedEi@Base 4:4.4.4-2~
 _ZN6Plasma6Slider13setStyleSheetERK7QString@Base 4:4.4.4-2~
 _ZN6Plasma6Slider14setOrientationEN2Qt11OrientationE@Base 4:4.4.4-2~
 _ZN6Plasma6Slider16staticMetaObjectE@Base 4:4.4.4-2~
 _ZN6Plasma6Slider5paintEP8QPainterPK24QStyleOptionGraphicsItemP7QWidget@Base 4:4.4.4-2~
 _ZN6Plasma6Slider8setRangeEii@Base 4:4.4.4-2~
 _ZN6Plasma6Slider8setValueEi@Base 4:4.4.4-2~
 _ZN6Plasma6SliderC1EP15QGraphicsWidget@Base 4:4.4.4-2~
 _ZN6Plasma6SliderC2EP15QGraphicsWidget@Base 4:4.4.4-2~
 _ZN6Plasma6SliderD0Ev@Base 4:4.4.4-2~
 _ZN6Plasma6SliderD1Ev@Base 4:4.4.4-2~
 _ZN6Plasma6SliderD2Ev@Base 4:4.4.4-2~
 _ZN6Plasma6TabBar10setTabIconEiRK5QIcon@Base 4:4.4.4-2~
 _ZN6Plasma6TabBar10setTabTextEiRK7QString@Base 4:4.4.4-2~
 _ZN6Plasma6TabBar10wheelEventEP24QGraphicsSceneWheelEvent@Base 4:4.4.4-2~
 _ZN6Plasma6TabBar11changeEventEP6QEvent@Base 4:4.4.4-2~
 _ZN6Plasma6TabBar11qt_metacallEN11QMetaObject4CallEiPPv@Base 4:4.4.4-2~
 _ZN6Plasma6TabBar11qt_metacastEPKc@Base 4:4.4.4-2~
 _ZN6Plasma6TabBar11resizeEventEP25QGraphicsSceneResizeEvent@Base 4:4.4.4-2~
 _ZN6Plasma6TabBar13setStyleSheetERK7QString@Base 4:4.4.4-2~
 _ZN6Plasma6TabBar14currentChangedEi@Base 4:4.4.4-2~
 _ZN6Plasma6TabBar14setTabBarShownEb@Base 4:4.4.4-2~
 _ZN6Plasma6TabBar15setCurrentIndexEi@Base 4:4.4.4-2~
 _ZN6Plasma6TabBar16staticMetaObjectE@Base 4:4.4.4-2~
 _ZN6Plasma6TabBar17setTabHighlightedEib@Base 4:4.7.0
 _ZN6Plasma6TabBar21setLastPositionWidgetEP15QGraphicsWidget@Base 4:4.5.86
 _ZN6Plasma6TabBar22setFirstPositionWidgetEP15QGraphicsWidget@Base 4:4.5.86
 _ZN6Plasma6TabBar5tabAtEi@Base 4:4.4.4-2~
 _ZN6Plasma6TabBar6addTabERK5QIconRK7QStringP19QGraphicsLayoutItem@Base 4:4.4.4-2~
 _ZN6Plasma6TabBar6addTabERK7QStringP19QGraphicsLayoutItem@Base 4:4.4.4-2~
 _ZN6Plasma6TabBar7takeTabEi@Base 4:4.4.4-2~
 _ZN6Plasma6TabBar9insertTabEiRK5QIconRK7QStringP19QGraphicsLayoutItem@Base 4:4.4.4-2~
 _ZN6Plasma6TabBar9insertTabEiRK7QStringP19QGraphicsLayoutItem@Base 4:4.4.4-2~
 _ZN6Plasma6TabBar9removeTabEi@Base 4:4.4.4-2~
 _ZN6Plasma6TabBarC1EP15QGraphicsWidget@Base 4:4.4.4-2~
 _ZN6Plasma6TabBarC2EP15QGraphicsWidget@Base 4:4.4.4-2~
 _ZN6Plasma6TabBarD0Ev@Base 4:4.4.4-2~
 _ZN6Plasma6TabBarD1Ev@Base 4:4.4.4-2~
 _ZN6Plasma6TabBarD2Ev@Base 4:4.4.4-2~
 _ZN6Plasma7Context11qt_metacallEN11QMetaObject4CallEiPPv@Base 4:4.4.4-2~
 _ZN6Plasma7Context11qt_metacastEPKc@Base 4:4.4.4-2~
 _ZN6Plasma7Context14createActivityERK7QString@Base 4:4.4.4-2~
 _ZN6Plasma7Context15activityChangedEPS0_@Base 4:4.4.4-2~
 _ZN6Plasma7Context15locationChangedEPS0_@Base 4:4.4.4-2~
 _ZN6Plasma7Context16staticMetaObjectE@Base 4:4.4.4-2~
 _ZN6Plasma7Context18setCurrentActivityERK7QString@Base 4:4.4.4-2~
 _ZN6Plasma7Context20setCurrentActivityIdERK7QString@Base 4:4.4.95
 _ZN6Plasma7Context7changedEPS0_@Base 4:4.4.4-2~
 _ZN6Plasma7ContextC1EP7QObject@Base 4:4.4.4-2~
 _ZN6Plasma7ContextC2EP7QObject@Base 4:4.4.4-2~
 _ZN6Plasma7ContextD0Ev@Base 4:4.4.4-2~
 _ZN6Plasma7ContextD1Ev@Base 4:4.4.4-2~
 _ZN6Plasma7ContextD2Ev@Base 4:4.4.4-2~
 _ZN6Plasma7Package13createPackageERKNS_15PackageMetadataERK7QStringS6_S6_@Base 4:4.4.4-2~
 _ZN6Plasma7Package13listInstalledERK7QString@Base 4:4.4.4-2~
 _ZN6Plasma7Package14installPackageERK7QStringS3_S3_@Base 4:4.4.4-2~
 _ZN6Plasma7Package15registerPackageERKNS_15PackageMetadataERK7QString@Base 4:4.4.4-2~
 _ZN6Plasma7Package16uninstallPackageERK7QStringS3_S3_@Base 4:4.4.4-2~
 _ZN6Plasma7Package18listInstalledPathsERK7QString@Base 4:4.4.4-2~
 _ZN6Plasma7Package7setPathERK7QString@Base 4:4.4.4-2~
 _ZN6Plasma7PackageC1ERK7QString10KSharedPtrINS_16PackageStructureEE@Base 4:4.4.4-2~
 _ZN6Plasma7PackageC1ERK7QStringS3_10KSharedPtrINS_16PackageStructureEE@Base 4:4.4.4-2~
 _ZN6Plasma7PackageC1ERKS0_@Base 4:4.5.86
 _ZN6Plasma7PackageC1Ev@Base 4:4.5.86
 _ZN6Plasma7PackageC2ERK7QString10KSharedPtrINS_16PackageStructureEE@Base 4:4.4.4-2~
 _ZN6Plasma7PackageC2ERK7QStringS3_10KSharedPtrINS_16PackageStructureEE@Base 4:4.4.4-2~
 _ZN6Plasma7PackageC2ERKS0_@Base 4:4.5.86
 _ZN6Plasma7PackageC2Ev@Base 4:4.5.86
 _ZN6Plasma7PackageD1Ev@Base 4:4.4.4-2~
 _ZN6Plasma7PackageD2Ev@Base 4:4.4.4-2~
 _ZN6Plasma7PackageaSERKS0_@Base 4:4.5.86
 _ZN6Plasma7Service11qt_metacallEN11QMetaObject4CallEiPPv@Base 4:4.4.4-2~
 _ZN6Plasma7Service11qt_metacastEPKc@Base 4:4.4.4-2~
 _ZN6Plasma7Service12serviceReadyEPS0_@Base 4:4.4.4-2~
 _ZN6Plasma7Service13associateItemEP15QGraphicsObjectRK7QString@Base 4:4.8.4
 _ZN6Plasma7Service14setDestinationERK7QString@Base 4:4.4.4-2~
 _ZN6Plasma7Service15associateWidgetEP15QGraphicsWidgetRK7QString@Base 4:4.4.4-2~
 _ZN6Plasma7Service15associateWidgetEP7QWidgetRK7QString@Base 4:4.4.4-2~
 _ZN6Plasma7Service16disassociateItemEP15QGraphicsObject@Base 4:4.8.4
 _ZN6Plasma7Service16staticMetaObjectE@Base 4:4.4.4-2~
 _ZN6Plasma7Service17operationsChangedEv@Base 4:4.4.4-2~
 _ZN6Plasma7Service18disassociateWidgetEP15QGraphicsWidget@Base 4:4.4.4-2~
 _ZN6Plasma7Service18disassociateWidgetEP7QWidget@Base 4:4.4.4-2~
 _ZN6Plasma7Service18startOperationCallERK12KConfigGroupP7QObject@Base 4:4.4.4-2~
 _ZN6Plasma7Service19setOperationEnabledERK7QStringb@Base 4:4.4.4-2~
 _ZN6Plasma7Service19setOperationsSchemeEP9QIODevice@Base 4:4.4.4-2~
 _ZN6Plasma7Service20operationDescriptionERK7QString@Base 4:4.4.4-2~
 _ZN6Plasma7Service24registerOperationsSchemeEv@Base 4:4.4.4-2~
 _ZN6Plasma7Service25parametersFromDescriptionERK12KConfigGroup@Base 4:4.4.4-2~
 _ZN6Plasma7Service4loadERK7QStringP7QObject@Base 4:4.4.4-2~
 _ZN6Plasma7Service4loadERK7QStringRK5QListI8QVariantEP7QObject@Base 4:4.4.95
 _ZN6Plasma7Service6accessERK4KUrlP7QObject@Base 4:4.4.4-2~
 _ZN6Plasma7Service7setNameERK7QString@Base 4:4.4.4-2~
 _ZN6Plasma7Service8finishedEPNS_10ServiceJobE@Base 4:4.4.4-2~
 _ZN6Plasma7ServiceC1EP7QObject@Base 4:4.4.4-2~
 _ZN6Plasma7ServiceC1EP7QObjectRK5QListI8QVariantE@Base 4:4.4.4-2~
 _ZN6Plasma7ServiceC2EP7QObject@Base 4:4.4.4-2~
 _ZN6Plasma7ServiceC2EP7QObjectRK5QListI8QVariantE@Base 4:4.4.4-2~
 _ZN6Plasma7ServiceD0Ev@Base 4:4.4.4-2~
 _ZN6Plasma7ServiceD1Ev@Base 4:4.4.4-2~
 _ZN6Plasma7ServiceD2Ev@Base 4:4.4.4-2~
 _ZN6Plasma7SpinBox10setMaximumEi@Base 4:4.4.4-2~
 _ZN6Plasma7SpinBox10setMinimumEi@Base 4:4.4.4-2~
 _ZN6Plasma7SpinBox10styleSheetEv@Base 4:4.4.4-2~
 _ZN6Plasma7SpinBox11changeEventEP6QEvent@Base 4:4.4.4-2~
 _ZN6Plasma7SpinBox11qt_metacallEN11QMetaObject4CallEiPPv@Base 4:4.4.4-2~
 _ZN6Plasma7SpinBox11qt_metacastEPKc@Base 4:4.4.4-2~
 _ZN6Plasma7SpinBox11resizeEventEP25QGraphicsSceneResizeEvent@Base 4:4.4.4-2~
 _ZN6Plasma7SpinBox11sliderMovedEi@Base 4:4.4.4-2~
 _ZN6Plasma7SpinBox12valueChangedEi@Base 4:4.4.4-2~
 _ZN6Plasma7SpinBox13focusOutEventEP11QFocusEvent@Base 4:4.4.95
 _ZN6Plasma7SpinBox13setStyleSheetERK7QString@Base 4:4.4.4-2~
 _ZN6Plasma7SpinBox15editingFinishedEv@Base 4:4.4.4-2~
 _ZN6Plasma7SpinBox15hoverEnterEventEP24QGraphicsSceneHoverEvent@Base 4:4.4.4-2~
 _ZN6Plasma7SpinBox15hoverLeaveEventEP24QGraphicsSceneHoverEvent@Base 4:4.4.4-2~
 _ZN6Plasma7SpinBox15mousePressEventEP24QGraphicsSceneMouseEvent@Base 4:4.4.95
 _ZN6Plasma7SpinBox16staticMetaObjectE@Base 4:4.4.4-2~
 _ZN6Plasma7SpinBox5paintEP8QPainterPK24QStyleOptionGraphicsItemP7QWidget@Base 4:4.4.4-2~
 _ZN6Plasma7SpinBox8setRangeEii@Base 4:4.4.4-2~
 _ZN6Plasma7SpinBox8setValueEi@Base 4:4.4.4-2~
 _ZN6Plasma7SpinBoxC1EP15QGraphicsWidget@Base 4:4.4.4-2~
 _ZN6Plasma7SpinBoxC2EP15QGraphicsWidget@Base 4:4.4.4-2~
 _ZN6Plasma7SpinBoxD0Ev@Base 4:4.4.4-2~
 _ZN6Plasma7SpinBoxD1Ev@Base 4:4.4.4-2~
 _ZN6Plasma7SpinBoxD2Ev@Base 4:4.4.4-2~
 _ZN6Plasma7WebView10itemChangeEN13QGraphicsItem18GraphicsItemChangeERK8QVariant@Base 4:4.4.4-2~
 _ZN6Plasma7WebView10urlChangedERK4QUrl@Base 4:4.5.86
 _ZN6Plasma7WebView10wheelEventEP24QGraphicsSceneWheelEvent@Base 4:4.4.4-2~
 _ZN6Plasma7WebView11qt_metacallEN11QMetaObject4CallEiPPv@Base 4:4.4.4-2~
 _ZN6Plasma7WebView11qt_metacastEPKc@Base 4:4.4.4-2~
 _ZN6Plasma7WebView11setGeometryERK6QRectF@Base 4:4.4.4-2~
 _ZN6Plasma7WebView12dragToScrollEv@Base 4:4.4.4-2~
 _ZN6Plasma7WebView12focusInEventEP11QFocusEvent@Base 4:4.4.4-2~
 _ZN6Plasma7WebView12loadFinishedEb@Base 4:4.4.4-2~
 _ZN6Plasma7WebView12loadProgressEi@Base 4:4.4.4-2~
 _ZN6Plasma7WebView13dragMoveEventEP27QGraphicsSceneDragDropEvent@Base 4:4.4.4-2~
 _ZN6Plasma7WebView13focusOutEventEP11QFocusEvent@Base 4:4.4.4-2~
 _ZN6Plasma7WebView13keyPressEventEP9QKeyEvent@Base 4:4.4.4-2~
 (subst)_ZN6Plasma7WebView13setZoomFactorE{qreal}@Base 4:4.4.4-2~
 _ZN6Plasma7WebView14dragEnterEventEP27QGraphicsSceneDragDropEvent@Base 4:4.4.4-2~
 _ZN6Plasma7WebView14dragLeaveEventEP27QGraphicsSceneDragDropEvent@Base 4:4.4.4-2~
 _ZN6Plasma7WebView14hoverMoveEventEP24QGraphicsSceneHoverEvent@Base 4:4.4.4-2~
 _ZN6Plasma7WebView14mouseMoveEventEP24QGraphicsSceneMouseEvent@Base 4:4.4.4-2~
 _ZN6Plasma7WebView15keyReleaseEventEP9QKeyEvent@Base 4:4.4.4-2~
 _ZN6Plasma7WebView15mousePressEventEP24QGraphicsSceneMouseEvent@Base 4:4.4.4-2~
 _ZN6Plasma7WebView15setDragToScrollEb@Base 4:4.4.4-2~
 _ZN6Plasma7WebView16contextMenuEventEP30QGraphicsSceneContextMenuEvent@Base 4:4.4.4-2~
 _ZN6Plasma7WebView16staticMetaObjectE@Base 4:4.4.4-2~
 _ZN6Plasma7WebView17mouseReleaseEventEP24QGraphicsSceneMouseEvent@Base 4:4.4.4-2~
 _ZN6Plasma7WebView17setScrollPositionERK7QPointF@Base 4:4.4.4-2~
 _ZN6Plasma7WebView21mouseDoubleClickEventEP24QGraphicsSceneMouseEvent@Base 4:4.4.4-2~
 _ZN6Plasma7WebView4backEv@Base 4:4.5.86
 _ZN6Plasma7WebView4stopEv@Base 4:4.5.86
 _ZN6Plasma7WebView5paintEP8QPainterPK24QStyleOptionGraphicsItemP7QWidget@Base 4:4.4.4-2~
 _ZN6Plasma7WebView6reloadEv@Base 4:4.5.86
 _ZN6Plasma7WebView6setUrlERK4KUrl@Base 4:4.4.4-2~
 _ZN6Plasma7WebView7forwardEv@Base 4:4.5.86
 _ZN6Plasma7WebView7setHtmlERK10QByteArrayRK4KUrl@Base 4:4.4.4-2~
 _ZN6Plasma7WebView7setHtmlERK7QStringRK4KUrl@Base 4:4.4.4-2~
 _ZN6Plasma7WebView7setPageEP8QWebPage@Base 4:4.4.4-2~
 _ZN6Plasma7WebView9dropEventEP27QGraphicsSceneDragDropEvent@Base 4:4.4.4-2~
 _ZN6Plasma7WebViewC1EP13QGraphicsItem@Base 4:4.4.4-2~
 _ZN6Plasma7WebViewC2EP13QGraphicsItem@Base 4:4.4.4-2~
 _ZN6Plasma7WebViewD0Ev@Base 4:4.4.4-2~
 _ZN6Plasma7WebViewD1Ev@Base 4:4.4.4-2~
 _ZN6Plasma7WebViewD2Ev@Base 4:4.4.4-2~
 _ZN6Plasma7versionEv@Base 4:4.4.4-2~
 _ZN6Plasma7viewForEPK13QGraphicsItem@Base 4:4.4.4-2~
 _ZN6Plasma8Animator10timerEventEP11QTimerEvent@Base 4:4.4.4-2~
 _ZN6Plasma8Animator11animateItemEP13QGraphicsItemNS0_9AnimationE@Base 4:4.4.4-2~
 _ZN6Plasma8Animator11qt_metacallEN11QMetaObject4CallEiPPv@Base 4:4.4.4-2~
 _ZN6Plasma8Animator11qt_metacastEPKc@Base 4:4.4.4-2~
 _ZN6Plasma8Animator13currentPixmapEi@Base 4:4.4.4-2~
 _ZN6Plasma8Animator14animateElementEP13QGraphicsItemNS0_9AnimationE@Base 4:4.4.4-2~
 _ZN6Plasma8Animator15customAnimationEiiNS0_10CurveShapeEP7QObjectPKc@Base 4:4.4.4-2~
 _ZN6Plasma8Animator16movementFinishedEP13QGraphicsItem@Base 4:4.4.4-2~
 _ZN6Plasma8Animator16setInitialPixmapEiRK7QPixmap@Base 4:4.4.4-2~
 _ZN6Plasma8Animator16staticMetaObjectE@Base 4:4.4.4-2~
 _ZN6Plasma8Animator16stopItemMovementEi@Base 4:4.4.4-2~
 _ZN6Plasma8Animator17animationFinishedEP13QGraphicsItemNS0_9AnimationE@Base 4:4.4.4-2~
 _ZN6Plasma8Animator17stopItemAnimationEi@Base 4:4.4.4-2~
 _ZN6Plasma8Animator18scrollStateChangedEP15QGraphicsWidgetN18QAbstractAnimation5StateES4_@Base 4:4.4.4-2~
 _ZN6Plasma8Animator19stopCustomAnimationEi@Base 4:4.4.4-2~
 _ZN6Plasma8Animator20stopElementAnimationEi@Base 4:4.4.4-2~
 _ZN6Plasma8Animator23customAnimationFinishedEi@Base 4:4.4.4-2~
 _ZN6Plasma8Animator24elementAnimationFinishedEi@Base 4:4.4.4-2~
 _ZN6Plasma8Animator24registerScrollingManagerEP15QGraphicsWidget@Base 4:4.4.4-2~
 _ZN6Plasma8Animator26unregisterScrollingManagerEP15QGraphicsWidget@Base 4:4.4.4-2~
 _ZN6Plasma8Animator4selfEv@Base 4:4.4.4-2~
 _ZN6Plasma8Animator6createENS0_10CurveShapeE@Base 4:4.4.95
 _ZN6Plasma8Animator6createENS0_9AnimationEP7QObject@Base 4:4.4.4-2~
 _ZN6Plasma8Animator6createERK7QStringP7QObject@Base 4:4.4.95
 _ZN6Plasma8Animator8moveItemEP13QGraphicsItemNS0_8MovementERK6QPoint@Base 4:4.4.4-2~
 _ZN6Plasma8AnimatorC1EP7QObject@Base 4:4.4.4-2~
 _ZN6Plasma8AnimatorC2EP7QObject@Base 4:4.4.4-2~
 _ZN6Plasma8AnimatorD0Ev@Base 4:4.4.4-2~
 _ZN6Plasma8AnimatorD1Ev@Base 4:4.4.4-2~
 _ZN6Plasma8AnimatorD2Ev@Base 4:4.4.4-2~
 _ZN6Plasma8CheckBox10setCheckedEb@Base 4:4.4.4-2~
 _ZN6Plasma8CheckBox10styleSheetEv@Base 4:4.4.4-2~
 _ZN6Plasma8CheckBox11changeEventEP6QEvent@Base 4:4.4.4-2~
 _ZN6Plasma8CheckBox11qt_metacallEN11QMetaObject4CallEiPPv@Base 4:4.4.4-2~
 _ZN6Plasma8CheckBox11qt_metacastEPKc@Base 4:4.4.4-2~
 _ZN6Plasma8CheckBox11resizeEventEP25QGraphicsSceneResizeEvent@Base 4:4.4.4-2~
 _ZN6Plasma8CheckBox13setStyleSheetERK7QString@Base 4:4.4.4-2~
 _ZN6Plasma8CheckBox16staticMetaObjectE@Base 4:4.4.4-2~
 _ZN6Plasma8CheckBox7setTextERK7QString@Base 4:4.4.4-2~
 _ZN6Plasma8CheckBox7toggledEb@Base 4:4.4.4-2~
 _ZN6Plasma8CheckBox8setImageERK7QString@Base 4:4.4.4-2~
 _ZN6Plasma8CheckBoxC1EP15QGraphicsWidget@Base 4:4.4.4-2~
 _ZN6Plasma8CheckBoxC2EP15QGraphicsWidget@Base 4:4.4.4-2~
 _ZN6Plasma8CheckBoxD0Ev@Base 4:4.4.4-2~
 _ZN6Plasma8CheckBoxD1Ev@Base 4:4.4.4-2~
 _ZN6Plasma8CheckBoxD2Ev@Base 4:4.4.4-2~
 _ZN6Plasma8ComboBox10styleSheetEv@Base 4:4.4.4-2~
 _ZN6Plasma8ComboBox11changeEventEP6QEvent@Base 4:4.4.4-2~
 _ZN6Plasma8ComboBox11qt_metacallEN11QMetaObject4CallEiPPv@Base 4:4.4.4-2~
 _ZN6Plasma8ComboBox11qt_metacastEPKc@Base 4:4.4.4-2~
 _ZN6Plasma8ComboBox11resizeEventEP25QGraphicsSceneResizeEvent@Base 4:4.4.4-2~
 _ZN6Plasma8ComboBox11textChangedERK7QString@Base 4:4.4.4-2~
 _ZN6Plasma8ComboBox12focusInEventEP11QFocusEvent@Base 4:4.4.4-2~
 _ZN6Plasma8ComboBox13focusOutEventEP11QFocusEvent@Base 4:4.4.4-2~
 _ZN6Plasma8ComboBox13setStyleSheetERK7QString@Base 4:4.4.4-2~
 _ZN6Plasma8ComboBox15hoverEnterEventEP24QGraphicsSceneHoverEvent@Base 4:4.4.4-2~
 _ZN6Plasma8ComboBox15hoverLeaveEventEP24QGraphicsSceneHoverEvent@Base 4:4.4.4-2~
 _ZN6Plasma8ComboBox15mousePressEventEP24QGraphicsSceneMouseEvent@Base 4:4.4.95
 _ZN6Plasma8ComboBox15setCurrentIndexEi@Base 4:4.5.86
 _ZN6Plasma8ComboBox15setNativeWidgetEP9KComboBox@Base 4:4.4.4-2~
 _ZN6Plasma8ComboBox16staticMetaObjectE@Base 4:4.4.4-2~
 _ZN6Plasma8ComboBox19currentIndexChangedEi@Base 4:4.5.86
 _ZN6Plasma8ComboBox5clearEv@Base 4:4.4.4-2~
 _ZN6Plasma8ComboBox5paintEP8QPainterPK24QStyleOptionGraphicsItemP7QWidget@Base 4:4.4.4-2~
 _ZN6Plasma8ComboBox7addItemERK7QString@Base 4:4.4.4-2~
 _ZN6Plasma8ComboBox9activatedERK7QString@Base 4:4.4.4-2~
 _ZN6Plasma8ComboBoxC1EP15QGraphicsWidget@Base 4:4.4.4-2~
 _ZN6Plasma8ComboBoxC2EP15QGraphicsWidget@Base 4:4.4.4-2~
 _ZN6Plasma8ComboBoxD0Ev@Base 4:4.4.4-2~
 _ZN6Plasma8ComboBoxD1Ev@Base 4:4.4.4-2~
 _ZN6Plasma8ComboBoxD2Ev@Base 4:4.4.4-2~
 _ZN6Plasma8Delegate11qt_metacallEN11QMetaObject4CallEiPPv@Base 4:4.4.4-2~
 _ZN6Plasma8Delegate11qt_metacastEPKc@Base 4:4.4.4-2~
 _ZN6Plasma8Delegate14setRoleMappingENS0_13SpecificRolesEi@Base 4:4.4.4-2~
 _ZN6Plasma8Delegate16staticMetaObjectE@Base 4:4.4.4-2~
 _ZN6Plasma8DelegateC1EP7QObject@Base 4:4.4.4-2~
 _ZN6Plasma8DelegateC2EP7QObject@Base 4:4.4.4-2~
 _ZN6Plasma8DelegateD0Ev@Base 4:4.4.4-2~
 _ZN6Plasma8DelegateD1Ev@Base 4:4.4.4-2~
 _ZN6Plasma8DelegateD2Ev@Base 4:4.4.4-2~
 _ZN6Plasma8Extender10itemChangeEN13QGraphicsItem18GraphicsItemChangeERK8QVariant@Base 4:4.4.4-2~
 _ZN6Plasma8Extender11qt_metacallEN11QMetaObject4CallEiPPv@Base 4:4.4.4-2~
 _ZN6Plasma8Extender11qt_metacastEPKc@Base 4:4.4.4-2~
 _ZN6Plasma8Extender11resizeEventEP25QGraphicsSceneResizeEvent@Base 4:4.4.4-2~
 _ZN6Plasma8Extender12itemAttachedEPNS_12ExtenderItemE@Base 4:4.4.4-2~
 _ZN6Plasma8Extender12itemDetachedEPNS_12ExtenderItemE@Base 4:4.4.4-2~
 _ZN6Plasma8Extender13dragMoveEventEP27QGraphicsSceneDragDropEvent@Base 4:4.4.4-2~
 _ZN6Plasma8Extender13setAppearanceENS0_10AppearanceE@Base 4:4.4.4-2~
 _ZN6Plasma8Extender14dragEnterEventEP27QGraphicsSceneDragDropEvent@Base 4:4.4.4-2~
 _ZN6Plasma8Extender14dragLeaveEventEP27QGraphicsSceneDragDropEvent@Base 4:4.4.4-2~
 _ZN6Plasma8Extender14itemAddedEventEPNS_12ExtenderItemERK7QPointF@Base 4:4.4.4-2~
 _ZN6Plasma8Extender15geometryChangedEv@Base 4:4.4.4-2~
 _ZN6Plasma8Extender15mousePressEventEP24QGraphicsSceneMouseEvent@Base 4:4.4.4-2~
 _ZN6Plasma8Extender16itemRemovedEventEPNS_12ExtenderItemE@Base 4:4.4.4-2~
 _ZN6Plasma8Extender16staticMetaObjectE@Base 4:4.4.4-2~
 _ZN6Plasma8Extender18itemHoverMoveEventEPNS_12ExtenderItemERK7QPointF@Base 4:4.4.4-2~
 _ZN6Plasma8Extender19itemHoverEnterEventEPNS_12ExtenderItemE@Base 4:4.4.4-2~
 _ZN6Plasma8Extender19itemHoverLeaveEventEPNS_12ExtenderItemE@Base 4:4.4.4-2~
 _ZN6Plasma8Extender23setEmptyExtenderMessageERK7QString@Base 4:4.4.4-2~
 _ZN6Plasma8Extender9dropEventEP27QGraphicsSceneDragDropEvent@Base 4:4.4.4-2~
 _ZN6Plasma8Extender9saveStateEv@Base 4:4.4.4-2~
 _ZN6Plasma8ExtenderC1EPNS_6AppletE@Base 4:4.4.4-2~
 _ZN6Plasma8ExtenderC2EPNS_6AppletE@Base 4:4.4.4-2~
 _ZN6Plasma8ExtenderD0Ev@Base 4:4.4.4-2~
 _ZN6Plasma8ExtenderD1Ev@Base 4:4.4.4-2~
 _ZN6Plasma8ExtenderD2Ev@Base 4:4.4.4-2~
 _ZN6Plasma8FrameSvg10clearCacheEv@Base 4:4.4.4-2~
 _ZN6Plasma8FrameSvg10paintFrameEP8QPainterRK6QRectFS5_@Base 4:4.4.4-2~
 _ZN6Plasma8FrameSvg10paintFrameEP8QPainterRK7QPointF@Base 4:4.4.4-2~
 _ZN6Plasma8FrameSvg11framePixmapEv@Base 4:4.4.4-2~
 _ZN6Plasma8FrameSvg11qt_metacallEN11QMetaObject4CallEiPPv@Base 4:4.4.4-2~
 _ZN6Plasma8FrameSvg11qt_metacastEPKc@Base 4:4.4.4-2~
 _ZN6Plasma8FrameSvg11resizeFrameERK6QSizeF@Base 4:4.4.4-2~
 _ZN6Plasma8FrameSvg12setImagePathERK7QString@Base 4:4.4.4-2~
 _ZN6Plasma8FrameSvg16setElementPrefixENS_8LocationE@Base 4:4.4.4-2~
 _ZN6Plasma8FrameSvg16setElementPrefixERK7QString@Base 4:4.4.4-2~
 _ZN6Plasma8FrameSvg16staticMetaObjectE@Base 4:4.4.4-2~
 _ZN6Plasma8FrameSvg17setEnabledBordersE6QFlagsINS0_13EnabledBorderEE@Base 4:4.4.4-2~
 _ZN6Plasma8FrameSvg25setCacheAllRenderedFramesEb@Base 4:4.4.4-2~
 _ZN6Plasma8FrameSvg6prefixEv@Base 4:4.4.4-2~
 _ZN6Plasma8FrameSvgC1EP7QObject@Base 4:4.4.4-2~
 _ZN6Plasma8FrameSvgC2EP7QObject@Base 4:4.4.4-2~
 _ZN6Plasma8FrameSvgD0Ev@Base 4:4.4.4-2~
 _ZN6Plasma8FrameSvgD1Ev@Base 4:4.4.4-2~
 _ZN6Plasma8FrameSvgD2Ev@Base 4:4.4.4-2~
 _ZN6Plasma8GLApplet11bindTextureERK6QImagej@Base 4:4.4.4-2~
 _ZN6Plasma8GLApplet11makeCurrentEv@Base 4:4.4.4-2~
 _ZN6Plasma8GLApplet11qt_metacallEN11QMetaObject4CallEiPPv@Base 4:4.4.4-2~
 _ZN6Plasma8GLApplet11qt_metacastEPKc@Base 4:4.4.4-2~
 _ZN6Plasma8GLApplet13deleteTextureEj@Base 4:4.4.4-2~
 _ZN6Plasma8GLApplet14paintInterfaceEP8QPainterPK24QStyleOptionGraphicsItemRK5QRect@Base 4:4.4.4-2~
 _ZN6Plasma8GLApplet16paintGLInterfaceEP8QPainterPK24QStyleOptionGraphicsItem@Base 4:4.4.4-2~
 _ZN6Plasma8GLApplet16staticMetaObjectE@Base 4:4.4.4-2~
 _ZN6Plasma8GLAppletC1EP13QGraphicsItemRK7QStringi@Base 4:4.4.4-2~
 _ZN6Plasma8GLAppletC1EP7QObjectRK5QListI8QVariantE@Base 4:4.4.4-2~
 _ZN6Plasma8GLAppletC2EP13QGraphicsItemRK7QStringi@Base 4:4.4.4-2~
 _ZN6Plasma8GLAppletC2EP7QObjectRK5QListI8QVariantE@Base 4:4.4.4-2~
 _ZN6Plasma8GLAppletD0Ev@Base 4:4.4.4-2~
 _ZN6Plasma8GLAppletD1Ev@Base 4:4.4.4-2~
 _ZN6Plasma8GLAppletD2Ev@Base 4:4.4.4-2~
 _ZN6Plasma8GroupBox10styleSheetEv@Base 4:4.4.4-2~
 _ZN6Plasma8GroupBox11changeEventEP6QEvent@Base 4:4.4.4-2~
 _ZN6Plasma8GroupBox11qt_metacallEN11QMetaObject4CallEiPPv@Base 4:4.4.4-2~
 _ZN6Plasma8GroupBox11qt_metacastEPKc@Base 4:4.4.4-2~
 _ZN6Plasma8GroupBox11resizeEventEP25QGraphicsSceneResizeEvent@Base 4:4.4.4-2~
 _ZN6Plasma8GroupBox13setStyleSheetERK7QString@Base 4:4.4.4-2~
 _ZN6Plasma8GroupBox16staticMetaObjectE@Base 4:4.4.4-2~
 _ZN6Plasma8GroupBox7setTextERK7QString@Base 4:4.4.4-2~
 _ZN6Plasma8GroupBoxC1EP15QGraphicsWidget@Base 4:4.4.4-2~
 _ZN6Plasma8GroupBoxC2EP15QGraphicsWidget@Base 4:4.4.4-2~
 _ZN6Plasma8GroupBoxD0Ev@Base 4:4.4.4-2~
 _ZN6Plasma8GroupBoxD1Ev@Base 4:4.4.4-2~
 _ZN6Plasma8GroupBoxD2Ev@Base 4:4.4.4-2~
 _ZN6Plasma8LineEdit10styleSheetEv@Base 4:4.4.4-2~
 _ZN6Plasma8LineEdit10textEditedERK7QString@Base 4:4.4.4-2~
 _ZN6Plasma8LineEdit11changeEventEP6QEvent@Base 4:4.4.4-2~
 _ZN6Plasma8LineEdit11qt_metacallEN11QMetaObject4CallEiPPv@Base 4:4.4.4-2~
 _ZN6Plasma8LineEdit11qt_metacastEPKc@Base 4:4.4.4-2~
 _ZN6Plasma8LineEdit11textChangedERK7QString@Base 4:4.4.4-2~
 _ZN6Plasma8LineEdit12focusChangedEb@Base 4:4.7.1
 _ZN6Plasma8LineEdit12focusInEventEP11QFocusEvent@Base 4:4.5.86
 _ZN6Plasma8LineEdit13focusOutEventEP11QFocusEvent@Base 4:4.4.95
 _ZN6Plasma8LineEdit13returnPressedEv@Base 4:4.4.4-2~
 _ZN6Plasma8LineEdit13setStyleSheetERK7QString@Base 4:4.4.4-2~
 _ZN6Plasma8LineEdit15editingFinishedEv@Base 4:4.4.4-2~
 _ZN6Plasma8LineEdit15hoverEnterEventEP24QGraphicsSceneHoverEvent@Base 4:4.4.4-2~
 _ZN6Plasma8LineEdit15hoverLeaveEventEP24QGraphicsSceneHoverEvent@Base 4:4.4.4-2~
 _ZN6Plasma8LineEdit15mousePressEventEP24QGraphicsSceneMouseEvent@Base 4:4.4.95
 _ZN6Plasma8LineEdit15setClickMessageERK7QString@Base 4:4.4.95
 _ZN6Plasma8LineEdit15setNativeWidgetEP9KLineEdit@Base 4:4.4.4-2~
 _ZN6Plasma8LineEdit16staticMetaObjectE@Base 4:4.4.4-2~
 _ZN6Plasma8LineEdit19setClearButtonShownEb@Base 4:4.4.4-2~
 _ZN6Plasma8LineEdit5paintEP8QPainterPK24QStyleOptionGraphicsItemP7QWidget@Base 4:4.4.4-2~
 _ZN6Plasma8LineEdit7setTextERK7QString@Base 4:4.4.4-2~
 _ZN6Plasma8LineEditC1EP15QGraphicsWidget@Base 4:4.4.4-2~
 _ZN6Plasma8LineEditC2EP15QGraphicsWidget@Base 4:4.4.4-2~
 _ZN6Plasma8LineEditD0Ev@Base 4:4.4.4-2~
 _ZN6Plasma8LineEditD1Ev@Base 4:4.4.4-2~
 _ZN6Plasma8LineEditD2Ev@Base 4:4.4.4-2~
 _ZN6Plasma8TextEdit10styleSheetEv@Base 4:4.4.4-2~
 _ZN6Plasma8TextEdit11changeEventEP6QEvent@Base 4:4.4.4-2~
 _ZN6Plasma8TextEdit11dataUpdatedERK7QStringRK5QHashIS1_8QVariantE@Base 4:4.4.4-2~
 _ZN6Plasma8TextEdit11qt_metacallEN11QMetaObject4CallEiPPv@Base 4:4.4.4-2~
 _ZN6Plasma8TextEdit11qt_metacastEPKc@Base 4:4.4.4-2~
 _ZN6Plasma8TextEdit11resizeEventEP25QGraphicsSceneResizeEvent@Base 4:4.4.4-2~
 _ZN6Plasma8TextEdit11setReadOnlyEb@Base 4:4.4.4-2~
 _ZN6Plasma8TextEdit11textChangedEv@Base 4:4.4.4-2~
 _ZN6Plasma8TextEdit13focusOutEventEP11QFocusEvent@Base 4:4.4.95
 _ZN6Plasma8TextEdit13setStyleSheetERK7QString@Base 4:4.4.4-2~
 _ZN6Plasma8TextEdit15mousePressEventEP24QGraphicsSceneMouseEvent@Base 4:4.4.95
 _ZN6Plasma8TextEdit15setNativeWidgetEP9KTextEdit@Base 4:4.4.4-2~
 _ZN6Plasma8TextEdit16contextMenuEventEP30QGraphicsSceneContextMenuEvent@Base 4:4.4.4-2~
 _ZN6Plasma8TextEdit16staticMetaObjectE@Base 4:4.4.4-2~
 _ZN6Plasma8TextEdit6appendERK7QString@Base 4:4.4.4-2~
 _ZN6Plasma8TextEdit7setTextERK7QString@Base 4:4.4.4-2~
 _ZN6Plasma8TextEditC1EP15QGraphicsWidget@Base 4:4.4.4-2~
 _ZN6Plasma8TextEditC2EP15QGraphicsWidget@Base 4:4.4.4-2~
 _ZN6Plasma8TextEditD0Ev@Base 4:4.4.4-2~
 _ZN6Plasma8TextEditD1Ev@Base 4:4.4.4-2~
 _ZN6Plasma8TextEditD2Ev@Base 4:4.4.4-2~
 _ZN6Plasma8TreeView10styleSheetEv@Base 4:4.4.4-2~
 _ZN6Plasma8TreeView11qt_metacallEN11QMetaObject4CallEiPPv@Base 4:4.4.4-2~
 _ZN6Plasma8TreeView11qt_metacastEPKc@Base 4:4.4.4-2~
 _ZN6Plasma8TreeView13setStyleSheetERK7QString@Base 4:4.4.4-2~
 _ZN6Plasma8TreeView16staticMetaObjectE@Base 4:4.4.4-2~
 _ZN6Plasma8TreeView5modelEv@Base 4:4.4.4-2~
 _ZN6Plasma8TreeView8setModelEP18QAbstractItemModel@Base 4:4.4.4-2~
 _ZN6Plasma8TreeViewC1EP15QGraphicsWidget@Base 4:4.4.4-2~
 _ZN6Plasma8TreeViewC2EP15QGraphicsWidget@Base 4:4.4.4-2~
 _ZN6Plasma8TreeViewD0Ev@Base 4:4.4.4-2~
 _ZN6Plasma8TreeViewD1Ev@Base 4:4.4.4-2~
 _ZN6Plasma8TreeViewD2Ev@Base 4:4.4.4-2~
 _ZN6Plasma9Animation11qt_metacallEN11QMetaObject4CallEiPPv@Base 4:4.4.4-2~
 _ZN6Plasma9Animation11qt_metacastEPKc@Base 4:4.4.4-2~
 _ZN6Plasma9Animation11setDurationEi@Base 4:4.4.4-2~
 _ZN6Plasma9Animation14setEasingCurveERK12QEasingCurve@Base 4:4.4.4-2~
 _ZN6Plasma9Animation15setTargetWidgetEP15QGraphicsWidget@Base 4:4.4.4-2~
 _ZN6Plasma9Animation16staticMetaObjectE@Base 4:4.4.4-2~
 _ZN6Plasma9Animation17updateCurrentTimeEi@Base 4:4.4.4-2~
 _ZN6Plasma9AnimationC1EP7QObject@Base 4:4.4.4-2~
 _ZN6Plasma9AnimationC2EP7QObject@Base 4:4.4.4-2~
 _ZN6Plasma9AnimationD0Ev@Base 4:4.4.4-2~
 _ZN6Plasma9AnimationD1Ev@Base 4:4.4.4-2~
 _ZN6Plasma9AnimationD2Ev@Base 4:4.4.4-2~
 _ZN6Plasma9ScrollBar10singleStepEv@Base 4:4.4.4-2~
 _ZN6Plasma9ScrollBar10styleSheetEv@Base 4:4.4.4-2~
 _ZN6Plasma9ScrollBar11qt_metacallEN11QMetaObject4CallEiPPv@Base 4:4.4.4-2~
 _ZN6Plasma9ScrollBar11qt_metacastEPKc@Base 4:4.4.4-2~
 _ZN6Plasma9ScrollBar11setPageStepEi@Base 4:4.4.4-2~
 _ZN6Plasma9ScrollBar11sliderMovedEi@Base 4:4.5.90
 _ZN6Plasma9ScrollBar12valueChangedEi@Base 4:4.4.4-2~
 _ZN6Plasma9ScrollBar13setSingleStepEi@Base 4:4.4.4-2~
 _ZN6Plasma9ScrollBar13setStyleSheetERK7QString@Base 4:4.4.4-2~
 _ZN6Plasma9ScrollBar14setOrientationEN2Qt11OrientationE@Base 4:4.4.4-2~
 _ZN6Plasma9ScrollBar16contextMenuEventEP30QGraphicsSceneContextMenuEvent@Base 4:4.4.4-2~
 _ZN6Plasma9ScrollBar16staticMetaObjectE@Base 4:4.4.4-2~
 _ZN6Plasma9ScrollBar8pageStepEv@Base 4:4.4.4-2~
 _ZN6Plasma9ScrollBar8setRangeEii@Base 4:4.4.4-2~
 _ZN6Plasma9ScrollBar8setValueEi@Base 4:4.4.4-2~
 _ZN6Plasma9ScrollBarC1EP15QGraphicsWidget@Base 4:4.4.4-2~
 _ZN6Plasma9ScrollBarC2EP15QGraphicsWidget@Base 4:4.4.4-2~
 _ZN6Plasma9ScrollBarD0Ev@Base 4:4.4.4-2~
 _ZN6Plasma9ScrollBarD1Ev@Base 4:4.4.4-2~
 _ZN6Plasma9ScrollBarD2Ev@Base 4:4.4.4-2~
 _ZN6Plasma9Separator11orientationEv@Base 4:4.4.4-2~
 _ZN6Plasma9Separator11qt_metacallEN11QMetaObject4CallEiPPv@Base 4:4.4.4-2~
 _ZN6Plasma9Separator11qt_metacastEPKc@Base 4:4.4.4-2~
 _ZN6Plasma9Separator14setOrientationEN2Qt11OrientationE@Base 4:4.4.4-2~
 _ZN6Plasma9Separator16staticMetaObjectE@Base 4:4.4.4-2~
 _ZN6Plasma9Separator5paintEP8QPainterPK24QStyleOptionGraphicsItemP7QWidget@Base 4:4.4.4-2~
 _ZN6Plasma9SeparatorC1EP13QGraphicsItem6QFlagsIN2Qt10WindowTypeEE@Base 4:4.4.4-2~
 _ZN6Plasma9SeparatorC2EP13QGraphicsItem6QFlagsIN2Qt10WindowTypeEE@Base 4:4.4.4-2~
 _ZN6Plasma9SeparatorD0Ev@Base 4:4.4.4-2~
 _ZN6Plasma9SeparatorD1Ev@Base 4:4.4.4-2~
 _ZN6Plasma9SeparatorD2Ev@Base 4:4.4.4-2~
 _ZN6Plasma9SvgWidget11qt_metacallEN11QMetaObject4CallEiPPv@Base 4:4.4.4-2~
 _ZN6Plasma9SvgWidget11qt_metacastEPKc@Base 4:4.4.4-2~
 _ZN6Plasma9SvgWidget12setElementIDERK7QString@Base 4:4.4.4-2~
 _ZN6Plasma9SvgWidget15mousePressEventEP24QGraphicsSceneMouseEvent@Base 4:4.4.95
 _ZN6Plasma9SvgWidget16staticMetaObjectE@Base 4:4.4.4-2~
 _ZN6Plasma9SvgWidget17mouseReleaseEventEP24QGraphicsSceneMouseEvent@Base 4:4.4.4-2~
 _ZN6Plasma9SvgWidget5paintEP8QPainterPK24QStyleOptionGraphicsItemP7QWidget@Base 4:4.4.4-2~
 _ZN6Plasma9SvgWidget6setSvgEPNS_3SvgE@Base 4:4.4.4-2~
 _ZN6Plasma9SvgWidget7clickedEN2Qt11MouseButtonE@Base 4:4.4.4-2~
 _ZN6Plasma9SvgWidgetC1EP13QGraphicsItem6QFlagsIN2Qt10WindowTypeEE@Base 4:4.4.4-2~
 _ZN6Plasma9SvgWidgetC1EPNS_3SvgERK7QStringP13QGraphicsItem6QFlagsIN2Qt10WindowTypeEE@Base 4:4.4.4-2~
 _ZN6Plasma9SvgWidgetC2EP13QGraphicsItem6QFlagsIN2Qt10WindowTypeEE@Base 4:4.4.4-2~
 _ZN6Plasma9SvgWidgetC2EPNS_3SvgERK7QStringP13QGraphicsItem6QFlagsIN2Qt10WindowTypeEE@Base 4:4.4.4-2~
 _ZN6Plasma9SvgWidgetD0Ev@Base 4:4.4.4-2~
 _ZN6Plasma9SvgWidgetD1Ev@Base 4:4.4.4-2~
 _ZN6Plasma9SvgWidgetD2Ev@Base 4:4.4.4-2~
 _ZN6Plasma9Wallpaper10urlDroppedERK4KUrl@Base 4:4.4.4-2~
 _ZN6Plasma9Wallpaper10wheelEventEP24QGraphicsSceneWheelEvent@Base 4:4.4.4-2~
 _ZN6Plasma9Wallpaper11findInCacheERK7QStringR6QImagej@Base 4:4.4.4-2~
 _ZN6Plasma9Wallpaper11qt_metacallEN11QMetaObject4CallEiPPv@Base 4:4.4.4-2~
 _ZN6Plasma9Wallpaper11qt_metacastEPKc@Base 4:4.4.4-2~
 _ZN6Plasma9Wallpaper13setPreviewingEb@Base 4:4.4.95
 _ZN6Plasma9Wallpaper14mouseMoveEventEP24QGraphicsSceneMouseEvent@Base 4:4.4.4-2~
 _ZN6Plasma9Wallpaper15insertIntoCacheERK7QStringRK6QImage@Base 4:4.4.4-2~
 _ZN6Plasma9Wallpaper15mousePressEventEP24QGraphicsSceneMouseEvent@Base 4:4.4.4-2~
 _ZN6Plasma9Wallpaper15renderCompletedERK6QImage@Base 4:4.4.4-2~
 _ZN6Plasma9Wallpaper15setBoundingRectERK6QRectF@Base 4:4.4.4-2~
 _ZN6Plasma9Wallpaper16packageStructureEPS0_@Base 4:4.4.4-2~
 _ZN6Plasma9Wallpaper16setRenderingModeERK7QString@Base 4:4.4.4-2~
 _ZN6Plasma9Wallpaper16staticMetaObjectE@Base 4:4.4.4-2~
 _ZN6Plasma9Wallpaper17configNeedsSavingEv@Base 4:4.4.4-2~
 _ZN6Plasma9Wallpaper17listWallpaperInfoERK7QString@Base 4:4.4.4-2~
 _ZN6Plasma9Wallpaper17mouseReleaseEventEP24QGraphicsSceneMouseEvent@Base 4:4.4.4-2~
 _ZN6Plasma9Wallpaper17setTargetSizeHintERK6QSizeF@Base 4:4.4.4-2~
 _ZN6Plasma9Wallpaper18configureRequestedEv@Base 4:4.4.4-2~
 _ZN6Plasma9Wallpaper18renderHintsChangedEv@Base 4:4.4.4-2~
 _ZN6Plasma9Wallpaper19setResizeMethodHintENS0_12ResizeMethodE@Base 4:4.4.4-2~
 _ZN6Plasma9Wallpaper20setContextualActionsERK5QListIP7QActionE@Base 4:4.4.4-2~
 _ZN6Plasma9Wallpaper21configurationRequiredEb@Base 4:4.4.4-2~
 _ZN6Plasma9Wallpaper22setUsingRenderingCacheEb@Base 4:4.4.4-2~
 _ZN6Plasma9Wallpaper24setConfigurationRequiredEbRK7QString@Base 4:4.4.4-2~
 _ZN6Plasma9Wallpaper28createConfigurationInterfaceEP7QWidget@Base 4:4.4.4-2~
 _ZN6Plasma9Wallpaper28listWallpaperInfoForMimetypeERK7QStringS3_@Base 4:4.4.4-2~
 _ZN6Plasma9Wallpaper29setPreviewDuringConfigurationEb@Base 4:4.5.86
 _ZN6Plasma9Wallpaper4initERK12KConfigGroup@Base 4:4.4.4-2~
 _ZN6Plasma9Wallpaper4loadERK11KPluginInfoRK5QListI8QVariantE@Base 4:4.4.4-2~
 _ZN6Plasma9Wallpaper4loadERK7QStringRK5QListI8QVariantE@Base 4:4.4.4-2~
 _ZN6Plasma9Wallpaper4saveER12KConfigGroup@Base 4:4.4.4-2~
 _ZN6Plasma9Wallpaper6renderERK6QImageRK5QSizeNS0_12ResizeMethodERK6QColor@Base 4:4.7.4
 _ZN6Plasma9Wallpaper6renderERK7QStringRK5QSizeNS0_12ResizeMethodERK6QColor@Base 4:4.4.4-2~
 _ZN6Plasma9Wallpaper6updateERK6QRectF@Base 4:4.4.4-2~
 _ZN6Plasma9Wallpaper7addUrlsERKN4KUrl4ListE@Base 4:4.7.0
 _ZN6Plasma9Wallpaper7restoreERK12KConfigGroup@Base 4:4.4.4-2~
 _ZN6Plasma9Wallpaper7setUrlsERKN4KUrl4ListE@Base 4:4.7.0
 _ZN6Plasma9WallpaperC1EP7QObject@Base 4:4.4.4-2~
 _ZN6Plasma9WallpaperC1EP7QObjectRK5QListI8QVariantE@Base 4:4.4.4-2~
 _ZN6Plasma9WallpaperC2EP7QObject@Base 4:4.4.4-2~
 _ZN6Plasma9WallpaperC2EP7QObjectRK5QListI8QVariantE@Base 4:4.4.4-2~
 _ZN6Plasma9WallpaperD0Ev@Base 4:4.4.4-2~
 _ZN6Plasma9WallpaperD1Ev@Base 4:4.4.4-2~
 _ZN6Plasma9WallpaperD2Ev@Base 4:4.4.4-2~
 (optional=templinst|subst|arch=armel armhf mips mipsel powerpc s390 s390x sparc)_ZNK12KConfigGroup13readListCheckI{qreal}EE5QListIT_EPKcRKS3_@Base 4:4.6.1
 (optional=templinst|arch=amd64 armel armhf hurd-i386 i386 kfreebsd-amd64 kfreebsd-i386)_ZNK12KConfigGroup9readCheckIbEET_PKcRKS1_@Base 4:4.6.2
 (optional=templinst|arch=kfreebsd-amd64 kfreebsd-i386)_ZNK12KConfigGroup9readCheckIiEET_PKcRKS1_@Base 4:4.7.4
 _ZNK5Jolie11MetaService14loadedServicesEv@Base 4:4.4.4-2~
 _ZNK5Jolie11MetaService9isRunningEv@Base 4:4.4.4-2~
 _ZNK5Jolie12PendingReply10isFinishedEv@Base 4:4.4.4-2~
 _ZNK5Jolie12PendingReply5replyEv@Base 4:4.4.4-2~
 _ZNK5Jolie15AbstractAdaptor10metaObjectEv@Base 4:4.4.4-2~
 _ZNK5Jolie18PendingCallWatcher10isFinishedEv@Base 4:4.4.4-2~
 _ZNK5Jolie18PendingCallWatcher10metaObjectEv@Base 4:4.4.4-2~
 _ZNK5Jolie5Fault4dataEv@Base 4:4.4.4-2~
 _ZNK5Jolie5Fault4nameEv@Base 4:4.4.4-2~
 _ZNK5Jolie5Fault7isValidEv@Base 4:4.4.4-2~
 _ZNK5Jolie5Value11isByteArrayEv@Base 4:4.4.4-2~
 _ZNK5Jolie5Value11toByteArrayEv@Base 4:4.4.4-2~
 _ZNK5Jolie5Value13childrenNamesEv@Base 4:4.4.4-2~
 _ZNK5Jolie5Value5isIntEv@Base 4:4.4.4-2~
 _ZNK5Jolie5Value5toIntEv@Base 4:4.4.4-2~
 _ZNK5Jolie5Value7isValidEv@Base 4:4.4.4-2~
 _ZNK5Jolie5Value8childrenERK10QByteArray@Base 4:4.4.4-2~
 _ZNK5Jolie5Value8isDoubleEv@Base 4:4.4.4-2~
 _ZNK5Jolie5Value8toDoubleEv@Base 4:4.4.4-2~
 _ZNK5Jolie6Client11errorStringEv@Base 4:4.4.4-2~
 _ZNK5Jolie6Client5errorEv@Base 4:4.4.4-2~
 _ZNK5Jolie6Server11errorStringEv@Base 4:4.4.4-2~
 _ZNK5Jolie6Server5errorEv@Base 4:4.4.4-2~
 _ZNK5Jolie7Message12resourcePathEv@Base 4:4.4.4-2~
 _ZNK5Jolie7Message13operationNameEv@Base 4:4.4.4-2~
 _ZNK5Jolie7Message2idEv@Base 4:4.4.4-2~
 _ZNK5Jolie7Message4dataEv@Base 4:4.4.4-2~
 _ZNK5Jolie7Message5faultEv@Base 4:4.4.4-2~
 _ZNK6Plasma10BusyWidget10metaObjectEv@Base 4:4.4.4-2~
 _ZNK6Plasma10BusyWidget5labelEv@Base 4:4.4.4-2~
 _ZNK6Plasma10BusyWidget9isRunningEv@Base 4:4.4.4-2~
 _ZNK6Plasma10DataEngine10metaObjectEv@Base 4:4.4.4-2~
 _ZNK6Plasma10DataEngine10pluginNameEv@Base 4:4.4.4-2~
 _ZNK6Plasma10DataEngine13connectSourceERK7QStringP7QObjectjNS_17IntervalAlignmentE@Base 4:4.4.4-2~
 _ZNK6Plasma10DataEngine13containerDictEv@Base 4:4.4.4-2~
 _ZNK6Plasma10DataEngine14maxSourceCountEv@Base 4:4.4.4-2~
 _ZNK6Plasma10DataEngine16disconnectSourceERK7QStringP7QObject@Base 4:4.4.4-2~
 _ZNK6Plasma10DataEngine17connectAllSourcesEP7QObjectjNS_17IntervalAlignmentE@Base 4:4.4.4-2~
 _ZNK6Plasma10DataEngine22minimumPollingIntervalEv@Base 4:4.4.4-2~
 _ZNK6Plasma10DataEngine4iconEv@Base 4:4.4.4-2~
 _ZNK6Plasma10DataEngine4nameEv@Base 4:4.4.4-2~
 _ZNK6Plasma10DataEngine5queryERK7QString@Base 4:4.4.4-2~
 _ZNK6Plasma10DataEngine7isEmptyEv@Base 4:4.4.4-2~
 _ZNK6Plasma10DataEngine7isValidEv@Base 4:4.4.4-2~
 _ZNK6Plasma10DataEngine7packageEv@Base 4:4.4.4-2~
 _ZNK6Plasma10DataEngine7sourcesEv@Base 4:4.4.4-2~
 _ZNK6Plasma10IconAction10isSelectedEv@Base 4:4.4.4-2~
 _ZNK6Plasma10IconAction11isAnimatingEv@Base 4:4.4.95
 _ZNK6Plasma10IconAction4rectEv@Base 4:4.4.4-2~
 _ZNK6Plasma10IconAction5paintEP8QPainter@Base 4:4.4.4-2~
 _ZNK6Plasma10IconAction6actionEv@Base 4:4.4.4-2~
 _ZNK6Plasma10IconAction9isHoveredEv@Base 4:4.4.4-2~
 _ZNK6Plasma10IconAction9isPressedEv@Base 4:4.4.4-2~
 _ZNK6Plasma10IconAction9isVisibleEv@Base 4:4.4.4-2~
 _ZNK6Plasma10IconWidget10metaObjectEv@Base 4:4.4.4-2~
 _ZNK6Plasma10IconWidget11orientationEv@Base 4:4.4.4-2~
 _ZNK6Plasma10IconWidget14drawBackgroundEv@Base 4:4.4.4-2~
 _ZNK6Plasma10IconWidget14invertedLayoutEv@Base 4:4.4.4-2~
 _ZNK6Plasma10IconWidget15maximumIconSizeEv@Base 4:4.4.95
 _ZNK6Plasma10IconWidget15minimumIconSizeEv@Base 4:4.4.95
 (subst)_ZNK6Plasma10IconWidget16sizeFromIconSizeE{qreal}@Base 4:4.4.4-2~
 _ZNK6Plasma10IconWidget17preferredIconSizeEv@Base 4:4.4.95
 _ZNK6Plasma10IconWidget19textBackgroundColorEv@Base 4:4.4.4-2~
 _ZNK6Plasma10IconWidget3svgEv@Base 4:4.4.4-2~
 _ZNK6Plasma10IconWidget4iconEv@Base 4:4.4.4-2~
 _ZNK6Plasma10IconWidget4textEv@Base 4:4.4.4-2~
 _ZNK6Plasma10IconWidget5shapeEv@Base 4:4.4.4-2~
 _ZNK6Plasma10IconWidget6actionEv@Base 4:4.4.4-2~
 _ZNK6Plasma10IconWidget8iconSizeEv@Base 4:4.4.4-2~
 _ZNK6Plasma10IconWidget8infoTextEv@Base 4:4.4.4-2~
 _ZNK6Plasma10IconWidget8sizeHintEN2Qt8SizeHintERK6QSizeF@Base 4:4.4.4-2~
 _ZNK6Plasma10PushButton10metaObjectEv@Base 4:4.4.4-2~
 _ZNK6Plasma10PushButton11isCheckableEv@Base 4:4.4.4-2~
 _ZNK6Plasma10PushButton12nativeWidgetEv@Base 4:4.4.4-2~
 _ZNK6Plasma10PushButton4iconEv@Base 4:4.4.4-2~
 _ZNK6Plasma10PushButton4textEv@Base 4:4.4.4-2~
 _ZNK6Plasma10PushButton5imageEv@Base 4:4.4.4-2~
 _ZNK6Plasma10PushButton6actionEv@Base 4:4.4.4-2~
 _ZNK6Plasma10PushButton6isDownEv@Base 4:4.4.4-2~
 _ZNK6Plasma10PushButton8sizeHintEN2Qt8SizeHintERK6QSizeF@Base 4:4.4.4-2~
 _ZNK6Plasma10PushButton9isCheckedEv@Base 4:4.4.4-2~
 _ZNK6Plasma10QueryMatch14selectedActionEv@Base 4:4.4.4-2~
 _ZNK6Plasma10QueryMatch25hasConfigurationInterfaceEv@Base 4:4.4.4-2~
 _ZNK6Plasma10QueryMatch2idEv@Base 4:4.4.4-2~
 _ZNK6Plasma10QueryMatch3runERKNS_13RunnerContextE@Base 4:4.4.4-2~
 _ZNK6Plasma10QueryMatch4dataEv@Base 4:4.4.4-2~
 _ZNK6Plasma10QueryMatch4iconEv@Base 4:4.4.4-2~
 _ZNK6Plasma10QueryMatch4textEv@Base 4:4.4.4-2~
 _ZNK6Plasma10QueryMatch4typeEv@Base 4:4.4.4-2~
 _ZNK6Plasma10QueryMatch6runnerEv@Base 4:4.4.4-2~
 _ZNK6Plasma10QueryMatch7isValidEv@Base 4:4.4.4-2~
 _ZNK6Plasma10QueryMatch7subtextEv@Base 4:4.4.4-2~
 _ZNK6Plasma10QueryMatch9isEnabledEv@Base 4:4.4.4-2~
 _ZNK6Plasma10QueryMatch9relevanceEv@Base 4:4.4.4-2~
 _ZNK6Plasma10QueryMatcheqERKS0_@Base 4:4.4.4-2~
 _ZNK6Plasma10QueryMatchltERKS0_@Base 4:4.4.4-2~
 _ZNK6Plasma10QueryMatchneERKS0_@Base 4:4.8.4
 _ZNK6Plasma10ServiceJob10metaObjectEv@Base 4:4.4.4-2~
 _ZNK6Plasma10ServiceJob10parametersEv@Base 4:4.4.4-2~
 _ZNK6Plasma10ServiceJob11destinationEv@Base 4:4.4.4-2~
 _ZNK6Plasma10ServiceJob13operationNameEv@Base 4:4.4.4-2~
 _ZNK6Plasma10ServiceJob6resultEv@Base 4:4.4.4-2~
 _ZNK6Plasma10ServiceJob8identityEv@Base 4:4.4.4-2~
 _ZNK6Plasma10ToolButton10metaObjectEv@Base 4:4.4.4-2~
 _ZNK6Plasma10ToolButton12nativeWidgetEv@Base 4:4.4.4-2~
 _ZNK6Plasma10ToolButton15animationUpdateEv@Base 4:4.4.95
 _ZNK6Plasma10ToolButton4iconEv@Base 4:4.4.4-2~
 _ZNK6Plasma10ToolButton4textEv@Base 4:4.4.4-2~
 _ZNK6Plasma10ToolButton5imageEv@Base 4:4.4.4-2~
 _ZNK6Plasma10ToolButton6actionEv@Base 4:4.4.4-2~
 _ZNK6Plasma10ToolButton6isDownEv@Base 4:4.4.4-2~
 _ZNK6Plasma10ToolButton8sizeHintEN2Qt8SizeHintERK6QSizeF@Base 4:4.4.4-2~
 _ZNK6Plasma10ToolButton9autoRaiseEv@Base 4:4.4.4-2~
 _ZNK6Plasma11Containment10lastScreenEv@Base 4:4.4.95
 _ZNK6Plasma11Containment10metaObjectEv@Base 4:4.4.4-2~
 _ZNK6Plasma11Containment11lastDesktopEv@Base 4:4.4.95
 _ZNK6Plasma11Containment11toolBoxItemEv@Base 4:4.4.4-2~
 _ZNK6Plasma11Containment12saveContentsER12KConfigGroup@Base 4:4.4.4-2~
 _ZNK6Plasma11Containment13isToolBoxOpenEv@Base 4:4.4.95
 _ZNK6Plasma11Containment15containmentTypeEv@Base 4:4.4.4-2~
 _ZNK6Plasma11Containment4saveER12KConfigGroup@Base 4:4.4.4-2~
 _ZNK6Plasma11Containment6coronaEv@Base 4:4.4.4-2~
 _ZNK6Plasma11Containment6screenEv@Base 4:4.4.4-2~
 _ZNK6Plasma11Containment7appletsEv@Base 4:4.4.4-2~
 _ZNK6Plasma11Containment7contextEv@Base 4:4.4.95
 _ZNK6Plasma11Containment7desktopEv@Base 4:4.4.4-2~
 _ZNK6Plasma11Containment7toolBoxEv@Base 4:4.4.4-2~
 _ZNK6Plasma11Containment8activityEv@Base 4:4.4.4-2~
 _ZNK6Plasma11Containment9wallpaperEv@Base 4:4.4.4-2~
 _ZNK6Plasma11PopupApplet10metaObjectEv@Base 4:4.4.4-2~
 _ZNK6Plasma11PopupApplet11isIconifiedEv@Base 4:4.5.86
 _ZNK6Plasma11PopupApplet14isPassivePopupEv@Base 4:4.4.4-2~
 _ZNK6Plasma11PopupApplet14isPopupShowingEv@Base 4:4.4.4-2~
 _ZNK6Plasma11PopupApplet14popupAlignmentEv@Base 4:4.5.86
 _ZNK6Plasma11PopupApplet14popupPlacementEv@Base 4:4.4.4-2~
 _ZNK6Plasma11PopupApplet8sizeHintEN2Qt8SizeHintERK6QSizeF@Base 4:4.4.95
 _ZNK6Plasma11PopupApplet9popupIconEv@Base 4:4.4.4-2~
 _ZNK6Plasma11RadioButton10metaObjectEv@Base 4:4.4.4-2~
 _ZNK6Plasma11RadioButton12nativeWidgetEv@Base 4:4.4.4-2~
 _ZNK6Plasma11RadioButton4textEv@Base 4:4.4.4-2~
 _ZNK6Plasma11RadioButton5imageEv@Base 4:4.4.4-2~
 _ZNK6Plasma11RadioButton9isCheckedEv@Base 4:4.4.4-2~
 _ZNK6Plasma11TextBrowser10metaObjectEv@Base 4:4.4.4-2~
 _ZNK6Plasma11TextBrowser12nativeWidgetEv@Base 4:4.4.4-2~
 _ZNK6Plasma11TextBrowser4textEv@Base 4:4.4.4-2~
 _ZNK6Plasma11VideoWidget10metaObjectEv@Base 4:4.4.4-2~
 _ZNK6Plasma11VideoWidget11audioOutputEv@Base 4:4.4.4-2~
 _ZNK6Plasma11VideoWidget11currentTimeEv@Base 4:4.4.4-2~
 _ZNK6Plasma11VideoWidget11mediaObjectEv@Base 4:4.4.4-2~
 _ZNK6Plasma11VideoWidget12nativeWidgetEv@Base 4:4.4.4-2~
 _ZNK6Plasma11VideoWidget12tickIntervalEv@Base 4:4.7.1
 _ZNK6Plasma11VideoWidget12usedControlsEv@Base 4:4.4.4-2~
 _ZNK6Plasma11VideoWidget13remainingTimeEv@Base 4:4.4.4-2~
 _ZNK6Plasma11VideoWidget15controlsVisibleEv@Base 4:4.4.4-2~
 _ZNK6Plasma11VideoWidget3urlEv@Base 4:4.4.4-2~
 _ZNK6Plasma11VideoWidget9totalTimeEv@Base 4:4.4.4-2~
 _ZNK6Plasma12AppletScript10dataEngineERK7QString@Base 4:4.4.4-2~
 _ZNK6Plasma12AppletScript10mainScriptEv@Base 4:4.4.4-2~
 _ZNK6Plasma12AppletScript10metaObjectEv@Base 4:4.4.4-2~
 _ZNK6Plasma12AppletScript10popupEventEb@Base 4:4.4.95
 _ZNK6Plasma12AppletScript11descriptionEv@Base 4:4.4.4-2~
 _ZNK6Plasma12AppletScript13drawWallpaperEv@Base 4:4.7.0
 _ZNK6Plasma12AppletScript15containmentTypeEv@Base 4:4.7.0
 _ZNK6Plasma12AppletScript17configNeedsSavingEv@Base 4:4.4.4-2~
 _ZNK6Plasma12AppletScript4sizeEv@Base 4:4.4.4-2~
 _ZNK6Plasma12AppletScript5shapeEv@Base 4:4.4.4-2~
 _ZNK6Plasma12AppletScript6appletEv@Base 4:4.4.4-2~
 _ZNK6Plasma12AppletScript7packageEv@Base 4:4.4.4-2~
 _ZNK6Plasma12AppletScript8extenderEv@Base 4:4.4.4-2~
 _ZNK6Plasma12AppletScript9saveStateER12KConfigGroup@Base 4:4.4.4-2~
 _ZNK6Plasma12ConfigLoader8hasGroupERK7QString@Base 4:4.4.4-2~
 _ZNK6Plasma12ConfigLoader9groupListEv@Base 4:4.4.4-2~
 _ZNK6Plasma12ExtenderItem10isDetachedEv@Base 4:4.4.4-2~
 _ZNK6Plasma12ExtenderItem10metaObjectEv@Base 4:4.4.4-2~
 _ZNK6Plasma12ExtenderItem11isCollapsedEv@Base 4:4.4.4-2~
 _ZNK6Plasma12ExtenderItem11isTransientEv@Base 4:4.5.86
 _ZNK6Plasma12ExtenderItem15autoExpireDelayEv@Base 4:4.4.4-2~
 _ZNK6Plasma12ExtenderItem4iconEv@Base 4:4.4.4-2~
 _ZNK6Plasma12ExtenderItem4nameEv@Base 4:4.4.4-2~
 _ZNK6Plasma12ExtenderItem5groupEv@Base 4:4.4.4-2~
 _ZNK6Plasma12ExtenderItem5titleEv@Base 4:4.4.4-2~
 _ZNK6Plasma12ExtenderItem6actionERK7QString@Base 4:4.4.4-2~
 _ZNK6Plasma12ExtenderItem6configEv@Base 4:4.4.4-2~
 _ZNK6Plasma12ExtenderItem6widgetEv@Base 4:4.4.4-2~
 _ZNK6Plasma12ExtenderItem7isGroupEv@Base 4:4.4.4-2~
 _ZNK6Plasma12ExtenderItem8extenderEv@Base 4:4.4.4-2~
 _ZNK6Plasma12ExtenderItem8sizeHintEN2Qt8SizeHintERK6QSizeF@Base 4:4.4.4-2~
 _ZNK6Plasma12PluginLoader18internalAppletInfoERK7QString@Base 4:4.5.86
 _ZNK6Plasma12PluginLoader18internalRunnerInfoEv@Base 4:4.5.86
 _ZNK6Plasma12PluginLoader19internalServiceInfoEv@Base 4:4.5.86
 _ZNK6Plasma12PluginLoader22internalDataEngineInfoEv@Base 4:4.5.86
 _ZNK6Plasma12PluginLoader26standardInternalAppletInfoERK7QString@Base 4:4.5.86
 _ZNK6Plasma12PluginLoader26standardInternalRunnerInfoEv@Base 4:4.5.86
 _ZNK6Plasma12PluginLoader27standardInternalServiceInfoEv@Base 4:4.5.86
 _ZNK6Plasma12PluginLoader30standardInternalDataEngineInfoEv@Base 4:4.5.86
 _ZNK6Plasma12RunnerScript10mainScriptEv@Base 4:4.4.4-2~
 _ZNK6Plasma12RunnerScript10metaObjectEv@Base 4:4.4.4-2~
 _ZNK6Plasma12RunnerScript11descriptionEv@Base 4:4.4.4-2~
 _ZNK6Plasma12RunnerScript12serviceQueryERK7QStringS3_@Base 4:4.4.4-2~
 _ZNK6Plasma12RunnerScript6actionERK7QString@Base 4:4.4.4-2~
 _ZNK6Plasma12RunnerScript6configEv@Base 4:4.4.4-2~
 _ZNK6Plasma12RunnerScript6runnerEv@Base 4:4.4.4-2~
 _ZNK6Plasma12RunnerScript7actionsEv@Base 4:4.4.4-2~
 _ZNK6Plasma12RunnerScript7packageEv@Base 4:4.4.4-2~
 _ZNK6Plasma12RunnerSyntax11descriptionEv@Base 4:4.4.4-2~
 _ZNK6Plasma12RunnerSyntax14exampleQueriesEv@Base 4:4.4.4-2~
 _ZNK6Plasma12RunnerSyntax21searchTermDescriptionEv@Base 4:4.4.4-2~
 _ZNK6Plasma12RunnerSyntax33exampleQueriesWithTermDescriptionEv@Base 4:4.4.4-2~
 _ZNK6Plasma12ScriptEngine10mainScriptEv@Base 4:4.4.4-2~
 _ZNK6Plasma12ScriptEngine10metaObjectEv@Base 4:4.4.4-2~
 _ZNK6Plasma12ScriptEngine7packageEv@Base 4:4.4.4-2~
 _ZNK6Plasma12ScrollWidget10metaObjectEv@Base 4:4.4.4-2~
 _ZNK6Plasma12ScrollWidget10styleSheetEv@Base 4:4.4.4-2~
 _ZNK6Plasma12ScrollWidget12contentsSizeEv@Base 4:4.4.4-2~
 _ZNK6Plasma12ScrollWidget12hasOverShootEv@Base 4:4.4.95
 _ZNK6Plasma12ScrollWidget12nativeWidgetEv@Base 4:4.4.4-2~
 _ZNK6Plasma12ScrollWidget14scrollPositionEv@Base 4:4.4.4-2~
 _ZNK6Plasma12ScrollWidget16viewportGeometryEv@Base 4:4.4.4-2~
 _ZNK6Plasma12ScrollWidget22overflowBordersVisibleEv@Base 4:4.5.86
 _ZNK6Plasma12ScrollWidget23verticalScrollBarPolicyEv@Base 4:4.4.4-2~
 _ZNK6Plasma12ScrollWidget25horizontalScrollBarPolicyEv@Base 4:4.4.4-2~
 _ZNK6Plasma12ScrollWidget6widgetEv@Base 4:4.4.4-2~
 _ZNK6Plasma12ScrollWidget8sizeHintEN2Qt8SizeHintERK6QSizeF@Base 4:4.4.4-2~
 _ZNK6Plasma12ScrollWidget8snapSizeEv@Base 4:4.4.95
 _ZNK6Plasma12ScrollWidget9alignmentEv@Base 4:4.4.95
 _ZNK6Plasma13AccessManager10metaObjectEv@Base 4:4.4.4-2~
 _ZNK6Plasma13AccessManager13remoteAppletsEv@Base 4:4.4.4-2~
 _ZNK6Plasma13AccessManager18accessRemoteAppletERK4KUrl@Base 4:4.4.4-2~
 _ZNK6Plasma13DataContainer10metaObjectEv@Base 4:4.4.4-2~
 _ZNK6Plasma13DataContainer15needsToBeStoredEv@Base 4:4.5.86
 _ZNK6Plasma13DataContainer16isStorageEnabledEv@Base 4:4.5.86
 _ZNK6Plasma13DataContainer19timeSinceLastUpdateEv@Base 4:4.4.4-2~
 _ZNK6Plasma13DataContainer24visualizationIsConnectedEP7QObject@Base 4:4.4.4-2~
 _ZNK6Plasma13DataContainer4dataEv@Base 4:4.4.4-2~
 _ZNK6Plasma13ExtenderGroup10metaObjectEv@Base 4:4.4.4-2~
 _ZNK6Plasma13ExtenderGroup14isAutoCollapseEv@Base 4:4.4.4-2~
 _ZNK6Plasma13ExtenderGroup16isGroupCollapsedEv@Base 4:4.4.4-2~
 _ZNK6Plasma13ExtenderGroup5itemsEv@Base 4:4.4.4-2~
 _ZNK6Plasma13ExtenderGroup8autoHideEv@Base 4:4.4.4-2~
 _ZNK6Plasma13FlashingLabel10metaObjectEv@Base 4:4.4.4-2~
 _ZNK6Plasma13FlashingLabel4fontEv@Base 4:4.4.4-2~
 _ZNK6Plasma13FlashingLabel5colorEv@Base 4:4.4.4-2~
 _ZNK6Plasma13FlashingLabel8autohideEv@Base 4:4.4.4-2~
 _ZNK6Plasma13FlashingLabel8durationEv@Base 4:4.4.4-2~
 _ZNK6Plasma13FlashingLabel8sizeHintEN2Qt8SizeHintERK6QSizeF@Base 4:4.4.4-2~
 _ZNK6Plasma13RunnerContext10metaObjectEv@Base 4:4.4.4-2~
 _ZNK6Plasma13RunnerContext21singleRunnerQueryModeEv@Base 4:4.4.4-2~
 _ZNK6Plasma13RunnerContext4typeEv@Base 4:4.4.4-2~
 _ZNK6Plasma13RunnerContext5matchERK7QString@Base 4:4.4.4-2~
 _ZNK6Plasma13RunnerContext5queryEv@Base 4:4.4.4-2~
 _ZNK6Plasma13RunnerContext7isValidEv@Base 4:4.4.4-2~
 _ZNK6Plasma13RunnerContext7matchesEv@Base 4:4.4.4-2~
 _ZNK6Plasma13RunnerContext8mimeTypeEv@Base 4:4.4.4-2~
 _ZNK6Plasma13RunnerManager10metaObjectEv@Base 4:4.4.4-2~
 _ZNK6Plasma13RunnerManager10runnerNameERK7QString@Base 4:4.4.4-2~
 _ZNK6Plasma13RunnerManager10singleModeEv@Base 4:4.4.4-2~
 _ZNK6Plasma13RunnerManager13searchContextEv@Base 4:4.4.4-2~
 _ZNK6Plasma13RunnerManager14allowedRunnersEv@Base 4:4.4.4-2~
 _ZNK6Plasma13RunnerManager16mimeDataForMatchERK7QString@Base 4:4.4.95
 _ZNK6Plasma13RunnerManager16mimeDataForMatchERKNS_10QueryMatchE@Base 4:4.4.95
 _ZNK6Plasma13RunnerManager16singleModeRunnerEv@Base 4:4.4.4-2~
 _ZNK6Plasma13RunnerManager18singleModeRunnerIdEv@Base 4:4.4.4-2~
 _ZNK6Plasma13RunnerManager29singleModeAdvertisedRunnerIdsEv@Base 4:4.4.4-2~
 _ZNK6Plasma13RunnerManager5queryEv@Base 4:4.4.4-2~
 _ZNK6Plasma13RunnerManager6runnerERK7QString@Base 4:4.4.4-2~
 _ZNK6Plasma13RunnerManager7matchesEv@Base 4:4.4.4-2~
 _ZNK6Plasma13RunnerManager7runnersEv@Base 4:4.4.4-2~
 _ZNK6Plasma13SignalPlotter10metaObjectEv@Base 4:4.4.4-2~
 _ZNK6Plasma13SignalPlotter10showLabelsEv@Base 4:4.4.4-2~
 _ZNK6Plasma13SignalPlotter10showTopBarEv@Base 4:4.4.4-2~
 _ZNK6Plasma13SignalPlotter10stackPlotsEv@Base 4:4.4.4-2~
 _ZNK6Plasma13SignalPlotter12useAutoRangeEv@Base 4:4.4.4-2~
 _ZNK6Plasma13SignalPlotter15backgroundColorEv@Base 4:4.4.4-2~
 _ZNK6Plasma13SignalPlotter15horizontalScaleEv@Base 4:4.4.4-2~
 _ZNK6Plasma13SignalPlotter16verticalMaxValueEv@Base 4:4.4.4-2~
 _ZNK6Plasma13SignalPlotter16verticalMinValueEv@Base 4:4.4.4-2~
 _ZNK6Plasma13SignalPlotter17lastValueAsStringEj@Base 4:4.4.4-2~
 _ZNK6Plasma13SignalPlotter17showVerticalLinesEv@Base 4:4.4.4-2~
 _ZNK6Plasma13SignalPlotter18verticalLinesColorEv@Base 4:4.4.4-2~
 _ZNK6Plasma13SignalPlotter19showHorizontalLinesEv@Base 4:4.4.4-2~
 _ZNK6Plasma13SignalPlotter19verticalLinesScrollEv@Base 4:4.4.4-2~
 _ZNK6Plasma13SignalPlotter20horizontalLinesColorEv@Base 4:4.4.4-2~
 _ZNK6Plasma13SignalPlotter20horizontalLinesCountEv@Base 4:4.4.4-2~
 _ZNK6Plasma13SignalPlotter21verticalLinesDistanceEv@Base 4:4.4.4-2~
 _ZNK6Plasma13SignalPlotter4fontEv@Base 4:4.4.4-2~
 _ZNK6Plasma13SignalPlotter4unitEv@Base 4:4.4.4-2~
 _ZNK6Plasma13SignalPlotter5titleEv@Base 4:4.4.4-2~
 _ZNK6Plasma13SignalPlotter8scaledByEv@Base 4:4.4.4-2~
 _ZNK6Plasma13SignalPlotter9fontColorEv@Base 4:4.4.4-2~
 _ZNK6Plasma13SignalPlotter9lastValueEj@Base 4:4.4.4-2~
 _ZNK6Plasma13SignalPlotter9thinFrameEv@Base 4:4.4.4-2~
 _ZNK6Plasma14AbstractRunner10dataEngineERK7QString@Base 4:4.4.4-2~
 _ZNK6Plasma14AbstractRunner10metaObjectEv@Base 4:4.4.4-2~
 _ZNK6Plasma14AbstractRunner11descriptionEv@Base 4:4.4.4-2~
 _ZNK6Plasma14AbstractRunner12ignoredTypesEv@Base 4:4.4.4-2~
 _ZNK6Plasma14AbstractRunner12serviceQueryERK7QStringS3_@Base 4:4.4.4-2~
 _ZNK6Plasma14AbstractRunner13defaultSyntaxEv@Base 4:4.4.4-2~
 _ZNK6Plasma14AbstractRunner19isMatchingSuspendedEv@Base 4:4.5.86
 _ZNK6Plasma14AbstractRunner2idEv@Base 4:4.4.4-2~
 _ZNK6Plasma14AbstractRunner4iconEv@Base 4:4.4.4-2~
 _ZNK6Plasma14AbstractRunner4nameEv@Base 4:4.4.4-2~
 _ZNK6Plasma14AbstractRunner5speedEv@Base 4:4.4.4-2~
 _ZNK6Plasma14AbstractRunner6actionERK7QString@Base 4:4.4.4-2~
 _ZNK6Plasma14AbstractRunner6configEv@Base 4:4.4.4-2~
 _ZNK6Plasma14AbstractRunner7actionsEv@Base 4:4.4.4-2~
 _ZNK6Plasma14AbstractRunner7packageEv@Base 4:4.4.4-2~
 _ZNK6Plasma14AbstractRunner8priorityEv@Base 4:4.4.4-2~
 _ZNK6Plasma14AbstractRunner8syntaxesEv@Base 4:4.4.4-2~
 _ZNK6Plasma14ItemBackground10metaObjectEv@Base 4:4.4.4-2~
 _ZNK6Plasma14ItemBackground10targetItemEv@Base 4:4.4.4-2~
 _ZNK6Plasma14ItemBackground15animationUpdateEv@Base 4:4.4.95
 _ZNK6Plasma14ItemBackground6targetEv@Base 4:4.4.4-2~
 _ZNK6Plasma14ToolTipContent11isClickableEv@Base 4:4.4.4-2~
 _ZNK6Plasma14ToolTipContent14graphicsWidgetEv@Base 4:4.5.86
 _ZNK6Plasma14ToolTipContent14isInstantPopupEv@Base 4:4.7.0
 _ZNK6Plasma14ToolTipContent15windowToPreviewEv@Base 4:4.4.4-2~
 _ZNK6Plasma14ToolTipContent16highlightWindowsEv@Base 4:4.4.4-2~
 _ZNK6Plasma14ToolTipContent16windowsToPreviewEv@Base 4:4.4.4-2~
 _ZNK6Plasma14ToolTipContent17registerResourcesEP13QTextDocument@Base 4:4.4.4-2~
 _ZNK6Plasma14ToolTipContent5imageEv@Base 4:4.4.4-2~
 _ZNK6Plasma14ToolTipContent7isEmptyEv@Base 4:4.4.4-2~
 _ZNK6Plasma14ToolTipContent7subTextEv@Base 4:4.4.4-2~
 _ZNK6Plasma14ToolTipContent8autohideEv@Base 4:4.4.4-2~
 _ZNK6Plasma14ToolTipContent8mainTextEv@Base 4:4.4.4-2~
 _ZNK6Plasma14ToolTipManager10metaObjectEv@Base 4:4.4.4-2~
 _ZNK6Plasma14ToolTipManager5stateEv@Base 4:4.4.4-2~
 _ZNK6Plasma14ToolTipManager9isVisibleEP15QGraphicsWidget@Base 4:4.4.4-2~
 _ZNK6Plasma15AbstractToolBox10metaObjectEv@Base 4:4.4.4-2~
 _ZNK6Plasma15AbstractToolBox11containmentEv@Base 4:4.4.4-2~
 _ZNK6Plasma15AccessAppletJob10metaObjectEv@Base 4:4.4.4-2~
 _ZNK6Plasma15AccessAppletJob6appletEv@Base 4:4.4.4-2~
 _ZNK6Plasma15AnimationDriver10metaObjectEv@Base 4:4.4.4-2~
 _ZNK6Plasma15AnimationDriver12animationFpsENS_8Animator9AnimationE@Base 4:4.4.4-2~
 _ZNK6Plasma15AnimationDriver14animationCurveENS_8Animator9AnimationE@Base 4:4.4.4-2~
 _ZNK6Plasma15AnimationDriver17animationDurationENS_8Animator9AnimationE@Base 4:4.4.4-2~
 _ZNK6Plasma15AnimationDriver19elementAnimationFpsENS_8Animator9AnimationE@Base 4:4.4.4-2~
 _ZNK6Plasma15AnimationDriver20movementAnimationFpsENS_8Animator8MovementE@Base 4:4.4.4-2~
 _ZNK6Plasma15AnimationDriver21elementAnimationCurveENS_8Animator9AnimationE@Base 4:4.4.4-2~
 _ZNK6Plasma15AnimationDriver22movementAnimationCurveENS_8Animator8MovementE@Base 4:4.4.4-2~
 _ZNK6Plasma15AnimationDriver24elementAnimationDurationENS_8Animator9AnimationE@Base 4:4.4.4-2~
 _ZNK6Plasma15AnimationDriver25movementAnimationDurationENS_8Animator8MovementE@Base 4:4.4.4-2~
 _ZNK6Plasma15PackageMetadata10pluginNameEv@Base 4:4.4.4-2~
 _ZNK6Plasma15PackageMetadata11applicationEv@Base 4:4.4.4-2~
 _ZNK6Plasma15PackageMetadata11descriptionEv@Base 4:4.4.4-2~
 _ZNK6Plasma15PackageMetadata11serviceTypeEv@Base 4:4.4.4-2~
 _ZNK6Plasma15PackageMetadata14remoteLocationEv@Base 4:4.4.4-2~
 _ZNK6Plasma15PackageMetadata15requiredVersionEv@Base 4:4.4.4-2~
 _ZNK6Plasma15PackageMetadata17implementationApiEv@Base 4:4.4.4-2~
 _ZNK6Plasma15PackageMetadata4iconEv@Base 4:4.4.95
 _ZNK6Plasma15PackageMetadata4nameEv@Base 4:4.4.4-2~
 _ZNK6Plasma15PackageMetadata4typeEv@Base 4:4.4.4-2~
 _ZNK6Plasma15PackageMetadata5emailEv@Base 4:4.4.4-2~
 _ZNK6Plasma15PackageMetadata5writeERK7QString@Base 4:4.4.4-2~
 _ZNK6Plasma15PackageMetadata6authorEv@Base 4:4.4.4-2~
 _ZNK6Plasma15PackageMetadata7isValidEv@Base 4:4.4.4-2~
 _ZNK6Plasma15PackageMetadata7licenseEv@Base 4:4.4.4-2~
 _ZNK6Plasma15PackageMetadata7versionEv@Base 4:4.4.4-2~
 _ZNK6Plasma15PackageMetadata7websiteEv@Base 4:4.4.4-2~
 _ZNK6Plasma15PackageMetadata8categoryEv@Base 4:4.4.4-2~
 _ZNK6Plasma15PackageMetadata8keywordsEv@Base 4:4.4.4-2~
 _ZNK6Plasma15WallpaperScript10dataEngineERK7QString@Base 4:4.4.4-2~
 _ZNK6Plasma15WallpaperScript10mainScriptEv@Base 4:4.4.4-2~
 _ZNK6Plasma15WallpaperScript10metaObjectEv@Base 4:4.4.4-2~
 _ZNK6Plasma15WallpaperScript11descriptionEv@Base 4:4.4.4-2~
 _ZNK6Plasma15WallpaperScript12boundingRectEv@Base 4:4.4.4-2~
 _ZNK6Plasma15WallpaperScript13isInitializedEv@Base 4:4.4.4-2~
 _ZNK6Plasma15WallpaperScript7packageEv@Base 4:4.4.4-2~
 _ZNK6Plasma15WallpaperScript9wallpaperEv@Base 4:4.4.4-2~
 _ZNK6Plasma16ClientPinRequest10metaObjectEv@Base 4:4.4.4-2~
 _ZNK6Plasma16ClientPinRequest11descriptionEv@Base 4:4.4.4-2~
 _ZNK6Plasma16ClientPinRequest3pinEv@Base 4:4.4.4-2~
 _ZNK6Plasma16DataEngineScript10dataEngineEv@Base 4:4.4.4-2~
 _ZNK6Plasma16DataEngineScript10mainScriptEv@Base 4:4.4.4-2~
 _ZNK6Plasma16DataEngineScript10metaObjectEv@Base 4:4.4.4-2~
 _ZNK6Plasma16DataEngineScript11descriptionEv@Base 4:4.4.4-2~
 _ZNK6Plasma16DataEngineScript13containerDictEv@Base 4:4.4.4-2~
 _ZNK6Plasma16DataEngineScript22minimumPollingIntervalEv@Base 4:4.4.4-2~
 _ZNK6Plasma16DataEngineScript7packageEv@Base 4:4.4.4-2~
 _ZNK6Plasma16DataEngineScript7sourcesEv@Base 4:4.4.4-2~
 _ZNK6Plasma16PackageStructure10isRequiredEPKc@Base 4:4.4.4-2~
 _ZNK6Plasma16PackageStructure10metaObjectEv@Base 4:4.4.4-2~
 _ZNK6Plasma16PackageStructure10searchPathEPKc@Base 4:4.5.86
 _ZNK6Plasma16PackageStructure11directoriesEv@Base 4:4.4.4-2~
 _ZNK6Plasma16PackageStructure13requiredFilesEv@Base 4:4.4.4-2~
 _ZNK6Plasma16PackageStructure13servicePrefixEv@Base 4:4.4.4-2~
 _ZNK6Plasma16PackageStructure14contentsPrefixEv@Base 4:4.4.4-2~
 _ZNK6Plasma16PackageStructure18allowExternalPathsEv@Base 4:4.4.4-2~
 _ZNK6Plasma16PackageStructure18defaultPackageRootEv@Base 4:4.4.4-2~
 _ZNK6Plasma16PackageStructure19contentsPrefixPathsEv@Base 4:4.5.86
 _ZNK6Plasma16PackageStructure19requiredDirectoriesEv@Base 4:4.4.4-2~
 _ZNK6Plasma16PackageStructure4nameEPKc@Base 4:4.4.4-2~
 _ZNK6Plasma16PackageStructure4pathEPKc@Base 4:4.4.4-2~
 _ZNK6Plasma16PackageStructure4pathEv@Base 4:4.4.4-2~
 _ZNK6Plasma16PackageStructure4typeEv@Base 4:4.4.4-2~
 _ZNK6Plasma16PackageStructure5filesEv@Base 4:4.4.4-2~
 _ZNK6Plasma16PackageStructure5writeEP11KConfigBase@Base 4:4.4.4-2~
 _ZNK6Plasma16PackageStructure9mimetypesEPKc@Base 4:4.4.4-2~
 _ZNK6Plasma16PinPairingDialog10metaObjectEv@Base 4:4.4.4-2~
 _ZNK6Plasma16ServiceAccessJob10metaObjectEv@Base 4:4.4.4-2~
 _ZNK6Plasma16ServiceAccessJob7serviceEv@Base 4:4.4.4-2~
 _ZNK6Plasma17AuthorizationRule10metaObjectEv@Base 4:4.4.4-2~
 _ZNK6Plasma17AuthorizationRule11credentialsEv@Base 4:4.4.4-2~
 _ZNK6Plasma17AuthorizationRule11descriptionEv@Base 4:4.4.4-2~
 _ZNK6Plasma17AuthorizationRule11serviceNameEv@Base 4:4.4.4-2~
 _ZNK6Plasma17AuthorizationRule3pinEv@Base 4:4.4.4-2~
 _ZNK6Plasma17DataEngineManager10metaObjectEv@Base 4:4.4.4-2~
 _ZNK6Plasma17DataEngineManager6engineERK7QString@Base 4:4.4.4-2~
 _ZNK6Plasma17DeclarativeWidget10metaObjectEv@Base 4:4.5.86
 _ZNK6Plasma17DeclarativeWidget10rootObjectEv@Base 4:4.5.86
 _ZNK6Plasma17DeclarativeWidget12scriptEngineEv@Base 4:4.7.0
 _ZNK6Plasma17DeclarativeWidget13mainComponentEv@Base 4:4.5.86
 _ZNK6Plasma17DeclarativeWidget23isInitializationDelayedEv@Base 4:4.5.86
 _ZNK6Plasma17DeclarativeWidget7qmlPathEv@Base 4:4.5.86
 _ZNK6Plasma18ContainmentActions10dataEngineERK7QString@Base 4:4.4.4-2~
 _ZNK6Plasma18ContainmentActions10metaObjectEv@Base 4:4.4.4-2~
 _ZNK6Plasma18ContainmentActions10pluginNameEv@Base 4:4.4.4-2~
 _ZNK6Plasma18ContainmentActions13isInitializedEv@Base 4:4.4.4-2~
 _ZNK6Plasma18ContainmentActions21configurationRequiredEv@Base 4:4.4.4-2~
 _ZNK6Plasma18ContainmentActions4iconEv@Base 4:4.4.4-2~
 _ZNK6Plasma18ContainmentActions4nameEv@Base 4:4.4.4-2~
 _ZNK6Plasma20AuthorizationManager10metaObjectEv@Base 4:4.4.4-2~
 _ZNK6Plasma21AbstractDialogManager10metaObjectEv@Base 4:4.4.95
 _ZNK6Plasma3Svg10hasElementERK7QString@Base 4:4.4.4-2~
 _ZNK6Plasma3Svg10metaObjectEv@Base 4:4.4.4-2~
 _ZNK6Plasma3Svg11elementRectERK7QString@Base 4:4.4.4-2~
 _ZNK6Plasma3Svg11elementSizeERK7QString@Base 4:4.4.4-2~
 _ZNK6Plasma3Svg14elementAtPointERK6QPoint@Base 4:4.4.4-2~
 _ZNK6Plasma3Svg21isUsingRenderingCacheEv@Base 4:4.4.4-2~
 _ZNK6Plasma3Svg22containsMultipleImagesEv@Base 4:4.4.4-2~
 _ZNK6Plasma3Svg4sizeEv@Base 4:4.4.4-2~
 _ZNK6Plasma3Svg5themeEv@Base 4:4.4.4-2~
 _ZNK6Plasma3Svg7isValidEv@Base 4:4.4.4-2~
 _ZNK6Plasma3Svg9imagePathEv@Base 4:4.4.4-2~
 _ZNK6Plasma4View10metaObjectEv@Base 4:4.4.4-2~
 _ZNK6Plasma4View11containmentEv@Base 4:4.4.4-2~
 _ZNK6Plasma4View16effectiveDesktopEv@Base 4:4.4.4-2~
 _ZNK6Plasma4View17configNeedsSavingEv@Base 4:4.4.4-2~
 _ZNK6Plasma4View18isWallpaperEnabledEv@Base 4:4.4.4-2~
 _ZNK6Plasma4View2idEv@Base 4:4.4.4-2~
 _ZNK6Plasma4View6configEv@Base 4:4.4.4-2~
 _ZNK6Plasma4View6screenEv@Base 4:4.4.4-2~
 _ZNK6Plasma4View7desktopEv@Base 4:4.4.4-2~
 _ZNK6Plasma5Frame10metaObjectEv@Base 4:4.4.4-2~
 _ZNK6Plasma5Frame10styleSheetEv@Base 4:4.4.4-2~
 _ZNK6Plasma5Frame11frameShadowEv@Base 4:4.4.4-2~
 _ZNK6Plasma5Frame12nativeWidgetEv@Base 4:4.4.4-2~
 _ZNK6Plasma5Frame14enabledBordersEv@Base 4:4.4.4-2~
 _ZNK6Plasma5Frame4textEv@Base 4:4.4.4-2~
 _ZNK6Plasma5Frame5imageEv@Base 4:4.4.4-2~
 _ZNK6Plasma5Frame8sizeHintEN2Qt8SizeHintERK6QSizeF@Base 4:4.4.4-2~
 _ZNK6Plasma5Label10metaObjectEv@Base 4:4.4.4-2~
 _ZNK6Plasma5Label12nativeWidgetEv@Base 4:4.4.4-2~
 _ZNK6Plasma5Label14textSelectableEv@Base 4:4.4.4-2~
 _ZNK6Plasma5Label17hasScaledContentsEv@Base 4:4.4.4-2~
 _ZNK6Plasma5Label4textEv@Base 4:4.4.4-2~
 _ZNK6Plasma5Label5imageEv@Base 4:4.4.4-2~
 _ZNK6Plasma5Label8sizeHintEN2Qt8SizeHintERK6QSizeF@Base 4:4.4.95
 _ZNK6Plasma5Label8wordWrapEv@Base 4:4.4.95
 _ZNK6Plasma5Label9alignmentEv@Base 4:4.4.4-2~
 _ZNK6Plasma5Meter10labelColorEi@Base 4:4.4.4-2~
 _ZNK6Plasma5Meter10metaObjectEv@Base 4:4.4.4-2~
 _ZNK6Plasma5Meter14labelAlignmentEi@Base 4:4.4.4-2~
 _ZNK6Plasma5Meter3svgEv@Base 4:4.4.4-2~
 _ZNK6Plasma5Meter5labelEi@Base 4:4.4.4-2~
 _ZNK6Plasma5Meter5valueEv@Base 4:4.4.4-2~
 _ZNK6Plasma5Meter7maximumEv@Base 4:4.4.4-2~
 _ZNK6Plasma5Meter7minimumEv@Base 4:4.4.4-2~
 _ZNK6Plasma5Meter8sizeHintEN2Qt8SizeHintERK6QSizeF@Base 4:4.4.95
 _ZNK6Plasma5Meter9labelFontEi@Base 4:4.4.4-2~
 _ZNK6Plasma5Meter9labelRectEi@Base 4:4.4.4-2~
 _ZNK6Plasma5Meter9meterTypeEv@Base 4:4.4.4-2~
 _ZNK6Plasma5Theme10metaObjectEv@Base 4:4.4.4-2~
 _ZNK6Plasma5Theme10styleSheetERK7QString@Base 4:4.4.95
 _ZNK6Plasma5Theme11colorSchemeEv@Base 4:4.4.4-2~
 _ZNK6Plasma5Theme11fontMetricsEv@Base 4:4.4.4-2~
 _ZNK6Plasma5Theme12toolTipDelayEv@Base 4:4.8.1
 _ZNK6Plasma5Theme13animationPathERK7QString@Base 4:4.4.95
 _ZNK6Plasma5Theme13wallpaperPathERK5QSize@Base 4:4.4.4-2~
 _ZNK6Plasma5Theme16findInRectsCacheERK7QStringS3_R6QRectF@Base 4:4.4.4-2~
 _ZNK6Plasma5Theme17useGlobalSettingsEv@Base 4:4.4.4-2~
 _ZNK6Plasma5Theme18listCachedRectKeysERK7QString@Base 4:4.5.86
 _ZNK6Plasma5Theme20currentThemeHasImageERK7QString@Base 4:4.4.4-2~
 _ZNK6Plasma5Theme20useNativeWidgetStyleEv@Base 4:4.4.4-2~
 _ZNK6Plasma5Theme25windowTranslucencyEnabledEv@Base 4:4.4.4-2~
 _ZNK6Plasma5Theme4fontENS0_8FontRoleE@Base 4:4.4.4-2~
 _ZNK6Plasma5Theme5colorENS0_9ColorRoleE@Base 4:4.4.4-2~
 _ZNK6Plasma5Theme8homepageEv@Base 4:4.7.0
 _ZNK6Plasma5Theme9imagePathERK7QString@Base 4:4.4.4-2~
 _ZNK6Plasma5Theme9themeNameEv@Base 4:4.4.4-2~
 _ZNK6Plasma6Applet10dataEngineERK7QString@Base 4:4.4.4-2~
 _ZNK6Plasma6Applet10formFactorEv@Base 4:4.4.4-2~
 _ZNK6Plasma6Applet10metaObjectEv@Base 4:4.4.4-2~
 _ZNK6Plasma6Applet10pluginNameEv@Base 4:4.4.4-2~
 _ZNK6Plasma6Applet10screenRectEv@Base 4:4.4.4-2~
 _ZNK6Plasma6Applet11containmentEv@Base 4:4.4.4-2~
 _ZNK6Plasma6Applet11isPublishedEv@Base 4:4.4.4-2~
 _ZNK6Plasma6Applet11mapFromViewEPK13QGraphicsViewRK5QRect@Base 4:4.4.4-2~
 _ZNK6Plasma6Applet12configSchemeEv@Base 4:4.4.4-2~
 _ZNK6Plasma6Applet12globalConfigEv@Base 4:4.4.4-2~
 _ZNK6Plasma6Applet12immutabilityEv@Base 4:4.4.4-2~
 _ZNK6Plasma6Applet13isContainmentEv@Base 4:4.4.4-2~
 _ZNK6Plasma6Applet13popupPositionERK5QSize@Base 4:4.4.4-2~
 _ZNK6Plasma6Applet13popupPositionERK5QSizeN2Qt13AlignmentFlagE@Base 4:4.4.4-2~
 _ZNK6Plasma6Applet14globalShortcutEv@Base 4:4.4.4-2~
 _ZNK6Plasma6Applet14isPopupShowingEv@Base 4:4.4.4-2~
 _ZNK6Plasma6Applet15aspectRatioModeEv@Base 4:4.4.4-2~
 _ZNK6Plasma6Applet15backgroundHintsEv@Base 4:4.4.4-2~
 _ZNK6Plasma6Applet16hasAuthorizationERK7QString@Base 4:4.4.4-2~
 _ZNK6Plasma6Applet16startupArgumentsEv@Base 4:4.4.4-2~
 _ZNK6Plasma6Applet17hasFailedToLaunchEv@Base 4:4.4.4-2~
 _ZNK6Plasma6Applet17isUserConfiguringEv@Base 4:4.4.95
 _ZNK6Plasma6Applet21associatedApplicationEv@Base 4:4.4.4-2~
 _ZNK6Plasma6Applet21configurationRequiredEv@Base 4:4.4.4-2~
 _ZNK6Plasma6Applet23shouldConserveResourcesEv@Base 4:4.4.4-2~
 _ZNK6Plasma6Applet25associatedApplicationUrlsEv@Base 4:4.4.4-2~
 _ZNK6Plasma6Applet25hasConfigurationInterfaceEv@Base 4:4.4.4-2~
 _ZNK6Plasma6Applet29hasValidAssociatedApplicationEv@Base 4:4.4.4-2~
 _ZNK6Plasma6Applet2idEv@Base 4:4.4.4-2~
 _ZNK6Plasma6Applet4fontEv@Base 4:4.4.4-2~
 _ZNK6Plasma6Applet4iconEv@Base 4:4.4.4-2~
 _ZNK6Plasma6Applet4nameEv@Base 4:4.4.4-2~
 _ZNK6Plasma6Applet4saveER12KConfigGroup@Base 4:4.4.4-2~
 _ZNK6Plasma6Applet4typeEv@Base 4:4.4.4-2~
 _ZNK6Plasma6Applet4viewEv@Base 4:4.4.4-2~
 _ZNK6Plasma6Applet5shapeEv@Base 4:4.4.4-2~
 _ZNK6Plasma6Applet6actionE7QString@Base 4:4.4.4-2~
 _ZNK6Plasma6Applet6configERK7QString@Base 4:4.4.4-2~
 _ZNK6Plasma6Applet6configEv@Base 4:4.4.4-2~
 _ZNK6Plasma6Applet6isBusyEv@Base 4:4.4.4-2~
 _ZNK6Plasma6Applet6statusEv@Base 4:4.4.4-2~
 _ZNK6Plasma6Applet7contextEv@Base 4:4.4.4-2~
 _ZNK6Plasma6Applet7packageEv@Base 4:4.4.4-2~
 _ZNK6Plasma6Applet8categoryEv@Base 4:4.4.4-2~
 _ZNK6Plasma6Applet8extenderEv@Base 4:4.4.4-2~
 _ZNK6Plasma6Applet8locationEv@Base 4:4.4.4-2~
 _ZNK6Plasma6Applet8sizeHintEN2Qt8SizeHintERK6QSizeF@Base 4:4.4.4-2~
 _ZNK6Plasma6Applet9destroyedEv@Base 4:4.4.4-2~
 _ZNK6Plasma6Applet9mapToViewEPK13QGraphicsViewRK6QRectF@Base 4:4.4.4-2~
 _ZNK6Plasma6Applet9saveStateER12KConfigGroup@Base 4:4.4.4-2~
 _ZNK6Plasma6Corona10metaObjectEv@Base 4:4.4.4-2~
 _ZNK6Plasma6Corona10numScreensEv@Base 4:4.4.4-2~
 _ZNK6Plasma6Corona10saveLayoutERK7QString@Base 4:4.4.4-2~
 _ZNK6Plasma6Corona12containmentsEv@Base 4:4.4.4-2~
 _ZNK6Plasma6Corona12immutabilityEv@Base 4:4.4.4-2~
 _ZNK6Plasma6Corona14screenGeometryEi@Base 4:4.4.4-2~
 _ZNK6Plasma6Corona16offscreenWidgetsEv@Base 4:4.4.4-2~
 _ZNK6Plasma6Corona20containmentForScreenEii@Base 4:4.4.4-2~
 _ZNK6Plasma6Corona21availableScreenRegionEi@Base 4:4.4.4-2~
 _ZNK6Plasma6Corona22preferredToolBoxPluginENS_11Containment4TypeE@Base 4:4.5.86
 _ZNK6Plasma6Corona24defaultContainmentPluginEv@Base 4:4.7.0
 _ZNK6Plasma6Corona6actionE7QString@Base 4:4.4.4-2~
 _ZNK6Plasma6Corona6configEv@Base 4:4.4.4-2~
 _ZNK6Plasma6Corona7actionsEv@Base 4:4.4.4-2~
 _ZNK6Plasma6Corona9freeEdgesEi@Base 4:4.4.4-2~
 _ZNK6Plasma6Dialog10metaObjectEv@Base 4:4.4.4-2~
 _ZNK6Plasma6Dialog13resizeCornersEv@Base 4:4.4.4-2~
 _ZNK6Plasma6Dialog14isUserResizingEv@Base 4:4.8.1
 _ZNK6Plasma6Dialog15aspectRatioModeEv@Base 4:4.4.4-2~
 _ZNK6Plasma6Slider10metaObjectEv@Base 4:4.4.4-2~
 _ZNK6Plasma6Slider11orientationEv@Base 4:4.4.4-2~
 _ZNK6Plasma6Slider12nativeWidgetEv@Base 4:4.4.4-2~
 _ZNK6Plasma6Slider5valueEv@Base 4:4.4.4-2~
 _ZNK6Plasma6Slider7maximumEv@Base 4:4.4.4-2~
 _ZNK6Plasma6Slider7minimumEv@Base 4:4.4.4-2~
 _ZNK6Plasma6TabBar10metaObjectEv@Base 4:4.4.4-2~
 _ZNK6Plasma6TabBar10styleSheetEv@Base 4:4.4.4-2~
 _ZNK6Plasma6TabBar12currentIndexEv@Base 4:4.4.4-2~
 _ZNK6Plasma6TabBar12nativeWidgetEv@Base 4:4.4.4-2~
 _ZNK6Plasma6TabBar13isTabBarShownEv@Base 4:4.4.4-2~
 _ZNK6Plasma6TabBar16isTabHighlightedEi@Base 4:4.7.0
 _ZNK6Plasma6TabBar18lastPositionWidgetEv@Base 4:4.5.86
 _ZNK6Plasma6TabBar19firstPositionWidgetEv@Base 4:4.5.86
 _ZNK6Plasma6TabBar5countEv@Base 4:4.4.4-2~
 _ZNK6Plasma6TabBar7tabIconEi@Base 4:4.4.4-2~
 _ZNK6Plasma6TabBar7tabTextEi@Base 4:4.4.4-2~
 _ZNK6Plasma7Context10metaObjectEv@Base 4:4.4.4-2~
 _ZNK6Plasma7Context14listActivitiesEv@Base 4:4.4.4-2~
 _ZNK6Plasma7Context15currentActivityEv@Base 4:4.4.4-2~
 _ZNK6Plasma7Context17currentActivityIdEv@Base 4:4.4.95
 _ZNK6Plasma7Package12contentsHashEv@Base 4:4.4.4-2~
 _ZNK6Plasma7Package4pathEv@Base 4:4.4.4-2~
 _ZNK6Plasma7Package7isValidEv@Base 4:4.4.4-2~
 _ZNK6Plasma7Package8filePathEPKc@Base 4:4.4.4-2~
 _ZNK6Plasma7Package8filePathEPKcRK7QString@Base 4:4.4.4-2~
 _ZNK6Plasma7Package8metadataEv@Base 4:4.4.4-2~
 _ZNK6Plasma7Package9entryListEPKc@Base 4:4.4.4-2~
 _ZNK6Plasma7Package9structureEv@Base 4:4.4.4-2~
 _ZNK6Plasma7Service10metaObjectEv@Base 4:4.4.4-2~
 _ZNK6Plasma7Service11destinationEv@Base 4:4.4.4-2~
 _ZNK6Plasma7Service14operationNamesEv@Base 4:4.4.4-2~
 _ZNK6Plasma7Service18isOperationEnabledERK7QString@Base 4:4.4.4-2~
 _ZNK6Plasma7Service4nameEv@Base 4:4.4.4-2~
 _ZNK6Plasma7SpinBox10metaObjectEv@Base 4:4.4.4-2~
 _ZNK6Plasma7SpinBox12nativeWidgetEv@Base 4:4.4.4-2~
 _ZNK6Plasma7SpinBox5valueEv@Base 4:4.4.4-2~
 _ZNK6Plasma7SpinBox7maximumEv@Base 4:4.4.4-2~
 _ZNK6Plasma7SpinBox7minimumEv@Base 4:4.4.4-2~
 _ZNK6Plasma7WebView10metaObjectEv@Base 4:4.4.4-2~
 _ZNK6Plasma7WebView10zoomFactorEv@Base 4:4.4.4-2~
 _ZNK6Plasma7WebView12contentsSizeEv@Base 4:4.4.4-2~
 _ZNK6Plasma7WebView14scrollPositionEv@Base 4:4.4.4-2~
 _ZNK6Plasma7WebView16viewportGeometryEv@Base 4:4.4.4-2~
 _ZNK6Plasma7WebView3urlEv@Base 4:4.4.4-2~
 _ZNK6Plasma7WebView4htmlEv@Base 4:4.4.4-2~
 _ZNK6Plasma7WebView4pageEv@Base 4:4.4.4-2~
 _ZNK6Plasma7WebView8geometryEv@Base 4:4.4.4-2~
 _ZNK6Plasma7WebView8sizeHintEN2Qt8SizeHintERK6QSizeF@Base 4:4.4.4-2~
 _ZNK6Plasma7WebView9mainFrameEv@Base 4:4.4.4-2~
 _ZNK6Plasma8Animator10metaObjectEv@Base 4:4.4.4-2~
 _ZNK6Plasma8Animator11isAnimatingEv@Base 4:4.4.4-2~
 _ZNK6Plasma8CheckBox10metaObjectEv@Base 4:4.4.4-2~
 _ZNK6Plasma8CheckBox12nativeWidgetEv@Base 4:4.4.4-2~
 _ZNK6Plasma8CheckBox4textEv@Base 4:4.4.4-2~
 _ZNK6Plasma8CheckBox5imageEv@Base 4:4.4.4-2~
 _ZNK6Plasma8CheckBox9isCheckedEv@Base 4:4.4.4-2~
 _ZNK6Plasma8ComboBox10metaObjectEv@Base 4:4.4.4-2~
 _ZNK6Plasma8ComboBox12currentIndexEv@Base 4:4.5.86
 _ZNK6Plasma8ComboBox12nativeWidgetEv@Base 4:4.4.4-2~
 _ZNK6Plasma8ComboBox4textEv@Base 4:4.4.4-2~
 _ZNK6Plasma8ComboBox5countEv@Base 4:4.5.86
 _ZNK6Plasma8Delegate10metaObjectEv@Base 4:4.4.4-2~
 _ZNK6Plasma8Delegate11roleMappingENS0_13SpecificRolesE@Base 4:4.4.4-2~
 _ZNK6Plasma8Delegate11showToolTipEv@Base 4:4.4.4-2~
 _ZNK6Plasma8Delegate14rectAfterTitleERK20QStyleOptionViewItemRK11QModelIndex@Base 4:4.4.4-2~
 _ZNK6Plasma8Delegate17rectAfterSubTitleERK20QStyleOptionViewItemRK11QModelIndex@Base 4:4.4.4-2~
 _ZNK6Plasma8Delegate5paintEP8QPainterRK20QStyleOptionViewItemRK11QModelIndex@Base 4:4.4.4-2~
 _ZNK6Plasma8Delegate8sizeHintERK20QStyleOptionViewItemRK11QModelIndex@Base 4:4.4.4-2~
 _ZNK6Plasma8Delegate9emptyRectERK20QStyleOptionViewItemRK11QModelIndex@Base 4:4.4.4-2~
 _ZNK6Plasma8Extender10appearanceEv@Base 4:4.4.4-2~
 _ZNK6Plasma8Extender10metaObjectEv@Base 4:4.4.4-2~
 _ZNK6Plasma8Extender13attachedItemsEv@Base 4:4.4.4-2~
 _ZNK6Plasma8Extender13detachedItemsEv@Base 4:4.4.4-2~
 _ZNK6Plasma8Extender20emptyExtenderMessageEv@Base 4:4.4.4-2~
 _ZNK6Plasma8Extender21enabledBordersForItemEPNS_12ExtenderItemE@Base 4:4.4.4-2~
 _ZNK6Plasma8Extender4itemERK7QString@Base 4:4.4.4-2~
 _ZNK6Plasma8Extender5groupERK7QString@Base 4:4.4.4-2~
 _ZNK6Plasma8Extender5itemsEv@Base 4:4.4.4-2~
 _ZNK6Plasma8Extender6appletEv@Base 4:4.4.4-2~
 _ZNK6Plasma8Extender6groupsEv@Base 4:4.4.4-2~
 _ZNK6Plasma8Extender7hasItemERK7QString@Base 4:4.4.4-2~
 _ZNK6Plasma8Extender7isEmptyEv@Base 4:4.4.4-2~
 (subst)_ZNK6Plasma8FrameSvg10getMarginsER{qreal}S1_S1_S1_@Base 4:4.4.4-2~
 _ZNK6Plasma8FrameSvg10marginSizeENS_10MarginEdgeE@Base 4:4.4.4-2~
 _ZNK6Plasma8FrameSvg10metaObjectEv@Base 4:4.4.4-2~
 _ZNK6Plasma8FrameSvg12contentsRectEv@Base 4:4.4.4-2~
 _ZNK6Plasma8FrameSvg14enabledBordersEv@Base 4:4.4.4-2~
 _ZNK6Plasma8FrameSvg16hasElementPrefixENS_8LocationE@Base 4:4.4.4-2~
 _ZNK6Plasma8FrameSvg16hasElementPrefixERK7QString@Base 4:4.4.4-2~
 _ZNK6Plasma8FrameSvg22cacheAllRenderedFramesEv@Base 4:4.4.4-2~
 _ZNK6Plasma8FrameSvg4maskEv@Base 4:4.4.4-2~
 _ZNK6Plasma8FrameSvg9alphaMaskEv@Base 4:4.4.4-2~
 _ZNK6Plasma8FrameSvg9frameSizeEv@Base 4:4.4.4-2~
 _ZNK6Plasma8GLApplet10metaObjectEv@Base 4:4.4.4-2~
 _ZNK6Plasma8GroupBox10metaObjectEv@Base 4:4.4.4-2~
 _ZNK6Plasma8GroupBox12nativeWidgetEv@Base 4:4.4.4-2~
 _ZNK6Plasma8GroupBox4textEv@Base 4:4.4.4-2~
 _ZNK6Plasma8LineEdit10metaObjectEv@Base 4:4.4.4-2~
 _ZNK6Plasma8LineEdit12clickMessageEv@Base 4:4.4.95
 _ZNK6Plasma8LineEdit12nativeWidgetEv@Base 4:4.4.4-2~
 _ZNK6Plasma8LineEdit18isClearButtonShownEv@Base 4:4.4.4-2~
 _ZNK6Plasma8LineEdit4textEv@Base 4:4.4.4-2~
 _ZNK6Plasma8TextEdit10isReadOnlyEv@Base 4:4.4.4-2~
 _ZNK6Plasma8TextEdit10metaObjectEv@Base 4:4.4.4-2~
 _ZNK6Plasma8TextEdit12nativeWidgetEv@Base 4:4.4.4-2~
 _ZNK6Plasma8TextEdit4textEv@Base 4:4.4.4-2~
 _ZNK6Plasma8TreeView10metaObjectEv@Base 4:4.4.4-2~
 _ZNK6Plasma8TreeView12nativeWidgetEv@Base 4:4.4.4-2~
 _ZNK6Plasma9Animation10metaObjectEv@Base 4:4.4.4-2~
 _ZNK6Plasma9Animation11easingCurveEv@Base 4:4.4.4-2~
 _ZNK6Plasma9Animation12targetWidgetEv@Base 4:4.4.4-2~
 _ZNK6Plasma9Animation8durationEv@Base 4:4.4.4-2~
 _ZNK6Plasma9ScrollBar10metaObjectEv@Base 4:4.4.4-2~
 _ZNK6Plasma9ScrollBar10setMaximumEi@Base 4:4.5.86
 _ZNK6Plasma9ScrollBar10setMinimumEi@Base 4:4.5.86
 _ZNK6Plasma9ScrollBar11orientationEv@Base 4:4.4.4-2~
 _ZNK6Plasma9ScrollBar12nativeWidgetEv@Base 4:4.4.4-2~
 _ZNK6Plasma9ScrollBar5valueEv@Base 4:4.4.4-2~
 _ZNK6Plasma9ScrollBar7maximumEv@Base 4:4.4.4-2~
 _ZNK6Plasma9ScrollBar7minimumEv@Base 4:4.4.4-2~
 _ZNK6Plasma9Separator10metaObjectEv@Base 4:4.4.4-2~
 _ZNK6Plasma9Separator8sizeHintEN2Qt8SizeHintERK6QSizeF@Base 4:4.4.4-2~
 _ZNK6Plasma9SvgWidget10metaObjectEv@Base 4:4.4.4-2~
 _ZNK6Plasma9SvgWidget3svgEv@Base 4:4.4.4-2~
 _ZNK6Plasma9SvgWidget8sizeHintEN2Qt8SizeHintERK6QSizeF@Base 4:4.4.4-2~
 _ZNK6Plasma9SvgWidget9elementIDEv@Base 4:4.4.4-2~
 _ZNK6Plasma9Wallpaper10dataEngineERK7QString@Base 4:4.4.4-2~
 _ZNK6Plasma9Wallpaper10metaObjectEv@Base 4:4.4.4-2~
 _ZNK6Plasma9Wallpaper10pluginNameEv@Base 4:4.4.4-2~
 _ZNK6Plasma9Wallpaper12boundingRectEv@Base 4:4.4.4-2~
 _ZNK6Plasma9Wallpaper12isPreviewingEv@Base 4:4.4.95
 _ZNK6Plasma9Wallpaper13isInitializedEv@Base 4:4.4.4-2~
 _ZNK6Plasma9Wallpaper13renderingModeEv@Base 4:4.4.4-2~
 _ZNK6Plasma9Wallpaper14targetSizeHintEv@Base 4:4.7.2
 _ZNK6Plasma9Wallpaper16resizeMethodHintEv@Base 4:4.7.2
 _ZNK6Plasma9Wallpaper16supportsMimetypeERK7QString@Base 4:4.7.0
 _ZNK6Plasma9Wallpaper17contextualActionsEv@Base 4:4.4.4-2~
 _ZNK6Plasma9Wallpaper18listRenderingModesEv@Base 4:4.4.4-2~
 _ZNK6Plasma9Wallpaper21configurationRequiredEv@Base 4:4.4.4-2~
 _ZNK6Plasma9Wallpaper21isUsingRenderingCacheEv@Base 4:4.4.4-2~
 _ZNK6Plasma9Wallpaper31needsPreviewDuringConfigurationEv@Base 4:4.5.86
 _ZNK6Plasma9Wallpaper4iconEv@Base 4:4.4.4-2~
 _ZNK6Plasma9Wallpaper4nameEv@Base 4:4.4.4-2~
 _ZNK6Plasma9Wallpaper7packageEv@Base 4:4.4.4-2~
 (optional=templinst|arch=amd64 hurd-i386 i386 kfreebsd-amd64 kfreebsd-i386)_ZNK8KService14createInstanceIN6Plasma14AbstractRunnerEEEPT_P7QWidgetP7QObjectRK5QListI8QVariantEP7QString@Base 4:4.7.4
 _ZTIN12ThreadWeaver11QueuePolicyE@Base 4:4.4.4-2~
 _ZTIN5Jolie11PendingCallE@Base 4:4.4.4-2~
 _ZTIN5Jolie15AbstractAdaptorE@Base 4:4.4.4-2~
 _ZTIN5Jolie18PendingCallWatcherE@Base 4:4.4.4-2~
 _ZTIN6Plasma10BusyWidgetE@Base 4:4.4.4-2~
 _ZTIN6Plasma10DataEngineE@Base 4:4.4.4-2~
 _ZTIN6Plasma10IconWidgetE@Base 4:4.4.4-2~
 _ZTIN6Plasma10PushButtonE@Base 4:4.4.4-2~
 _ZTIN6Plasma10ServiceJobE@Base 4:4.4.4-2~
 _ZTIN6Plasma10ToolButtonE@Base 4:4.4.4-2~
 _ZTIN6Plasma11ContainmentE@Base 4:4.4.4-2~
 _ZTIN6Plasma11PopupAppletE@Base 4:4.4.4-2~
 _ZTIN6Plasma11RadioButtonE@Base 4:4.4.4-2~
 _ZTIN6Plasma11TextBrowserE@Base 4:4.4.4-2~
 _ZTIN6Plasma11VideoWidgetE@Base 4:4.4.4-2~
 _ZTIN6Plasma12AppletScriptE@Base 4:4.4.4-2~
 _ZTIN6Plasma12ConfigLoaderE@Base 4:4.4.4-2~
 _ZTIN6Plasma12ExtenderItemE@Base 4:4.4.4-2~
 _ZTIN6Plasma12PluginLoaderE@Base 4:4.5.86
 _ZTIN6Plasma12RunnerScriptE@Base 4:4.4.4-2~
 _ZTIN6Plasma12ScriptEngineE@Base 4:4.4.4-2~
 _ZTIN6Plasma12ScrollWidgetE@Base 4:4.4.4-2~
 _ZTIN6Plasma13AccessManagerE@Base 4:4.4.4-2~
 _ZTIN6Plasma13DataContainerE@Base 4:4.4.4-2~
 _ZTIN6Plasma13ExtenderGroupE@Base 4:4.4.4-2~
 _ZTIN6Plasma13FlashingLabelE@Base 4:4.4.4-2~
 _ZTIN6Plasma13RunnerContextE@Base 4:4.4.4-2~
 _ZTIN6Plasma13RunnerManagerE@Base 4:4.4.4-2~
 _ZTIN6Plasma13SignalPlotterE@Base 4:4.4.4-2~
 _ZTIN6Plasma14AbstractRunnerE@Base 4:4.4.4-2~
 _ZTIN6Plasma14ItemBackgroundE@Base 4:4.4.4-2~
 _ZTIN6Plasma14ToolTipManagerE@Base 4:4.4.4-2~
 _ZTIN6Plasma15AbstractToolBoxE@Base 4:4.4.4-2~
 _ZTIN6Plasma15AccessAppletJobE@Base 4:4.4.4-2~
 _ZTIN6Plasma15AnimationDriverE@Base 4:4.4.4-2~
 _ZTIN6Plasma15WallpaperScriptE@Base 4:4.4.4-2~
 _ZTIN6Plasma16ClientPinRequestE@Base 4:4.4.4-2~
 _ZTIN6Plasma16DataEngineScriptE@Base 4:4.4.4-2~
 _ZTIN6Plasma16PackageStructureE@Base 4:4.4.4-2~
 _ZTIN6Plasma16PinPairingDialogE@Base 4:4.4.4-2~
 _ZTIN6Plasma16ServiceAccessJobE@Base 4:4.4.4-2~
 _ZTIN6Plasma17AuthorizationRuleE@Base 4:4.4.4-2~
 _ZTIN6Plasma17DataEngineManagerE@Base 4:4.4.4-2~
 _ZTIN6Plasma17DeclarativeWidgetE@Base 4:4.5.86
 _ZTIN6Plasma18ContainmentActionsE@Base 4:4.4.4-2~
 _ZTIN6Plasma20AuthorizationManagerE@Base 4:4.4.4-2~
 _ZTIN6Plasma20DenyAllAuthorizationE@Base 4:4.4.4-2~
 _ZTIN6Plasma21AbstractDialogManagerE@Base 4:4.4.95
 _ZTIN6Plasma22AuthorizationInterfaceE@Base 4:4.4.4-2~
 _ZTIN6Plasma23PinPairingAuthorizationE@Base 4:4.4.4-2~
 _ZTIN6Plasma24TrustedOnlyAuthorizationE@Base 4:4.4.4-2~
 _ZTIN6Plasma3SvgE@Base 4:4.4.4-2~
 _ZTIN6Plasma4ViewE@Base 4:4.4.4-2~
 _ZTIN6Plasma5FrameE@Base 4:4.4.4-2~
 _ZTIN6Plasma5LabelE@Base 4:4.4.4-2~
 _ZTIN6Plasma5MeterE@Base 4:4.4.4-2~
 _ZTIN6Plasma5ThemeE@Base 4:4.4.4-2~
 _ZTIN6Plasma6AppletE@Base 4:4.4.4-2~
 _ZTIN6Plasma6CoronaE@Base 4:4.4.4-2~
 _ZTIN6Plasma6DialogE@Base 4:4.4.4-2~
 _ZTIN6Plasma6SliderE@Base 4:4.4.4-2~
 _ZTIN6Plasma6TabBarE@Base 4:4.4.4-2~
 _ZTIN6Plasma7ContextE@Base 4:4.4.4-2~
 _ZTIN6Plasma7ServiceE@Base 4:4.4.4-2~
 _ZTIN6Plasma7SpinBoxE@Base 4:4.4.4-2~
 _ZTIN6Plasma7WebViewE@Base 4:4.4.4-2~
 _ZTIN6Plasma8AnimatorE@Base 4:4.4.4-2~
 _ZTIN6Plasma8CheckBoxE@Base 4:4.4.4-2~
 _ZTIN6Plasma8ComboBoxE@Base 4:4.4.4-2~
 _ZTIN6Plasma8DelegateE@Base 4:4.4.4-2~
 _ZTIN6Plasma8ExtenderE@Base 4:4.4.4-2~
 _ZTIN6Plasma8FrameSvgE@Base 4:4.4.4-2~
 _ZTIN6Plasma8GLAppletE@Base 4:4.4.4-2~
 _ZTIN6Plasma8GroupBoxE@Base 4:4.4.4-2~
 _ZTIN6Plasma8LineEditE@Base 4:4.4.4-2~
 _ZTIN6Plasma8TextEditE@Base 4:4.4.4-2~
 _ZTIN6Plasma8TreeViewE@Base 4:4.4.4-2~
 _ZTIN6Plasma9AnimationE@Base 4:4.4.4-2~
 _ZTIN6Plasma9ScrollBarE@Base 4:4.4.4-2~
 _ZTIN6Plasma9SeparatorE@Base 4:4.4.4-2~
 _ZTIN6Plasma9SvgWidgetE@Base 4:4.4.4-2~
 _ZTIN6Plasma9WallpaperE@Base 4:4.4.4-2~
 _ZTSN12ThreadWeaver11QueuePolicyE@Base 4:4.4.4-2~
 _ZTSN5Jolie11PendingCallE@Base 4:4.4.4-2~
 _ZTSN5Jolie15AbstractAdaptorE@Base 4:4.4.4-2~
 _ZTSN5Jolie18PendingCallWatcherE@Base 4:4.4.4-2~
 _ZTSN6Plasma10BusyWidgetE@Base 4:4.4.4-2~
 _ZTSN6Plasma10DataEngineE@Base 4:4.4.4-2~
 _ZTSN6Plasma10IconWidgetE@Base 4:4.4.4-2~
 _ZTSN6Plasma10PushButtonE@Base 4:4.4.4-2~
 _ZTSN6Plasma10ServiceJobE@Base 4:4.4.4-2~
 _ZTSN6Plasma10ToolButtonE@Base 4:4.4.4-2~
 _ZTSN6Plasma11ContainmentE@Base 4:4.4.4-2~
 _ZTSN6Plasma11PopupAppletE@Base 4:4.4.4-2~
 _ZTSN6Plasma11RadioButtonE@Base 4:4.4.4-2~
 _ZTSN6Plasma11TextBrowserE@Base 4:4.4.4-2~
 _ZTSN6Plasma11VideoWidgetE@Base 4:4.4.4-2~
 _ZTSN6Plasma12AppletScriptE@Base 4:4.4.4-2~
 _ZTSN6Plasma12ConfigLoaderE@Base 4:4.4.4-2~
 _ZTSN6Plasma12ExtenderItemE@Base 4:4.4.4-2~
 _ZTSN6Plasma12PluginLoaderE@Base 4:4.5.86
 _ZTSN6Plasma12RunnerScriptE@Base 4:4.4.4-2~
 _ZTSN6Plasma12ScriptEngineE@Base 4:4.4.4-2~
 _ZTSN6Plasma12ScrollWidgetE@Base 4:4.4.4-2~
 _ZTSN6Plasma13AccessManagerE@Base 4:4.4.4-2~
 _ZTSN6Plasma13DataContainerE@Base 4:4.4.4-2~
 _ZTSN6Plasma13ExtenderGroupE@Base 4:4.4.4-2~
 _ZTSN6Plasma13FlashingLabelE@Base 4:4.4.4-2~
 _ZTSN6Plasma13RunnerContextE@Base 4:4.4.4-2~
 _ZTSN6Plasma13RunnerManagerE@Base 4:4.4.4-2~
 _ZTSN6Plasma13SignalPlotterE@Base 4:4.4.4-2~
 _ZTSN6Plasma14AbstractRunnerE@Base 4:4.4.4-2~
 _ZTSN6Plasma14ItemBackgroundE@Base 4:4.4.4-2~
 _ZTSN6Plasma14ToolTipManagerE@Base 4:4.4.4-2~
 _ZTSN6Plasma15AbstractToolBoxE@Base 4:4.4.4-2~
 _ZTSN6Plasma15AccessAppletJobE@Base 4:4.4.4-2~
 _ZTSN6Plasma15AnimationDriverE@Base 4:4.4.4-2~
 _ZTSN6Plasma15WallpaperScriptE@Base 4:4.4.4-2~
 _ZTSN6Plasma16ClientPinRequestE@Base 4:4.4.4-2~
 _ZTSN6Plasma16DataEngineScriptE@Base 4:4.4.4-2~
 _ZTSN6Plasma16PackageStructureE@Base 4:4.4.4-2~
 _ZTSN6Plasma16PinPairingDialogE@Base 4:4.4.4-2~
 _ZTSN6Plasma16ServiceAccessJobE@Base 4:4.4.4-2~
 _ZTSN6Plasma17AuthorizationRuleE@Base 4:4.4.4-2~
 _ZTSN6Plasma17DataEngineManagerE@Base 4:4.4.4-2~
 _ZTSN6Plasma17DeclarativeWidgetE@Base 4:4.5.86
 _ZTSN6Plasma18ContainmentActionsE@Base 4:4.4.4-2~
 _ZTSN6Plasma20AuthorizationManagerE@Base 4:4.4.4-2~
 _ZTSN6Plasma20DenyAllAuthorizationE@Base 4:4.4.4-2~
 _ZTSN6Plasma21AbstractDialogManagerE@Base 4:4.4.95
 _ZTSN6Plasma22AuthorizationInterfaceE@Base 4:4.4.4-2~
 _ZTSN6Plasma23PinPairingAuthorizationE@Base 4:4.4.4-2~
 _ZTSN6Plasma24TrustedOnlyAuthorizationE@Base 4:4.4.4-2~
 _ZTSN6Plasma3SvgE@Base 4:4.4.4-2~
 _ZTSN6Plasma4ViewE@Base 4:4.4.4-2~
 _ZTSN6Plasma5FrameE@Base 4:4.4.4-2~
 _ZTSN6Plasma5LabelE@Base 4:4.4.4-2~
 _ZTSN6Plasma5MeterE@Base 4:4.4.4-2~
 _ZTSN6Plasma5ThemeE@Base 4:4.4.4-2~
 _ZTSN6Plasma6AppletE@Base 4:4.4.4-2~
 _ZTSN6Plasma6CoronaE@Base 4:4.4.4-2~
 _ZTSN6Plasma6DialogE@Base 4:4.4.4-2~
 _ZTSN6Plasma6SliderE@Base 4:4.4.4-2~
 _ZTSN6Plasma6TabBarE@Base 4:4.4.4-2~
 _ZTSN6Plasma7ContextE@Base 4:4.4.4-2~
 _ZTSN6Plasma7ServiceE@Base 4:4.4.4-2~
 _ZTSN6Plasma7SpinBoxE@Base 4:4.4.4-2~
 _ZTSN6Plasma7WebViewE@Base 4:4.4.4-2~
 _ZTSN6Plasma8AnimatorE@Base 4:4.4.4-2~
 _ZTSN6Plasma8CheckBoxE@Base 4:4.4.4-2~
 _ZTSN6Plasma8ComboBoxE@Base 4:4.4.4-2~
 _ZTSN6Plasma8DelegateE@Base 4:4.4.4-2~
 _ZTSN6Plasma8ExtenderE@Base 4:4.4.4-2~
 _ZTSN6Plasma8FrameSvgE@Base 4:4.4.4-2~
 _ZTSN6Plasma8GLAppletE@Base 4:4.4.4-2~
 _ZTSN6Plasma8GroupBoxE@Base 4:4.4.4-2~
 _ZTSN6Plasma8LineEditE@Base 4:4.4.4-2~
 _ZTSN6Plasma8TextEditE@Base 4:4.4.4-2~
 _ZTSN6Plasma8TreeViewE@Base 4:4.4.4-2~
 _ZTSN6Plasma9AnimationE@Base 4:4.4.4-2~
 _ZTSN6Plasma9ScrollBarE@Base 4:4.4.4-2~
 _ZTSN6Plasma9SeparatorE@Base 4:4.4.4-2~
 _ZTSN6Plasma9SvgWidgetE@Base 4:4.4.4-2~
 _ZTSN6Plasma9WallpaperE@Base 4:4.4.4-2~
 _ZTVN12ThreadWeaver11QueuePolicyE@Base 4:4.4.4-2~
 _ZTVN5Jolie15AbstractAdaptorE@Base 4:4.4.4-2~
 _ZTVN5Jolie18PendingCallWatcherE@Base 4:4.4.4-2~
 _ZTVN6Plasma10BusyWidgetE@Base 4:4.4.4-2~
 _ZTVN6Plasma10DataEngineE@Base 4:4.4.4-2~
 _ZTVN6Plasma10IconWidgetE@Base 4:4.4.4-2~
 _ZTVN6Plasma10PushButtonE@Base 4:4.4.4-2~
 _ZTVN6Plasma10ServiceJobE@Base 4:4.4.4-2~
 _ZTVN6Plasma10ToolButtonE@Base 4:4.4.4-2~
 _ZTVN6Plasma11ContainmentE@Base 4:4.4.4-2~
 _ZTVN6Plasma11PopupAppletE@Base 4:4.4.4-2~
 _ZTVN6Plasma11RadioButtonE@Base 4:4.4.4-2~
 _ZTVN6Plasma11TextBrowserE@Base 4:4.4.4-2~
 _ZTVN6Plasma11VideoWidgetE@Base 4:4.4.4-2~
 _ZTVN6Plasma12AppletScriptE@Base 4:4.4.4-2~
 _ZTVN6Plasma12ConfigLoaderE@Base 4:4.4.4-2~
 _ZTVN6Plasma12ExtenderItemE@Base 4:4.4.4-2~
 _ZTVN6Plasma12PluginLoaderE@Base 4:4.5.86
 _ZTVN6Plasma12RunnerScriptE@Base 4:4.4.4-2~
 _ZTVN6Plasma12ScriptEngineE@Base 4:4.4.4-2~
 _ZTVN6Plasma12ScrollWidgetE@Base 4:4.4.4-2~
 _ZTVN6Plasma13AccessManagerE@Base 4:4.4.4-2~
 _ZTVN6Plasma13DataContainerE@Base 4:4.4.4-2~
 _ZTVN6Plasma13ExtenderGroupE@Base 4:4.4.4-2~
 _ZTVN6Plasma13FlashingLabelE@Base 4:4.4.4-2~
 _ZTVN6Plasma13RunnerContextE@Base 4:4.4.4-2~
 _ZTVN6Plasma13RunnerManagerE@Base 4:4.4.4-2~
 _ZTVN6Plasma13SignalPlotterE@Base 4:4.4.4-2~
 _ZTVN6Plasma14AbstractRunnerE@Base 4:4.4.4-2~
 _ZTVN6Plasma14ItemBackgroundE@Base 4:4.4.4-2~
 _ZTVN6Plasma14ToolTipManagerE@Base 4:4.4.4-2~
 _ZTVN6Plasma15AbstractToolBoxE@Base 4:4.4.4-2~
 _ZTVN6Plasma15AccessAppletJobE@Base 4:4.4.4-2~
 _ZTVN6Plasma15AnimationDriverE@Base 4:4.4.4-2~
 _ZTVN6Plasma15WallpaperScriptE@Base 4:4.4.4-2~
 _ZTVN6Plasma16ClientPinRequestE@Base 4:4.4.4-2~
 _ZTVN6Plasma16DataEngineScriptE@Base 4:4.4.4-2~
 _ZTVN6Plasma16PackageStructureE@Base 4:4.4.4-2~
 _ZTVN6Plasma16PinPairingDialogE@Base 4:4.4.4-2~
 _ZTVN6Plasma16ServiceAccessJobE@Base 4:4.4.4-2~
 _ZTVN6Plasma17AuthorizationRuleE@Base 4:4.4.4-2~
 _ZTVN6Plasma17DataEngineManagerE@Base 4:4.4.4-2~
 _ZTVN6Plasma17DeclarativeWidgetE@Base 4:4.5.86
 _ZTVN6Plasma18ContainmentActionsE@Base 4:4.4.4-2~
 _ZTVN6Plasma20AuthorizationManagerE@Base 4:4.4.4-2~
 _ZTVN6Plasma20DenyAllAuthorizationE@Base 4:4.4.4-2~
 _ZTVN6Plasma21AbstractDialogManagerE@Base 4:4.4.95
 _ZTVN6Plasma22AuthorizationInterfaceE@Base 4:4.4.4-2~
 _ZTVN6Plasma23PinPairingAuthorizationE@Base 4:4.4.4-2~
 _ZTVN6Plasma24TrustedOnlyAuthorizationE@Base 4:4.4.4-2~
 _ZTVN6Plasma3SvgE@Base 4:4.4.4-2~
 _ZTVN6Plasma4ViewE@Base 4:4.4.4-2~
 _ZTVN6Plasma5FrameE@Base 4:4.4.4-2~
 _ZTVN6Plasma5LabelE@Base 4:4.4.4-2~
 _ZTVN6Plasma5MeterE@Base 4:4.4.4-2~
 _ZTVN6Plasma5ThemeE@Base 4:4.4.4-2~
 _ZTVN6Plasma6AppletE@Base 4:4.4.4-2~
 _ZTVN6Plasma6CoronaE@Base 4:4.4.4-2~
 _ZTVN6Plasma6DialogE@Base 4:4.4.4-2~
 _ZTVN6Plasma6SliderE@Base 4:4.4.4-2~
 _ZTVN6Plasma6TabBarE@Base 4:4.4.4-2~
 _ZTVN6Plasma7ContextE@Base 4:4.4.4-2~
 _ZTVN6Plasma7ServiceE@Base 4:4.4.4-2~
 _ZTVN6Plasma7SpinBoxE@Base 4:4.4.4-2~
 _ZTVN6Plasma7WebViewE@Base 4:4.4.4-2~
 _ZTVN6Plasma8AnimatorE@Base 4:4.4.4-2~
 _ZTVN6Plasma8CheckBoxE@Base 4:4.4.4-2~
 _ZTVN6Plasma8ComboBoxE@Base 4:4.4.4-2~
 _ZTVN6Plasma8DelegateE@Base 4:4.4.4-2~
 _ZTVN6Plasma8ExtenderE@Base 4:4.4.4-2~
 _ZTVN6Plasma8FrameSvgE@Base 4:4.4.4-2~
 _ZTVN6Plasma8GLAppletE@Base 4:4.4.4-2~
 _ZTVN6Plasma8GroupBoxE@Base 4:4.4.4-2~
 _ZTVN6Plasma8LineEditE@Base 4:4.4.4-2~
 _ZTVN6Plasma8TextEditE@Base 4:4.4.4-2~
 _ZTVN6Plasma8TreeViewE@Base 4:4.4.4-2~
 _ZTVN6Plasma9AnimationE@Base 4:4.4.4-2~
 _ZTVN6Plasma9ScrollBarE@Base 4:4.4.4-2~
 _ZTVN6Plasma9SeparatorE@Base 4:4.4.4-2~
 _ZTVN6Plasma9SvgWidgetE@Base 4:4.4.4-2~
 _ZTVN6Plasma9WallpaperE@Base 4:4.4.4-2~
 (c++)"non-virtual thunk to Plasma::AbstractToolBox::~AbstractToolBox()@Base" 4:4.4.4-2~
 (c++)"non-virtual thunk to Plasma::Applet::focusInEvent(QFocusEvent*)@Base" 4:4.4.4-2~
 (c++)"non-virtual thunk to Plasma::Applet::hoverEnterEvent(QGraphicsSceneHoverEvent*)@Base" 4:4.4.4-2~
 (c++)"non-virtual thunk to Plasma::Applet::hoverLeaveEvent(QGraphicsSceneHoverEvent*)@Base" 4:4.4.4-2~
 (c++)"non-virtual thunk to Plasma::Applet::itemChange(QGraphicsItem::GraphicsItemChange, QVariant const&)@Base" 4:4.4.4-2~
 (c++)"non-virtual thunk to Plasma::Applet::mouseMoveEvent(QGraphicsSceneMouseEvent*)@Base" 4:4.4.4-2~
 (c++)"non-virtual thunk to Plasma::Applet::paint(QPainter*, QStyleOptionGraphicsItem const*, QWidget*)@Base" 4:4.4.4-2~
 (c++)"non-virtual thunk to Plasma::Applet::sceneEventFilter(QGraphicsItem*, QEvent*)@Base" 4:4.4.4-2~
 (c++)"non-virtual thunk to Plasma::Applet::shape() const@Base" 4:4.4.4-2~
 (c++)"non-virtual thunk to Plasma::Applet::sizeHint(Qt::SizeHint, QSizeF const&) const@Base" 4:4.4.4-2~
 (c++)"non-virtual thunk to Plasma::Applet::type() const@Base" 4:4.4.4-2~
 (c++)"non-virtual thunk to Plasma::Applet::~Applet()@Base" 4:4.4.4-2~
 (c++)"non-virtual thunk to Plasma::BusyWidget::mousePressEvent(QGraphicsSceneMouseEvent*)@Base" 4:4.4.4-2~
 (c++)"non-virtual thunk to Plasma::BusyWidget::mouseReleaseEvent(QGraphicsSceneMouseEvent*)@Base" 4:4.5.90
 (c++)"non-virtual thunk to Plasma::BusyWidget::paint(QPainter*, QStyleOptionGraphicsItem const*, QWidget*)@Base" 4:4.4.4-2~
 (c++)"non-virtual thunk to Plasma::BusyWidget::~BusyWidget()@Base" 4:4.4.4-2~
 (c++)"non-virtual thunk to Plasma::CheckBox::~CheckBox()@Base" 4:4.4.4-2~
 (c++)"non-virtual thunk to Plasma::ComboBox::focusInEvent(QFocusEvent*)@Base" 4:4.4.4-2~
 (c++)"non-virtual thunk to Plasma::ComboBox::focusOutEvent(QFocusEvent*)@Base" 4:4.4.4-2~
 (c++)"non-virtual thunk to Plasma::ComboBox::hoverEnterEvent(QGraphicsSceneHoverEvent*)@Base" 4:4.4.4-2~
 (c++)"non-virtual thunk to Plasma::ComboBox::hoverLeaveEvent(QGraphicsSceneHoverEvent*)@Base" 4:4.4.4-2~
 (c++)"non-virtual thunk to Plasma::ComboBox::mousePressEvent(QGraphicsSceneMouseEvent*)@Base" 4:4.4.95
 (c++)"non-virtual thunk to Plasma::ComboBox::paint(QPainter*, QStyleOptionGraphicsItem const*, QWidget*)@Base" 4:4.4.4-2~
 (c++)"non-virtual thunk to Plasma::ComboBox::~ComboBox()@Base" 4:4.4.4-2~
 (c++)"non-virtual thunk to Plasma::Containment::contextMenuEvent(QGraphicsSceneContextMenuEvent*)@Base" 4:4.4.4-2~
 (c++)"non-virtual thunk to Plasma::Containment::dragEnterEvent(QGraphicsSceneDragDropEvent*)@Base" 4:4.4.4-2~
 (c++)"non-virtual thunk to Plasma::Containment::dragLeaveEvent(QGraphicsSceneDragDropEvent*)@Base" 4:4.4.4-2~
 (c++)"non-virtual thunk to Plasma::Containment::dragMoveEvent(QGraphicsSceneDragDropEvent*)@Base" 4:4.4.4-2~
 (c++)"non-virtual thunk to Plasma::Containment::dropEvent(QGraphicsSceneDragDropEvent*)@Base" 4:4.4.4-2~
 (c++)"non-virtual thunk to Plasma::Containment::itemChange(QGraphicsItem::GraphicsItemChange, QVariant const&)@Base" 4:4.4.4-2~
 (c++)"non-virtual thunk to Plasma::Containment::keyPressEvent(QKeyEvent*)@Base" 4:4.4.4-2~
 (c++)"non-virtual thunk to Plasma::Containment::mouseMoveEvent(QGraphicsSceneMouseEvent*)@Base" 4:4.4.4-2~
 (c++)"non-virtual thunk to Plasma::Containment::mousePressEvent(QGraphicsSceneMouseEvent*)@Base" 4:4.4.4-2~
 (c++)"non-virtual thunk to Plasma::Containment::mouseReleaseEvent(QGraphicsSceneMouseEvent*)@Base" 4:4.4.4-2~
 (c++)"non-virtual thunk to Plasma::Containment::sceneEventFilter(QGraphicsItem*, QEvent*)@Base" 4:4.4.4-2~
 (c++)"non-virtual thunk to Plasma::Containment::wheelEvent(QGraphicsSceneWheelEvent*)@Base" 4:4.4.4-2~
 (c++)"non-virtual thunk to Plasma::Containment::~Containment()@Base" 4:4.4.4-2~
 (c++)"non-virtual thunk to Plasma::DeclarativeWidget::~DeclarativeWidget()@Base" 4:4.5.86
 (c++)"non-virtual thunk to Plasma::Dialog::~Dialog()@Base" 4:4.4.4-2~
 (c++)"non-virtual thunk to Plasma::Extender::dragEnterEvent(QGraphicsSceneDragDropEvent*)@Base" 4:4.4.4-2~
 (c++)"non-virtual thunk to Plasma::Extender::dragLeaveEvent(QGraphicsSceneDragDropEvent*)@Base" 4:4.4.4-2~
 (c++)"non-virtual thunk to Plasma::Extender::dragMoveEvent(QGraphicsSceneDragDropEvent*)@Base" 4:4.4.4-2~
 (c++)"non-virtual thunk to Plasma::Extender::dropEvent(QGraphicsSceneDragDropEvent*)@Base" 4:4.4.4-2~
 (c++)"non-virtual thunk to Plasma::Extender::itemChange(QGraphicsItem::GraphicsItemChange, QVariant const&)@Base" 4:4.4.4-2~
 (c++)"non-virtual thunk to Plasma::Extender::mousePressEvent(QGraphicsSceneMouseEvent*)@Base" 4:4.4.4-2~
 (c++)"non-virtual thunk to Plasma::Extender::~Extender()@Base" 4:4.4.4-2~
 (c++)"non-virtual thunk to Plasma::ExtenderGroup::dragEnterEvent(QGraphicsSceneDragDropEvent*)@Base" 4:4.4.95
 (c++)"non-virtual thunk to Plasma::ExtenderGroup::dragLeaveEvent(QGraphicsSceneDragDropEvent*)@Base" 4:4.4.95
 (c++)"non-virtual thunk to Plasma::ExtenderGroup::dragMoveEvent(QGraphicsSceneDragDropEvent*)@Base" 4:4.4.95
 (c++)"non-virtual thunk to Plasma::ExtenderGroup::dropEvent(QGraphicsSceneDragDropEvent*)@Base" 4:4.4.95
 (c++)"non-virtual thunk to Plasma::ExtenderGroup::~ExtenderGroup()@Base" 4:4.4.4-2~
 (c++)"non-virtual thunk to Plasma::ExtenderItem::hoverLeaveEvent(QGraphicsSceneHoverEvent*)@Base" 4:4.4.4-2~
 (c++)"non-virtual thunk to Plasma::ExtenderItem::hoverMoveEvent(QGraphicsSceneHoverEvent*)@Base" 4:4.4.4-2~
 (c++)"non-virtual thunk to Plasma::ExtenderItem::mouseDoubleClickEvent(QGraphicsSceneMouseEvent*)@Base" 4:4.4.4-2~
 (c++)"non-virtual thunk to Plasma::ExtenderItem::mouseMoveEvent(QGraphicsSceneMouseEvent*)@Base" 4:4.4.4-2~
 (c++)"non-virtual thunk to Plasma::ExtenderItem::mousePressEvent(QGraphicsSceneMouseEvent*)@Base" 4:4.4.4-2~
 (c++)"non-virtual thunk to Plasma::ExtenderItem::mouseReleaseEvent(QGraphicsSceneMouseEvent*)@Base" 4:4.4.4-2~
 (c++)"non-virtual thunk to Plasma::ExtenderItem::paint(QPainter*, QStyleOptionGraphicsItem const*, QWidget*)@Base" 4:4.4.4-2~
 (c++)"non-virtual thunk to Plasma::ExtenderItem::sceneEventFilter(QGraphicsItem*, QEvent*)@Base" 4:4.4.4-2~
 (c++)"non-virtual thunk to Plasma::ExtenderItem::sizeHint(Qt::SizeHint, QSizeF const&) const@Base" 4:4.4.4-2~
 (c++)"non-virtual thunk to Plasma::ExtenderItem::~ExtenderItem()@Base" 4:4.4.4-2~
 (c++)"non-virtual thunk to Plasma::FlashingLabel::paint(QPainter*, QStyleOptionGraphicsItem const*, QWidget*)@Base" 4:4.4.4-2~
 (c++)"non-virtual thunk to Plasma::FlashingLabel::sizeHint(Qt::SizeHint, QSizeF const&) const@Base" 4:4.4.4-2~
 (c++)"non-virtual thunk to Plasma::FlashingLabel::~FlashingLabel()@Base" 4:4.4.4-2~
 (c++)"non-virtual thunk to Plasma::Frame::paint(QPainter*, QStyleOptionGraphicsItem const*, QWidget*)@Base" 4:4.4.4-2~
 (c++)"non-virtual thunk to Plasma::Frame::sizeHint(Qt::SizeHint, QSizeF const&) const@Base" 4:4.4.4-2~
 (c++)"non-virtual thunk to Plasma::Frame::~Frame()@Base" 4:4.4.4-2~
 (c++)"non-virtual thunk to Plasma::GLApplet::~GLApplet()@Base" 4:4.4.4-2~
 (c++)"non-virtual thunk to Plasma::GroupBox::~GroupBox()@Base" 4:4.4.4-2~
 (c++)"non-virtual thunk to Plasma::IconWidget::hoverEnterEvent(QGraphicsSceneHoverEvent*)@Base" 4:4.4.4-2~
 (c++)"non-virtual thunk to Plasma::IconWidget::hoverLeaveEvent(QGraphicsSceneHoverEvent*)@Base" 4:4.4.4-2~
 (c++)"non-virtual thunk to Plasma::IconWidget::mouseDoubleClickEvent(QGraphicsSceneMouseEvent*)@Base" 4:4.4.4-2~
 (c++)"non-virtual thunk to Plasma::IconWidget::mouseMoveEvent(QGraphicsSceneMouseEvent*)@Base" 4:4.4.4-2~
 (c++)"non-virtual thunk to Plasma::IconWidget::mousePressEvent(QGraphicsSceneMouseEvent*)@Base" 4:4.4.4-2~
 (c++)"non-virtual thunk to Plasma::IconWidget::mouseReleaseEvent(QGraphicsSceneMouseEvent*)@Base" 4:4.4.4-2~
 (c++)"non-virtual thunk to Plasma::IconWidget::paint(QPainter*, QStyleOptionGraphicsItem const*, QWidget*)@Base" 4:4.4.4-2~
 (c++)"non-virtual thunk to Plasma::IconWidget::sceneEventFilter(QGraphicsItem*, QEvent*)@Base" 4:4.4.4-2~
 (c++)"non-virtual thunk to Plasma::IconWidget::shape() const@Base" 4:4.4.4-2~
 (c++)"non-virtual thunk to Plasma::IconWidget::sizeHint(Qt::SizeHint, QSizeF const&) const@Base" 4:4.4.4-2~
 (c++)"non-virtual thunk to Plasma::IconWidget::~IconWidget()@Base" 4:4.4.4-2~
 (c++)"non-virtual thunk to Plasma::ItemBackground::itemChange(QGraphicsItem::GraphicsItemChange, QVariant const&)@Base" 4:4.4.4-2~
 (c++)"non-virtual thunk to Plasma::ItemBackground::paint(QPainter*, QStyleOptionGraphicsItem const*, QWidget*)@Base" 4:4.4.4-2~
 (c++)"non-virtual thunk to Plasma::ItemBackground::sceneEventFilter(QGraphicsItem*, QEvent*)@Base" 4:4.4.4-2~
 (c++)"non-virtual thunk to Plasma::ItemBackground::~ItemBackground()@Base" 4:4.4.4-2~
 (c++)"non-virtual thunk to Plasma::Label::contextMenuEvent(QGraphicsSceneContextMenuEvent*)@Base" 4:4.4.4-2~
 (c++)"non-virtual thunk to Plasma::Label::itemChange(QGraphicsItem::GraphicsItemChange, QVariant const&)@Base" 4:4.4.95
 (c++)"non-virtual thunk to Plasma::Label::mouseMoveEvent(QGraphicsSceneMouseEvent*)@Base" 4:4.4.4-2~
 (c++)"non-virtual thunk to Plasma::Label::mousePressEvent(QGraphicsSceneMouseEvent*)@Base" 4:4.4.4-2~
 (c++)"non-virtual thunk to Plasma::Label::paint(QPainter*, QStyleOptionGraphicsItem const*, QWidget*)@Base" 4:4.4.4-2~
 (c++)"non-virtual thunk to Plasma::Label::sizeHint(Qt::SizeHint, QSizeF const&) const@Base" 4:4.4.95
 (c++)"non-virtual thunk to Plasma::Label::~Label()@Base" 4:4.4.4-2~
 (c++)"non-virtual thunk to Plasma::LineEdit::focusInEvent(QFocusEvent*)@Base" 4:4.5.86
 (c++)"non-virtual thunk to Plasma::LineEdit::focusOutEvent(QFocusEvent*)@Base" 4:4.4.95
 (c++)"non-virtual thunk to Plasma::LineEdit::hoverEnterEvent(QGraphicsSceneHoverEvent*)@Base" 4:4.4.4-2~
 (c++)"non-virtual thunk to Plasma::LineEdit::hoverLeaveEvent(QGraphicsSceneHoverEvent*)@Base" 4:4.4.4-2~
 (c++)"non-virtual thunk to Plasma::LineEdit::mousePressEvent(QGraphicsSceneMouseEvent*)@Base" 4:4.4.95
 (c++)"non-virtual thunk to Plasma::LineEdit::paint(QPainter*, QStyleOptionGraphicsItem const*, QWidget*)@Base" 4:4.4.4-2~
 (c++)"non-virtual thunk to Plasma::LineEdit::~LineEdit()@Base" 4:4.4.4-2~
 (c++)"non-virtual thunk to Plasma::Meter::paint(QPainter*, QStyleOptionGraphicsItem const*, QWidget*)@Base" 4:4.4.4-2~
 (c++)"non-virtual thunk to Plasma::Meter::sizeHint(Qt::SizeHint, QSizeF const&) const@Base" 4:4.4.95
 (c++)"non-virtual thunk to Plasma::Meter::~Meter()@Base" 4:4.4.4-2~
 (c++)"non-virtual thunk to Plasma::PopupApplet::dragEnterEvent(QGraphicsSceneDragDropEvent*)@Base" 4:4.4.4-2~
 (c++)"non-virtual thunk to Plasma::PopupApplet::dragLeaveEvent(QGraphicsSceneDragDropEvent*)@Base" 4:4.4.4-2~
 (c++)"non-virtual thunk to Plasma::PopupApplet::dropEvent(QGraphicsSceneDragDropEvent*)@Base" 4:4.4.4-2~
 (c++)"non-virtual thunk to Plasma::PopupApplet::mousePressEvent(QGraphicsSceneMouseEvent*)@Base" 4:4.4.4-2~
 (c++)"non-virtual thunk to Plasma::PopupApplet::mouseReleaseEvent(QGraphicsSceneMouseEvent*)@Base" 4:4.4.4-2~
 (c++)"non-virtual thunk to Plasma::PopupApplet::sizeHint(Qt::SizeHint, QSizeF const&) const@Base" 4:4.4.95
 (c++)"non-virtual thunk to Plasma::PopupApplet::~PopupApplet()@Base" 4:4.4.4-2~
 (c++)"non-virtual thunk to Plasma::PushButton::hoverEnterEvent(QGraphicsSceneHoverEvent*)@Base" 4:4.4.4-2~
 (c++)"non-virtual thunk to Plasma::PushButton::hoverLeaveEvent(QGraphicsSceneHoverEvent*)@Base" 4:4.4.4-2~
 (c++)"non-virtual thunk to Plasma::PushButton::paint(QPainter*, QStyleOptionGraphicsItem const*, QWidget*)@Base" 4:4.4.4-2~
 (c++)"non-virtual thunk to Plasma::PushButton::sizeHint(Qt::SizeHint, QSizeF const&) const@Base" 4:4.4.4-2~
 (c++)"non-virtual thunk to Plasma::PushButton::~PushButton()@Base" 4:4.4.4-2~
 (c++)"non-virtual thunk to Plasma::RadioButton::~RadioButton()@Base" 4:4.4.4-2~
 (c++)"non-virtual thunk to Plasma::ScrollBar::contextMenuEvent(QGraphicsSceneContextMenuEvent*)@Base" 4:4.4.4-2~
 (c++)"non-virtual thunk to Plasma::ScrollBar::~ScrollBar()@Base" 4:4.4.4-2~
 (c++)"non-virtual thunk to Plasma::ScrollWidget::focusInEvent(QFocusEvent*)@Base" 4:4.4.4-2~
 (c++)"non-virtual thunk to Plasma::ScrollWidget::keyPressEvent(QKeyEvent*)@Base" 4:4.4.95
 (c++)"non-virtual thunk to Plasma::ScrollWidget::mouseMoveEvent(QGraphicsSceneMouseEvent*)@Base" 4:4.4.4-2~
 (c++)"non-virtual thunk to Plasma::ScrollWidget::mousePressEvent(QGraphicsSceneMouseEvent*)@Base" 4:4.4.4-2~
 (c++)"non-virtual thunk to Plasma::ScrollWidget::mouseReleaseEvent(QGraphicsSceneMouseEvent*)@Base" 4:4.4.4-2~
 (c++)"non-virtual thunk to Plasma::ScrollWidget::sceneEventFilter(QGraphicsItem*, QEvent*)@Base" 4:4.4.95
 (c++)"non-virtual thunk to Plasma::ScrollWidget::sizeHint(Qt::SizeHint, QSizeF const&) const@Base" 4:4.4.4-2~
 (c++)"non-virtual thunk to Plasma::ScrollWidget::wheelEvent(QGraphicsSceneWheelEvent*)@Base" 4:4.4.4-2~
 (c++)"non-virtual thunk to Plasma::ScrollWidget::~ScrollWidget()@Base" 4:4.4.4-2~
 (c++)"non-virtual thunk to Plasma::Separator::paint(QPainter*, QStyleOptionGraphicsItem const*, QWidget*)@Base" 4:4.4.4-2~
 (c++)"non-virtual thunk to Plasma::Separator::sizeHint(Qt::SizeHint, QSizeF const&) const@Base" 4:4.4.4-2~
 (c++)"non-virtual thunk to Plasma::Separator::~Separator()@Base" 4:4.4.4-2~
 (c++)"non-virtual thunk to Plasma::SignalPlotter::paint(QPainter*, QStyleOptionGraphicsItem const*, QWidget*)@Base" 4:4.4.4-2~
 (c++)"non-virtual thunk to Plasma::SignalPlotter::setGeometry(QRectF const&)@Base" 4:4.4.4-2~
 (c++)"non-virtual thunk to Plasma::SignalPlotter::~SignalPlotter()@Base" 4:4.4.4-2~
 (c++)"non-virtual thunk to Plasma::Slider::paint(QPainter*, QStyleOptionGraphicsItem const*, QWidget*)@Base" 4:4.4.4-2~
 (c++)"non-virtual thunk to Plasma::Slider::wheelEvent(QGraphicsSceneWheelEvent*)@Base" 4:4.4.4-2~
 (c++)"non-virtual thunk to Plasma::Slider::~Slider()@Base" 4:4.4.4-2~
 (c++)"non-virtual thunk to Plasma::SpinBox::focusOutEvent(QFocusEvent*)@Base" 4:4.4.95
 (c++)"non-virtual thunk to Plasma::SpinBox::hoverEnterEvent(QGraphicsSceneHoverEvent*)@Base" 4:4.4.4-2~
 (c++)"non-virtual thunk to Plasma::SpinBox::hoverLeaveEvent(QGraphicsSceneHoverEvent*)@Base" 4:4.4.4-2~
 (c++)"non-virtual thunk to Plasma::SpinBox::mousePressEvent(QGraphicsSceneMouseEvent*)@Base" 4:4.4.95
 (c++)"non-virtual thunk to Plasma::SpinBox::paint(QPainter*, QStyleOptionGraphicsItem const*, QWidget*)@Base" 4:4.4.4-2~
 (c++)"non-virtual thunk to Plasma::SpinBox::~SpinBox()@Base" 4:4.4.4-2~
 (c++)"non-virtual thunk to Plasma::SvgWidget::mousePressEvent(QGraphicsSceneMouseEvent*)@Base" 4:4.4.95
 (c++)"non-virtual thunk to Plasma::SvgWidget::mouseReleaseEvent(QGraphicsSceneMouseEvent*)@Base" 4:4.4.4-2~
 (c++)"non-virtual thunk to Plasma::SvgWidget::paint(QPainter*, QStyleOptionGraphicsItem const*, QWidget*)@Base" 4:4.4.4-2~
 (c++)"non-virtual thunk to Plasma::SvgWidget::sizeHint(Qt::SizeHint, QSizeF const&) const@Base" 4:4.4.4-2~
 (c++)"non-virtual thunk to Plasma::SvgWidget::~SvgWidget()@Base" 4:4.4.4-2~
 (c++)"non-virtual thunk to Plasma::TabBar::wheelEvent(QGraphicsSceneWheelEvent*)@Base" 4:4.4.4-2~
 (c++)"non-virtual thunk to Plasma::TabBar::~TabBar()@Base" 4:4.4.4-2~
 (c++)"non-virtual thunk to Plasma::TextBrowser::contextMenuEvent(QGraphicsSceneContextMenuEvent*)@Base" 4:4.4.4-2~
 (c++)"non-virtual thunk to Plasma::TextBrowser::wheelEvent(QGraphicsSceneWheelEvent*)@Base" 4:4.4.4-2~
 (c++)"non-virtual thunk to Plasma::TextBrowser::~TextBrowser()@Base" 4:4.4.4-2~
 (c++)"non-virtual thunk to Plasma::TextEdit::contextMenuEvent(QGraphicsSceneContextMenuEvent*)@Base" 4:4.4.4-2~
 (c++)"non-virtual thunk to Plasma::TextEdit::focusOutEvent(QFocusEvent*)@Base" 4:4.4.95
 (c++)"non-virtual thunk to Plasma::TextEdit::mousePressEvent(QGraphicsSceneMouseEvent*)@Base" 4:4.4.95
 (c++)"non-virtual thunk to Plasma::TextEdit::~TextEdit()@Base" 4:4.4.4-2~
 (c++)"non-virtual thunk to Plasma::ToolButton::hoverEnterEvent(QGraphicsSceneHoverEvent*)@Base" 4:4.4.4-2~
 (c++)"non-virtual thunk to Plasma::ToolButton::hoverLeaveEvent(QGraphicsSceneHoverEvent*)@Base" 4:4.4.4-2~
 (c++)"non-virtual thunk to Plasma::ToolButton::itemChange(QGraphicsItem::GraphicsItemChange, QVariant const&)@Base" 4:4.4.95
 (c++)"non-virtual thunk to Plasma::ToolButton::paint(QPainter*, QStyleOptionGraphicsItem const*, QWidget*)@Base" 4:4.4.4-2~
 (c++)"non-virtual thunk to Plasma::ToolButton::sizeHint(Qt::SizeHint, QSizeF const&) const@Base" 4:4.4.4-2~
 (c++)"non-virtual thunk to Plasma::ToolButton::~ToolButton()@Base" 4:4.4.4-2~
 (c++)"non-virtual thunk to Plasma::TreeView::~TreeView()@Base" 4:4.4.4-2~
 (c++)"non-virtual thunk to Plasma::VideoWidget::hoverEnterEvent(QGraphicsSceneHoverEvent*)@Base" 4:4.4.4-2~
 (c++)"non-virtual thunk to Plasma::VideoWidget::hoverLeaveEvent(QGraphicsSceneHoverEvent*)@Base" 4:4.4.4-2~
 (c++)"non-virtual thunk to Plasma::VideoWidget::hoverMoveEvent(QGraphicsSceneHoverEvent*)@Base" 4:4.4.4-2~
 (c++)"non-virtual thunk to Plasma::VideoWidget::~VideoWidget()@Base" 4:4.4.4-2~
 (c++)"non-virtual thunk to Plasma::View::~View()@Base" 4:4.4.4-2~
 (c++)"non-virtual thunk to Plasma::WebView::contextMenuEvent(QGraphicsSceneContextMenuEvent*)@Base" 4:4.4.4-2~
 (c++)"non-virtual thunk to Plasma::WebView::dragEnterEvent(QGraphicsSceneDragDropEvent*)@Base" 4:4.4.4-2~
 (c++)"non-virtual thunk to Plasma::WebView::dragLeaveEvent(QGraphicsSceneDragDropEvent*)@Base" 4:4.4.4-2~
 (c++)"non-virtual thunk to Plasma::WebView::dragMoveEvent(QGraphicsSceneDragDropEvent*)@Base" 4:4.4.4-2~
 (c++)"non-virtual thunk to Plasma::WebView::dropEvent(QGraphicsSceneDragDropEvent*)@Base" 4:4.4.4-2~
 (c++)"non-virtual thunk to Plasma::WebView::focusInEvent(QFocusEvent*)@Base" 4:4.4.4-2~
 (c++)"non-virtual thunk to Plasma::WebView::focusOutEvent(QFocusEvent*)@Base" 4:4.4.4-2~
 (c++)"non-virtual thunk to Plasma::WebView::hoverMoveEvent(QGraphicsSceneHoverEvent*)@Base" 4:4.4.4-2~
 (c++)"non-virtual thunk to Plasma::WebView::itemChange(QGraphicsItem::GraphicsItemChange, QVariant const&)@Base" 4:4.4.4-2~
 (c++)"non-virtual thunk to Plasma::WebView::keyPressEvent(QKeyEvent*)@Base" 4:4.4.4-2~
 (c++)"non-virtual thunk to Plasma::WebView::keyReleaseEvent(QKeyEvent*)@Base" 4:4.4.4-2~
 (c++)"non-virtual thunk to Plasma::WebView::mouseDoubleClickEvent(QGraphicsSceneMouseEvent*)@Base" 4:4.4.4-2~
 (c++)"non-virtual thunk to Plasma::WebView::mouseMoveEvent(QGraphicsSceneMouseEvent*)@Base" 4:4.4.4-2~
 (c++)"non-virtual thunk to Plasma::WebView::mousePressEvent(QGraphicsSceneMouseEvent*)@Base" 4:4.4.4-2~
 (c++)"non-virtual thunk to Plasma::WebView::mouseReleaseEvent(QGraphicsSceneMouseEvent*)@Base" 4:4.4.4-2~
 (c++)"non-virtual thunk to Plasma::WebView::paint(QPainter*, QStyleOptionGraphicsItem const*, QWidget*)@Base" 4:4.4.4-2~
 (c++)"non-virtual thunk to Plasma::WebView::setGeometry(QRectF const&)@Base" 4:4.4.4-2~
 (c++)"non-virtual thunk to Plasma::WebView::sizeHint(Qt::SizeHint, QSizeF const&) const@Base" 4:4.4.4-2~
 (c++)"non-virtual thunk to Plasma::WebView::wheelEvent(QGraphicsSceneWheelEvent*)@Base" 4:4.4.4-2~
 (c++)"non-virtual thunk to Plasma::WebView::~WebView()@Base" 4:4.4.4-2~
