# SymbolsHelper-Confirmed: 4:4.7.4-5 armel
libthreadweaver.so.4 libthreadweaver4 #MINVER#
* Build-Depends-Package: kdelibs5-dev
 _ZGVZN12ThreadWeaver16DependencyPolicy7Private12dependenciesEvE6depMap@Base 4:4.3.4
 _ZGVZN12ThreadWeaver16DependencyPolicy7Private5mutexEvE7s_mutex@Base 4:4.3.4
 _ZGVZN12ThreadWeaver6Thread7Private6makeIdEvE8sm_mutex@Base 4:4.3.4
 _ZN12ThreadWeaver10DebugLevelE@Base 4:4.3.4
 _ZN12ThreadWeaver11GlobalMutexE@Base 4:4.3.4
 _ZN12ThreadWeaver11JobSequence11qt_metacallEN11QMetaObject4CallEiPPv@Base 4:4.3.4
 _ZN12ThreadWeaver11JobSequence11qt_metacastEPKc@Base 4:4.3.4
 _ZN12ThreadWeaver11JobSequence15aboutToBeQueuedEPNS_15WeaverInterfaceE@Base 4:4.3.4
 _ZN12ThreadWeaver11JobSequence15internalJobDoneEPNS_3JobE@Base 4:4.3.4
 _ZN12ThreadWeaver11JobSequence16staticMetaObjectE@Base 4:4.3.4
 _ZN12ThreadWeaver11JobSequenceC1EP7QObject@Base 4:4.3.4
 _ZN12ThreadWeaver11JobSequenceC2EP7QObject@Base 4:4.3.4
 _ZN12ThreadWeaver11JobSequenceD0Ev@Base 4:4.7.4
 _ZN12ThreadWeaver11JobSequenceD1Ev@Base 4:4.7.4
 _ZN12ThreadWeaver11JobSequenceD2Ev@Base 4:4.7.4
 _ZN12ThreadWeaver13JobCollection11qt_metacallEN11QMetaObject4CallEiPPv@Base 4:4.3.4
 _ZN12ThreadWeaver13JobCollection11qt_metacastEPKc@Base 4:4.3.4
 _ZN12ThreadWeaver13JobCollection12finalCleanupEv@Base 4:4.3.4
 _ZN12ThreadWeaver13JobCollection13canBeExecutedEv@Base 4:4.3.4
 _ZN12ThreadWeaver13JobCollection13jobListLengthEv@Base 4:4.3.4
 _ZN12ThreadWeaver13JobCollection13jobRunnerDoneEv@Base 4:4.3.4
 _ZN12ThreadWeaver13JobCollection15aboutToBeQueuedEPNS_15WeaverInterfaceE@Base 4:4.3.4
 _ZN12ThreadWeaver13JobCollection15dequeueElementsEv@Base 4:4.3.4
 _ZN12ThreadWeaver13JobCollection15internalJobDoneEPNS_3JobE@Base 4:4.3.4
 _ZN12ThreadWeaver13JobCollection16staticMetaObjectE@Base 4:4.3.4
 _ZN12ThreadWeaver13JobCollection17aboutToBeDequeuedEPNS_15WeaverInterfaceE@Base 4:4.3.4
 _ZN12ThreadWeaver13JobCollection4stopEPNS_3JobE@Base 4:4.3.4
 _ZN12ThreadWeaver13JobCollection5jobAtEi@Base 4:4.3.4
 _ZN12ThreadWeaver13JobCollection6addJobEPNS_3JobE@Base 4:4.3.4
 _ZN12ThreadWeaver13JobCollection7executeEPNS_6ThreadE@Base 4:4.3.4
 _ZN12ThreadWeaver13JobCollectionC1EP7QObject@Base 4:4.3.4
 _ZN12ThreadWeaver13JobCollectionC2EP7QObject@Base 4:4.3.4
 _ZN12ThreadWeaver13JobCollectionD0Ev@Base 4:4.3.4
 _ZN12ThreadWeaver13JobCollectionD1Ev@Base 4:4.3.4
 _ZN12ThreadWeaver13JobCollectionD2Ev@Base 4:4.3.4
 _ZN12ThreadWeaver14WeaverObserver10threadBusyEPNS_6ThreadEPNS_3JobE@Base 4:4.3.4
 _ZN12ThreadWeaver14WeaverObserver11qt_metacallEN11QMetaObject4CallEiPPv@Base 4:4.3.4
 _ZN12ThreadWeaver14WeaverObserver11qt_metacastEPKc@Base 4:4.3.4
 _ZN12ThreadWeaver14WeaverObserver12threadExitedEPNS_6ThreadE@Base 4:4.3.4
 _ZN12ThreadWeaver14WeaverObserver13threadStartedEPNS_6ThreadE@Base 4:4.3.4
 _ZN12ThreadWeaver14WeaverObserver15threadSuspendedEPNS_6ThreadE@Base 4:4.3.4
 _ZN12ThreadWeaver14WeaverObserver16staticMetaObjectE@Base 4:4.3.4
 _ZN12ThreadWeaver14WeaverObserver18weaverStateChangedEPNS_5StateE@Base 4:4.3.4
 _ZN12ThreadWeaver14WeaverObserverC1EP7QObject@Base 4:4.3.4
 _ZN12ThreadWeaver14WeaverObserverC2EP7QObject@Base 4:4.3.4
 _ZN12ThreadWeaver14WeaverObserverD0Ev@Base 4:4.3.4
 _ZN12ThreadWeaver14WeaverObserverD1Ev@Base 4:4.3.4
 _ZN12ThreadWeaver14WeaverObserverD2Ev@Base 4:4.3.4
 _ZN12ThreadWeaver15WeaverInterface11qt_metacallEN11QMetaObject4CallEiPPv@Base 4:4.3.4
 _ZN12ThreadWeaver15WeaverInterface11qt_metacastEPKc@Base 4:4.3.4
 _ZN12ThreadWeaver15WeaverInterface12stateChangedEPNS_5StateE@Base 4:4.3.4
 _ZN12ThreadWeaver15WeaverInterface16staticMetaObjectE@Base 4:4.3.4
 _ZN12ThreadWeaver15WeaverInterface7jobDoneEPNS_3JobE@Base 4:4.3.4
 _ZN12ThreadWeaver15WeaverInterface8finishedEv@Base 4:4.3.4
 _ZN12ThreadWeaver15WeaverInterface9suspendedEv@Base 4:4.3.4
 _ZN12ThreadWeaver15WeaverInterfaceC1EP7QObject@Base 4:4.3.4
 _ZN12ThreadWeaver15WeaverInterfaceC2EP7QObject@Base 4:4.3.4
 _ZN12ThreadWeaver16DependencyPolicy10destructedEPNS_3JobE@Base 4:4.3.4
 _ZN12ThreadWeaver16DependencyPolicy13addDependencyEPNS_3JobES2_@Base 4:4.3.4
 _ZN12ThreadWeaver16DependencyPolicy16removeDependencyEPNS_3JobES2_@Base 4:4.3.4
 _ZN12ThreadWeaver16DependencyPolicy19dumpJobDependenciesEv@Base 4:4.3.4
 _ZN12ThreadWeaver16DependencyPolicy19resolveDependenciesEPNS_3JobE@Base 4:4.3.4
 _ZN12ThreadWeaver16DependencyPolicy4freeEPNS_3JobE@Base 4:4.3.4
 _ZN12ThreadWeaver16DependencyPolicy6canRunEPNS_3JobE@Base 4:4.3.4
 _ZN12ThreadWeaver16DependencyPolicy7releaseEPNS_3JobE@Base 4:4.3.4
 _ZN12ThreadWeaver16DependencyPolicy8instanceEv@Base 4:4.3.4
 _ZN12ThreadWeaver16DependencyPolicyC1Ev@Base 4:4.3.4
 _ZN12ThreadWeaver16DependencyPolicyC2Ev@Base 4:4.3.4
 _ZN12ThreadWeaver16DependencyPolicyD0Ev@Base 4:4.3.4
 _ZN12ThreadWeaver16DependencyPolicyD1Ev@Base 4:4.3.4
 _ZN12ThreadWeaver16DependencyPolicyD2Ev@Base 4:4.3.4
 _ZN12ThreadWeaver25ResourceRestrictionPolicy10destructedEPNS_3JobE@Base 4:4.3.4
 _ZN12ThreadWeaver25ResourceRestrictionPolicy4freeEPNS_3JobE@Base 4:4.3.4
 _ZN12ThreadWeaver25ResourceRestrictionPolicy6canRunEPNS_3JobE@Base 4:4.3.4
 _ZN12ThreadWeaver25ResourceRestrictionPolicy6setCapEi@Base 4:4.3.4
 _ZN12ThreadWeaver25ResourceRestrictionPolicy7releaseEPNS_3JobE@Base 4:4.3.4
 _ZN12ThreadWeaver25ResourceRestrictionPolicyC1Ei@Base 4:4.3.4
 _ZN12ThreadWeaver25ResourceRestrictionPolicyC2Ei@Base 4:4.3.4
 _ZN12ThreadWeaver25ResourceRestrictionPolicyD0Ev@Base 4:4.3.4
 _ZN12ThreadWeaver25ResourceRestrictionPolicyD1Ev@Base 4:4.3.4
 _ZN12ThreadWeaver25ResourceRestrictionPolicyD2Ev@Base 4:4.3.4
 _ZN12ThreadWeaver3Job11qt_metacallEN11QMetaObject4CallEiPPv@Base 4:4.3.4
 _ZN12ThreadWeaver3Job11qt_metacastEPKc@Base 4:4.3.4
 _ZN12ThreadWeaver3Job11setFinishedEb@Base 4:4.3.4
 _ZN12ThreadWeaver3Job13canBeExecutedEv@Base 4:4.3.4
 _ZN12ThreadWeaver3Job15aboutToBeQueuedEPNS_15WeaverInterfaceE@Base 4:4.3.4
 _ZN12ThreadWeaver3Job16staticMetaObjectE@Base 4:4.3.4
 _ZN12ThreadWeaver3Job17aboutToBeDequeuedEPNS_15WeaverInterfaceE@Base 4:4.3.4
 _ZN12ThreadWeaver3Job17assignQueuePolicyEPNS_11QueuePolicyE@Base 4:4.3.4
 _ZN12ThreadWeaver3Job17removeQueuePolicyEPNS_11QueuePolicyE@Base 4:4.3.4
 _ZN12ThreadWeaver3Job24freeQueuePolicyResourcesEv@Base 4:4.3.4
 _ZN12ThreadWeaver3Job4doneEPS0_@Base 4:4.3.4
 _ZN12ThreadWeaver3Job6failedEPS0_@Base 4:4.3.4
 _ZN12ThreadWeaver3Job6threadEv@Base 4:4.3.4
 _ZN12ThreadWeaver3Job7executeEPNS_6ThreadE@Base 4:4.3.4
 _ZN12ThreadWeaver3Job7startedEPS0_@Base 4:4.3.4
 _ZN12ThreadWeaver3JobC1EP7QObject@Base 4:4.3.4
 _ZN12ThreadWeaver3JobC2EP7QObject@Base 4:4.3.4
 _ZN12ThreadWeaver3JobD0Ev@Base 4:4.3.4
 _ZN12ThreadWeaver3JobD1Ev@Base 4:4.3.4
 _ZN12ThreadWeaver3JobD2Ev@Base 4:4.3.4
 _ZN12ThreadWeaver5DebugE@Base 4:4.3.4
 _ZN12ThreadWeaver5State6weaverEv@Base 4:4.3.4
 _ZN12ThreadWeaver5State9activatedEv@Base 4:4.3.4
 _ZN12ThreadWeaver5StateC1EPNS_15WeaverInterfaceE@Base 4:4.3.4
 _ZN12ThreadWeaver5StateC2EPNS_15WeaverInterfaceE@Base 4:4.3.4
 _ZN12ThreadWeaver5StateD0Ev@Base 4:4.3.4
 _ZN12ThreadWeaver5StateD1Ev@Base 4:4.3.4
 _ZN12ThreadWeaver5StateD2Ev@Base 4:4.3.4
 _ZN12ThreadWeaver6Thread10jobStartedEPS0_PNS_3JobE@Base 4:4.3.4
 _ZN12ThreadWeaver6Thread11qt_metacallEN11QMetaObject4CallEiPPv@Base 4:4.3.4
 _ZN12ThreadWeaver6Thread11qt_metacastEPKc@Base 4:4.3.4
 _ZN12ThreadWeaver6Thread12requestAbortEv@Base 4:4.3.4
 _ZN12ThreadWeaver6Thread16staticMetaObjectE@Base 4:4.3.4
 _ZN12ThreadWeaver6Thread2idEv@Base 4:4.3.4
 _ZN12ThreadWeaver6Thread3runEv@Base 4:4.3.4
 _ZN12ThreadWeaver6Thread6msleepEm@Base 4:4.3.4
 _ZN12ThreadWeaver6Thread7jobDoneEPNS_3JobE@Base 4:4.3.4
 _ZN12ThreadWeaver6Thread7startedEPS0_@Base 4:4.3.4
 _ZN12ThreadWeaver6ThreadC1EPNS_10WeaverImplE@Base 4:4.3.4
 _ZN12ThreadWeaver6ThreadC2EPNS_10WeaverImplE@Base 4:4.3.4
 _ZN12ThreadWeaver6ThreadD0Ev@Base 4:4.3.4
 _ZN12ThreadWeaver6ThreadD1Ev@Base 4:4.3.4
 _ZN12ThreadWeaver6ThreadD2Ev@Base 4:4.3.4
 _ZN12ThreadWeaver6Weaver11qt_metacallEN11QMetaObject4CallEiPPv@Base 4:4.3.4
 _ZN12ThreadWeaver6Weaver11qt_metacastEPKc@Base 4:4.3.4
 _ZN12ThreadWeaver6Weaver12requestAbortEv@Base 4:4.3.4
 _ZN12ThreadWeaver6Weaver14makeWeaverImplEv@Base 4:4.3.4
 _ZN12ThreadWeaver6Weaver16registerObserverEPNS_14WeaverObserverE@Base 4:4.3.4
 _ZN12ThreadWeaver6Weaver16staticMetaObjectE@Base 4:4.3.4
 _ZN12ThreadWeaver6Weaver25setMaximumNumberOfThreadsEi@Base 4:4.3.4
 _ZN12ThreadWeaver6Weaver6finishEv@Base 4:4.3.4
 _ZN12ThreadWeaver6Weaver6resumeEv@Base 4:4.3.4
 _ZN12ThreadWeaver6Weaver7dequeueEPNS_3JobE@Base 4:4.3.4
 _ZN12ThreadWeaver6Weaver7dequeueEv@Base 4:4.3.4
 _ZN12ThreadWeaver6Weaver7enqueueEPNS_3JobE@Base 4:4.3.4
 _ZN12ThreadWeaver6Weaver7suspendEv@Base 4:4.3.4
 _ZN12ThreadWeaver6Weaver8instanceEv@Base 4:4.3.4
 _ZN12ThreadWeaver6WeaverC1EP7QObject@Base 4:4.3.4
 _ZN12ThreadWeaver6WeaverC2EP7QObject@Base 4:4.3.4
 _ZN12ThreadWeaver6WeaverD0Ev@Base 4:4.3.4
 _ZN12ThreadWeaver6WeaverD1Ev@Base 4:4.3.4
 _ZN12ThreadWeaver6WeaverD2Ev@Base 4:4.3.4
 _ZNK12ThreadWeaver11JobSequence10metaObjectEv@Base 4:4.3.4
 _ZNK12ThreadWeaver13JobCollection10metaObjectEv@Base 4:4.3.4
 _ZNK12ThreadWeaver14WeaverObserver10metaObjectEv@Base 4:4.3.4
 _ZNK12ThreadWeaver15WeaverInterface10metaObjectEv@Base 4:4.3.4
 _ZNK12ThreadWeaver16DependencyPolicy15getDependenciesEPNS_3JobE@Base 4:4.3.4
 _ZNK12ThreadWeaver16DependencyPolicy25hasUnresolvedDependenciesEPNS_3JobE@Base 4:4.3.4
 _ZNK12ThreadWeaver25ResourceRestrictionPolicy3capEv@Base 4:4.3.4
 _ZNK12ThreadWeaver3Job10isFinishedEv@Base 4:4.3.4
 _ZNK12ThreadWeaver3Job10metaObjectEv@Base 4:4.3.4
 _ZNK12ThreadWeaver3Job7successEv@Base 4:4.3.4
 _ZNK12ThreadWeaver3Job8priorityEv@Base 4:4.3.4
 _ZNK12ThreadWeaver5State9stateNameEv@Base 4:4.3.4
 _ZNK12ThreadWeaver6Thread10metaObjectEv@Base 4:4.3.4
 _ZNK12ThreadWeaver6Weaver10metaObjectEv@Base 4:4.3.4
 _ZNK12ThreadWeaver6Weaver11queueLengthEv@Base 4:4.3.4
 _ZNK12ThreadWeaver6Weaver22currentNumberOfThreadsEv@Base 4:4.3.4
 _ZNK12ThreadWeaver6Weaver22maximumNumberOfThreadsEv@Base 4:4.3.4
 _ZNK12ThreadWeaver6Weaver5stateEv@Base 4:4.3.4
 _ZNK12ThreadWeaver6Weaver6isIdleEv@Base 4:4.3.4
 _ZNK12ThreadWeaver6Weaver7isEmptyEv@Base 4:4.3.4
 _ZTIN12ThreadWeaver11JobSequenceE@Base 4:4.3.4
 _ZTIN12ThreadWeaver11QueuePolicyE@Base 4:4.3.4
 _ZTIN12ThreadWeaver13JobCollectionE@Base 4:4.3.4
 _ZTIN12ThreadWeaver14WeaverObserverE@Base 4:4.3.4
 _ZTIN12ThreadWeaver15WeaverInterfaceE@Base 4:4.3.4
 _ZTIN12ThreadWeaver16DependencyPolicyE@Base 4:4.3.4
 _ZTIN12ThreadWeaver25ResourceRestrictionPolicyE@Base 4:4.3.4
 _ZTIN12ThreadWeaver3JobE@Base 4:4.3.4
 _ZTIN12ThreadWeaver5StateE@Base 4:4.3.4
 _ZTIN12ThreadWeaver6ThreadE@Base 4:4.3.4
 _ZTIN12ThreadWeaver6WeaverE@Base 4:4.3.4
 _ZTSN12ThreadWeaver11JobSequenceE@Base 4:4.3.4
 _ZTSN12ThreadWeaver11QueuePolicyE@Base 4:4.3.4
 _ZTSN12ThreadWeaver13JobCollectionE@Base 4:4.3.4
 _ZTSN12ThreadWeaver14WeaverObserverE@Base 4:4.3.4
 _ZTSN12ThreadWeaver15WeaverInterfaceE@Base 4:4.3.4
 _ZTSN12ThreadWeaver16DependencyPolicyE@Base 4:4.3.4
 _ZTSN12ThreadWeaver25ResourceRestrictionPolicyE@Base 4:4.3.4
 _ZTSN12ThreadWeaver3JobE@Base 4:4.3.4
 _ZTSN12ThreadWeaver5StateE@Base 4:4.3.4
 _ZTSN12ThreadWeaver6ThreadE@Base 4:4.3.4
 _ZTSN12ThreadWeaver6WeaverE@Base 4:4.3.4
 _ZTVN12ThreadWeaver11JobSequenceE@Base 4:4.3.4
 _ZTVN12ThreadWeaver11QueuePolicyE@Base 4:4.3.4
 _ZTVN12ThreadWeaver13JobCollectionE@Base 4:4.3.4
 _ZTVN12ThreadWeaver14WeaverObserverE@Base 4:4.3.4
 _ZTVN12ThreadWeaver15WeaverInterfaceE@Base 4:4.3.4
 _ZTVN12ThreadWeaver16DependencyPolicyE@Base 4:4.3.4
 _ZTVN12ThreadWeaver25ResourceRestrictionPolicyE@Base 4:4.3.4
 _ZTVN12ThreadWeaver3JobE@Base 4:4.3.4
 _ZTVN12ThreadWeaver5StateE@Base 4:4.3.4
 _ZTVN12ThreadWeaver6ThreadE@Base 4:4.3.4
 _ZTVN12ThreadWeaver6WeaverE@Base 4:4.3.4
 _ZZN12ThreadWeaver16DependencyPolicy7Private12dependenciesEvE6depMap@Base 4:4.3.4
 _ZZN12ThreadWeaver16DependencyPolicy7Private5mutexEvE7s_mutex@Base 4:4.3.4
 _ZZN12ThreadWeaver6Thread7Private6makeIdEvE4s_id@Base 4:4.3.4
 _ZZN12ThreadWeaver6Thread7Private6makeIdEvE8sm_mutex@Base 4:4.3.4
