# SymbolsHelper-Confirmed: 0.7.0 amd64
libqzeitgeist.so.0 libqzeitgeist0 #MINVER#
 _ZN11QtZeitgeist18DataSourceRegistry11qt_metacallEN11QMetaObject4CallEiPPv@Base 0.7.0
 _ZN11QtZeitgeist18DataSourceRegistry11qt_metacastEPKc@Base 0.7.0
 _ZN11QtZeitgeist18DataSourceRegistry14getDataSourcesEv@Base 0.7.0
 _ZN11QtZeitgeist18DataSourceRegistry16staticMetaObjectE@Base 0.7.0
 _ZN11QtZeitgeist18DataSourceRegistry17dataSourceEnabledERK7QStringb@Base 0.7.0
 _ZN11QtZeitgeist18DataSourceRegistry18registerDataSourceERK7QStringS3_S3_R5QListINS_9DataModel5EventEE@Base 0.7.0
 _ZN11QtZeitgeist18DataSourceRegistry20dataSourceRegisteredERKNS_9DataModel10DataSourceE@Base 0.7.0
 _ZN11QtZeitgeist18DataSourceRegistry20setDataSourceEnabledERK7QStringb@Base 0.7.0
 _ZN11QtZeitgeist18DataSourceRegistry22dataSourceDisconnectedERKNS_9DataModel10DataSourceE@Base 0.7.0
 _ZN11QtZeitgeist18DataSourceRegistryC1EP7QObject@Base 0.7.0
 _ZN11QtZeitgeist18DataSourceRegistryC2EP7QObject@Base 0.7.0
 _ZN11QtZeitgeist18DataSourceRegistryD0Ev@Base 0.7.0
 _ZN11QtZeitgeist18DataSourceRegistryD1Ev@Base 0.7.0
 _ZN11QtZeitgeist18DataSourceRegistryD2Ev@Base 0.7.0
 _ZN11QtZeitgeist3Log10findEventsENS_9DataModel9TimeRangeE5QListINS1_5EventEENS0_12StorageStateEjNS0_10ResultTypeE@Base 0.7.0
 _ZN11QtZeitgeist3Log11qt_metacallEN11QMetaObject4CallEiPPv@Base 0.7.0
 _ZN11QtZeitgeist3Log11qt_metacastEPKc@Base 0.7.0
 _ZN11QtZeitgeist3Log12deleteEventsE5QListIjE@Base 0.7.0
 _ZN11QtZeitgeist3Log12findEventIdsENS_9DataModel9TimeRangeE5QListINS1_5EventEENS0_12StorageStateEjNS0_10ResultTypeE@Base 0.7.0
 _ZN11QtZeitgeist3Log12insertEventsE5QListINS_9DataModel5EventEE@Base 0.7.0
 _ZN11QtZeitgeist3Log13removeMonitorEPNS_7MonitorE@Base 0.7.0
 _ZN11QtZeitgeist3Log14installMonitorENS_9DataModel9TimeRangeE5QListINS1_5EventEE@Base 0.7.0
 _ZN11QtZeitgeist3Log15findRelatedUrisENS_9DataModel9TimeRangeE5QListINS1_5EventEES5_NS0_12StorageStateEjNS0_10ResultTypeE@Base 0.7.0
 _ZN11QtZeitgeist3Log16staticMetaObjectE@Base 0.7.0
 _ZN11QtZeitgeist3Log9deleteLogEv@Base 0.7.0
 _ZN11QtZeitgeist3Log9getEventsE5QListIjE@Base 0.7.0
 _ZN11QtZeitgeist3LogC1EP7QObject@Base 0.7.0
 _ZN11QtZeitgeist3LogC2EP7QObject@Base 0.7.0
 _ZN11QtZeitgeist3LogD0Ev@Base 0.7.0
 _ZN11QtZeitgeist3LogD1Ev@Base 0.7.0
 _ZN11QtZeitgeist3LogD2Ev@Base 0.7.0
 _ZN11QtZeitgeist4initEv@Base 0.7.0
 _ZN11QtZeitgeist7Monitor11qt_metacallEN11QMetaObject4CallEiPPv@Base 0.7.0
 _ZN11QtZeitgeist7Monitor11qt_metacastEPKc@Base 0.7.0
 _ZN11QtZeitgeist7Monitor13eventsDeletedERKNS_9DataModel9TimeRangeERK5QListIjE@Base 0.7.0
 _ZN11QtZeitgeist7Monitor14eventsInsertedERKNS_9DataModel9TimeRangeERK5QListINS1_5EventEE@Base 0.7.0
 _ZN11QtZeitgeist7Monitor16staticMetaObjectE@Base 0.7.0
 _ZN11QtZeitgeist7MonitorC1EyNS_9DataModel9TimeRangeE5QListINS1_5EventEEP7QObject@Base 0.7.0
 _ZN11QtZeitgeist7MonitorC2EyNS_9DataModel9TimeRangeE5QListINS1_5EventEEP7QObject@Base 0.7.0
 _ZN11QtZeitgeist7MonitorD0Ev@Base 0.7.0
 _ZN11QtZeitgeist7MonitorD1Ev@Base 0.7.0
 _ZN11QtZeitgeist7MonitorD2Ev@Base 0.7.0
 _ZN11QtZeitgeist9DataModel10DataSource11qt_metacallEN11QMetaObject4CallEiPPv@Base 0.7.0
 _ZN11QtZeitgeist9DataModel10DataSource11qt_metacastEPKc@Base 0.7.0
 _ZN11QtZeitgeist9DataModel10DataSource16staticMetaObjectE@Base 0.7.0
 _ZN11QtZeitgeist9DataModel10DataSourceC1EP7QObject@Base 0.7.0
 _ZN11QtZeitgeist9DataModel10DataSourceC1ERKS1_P7QObject@Base 0.7.0
 _ZN11QtZeitgeist9DataModel10DataSourceC2EP7QObject@Base 0.7.0
 _ZN11QtZeitgeist9DataModel10DataSourceC2ERKS1_P7QObject@Base 0.7.0
 _ZN11QtZeitgeist9DataModel10DataSourceD0Ev@Base 0.7.0
 _ZN11QtZeitgeist9DataModel10DataSourceD1Ev@Base 0.7.0
 _ZN11QtZeitgeist9DataModel10DataSourceD2Ev@Base 0.7.0
 _ZN11QtZeitgeist9DataModel10DataSourceaSERKS1_@Base 0.7.0
 _ZN11QtZeitgeist9DataModel5Event10addSubjectERKNS0_7SubjectE@Base 0.7.0
 _ZN11QtZeitgeist9DataModel5Event10setPayloadERK10QByteArray@Base 0.7.0
 _ZN11QtZeitgeist9DataModel5Event11qt_metacallEN11QMetaObject4CallEiPPv@Base 0.7.0
 _ZN11QtZeitgeist9DataModel5Event11qt_metacastEPKc@Base 0.7.0
 _ZN11QtZeitgeist9DataModel5Event11setSubjectsERK5QListINS0_7SubjectEE@Base 0.7.0
 _ZN11QtZeitgeist9DataModel5Event12setTimestampERK9QDateTime@Base 0.7.0
 _ZN11QtZeitgeist9DataModel5Event16setManifestationERK7QString@Base 0.7.0
 _ZN11QtZeitgeist9DataModel5Event16staticMetaObjectE@Base 0.7.0
 _ZN11QtZeitgeist9DataModel5Event17setInterpretationERK7QString@Base 0.7.0
 _ZN11QtZeitgeist9DataModel5Event8setActorERK7QString@Base 0.7.0
 _ZN11QtZeitgeist9DataModel5EventC1EP7QObject@Base 0.7.0
 _ZN11QtZeitgeist9DataModel5EventC1ERKS1_P7QObject@Base 0.7.0
 _ZN11QtZeitgeist9DataModel5EventC2EP7QObject@Base 0.7.0
 _ZN11QtZeitgeist9DataModel5EventC2ERKS1_P7QObject@Base 0.7.0
 _ZN11QtZeitgeist9DataModel5EventD0Ev@Base 0.7.0
 _ZN11QtZeitgeist9DataModel5EventD1Ev@Base 0.7.0
 _ZN11QtZeitgeist9DataModel5EventD2Ev@Base 0.7.0
 _ZN11QtZeitgeist9DataModel5EventaSERKS1_@Base 0.7.0
 _ZN11QtZeitgeist9DataModel7Subject10setStorageERK7QString@Base 0.7.0
 _ZN11QtZeitgeist9DataModel7Subject11qt_metacallEN11QMetaObject4CallEiPPv@Base 0.7.0
 _ZN11QtZeitgeist9DataModel7Subject11qt_metacastEPKc@Base 0.7.0
 _ZN11QtZeitgeist9DataModel7Subject11setMimeTypeERK7QString@Base 0.7.0
 _ZN11QtZeitgeist9DataModel7Subject16setManifestationERK7QString@Base 0.7.0
 _ZN11QtZeitgeist9DataModel7Subject16staticMetaObjectE@Base 0.7.0
 _ZN11QtZeitgeist9DataModel7Subject17setInterpretationERK7QString@Base 0.7.0
 _ZN11QtZeitgeist9DataModel7Subject6setUriERK7QString@Base 0.7.0
 _ZN11QtZeitgeist9DataModel7Subject7setTextERK7QString@Base 0.7.0
 _ZN11QtZeitgeist9DataModel7Subject9setOriginERK7QString@Base 0.7.0
 _ZN11QtZeitgeist9DataModel7SubjectC1EP7QObject@Base 0.7.0
 _ZN11QtZeitgeist9DataModel7SubjectC1ERKS1_P7QObject@Base 0.7.0
 _ZN11QtZeitgeist9DataModel7SubjectC2EP7QObject@Base 0.7.0
 _ZN11QtZeitgeist9DataModel7SubjectC2ERKS1_P7QObject@Base 0.7.0
 _ZN11QtZeitgeist9DataModel7SubjectD0Ev@Base 0.7.0
 _ZN11QtZeitgeist9DataModel7SubjectD1Ev@Base 0.7.0
 _ZN11QtZeitgeist9DataModel7SubjectD2Ev@Base 0.7.0
 _ZN11QtZeitgeist9DataModel7SubjectaSERKS1_@Base 0.7.0
 _ZN11QtZeitgeist9DataModel9TimeRange11qt_metacallEN11QMetaObject4CallEiPPv@Base 0.7.0
 _ZN11QtZeitgeist9DataModel9TimeRange11qt_metacastEPKc@Base 0.7.0
 _ZN11QtZeitgeist9DataModel9TimeRange14timeRangeToNowEv@Base 0.7.0
 _ZN11QtZeitgeist9DataModel9TimeRange16staticMetaObjectE@Base 0.7.0
 _ZN11QtZeitgeist9DataModel9TimeRange16timeRangeFromNowEv@Base 0.7.0
 _ZN11QtZeitgeist9DataModel9TimeRange6alwaysEv@Base 0.7.0
 _ZN11QtZeitgeist9DataModel9TimeRange6setEndEx@Base 0.7.0
 _ZN11QtZeitgeist9DataModel9TimeRange8setBeginEx@Base 0.7.0
 _ZN11QtZeitgeist9DataModel9TimeRangeC1EP7QObject@Base 0.7.0
 _ZN11QtZeitgeist9DataModel9TimeRangeC1ERKS1_P7QObject@Base 0.7.0
 _ZN11QtZeitgeist9DataModel9TimeRangeC1Exx@Base 0.7.0
 _ZN11QtZeitgeist9DataModel9TimeRangeC2EP7QObject@Base 0.7.0
 _ZN11QtZeitgeist9DataModel9TimeRangeC2ERKS1_P7QObject@Base 0.7.0
 _ZN11QtZeitgeist9DataModel9TimeRangeC2Exx@Base 0.7.0
 _ZN11QtZeitgeist9DataModel9TimeRangeD0Ev@Base 0.7.0
 _ZN11QtZeitgeist9DataModel9TimeRangeD1Ev@Base 0.7.0
 _ZN11QtZeitgeist9DataModel9TimeRangeD2Ev@Base 0.7.0
 _ZN11QtZeitgeist9DataModel9TimeRangeaSERKS1_@Base 0.7.0
 _ZN11QtZeitgeist9DataModellsER13QDBusArgumentRKNS0_10DataSourceE@Base 0.7.0
 _ZN11QtZeitgeist9DataModellsER13QDBusArgumentRKNS0_5EventE@Base 0.7.0
 _ZN11QtZeitgeist9DataModellsER13QDBusArgumentRKNS0_9TimeRangeE@Base 0.7.0
 _ZN11QtZeitgeist9DataModelrsERK13QDBusArgumentRNS0_10DataSourceE@Base 0.7.0
 _ZN11QtZeitgeist9DataModelrsERK13QDBusArgumentRNS0_5EventE@Base 0.7.0
 _ZN11QtZeitgeist9DataModelrsERK13QDBusArgumentRNS0_9TimeRangeE@Base 0.7.0
 _ZNK11QtZeitgeist18DataSourceRegistry10metaObjectEv@Base 0.7.0
 _ZNK11QtZeitgeist3Log10metaObjectEv@Base 0.7.0
 _ZNK11QtZeitgeist7Monitor10metaObjectEv@Base 0.7.0
 _ZNK11QtZeitgeist7Monitor10objectPathEv@Base 0.7.0
 _ZNK11QtZeitgeist7Monitor14eventTemplatesEv@Base 0.7.0
 _ZNK11QtZeitgeist7Monitor2idEv@Base 0.7.0
 _ZNK11QtZeitgeist7Monitor9timeRangeEv@Base 0.7.0
 _ZNK11QtZeitgeist9DataModel10DataSource10metaObjectEv@Base 0.7.0
 _ZNK11QtZeitgeist9DataModel10DataSource11descriptionEv@Base 0.7.0
 _ZNK11QtZeitgeist9DataModel10DataSource14eventTemplatesEv@Base 0.7.0
 _ZNK11QtZeitgeist9DataModel10DataSource4nameEv@Base 0.7.0
 _ZNK11QtZeitgeist9DataModel10DataSource7enabledEv@Base 0.7.0
 _ZNK11QtZeitgeist9DataModel10DataSource7runningEv@Base 0.7.0
 _ZNK11QtZeitgeist9DataModel10DataSource8lastSeenEv@Base 0.7.0
 _ZNK11QtZeitgeist9DataModel10DataSource8uniqueIdEv@Base 0.7.0
 _ZNK11QtZeitgeist9DataModel5Event10metaObjectEv@Base 0.7.0
 _ZNK11QtZeitgeist9DataModel5Event13manifestationEv@Base 0.7.0
 _ZNK11QtZeitgeist9DataModel5Event14interpretationEv@Base 0.7.0
 _ZNK11QtZeitgeist9DataModel5Event2idEv@Base 0.7.0
 _ZNK11QtZeitgeist9DataModel5Event5actorEv@Base 0.7.0
 _ZNK11QtZeitgeist9DataModel5Event7payloadEv@Base 0.7.0
 _ZNK11QtZeitgeist9DataModel5Event8subjectsEv@Base 0.7.0
 _ZNK11QtZeitgeist9DataModel5Event9timestampEv@Base 0.7.0
 _ZNK11QtZeitgeist9DataModel7Subject10metaObjectEv@Base 0.7.0
 _ZNK11QtZeitgeist9DataModel7Subject13manifestationEv@Base 0.7.0
 _ZNK11QtZeitgeist9DataModel7Subject14interpretationEv@Base 0.7.0
 _ZNK11QtZeitgeist9DataModel7Subject3uriEv@Base 0.7.0
 _ZNK11QtZeitgeist9DataModel7Subject4textEv@Base 0.7.0
 _ZNK11QtZeitgeist9DataModel7Subject6originEv@Base 0.7.0
 _ZNK11QtZeitgeist9DataModel7Subject7storageEv@Base 0.7.0
 _ZNK11QtZeitgeist9DataModel7Subject8mimeTypeEv@Base 0.7.0
 _ZNK11QtZeitgeist9DataModel9TimeRange10metaObjectEv@Base 0.7.0
 _ZNK11QtZeitgeist9DataModel9TimeRange3endEv@Base 0.7.0
 _ZNK11QtZeitgeist9DataModel9TimeRange5beginEv@Base 0.7.0
 _ZTIN11QtZeitgeist18DataSourceRegistryE@Base 0.7.0
 _ZTIN11QtZeitgeist3LogE@Base 0.7.0
 _ZTIN11QtZeitgeist7MonitorE@Base 0.7.0
 _ZTIN11QtZeitgeist9DataModel10DataSourceE@Base 0.7.0
 _ZTIN11QtZeitgeist9DataModel5EventE@Base 0.7.0
 _ZTIN11QtZeitgeist9DataModel7SubjectE@Base 0.7.0
 _ZTIN11QtZeitgeist9DataModel9TimeRangeE@Base 0.7.0
 _ZTSN11QtZeitgeist18DataSourceRegistryE@Base 0.7.0
 _ZTSN11QtZeitgeist3LogE@Base 0.7.0
 _ZTSN11QtZeitgeist7MonitorE@Base 0.7.0
 _ZTSN11QtZeitgeist9DataModel10DataSourceE@Base 0.7.0
 _ZTSN11QtZeitgeist9DataModel5EventE@Base 0.7.0
 _ZTSN11QtZeitgeist9DataModel7SubjectE@Base 0.7.0
 _ZTSN11QtZeitgeist9DataModel9TimeRangeE@Base 0.7.0
 _ZTVN11QtZeitgeist18DataSourceRegistryE@Base 0.7.0
 _ZTVN11QtZeitgeist3LogE@Base 0.7.0
 _ZTVN11QtZeitgeist7MonitorE@Base 0.7.0
 _ZTVN11QtZeitgeist9DataModel10DataSourceE@Base 0.7.0
 _ZTVN11QtZeitgeist9DataModel5EventE@Base 0.7.0
 _ZTVN11QtZeitgeist9DataModel7SubjectE@Base 0.7.0
 _ZTVN11QtZeitgeist9DataModel9TimeRangeE@Base 0.7.0
