# SymbolsHelper-Confirmed: 4:4.8.1 amd64
libakonadi-kcal.so.4 libakonadi-kcal4 #MINVER#, kdepim-runtime
* Build-Depends-Package: kdepimlibs5-dev
 _ZN7Akonadi20FreeBusyProviderBase17freeBusyRetrievedERK7QStringS3_bS3_@Base 4:4.8.1
 _ZN7Akonadi20FreeBusyProviderBaseC1Ev@Base 4:4.8.1
 _ZN7Akonadi20FreeBusyProviderBaseC2Ev@Base 4:4.8.1
 _ZN7Akonadi20FreeBusyProviderBaseD0Ev@Base 4:4.8.1
 _ZN7Akonadi20FreeBusyProviderBaseD1Ev@Base 4:4.8.1
 _ZN7Akonadi20FreeBusyProviderBaseD2Ev@Base 4:4.8.1
 _ZN7Akonadi24IncidenceMimeTypeVisitor12todoMimeTypeEv@Base 4:4.4.0
 _ZN7Akonadi24IncidenceMimeTypeVisitor13eventMimeTypeEv@Base 4:4.4.0
 _ZN7Akonadi24IncidenceMimeTypeVisitor15journalMimeTypeEv@Base 4:4.4.0
 _ZN7Akonadi24IncidenceMimeTypeVisitor16freeBusyMimeTypeEv@Base 4:4.4.0
 _ZN7Akonadi24IncidenceMimeTypeVisitor5visitEPN4KCal4TodoE@Base 4:4.4.0
 _ZN7Akonadi24IncidenceMimeTypeVisitor5visitEPN4KCal5EventE@Base 4:4.4.0
 _ZN7Akonadi24IncidenceMimeTypeVisitor5visitEPN4KCal7JournalE@Base 4:4.4.0
 _ZN7Akonadi24IncidenceMimeTypeVisitor5visitEPN4KCal8FreeBusyE@Base 4:4.4.0
 _ZN7Akonadi24IncidenceMimeTypeVisitor8mimeTypeEPN4KCal13IncidenceBaseE@Base 4:4.4.0
 _ZN7Akonadi24IncidenceMimeTypeVisitorC1Ev@Base 4:4.4.0
 _ZN7Akonadi24IncidenceMimeTypeVisitorC2Ev@Base 4:4.4.0
 _ZN7Akonadi24IncidenceMimeTypeVisitorD0Ev@Base 4:4.4.0
 _ZN7Akonadi24IncidenceMimeTypeVisitorD1Ev@Base 4:4.4.0
 _ZN7Akonadi24IncidenceMimeTypeVisitorD2Ev@Base 4:4.4.0
 _ZNK7Akonadi20FreeBusyProviderBase15handlesFreeBusyERK7QStringb@Base 4:4.8.1
 _ZNK7Akonadi24IncidenceMimeTypeVisitor12allMimeTypesEv@Base 4:4.4.0
 _ZNK7Akonadi24IncidenceMimeTypeVisitor8mimeTypeEv@Base 4:4.4.0
 _ZTIN7Akonadi20FreeBusyProviderBaseE@Base 4:4.8.1
 _ZTIN7Akonadi24IncidenceMimeTypeVisitorE@Base 4:4.4.0
 _ZTSN7Akonadi20FreeBusyProviderBaseE@Base 4:4.8.1
 _ZTSN7Akonadi24IncidenceMimeTypeVisitorE@Base 4:4.4.0
 _ZTVN7Akonadi20FreeBusyProviderBaseE@Base 4:4.8.1
 _ZTVN7Akonadi24IncidenceMimeTypeVisitorE@Base 4:4.4.0
