libakonadi-kmime.so.4 libakonadi-kmime4 #MINVER#, kdepim-runtime
* Build-Depends-Package: kdepimlibs5-dev
 _ZN7Akonadi11MessagePart4BodyE@Base 4:4.3.4
 _ZN7Akonadi11MessagePart6HeaderE@Base 4:4.3.4
 _ZN7Akonadi11MessagePart8EnvelopeE@Base 4:4.3.4
 _ZN7Akonadi12MessageFlags13HasAttachmentE@Base 4:4.5.86
 _ZN7Akonadi12MessageFlags13HasInvitationE@Base 4:4.5.86
 _ZN7Akonadi12MessageFlags3HamE@Base 4:4.5.86
 _ZN7Akonadi12MessageFlags4SeenE@Base 4:4.5.0
 _ZN7Akonadi12MessageFlags4SentE@Base 4:4.5.86
 _ZN7Akonadi12MessageFlags4SpamE@Base 4:4.5.86
 _ZN7Akonadi12MessageFlags5ToActE@Base 4:4.5.86
 _ZN7Akonadi12MessageFlags6QueuedE@Base 4:4.5.86
 _ZN7Akonadi12MessageFlags6SignedE@Base 4:4.5.86
 _ZN7Akonadi12MessageFlags7DeletedE@Base 4:4.5.0
 _ZN7Akonadi12MessageFlags7FlaggedE@Base 4:4.5.0
 _ZN7Akonadi12MessageFlags7IgnoredE@Base 4:4.5.86
 _ZN7Akonadi12MessageFlags7RepliedE@Base 4:4.5.86
 _ZN7Akonadi12MessageFlags7WatchedE@Base 4:4.5.86
 _ZN7Akonadi12MessageFlags8AnsweredE@Base 4:4.5.0
 _ZN7Akonadi12MessageFlags8HasErrorE@Base 4:4.5.86
 _ZN7Akonadi12MessageFlags9EncryptedE@Base 4:4.5.86
 _ZN7Akonadi12MessageFlags9ForwardedE@Base 4:4.5.86
 _ZN7Akonadi12MessageModel11qt_metacallEN11QMetaObject4CallEiPPv@Base 4:4.3.4
 _ZN7Akonadi12MessageModel11qt_metacastEPKc@Base 4:4.3.4
 _ZN7Akonadi12MessageModel16staticMetaObjectE@Base 4:4.3.4
 _ZN7Akonadi12MessageModelC1EP7QObject@Base 4:4.3.4
 _ZN7Akonadi12MessageModelC2EP7QObject@Base 4:4.3.4
 _ZN7Akonadi12MessageModelD0Ev@Base 4:4.3.4
 _ZN7Akonadi12MessageModelD1Ev@Base 4:4.3.4
 _ZN7Akonadi12MessageModelD2Ev@Base 4:4.3.4
 _ZN7Akonadi13MessageStatus10fromQInt32Ei@Base 4:4.5.86
 _ZN7Akonadi13MessageStatus10setDeletedEb@Base 4:4.5.86
 _ZN7Akonadi13MessageStatus10setIgnoredEb@Base 4:4.5.86
 _ZN7Akonadi13MessageStatus10setRepliedEb@Base 4:4.5.86
 _ZN7Akonadi13MessageStatus10setWatchedEb@Base 4:4.5.86
 _ZN7Akonadi13MessageStatus10statusReadEv@Base 4:4.5.86
 _ZN7Akonadi13MessageStatus10statusSentEv@Base 4:4.5.86
 _ZN7Akonadi13MessageStatus10statusSpamEv@Base 4:4.5.86
 _ZN7Akonadi13MessageStatus11setHasErrorEb@Base 4:4.5.86
 _ZN7Akonadi13MessageStatus11statusToActEv@Base 4:4.5.86
 _ZN7Akonadi13MessageStatus12setEncryptedEb@Base 4:4.5.86
 _ZN7Akonadi13MessageStatus12setForwardedEb@Base 4:4.5.86
 _ZN7Akonadi13MessageStatus12setImportantEb@Base 4:4.5.86
 _ZN7Akonadi13MessageStatus12statusQueuedEv@Base 4:4.5.86
 _ZN7Akonadi13MessageStatus12statusSignedEv@Base 4:4.5.86
 _ZN7Akonadi13MessageStatus12statusUnreadEv@Base 4:4.5.86
 _ZN7Akonadi13MessageStatus13statusDeletedEv@Base 4:4.5.86
 _ZN7Akonadi13MessageStatus13statusIgnoredEv@Base 4:4.5.86
 _ZN7Akonadi13MessageStatus13statusRepliedEv@Base 4:4.5.86
 _ZN7Akonadi13MessageStatus13statusWatchedEv@Base 4:4.5.86
 _ZN7Akonadi13MessageStatus14statusHasErrorEv@Base 4:4.5.86
 _ZN7Akonadi13MessageStatus15statusEncryptedEv@Base 4:4.5.86
 _ZN7Akonadi13MessageStatus15statusForwardedEv@Base 4:4.5.86
 _ZN7Akonadi13MessageStatus15statusImportantEv@Base 4:4.5.86
 _ZN7Akonadi13MessageStatus16setHasAttachmentEb@Base 4:4.5.86
 _ZN7Akonadi13MessageStatus16setHasInvitationEb@Base 4:4.5.86
 _ZN7Akonadi13MessageStatus16setStatusFromStrERK7QString@Base 4:4.5.86
 _ZN7Akonadi13MessageStatus18setStatusFromFlagsERK4QSetI10QByteArrayE@Base 4:4.5.86
 _ZN7Akonadi13MessageStatus19statusHasAttachmentEv@Base 4:4.5.86
 _ZN7Akonadi13MessageStatus19statusHasInvitationEv@Base 4:4.5.86
 _ZN7Akonadi13MessageStatus3setERKS0_@Base 4:4.5.86
 _ZN7Akonadi13MessageStatus5clearEv@Base 4:4.5.86
 _ZN7Akonadi13MessageStatus6setHamEb@Base 4:4.5.86
 _ZN7Akonadi13MessageStatus6toggleERKS0_@Base 4:4.5.86
 _ZN7Akonadi13MessageStatus7setReadEb@Base 4:4.5.86
 _ZN7Akonadi13MessageStatus7setSentEb@Base 4:4.5.86
 _ZN7Akonadi13MessageStatus7setSpamEb@Base 4:4.5.86
 _ZN7Akonadi13MessageStatus8setToActEb@Base 4:4.5.86
 _ZN7Akonadi13MessageStatus9setQueuedEb@Base 4:4.5.86
 _ZN7Akonadi13MessageStatus9setSignedEb@Base 4:4.5.86
 _ZN7Akonadi13MessageStatus9statusHamEv@Base 4:4.5.86
 _ZN7Akonadi13MessageStatusC1Ev@Base 4:4.5.86
 _ZN7Akonadi13MessageStatusC2Ev@Base 4:4.5.86
 _ZN7Akonadi13MessageStatusaSERKS0_@Base 4:4.5.86
 _ZN7Akonadi16AddressAttribute11deserializeERK10QByteArray@Base 4:4.4.0
 _ZN7Akonadi16AddressAttribute5setCcERK11QStringList@Base 4:4.4.0
 _ZN7Akonadi16AddressAttribute5setToERK11QStringList@Base 4:4.4.0
 _ZN7Akonadi16AddressAttribute6setBccERK11QStringList@Base 4:4.4.0
 _ZN7Akonadi16AddressAttribute7setFromERK7QString@Base 4:4.4.0
 _ZN7Akonadi16AddressAttributeC1ERK7QStringRK11QStringListS6_S6_@Base 4:4.4.0
 _ZN7Akonadi16AddressAttributeC2ERK7QStringRK11QStringListS6_S6_@Base 4:4.4.0
 _ZN7Akonadi16AddressAttributeD0Ev@Base 4:4.4.0
 _ZN7Akonadi16AddressAttributeD1Ev@Base 4:4.4.0
 _ZN7Akonadi16AddressAttributeD2Ev@Base 4:4.4.0
 _ZN7Akonadi16AttributeFactory17registerAttributeINS_16AddressAttributeEEEvv@Base 4:4.6.3
 _ZN7Akonadi19RemoveDuplicatesJob11qt_metacallEN11QMetaObject4CallEiPPv@Base 4:4.10.1
 _ZN7Akonadi19RemoveDuplicatesJob11qt_metacastEPKc@Base 4:4.10.1
 _ZN7Akonadi19RemoveDuplicatesJob16staticMetaObjectE@Base 4:4.10.1
 _ZN7Akonadi19RemoveDuplicatesJob6doKillEv@Base 4:4.10.1
 _ZN7Akonadi19RemoveDuplicatesJob7doStartEv@Base 4:4.10.1
 _ZN7Akonadi19RemoveDuplicatesJobC1ERK5QListINS_10CollectionEEP7QObject@Base 4:4.10.1
 _ZN7Akonadi19RemoveDuplicatesJobC1ERKNS_10CollectionEP7QObject@Base 4:4.10.1
 _ZN7Akonadi19RemoveDuplicatesJobC2ERK5QListINS_10CollectionEEP7QObject@Base 4:4.10.1
 _ZN7Akonadi19RemoveDuplicatesJobC2ERKNS_10CollectionEP7QObject@Base 4:4.10.1
 _ZN7Akonadi19RemoveDuplicatesJobD0Ev@Base 4:4.10.1
 _ZN7Akonadi19RemoveDuplicatesJobD1Ev@Base 4:4.10.1
 _ZN7Akonadi19RemoveDuplicatesJobD2Ev@Base 4:4.10.1
 _ZN7Akonadi22MessageFolderAttribute11deserializeERK10QByteArray@Base 4:4.4.0
 _ZN7Akonadi22MessageFolderAttribute17setOutboundFolderEb@Base 4:4.4.0
 _ZN7Akonadi22MessageFolderAttributeC1ERKS0_@Base 4:4.4.0
 _ZN7Akonadi22MessageFolderAttributeC1Ev@Base 4:4.4.0
 _ZN7Akonadi22MessageFolderAttributeC2ERKS0_@Base 4:4.4.0
 _ZN7Akonadi22MessageFolderAttributeC2Ev@Base 4:4.4.0
 _ZN7Akonadi22MessageFolderAttributeD0Ev@Base 4:4.4.0
 _ZN7Akonadi22MessageFolderAttributeD1Ev@Base 4:4.4.0
 _ZN7Akonadi22MessageFolderAttributeD2Ev@Base 4:4.4.0
 _ZN7Akonadi22SpecialMailCollections11qt_metacallEN11QMetaObject4CallEiPPv@Base 4:4.4.0
 _ZN7Akonadi22SpecialMailCollections11qt_metacastEPKc@Base 4:4.4.0
 _ZN7Akonadi22SpecialMailCollections16staticMetaObjectE@Base 4:4.4.0
 _ZN7Akonadi22SpecialMailCollections18registerCollectionENS0_4TypeERKNS_10CollectionE@Base 4:4.4.0
 _ZN7Akonadi22SpecialMailCollections22slotCollectionModifiedEP4KJob@Base 4:4.10.1
 _ZN7Akonadi22SpecialMailCollections27verifyI18nDefaultCollectionENS0_4TypeE@Base 4:4.10.1
 _ZN7Akonadi22SpecialMailCollections4selfEv@Base 4:4.4.0
 _ZN7Akonadi22SpecialMailCollectionsC1EPNS_29SpecialMailCollectionsPrivateE@Base 4:4.4.0
 _ZN7Akonadi22SpecialMailCollectionsC2EPNS_29SpecialMailCollectionsPrivateE@Base 4:4.4.0
 _ZN7Akonadi22SpecialMailCollectionsD0Ev@Base 4:4.6.5
 _ZN7Akonadi22SpecialMailCollectionsD1Ev@Base 4:4.6.5
 _ZN7Akonadi22SpecialMailCollectionsD2Ev@Base 4:4.6.5
 _ZN7Akonadi25MessageThreaderProxyModel11qt_metacallEN11QMetaObject4CallEiPPv@Base 4:4.3.4
 _ZN7Akonadi25MessageThreaderProxyModel11qt_metacastEPKc@Base 4:4.3.4
 _ZN7Akonadi25MessageThreaderProxyModel14setSourceModelEP18QAbstractItemModel@Base 4:4.3.4
 _ZN7Akonadi25MessageThreaderProxyModel16staticMetaObjectE@Base 4:4.3.4
 _ZN7Akonadi25MessageThreaderProxyModelC1EP7QObject@Base 4:4.3.4
 _ZN7Akonadi25MessageThreaderProxyModelC2EP7QObject@Base 4:4.3.4
 _ZN7Akonadi25MessageThreaderProxyModelD0Ev@Base 4:4.3.4
 _ZN7Akonadi25MessageThreaderProxyModelD1Ev@Base 4:4.3.4
 _ZN7Akonadi25MessageThreaderProxyModelD2Ev@Base 4:4.3.4
 _ZN7Akonadi25MessageThreadingAttribute11deserializeERK10QByteArray@Base 4:4.3.4
 _ZN7Akonadi25MessageThreadingAttribute17setPerfectParentsERK5QListIxE@Base 4:4.3.4
 _ZN7Akonadi25MessageThreadingAttribute17setSubjectParentsERK5QListIxE@Base 4:4.3.4
 _ZN7Akonadi25MessageThreadingAttribute19setUnperfectParentsERK5QListIxE@Base 4:4.3.4
 _ZN7Akonadi25MessageThreadingAttributeC1ERKS0_@Base 4:4.3.4
 _ZN7Akonadi25MessageThreadingAttributeC1Ev@Base 4:4.3.4
 _ZN7Akonadi25MessageThreadingAttributeC2ERKS0_@Base 4:4.3.4
 _ZN7Akonadi25MessageThreadingAttributeC2Ev@Base 4:4.3.4
 _ZN7Akonadi25MessageThreadingAttributeD0Ev@Base 4:4.3.4
 _ZN7Akonadi25MessageThreadingAttributeD1Ev@Base 4:4.3.4
 _ZN7Akonadi25MessageThreadingAttributeD2Ev@Base 4:4.3.4
 _ZN7Akonadi25StandardMailActionManager11qt_metacallEN11QMetaObject4CallEiPPv@Base 4:4.5.86
 _ZN7Akonadi25StandardMailActionManager11qt_metacastEPKc@Base 4:4.5.86
 _ZN7Akonadi25StandardMailActionManager12createActionENS0_4TypeE@Base 4:4.5.86
 _ZN7Akonadi25StandardMailActionManager12createActionENS_21StandardActionManager4TypeE@Base 4:4.5.86
 _ZN7Akonadi25StandardMailActionManager13setActionTextENS_21StandardActionManager4TypeERK16KLocalizedString@Base 4:4.5.86
 _ZN7Akonadi25StandardMailActionManager15interceptActionENS0_4TypeEb@Base 4:4.5.86
 _ZN7Akonadi25StandardMailActionManager15interceptActionENS_21StandardActionManager4TypeEb@Base 4:4.5.86
 _ZN7Akonadi25StandardMailActionManager16createAllActionsEv@Base 4:4.5.86
 _ZN7Akonadi25StandardMailActionManager16staticMetaObjectE@Base 4:4.5.86
 _ZN7Akonadi25StandardMailActionManager18actionStateUpdatedEv@Base 4:4.5.86
 _ZN7Akonadi25StandardMailActionManager21setItemSelectionModelEP19QItemSelectionModel@Base 4:4.5.86
 _ZN7Akonadi25StandardMailActionManager25setFavoriteSelectionModelEP19QItemSelectionModel@Base 4:4.5.86
 _ZN7Akonadi25StandardMailActionManager27setCollectionSelectionModelEP19QItemSelectionModel@Base 4:4.5.86
 _ZN7Akonadi25StandardMailActionManager27setFavoriteCollectionsModelEPNS_24FavoriteCollectionsModelE@Base 4:4.5.86
 _ZN7Akonadi25StandardMailActionManager32setCollectionPropertiesPageNamesERK11QStringList@Base 4:4.5.86
 _ZN7Akonadi25StandardMailActionManagerC1EP17KActionCollectionP7QWidget@Base 4:4.5.86
 _ZN7Akonadi25StandardMailActionManagerC2EP17KActionCollectionP7QWidget@Base 4:4.5.86
 _ZN7Akonadi25StandardMailActionManagerD0Ev@Base 4:4.5.86
 _ZN7Akonadi25StandardMailActionManagerD1Ev@Base 4:4.5.86
 _ZN7Akonadi25StandardMailActionManagerD2Ev@Base 4:4.5.86
 _ZN7Akonadi29SpecialMailCollectionsTesting19_t_endBatchRegisterEv@Base 4:4.10.1
 _ZN7Akonadi29SpecialMailCollectionsTesting21_t_beginBatchRegisterEv@Base 4:4.10.1
 _ZN7Akonadi29SpecialMailCollectionsTesting23_t_setDefaultResourceIdERK7QString@Base 4:4.10.1
 _ZN7Akonadi29SpecialMailCollectionsTesting27_t_forgetFoldersForResourceERK7QString@Base 4:4.10.1
 _ZN7Akonadi29SpecialMailCollectionsTesting7_t_selfEv@Base 4:4.10.1
 _ZN7Akonadi32SpecialMailCollectionsRequestJob11qt_metacallEN11QMetaObject4CallEiPPv@Base 4:4.4.0
 _ZN7Akonadi32SpecialMailCollectionsRequestJob11qt_metacastEPKc@Base 4:4.4.0
 _ZN7Akonadi32SpecialMailCollectionsRequestJob16staticMetaObjectE@Base 4:4.4.0
 _ZN7Akonadi32SpecialMailCollectionsRequestJob17requestCollectionENS_22SpecialMailCollections4TypeERKNS_13AgentInstanceE@Base 4:4.4.0
 _ZN7Akonadi32SpecialMailCollectionsRequestJob24requestDefaultCollectionENS_22SpecialMailCollections4TypeE@Base 4:4.4.0
 _ZN7Akonadi32SpecialMailCollectionsRequestJobC1EP7QObject@Base 4:4.4.0
 _ZN7Akonadi32SpecialMailCollectionsRequestJobC2EP7QObject@Base 4:4.4.0
 _ZN7Akonadi32SpecialMailCollectionsRequestJobD0Ev@Base 4:4.4.0
 _ZN7Akonadi32SpecialMailCollectionsRequestJobD1Ev@Base 4:4.4.0
 _ZN7Akonadi32SpecialMailCollectionsRequestJobD2Ev@Base 4:4.4.0
 _ZNK7Akonadi12MessageModel10headerDataEiN2Qt11OrientationEi@Base 4:4.3.4
 _ZNK7Akonadi12MessageModel10metaObjectEv@Base 4:4.3.4
 _ZNK7Akonadi12MessageModel11columnCountERK11QModelIndex@Base 4:4.3.4
 _ZNK7Akonadi12MessageModel4dataERK11QModelIndexi@Base 4:4.3.4
 _ZNK7Akonadi12MessageModel8rowCountERK11QModelIndex@Base 4:4.3.4
 _ZNK7Akonadi12MessageModel9mimeTypesEv@Base 4:4.3.4
 _ZNK7Akonadi13MessageStatus11isEncryptedEv@Base 4:4.5.86
 _ZNK7Akonadi13MessageStatus11isForwardedEv@Base 4:4.5.86
 _ZNK7Akonadi13MessageStatus11isImportantEv@Base 4:4.5.86
 _ZNK7Akonadi13MessageStatus11statusFlagsEv@Base 4:4.5.86
 _ZNK7Akonadi13MessageStatus13hasAttachmentEv@Base 4:4.5.86
 _ZNK7Akonadi13MessageStatus13hasInvitationEv@Base 4:4.5.86
 _ZNK7Akonadi13MessageStatus17isOfUnknownStatusEv@Base 4:4.5.86
 _ZNK7Akonadi13MessageStatus5isHamEv@Base 4:4.5.86
 _ZNK7Akonadi13MessageStatus6isReadEv@Base 4:4.5.86
 _ZNK7Akonadi13MessageStatus6isSentEv@Base 4:4.5.86
 _ZNK7Akonadi13MessageStatus6isSpamEv@Base 4:4.5.86
 _ZNK7Akonadi13MessageStatus7isToActEv@Base 4:4.5.86
 _ZNK7Akonadi13MessageStatus8hasErrorEv@Base 4:4.5.86
 _ZNK7Akonadi13MessageStatus8isQueuedEv@Base 4:4.5.86
 _ZNK7Akonadi13MessageStatus8isSignedEv@Base 4:4.5.86
 _ZNK7Akonadi13MessageStatus8toQInt32Ev@Base 4:4.5.86
 _ZNK7Akonadi13MessageStatus9isDeletedEv@Base 4:4.5.86
 _ZNK7Akonadi13MessageStatus9isIgnoredEv@Base 4:4.5.86
 _ZNK7Akonadi13MessageStatus9isRepliedEv@Base 4:4.5.86
 _ZNK7Akonadi13MessageStatus9isWatchedEv@Base 4:4.5.86
 _ZNK7Akonadi13MessageStatus9statusStrEv@Base 4:4.5.86
 _ZNK7Akonadi13MessageStatusanERKS0_@Base 4:4.5.86
 _ZNK7Akonadi13MessageStatuseqERKS0_@Base 4:4.5.86
 _ZNK7Akonadi13MessageStatusneERKS0_@Base 4:4.5.86
 _ZNK7Akonadi16AddressAttribute10serializedEv@Base 4:4.4.0
 _ZNK7Akonadi16AddressAttribute2ccEv@Base 4:4.4.0
 _ZNK7Akonadi16AddressAttribute2toEv@Base 4:4.4.0
 _ZNK7Akonadi16AddressAttribute3bccEv@Base 4:4.4.0
 _ZNK7Akonadi16AddressAttribute4fromEv@Base 4:4.4.0
 _ZNK7Akonadi16AddressAttribute4typeEv@Base 4:4.4.0
 _ZNK7Akonadi16AddressAttribute5cloneEv@Base 4:4.4.0
 _ZNK7Akonadi19RemoveDuplicatesJob10metaObjectEv@Base 4:4.10.1
 _ZNK7Akonadi22MessageFolderAttribute10serializedEv@Base 4:4.4.0
 _ZNK7Akonadi22MessageFolderAttribute16isOutboundFolderEv@Base 4:4.4.0
 _ZNK7Akonadi22MessageFolderAttribute4typeEv@Base 4:4.4.0
 _ZNK7Akonadi22MessageFolderAttribute5cloneEv@Base 4:4.4.0
 _ZNK7Akonadi22SpecialMailCollections10collectionENS0_4TypeERKNS_13AgentInstanceE@Base 4:4.4.0
 _ZNK7Akonadi22SpecialMailCollections10metaObjectEv@Base 4:4.4.0
 _ZNK7Akonadi22SpecialMailCollections13hasCollectionENS0_4TypeERKNS_13AgentInstanceE@Base 4:4.4.0
 _ZNK7Akonadi22SpecialMailCollections17defaultCollectionENS0_4TypeE@Base 4:4.4.0
 _ZNK7Akonadi22SpecialMailCollections20hasDefaultCollectionENS0_4TypeE@Base 4:4.4.0
 _ZNK7Akonadi25MessageThreaderProxyModel10metaObjectEv@Base 4:4.3.4
 _ZNK7Akonadi25MessageThreaderProxyModel11columnCountERK11QModelIndex@Base 4:4.3.4
 _ZNK7Akonadi25MessageThreaderProxyModel11createIndexEiij@Base 4:4.3.4
 _ZNK7Akonadi25MessageThreaderProxyModel11hasChildrenERK11QModelIndex@Base 4:4.3.4
 _ZNK7Akonadi25MessageThreaderProxyModel11mapToSourceERK11QModelIndex@Base 4:4.3.4
 _ZNK7Akonadi25MessageThreaderProxyModel13mapFromSourceERK11QModelIndex@Base 4:4.3.4
 _ZNK7Akonadi25MessageThreaderProxyModel5indexEiiRK11QModelIndex@Base 4:4.3.4
 _ZNK7Akonadi25MessageThreaderProxyModel6parentERK11QModelIndex@Base 4:4.3.4
 _ZNK7Akonadi25MessageThreaderProxyModel8mimeDataERK5QListI11QModelIndexE@Base 4:4.3.4
 _ZNK7Akonadi25MessageThreaderProxyModel8rowCountERK11QModelIndex@Base 4:4.3.4
 _ZNK7Akonadi25MessageThreaderProxyModel9mimeTypesEv@Base 4:4.3.4
 _ZNK7Akonadi25MessageThreadingAttribute10serializedEv@Base 4:4.3.4
 _ZNK7Akonadi25MessageThreadingAttribute14perfectParentsEv@Base 4:4.3.4
 _ZNK7Akonadi25MessageThreadingAttribute14subjectParentsEv@Base 4:4.3.4
 _ZNK7Akonadi25MessageThreadingAttribute16unperfectParentsEv@Base 4:4.3.4
 _ZNK7Akonadi25MessageThreadingAttribute4typeEv@Base 4:4.3.4
 _ZNK7Akonadi25MessageThreadingAttribute5cloneEv@Base 4:4.3.4
 _ZNK7Akonadi25StandardMailActionManager10metaObjectEv@Base 4:4.5.86
 _ZNK7Akonadi25StandardMailActionManager13selectedItemsEv@Base 4:4.5.86
 _ZNK7Akonadi25StandardMailActionManager19selectedCollectionsEv@Base 4:4.5.86
 _ZNK7Akonadi25StandardMailActionManager21standardActionManagerEv@Base 4:4.8.1
 _ZNK7Akonadi25StandardMailActionManager6actionENS0_4TypeE@Base 4:4.5.86
 _ZNK7Akonadi25StandardMailActionManager6actionENS_21StandardActionManager4TypeE@Base 4:4.5.86
 _ZNK7Akonadi29SpecialMailCollectionsTesting19_t_knownFolderCountEv@Base 4:4.10.1
 _ZNK7Akonadi29SpecialMailCollectionsTesting21_t_knownResourceCountEv@Base 4:4.10.1
 _ZNK7Akonadi32SpecialMailCollectionsRequestJob10metaObjectEv@Base 4:4.4.0
 _ZNK7Akonadi4Item10tryToCloneIN5boost10shared_ptrIN5KMime7MessageEEEEENS2_9enable_ifINS_8Internal17is_shared_pointerIT_EEbE4typeEPSA_PKi@Base 4:4.5.86
 _ZNK7Akonadi4Item11payloadImplIN5boost10shared_ptrIN5KMime7MessageEEEEENS2_12disable_if_cIXsrNS_8Internal12PayloadTraitIT_EE13isPolymorphicESA_E4typeEv@Base 4:4.5.86
 _ZNK7Akonadi4Item14hasPayloadImplIN5boost10shared_ptrIN5KMime7MessageEEEEENS2_12disable_if_cIXsrNS_8Internal12PayloadTraitIT_EE13isPolymorphicEbE4typeEv@Base 4:4.7.4
 _ZNK7Akonadi4Item7payloadIN5boost10shared_ptrIN5KMime7MessageEEEEET_v@Base 4:4.3.4
 _ZNK7Akonadi6Entity9attributeINS_25MessageThreadingAttributeEEEPT_v@Base 4:4.7.4
 _ZTIN7Akonadi12MessageModelE@Base 4:4.3.4
 _ZTIN7Akonadi16AddressAttributeE@Base 4:4.4.0
 _ZTIN7Akonadi19RemoveDuplicatesJobE@Base 4:4.10.1
 _ZTIN7Akonadi22MessageFolderAttributeE@Base 4:4.4.0
 _ZTIN7Akonadi22SpecialMailCollectionsE@Base 4:4.4.0
 _ZTIN7Akonadi25MessageThreaderProxyModelE@Base 4:4.3.4
 _ZTIN7Akonadi25MessageThreadingAttributeE@Base 4:4.3.4
 _ZTIN7Akonadi25StandardMailActionManagerE@Base 4:4.5.86
 _ZTIN7Akonadi32SpecialMailCollectionsRequestJobE@Base 4:4.4.0
 _ZTSN7Akonadi12MessageModelE@Base 4:4.3.4
 _ZTSN7Akonadi16AddressAttributeE@Base 4:4.4.0
 _ZTSN7Akonadi19RemoveDuplicatesJobE@Base 4:4.10.1
 _ZTSN7Akonadi22MessageFolderAttributeE@Base 4:4.4.0
 _ZTSN7Akonadi22SpecialMailCollectionsE@Base 4:4.4.0
 _ZTSN7Akonadi25MessageThreaderProxyModelE@Base 4:4.3.4
 _ZTSN7Akonadi25MessageThreadingAttributeE@Base 4:4.3.4
 _ZTSN7Akonadi25StandardMailActionManagerE@Base 4:4.5.86
 _ZTSN7Akonadi32SpecialMailCollectionsRequestJobE@Base 4:4.4.0
 _ZTVN7Akonadi12MessageModelE@Base 4:4.3.4
 _ZTVN7Akonadi16AddressAttributeE@Base 4:4.4.0
 _ZTVN7Akonadi19RemoveDuplicatesJobE@Base 4:4.10.1
 _ZTVN7Akonadi22MessageFolderAttributeE@Base 4:4.4.0
 _ZTVN7Akonadi22SpecialMailCollectionsE@Base 4:4.4.0
 _ZTVN7Akonadi25MessageThreaderProxyModelE@Base 4:4.3.4
 _ZTVN7Akonadi25MessageThreadingAttributeE@Base 4:4.3.4
 _ZTVN7Akonadi25StandardMailActionManagerE@Base 4:4.5.86
 _ZTVN7Akonadi32SpecialMailCollectionsRequestJobE@Base 4:4.4.0
