libakonadi-socialutils.so.4 libakonadi-socialutils4 #MINVER#
 _ZN7Akonadi13ImageProvider11imageLoadedERK7QStringRK4KUrlRK6QImage@Base 4:4.10.1
 _ZN7Akonadi13ImageProvider11qt_metacallEN11QMetaObject4CallEiPPv@Base 4:4.10.1
 _ZN7Akonadi13ImageProvider11qt_metacastEPKc@Base 4:4.10.1
 _ZN7Akonadi13ImageProvider12abortAllJobsEv@Base 4:4.10.1
 _ZN7Akonadi13ImageProvider16staticMetaObjectE@Base 4:4.10.1
 _ZN7Akonadi13ImageProvider9loadImageERK7QStringRK4KUrlbP11KImageCache@Base 4:4.10.1
 _ZN7Akonadi13ImageProviderC1EP7QObject@Base 4:4.10.1
 _ZN7Akonadi13ImageProviderC2EP7QObject@Base 4:4.10.1
 _ZN7Akonadi13ImageProviderD0Ev@Base 4:4.10.1
 _ZN7Akonadi13ImageProviderD1Ev@Base 4:4.10.1
 _ZN7Akonadi13ImageProviderD2Ev@Base 4:4.10.1
 _ZN7Akonadi14SocialFeedItem11setPostInfoERK7QString@Base 4:4.10.1
 _ZN7Akonadi14SocialFeedItem11setPostLinkERK4QUrl@Base 4:4.10.1
 _ZN7Akonadi14SocialFeedItem11setPostTextERK7QString@Base 4:4.10.1
 _ZN7Akonadi14SocialFeedItem11setPostTimeERK7QStringS3_@Base 4:4.10.1
 _ZN7Akonadi14SocialFeedItem11setUserNameERK7QString@Base 4:4.10.1
 _ZN7Akonadi14SocialFeedItem12setAvatarUrlERK4QUrl@Base 4:4.10.1
 _ZN7Akonadi14SocialFeedItem13setSharedFromERK7QString@Base 4:4.10.1
 _ZN7Akonadi14SocialFeedItem14setPostRepliesERK5QListIS0_E@Base 4:4.10.1
 _ZN7Akonadi14SocialFeedItem15setPostImageUrlERK4QUrl@Base 4:4.10.1
 _ZN7Akonadi14SocialFeedItem15setSharedFromIdERK7QString@Base 4:4.10.1
 _ZN7Akonadi14SocialFeedItem16setItemSourceMapERK4QMapI7QString8QVariantE@Base 4:4.10.1
 _ZN7Akonadi14SocialFeedItem16setNetworkStringERK7QString@Base 4:4.10.1
 _ZN7Akonadi14SocialFeedItem16setPostLinkTitleERK7QString@Base 4:4.10.1
 _ZN7Akonadi14SocialFeedItem18setUserDisplayNameERK7QString@Base 4:4.10.1
 _ZN7Akonadi14SocialFeedItem8setLikedEb@Base 4:4.10.1
 _ZN7Akonadi14SocialFeedItem9setPostIdERK7QString@Base 4:4.10.1
 _ZN7Akonadi14SocialFeedItem9setSharedEb@Base 4:4.10.1
 _ZN7Akonadi14SocialFeedItem9setUserIdERK7QString@Base 4:4.10.1
 _ZN7Akonadi14SocialFeedItemC1ERKS0_@Base 4:4.10.1
 _ZN7Akonadi14SocialFeedItemC1Ev@Base 4:4.10.1
 _ZN7Akonadi14SocialFeedItemC2ERKS0_@Base 4:4.10.1
 _ZN7Akonadi14SocialFeedItemC2Ev@Base 4:4.10.1
 _ZN7Akonadi14SocialFeedItemD1Ev@Base 4:4.10.1
 _ZN7Akonadi14SocialFeedItemD2Ev@Base 4:4.10.1
 _ZN7Akonadi14SocialFeedItemaSERKS0_@Base 4:4.10.1
 _ZN7Akonadi23SocialNetworkAttributes11deserializeERK10QByteArray@Base 4:4.10.1
 _ZN7Akonadi23SocialNetworkAttributesC1ERK7QStringS3_bj@Base 4:4.10.1
 _ZN7Akonadi23SocialNetworkAttributesC1Ev@Base 4:4.10.1
 _ZN7Akonadi23SocialNetworkAttributesC2ERK7QStringS3_bj@Base 4:4.10.1
 _ZN7Akonadi23SocialNetworkAttributesC2Ev@Base 4:4.10.1
 _ZN7Akonadi23SocialNetworkAttributesD0Ev@Base 4:4.10.1
 _ZN7Akonadi23SocialNetworkAttributesD1Ev@Base 4:4.10.1
 _ZN7Akonadi23SocialNetworkAttributesD2Ev@Base 4:4.10.1
 _ZNK7Akonadi13ImageProvider10metaObjectEv@Base 4:4.10.1
 _ZNK7Akonadi14SocialFeedItem10sharedFromEv@Base 4:4.10.1
 _ZNK7Akonadi14SocialFeedItem11postRepliesEv@Base 4:4.10.1
 _ZNK7Akonadi14SocialFeedItem12postImageUrlEv@Base 4:4.10.1
 _ZNK7Akonadi14SocialFeedItem12sharedFromIdEv@Base 4:4.10.1
 _ZNK7Akonadi14SocialFeedItem13itemSourceMapEv@Base 4:4.10.1
 _ZNK7Akonadi14SocialFeedItem13networkStringEv@Base 4:4.10.1
 _ZNK7Akonadi14SocialFeedItem13postLinkTitleEv@Base 4:4.10.1
 _ZNK7Akonadi14SocialFeedItem14postTimeFormatEv@Base 4:4.10.1
 _ZNK7Akonadi14SocialFeedItem14postTimeStringEv@Base 4:4.10.1
 _ZNK7Akonadi14SocialFeedItem15userDisplayNameEv@Base 4:4.10.1
 _ZNK7Akonadi14SocialFeedItem6postIdEv@Base 4:4.10.1
 _ZNK7Akonadi14SocialFeedItem6userIdEv@Base 4:4.10.1
 _ZNK7Akonadi14SocialFeedItem7isLikedEv@Base 4:4.10.1
 _ZNK7Akonadi14SocialFeedItem8isSharedEv@Base 4:4.10.1
 _ZNK7Akonadi14SocialFeedItem8postInfoEv@Base 4:4.10.1
 _ZNK7Akonadi14SocialFeedItem8postLinkEv@Base 4:4.10.1
 _ZNK7Akonadi14SocialFeedItem8postTextEv@Base 4:4.10.1
 _ZNK7Akonadi14SocialFeedItem8postTimeEv@Base 4:4.10.1
 _ZNK7Akonadi14SocialFeedItem8userNameEv@Base 4:4.10.1
 _ZNK7Akonadi14SocialFeedItem9avatarUrlEv@Base 4:4.10.1
 _ZNK7Akonadi23SocialNetworkAttributes10canPublishEv@Base 4:4.10.1
 _ZNK7Akonadi23SocialNetworkAttributes10serializedEv@Base 4:4.10.1
 _ZNK7Akonadi23SocialNetworkAttributes11networkNameEv@Base 4:4.10.1
 _ZNK7Akonadi23SocialNetworkAttributes13maxPostLengthEv@Base 4:4.10.1
 _ZNK7Akonadi23SocialNetworkAttributes4typeEv@Base 4:4.10.1
 _ZNK7Akonadi23SocialNetworkAttributes5cloneEv@Base 4:4.10.1
 _ZNK7Akonadi23SocialNetworkAttributes8userNameEv@Base 4:4.10.1
 _ZTIN7Akonadi13ImageProviderE@Base 4:4.10.1
 _ZTIN7Akonadi23SocialNetworkAttributesE@Base 4:4.10.1
 _ZTSN7Akonadi13ImageProviderE@Base 4:4.10.1
 _ZTSN7Akonadi23SocialNetworkAttributesE@Base 4:4.10.1
 _ZTVN7Akonadi13ImageProviderE@Base 4:4.10.1
 _ZTVN7Akonadi23SocialNetworkAttributesE@Base 4:4.10.1
