libakonadi-kde.so.4 libakonadi-kde4 #MINVER#, kdepim-runtime
* Build-Depends-Package: kdepimlibs5-dev
 _Z5qHashRKN7Akonadi10CollectionE@Base 4:4.3.4
 _Z5qHashRKN7Akonadi6EntityE@Base 4:4.3.4
 _ZN7Akonadi10Collection10setVirtualEb@Base 4:4.10.1
 _ZN7Akonadi10Collection11setResourceERK7QString@Base 4:4.3.4
 _ZN7Akonadi10Collection13setStatisticsERKNS_20CollectionStatisticsE@Base 4:4.3.4
 _ZN7Akonadi10Collection14setCachePolicyERKNS_11CachePolicyE@Base 4:4.3.4
 _ZN7Akonadi10Collection17setParentRemoteIdERK7QString@Base 4:4.3.4
 _ZN7Akonadi10Collection19setContentMimeTypesERK11QStringList@Base 4:4.3.4
 _ZN7Akonadi10Collection4rootEv@Base 4:4.3.4
 _ZN7Akonadi10Collection6d_funcEv@Base 4:4.3.4
 _ZN7Akonadi10Collection7fromUrlERK4KUrl@Base 4:4.3.4
 _ZN7Akonadi10Collection7setNameERK7QString@Base 4:4.3.4
 _ZN7Akonadi10Collection8mimeTypeEv@Base 4:4.3.4
 _ZN7Akonadi10Collection9setParentERKS0_@Base 4:4.3.4
 _ZN7Akonadi10Collection9setParentEx@Base 4:4.3.4
 _ZN7Akonadi10Collection9setRightsE6QFlagsINS0_5RightEE@Base 4:4.3.4
 _ZN7Akonadi10CollectionC1ERKS0_@Base 4:4.3.4
 _ZN7Akonadi10CollectionC1Ev@Base 4:4.3.4
 _ZN7Akonadi10CollectionC1Ex@Base 4:4.3.4
 _ZN7Akonadi10CollectionC2ERKS0_@Base 4:4.3.4
 _ZN7Akonadi10CollectionC2Ev@Base 4:4.3.4
 _ZN7Akonadi10CollectionC2Ex@Base 4:4.3.4
 _ZN7Akonadi10CollectionD1Ev@Base 4:4.3.4
 _ZN7Akonadi10CollectionD2Ev@Base 4:4.3.4
 _ZN7Akonadi10GetLockJob11qt_metacallEN11QMetaObject4CallEiPPv@Base 4:4.10.1
 _ZN7Akonadi10GetLockJob11qt_metacastEPKc@Base 4:4.10.1
 _ZN7Akonadi10GetLockJob16staticMetaObjectE@Base 4:4.10.1
 _ZN7Akonadi10GetLockJob5startEv@Base 4:4.10.1
 _ZN7Akonadi10GetLockJob7Private19serviceOwnerChangedERK7QStringS4_S4_@Base 4:4.10.1
 _ZN7Akonadi10GetLockJob7Private7doStartEv@Base 4:4.10.1
 _ZN7Akonadi10GetLockJob7Private7timeoutEv@Base 4:4.10.1
 _ZN7Akonadi10GetLockJob7PrivateC1EPS0_@Base 4:4.10.1
 _ZN7Akonadi10GetLockJob7PrivateC2EPS0_@Base 4:4.10.1
 _ZN7Akonadi10GetLockJobC1EP7QObject@Base 4:4.10.1
 _ZN7Akonadi10GetLockJobC2EP7QObject@Base 4:4.10.1
 _ZN7Akonadi10GetLockJobD0Ev@Base 4:4.10.1
 _ZN7Akonadi10GetLockJobD1Ev@Base 4:4.10.1
 _ZN7Akonadi10GetLockJobD2Ev@Base 4:4.10.1
 _ZN7Akonadi11CachePolicy13setLocalPartsERK11QStringList@Base 4:4.3.4
 _ZN7Akonadi11CachePolicy15setCacheTimeoutEi@Base 4:4.3.4
 _ZN7Akonadi11CachePolicy15setSyncOnDemandEb@Base 4:4.3.4
 _ZN7Akonadi11CachePolicy20setInheritFromParentEb@Base 4:4.3.4
 _ZN7Akonadi11CachePolicy20setIntervalCheckTimeEi@Base 4:4.3.4
 _ZN7Akonadi11CachePolicyC1ERKS0_@Base 4:4.3.4
 _ZN7Akonadi11CachePolicyC1Ev@Base 4:4.3.4
 _ZN7Akonadi11CachePolicyC2ERKS0_@Base 4:4.3.4
 _ZN7Akonadi11CachePolicyC2Ev@Base 4:4.3.4
 _ZN7Akonadi11CachePolicyD1Ev@Base 4:4.3.4
 _ZN7Akonadi11CachePolicyD2Ev@Base 4:4.3.4
 _ZN7Akonadi11CachePolicyaSERKS0_@Base 4:4.3.4
 _ZN7Akonadi11ItemCopyJob11qt_metacallEN11QMetaObject4CallEiPPv@Base 4:4.3.4
 _ZN7Akonadi11ItemCopyJob11qt_metacastEPKc@Base 4:4.3.4
 _ZN7Akonadi11ItemCopyJob16staticMetaObjectE@Base 4:4.3.4
 _ZN7Akonadi11ItemCopyJob7doStartEv@Base 4:4.3.4
 _ZN7Akonadi11ItemCopyJobC1ERK5QListINS_4ItemEERKNS_10CollectionEP7QObject@Base 4:4.3.4
 _ZN7Akonadi11ItemCopyJobC1ERKNS_4ItemERKNS_10CollectionEP7QObject@Base 4:4.3.4
 _ZN7Akonadi11ItemCopyJobC2ERK5QListINS_4ItemEERKNS_10CollectionEP7QObject@Base 4:4.3.4
 _ZN7Akonadi11ItemCopyJobC2ERKNS_4ItemERKNS_10CollectionEP7QObject@Base 4:4.3.4
 _ZN7Akonadi11ItemCopyJobD0Ev@Base 4:4.3.4
 _ZN7Akonadi11ItemCopyJobD1Ev@Base 4:4.3.4
 _ZN7Akonadi11ItemCopyJobD2Ev@Base 4:4.3.4
 _ZN7Akonadi11ItemMonitor10fetchScopeEv@Base 4:4.3.4
 _ZN7Akonadi11ItemMonitor11itemChangedERKNS_4ItemE@Base 4:4.3.4
 _ZN7Akonadi11ItemMonitor11itemRemovedEv@Base 4:4.3.4
 _ZN7Akonadi11ItemMonitor13setFetchScopeERKNS_14ItemFetchScopeE@Base 4:4.3.4
 _ZN7Akonadi11ItemMonitor7Private11qt_metacallEN11QMetaObject4CallEiPPv@Base 4:4.3.4
 _ZN7Akonadi11ItemMonitor7Private11qt_metacastEPKc@Base 4:4.3.4
 _ZN7Akonadi11ItemMonitor7Private16staticMetaObjectE@Base 4:4.3.4
 _ZN7Akonadi11ItemMonitor7setItemERKNS_4ItemE@Base 4:4.3.4
 _ZN7Akonadi11ItemMonitorC1Ev@Base 4:4.3.4
 _ZN7Akonadi11ItemMonitorC2Ev@Base 4:4.3.4
 _ZN7Akonadi11ItemMonitorD0Ev@Base 4:4.3.4
 _ZN7Akonadi11ItemMonitorD1Ev@Base 4:4.3.4
 _ZN7Akonadi11ItemMonitorD2Ev@Base 4:4.3.4
 _ZN7Akonadi11ItemMoveJob11qt_metacallEN11QMetaObject4CallEiPPv@Base 4:4.3.4
 _ZN7Akonadi11ItemMoveJob11qt_metacastEPKc@Base 4:4.3.4
 _ZN7Akonadi11ItemMoveJob16staticMetaObjectE@Base 4:4.3.4
 _ZN7Akonadi11ItemMoveJob7doStartEv@Base 4:4.3.4
 _ZN7Akonadi11ItemMoveJobC1ERK5QListINS_4ItemEERKNS_10CollectionEP7QObject@Base 4:4.3.4
 _ZN7Akonadi11ItemMoveJobC1ERKNS_4ItemERKNS_10CollectionEP7QObject@Base 4:4.3.4
 _ZN7Akonadi11ItemMoveJobC2ERK5QListINS_4ItemEERKNS_10CollectionEP7QObject@Base 4:4.3.4
 _ZN7Akonadi11ItemMoveJobC2ERKNS_4ItemERKNS_10CollectionEP7QObject@Base 4:4.3.4
 _ZN7Akonadi11ItemMoveJobD0Ev@Base 4:4.3.4
 _ZN7Akonadi11ItemMoveJobD1Ev@Base 4:4.3.4
 _ZN7Akonadi11ItemMoveJobD2Ev@Base 4:4.3.4
 _ZN7Akonadi11PartFetcher11qt_metacallEN11QMetaObject4CallEiPPv@Base 4:4.4.0
 _ZN7Akonadi11PartFetcher11qt_metacastEPKc@Base 4:4.4.0
 _ZN7Akonadi11PartFetcher16staticMetaObjectE@Base 4:4.4.0
 _ZN7Akonadi11PartFetcher5startEv@Base 4:4.4.0
 _ZN7Akonadi11PartFetcherC1ERK11QModelIndexRK10QByteArrayP7QObject@Base 4:4.4.0
 _ZN7Akonadi11PartFetcherC2ERK11QModelIndexRK10QByteArrayP7QObject@Base 4:4.4.0
 _ZN7Akonadi11PartFetcherD0Ev@Base 4:4.5.86
 _ZN7Akonadi11PartFetcherD1Ev@Base 4:4.5.86
 _ZN7Akonadi11PartFetcherD2Ev@Base 4:4.5.86
 _ZN7Akonadi11releaseLockEv@Base 4:4.10.1
 _ZN7Akonadi12AgentManager11qt_metacallEN11QMetaObject4CallEiPPv@Base 4:4.3.4
 _ZN7Akonadi12AgentManager11qt_metacastEPKc@Base 4:4.3.4
 _ZN7Akonadi12AgentManager11typeRemovedERKNS_9AgentTypeE@Base 4:4.3.4
 _ZN7Akonadi12AgentManager13instanceAddedERKNS_13AgentInstanceE@Base 4:4.3.4
 _ZN7Akonadi12AgentManager13instanceErrorERKNS_13AgentInstanceERK7QString@Base 4:4.3.4
 _ZN7Akonadi12AgentManager14instanceOnlineERKNS_13AgentInstanceEb@Base 4:4.3.4
 _ZN7Akonadi12AgentManager14removeInstanceERKNS_13AgentInstanceE@Base 4:4.3.4
 _ZN7Akonadi12AgentManager15instanceRemovedERKNS_13AgentInstanceE@Base 4:4.3.4
 _ZN7Akonadi12AgentManager15instanceWarningERKNS_13AgentInstanceERK7QString@Base 4:4.3.4
 _ZN7Akonadi12AgentManager16staticMetaObjectE@Base 4:4.3.4
 _ZN7Akonadi12AgentManager19instanceNameChangedERKNS_13AgentInstanceE@Base 4:4.3.4
 _ZN7Akonadi12AgentManager21instanceStatusChangedERKNS_13AgentInstanceE@Base 4:4.3.4
 _ZN7Akonadi12AgentManager21synchronizeCollectionERKNS_10CollectionE@Base 4:4.3.4
 _ZN7Akonadi12AgentManager21synchronizeCollectionERKNS_10CollectionEb@Base 4:4.5.90
 _ZN7Akonadi12AgentManager23instanceProgressChangedERKNS_13AgentInstanceE@Base 4:4.3.4
 _ZN7Akonadi12AgentManager4selfEv@Base 4:4.3.4
 _ZN7Akonadi12AgentManager9typeAddedERKNS_9AgentTypeE@Base 4:4.3.4
 _ZN7Akonadi12AgentManagerC1Ev@Base 4:4.3.4
 _ZN7Akonadi12AgentManagerC2Ev@Base 4:4.3.4
 _ZN7Akonadi12AgentManagerD0Ev@Base 4:4.3.4
 _ZN7Akonadi12AgentManagerD1Ev@Base 4:4.3.4
 _ZN7Akonadi12AgentManagerD2Ev@Base 4:4.3.4
 _ZN7Akonadi12ItemFetchJob10fetchScopeEv@Base 4:4.3.4
 _ZN7Akonadi12ItemFetchJob11qt_metacallEN11QMetaObject4CallEiPPv@Base 4:4.3.4
 _ZN7Akonadi12ItemFetchJob11qt_metacastEPKc@Base 4:4.3.4
 _ZN7Akonadi12ItemFetchJob13itemsReceivedERK5QListINS_4ItemEE@Base 4:4.3.4
 _ZN7Akonadi12ItemFetchJob13setCollectionERKNS_10CollectionE@Base 4:4.3.4
 _ZN7Akonadi12ItemFetchJob13setFetchScopeERKNS_14ItemFetchScopeE@Base 4:4.4.0
 _ZN7Akonadi12ItemFetchJob13setFetchScopeERNS_14ItemFetchScopeE@Base 4:4.3.4
 _ZN7Akonadi12ItemFetchJob16doHandleResponseERK10QByteArrayS3_@Base 4:4.3.4
 _ZN7Akonadi12ItemFetchJob16staticMetaObjectE@Base 4:4.3.4
 _ZN7Akonadi12ItemFetchJob7doStartEv@Base 4:4.3.4
 _ZN7Akonadi12ItemFetchJobC1ERK5QListINS_4ItemEEP7QObject@Base 4:4.4.0
 _ZN7Akonadi12ItemFetchJobC1ERK5QListIxEP7QObject@Base 4:4.8.1
 _ZN7Akonadi12ItemFetchJobC1ERKNS_10CollectionEP7QObject@Base 4:4.3.4
 _ZN7Akonadi12ItemFetchJobC1ERKNS_4ItemEP7QObject@Base 4:4.3.4
 _ZN7Akonadi12ItemFetchJobC2ERK5QListINS_4ItemEEP7QObject@Base 4:4.4.0
 _ZN7Akonadi12ItemFetchJobC2ERK5QListIxEP7QObject@Base 4:4.8.1
 _ZN7Akonadi12ItemFetchJobC2ERKNS_10CollectionEP7QObject@Base 4:4.3.4
 _ZN7Akonadi12ItemFetchJobC2ERKNS_4ItemEP7QObject@Base 4:4.3.4
 _ZN7Akonadi12ItemFetchJobD0Ev@Base 4:4.3.4
 _ZN7Akonadi12ItemFetchJobD1Ev@Base 4:4.3.4
 _ZN7Akonadi12ItemFetchJobD2Ev@Base 4:4.3.4
 _ZN7Akonadi12PluginLoader13createForNameERK7QString@Base 4:4.10.1
 _ZN7Akonadi12PluginLoader4scanEv@Base 4:4.10.1
 _ZN7Akonadi12PluginLoader4selfEv@Base 4:4.10.1
 _ZN7Akonadi12PluginLoader5mSelfE@Base 4:4.10.1
 _ZN7Akonadi12PluginLoaderC1Ev@Base 4:4.10.1
 _ZN7Akonadi12PluginLoaderC2Ev@Base 4:4.10.1
 _ZN7Akonadi12PluginLoaderD1Ev@Base 4:4.10.1
 _ZN7Akonadi12PluginLoaderD2Ev@Base 4:4.10.1
 _ZN7Akonadi12ResourceBase10cancelTaskERK7QString@Base 4:4.3.4
 _ZN7Akonadi12ResourceBase10cancelTaskEv@Base 4:4.3.4
 _ZN7Akonadi12ResourceBase10clearCacheEv@Base 4:4.3.4
 _ZN7Akonadi12ResourceBase11doSetOnlineEb@Base 4:4.3.4
 _ZN7Akonadi12ResourceBase11nameChangedERK7QString@Base 4:4.3.4
 _ZN7Akonadi12ResourceBase11qt_metacallEN11QMetaObject4CallEiPPv@Base 4:4.3.4
 _ZN7Akonadi12ResourceBase11qt_metacastEPKc@Base 4:4.3.4
 _ZN7Akonadi12ResourceBase11synchronizeEv@Base 4:4.3.4
 _ZN7Akonadi12ResourceBase12synchronizedEv@Base 4:4.3.4
 _ZN7Akonadi12ResourceBase13abortActivityEv@Base 4:4.5.86
 _ZN7Akonadi12ResourceBase13itemRetrievedERKNS_4ItemE@Base 4:4.3.4
 _ZN7Akonadi12ResourceBase13setTotalItemsEi@Base 4:4.3.4
 _ZN7Akonadi12ResourceBase14itemsRetrievedERK5QListINS_4ItemEE@Base 4:4.3.4
 _ZN7Akonadi12ResourceBase14parseArgumentsEiPPc@Base 4:4.3.4
 _ZN7Akonadi12ResourceBase15changeCommittedERKNS_10CollectionE@Base 4:4.3.4
 _ZN7Akonadi12ResourceBase15changeCommittedERKNS_4ItemE@Base 4:4.3.4
 _ZN7Akonadi12ResourceBase15invalidateCacheERKNS_10CollectionE@Base 4:4.8.1
 _ZN7Akonadi12ResourceBase16staticMetaObjectE@Base 4:4.3.4
 _ZN7Akonadi12ResourceBase18itemsRetrievalDoneEv@Base 4:4.3.4
 _ZN7Akonadi12ResourceBase18scheduleCustomTaskEP7QObjectPKcRK8QVariantNS0_16SchedulePriorityE@Base 4:4.4.0
 _ZN7Akonadi12ResourceBase19requestItemDeliveryExRK7QStringS3_RK11QStringList@Base 4:4.3.4
 _ZN7Akonadi12ResourceBase20collectionsRetrievedERK5QListINS_10CollectionEE@Base 4:4.3.4
 _ZN7Akonadi12ResourceBase21requestItemDeliveryV2ExRK7QStringS3_RK11QStringList@Base 4:4.10.1
 _ZN7Akonadi12ResourceBase21synchronizeCollectionEx@Base 4:4.3.4
 _ZN7Akonadi12ResourceBase21synchronizeCollectionExb@Base 4:4.5.90
 _ZN7Akonadi12ResourceBase22attributesSynchronizedEx@Base 4:4.5.86
 _ZN7Akonadi12ResourceBase22setItemTransactionModeENS_8ItemSync15TransactionModeE@Base 4:4.5.86
 _ZN7Akonadi12ResourceBase23setItemStreamingEnabledEb@Base 4:4.3.4
 _ZN7Akonadi12ResourceBase24collectionsRetrievalDoneEv@Base 4:4.3.4
 _ZN7Akonadi12ResourceBase25itemsRetrievedIncrementalERK5QListINS_4ItemEES5_@Base 4:4.3.4
 _ZN7Akonadi12ResourceBase25synchronizeCollectionTreeEv@Base 4:4.3.4
 _ZN7Akonadi12ResourceBase26collectionTreeSynchronizedEv@Base 4:4.8.1
 _ZN7Akonadi12ResourceBase28retrieveCollectionAttributesERKNS_10CollectionE@Base 4:4.5.86
 _ZN7Akonadi12ResourceBase29collectionAttributesRetrievedERKNS_10CollectionE@Base 4:4.5.86
 _ZN7Akonadi12ResourceBase29setAutomaticProgressReportingEb@Base 4:4.7.0
 _ZN7Akonadi12ResourceBase29setCollectionStreamingEnabledEb@Base 4:4.3.4
 _ZN7Akonadi12ResourceBase31collectionsRetrievedIncrementalERK5QListINS_10CollectionEES5_@Base 4:4.3.4
 _ZN7Akonadi12ResourceBase31synchronizeCollectionAttributesEx@Base 4:4.5.86
 _ZN7Akonadi12ResourceBase32setItemSynchronizationFetchScopeERKNS_14ItemFetchScopeE@Base 4:4.5.86
 _ZN7Akonadi12ResourceBase39setHierarchicalRemoteIdentifiersEnabledEb@Base 4:4.4.0
 _ZN7Akonadi12ResourceBase4initEPS0_@Base 4:4.3.4
 _ZN7Akonadi12ResourceBase7setNameERK7QString@Base 4:4.3.4
 _ZN7Akonadi12ResourceBase8taskDoneEv@Base 4:4.4.0
 _ZN7Akonadi12ResourceBase9deferTaskEv@Base 4:4.3.4
 _ZN7Akonadi12ResourceBaseC1ERK7QString@Base 4:4.3.4
 _ZN7Akonadi12ResourceBaseC2ERK7QString@Base 4:4.3.4
 _ZN7Akonadi12ResourceBaseD0Ev@Base 4:4.3.4
 _ZN7Akonadi12ResourceBaseD1Ev@Base 4:4.3.4
 _ZN7Akonadi12ResourceBaseD2Ev@Base 4:4.3.4
 _ZN7Akonadi13AgentInstance11setIsOnlineEb@Base 4:4.3.4
 _ZN7Akonadi13AgentInstance11synchronizeEv@Base 4:4.3.4
 _ZN7Akonadi13AgentInstance25synchronizeCollectionTreeEv@Base 4:4.3.4
 _ZN7Akonadi13AgentInstance7setNameERK7QString@Base 4:4.3.4
 _ZN7Akonadi13AgentInstance9configureEP7QWidget@Base 4:4.3.4
 _ZN7Akonadi13AgentInstanceC1ERKS0_@Base 4:4.3.4
 _ZN7Akonadi13AgentInstanceC1Ev@Base 4:4.3.4
 _ZN7Akonadi13AgentInstanceC2ERKS0_@Base 4:4.3.4
 _ZN7Akonadi13AgentInstanceC2Ev@Base 4:4.3.4
 _ZN7Akonadi13AgentInstanceD1Ev@Base 4:4.3.4
 _ZN7Akonadi13AgentInstanceD2Ev@Base 4:4.3.4
 _ZN7Akonadi13AgentInstanceaSERKS0_@Base 4:4.3.4
 _ZN7Akonadi13ItemCreateJob11qt_metacallEN11QMetaObject4CallEiPPv@Base 4:4.3.4
 _ZN7Akonadi13ItemCreateJob11qt_metacastEPKc@Base 4:4.3.4
 _ZN7Akonadi13ItemCreateJob16doHandleResponseERK10QByteArrayS3_@Base 4:4.3.4
 _ZN7Akonadi13ItemCreateJob16staticMetaObjectE@Base 4:4.3.4
 _ZN7Akonadi13ItemCreateJob7doStartEv@Base 4:4.3.4
 _ZN7Akonadi13ItemCreateJobC1ERKNS_4ItemERKNS_10CollectionEP7QObject@Base 4:4.3.4
 _ZN7Akonadi13ItemCreateJobC2ERKNS_4ItemERKNS_10CollectionEP7QObject@Base 4:4.3.4
 _ZN7Akonadi13ItemCreateJobD0Ev@Base 4:4.3.4
 _ZN7Akonadi13ItemCreateJobD1Ev@Base 4:4.3.4
 _ZN7Akonadi13ItemCreateJobD2Ev@Base 4:4.3.4
 _ZN7Akonadi13ItemDeleteJob11qt_metacallEN11QMetaObject4CallEiPPv@Base 4:4.3.4
 _ZN7Akonadi13ItemDeleteJob11qt_metacastEPKc@Base 4:4.3.4
 _ZN7Akonadi13ItemDeleteJob16staticMetaObjectE@Base 4:4.3.4
 _ZN7Akonadi13ItemDeleteJob7doStartEv@Base 4:4.3.4
 _ZN7Akonadi13ItemDeleteJobC1ERK5QListINS_4ItemEEP7QObject@Base 4:4.3.4
 _ZN7Akonadi13ItemDeleteJobC1ERKNS_10CollectionEP7QObject@Base 4:4.3.4
 _ZN7Akonadi13ItemDeleteJobC1ERKNS_4ItemEP7QObject@Base 4:4.3.4
 _ZN7Akonadi13ItemDeleteJobC2ERK5QListINS_4ItemEEP7QObject@Base 4:4.3.4
 _ZN7Akonadi13ItemDeleteJobC2ERKNS_10CollectionEP7QObject@Base 4:4.3.4
 _ZN7Akonadi13ItemDeleteJobC2ERKNS_4ItemEP7QObject@Base 4:4.3.4
 _ZN7Akonadi13ItemDeleteJobD0Ev@Base 4:4.3.4
 _ZN7Akonadi13ItemDeleteJobD1Ev@Base 4:4.3.4
 _ZN7Akonadi13ItemDeleteJobD2Ev@Base 4:4.3.4
 _ZN7Akonadi13ItemModifyJob11qt_metacallEN11QMetaObject4CallEiPPv@Base 4:4.3.4
 _ZN7Akonadi13ItemModifyJob11qt_metacastEPKc@Base 4:4.3.4
 _ZN7Akonadi13ItemModifyJob16doHandleResponseERK10QByteArrayS3_@Base 4:4.3.4
 _ZN7Akonadi13ItemModifyJob16setIgnorePayloadEb@Base 4:4.3.4
 _ZN7Akonadi13ItemModifyJob16staticMetaObjectE@Base 4:4.3.4
 _ZN7Akonadi13ItemModifyJob20disableRevisionCheckEv@Base 4:4.3.4
 _ZN7Akonadi13ItemModifyJob32disableAutomaticConflictHandlingEv@Base 4:4.5.86
 _ZN7Akonadi13ItemModifyJob7doStartEv@Base 4:4.3.4
 _ZN7Akonadi13ItemModifyJobC1ERK5QListINS_4ItemEEP7QObject@Base 4:4.5.86
 _ZN7Akonadi13ItemModifyJobC1ERKNS_4ItemEP7QObject@Base 4:4.3.4
 _ZN7Akonadi13ItemModifyJobC2ERK5QListINS_4ItemEEP7QObject@Base 4:4.5.86
 _ZN7Akonadi13ItemModifyJobC2ERKNS_4ItemEP7QObject@Base 4:4.3.4
 _ZN7Akonadi13ItemModifyJobD0Ev@Base 4:4.3.4
 _ZN7Akonadi13ItemModifyJobD1Ev@Base 4:4.3.4
 _ZN7Akonadi13ItemModifyJobD2Ev@Base 4:4.3.4
 _ZN7Akonadi13ItemSearchJob10fetchScopeEv@Base 4:4.4.0
 _ZN7Akonadi13ItemSearchJob11qt_metacallEN11QMetaObject4CallEiPPv@Base 4:4.4.0
 _ZN7Akonadi13ItemSearchJob11qt_metacastEPKc@Base 4:4.4.0
 _ZN7Akonadi13ItemSearchJob13itemsReceivedERK5QListINS_4ItemEE@Base 4:4.4.0
 _ZN7Akonadi13ItemSearchJob13setFetchScopeERKNS_14ItemFetchScopeE@Base 4:4.4.0
 _ZN7Akonadi13ItemSearchJob16akonadiItemIdUriEv@Base 4:4.4.3
 _ZN7Akonadi13ItemSearchJob16doHandleResponseERK10QByteArrayS3_@Base 4:4.4.0
 _ZN7Akonadi13ItemSearchJob16staticMetaObjectE@Base 4:4.4.0
 _ZN7Akonadi13ItemSearchJob7doStartEv@Base 4:4.4.0
 _ZN7Akonadi13ItemSearchJob8setQueryERK7QString@Base 4:4.4.0
 _ZN7Akonadi13ItemSearchJobC1ERK7QStringP7QObject@Base 4:4.4.0
 _ZN7Akonadi13ItemSearchJobC2ERK7QStringP7QObject@Base 4:4.4.0
 _ZN7Akonadi13ItemSearchJobD0Ev@Base 4:4.4.0
 _ZN7Akonadi13ItemSearchJobD1Ev@Base 4:4.4.0
 _ZN7Akonadi13ItemSearchJobD2Ev@Base 4:4.4.0
 _ZN7Akonadi13ServerManager11qt_metacallEN11QMetaObject4CallEiPPv@Base 4:4.3.4
 _ZN7Akonadi13ServerManager11qt_metacastEPKc@Base 4:4.3.4
 _ZN7Akonadi13ServerManager11serviceNameENS0_11ServiceTypeE@Base 4:4.10.1
 _ZN7Akonadi13ServerManager12addNamespaceERK7QString@Base 4:4.10.1
 _ZN7Akonadi13ServerManager12stateChangedENS0_5StateE@Base 4:4.5.0
 _ZN7Akonadi13ServerManager16agentServiceNameENS0_16ServiceAgentTypeERK7QString@Base 4:4.10.1
 _ZN7Akonadi13ServerManager16staticMetaObjectE@Base 4:4.3.4
 _ZN7Akonadi13ServerManager18instanceIdentifierEv@Base 4:4.10.1
 _ZN7Akonadi13ServerManager18showSelfTestDialogEP7QWidget@Base 4:4.3.4
 _ZN7Akonadi13ServerManager21hasInstanceIdentifierEv@Base 4:4.10.1
 _ZN7Akonadi13ServerManager4selfEv@Base 4:4.3.4
 _ZN7Akonadi13ServerManager4stopEv@Base 4:4.3.4
 _ZN7Akonadi13ServerManager5startEv@Base 4:4.3.4
 _ZN7Akonadi13ServerManager5stateEv@Base 4:4.5.0
 _ZN7Akonadi13ServerManager7startedEv@Base 4:4.3.4
 _ZN7Akonadi13ServerManager7stoppedEv@Base 4:4.3.4
 _ZN7Akonadi13ServerManager9isRunningEv@Base 4:4.3.4
 _ZN7Akonadi13ServerManagerC1EPNS_20ServerManagerPrivateE@Base 4:4.3.4
 _ZN7Akonadi13ServerManagerC2EPNS_20ServerManagerPrivateE@Base 4:4.3.4
 _ZN7Akonadi13ServerManagerD0Ev@Base 4:4.6.5
 _ZN7Akonadi13ServerManagerD1Ev@Base 4:4.6.5
 _ZN7Akonadi13ServerManagerD2Ev@Base 4:4.6.5
 _ZN7Akonadi13TrashSettings18getTrashCollectionERK7QString@Base 4:4.8.1
 _ZN7Akonadi13TrashSettings18setTrashCollectionERK7QStringRKNS_10CollectionE@Base 4:4.8.1
 _ZN7Akonadi14AgentTypeModel11qt_metacallEN11QMetaObject4CallEiPPv@Base 4:4.3.4
 _ZN7Akonadi14AgentTypeModel11qt_metacastEPKc@Base 4:4.3.4
 _ZN7Akonadi14AgentTypeModel16staticMetaObjectE@Base 4:4.3.4
 _ZN7Akonadi14AgentTypeModel7Private11typeRemovedERKNS_9AgentTypeE@Base 4:4.3.4
 _ZN7Akonadi14AgentTypeModel7Private9typeAddedERKNS_9AgentTypeE@Base 4:4.3.4
 _ZN7Akonadi14AgentTypeModelC1EP7QObject@Base 4:4.3.4
 _ZN7Akonadi14AgentTypeModelC2EP7QObject@Base 4:4.3.4
 _ZN7Akonadi14AgentTypeModelD0Ev@Base 4:4.3.4
 _ZN7Akonadi14AgentTypeModelD1Ev@Base 4:4.3.4
 _ZN7Akonadi14AgentTypeModelD2Ev@Base 4:4.3.4
 _ZN7Akonadi14ChangeRecorder10replayNextEv@Base 4:4.3.4
 _ZN7Akonadi14ChangeRecorder11qt_metacallEN11QMetaObject4CallEiPPv@Base 4:4.3.4
 _ZN7Akonadi14ChangeRecorder11qt_metacastEPKc@Base 4:4.3.4
 _ZN7Akonadi14ChangeRecorder12changesAddedEv@Base 4:4.3.4
 _ZN7Akonadi14ChangeRecorder15changeProcessedEv@Base 4:4.3.4
 _ZN7Akonadi14ChangeRecorder15nothingToReplayEv@Base 4:4.3.4
 _ZN7Akonadi14ChangeRecorder16staticMetaObjectE@Base 4:4.3.4
 _ZN7Akonadi14ChangeRecorder25setChangeRecordingEnabledEb@Base 4:4.3.4
 _ZN7Akonadi14ChangeRecorder9setConfigEP9QSettings@Base 4:4.3.4
 _ZN7Akonadi14ChangeRecorderC1EP7QObject@Base 4:4.3.4
 _ZN7Akonadi14ChangeRecorderC1EPNS_21ChangeRecorderPrivateEP7QObject@Base 4:4.5.0
 _ZN7Akonadi14ChangeRecorderC2EP7QObject@Base 4:4.3.4
 _ZN7Akonadi14ChangeRecorderC2EPNS_21ChangeRecorderPrivateEP7QObject@Base 4:4.5.0
 _ZN7Akonadi14ChangeRecorderD0Ev@Base 4:4.3.4
 _ZN7Akonadi14ChangeRecorderD1Ev@Base 4:4.3.4
 _ZN7Akonadi14ChangeRecorderD2Ev@Base 4:4.3.4
 _ZN7Akonadi14CollectionView11qt_metacallEN11QMetaObject4CallEiPPv@Base 4:4.3.4
 _ZN7Akonadi14CollectionView11qt_metacastEPKc@Base 4:4.3.4
 _ZN7Akonadi14CollectionView13dragMoveEventEP14QDragMoveEvent@Base 4:4.3.4
 _ZN7Akonadi14CollectionView14currentChangedERKNS_10CollectionE@Base 4:4.3.4
 _ZN7Akonadi14CollectionView14dragLeaveEventEP15QDragLeaveEvent@Base 4:4.3.4
 _ZN7Akonadi14CollectionView15setXmlGuiClientEP13KXMLGUIClient@Base 4:4.3.4
 _ZN7Akonadi14CollectionView15setXmlGuiWindowEP13KXmlGuiWindow@Base 4:4.3.4
 _ZN7Akonadi14CollectionView16contextMenuEventEP17QContextMenuEvent@Base 4:4.3.4
 _ZN7Akonadi14CollectionView16staticMetaObjectE@Base 4:4.3.4
 _ZN7Akonadi14CollectionView7Private10dragExpandEv@Base 4:4.3.4
 _ZN7Akonadi14CollectionView7Private11itemClickedERK11QModelIndex@Base 4:4.3.4
 _ZN7Akonadi14CollectionView7Private18itemCurrentChangedERK11QModelIndex@Base 4:4.3.4
 _ZN7Akonadi14CollectionView7Private4initEv@Base 4:4.3.4
 _ZN7Akonadi14CollectionView7Private9hasParentERK11QModelIndexx@Base 4:4.3.4
 _ZN7Akonadi14CollectionView7clickedERKNS_10CollectionE@Base 4:4.3.4
 _ZN7Akonadi14CollectionView8setModelEP18QAbstractItemModel@Base 4:4.3.4
 _ZN7Akonadi14CollectionView9dropEventEP10QDropEvent@Base 4:4.3.4
 _ZN7Akonadi14CollectionViewC1EP13KXMLGUIClientP7QWidget@Base 4:4.3.4
 _ZN7Akonadi14CollectionViewC1EP13KXmlGuiWindowP7QWidget@Base 4:4.3.4
 _ZN7Akonadi14CollectionViewC1EP7QWidget@Base 4:4.3.4
 _ZN7Akonadi14CollectionViewC2EP13KXMLGUIClientP7QWidget@Base 4:4.3.4
 _ZN7Akonadi14CollectionViewC2EP13KXmlGuiWindowP7QWidget@Base 4:4.3.4
 _ZN7Akonadi14CollectionViewC2EP7QWidget@Base 4:4.3.4
 _ZN7Akonadi14CollectionViewD0Ev@Base 4:4.3.4
 _ZN7Akonadi14CollectionViewD1Ev@Base 4:4.3.4
 _ZN7Akonadi14CollectionViewD2Ev@Base 4:4.3.4
 _ZN7Akonadi14EntityListView11qt_metacallEN11QMetaObject4CallEiPPv@Base 4:4.4.0
 _ZN7Akonadi14EntityListView11qt_metacastEPKc@Base 4:4.4.0
 _ZN7Akonadi14EntityListView13doubleClickedERKNS_10CollectionE@Base 4:4.4.0
 _ZN7Akonadi14EntityListView13doubleClickedERKNS_4ItemE@Base 4:4.4.0
 _ZN7Akonadi14EntityListView13dragMoveEventEP14QDragMoveEvent@Base 4:4.4.0
 _ZN7Akonadi14EntityListView14currentChangedERKNS_10CollectionE@Base 4:4.4.0
 _ZN7Akonadi14EntityListView14currentChangedERKNS_4ItemE@Base 4:4.4.0
 _ZN7Akonadi14EntityListView15setXmlGuiClientEP13KXMLGUIClient@Base 4:4.4.0
 _ZN7Akonadi14EntityListView16contextMenuEventEP17QContextMenuEvent@Base 4:4.4.0
 _ZN7Akonadi14EntityListView16staticMetaObjectE@Base 4:4.4.0
 _ZN7Akonadi14EntityListView24setDropActionMenuEnabledEb@Base 4:4.7.0
 _ZN7Akonadi14EntityListView7Private11itemClickedERK11QModelIndex@Base 4:4.4.0
 _ZN7Akonadi14EntityListView7Private17itemDoubleClickedERK11QModelIndex@Base 4:4.4.0
 _ZN7Akonadi14EntityListView7Private18itemCurrentChangedERK11QModelIndex@Base 4:4.4.0
 _ZN7Akonadi14EntityListView7Private4initEv@Base 4:4.4.0
 _ZN7Akonadi14EntityListView7clickedERKNS_10CollectionE@Base 4:4.4.0
 _ZN7Akonadi14EntityListView7clickedERKNS_4ItemE@Base 4:4.4.0
 _ZN7Akonadi14EntityListView8setModelEP18QAbstractItemModel@Base 4:4.4.0
 _ZN7Akonadi14EntityListView9dropEventEP10QDropEvent@Base 4:4.4.0
 _ZN7Akonadi14EntityListView9startDragE6QFlagsIN2Qt10DropActionEE@Base 4:4.4.0
 _ZN7Akonadi14EntityListViewC1EP13KXMLGUIClientP7QWidget@Base 4:4.4.0
 _ZN7Akonadi14EntityListViewC1EP7QWidget@Base 4:4.4.0
 _ZN7Akonadi14EntityListViewC2EP13KXMLGUIClientP7QWidget@Base 4:4.4.0
 _ZN7Akonadi14EntityListViewC2EP7QWidget@Base 4:4.4.0
 _ZN7Akonadi14EntityListViewD0Ev@Base 4:4.4.0
 _ZN7Akonadi14EntityListViewD1Ev@Base 4:4.4.0
 _ZN7Akonadi14EntityListViewD2Ev@Base 4:4.4.0
 _ZN7Akonadi14EntityTreeView10timerEventEP11QTimerEvent@Base 4:4.4.0
 _ZN7Akonadi14EntityTreeView11qt_metacallEN11QMetaObject4CallEiPPv@Base 4:4.4.0
 _ZN7Akonadi14EntityTreeView11qt_metacastEPKc@Base 4:4.4.0
 _ZN7Akonadi14EntityTreeView13doubleClickedERKNS_10CollectionE@Base 4:4.4.0
 _ZN7Akonadi14EntityTreeView13doubleClickedERKNS_4ItemE@Base 4:4.4.0
 _ZN7Akonadi14EntityTreeView13dragMoveEventEP14QDragMoveEvent@Base 4:4.4.0
 _ZN7Akonadi14EntityTreeView14currentChangedERKNS_10CollectionE@Base 4:4.4.0
 _ZN7Akonadi14EntityTreeView14currentChangedERKNS_4ItemE@Base 4:4.4.0
 _ZN7Akonadi14EntityTreeView15setXmlGuiClientEP13KXMLGUIClient@Base 4:4.4.0
 _ZN7Akonadi14EntityTreeView16contextMenuEventEP17QContextMenuEvent@Base 4:4.4.0
 _ZN7Akonadi14EntityTreeView16staticMetaObjectE@Base 4:4.4.0
 _ZN7Akonadi14EntityTreeView19setDefaultPopupMenuERK7QString@Base 4:4.10.1
 _ZN7Akonadi14EntityTreeView22setManualSortingActiveEb@Base 4:4.8.1
 _ZN7Akonadi14EntityTreeView24setDropActionMenuEnabledEb@Base 4:4.5.0
 _ZN7Akonadi14EntityTreeView7Private11itemClickedERK11QModelIndex@Base 4:4.4.0
 _ZN7Akonadi14EntityTreeView7Private17itemDoubleClickedERK11QModelIndex@Base 4:4.4.0
 _ZN7Akonadi14EntityTreeView7Private18itemCurrentChangedERK11QModelIndex@Base 4:4.4.0
 _ZN7Akonadi14EntityTreeView7Private20slotSelectionChangedERK14QItemSelectionS4_@Base 4:4.4.0
 _ZN7Akonadi14EntityTreeView7Private4initEv@Base 4:4.4.0
 _ZN7Akonadi14EntityTreeView7clickedERKNS_10CollectionE@Base 4:4.4.0
 _ZN7Akonadi14EntityTreeView7clickedERKNS_4ItemE@Base 4:4.4.0
 _ZN7Akonadi14EntityTreeView8setModelEP18QAbstractItemModel@Base 4:4.4.0
 _ZN7Akonadi14EntityTreeView9dropEventEP10QDropEvent@Base 4:4.4.0
 _ZN7Akonadi14EntityTreeView9startDragE6QFlagsIN2Qt10DropActionEE@Base 4:4.4.0
 _ZN7Akonadi14EntityTreeViewC1EP13KXMLGUIClientP7QWidget@Base 4:4.4.0
 _ZN7Akonadi14EntityTreeViewC1EP7QWidget@Base 4:4.4.0
 _ZN7Akonadi14EntityTreeViewC2EP13KXMLGUIClientP7QWidget@Base 4:4.4.0
 _ZN7Akonadi14EntityTreeViewC2EP7QWidget@Base 4:4.4.0
 _ZN7Akonadi14EntityTreeViewD0Ev@Base 4:4.4.0
 _ZN7Akonadi14EntityTreeViewD1Ev@Base 4:4.4.0
 _ZN7Akonadi14EntityTreeViewD2Ev@Base 4:4.4.0
 _ZN7Akonadi14ItemFetchScope12setCacheOnlyEb@Base 4:4.3.4
 _ZN7Akonadi14ItemFetchScope14fetchAttributeERK10QByteArrayb@Base 4:4.3.4
 _ZN7Akonadi14ItemFetchScope16fetchFullPayloadEb@Base 4:4.3.4
 _ZN7Akonadi14ItemFetchScope16fetchPayloadPartERK10QByteArrayb@Base 4:4.3.4
 _ZN7Akonadi14ItemFetchScope18fetchAllAttributesEb@Base 4:4.3.4
 _ZN7Akonadi14ItemFetchScope20setAncestorRetrievalENS0_17AncestorRetrievalE@Base 4:4.4.0
 _ZN7Akonadi14ItemFetchScope24setFetchModificationTimeEb@Base 4:4.5.86
 _ZN7Akonadi14ItemFetchScopeC1ERKS0_@Base 4:4.3.4
 _ZN7Akonadi14ItemFetchScopeC1Ev@Base 4:4.3.4
 _ZN7Akonadi14ItemFetchScopeC2ERKS0_@Base 4:4.3.4
 _ZN7Akonadi14ItemFetchScopeC2Ev@Base 4:4.3.4
 _ZN7Akonadi14ItemFetchScopeD1Ev@Base 4:4.3.4
 _ZN7Akonadi14ItemFetchScopeD2Ev@Base 4:4.3.4
 _ZN7Akonadi14ItemFetchScopeaSERKS0_@Base 4:4.3.4
 _ZN7Akonadi14ItemSerializer11deserializeERNS_4ItemERK10QByteArrayR9QIODevicei@Base 4:4.10.1
 _ZN7Akonadi14ItemSerializer11deserializeERNS_4ItemERK10QByteArrayS5_ib@Base 4:4.10.1
 _ZN7Akonadi14ItemSerializer14availablePartsERKNS_4ItemE@Base 4:4.10.1
 _ZN7Akonadi14ItemSerializer5applyERNS_4ItemERKS1_@Base 4:4.10.1
 _ZN7Akonadi14ItemSerializer5partsERKNS_4ItemE@Base 4:4.10.1
 _ZN7Akonadi14ItemSerializer7convertERKNS_4ItemEi@Base 4:4.10.1
 _ZN7Akonadi14ItemSerializer9serializeERKNS_4ItemERK10QByteArrayR9QIODeviceRi@Base 4:4.10.1
 _ZN7Akonadi14ItemSerializer9serializeERKNS_4ItemERK10QByteArrayRS4_Ri@Base 4:4.10.1
 _ZN7Akonadi14MonitorPrivate10slotNotifyERK5QListINS_19NotificationMessageEE@Base 4:4.10.1
 _ZN7Akonadi14MonitorPrivate11PurgeBuffer5purgeEx@Base 4:4.10.1
 _ZN7Akonadi14MonitorPrivate11PurgeBuffer6bufferEx@Base 4:4.10.1
 _ZN7Akonadi14MonitorPrivate13dataAvailableEv@Base 4:4.10.1
 _ZN7Akonadi14MonitorPrivate13flushPipelineEv@Base 4:4.10.1
 _ZN7Akonadi14MonitorPrivate15invalidateCacheERKNS_10CollectionE@Base 4:4.10.1
 _ZN7Akonadi14MonitorPrivate16emitNotificationERKNS_19NotificationMessageE@Base 4:4.10.1
 _ZN7Akonadi14MonitorPrivate16invalidateCachesERKNS_19NotificationMessageE@Base 4:4.10.1
 _ZN7Akonadi14MonitorPrivate18serverStateChangedENS_13ServerManager5StateE@Base 4:4.10.1
 _ZN7Akonadi14MonitorPrivate19ensureDataAvailableERKNS_19NotificationMessageE@Base 4:4.10.1
 _ZN7Akonadi14MonitorPrivate19invalidateItemCacheEx@Base 4:4.10.1
 _ZN7Akonadi14MonitorPrivate20emitItemNotificationERKNS_19NotificationMessageERKNS_4ItemERKNS_10CollectionES9_@Base 4:4.10.1
 _ZN7Akonadi14MonitorPrivate20slotSessionDestroyedEP7QObject@Base 4:4.10.1
 _ZN7Akonadi14MonitorPrivate20translateAndCompressER6QQueueINS_19NotificationMessageEERKS2_@Base 4:4.10.1
 _ZN7Akonadi14MonitorPrivate21cleanOldNotificationsEv@Base 4:4.10.1
 _ZN7Akonadi14MonitorPrivate21dispatchNotificationsEv@Base 4:4.10.1
 _ZN7Akonadi14MonitorPrivate23updatePendingStatisticsERKNS_19NotificationMessageE@Base 4:4.10.1
 _ZN7Akonadi14MonitorPrivate25invalidateCollectionCacheEx@Base 4:4.10.1
 _ZN7Akonadi14MonitorPrivate26emitCollectionNotificationERKNS_19NotificationMessageERKNS_10CollectionES6_S6_@Base 4:4.10.1
 _ZN7Akonadi14MonitorPrivate28connectToNotificationManagerEv@Base 4:4.10.1
 _ZN7Akonadi14MonitorPrivate29slotStatisticsChangedFinishedEP4KJob@Base 4:4.10.1
 _ZN7Akonadi14MonitorPrivate34notifyCollectionStatisticsWatchersExRK10QByteArray@Base 4:4.10.1
 _ZN7Akonadi14MonitorPrivate35slotFlushRecentlyChangedCollectionsEv@Base 4:4.10.1
 _ZN7Akonadi14MonitorPrivate3refEx@Base 4:4.10.1
 _ZN7Akonadi14MonitorPrivate4initEv@Base 4:4.10.1
 _ZN7Akonadi14MonitorPrivate5derefEx@Base 4:4.10.1
 _ZN7Akonadi14MonitorPrivateC1EPNS_37ChangeNotificationDependenciesFactoryEPNS_7MonitorE@Base 4:4.10.1
 _ZN7Akonadi14MonitorPrivateC2EPNS_37ChangeNotificationDependenciesFactoryEPNS_7MonitorE@Base 4:4.10.1
 _ZN7Akonadi14PluginMetaDataC1ERK7QStringS3_S3_S3_@Base 4:4.10.1
 _ZN7Akonadi14PluginMetaDataC1Ev@Base 4:4.10.1
 _ZN7Akonadi14PluginMetaDataC2ERK7QStringS3_S3_S3_@Base 4:4.10.1
 _ZN7Akonadi14PluginMetaDataC2Ev@Base 4:4.10.1
 _ZN7Akonadi14PluginMetaDataD1Ev@Base 4:4.10.1
 _ZN7Akonadi14PluginMetaDataD2Ev@Base 4:4.10.1
 _ZN7Akonadi14SelfTestDialog10copyReportEv@Base 4:4.10.1
 _ZN7Akonadi14SelfTestDialog10saveReportEv@Base 4:4.10.1
 _ZN7Akonadi14SelfTestDialog11qt_metacallEN11QMetaObject4CallEiPPv@Base 4:4.10.1
 _ZN7Akonadi14SelfTestDialog11qt_metacastEPKc@Base 4:4.10.1
 _ZN7Akonadi14SelfTestDialog12createReportEv@Base 4:4.10.1
 _ZN7Akonadi14SelfTestDialog12testRootUserEv@Base 4:4.10.1
 _ZN7Akonadi14SelfTestDialog13linkActivatedERK7QString@Base 4:4.10.1
 _ZN7Akonadi14SelfTestDialog13testResourcesEv@Base 4:4.10.1
 _ZN7Akonadi14SelfTestDialog13testSQLDriverEv@Base 4:4.10.1
 _ZN7Akonadi14SelfTestDialog13testServerLogEv@Base 4:4.10.1
 _ZN7Akonadi14SelfTestDialog14testAkonadiCtlEv@Base 4:4.10.1
 _ZN7Akonadi14SelfTestDialog14testControlLogEv@Base 4:4.10.1
 _ZN7Akonadi14SelfTestDialog14testPSQLServerEv@Base 4:4.10.1
 _ZN7Akonadi14SelfTestDialog15testMySQLServerEv@Base 4:4.10.1
 _ZN7Akonadi14SelfTestDialog16hideIntroductionEv@Base 4:4.10.1
 _ZN7Akonadi14SelfTestDialog16selectionChangedERK11QModelIndex@Base 4:4.10.1
 _ZN7Akonadi14SelfTestDialog16staticMetaObjectE@Base 4:4.10.1
 _ZN7Akonadi14SelfTestDialog16testSearchStatusEv@Base 4:4.10.1
 _ZN7Akonadi14SelfTestDialog16testServerStatusEv@Base 4:4.10.1
 _ZN7Akonadi14SelfTestDialog18testMySQLServerLogEv@Base 4:4.10.1
 _ZN7Akonadi14SelfTestDialog19testProtocolVersionEv@Base 4:4.10.1
 _ZN7Akonadi14SelfTestDialog21testMySQLServerConfigEv@Base 4:4.10.1
 _ZN7Akonadi14SelfTestDialog6reportENS0_10ResultTypeERK16KLocalizedStringS4_@Base 4:4.10.1
 _ZN7Akonadi14SelfTestDialog8runTestsEv@Base 4:4.10.1
 _ZN7Akonadi14SelfTestDialogC1EP7QWidget@Base 4:4.10.1
 _ZN7Akonadi14SelfTestDialogC2EP7QWidget@Base 4:4.10.1
 _ZN7Akonadi14SelfTestDialogD0Ev@Base 4:4.10.1
 _ZN7Akonadi14SelfTestDialogD1Ev@Base 4:4.10.1
 _ZN7Akonadi14SelfTestDialogD2Ev@Base 4:4.10.1
 _ZN7Akonadi14SessionPrivate11doStartNextEv@Base 4:4.10.1
 _ZN7Akonadi14SessionPrivate11socketErrorEN12QLocalSocket16LocalSocketErrorE@Base 4:4.10.1
 _ZN7Akonadi14SessionPrivate11socketErrorEN15QAbstractSocket11SocketErrorE@Base 4:4.10.1
 _ZN7Akonadi14SessionPrivate12dataReceivedEv@Base 4:4.10.1
 _ZN7Akonadi14SessionPrivate12jobDestroyedEP7QObject@Base 4:4.10.1
 _ZN7Akonadi14SessionPrivate14connectionFileEv@Base 4:4.10.1
 _ZN7Akonadi14SessionPrivate14forceReconnectEv@Base 4:4.10.1
 _ZN7Akonadi14SessionPrivate15canPipelineNextEv@Base 4:4.10.1
 _ZN7Akonadi14SessionPrivate16jobWriteFinishedEPNS_3JobE@Base 4:4.10.1
 _ZN7Akonadi14SessionPrivate18serverStateChangedENS_13ServerManager5StateE@Base 4:4.10.1
 _ZN7Akonadi14SessionPrivate18socketDisconnectedEv@Base 4:4.10.1
 _ZN7Akonadi14SessionPrivate19itemRevisionChangedExii@Base 4:4.10.1
 _ZN7Akonadi14SessionPrivate20createDefaultSessionERK10QByteArray@Base 4:4.10.1
 _ZN7Akonadi14SessionPrivate4initERK10QByteArray@Base 4:4.10.1
 _ZN7Akonadi14SessionPrivate6addJobEPNS_3JobE@Base 4:4.10.1
 _ZN7Akonadi14SessionPrivate6endJobEPNS_3JobE@Base 4:4.10.1
 _ZN7Akonadi14SessionPrivate7jobDoneEP4KJob@Base 4:4.10.1
 _ZN7Akonadi14SessionPrivate7nextTagEv@Base 4:4.10.1
 _ZN7Akonadi14SessionPrivate8startJobEPNS_3JobE@Base 4:4.10.1
 _ZN7Akonadi14SessionPrivate9reconnectEv@Base 4:4.10.1
 _ZN7Akonadi14SessionPrivate9startNextEv@Base 4:4.10.1
 _ZN7Akonadi14SessionPrivate9writeDataERK10QByteArray@Base 4:4.10.1
 _ZN7Akonadi14SessionPrivateC1EPNS_7SessionE@Base 4:4.10.1
 _ZN7Akonadi14SessionPrivateC2EPNS_7SessionE@Base 4:4.10.1
 _ZN7Akonadi15AgentTypeDialog11qt_metacallEN11QMetaObject4CallEiPPv@Base 4:4.3.4
 _ZN7Akonadi15AgentTypeDialog11qt_metacastEPKc@Base 4:4.3.4
 _ZN7Akonadi15AgentTypeDialog16staticMetaObjectE@Base 4:4.3.4
 _ZN7Akonadi15AgentTypeDialog4doneEi@Base 4:4.3.4
 _ZN7Akonadi15AgentTypeDialogC1EP7QWidget@Base 4:4.3.4
 _ZN7Akonadi15AgentTypeDialogC2EP7QWidget@Base 4:4.3.4
 _ZN7Akonadi15AgentTypeDialogD0Ev@Base 4:4.3.4
 _ZN7Akonadi15AgentTypeDialogD1Ev@Base 4:4.3.4
 _ZN7Akonadi15AgentTypeDialogD2Ev@Base 4:4.3.4
 _ZN7Akonadi15AgentTypeWidget11qt_metacallEN11QMetaObject4CallEiPPv@Base 4:4.3.4
 _ZN7Akonadi15AgentTypeWidget11qt_metacastEPKc@Base 4:4.3.4
 _ZN7Akonadi15AgentTypeWidget14currentChangedERKNS_9AgentTypeES3_@Base 4:4.3.4
 _ZN7Akonadi15AgentTypeWidget16staticMetaObjectE@Base 4:4.3.4
 _ZN7Akonadi15AgentTypeWidget7Private23currentAgentTypeChangedERK11QModelIndexS4_@Base 4:4.3.4
 _ZN7Akonadi15AgentTypeWidget9activatedEv@Base 4:4.3.4
 _ZN7Akonadi15AgentTypeWidgetC1EP7QWidget@Base 4:4.3.4
 _ZN7Akonadi15AgentTypeWidgetC2EP7QWidget@Base 4:4.3.4
 _ZN7Akonadi15AgentTypeWidgetD0Ev@Base 4:4.3.4
 _ZN7Akonadi15AgentTypeWidgetD1Ev@Base 4:4.3.4
 _ZN7Akonadi15AgentTypeWidgetD2Ev@Base 4:4.3.4
 _ZN7Akonadi15CachePolicyPage11qt_metacallEN11QMetaObject4CallEiPPv@Base 4:4.5.86
 _ZN7Akonadi15CachePolicyPage11qt_metacastEPKc@Base 4:4.5.86
 _ZN7Akonadi15CachePolicyPage16staticMetaObjectE@Base 4:4.5.86
 _ZN7Akonadi15CachePolicyPage4loadERKNS_10CollectionE@Base 4:4.5.86
 _ZN7Akonadi15CachePolicyPage4saveERNS_10CollectionE@Base 4:4.5.86
 _ZN7Akonadi15CachePolicyPage7Private21slotCacheValueChangedEi@Base 4:4.5.86
 _ZN7Akonadi15CachePolicyPage7Private24slotIntervalValueChangedEi@Base 4:4.5.86
 _ZN7Akonadi15CachePolicyPage7Private36slotRetrievalOptionsGroupBoxDisabledEb@Base 4:4.7.4
 _ZN7Akonadi15CachePolicyPageC1EP7QWidgetNS0_7GuiModeE@Base 4:4.5.86
 _ZN7Akonadi15CachePolicyPageC2EP7QWidgetNS0_7GuiModeE@Base 4:4.5.86
 _ZN7Akonadi15CachePolicyPageD0Ev@Base 4:4.5.86
 _ZN7Akonadi15CachePolicyPageD1Ev@Base 4:4.5.86
 _ZN7Akonadi15CachePolicyPageD2Ev@Base 4:4.5.86
 _ZN7Akonadi15CollectionModel11qt_metacallEN11QMetaObject4CallEiPPv@Base 4:4.3.4
 _ZN7Akonadi15CollectionModel11qt_metacastEPKc@Base 4:4.3.4
 _ZN7Akonadi15CollectionModel12dropMimeDataEPK9QMimeDataN2Qt10DropActionEiiRK11QModelIndex@Base 4:4.3.4
 _ZN7Akonadi15CollectionModel13setHeaderDataEiN2Qt11OrientationERK8QVarianti@Base 4:4.3.4
 _ZN7Akonadi15CollectionModel16staticMetaObjectE@Base 4:4.3.4
 _ZN7Akonadi15CollectionModel19includeUnsubscribedEb@Base 4:4.3.4
 _ZN7Akonadi15CollectionModel25fetchCollectionStatisticsEb@Base 4:4.3.4
 _ZN7Akonadi15CollectionModel7setDataERK11QModelIndexRK8QVarianti@Base 4:4.3.4
 _ZN7Akonadi15CollectionModelC1EP7QObject@Base 4:4.3.4
 _ZN7Akonadi15CollectionModelC1EPNS_22CollectionModelPrivateEP7QObject@Base 4:4.3.4
 _ZN7Akonadi15CollectionModelC2EP7QObject@Base 4:4.3.4
 _ZN7Akonadi15CollectionModelC2EPNS_22CollectionModelPrivateEP7QObject@Base 4:4.3.4
 _ZN7Akonadi15CollectionModelD0Ev@Base 4:4.3.4
 _ZN7Akonadi15CollectionModelD1Ev@Base 4:4.3.4
 _ZN7Akonadi15CollectionModelD2Ev@Base 4:4.3.4
 _ZN7Akonadi15EntityCacheBase10setSessionEPNS_7SessionE@Base 4:4.10.1
 _ZN7Akonadi15EntityCacheBase11qt_metacallEN11QMetaObject4CallEiPPv@Base 4:4.10.1
 _ZN7Akonadi15EntityCacheBase11qt_metacastEPKc@Base 4:4.10.1
 _ZN7Akonadi15EntityCacheBase13dataAvailableEv@Base 4:4.10.1
 _ZN7Akonadi15EntityCacheBase16staticMetaObjectE@Base 4:4.10.1
 _ZN7Akonadi15EntityCacheBaseC1EPNS_7SessionEP7QObject@Base 4:4.10.1
 _ZN7Akonadi15EntityCacheBaseC2EPNS_7SessionEP7QObject@Base 4:4.10.1
 _ZN7Akonadi15EntityCacheBaseD0Ev@Base 4:4.10.1
 _ZN7Akonadi15EntityCacheBaseD1Ev@Base 4:4.10.1
 _ZN7Akonadi15EntityCacheBaseD2Ev@Base 4:4.10.1
 _ZN7Akonadi15EntityTreeModel10insertRowsEiiRK11QModelIndex@Base 4:4.4.0
 _ZN7Akonadi15EntityTreeModel10removeRowsEiiRK11QModelIndex@Base 4:4.4.0
 _ZN7Akonadi15EntityTreeModel11qt_metacallEN11QMetaObject4CallEiPPv@Base 4:4.4.0
 _ZN7Akonadi15EntityTreeModel11qt_metacastEPKc@Base 4:4.4.0
 _ZN7Akonadi15EntityTreeModel12dropMimeDataEPK9QMimeDataN2Qt10DropActionEiiRK11QModelIndex@Base 4:4.4.0
 _ZN7Akonadi15EntityTreeModel13clearAndResetEv@Base 4:4.4.0
 _ZN7Akonadi15EntityTreeModel13insertColumnsEiiRK11QModelIndex@Base 4:4.4.0
 _ZN7Akonadi15EntityTreeModel13removeColumnsEiiRK11QModelIndex@Base 4:4.4.0
 _ZN7Akonadi15EntityTreeModel16staticMetaObjectE@Base 4:4.4.0
 _ZN7Akonadi15EntityTreeModel17collectionFetchedEi@Base 4:4.10.1
 _ZN7Akonadi15EntityTreeModel19collectionPopulatedEx@Base 4:4.10.1
 _ZN7Akonadi15EntityTreeModel19modelIndexesForItemEPK18QAbstractItemModelRKNS_4ItemE@Base 4:4.5.0
 _ZN7Akonadi15EntityTreeModel21collectionTreeFetchedERK5QListINS_10CollectionEE@Base 4:4.10.1
 _ZN7Akonadi15EntityTreeModel21setShowSystemEntitiesEb@Base 4:4.4.0
 _ZN7Akonadi15EntityTreeModel22setIncludeUnsubscribedEb@Base 4:4.5.0
 _ZN7Akonadi15EntityTreeModel23modelIndexForCollectionEPK18QAbstractItemModelRKNS_10CollectionE@Base 4:4.5.0
 _ZN7Akonadi15EntityTreeModel24setIncludeRootCollectionEb@Base 4:4.4.0
 _ZN7Akonadi15EntityTreeModel25setItemPopulationStrategyENS0_22ItemPopulationStrategyE@Base 4:4.4.0
 _ZN7Akonadi15EntityTreeModel26setCollectionFetchStrategyENS0_23CollectionFetchStrategyE@Base 4:4.4.0
 _ZN7Akonadi15EntityTreeModel28setRootCollectionDisplayNameERK7QString@Base 4:4.4.0
 _ZN7Akonadi15EntityTreeModel7setDataERK11QModelIndexRK8QVarianti@Base 4:4.4.0
 _ZN7Akonadi15EntityTreeModel9fetchMoreERK11QModelIndex@Base 4:4.4.0
 _ZN7Akonadi15EntityTreeModelC1EPNS_14ChangeRecorderEP7QObject@Base 4:4.4.0
 _ZN7Akonadi15EntityTreeModelC1EPNS_14ChangeRecorderEPNS_22EntityTreeModelPrivateEP7QObject@Base 4:4.4.0
 _ZN7Akonadi15EntityTreeModelC2EPNS_14ChangeRecorderEP7QObject@Base 4:4.4.0
 _ZN7Akonadi15EntityTreeModelC2EPNS_14ChangeRecorderEPNS_22EntityTreeModelPrivateEP7QObject@Base 4:4.4.0
 _ZN7Akonadi15EntityTreeModelD0Ev@Base 4:4.4.0
 _ZN7Akonadi15EntityTreeModelD1Ev@Base 4:4.4.0
 _ZN7Akonadi15EntityTreeModelD2Ev@Base 4:4.4.0
 _ZN7Akonadi15MimeTypeChecker12isWantedItemERKNS_4ItemERK7QString@Base 4:4.3.4
 _ZN7Akonadi15MimeTypeChecker17addWantedMimeTypeERK7QString@Base 4:4.3.4
 _ZN7Akonadi15MimeTypeChecker18isWantedCollectionERKNS_10CollectionERK7QString@Base 4:4.3.4
 _ZN7Akonadi15MimeTypeChecker18setWantedMimeTypesERK11QStringList@Base 4:4.3.4
 _ZN7Akonadi15MimeTypeChecker20removeWantedMimeTypeERK7QString@Base 4:4.3.4
 _ZN7Akonadi15MimeTypeCheckerC1ERKS0_@Base 4:4.3.4
 _ZN7Akonadi15MimeTypeCheckerC1Ev@Base 4:4.3.4
 _ZN7Akonadi15MimeTypeCheckerC2ERKS0_@Base 4:4.3.4
 _ZN7Akonadi15MimeTypeCheckerC2Ev@Base 4:4.3.4
 _ZN7Akonadi15MimeTypeCheckerD1Ev@Base 4:4.3.4
 _ZN7Akonadi15MimeTypeCheckerD2Ev@Base 4:4.3.4
 _ZN7Akonadi15MimeTypeCheckeraSERKS0_@Base 4:4.3.4
 _ZN7Akonadi15ResourceScanJob11qt_metacallEN11QMetaObject4CallEiPPv@Base 4:4.10.1
 _ZN7Akonadi15ResourceScanJob11qt_metacastEPKc@Base 4:4.10.1
 _ZN7Akonadi15ResourceScanJob13setResourceIdERK7QString@Base 4:4.10.1
 _ZN7Akonadi15ResourceScanJob16staticMetaObjectE@Base 4:4.10.1
 _ZN7Akonadi15ResourceScanJob7Private11fetchResultEP4KJob@Base 4:4.10.1
 _ZN7Akonadi15ResourceScanJob7PrivateC1EP19KCoreConfigSkeletonPS0_@Base 4:4.10.1
 _ZN7Akonadi15ResourceScanJob7PrivateC2EP19KCoreConfigSkeletonPS0_@Base 4:4.10.1
 _ZN7Akonadi15ResourceScanJob7doStartEv@Base 4:4.10.1
 _ZN7Akonadi15ResourceScanJobC1ERK7QStringP19KCoreConfigSkeletonP7QObject@Base 4:4.10.1
 _ZN7Akonadi15ResourceScanJobC2ERK7QStringP19KCoreConfigSkeletonP7QObject@Base 4:4.10.1
 _ZN7Akonadi15ResourceScanJobD0Ev@Base 4:4.10.1
 _ZN7Akonadi15ResourceScanJobD1Ev@Base 4:4.10.1
 _ZN7Akonadi15ResourceScanJobD2Ev@Base 4:4.10.1
 _ZN7Akonadi15SearchCreateJob11qt_metacallEN11QMetaObject4CallEiPPv@Base 4:4.3.4
 _ZN7Akonadi15SearchCreateJob11qt_metacastEPKc@Base 4:4.3.4
 _ZN7Akonadi15SearchCreateJob16doHandleResponseERK10QByteArrayS3_@Base 4:4.4.0
 _ZN7Akonadi15SearchCreateJob16setQueryLanguageERK7QString@Base 4:4.5.90
 _ZN7Akonadi15SearchCreateJob16staticMetaObjectE@Base 4:4.3.4
 _ZN7Akonadi15SearchCreateJob7doStartEv@Base 4:4.3.4
 _ZN7Akonadi15SearchCreateJobC1ERK7QStringS3_P7QObject@Base 4:4.3.4
 _ZN7Akonadi15SearchCreateJobC2ERK7QStringS3_P7QObject@Base 4:4.3.4
 _ZN7Akonadi15SearchCreateJobD0Ev@Base 4:4.3.4
 _ZN7Akonadi15SearchCreateJobD1Ev@Base 4:4.3.4
 _ZN7Akonadi15SearchCreateJobD2Ev@Base 4:4.3.4
 _ZN7Akonadi15SubscriptionJob11qt_metacallEN11QMetaObject4CallEiPPv@Base 4:4.3.4
 _ZN7Akonadi15SubscriptionJob11qt_metacastEPKc@Base 4:4.3.4
 _ZN7Akonadi15SubscriptionJob11unsubscribeERK5QListINS_10CollectionEE@Base 4:4.3.4
 _ZN7Akonadi15SubscriptionJob16doHandleResponseERK10QByteArrayS3_@Base 4:4.3.4
 _ZN7Akonadi15SubscriptionJob16staticMetaObjectE@Base 4:4.3.4
 _ZN7Akonadi15SubscriptionJob7doStartEv@Base 4:4.3.4
 _ZN7Akonadi15SubscriptionJob9subscribeERK5QListINS_10CollectionEE@Base 4:4.3.4
 _ZN7Akonadi15SubscriptionJobC1EP7QObject@Base 4:4.3.4
 _ZN7Akonadi15SubscriptionJobC2EP7QObject@Base 4:4.3.4
 _ZN7Akonadi15SubscriptionJobD0Ev@Base 4:4.3.4
 _ZN7Akonadi15SubscriptionJobD1Ev@Base 4:4.3.4
 _ZN7Akonadi15SubscriptionJobD2Ev@Base 4:4.3.4
 _ZN7Akonadi15TrashRestoreJob11qt_metacallEN11QMetaObject4CallEiPPv@Base 4:4.8.1
 _ZN7Akonadi15TrashRestoreJob11qt_metacastEPKc@Base 4:4.8.1
 _ZN7Akonadi15TrashRestoreJob16staticMetaObjectE@Base 4:4.8.1
 _ZN7Akonadi15TrashRestoreJob19setTargetCollectionENS_10CollectionE@Base 4:4.8.1
 _ZN7Akonadi15TrashRestoreJob22TrashRestoreJobPrivate12selectResultEP4KJob@Base 4:4.8.1
 _ZN7Akonadi15TrashRestoreJob22TrashRestoreJobPrivate13itemsReceivedERK5QListINS_4ItemEE@Base 4:4.8.1
 _ZN7Akonadi15TrashRestoreJob22TrashRestoreJobPrivate15removeAttributeERK5QListINS_10CollectionEE@Base 4:4.8.1
 _ZN7Akonadi15TrashRestoreJob22TrashRestoreJobPrivate15removeAttributeERK5QListINS_4ItemEE@Base 4:4.8.1
 _ZN7Akonadi15TrashRestoreJob22TrashRestoreJobPrivate19collectionsReceivedERK5QListINS_10CollectionEE@Base 4:4.8.1
 _ZN7Akonadi15TrashRestoreJob22TrashRestoreJobPrivate23targetCollectionFetchedEP4KJob@Base 4:4.8.1
 _ZN7Akonadi15TrashRestoreJob22TrashRestoreJobPrivateD0Ev@Base 4:4.8.1
 _ZN7Akonadi15TrashRestoreJob22TrashRestoreJobPrivateD1Ev@Base 4:4.8.1
 _ZN7Akonadi15TrashRestoreJob22TrashRestoreJobPrivateD2Ev@Base 4:4.8.1
 _ZN7Akonadi15TrashRestoreJob7doStartEv@Base 4:4.8.1
 _ZN7Akonadi15TrashRestoreJobC1ERK5QListINS_4ItemEEP7QObject@Base 4:4.8.1
 _ZN7Akonadi15TrashRestoreJobC1ERKNS_10CollectionEP7QObject@Base 4:4.8.1
 _ZN7Akonadi15TrashRestoreJobC1ERKNS_4ItemEP7QObject@Base 4:4.8.1
 _ZN7Akonadi15TrashRestoreJobC2ERK5QListINS_4ItemEEP7QObject@Base 4:4.8.1
 _ZN7Akonadi15TrashRestoreJobC2ERKNS_10CollectionEP7QObject@Base 4:4.8.1
 _ZN7Akonadi15TrashRestoreJobC2ERKNS_4ItemEP7QObject@Base 4:4.8.1
 _ZN7Akonadi15TrashRestoreJobD0Ev@Base 4:4.8.1
 _ZN7Akonadi15TrashRestoreJobD1Ev@Base 4:4.8.1
 _ZN7Akonadi15TrashRestoreJobD2Ev@Base 4:4.8.1
 _ZN7Akonadi16AgentFactoryBase11qt_metacallEN11QMetaObject4CallEiPPv@Base 4:4.5.86
 _ZN7Akonadi16AgentFactoryBase11qt_metacastEPKc@Base 4:4.5.86
 _ZN7Akonadi16AgentFactoryBase16staticMetaObjectE@Base 4:4.5.86
 _ZN7Akonadi16AgentFactoryBaseC1EPKcP7QObject@Base 4:4.5.86
 _ZN7Akonadi16AgentFactoryBaseC2EPKcP7QObject@Base 4:4.5.86
 _ZN7Akonadi16AgentFactoryBaseD0Ev@Base 4:4.6.5
 _ZN7Akonadi16AgentFactoryBaseD1Ev@Base 4:4.6.5
 _ZN7Akonadi16AgentFactoryBaseD2Ev@Base 4:4.6.5
 _ZN7Akonadi16AttributeFactory15createAttributeERK10QByteArray@Base 4:4.3.4
 _ZN7Akonadi16AttributeFactory17registerAttributeEPNS_9AttributeE@Base 4:4.3.4
 _ZN7Akonadi16AttributeFactory17registerAttributeINS_26SpecialCollectionAttributeEEEvv@Base 4:4.6.3
 _ZN7Akonadi16AttributeFactory4selfEv@Base 4:4.3.4
 _ZN7Akonadi16AttributeFactoryC1Ev@Base 4:4.3.4
 _ZN7Akonadi16AttributeFactoryC2Ev@Base 4:4.3.4
 _ZN7Akonadi16AttributeFactoryD1Ev@Base 4:4.3.4
 _ZN7Akonadi16AttributeFactoryD2Ev@Base 4:4.3.4
 _ZN7Akonadi16CollectionDialog11qt_metacallEN11QMetaObject4CallEiPPv@Base 4:4.3.4
 _ZN7Akonadi16CollectionDialog11qt_metacastEPKc@Base 4:4.3.4
 _ZN7Akonadi16CollectionDialog14setDescriptionERK7QString@Base 4:4.4.0
 _ZN7Akonadi16CollectionDialog16setSelectionModeEN17QAbstractItemView13SelectionModeE@Base 4:4.3.4
 _ZN7Akonadi16CollectionDialog16staticMetaObjectE@Base 4:4.3.4
 _ZN7Akonadi16CollectionDialog17setMimeTypeFilterERK11QStringList@Base 4:4.3.4
 _ZN7Akonadi16CollectionDialog20setDefaultCollectionERKNS_10CollectionE@Base 4:4.4.0
 _ZN7Akonadi16CollectionDialog21setAccessRightsFilterE6QFlagsINS_10Collection5RightEE@Base 4:4.4.0
 _ZN7Akonadi16CollectionDialog29changeCollectionDialogOptionsE6QFlagsINS0_22CollectionDialogOptionEE@Base 4:4.5.86
 _ZN7Akonadi16CollectionDialog7Private20slotSelectionChangedEv@Base 4:4.4.0
 _ZN7Akonadi16CollectionDialog7Private22slotAddChildCollectionEv@Base 4:4.5.86
 _ZN7Akonadi16CollectionDialog7Private28slotCollectionCreationResultEP4KJob@Base 4:4.5.86
 _ZN7Akonadi16CollectionDialog7Private29changeCollectionDialogOptionsE6QFlagsINS0_22CollectionDialogOptionEE@Base 4:4.5.86
 _ZN7Akonadi16CollectionDialogC1E6QFlagsINS0_22CollectionDialogOptionEEP18QAbstractItemModelP7QWidget@Base 4:4.5.86
 _ZN7Akonadi16CollectionDialogC1EP18QAbstractItemModelP7QWidget@Base 4:4.4.0
 _ZN7Akonadi16CollectionDialogC1EP7QWidget@Base 4:4.3.4
 _ZN7Akonadi16CollectionDialogC2E6QFlagsINS0_22CollectionDialogOptionEEP18QAbstractItemModelP7QWidget@Base 4:4.5.86
 _ZN7Akonadi16CollectionDialogC2EP18QAbstractItemModelP7QWidget@Base 4:4.4.0
 _ZN7Akonadi16CollectionDialogC2EP7QWidget@Base 4:4.3.4
 _ZN7Akonadi16CollectionDialogD0Ev@Base 4:4.3.4
 _ZN7Akonadi16CollectionDialogD1Ev@Base 4:4.3.4
 _ZN7Akonadi16CollectionDialogD2Ev@Base 4:4.3.4
 _ZN7Akonadi16PayloadExceptionD0Ev@Base 4:4.5.86
 _ZN7Akonadi16PayloadExceptionD1Ev@Base 4:4.5.86
 _ZN7Akonadi16PayloadExceptionD2Ev@Base 4:4.5.86
 _ZN7Akonadi16PreprocessorBase10fetchScopeEv@Base 4:4.4.0
 _ZN7Akonadi16PreprocessorBase11qt_metacallEN11QMetaObject4CallEiPPv@Base 4:4.4.0
 _ZN7Akonadi16PreprocessorBase11qt_metacastEPKc@Base 4:4.4.0
 _ZN7Akonadi16PreprocessorBase13setFetchScopeERKNS_14ItemFetchScopeE@Base 4:4.4.0
 _ZN7Akonadi16PreprocessorBase16finishProcessingENS0_16ProcessingResultE@Base 4:4.4.0
 _ZN7Akonadi16PreprocessorBase16staticMetaObjectE@Base 4:4.4.0
 _ZN7Akonadi16PreprocessorBaseC1ERK7QString@Base 4:4.4.0
 _ZN7Akonadi16PreprocessorBaseC2ERK7QString@Base 4:4.4.0
 _ZN7Akonadi16PreprocessorBaseD0Ev@Base 4:4.4.0
 _ZN7Akonadi16PreprocessorBaseD1Ev@Base 4:4.4.0
 _ZN7Akonadi16PreprocessorBaseD2Ev@Base 4:4.4.0
 _ZN7Akonadi16ResourceSettings11qt_metacallEN11QMetaObject4CallEiPPv@Base 4:4.5.86
 _ZN7Akonadi16ResourceSettings11qt_metacastEPKc@Base 4:4.5.86
 _ZN7Akonadi16ResourceSettings16staticMetaObjectE@Base 4:4.5.86
 _ZN7Akonadi16ResourceSettings4selfEv@Base 4:4.5.86
 _ZN7Akonadi16ResourceSettings5mSelfE@Base 4:4.5.86
 _ZN7Akonadi16ResourceSettingsC1Ev@Base 4:4.5.86
 _ZN7Akonadi16ResourceSettingsC2Ev@Base 4:4.5.86
 _ZN7Akonadi16ResourceSettingsD0Ev@Base 4:4.5.86
 _ZN7Akonadi16ResourceSettingsD1Ev@Base 4:4.5.86
 _ZN7Akonadi16ResourceSettingsD2Ev@Base 4:4.5.86
 _ZN7Akonadi17CollectionCopyJob11qt_metacallEN11QMetaObject4CallEiPPv@Base 4:4.3.4
 _ZN7Akonadi17CollectionCopyJob11qt_metacastEPKc@Base 4:4.3.4
 _ZN7Akonadi17CollectionCopyJob16staticMetaObjectE@Base 4:4.3.4
 _ZN7Akonadi17CollectionCopyJob7doStartEv@Base 4:4.3.4
 _ZN7Akonadi17CollectionCopyJobC1ERKNS_10CollectionES3_P7QObject@Base 4:4.3.4
 _ZN7Akonadi17CollectionCopyJobC2ERKNS_10CollectionES3_P7QObject@Base 4:4.3.4
 _ZN7Akonadi17CollectionCopyJobD0Ev@Base 4:4.3.4
 _ZN7Akonadi17CollectionCopyJobD1Ev@Base 4:4.3.4
 _ZN7Akonadi17CollectionCopyJobD2Ev@Base 4:4.3.4
 _ZN7Akonadi17CollectionMoveJob11qt_metacallEN11QMetaObject4CallEiPPv@Base 4:4.3.4
 _ZN7Akonadi17CollectionMoveJob11qt_metacastEPKc@Base 4:4.3.4
 _ZN7Akonadi17CollectionMoveJob16staticMetaObjectE@Base 4:4.3.4
 _ZN7Akonadi17CollectionMoveJob7doStartEv@Base 4:4.3.4
 _ZN7Akonadi17CollectionMoveJobC1ERKNS_10CollectionES3_P7QObject@Base 4:4.3.4
 _ZN7Akonadi17CollectionMoveJobC2ERKNS_10CollectionES3_P7QObject@Base 4:4.3.4
 _ZN7Akonadi17CollectionMoveJobD0Ev@Base 4:4.6.5
 _ZN7Akonadi17CollectionMoveJobD1Ev@Base 4:4.6.5
 _ZN7Akonadi17CollectionMoveJobD2Ev@Base 4:4.6.5
 _ZN7Akonadi17ETMViewStateSaver11qt_metacallEN11QMetaObject4CallEiPPv@Base 4:4.5.86
 _ZN7Akonadi17ETMViewStateSaver11qt_metacastEPKc@Base 4:4.5.86
 _ZN7Akonadi17ETMViewStateSaver11selectItemsERK5QListINS_4ItemEE@Base 4:4.5.86
 _ZN7Akonadi17ETMViewStateSaver11selectItemsERK5QListIxE@Base 4:4.5.86
 _ZN7Akonadi17ETMViewStateSaver16staticMetaObjectE@Base 4:4.5.86
 _ZN7Akonadi17ETMViewStateSaver17selectCollectionsERK5QListINS_10CollectionEE@Base 4:4.5.86
 _ZN7Akonadi17ETMViewStateSaver17selectCollectionsERK5QListIxE@Base 4:4.5.86
 _ZN7Akonadi17ETMViewStateSaverC1EP7QObject@Base 4:4.5.86
 _ZN7Akonadi17ETMViewStateSaverC2EP7QObject@Base 4:4.5.86
 _ZN7Akonadi17ETMViewStateSaverD0Ev@Base 4:4.6.5
 _ZN7Akonadi17ETMViewStateSaverD1Ev@Base 4:4.6.5
 _ZN7Akonadi17ETMViewStateSaverD2Ev@Base 4:4.6.5
 _ZN7Akonadi17ResourceSelectJob11qt_metacallEN11QMetaObject4CallEiPPv@Base 4:4.10.1
 _ZN7Akonadi17ResourceSelectJob11qt_metacastEPKc@Base 4:4.10.1
 _ZN7Akonadi17ResourceSelectJob16staticMetaObjectE@Base 4:4.10.1
 _ZN7Akonadi17ResourceSelectJob7doStartEv@Base 4:4.10.1
 _ZN7Akonadi17ResourceSelectJobC1ERK7QStringP7QObject@Base 4:4.10.1
 _ZN7Akonadi17ResourceSelectJobC2ERK7QStringP7QObject@Base 4:4.10.1
 _ZN7Akonadi17ResourceSelectJobD0Ev@Base 4:4.10.1
 _ZN7Akonadi17ResourceSelectJobD1Ev@Base 4:4.10.1
 _ZN7Akonadi17ResourceSelectJobD2Ev@Base 4:4.10.1
 _ZN7Akonadi18AgentActionManager11qt_metacallEN11QMetaObject4CallEiPPv@Base 4:4.5.86
 _ZN7Akonadi18AgentActionManager11qt_metacastEPKc@Base 4:4.5.86
 _ZN7Akonadi18AgentActionManager12createActionENS0_4TypeE@Base 4:4.5.86
 _ZN7Akonadi18AgentActionManager14setContextTextENS0_4TypeENS0_11TextContextERK16KLocalizedString@Base 4:4.8.1
 _ZN7Akonadi18AgentActionManager14setContextTextENS0_4TypeENS0_11TextContextERK7QString@Base 4:4.5.86
 _ZN7Akonadi18AgentActionManager15interceptActionENS0_4TypeEb@Base 4:4.5.86
 _ZN7Akonadi18AgentActionManager16createAllActionsEv@Base 4:4.5.86
 _ZN7Akonadi18AgentActionManager16staticMetaObjectE@Base 4:4.5.86
 _ZN7Akonadi18AgentActionManager17setMimeTypeFilterERK11QStringList@Base 4:4.5.86
 _ZN7Akonadi18AgentActionManager17setSelectionModelEP19QItemSelectionModel@Base 4:4.5.86
 _ZN7Akonadi18AgentActionManager18actionStateUpdatedEv@Base 4:4.5.86
 _ZN7Akonadi18AgentActionManager19setCapabilityFilterERK11QStringList@Base 4:4.5.86
 _ZN7Akonadi18AgentActionManagerC1EP17KActionCollectionP7QWidget@Base 4:4.5.86
 _ZN7Akonadi18AgentActionManagerC2EP17KActionCollectionP7QWidget@Base 4:4.5.86
 _ZN7Akonadi18AgentActionManagerD0Ev@Base 4:4.5.86
 _ZN7Akonadi18AgentActionManagerD1Ev@Base 4:4.5.86
 _ZN7Akonadi18AgentActionManagerD2Ev@Base 4:4.5.86
 _ZN7Akonadi18AgentInstanceModel11qt_metacallEN11QMetaObject4CallEiPPv@Base 4:4.3.4
 _ZN7Akonadi18AgentInstanceModel11qt_metacastEPKc@Base 4:4.3.4
 _ZN7Akonadi18AgentInstanceModel16staticMetaObjectE@Base 4:4.3.4
 _ZN7Akonadi18AgentInstanceModel7Private13instanceAddedERKNS_13AgentInstanceE@Base 4:4.3.4
 _ZN7Akonadi18AgentInstanceModel7Private15instanceChangedERKNS_13AgentInstanceE@Base 4:4.3.4
 _ZN7Akonadi18AgentInstanceModel7Private15instanceRemovedERKNS_13AgentInstanceE@Base 4:4.3.4
 _ZN7Akonadi18AgentInstanceModel7setDataERK11QModelIndexRK8QVarianti@Base 4:4.3.4
 _ZN7Akonadi18AgentInstanceModelC1EP7QObject@Base 4:4.3.4
 _ZN7Akonadi18AgentInstanceModelC2EP7QObject@Base 4:4.3.4
 _ZN7Akonadi18AgentInstanceModelD0Ev@Base 4:4.3.4
 _ZN7Akonadi18AgentInstanceModelD1Ev@Base 4:4.3.4
 _ZN7Akonadi18AgentInstanceModelD2Ev@Base 4:4.3.4
 _ZN7Akonadi18CollectionComboBox11qt_metacallEN11QMetaObject4CallEiPPv@Base 4:4.4.0
 _ZN7Akonadi18CollectionComboBox11qt_metacastEPKc@Base 4:4.4.0
 _ZN7Akonadi18CollectionComboBox14currentChangedERKNS_10CollectionE@Base 4:4.4.0
 _ZN7Akonadi18CollectionComboBox16staticMetaObjectE@Base 4:4.4.0
 _ZN7Akonadi18CollectionComboBox17setMimeTypeFilterERK11QStringList@Base 4:4.4.0
 _ZN7Akonadi18CollectionComboBox20setDefaultCollectionERKNS_10CollectionE@Base 4:4.4.0
 _ZN7Akonadi18CollectionComboBox21setAccessRightsFilterE6QFlagsINS_10Collection5RightEE@Base 4:4.4.0
 _ZN7Akonadi18CollectionComboBox7Private9activatedERK11QModelIndex@Base 4:4.4.0
 _ZN7Akonadi18CollectionComboBox7Private9activatedEi@Base 4:4.4.0
 _ZN7Akonadi18CollectionComboBoxC1EP18QAbstractItemModelP7QWidget@Base 4:4.4.0
 _ZN7Akonadi18CollectionComboBoxC1EP7QWidget@Base 4:4.4.0
 _ZN7Akonadi18CollectionComboBoxC2EP18QAbstractItemModelP7QWidget@Base 4:4.4.0
 _ZN7Akonadi18CollectionComboBoxC2EP7QWidget@Base 4:4.4.0
 _ZN7Akonadi18CollectionComboBoxD0Ev@Base 4:4.4.0
 _ZN7Akonadi18CollectionComboBoxD1Ev@Base 4:4.4.0
 _ZN7Akonadi18CollectionComboBoxD2Ev@Base 4:4.4.0
 _ZN7Akonadi18CollectionFetchJob10fetchScopeEv@Base 4:4.4.0
 _ZN7Akonadi18CollectionFetchJob10slotResultEP4KJob@Base 4:4.3.4
 _ZN7Akonadi18CollectionFetchJob11qt_metacallEN11QMetaObject4CallEiPPv@Base 4:4.3.4
 _ZN7Akonadi18CollectionFetchJob11qt_metacastEPKc@Base 4:4.3.4
 _ZN7Akonadi18CollectionFetchJob11setResourceERK7QString@Base 4:4.3.4
 _ZN7Akonadi18CollectionFetchJob13setFetchScopeERKNS_20CollectionFetchScopeE@Base 4:4.4.0
 _ZN7Akonadi18CollectionFetchJob16doHandleResponseERK10QByteArrayS3_@Base 4:4.3.4
 _ZN7Akonadi18CollectionFetchJob16staticMetaObjectE@Base 4:4.3.4
 _ZN7Akonadi18CollectionFetchJob17includeStatisticsEb@Base 4:4.3.4
 _ZN7Akonadi18CollectionFetchJob19collectionsReceivedERK5QListINS_10CollectionEE@Base 4:4.3.4
 _ZN7Akonadi18CollectionFetchJob19includeUnsubscribedEb@Base 4:4.3.4
 _ZN7Akonadi18CollectionFetchJob7doStartEv@Base 4:4.3.4
 _ZN7Akonadi18CollectionFetchJobC1ERK5QListINS_10CollectionEENS0_4TypeEP7QObject@Base 4:4.7.0
 _ZN7Akonadi18CollectionFetchJobC1ERK5QListINS_10CollectionEEP7QObject@Base 4:4.3.4
 _ZN7Akonadi18CollectionFetchJobC1ERK5QListIxENS0_4TypeEP7QObject@Base 4:4.8.1
 _ZN7Akonadi18CollectionFetchJobC1ERKNS_10CollectionENS0_4TypeEP7QObject@Base 4:4.3.4
 _ZN7Akonadi18CollectionFetchJobC2ERK5QListINS_10CollectionEENS0_4TypeEP7QObject@Base 4:4.7.0
 _ZN7Akonadi18CollectionFetchJobC2ERK5QListINS_10CollectionEEP7QObject@Base 4:4.3.4
 _ZN7Akonadi18CollectionFetchJobC2ERK5QListIxENS0_4TypeEP7QObject@Base 4:4.8.1
 _ZN7Akonadi18CollectionFetchJobC2ERKNS_10CollectionENS0_4TypeEP7QObject@Base 4:4.3.4
 _ZN7Akonadi18CollectionFetchJobD0Ev@Base 4:4.3.4
 _ZN7Akonadi18CollectionFetchJobD1Ev@Base 4:4.3.4
 _ZN7Akonadi18CollectionFetchJobD2Ev@Base 4:4.3.4
 _ZN7Akonadi18DBusConnectionPool16threadConnectionEv@Base 4:4.5.86
 _ZN7Akonadi18DefaultResourceJob10slotResultEP4KJob@Base 4:4.10.1
 _ZN7Akonadi18DefaultResourceJob11qt_metacallEN11QMetaObject4CallEiPPv@Base 4:4.10.1
 _ZN7Akonadi18DefaultResourceJob11qt_metacastEPKc@Base 4:4.10.1
 _ZN7Akonadi18DefaultResourceJob16staticMetaObjectE@Base 4:4.10.1
 _ZN7Akonadi18DefaultResourceJob17setIconForTypeMapERK4QMapI10QByteArray7QStringE@Base 4:4.10.1
 _ZN7Akonadi18DefaultResourceJob17setNameForTypeMapERK4QMapI10QByteArray7QStringE@Base 4:4.10.1
 _ZN7Akonadi18DefaultResourceJob22setDefaultResourceTypeERK7QString@Base 4:4.10.1
 _ZN7Akonadi18DefaultResourceJob25setDefaultResourceOptionsERK4QMapI7QString8QVariantE@Base 4:4.10.1
 _ZN7Akonadi18DefaultResourceJob7doStartEv@Base 4:4.10.1
 _ZN7Akonadi18DefaultResourceJob8setTypesERK5QListI10QByteArrayE@Base 4:4.10.1
 _ZN7Akonadi18DefaultResourceJobC1EP19KCoreConfigSkeletonP7QObject@Base 4:4.10.1
 _ZN7Akonadi18DefaultResourceJobC2EP19KCoreConfigSkeletonP7QObject@Base 4:4.10.1
 _ZN7Akonadi18DefaultResourceJobD0Ev@Base 4:4.10.1
 _ZN7Akonadi18DefaultResourceJobD1Ev@Base 4:4.10.1
 _ZN7Akonadi18DefaultResourceJobD2Ev@Base 4:4.10.1
 _ZN7Akonadi18SpecialCollections11qt_metacallEN11QMetaObject4CallEiPPv@Base 4:4.4.0
 _ZN7Akonadi18SpecialCollections11qt_metacastEPKc@Base 4:4.4.0
 _ZN7Akonadi18SpecialCollections16staticMetaObjectE@Base 4:4.4.0
 _ZN7Akonadi18SpecialCollections18collectionsChangedERKNS_13AgentInstanceE@Base 4:4.4.0
 _ZN7Akonadi18SpecialCollections18registerCollectionERK10QByteArrayRKNS_10CollectionE@Base 4:4.4.0
 _ZN7Akonadi18SpecialCollections25defaultCollectionsChangedEv@Base 4:4.4.0
 _ZN7Akonadi18SpecialCollectionsC1EP19KCoreConfigSkeletonP7QObject@Base 4:4.4.0
 _ZN7Akonadi18SpecialCollectionsC2EP19KCoreConfigSkeletonP7QObject@Base 4:4.4.0
 _ZN7Akonadi18SpecialCollectionsD0Ev@Base 4:4.4.0
 _ZN7Akonadi18SpecialCollectionsD1Ev@Base 4:4.4.0
 _ZN7Akonadi18SpecialCollectionsD2Ev@Base 4:4.4.0
 _ZN7Akonadi18SubscriptionDialog11qt_metacallEN11QMetaObject4CallEiPPv@Base 4:4.3.4
 _ZN7Akonadi18SubscriptionDialog11qt_metacastEPKc@Base 4:4.3.4
 _ZN7Akonadi18SubscriptionDialog16staticMetaObjectE@Base 4:4.3.4
 _ZN7Akonadi18SubscriptionDialog20showHiddenCollectionEb@Base 4:4.10.1
 _ZN7Akonadi18SubscriptionDialog4initERK11QStringList@Base 4:4.7.0
 _ZN7Akonadi18SubscriptionDialog7Private13slotSubscribeEv@Base 4:4.10.1
 _ZN7Akonadi18SubscriptionDialog7Private15slotUnSubscribeEv@Base 4:4.10.1
 _ZN7Akonadi18SubscriptionDialogC1EP7QWidget@Base 4:4.3.4
 _ZN7Akonadi18SubscriptionDialogC1ERK11QStringListP7QWidget@Base 4:4.7.0
 _ZN7Akonadi18SubscriptionDialogC2EP7QWidget@Base 4:4.3.4
 _ZN7Akonadi18SubscriptionDialogC2ERK11QStringListP7QWidget@Base 4:4.7.0
 _ZN7Akonadi18SubscriptionDialogD0Ev@Base 4:4.3.4
 _ZN7Akonadi18SubscriptionDialogD1Ev@Base 4:4.3.4
 _ZN7Akonadi18SubscriptionDialogD2Ev@Base 4:4.3.4
 _ZN7Akonadi19AgentInstanceWidget11qt_metacallEN11QMetaObject4CallEiPPv@Base 4:4.3.4
 _ZN7Akonadi19AgentInstanceWidget11qt_metacastEPKc@Base 4:4.3.4
 _ZN7Akonadi19AgentInstanceWidget13doubleClickedERKNS_13AgentInstanceE@Base 4:4.3.4
 _ZN7Akonadi19AgentInstanceWidget14currentChangedERKNS_13AgentInstanceES3_@Base 4:4.3.4
 _ZN7Akonadi19AgentInstanceWidget16staticMetaObjectE@Base 4:4.3.4
 _ZN7Akonadi19AgentInstanceWidget7Private27currentAgentInstanceChangedERK11QModelIndexS4_@Base 4:4.3.4
 _ZN7Akonadi19AgentInstanceWidget7Private27currentAgentInstanceClickedERK11QModelIndex@Base 4:4.10.1
 _ZN7Akonadi19AgentInstanceWidget7Private33currentAgentInstanceDoubleClickedERK11QModelIndex@Base 4:4.3.4
 _ZN7Akonadi19AgentInstanceWidget7clickedERKNS_13AgentInstanceE@Base 4:4.10.1
 _ZN7Akonadi19AgentInstanceWidgetC1EP7QWidget@Base 4:4.3.4
 _ZN7Akonadi19AgentInstanceWidgetC2EP7QWidget@Base 4:4.3.4
 _ZN7Akonadi19AgentInstanceWidgetD0Ev@Base 4:4.3.4
 _ZN7Akonadi19AgentInstanceWidgetD1Ev@Base 4:4.3.4
 _ZN7Akonadi19AgentInstanceWidgetD2Ev@Base 4:4.3.4
 _ZN7Akonadi19CollectionCreateJob11qt_metacallEN11QMetaObject4CallEiPPv@Base 4:4.3.4
 _ZN7Akonadi19CollectionCreateJob11qt_metacastEPKc@Base 4:4.3.4
 _ZN7Akonadi19CollectionCreateJob16doHandleResponseERK10QByteArrayS3_@Base 4:4.3.4
 _ZN7Akonadi19CollectionCreateJob16staticMetaObjectE@Base 4:4.3.4
 _ZN7Akonadi19CollectionCreateJob7doStartEv@Base 4:4.3.4
 _ZN7Akonadi19CollectionCreateJobC1ERKNS_10CollectionEP7QObject@Base 4:4.3.4
 _ZN7Akonadi19CollectionCreateJobC2ERKNS_10CollectionEP7QObject@Base 4:4.3.4
 _ZN7Akonadi19CollectionCreateJobD0Ev@Base 4:4.3.4
 _ZN7Akonadi19CollectionCreateJobD1Ev@Base 4:4.3.4
 _ZN7Akonadi19CollectionCreateJobD2Ev@Base 4:4.3.4
 _ZN7Akonadi19CollectionDeleteJob11qt_metacallEN11QMetaObject4CallEiPPv@Base 4:4.3.4
 _ZN7Akonadi19CollectionDeleteJob11qt_metacastEPKc@Base 4:4.3.4
 _ZN7Akonadi19CollectionDeleteJob16staticMetaObjectE@Base 4:4.3.4
 _ZN7Akonadi19CollectionDeleteJob7doStartEv@Base 4:4.3.4
 _ZN7Akonadi19CollectionDeleteJobC1ERKNS_10CollectionEP7QObject@Base 4:4.3.4
 _ZN7Akonadi19CollectionDeleteJobC2ERKNS_10CollectionEP7QObject@Base 4:4.3.4
 _ZN7Akonadi19CollectionDeleteJobD0Ev@Base 4:4.3.4
 _ZN7Akonadi19CollectionDeleteJobD1Ev@Base 4:4.3.4
 _ZN7Akonadi19CollectionDeleteJobD2Ev@Base 4:4.3.4
 _ZN7Akonadi19CollectionModifyJob11qt_metacallEN11QMetaObject4CallEiPPv@Base 4:4.3.4
 _ZN7Akonadi19CollectionModifyJob11qt_metacastEPKc@Base 4:4.3.4
 _ZN7Akonadi19CollectionModifyJob16staticMetaObjectE@Base 4:4.3.4
 _ZN7Akonadi19CollectionModifyJob7doStartEv@Base 4:4.3.4
 _ZN7Akonadi19CollectionModifyJobC1ERKNS_10CollectionEP7QObject@Base 4:4.3.4
 _ZN7Akonadi19CollectionModifyJobC2ERKNS_10CollectionEP7QObject@Base 4:4.3.4
 _ZN7Akonadi19CollectionModifyJobD0Ev@Base 4:4.3.4
 _ZN7Akonadi19CollectionModifyJobD1Ev@Base 4:4.3.4
 _ZN7Akonadi19CollectionModifyJobD2Ev@Base 4:4.3.4
 _ZN7Akonadi19CollectionRequester11qt_metacallEN11QMetaObject4CallEiPPv@Base 4:4.3.4
 _ZN7Akonadi19CollectionRequester11qt_metacastEPKc@Base 4:4.3.4
 _ZN7Akonadi19CollectionRequester13setCollectionERKNS_10CollectionE@Base 4:4.3.4
 _ZN7Akonadi19CollectionRequester16staticMetaObjectE@Base 4:4.3.4
 _ZN7Akonadi19CollectionRequester17collectionChangedERKNS_10CollectionE@Base 4:4.5.0
 _ZN7Akonadi19CollectionRequester17setMimeTypeFilterERK11QStringList@Base 4:4.3.4
 _ZN7Akonadi19CollectionRequester21setAccessRightsFilterE6QFlagsINS_10Collection5RightEE@Base 4:4.4.0
 _ZN7Akonadi19CollectionRequester29changeCollectionDialogOptionsE6QFlagsINS_16CollectionDialog22CollectionDialogOptionEE@Base 4:4.5.86
 _ZN7Akonadi19CollectionRequester7Private17_k_slotOpenDialogEv@Base 4:4.3.4
 _ZN7Akonadi19CollectionRequester7Private4initEv@Base 4:4.3.4
 _ZN7Akonadi19CollectionRequesterC1EP7QWidget@Base 4:4.3.4
 _ZN7Akonadi19CollectionRequesterC1ERKNS_10CollectionEP7QWidget@Base 4:4.3.4
 _ZN7Akonadi19CollectionRequesterC2EP7QWidget@Base 4:4.3.4
 _ZN7Akonadi19CollectionRequesterC2ERKNS_10CollectionEP7QWidget@Base 4:4.3.4
 _ZN7Akonadi19CollectionRequesterD0Ev@Base 4:4.3.4
 _ZN7Akonadi19CollectionRequesterD1Ev@Base 4:4.3.4
 _ZN7Akonadi19CollectionRequesterD2Ev@Base 4:4.3.4
 _ZN7Akonadi19CollectionSelectJob11qt_metacallEN11QMetaObject4CallEiPPv@Base 4:4.3.4
 _ZN7Akonadi19CollectionSelectJob11qt_metacastEPKc@Base 4:4.3.4
 _ZN7Akonadi19CollectionSelectJob16staticMetaObjectE@Base 4:4.3.4
 _ZN7Akonadi19CollectionSelectJob7doStartEv@Base 4:4.3.4
 _ZN7Akonadi19CollectionSelectJobC1ERKNS_10CollectionEP7QObject@Base 4:4.3.4
 _ZN7Akonadi19CollectionSelectJobC2ERKNS_10CollectionEP7QObject@Base 4:4.3.4
 _ZN7Akonadi19CollectionSelectJobD0Ev@Base 4:4.3.4
 _ZN7Akonadi19CollectionSelectJobD1Ev@Base 4:4.3.4
 _ZN7Akonadi19CollectionSelectJobD2Ev@Base 4:4.3.4
 _ZN7Akonadi19SelectionProxyModel11qt_metacallEN11QMetaObject4CallEiPPv@Base 4:4.4.0
 _ZN7Akonadi19SelectionProxyModel11qt_metacastEPKc@Base 4:4.4.0
 _ZN7Akonadi19SelectionProxyModel16staticMetaObjectE@Base 4:4.4.0
 _ZN7Akonadi19SelectionProxyModelC1EP19QItemSelectionModelP7QObject@Base 4:4.4.0
 _ZN7Akonadi19SelectionProxyModelC2EP19QItemSelectionModelP7QObject@Base 4:4.4.0
 _ZN7Akonadi19SelectionProxyModelD0Ev@Base 4:4.5.86
 _ZN7Akonadi19SelectionProxyModelD1Ev@Base 4:4.5.86
 _ZN7Akonadi19SelectionProxyModelD2Ev@Base 4:4.5.86
 _ZN7Akonadi19TransactionBeginJob11qt_metacallEN11QMetaObject4CallEiPPv@Base 4:4.3.4
 _ZN7Akonadi19TransactionBeginJob11qt_metacastEPKc@Base 4:4.3.4
 _ZN7Akonadi19TransactionBeginJob16staticMetaObjectE@Base 4:4.3.4
 _ZN7Akonadi19TransactionBeginJob7doStartEv@Base 4:4.3.4
 _ZN7Akonadi19TransactionBeginJobC1EP7QObject@Base 4:4.3.4
 _ZN7Akonadi19TransactionBeginJobC2EP7QObject@Base 4:4.3.4
 _ZN7Akonadi19TransactionBeginJobD0Ev@Base 4:4.3.4
 _ZN7Akonadi19TransactionBeginJobD1Ev@Base 4:4.3.4
 _ZN7Akonadi19TransactionBeginJobD2Ev@Base 4:4.3.4
 _ZN7Akonadi19TransactionSequence10slotResultEP4KJob@Base 4:4.3.4
 _ZN7Akonadi19TransactionSequence11qt_metacallEN11QMetaObject4CallEiPPv@Base 4:4.3.4
 _ZN7Akonadi19TransactionSequence11qt_metacastEPKc@Base 4:4.3.4
 _ZN7Akonadi19TransactionSequence16staticMetaObjectE@Base 4:4.3.4
 _ZN7Akonadi19TransactionSequence19setIgnoreJobFailureEP4KJob@Base 4:4.5.0
 _ZN7Akonadi19TransactionSequence29setAutomaticCommittingEnabledEb@Base 4:4.5.0
 _ZN7Akonadi19TransactionSequence6commitEv@Base 4:4.3.4
 _ZN7Akonadi19TransactionSequence7doStartEv@Base 4:4.3.4
 _ZN7Akonadi19TransactionSequence8rollbackEv@Base 4:4.5.0
 _ZN7Akonadi19TransactionSequence9addSubjobEP4KJob@Base 4:4.3.4
 _ZN7Akonadi19TransactionSequenceC1EP7QObject@Base 4:4.3.4
 _ZN7Akonadi19TransactionSequenceC2EP7QObject@Base 4:4.3.4
 _ZN7Akonadi19TransactionSequenceD0Ev@Base 4:4.3.4
 _ZN7Akonadi19TransactionSequenceD1Ev@Base 4:4.3.4
 _ZN7Akonadi19TransactionSequenceD2Ev@Base 4:4.3.4
 _ZN7Akonadi20AgentSearchInterfaceC1Ev@Base 4:4.5.0
 _ZN7Akonadi20AgentSearchInterfaceC2Ev@Base 4:4.5.0
 _ZN7Akonadi20AgentSearchInterfaceD0Ev@Base 4:4.5.0
 _ZN7Akonadi20AgentSearchInterfaceD1Ev@Base 4:4.5.0
 _ZN7Akonadi20AgentSearchInterfaceD2Ev@Base 4:4.5.0
 _ZN7Akonadi20CollectionFetchScope11setResourceERK7QString@Base 4:4.4.0
 _ZN7Akonadi20CollectionFetchScope19setContentMimeTypesERK11QStringList@Base 4:4.4.0
 _ZN7Akonadi20CollectionFetchScope20setAncestorRetrievalENS0_17AncestorRetrievalE@Base 4:4.4.0
 _ZN7Akonadi20CollectionFetchScope20setIncludeStatisticsEb@Base 4:4.4.0
 _ZN7Akonadi20CollectionFetchScope22setIncludeUnsubscribedEb@Base 4:4.4.0
 _ZN7Akonadi20CollectionFetchScopeC1ERKS0_@Base 4:4.4.0
 _ZN7Akonadi20CollectionFetchScopeC1Ev@Base 4:4.4.0
 _ZN7Akonadi20CollectionFetchScopeC2ERKS0_@Base 4:4.4.0
 _ZN7Akonadi20CollectionFetchScopeC2Ev@Base 4:4.4.0
 _ZN7Akonadi20CollectionFetchScopeD1Ev@Base 4:4.4.0
 _ZN7Akonadi20CollectionFetchScopeD2Ev@Base 4:4.4.0
 _ZN7Akonadi20CollectionFetchScopeaSERKS0_@Base 4:4.4.0
 _ZN7Akonadi20CollectionStatistics14setUnreadCountEx@Base 4:4.3.4
 _ZN7Akonadi20CollectionStatistics7setSizeEx@Base 4:4.3.4
 _ZN7Akonadi20CollectionStatistics8setCountEx@Base 4:4.3.4
 _ZN7Akonadi20CollectionStatisticsC1ERKS0_@Base 4:4.3.4
 _ZN7Akonadi20CollectionStatisticsC1Ev@Base 4:4.3.4
 _ZN7Akonadi20CollectionStatisticsC2ERKS0_@Base 4:4.3.4
 _ZN7Akonadi20CollectionStatisticsC2Ev@Base 4:4.3.4
 _ZN7Akonadi20CollectionStatisticsD1Ev@Base 4:4.3.4
 _ZN7Akonadi20CollectionStatisticsD2Ev@Base 4:4.3.4
 _ZN7Akonadi20CollectionStatisticsaSERKS0_@Base 4:4.3.4
 _ZN7Akonadi20IndexPolicyAttribute11deserializeERK10QByteArray@Base 4:4.5.86
 _ZN7Akonadi20IndexPolicyAttribute18setIndexingEnabledEb@Base 4:4.5.86
 _ZN7Akonadi20IndexPolicyAttributeC1Ev@Base 4:4.5.86
 _ZN7Akonadi20IndexPolicyAttributeC2Ev@Base 4:4.5.86
 _ZN7Akonadi20IndexPolicyAttributeD0Ev@Base 4:4.5.86
 _ZN7Akonadi20IndexPolicyAttributeD1Ev@Base 4:4.5.86
 _ZN7Akonadi20IndexPolicyAttributeD2Ev@Base 4:4.5.86
 _ZN7Akonadi20ItemSerializerPluginD0Ev@Base 4:4.3.4
 _ZN7Akonadi20ItemSerializerPluginD1Ev@Base 4:4.3.4
 _ZN7Akonadi20ItemSerializerPluginD2Ev@Base 4:4.3.4
 _ZN7Akonadi20ResourceBaseSettings4selfEv@Base 4:4.5.86
 _ZN7Akonadi20ResourceBaseSettingsC1Ev@Base 4:4.5.86
 _ZN7Akonadi20ResourceBaseSettingsC2Ev@Base 4:4.5.86
 _ZN7Akonadi20ResourceBaseSettingsD0Ev@Base 4:4.5.86
 _ZN7Akonadi20ResourceBaseSettingsD1Ev@Base 4:4.5.86
 _ZN7Akonadi20ResourceBaseSettingsD2Ev@Base 4:4.5.86
 _ZN7Akonadi20StatisticsProxyModel11qt_metacallEN11QMetaObject4CallEiPPv@Base 4:4.4.0
 _ZN7Akonadi20StatisticsProxyModel11qt_metacastEPKc@Base 4:4.4.0
 _ZN7Akonadi20StatisticsProxyModel13connectNotifyEPKc@Base 4:4.5.86
 _ZN7Akonadi20StatisticsProxyModel14setSourceModelEP18QAbstractItemModel@Base 4:4.5.86
 _ZN7Akonadi20StatisticsProxyModel16staticMetaObjectE@Base 4:4.4.0
 _ZN7Akonadi20StatisticsProxyModel17setToolTipEnabledEb@Base 4:4.4.0
 _ZN7Akonadi20StatisticsProxyModel22setExtraColumnsEnabledEb@Base 4:4.4.0
 _ZN7Akonadi20StatisticsProxyModel7Private16proxyDataChangedERK11QModelIndexS4_@Base 4:4.5.0
 _ZN7Akonadi20StatisticsProxyModel7Private19sourceLayoutChangedEv@Base 4:4.5.86
 _ZN7Akonadi20StatisticsProxyModel7Private28sourceLayoutAboutToBeChangedEv@Base 4:4.5.86
 _ZN7Akonadi20StatisticsProxyModelC1EP7QObject@Base 4:4.4.0
 _ZN7Akonadi20StatisticsProxyModelC2EP7QObject@Base 4:4.4.0
 _ZN7Akonadi20StatisticsProxyModelD0Ev@Base 4:4.4.0
 _ZN7Akonadi20StatisticsProxyModelD1Ev@Base 4:4.4.0
 _ZN7Akonadi20StatisticsProxyModelD2Ev@Base 4:4.4.0
 _ZN7Akonadi20TransactionCommitJob11qt_metacallEN11QMetaObject4CallEiPPv@Base 4:4.3.4
 _ZN7Akonadi20TransactionCommitJob11qt_metacastEPKc@Base 4:4.3.4
 _ZN7Akonadi20TransactionCommitJob16staticMetaObjectE@Base 4:4.3.4
 _ZN7Akonadi20TransactionCommitJob7doStartEv@Base 4:4.3.4
 _ZN7Akonadi20TransactionCommitJobC1EP7QObject@Base 4:4.3.4
 _ZN7Akonadi20TransactionCommitJobC2EP7QObject@Base 4:4.3.4
 _ZN7Akonadi20TransactionCommitJobD0Ev@Base 4:4.3.4
 _ZN7Akonadi20TransactionCommitJobD1Ev@Base 4:4.3.4
 _ZN7Akonadi20TransactionCommitJobD2Ev@Base 4:4.3.4
 _ZN7Akonadi21AgentFilterProxyModel11qt_metacallEN11QMetaObject4CallEiPPv@Base 4:4.3.4
 _ZN7Akonadi21AgentFilterProxyModel11qt_metacastEPKc@Base 4:4.3.4
 _ZN7Akonadi21AgentFilterProxyModel12clearFiltersEv@Base 4:4.3.4
 _ZN7Akonadi21AgentFilterProxyModel16staticMetaObjectE@Base 4:4.3.4
 _ZN7Akonadi21AgentFilterProxyModel17addMimeTypeFilterERK7QString@Base 4:4.3.4
 _ZN7Akonadi21AgentFilterProxyModel19addCapabilityFilterERK7QString@Base 4:4.3.4
 _ZN7Akonadi21AgentFilterProxyModel19excludeCapabilitiesERK7QString@Base 4:4.5.86
 _ZN7Akonadi21AgentFilterProxyModelC1EP7QObject@Base 4:4.3.4
 _ZN7Akonadi21AgentFilterProxyModelC2EP7QObject@Base 4:4.3.4
 _ZN7Akonadi21AgentFilterProxyModelD0Ev@Base 4:4.3.4
 _ZN7Akonadi21AgentFilterProxyModelD1Ev@Base 4:4.3.4
 _ZN7Akonadi21AgentFilterProxyModelD2Ev@Base 4:4.3.4
 _ZN7Akonadi21ChangeRecorderPrivate10slotNotifyERK5QListINS_19NotificationMessageEE@Base 4:4.10.1
 _ZN7Akonadi21ChangeRecorderPrivate11addToStreamER11QDataStreamRKNS_19NotificationMessageE@Base 4:4.10.1
 _ZN7Akonadi21ChangeRecorderPrivate16emitNotificationERKNS_19NotificationMessageE@Base 4:4.10.1
 _ZN7Akonadi21ChangeRecorderPrivate16writeStartOffsetEv@Base 4:4.10.1
 _ZN7Akonadi21ChangeRecorderPrivate17loadNotificationsEv@Base 4:4.10.1
 _ZN7Akonadi21ChangeRecorderPrivate17saveNotificationsEv@Base 4:4.10.1
 _ZN7Akonadi21ChangeRecorderPrivate19dequeueNotificationEv@Base 4:4.10.1
 _ZN7Akonadi21ChangeRecorderPrivate19notificationsErasedEv@Base 4:4.10.1
 _ZN7Akonadi21ChangeRecorderPrivate19notificationsLoadedEv@Base 4:4.10.1
 _ZN7Akonadi21ChangeRecorderPrivate21notificationsEnqueuedEi@Base 4:4.10.1
 _ZN7Akonadi21ChangeRecorderPrivate6saveToEP9QIODevice@Base 4:4.10.1
 _ZN7Akonadi21ChangeRecorderPrivate8loadFromEP9QIODevice@Base 4:4.10.1
 _ZN7Akonadi21ChangeRecorderPrivateC1EPNS_37ChangeNotificationDependenciesFactoryEPNS_14ChangeRecorderE@Base 4:4.10.1
 _ZN7Akonadi21ChangeRecorderPrivateC2EPNS_37ChangeNotificationDependenciesFactoryEPNS_14ChangeRecorderE@Base 4:4.10.1
 _ZN7Akonadi21ChangeRecorderPrivateD0Ev@Base 4:4.10.1
 _ZN7Akonadi21ChangeRecorderPrivateD1Ev@Base 4:4.10.1
 _ZN7Akonadi21ChangeRecorderPrivateD2Ev@Base 4:4.10.1
 _ZN7Akonadi21EntityHiddenAttribute11deserializeERK10QByteArray@Base 4:4.4.0
 _ZN7Akonadi21EntityHiddenAttributeC1Ev@Base 4:4.4.0
 _ZN7Akonadi21EntityHiddenAttributeC2Ev@Base 4:4.4.0
 _ZN7Akonadi21EntityHiddenAttributeD0Ev@Base 4:4.4.0
 _ZN7Akonadi21EntityHiddenAttributeD1Ev@Base 4:4.4.0
 _ZN7Akonadi21EntityHiddenAttributeD2Ev@Base 4:4.4.0
 _ZN7Akonadi21EntityOrderProxyModel10clearOrderERK11QModelIndex@Base 4:4.5.86
 _ZN7Akonadi21EntityOrderProxyModel11qt_metacallEN11QMetaObject4CallEiPPv@Base 4:4.5.86
 _ZN7Akonadi21EntityOrderProxyModel11qt_metacastEPKc@Base 4:4.5.86
 _ZN7Akonadi21EntityOrderProxyModel12dropMimeDataEPK9QMimeDataN2Qt10DropActionEiiRK11QModelIndex@Base 4:4.5.86
 _ZN7Akonadi21EntityOrderProxyModel14clearTreeOrderEv@Base 4:4.5.86
 _ZN7Akonadi21EntityOrderProxyModel14setOrderConfigER12KConfigGroup@Base 4:4.5.86
 _ZN7Akonadi21EntityOrderProxyModel16staticMetaObjectE@Base 4:4.5.86
 _ZN7Akonadi21EntityOrderProxyModel9saveOrderEv@Base 4:4.5.86
 _ZN7Akonadi21EntityOrderProxyModelC1EP7QObject@Base 4:4.5.86
 _ZN7Akonadi21EntityOrderProxyModelC2EP7QObject@Base 4:4.5.86
 _ZN7Akonadi21EntityOrderProxyModelD0Ev@Base 4:4.5.86
 _ZN7Akonadi21EntityOrderProxyModelD1Ev@Base 4:4.5.86
 _ZN7Akonadi21EntityOrderProxyModelD2Ev@Base 4:4.5.86
 _ZN7Akonadi21RecursiveItemFetchJob10fetchScopeEv@Base 4:4.5.86
 _ZN7Akonadi21RecursiveItemFetchJob11qt_metacallEN11QMetaObject4CallEiPPv@Base 4:4.5.86
 _ZN7Akonadi21RecursiveItemFetchJob11qt_metacastEPKc@Base 4:4.5.86
 _ZN7Akonadi21RecursiveItemFetchJob13setFetchScopeERKNS_14ItemFetchScopeE@Base 4:4.5.86
 _ZN7Akonadi21RecursiveItemFetchJob16staticMetaObjectE@Base 4:4.5.86
 _ZN7Akonadi21RecursiveItemFetchJob5startEv@Base 4:4.5.86
 _ZN7Akonadi21RecursiveItemFetchJobC1ERKNS_10CollectionERK11QStringListP7QObject@Base 4:4.5.86
 _ZN7Akonadi21RecursiveItemFetchJobC2ERKNS_10CollectionERK11QStringListP7QObject@Base 4:4.5.86
 _ZN7Akonadi21RecursiveItemFetchJobD0Ev@Base 4:4.5.86
 _ZN7Akonadi21RecursiveItemFetchJobD1Ev@Base 4:4.5.86
 _ZN7Akonadi21RecursiveItemFetchJobD2Ev@Base 4:4.5.86
 _ZN7Akonadi21StandardActionManager11qt_metacallEN11QMetaObject4CallEiPPv@Base 4:4.3.4
 _ZN7Akonadi21StandardActionManager11qt_metacastEPKc@Base 4:4.3.4
 _ZN7Akonadi21StandardActionManager12createActionENS0_4TypeE@Base 4:4.3.4
 _ZN7Akonadi21StandardActionManager13setActionTextENS0_4TypeERK16KLocalizedString@Base 4:4.3.4
 _ZN7Akonadi21StandardActionManager14setContextTextENS0_4TypeENS0_11TextContextERK16KLocalizedString@Base 4:4.5.86
 _ZN7Akonadi21StandardActionManager14setContextTextENS0_4TypeENS0_11TextContextERK7QString@Base 4:4.5.86
 _ZN7Akonadi21StandardActionManager15interceptActionENS0_4TypeEb@Base 4:4.5.86
 _ZN7Akonadi21StandardActionManager16createAllActionsEv@Base 4:4.3.4
 _ZN7Akonadi21StandardActionManager16staticMetaObjectE@Base 4:4.3.4
 _ZN7Akonadi21StandardActionManager17setMimeTypeFilterERK11QStringList@Base 4:4.5.86
 _ZN7Akonadi21StandardActionManager18actionStateUpdatedEv@Base 4:4.3.4
 _ZN7Akonadi21StandardActionManager19setCapabilityFilterERK11QStringList@Base 4:4.5.86
 _ZN7Akonadi21StandardActionManager21setItemSelectionModelEP19QItemSelectionModel@Base 4:4.3.4
 _ZN7Akonadi21StandardActionManager22createActionFolderMenuEP5QMenuNS0_4TypeE@Base 4:4.8.1
 _ZN7Akonadi21StandardActionManager25setFavoriteSelectionModelEP19QItemSelectionModel@Base 4:4.4.0
 _ZN7Akonadi21StandardActionManager27setCollectionSelectionModelEP19QItemSelectionModel@Base 4:4.3.4
 _ZN7Akonadi21StandardActionManager27setFavoriteCollectionsModelEPNS_24FavoriteCollectionsModelE@Base 4:4.4.0
 _ZN7Akonadi21StandardActionManager32setCollectionPropertiesPageNamesERK11QStringList@Base 4:4.5.86
 _ZN7Akonadi21StandardActionManager7Private16ContextTextEntryD1Ev@Base 4:4.6.5
 _ZN7Akonadi21StandardActionManager7Private16ContextTextEntryD2Ev@Base 4:4.6.5
 _ZN7Akonadi21StandardActionManager7PrivateD1Ev@Base 4:4.7.4
 _ZN7Akonadi21StandardActionManager7PrivateD2Ev@Base 4:4.7.4
 _ZN7Akonadi21StandardActionManagerC1EP17KActionCollectionP7QWidget@Base 4:4.3.4
 _ZN7Akonadi21StandardActionManagerC2EP17KActionCollectionP7QWidget@Base 4:4.3.4
 _ZN7Akonadi21StandardActionManagerD0Ev@Base 4:4.3.4
 _ZN7Akonadi21StandardActionManagerD1Ev@Base 4:4.3.4
 _ZN7Akonadi21StandardActionManagerD2Ev@Base 4:4.3.4
 _ZN7Akonadi21TransportResourceBase8itemSentERKNS_4ItemENS0_15TransportResultERK7QString@Base 4:4.4.0
 _ZN7Akonadi21TransportResourceBaseC1Ev@Base 4:4.4.0
 _ZN7Akonadi21TransportResourceBaseC2Ev@Base 4:4.4.0
 _ZN7Akonadi21TransportResourceBaseD0Ev@Base 4:4.4.0
 _ZN7Akonadi21TransportResourceBaseD1Ev@Base 4:4.4.0
 _ZN7Akonadi21TransportResourceBaseD2Ev@Base 4:4.4.0
 _ZN7Akonadi21TrashFilterProxyModel11qt_metacallEN11QMetaObject4CallEiPPv@Base 4:4.8.1
 _ZN7Akonadi21TrashFilterProxyModel11qt_metacastEPKc@Base 4:4.8.1
 _ZN7Akonadi21TrashFilterProxyModel16staticMetaObjectE@Base 4:4.8.1
 _ZN7Akonadi21TrashFilterProxyModel9showTrashEb@Base 4:4.8.1
 _ZN7Akonadi21TrashFilterProxyModelC1EP7QObject@Base 4:4.8.1
 _ZN7Akonadi21TrashFilterProxyModelC2EP7QObject@Base 4:4.8.1
 _ZN7Akonadi21TrashFilterProxyModelD0Ev@Base 4:4.8.1
 _ZN7Akonadi21TrashFilterProxyModelD1Ev@Base 4:4.8.1
 _ZN7Akonadi21TrashFilterProxyModelD2Ev@Base 4:4.8.1
 _ZN7Akonadi22AgentInstanceCreateJob11qt_metacallEN11QMetaObject4CallEiPPv@Base 4:4.3.4
 _ZN7Akonadi22AgentInstanceCreateJob11qt_metacastEPKc@Base 4:4.3.4
 _ZN7Akonadi22AgentInstanceCreateJob16staticMetaObjectE@Base 4:4.3.4
 _ZN7Akonadi22AgentInstanceCreateJob5startEv@Base 4:4.3.4
 _ZN7Akonadi22AgentInstanceCreateJob9configureEP7QWidget@Base 4:4.3.4
 _ZN7Akonadi22AgentInstanceCreateJobC1ERK7QStringP7QObject@Base 4:4.5.0
 _ZN7Akonadi22AgentInstanceCreateJobC1ERKNS_9AgentTypeEP7QObject@Base 4:4.3.4
 _ZN7Akonadi22AgentInstanceCreateJobC2ERK7QStringP7QObject@Base 4:4.5.0
 _ZN7Akonadi22AgentInstanceCreateJobC2ERKNS_9AgentTypeEP7QObject@Base 4:4.3.4
 _ZN7Akonadi22AgentInstanceCreateJobD0Ev@Base 4:4.3.4
 _ZN7Akonadi22AgentInstanceCreateJobD1Ev@Base 4:4.3.4
 _ZN7Akonadi22AgentInstanceCreateJobD2Ev@Base 4:4.3.4
 _ZN7Akonadi22CollectionPathResolver11qt_metacallEN11QMetaObject4CallEiPPv@Base 4:4.3.4
 _ZN7Akonadi22CollectionPathResolver11qt_metacastEPKc@Base 4:4.3.4
 _ZN7Akonadi22CollectionPathResolver13pathDelimiterEv@Base 4:4.3.4
 _ZN7Akonadi22CollectionPathResolver16staticMetaObjectE@Base 4:4.3.4
 _ZN7Akonadi22CollectionPathResolver7doStartEv@Base 4:4.3.4
 _ZN7Akonadi22CollectionPathResolverC1ERK7QStringP7QObject@Base 4:4.3.4
 _ZN7Akonadi22CollectionPathResolverC1ERKNS_10CollectionEP7QObject@Base 4:4.3.4
 _ZN7Akonadi22CollectionPathResolverC2ERK7QStringP7QObject@Base 4:4.3.4
 _ZN7Akonadi22CollectionPathResolverC2ERKNS_10CollectionEP7QObject@Base 4:4.3.4
 _ZN7Akonadi22CollectionPathResolverD0Ev@Base 4:4.3.4
 _ZN7Akonadi22CollectionPathResolverD1Ev@Base 4:4.3.4
 _ZN7Akonadi22CollectionPathResolverD2Ev@Base 4:4.3.4
 _ZN7Akonadi22EntityDeletedAttribute11deserializeERK10QByteArray@Base 4:4.8.1
 _ZN7Akonadi22EntityDeletedAttribute20setRestoreCollectionERKNS_10CollectionE@Base 4:4.8.1
 _ZN7Akonadi22EntityDeletedAttributeC1Ev@Base 4:4.8.1
 _ZN7Akonadi22EntityDeletedAttributeC2Ev@Base 4:4.8.1
 _ZN7Akonadi22EntityDeletedAttributeD0Ev@Base 4:4.8.1
 _ZN7Akonadi22EntityDeletedAttributeD1Ev@Base 4:4.8.1
 _ZN7Akonadi22EntityDeletedAttributeD2Ev@Base 4:4.8.1
 _ZN7Akonadi22EntityDisplayAttribute11deserializeERK10QByteArray@Base 4:4.3.4
 _ZN7Akonadi22EntityDisplayAttribute11setIconNameERK7QString@Base 4:4.3.4
 _ZN7Akonadi22EntityDisplayAttribute14setDisplayNameERK7QString@Base 4:4.3.4
 _ZN7Akonadi22EntityDisplayAttribute17setActiveIconNameERK7QString@Base 4:4.4.0
 _ZN7Akonadi22EntityDisplayAttribute18setBackgroundColorERK6QColor@Base 4:4.4.0
 _ZN7Akonadi22EntityDisplayAttributeC1Ev@Base 4:4.3.4
 _ZN7Akonadi22EntityDisplayAttributeC2Ev@Base 4:4.3.4
 _ZN7Akonadi22EntityDisplayAttributeD0Ev@Base 4:4.3.4
 _ZN7Akonadi22EntityDisplayAttributeD1Ev@Base 4:4.3.4
 _ZN7Akonadi22EntityDisplayAttributeD2Ev@Base 4:4.3.4
 _ZN7Akonadi22EntityTreeModelPrivate10fetchItemsERKNS_10CollectionE@Base 4:4.10.1
 _ZN7Akonadi22EntityTreeModelPrivate10purgeItemsEx@Base 4:4.10.1
 _ZN7Akonadi22EntityTreeModelPrivate11dataChangedERK11QModelIndexS3_@Base 4:4.10.1
 _ZN7Akonadi22EntityTreeModelPrivate11removeItemsEN5QListIP4NodeE8iteratorES5_PiRKNS_10CollectionE@Base 4:4.10.1
 _ZN7Akonadi22EntityTreeModelPrivate11shouldPurgeEx@Base 4:4.10.1
 _ZN7Akonadi22EntityTreeModelPrivate12fetchJobDoneEP4KJob@Base 4:4.10.1
 _ZN7Akonadi22EntityTreeModelPrivate12itemsFetchedEP4KJob@Base 4:4.10.1
 _ZN7Akonadi22EntityTreeModelPrivate12itemsFetchedERK5QListINS_4ItemEE@Base 4:4.10.1
 _ZN7Akonadi22EntityTreeModelPrivate12itemsFetchedExRK5QListINS_4ItemEE@Base 4:4.10.1
 _ZN7Akonadi22EntityTreeModelPrivate12pasteJobDoneEP4KJob@Base 4:4.10.1
 _ZN7Akonadi22EntityTreeModelPrivate13endResetModelEv@Base 4:4.10.1
 _ZN7Akonadi22EntityTreeModelPrivate13serverStartedEv@Base 4:4.10.1
 _ZN7Akonadi22EntityTreeModelPrivate13updateJobDoneEP4KJob@Base 4:4.10.1
 _ZN7Akonadi22EntityTreeModelPrivate15beginResetModelEv@Base 4:4.10.1
 _ZN7Akonadi22EntityTreeModelPrivate15skipCollectionsEN5QListIP4NodeE8iteratorES5_Pi@Base 4:4.10.1
 _ZN7Akonadi22EntityTreeModelPrivate16ancestorsFetchedERK5QListINS_10CollectionEE@Base 4:4.10.1
 _ZN7Akonadi22EntityTreeModelPrivate16changeFetchStateERKNS_10CollectionE@Base 4:4.10.1
 _ZN7Akonadi22EntityTreeModelPrivate16fetchCollectionsERKNS_10CollectionENS_18CollectionFetchJob4TypeENS0_12ListingOrderE@Base 4:4.10.1
 _ZN7Akonadi22EntityTreeModelPrivate16insertCollectionERKNS_10CollectionES3_@Base 4:4.10.1
 _ZN7Akonadi22EntityTreeModelPrivate16rootFetchJobDoneEP4KJob@Base 4:4.10.1
 _ZN7Akonadi22EntityTreeModelPrivate17firstFetchJobDoneEP4KJob@Base 4:4.10.1
 _ZN7Akonadi22EntityTreeModelPrivate17retrieveAncestorsERKNS_10CollectionE@Base 4:4.10.1
 _ZN7Akonadi22EntityTreeModelPrivate17startFirstListJobEv@Base 4:4.10.1
 _ZN7Akonadi22EntityTreeModelPrivate18collectionsFetchedERK5QListINS_10CollectionEE@Base 4:4.10.1
 _ZN7Akonadi22EntityTreeModelPrivate18monitoredItemAddedERKNS_4ItemERKNS_10CollectionE@Base 4:4.10.1
 _ZN7Akonadi22EntityTreeModelPrivate18monitoredItemMovedERKNS_4ItemERKNS_10CollectionES6_@Base 4:4.10.1
 _ZN7Akonadi22EntityTreeModelPrivate19monitoredItemLinkedERKNS_4ItemERKNS_10CollectionE@Base 4:4.10.1
 _ZN7Akonadi22EntityTreeModelPrivate19removeChildEntitiesEx@Base 4:4.10.1
 _ZN7Akonadi22EntityTreeModelPrivate20agentInstanceRemovedERKNS_13AgentInstanceE@Base 4:4.10.1
 _ZN7Akonadi22EntityTreeModelPrivate20collectionSubscribedERKNS_10CollectionES3_@Base 4:4.10.1
 _ZN7Akonadi22EntityTreeModelPrivate20monitoredItemChangedERKNS_4ItemERK4QSetI10QByteArrayE@Base 4:4.10.1
 _ZN7Akonadi22EntityTreeModelPrivate20monitoredItemRemovedERKNS_4ItemE@Base 4:4.10.1
 _ZN7Akonadi22EntityTreeModelPrivate21allCollectionsFetchedERK5QListINS_10CollectionEE@Base 4:4.10.1
 _ZN7Akonadi22EntityTreeModelPrivate21collectionListFetchedERK5QListINS_10CollectionEE@Base 4:4.10.1
 _ZN7Akonadi22EntityTreeModelPrivate21monitoredItemUnlinkedERKNS_4ItemERKNS_10CollectionE@Base 4:4.10.1
 _ZN7Akonadi22EntityTreeModelPrivate21monitoredItemsChangedERKNS_4ItemEb@Base 4:4.10.1
 _ZN7Akonadi22EntityTreeModelPrivate23firstCollectionsFetchedERK5QListINS_10CollectionEE@Base 4:4.10.1
 _ZN7Akonadi22EntityTreeModelPrivate23monitoredItemsRetrievedEP4KJob@Base 4:4.10.1
 _ZN7Akonadi22EntityTreeModelPrivate24monitoredCollectionAddedERKNS_10CollectionES3_@Base 4:4.10.1
 _ZN7Akonadi22EntityTreeModelPrivate24monitoredCollectionMovedERKNS_10CollectionES3_S3_@Base 4:4.10.1
 _ZN7Akonadi22EntityTreeModelPrivate24monitoredMimeTypeChangedERK7QStringb@Base 4:4.10.1
 _ZN7Akonadi22EntityTreeModelPrivate25monitoredResourcesChangedERK10QByteArrayb@Base 4:4.10.1
 _ZN7Akonadi22EntityTreeModelPrivate26monitoredCollectionChangedERKNS_10CollectionE@Base 4:4.10.1
 _ZN7Akonadi22EntityTreeModelPrivate26monitoredCollectionRemovedERKNS_10CollectionE@Base 4:4.10.1
 _ZN7Akonadi22EntityTreeModelPrivate26topLevelCollectionsFetchedERK5QListINS_10CollectionEE@Base 4:4.10.1
 _ZN7Akonadi22EntityTreeModelPrivate27monitoredCollectionsChangedERKNS_10CollectionEb@Base 4:4.10.1
 _ZN7Akonadi22EntityTreeModelPrivate31monitoredCollectionUnsubscribedERKNS_10CollectionE@Base 4:4.10.1
 _ZN7Akonadi22EntityTreeModelPrivate34agentInstanceAdvancedStatusChangedERK7QStringRK4QMapIS1_8QVariantE@Base 4:4.10.1
 _ZN7Akonadi22EntityTreeModelPrivate36monitoredCollectionStatisticsChangedExRKNS_20CollectionStatisticsE@Base 4:4.10.1
 _ZN7Akonadi22EntityTreeModelPrivate3refEx@Base 4:4.10.1
 _ZN7Akonadi22EntityTreeModelPrivate4initEPNS_14ChangeRecorderE@Base 4:4.10.1
 _ZN7Akonadi22EntityTreeModelPrivate5derefEx@Base 4:4.10.1
 _ZN7Akonadi22EntityTreeModelPrivate9fillModelEv@Base 4:4.10.1
 _ZN7Akonadi22EntityTreeModelPrivateC1EPNS_15EntityTreeModelE@Base 4:4.10.1
 _ZN7Akonadi22EntityTreeModelPrivateC2EPNS_15EntityTreeModelE@Base 4:4.10.1
 _ZN7Akonadi22EntityTreeModelPrivateD1Ev@Base 4:4.10.1
 _ZN7Akonadi22EntityTreeModelPrivateD2Ev@Base 4:4.10.1
 _ZN7Akonadi22ItemSerializerPluginV25applyERNS_4ItemERKS1_@Base 4:4.4.0
 _ZN7Akonadi22ItemSerializerPluginV2D0Ev@Base 4:4.4.0
 _ZN7Akonadi22ItemSerializerPluginV2D1Ev@Base 4:4.4.0
 _ZN7Akonadi22ItemSerializerPluginV2D2Ev@Base 4:4.4.0
 _ZN7Akonadi22TransactionRollbackJob11qt_metacallEN11QMetaObject4CallEiPPv@Base 4:4.3.4
 _ZN7Akonadi22TransactionRollbackJob11qt_metacastEPKc@Base 4:4.3.4
 _ZN7Akonadi22TransactionRollbackJob16staticMetaObjectE@Base 4:4.3.4
 _ZN7Akonadi22TransactionRollbackJob7doStartEv@Base 4:4.3.4
 _ZN7Akonadi22TransactionRollbackJobC1EP7QObject@Base 4:4.3.4
 _ZN7Akonadi22TransactionRollbackJobC2EP7QObject@Base 4:4.3.4
 _ZN7Akonadi22TransactionRollbackJobD0Ev@Base 4:4.3.4
 _ZN7Akonadi22TransactionRollbackJobD1Ev@Base 4:4.3.4
 _ZN7Akonadi22TransactionRollbackJobD2Ev@Base 4:4.3.4
 _ZN7Akonadi23CollectionStatisticsJob11qt_metacallEN11QMetaObject4CallEiPPv@Base 4:4.3.4
 _ZN7Akonadi23CollectionStatisticsJob11qt_metacastEPKc@Base 4:4.3.4
 _ZN7Akonadi23CollectionStatisticsJob16doHandleResponseERK10QByteArrayS3_@Base 4:4.3.4
 _ZN7Akonadi23CollectionStatisticsJob16staticMetaObjectE@Base 4:4.3.4
 _ZN7Akonadi23CollectionStatisticsJob7doStartEv@Base 4:4.3.4
 _ZN7Akonadi23CollectionStatisticsJobC1ERKNS_10CollectionEP7QObject@Base 4:4.3.4
 _ZN7Akonadi23CollectionStatisticsJobC2ERKNS_10CollectionEP7QObject@Base 4:4.3.4
 _ZN7Akonadi23CollectionStatisticsJobD0Ev@Base 4:4.3.4
 _ZN7Akonadi23CollectionStatisticsJobD1Ev@Base 4:4.3.4
 _ZN7Akonadi23CollectionStatisticsJobD2Ev@Base 4:4.3.4
 _ZN7Akonadi23EntityRightsFilterModel11qt_metacallEN11QMetaObject4CallEiPPv@Base 4:4.5.86
 _ZN7Akonadi23EntityRightsFilterModel11qt_metacastEPKc@Base 4:4.5.86
 _ZN7Akonadi23EntityRightsFilterModel15setAccessRightsE6QFlagsINS_10Collection5RightEE@Base 4:4.5.86
 _ZN7Akonadi23EntityRightsFilterModel16staticMetaObjectE@Base 4:4.5.86
 _ZN7Akonadi23EntityRightsFilterModelC1EP7QObject@Base 4:4.5.86
 _ZN7Akonadi23EntityRightsFilterModelC2EP7QObject@Base 4:4.5.86
 _ZN7Akonadi23EntityRightsFilterModelD0Ev@Base 4:4.5.86
 _ZN7Akonadi23EntityRightsFilterModelD1Ev@Base 4:4.5.86
 _ZN7Akonadi23EntityRightsFilterModelD2Ev@Base 4:4.5.86
 _ZN7Akonadi24CollectionPropertiesPage11qt_metacallEN11QMetaObject4CallEiPPv@Base 4:4.3.4
 _ZN7Akonadi24CollectionPropertiesPage11qt_metacastEPKc@Base 4:4.3.4
 _ZN7Akonadi24CollectionPropertiesPage12setPageTitleERK7QString@Base 4:4.3.4
 _ZN7Akonadi24CollectionPropertiesPage16staticMetaObjectE@Base 4:4.3.4
 _ZN7Akonadi24CollectionPropertiesPageC1EP7QWidget@Base 4:4.3.4
 _ZN7Akonadi24CollectionPropertiesPageC2EP7QWidget@Base 4:4.3.4
 _ZN7Akonadi24CollectionPropertiesPageD0Ev@Base 4:4.3.4
 _ZN7Akonadi24CollectionPropertiesPageD1Ev@Base 4:4.3.4
 _ZN7Akonadi24CollectionPropertiesPageD2Ev@Base 4:4.3.4
 _ZN7Akonadi24CollectionQuotaAttribute11deserializeERK10QByteArray@Base 4:4.4.0
 _ZN7Akonadi24CollectionQuotaAttribute15setCurrentValueEx@Base 4:4.4.0
 _ZN7Akonadi24CollectionQuotaAttribute15setMaximumValueEx@Base 4:4.4.0
 _ZN7Akonadi24CollectionQuotaAttributeC1Ev@Base 4:4.4.0
 _ZN7Akonadi24CollectionQuotaAttributeC1Exx@Base 4:4.4.0
 _ZN7Akonadi24CollectionQuotaAttributeC2Ev@Base 4:4.4.0
 _ZN7Akonadi24CollectionQuotaAttributeC2Exx@Base 4:4.4.0
 _ZN7Akonadi24CollectionQuotaAttributeD0Ev@Base 4:4.4.0
 _ZN7Akonadi24CollectionQuotaAttributeD1Ev@Base 4:4.4.0
 _ZN7Akonadi24CollectionQuotaAttributeD2Ev@Base 4:4.4.0
 _ZN7Akonadi24EntityTreeViewStateSaver11qt_metacallEN11QMetaObject4CallEiPPv@Base 4:4.4.0
 _ZN7Akonadi24EntityTreeViewStateSaver11qt_metacastEPKc@Base 4:4.4.0
 _ZN7Akonadi24EntityTreeViewStateSaver16staticMetaObjectE@Base 4:4.4.0
 _ZN7Akonadi24EntityTreeViewStateSaverC1EP9QTreeView@Base 4:4.4.0
 _ZN7Akonadi24EntityTreeViewStateSaverC2EP9QTreeView@Base 4:4.4.0
 _ZN7Akonadi24EntityTreeViewStateSaverD0Ev@Base 4:4.4.0
 _ZN7Akonadi24EntityTreeViewStateSaverD1Ev@Base 4:4.4.0
 _ZN7Akonadi24EntityTreeViewStateSaverD2Ev@Base 4:4.4.0
 _ZN7Akonadi24FavoriteCollectionsModel11qt_metacallEN11QMetaObject4CallEiPPv@Base 4:4.4.0
 _ZN7Akonadi24FavoriteCollectionsModel11qt_metacastEPKc@Base 4:4.4.0
 _ZN7Akonadi24FavoriteCollectionsModel12dropMimeDataEPK9QMimeDataN2Qt10DropActionEiiRK11QModelIndex@Base 4:4.5.90
 _ZN7Akonadi24FavoriteCollectionsModel12pasteJobDoneEP4KJob@Base 4:4.7.0
 _ZN7Akonadi24FavoriteCollectionsModel13addCollectionERKNS_10CollectionE@Base 4:4.4.0
 _ZN7Akonadi24FavoriteCollectionsModel13favoriteLabelERKNS_10CollectionE@Base 4:4.4.0
 _ZN7Akonadi24FavoriteCollectionsModel14setCollectionsERK5QListINS_10CollectionEE@Base 4:4.4.0
 _ZN7Akonadi24FavoriteCollectionsModel16removeCollectionERKNS_10CollectionE@Base 4:4.4.0
 _ZN7Akonadi24FavoriteCollectionsModel16setFavoriteLabelERKNS_10CollectionERK7QString@Base 4:4.4.0
 _ZN7Akonadi24FavoriteCollectionsModel16staticMetaObjectE@Base 4:4.4.0
 _ZN7Akonadi24FavoriteCollectionsModel7setDataERK11QModelIndexRK8QVarianti@Base 4:4.5.90
 _ZN7Akonadi24FavoriteCollectionsModelC1EP18QAbstractItemModelRK12KConfigGroupP7QObject@Base 4:4.4.0
 _ZN7Akonadi24FavoriteCollectionsModelC2EP18QAbstractItemModelRK12KConfigGroupP7QObject@Base 4:4.4.0
 _ZN7Akonadi24FavoriteCollectionsModelD0Ev@Base 4:4.4.0
 _ZN7Akonadi24FavoriteCollectionsModelD1Ev@Base 4:4.4.0
 _ZN7Akonadi24FavoriteCollectionsModelD2Ev@Base 4:4.4.0
 _ZN7Akonadi25CollectionRightsAttribute11deserializeERK10QByteArray@Base 4:4.3.4
 _ZN7Akonadi25CollectionRightsAttribute9setRightsE6QFlagsINS_10Collection5RightEE@Base 4:4.3.4
 _ZN7Akonadi25CollectionRightsAttributeC1Ev@Base 4:4.3.4
 _ZN7Akonadi25CollectionRightsAttributeC2Ev@Base 4:4.3.4
 _ZN7Akonadi25CollectionRightsAttributeD0Ev@Base 4:4.3.4
 _ZN7Akonadi25CollectionRightsAttributeD1Ev@Base 4:4.3.4
 _ZN7Akonadi25CollectionRightsAttributeD2Ev@Base 4:4.3.4
 _ZN7Akonadi25CollectionStatisticsModel11qt_metacallEN11QMetaObject4CallEiPPv@Base 4:4.3.4
 _ZN7Akonadi25CollectionStatisticsModel11qt_metacastEPKc@Base 4:4.3.4
 _ZN7Akonadi25CollectionStatisticsModel16staticMetaObjectE@Base 4:4.3.4
 _ZN7Akonadi25CollectionStatisticsModelC1EP7QObject@Base 4:4.3.4
 _ZN7Akonadi25CollectionStatisticsModelC2EP7QObject@Base 4:4.3.4
 _ZN7Akonadi25CollectionStatisticsModelD0Ev@Base 4:4.6.5
 _ZN7Akonadi25CollectionStatisticsModelD1Ev@Base 4:4.6.5
 _ZN7Akonadi25CollectionStatisticsModelD2Ev@Base 4:4.6.5
 _ZN7Akonadi25EntityMimeTypeFilterModel11qt_metacallEN11QMetaObject4CallEiPPv@Base 4:4.4.0
 _ZN7Akonadi25EntityMimeTypeFilterModel11qt_metacastEPKc@Base 4:4.4.0
 _ZN7Akonadi25EntityMimeTypeFilterModel12clearFiltersEv@Base 4:4.4.0
 _ZN7Akonadi25EntityMimeTypeFilterModel14setHeaderGroupENS_15EntityTreeModel11HeaderGroupE@Base 4:4.4.0
 _ZN7Akonadi25EntityMimeTypeFilterModel16staticMetaObjectE@Base 4:4.4.0
 _ZN7Akonadi25EntityMimeTypeFilterModel26addMimeTypeExclusionFilterERK7QString@Base 4:4.4.0
 _ZN7Akonadi25EntityMimeTypeFilterModel26addMimeTypeInclusionFilterERK7QString@Base 4:4.4.0
 _ZN7Akonadi25EntityMimeTypeFilterModel27addMimeTypeExclusionFiltersERK11QStringList@Base 4:4.4.0
 _ZN7Akonadi25EntityMimeTypeFilterModel27addMimeTypeInclusionFiltersERK11QStringList@Base 4:4.4.0
 _ZN7Akonadi25EntityMimeTypeFilterModelC1EP7QObject@Base 4:4.4.0
 _ZN7Akonadi25EntityMimeTypeFilterModelC2EP7QObject@Base 4:4.4.0
 _ZN7Akonadi25EntityMimeTypeFilterModelD0Ev@Base 4:4.4.0
 _ZN7Akonadi25EntityMimeTypeFilterModelD1Ev@Base 4:4.4.0
 _ZN7Akonadi25EntityMimeTypeFilterModelD2Ev@Base 4:4.4.0
 _ZN7Akonadi25PersistentSearchAttribute11deserializeERK10QByteArray@Base 4:4.5.0
 _ZN7Akonadi25PersistentSearchAttribute14setQueryStringERK7QString@Base 4:4.5.0
 _ZN7Akonadi25PersistentSearchAttribute16setQueryLanguageERK7QString@Base 4:4.5.0
 _ZN7Akonadi25PersistentSearchAttributeC1Ev@Base 4:4.5.0
 _ZN7Akonadi25PersistentSearchAttributeC2Ev@Base 4:4.5.0
 _ZN7Akonadi25PersistentSearchAttributeD0Ev@Base 4:4.5.0
 _ZN7Akonadi25PersistentSearchAttributeD1Ev@Base 4:4.5.0
 _ZN7Akonadi25PersistentSearchAttributeD2Ev@Base 4:4.5.0
 _ZN7Akonadi25SpecialCollectionsPrivate11emitChangedERK7QString@Base 4:4.10.1
 _ZN7Akonadi25SpecialCollectionsPrivate16endBatchRegisterEv@Base 4:4.10.1
 _ZN7Akonadi25SpecialCollectionsPrivate17collectionRemovedERKNS_10CollectionE@Base 4:4.10.1
 _ZN7Akonadi25SpecialCollectionsPrivate18beginBatchRegisterEv@Base 4:4.10.1
 _ZN7Akonadi25SpecialCollectionsPrivate24forgetFoldersForResourceERK7QString@Base 4:4.10.1
 _ZN7Akonadi25SpecialCollectionsPrivate26collectionFetchJobFinishedEP4KJob@Base 4:4.10.1
 _ZN7Akonadi25SpecialCollectionsPrivate27collectionStatisticsChangedExRKNS_20CollectionStatisticsE@Base 4:4.10.1
 _ZN7Akonadi25SpecialCollectionsPrivateC1EP19KCoreConfigSkeletonPNS_18SpecialCollectionsE@Base 4:4.10.1
 _ZN7Akonadi25SpecialCollectionsPrivateC2EP19KCoreConfigSkeletonPNS_18SpecialCollectionsE@Base 4:4.10.1
 _ZN7Akonadi25SpecialCollectionsPrivateD1Ev@Base 4:4.10.1
 _ZN7Akonadi25SpecialCollectionsPrivateD2Ev@Base 4:4.10.1
 _ZN7Akonadi26CollectionFilterProxyModel11qt_metacallEN11QMetaObject4CallEiPPv@Base 4:4.3.4
 _ZN7Akonadi26CollectionFilterProxyModel11qt_metacastEPKc@Base 4:4.3.4
 _ZN7Akonadi26CollectionFilterProxyModel12clearFiltersEv@Base 4:4.3.4
 _ZN7Akonadi26CollectionFilterProxyModel16staticMetaObjectE@Base 4:4.3.4
 _ZN7Akonadi26CollectionFilterProxyModel17addMimeTypeFilterERK7QString@Base 4:4.3.4
 _ZN7Akonadi26CollectionFilterProxyModel18addMimeTypeFiltersERK11QStringList@Base 4:4.3.4
 _ZN7Akonadi26CollectionFilterProxyModel28setExcludeVirtualCollectionsEb@Base 4:4.7.0
 _ZN7Akonadi26CollectionFilterProxyModel7Private18collectionAcceptedERK11QModelIndexb@Base 4:4.3.4
 _ZN7Akonadi26CollectionFilterProxyModelC1EP7QObject@Base 4:4.3.4
 _ZN7Akonadi26CollectionFilterProxyModelC2EP7QObject@Base 4:4.3.4
 _ZN7Akonadi26CollectionFilterProxyModelD0Ev@Base 4:4.3.4
 _ZN7Akonadi26CollectionFilterProxyModelD1Ev@Base 4:4.3.4
 _ZN7Akonadi26CollectionFilterProxyModelD2Ev@Base 4:4.3.4
 _ZN7Akonadi26CollectionPropertiesDialog11qt_metacallEN11QMetaObject4CallEiPPv@Base 4:4.3.4
 _ZN7Akonadi26CollectionPropertiesDialog11qt_metacastEPKc@Base 4:4.3.4
 _ZN7Akonadi26CollectionPropertiesDialog12registerPageEPNS_31CollectionPropertiesPageFactoryE@Base 4:4.3.4
 _ZN7Akonadi26CollectionPropertiesDialog14setCurrentPageERK7QString@Base 4:4.10.1
 _ZN7Akonadi26CollectionPropertiesDialog14useDefaultPageEb@Base 4:4.4.0
 _ZN7Akonadi26CollectionPropertiesDialog16staticMetaObjectE@Base 4:4.3.4
 _ZN7Akonadi26CollectionPropertiesDialog21defaultPageObjectNameENS0_11DefaultPageE@Base 4:4.7.0
 _ZN7Akonadi26CollectionPropertiesDialog7Private20registerBuiltinPagesEv@Base 4:4.3.4
 _ZN7Akonadi26CollectionPropertiesDialog7Private4initEv@Base 4:4.5.86
 _ZN7Akonadi26CollectionPropertiesDialog7PrivateC1EPS0_RKNS_10CollectionERK11QStringList@Base 4:4.5.86
 _ZN7Akonadi26CollectionPropertiesDialog7PrivateC2EPS0_RKNS_10CollectionERK11QStringList@Base 4:4.5.86
 _ZN7Akonadi26CollectionPropertiesDialogC1ERKNS_10CollectionEP7QWidget@Base 4:4.3.4
 _ZN7Akonadi26CollectionPropertiesDialogC1ERKNS_10CollectionERK11QStringListP7QWidget@Base 4:4.5.86
 _ZN7Akonadi26CollectionPropertiesDialogC2ERKNS_10CollectionEP7QWidget@Base 4:4.3.4
 _ZN7Akonadi26CollectionPropertiesDialogC2ERKNS_10CollectionERK11QStringListP7QWidget@Base 4:4.5.86
 _ZN7Akonadi26CollectionPropertiesDialogD0Ev@Base 4:4.3.4
 _ZN7Akonadi26CollectionPropertiesDialogD1Ev@Base 4:4.3.4
 _ZN7Akonadi26CollectionPropertiesDialogD2Ev@Base 4:4.3.4
 _ZN7Akonadi26ResourceSynchronizationJob11qt_metacallEN11QMetaObject4CallEiPPv@Base 4:4.4.0
 _ZN7Akonadi26ResourceSynchronizationJob11qt_metacastEPKc@Base 4:4.4.0
 _ZN7Akonadi26ResourceSynchronizationJob16staticMetaObjectE@Base 4:4.4.0
 _ZN7Akonadi26ResourceSynchronizationJob21setCollectionTreeOnlyEb@Base 4:4.8.1
 _ZN7Akonadi26ResourceSynchronizationJob5startEv@Base 4:4.4.0
 _ZN7Akonadi26ResourceSynchronizationJobC1ERKNS_13AgentInstanceEP7QObject@Base 4:4.4.0
 _ZN7Akonadi26ResourceSynchronizationJobC2ERKNS_13AgentInstanceEP7QObject@Base 4:4.4.0
 _ZN7Akonadi26ResourceSynchronizationJobD0Ev@Base 4:4.4.0
 _ZN7Akonadi26ResourceSynchronizationJobD1Ev@Base 4:4.4.0
 _ZN7Akonadi26ResourceSynchronizationJobD2Ev@Base 4:4.4.0
 _ZN7Akonadi26SpecialCollectionAttribute11deserializeERK10QByteArray@Base 4:4.4.0
 _ZN7Akonadi26SpecialCollectionAttribute17setCollectionTypeERK10QByteArray@Base 4:4.4.0
 _ZN7Akonadi26SpecialCollectionAttributeC1ERK10QByteArray@Base 4:4.4.0
 _ZN7Akonadi26SpecialCollectionAttributeC2ERK10QByteArray@Base 4:4.4.0
 _ZN7Akonadi26SpecialCollectionAttributeD0Ev@Base 4:4.4.0
 _ZN7Akonadi26SpecialCollectionAttributeD1Ev@Base 4:4.4.0
 _ZN7Akonadi26SpecialCollectionAttributeD2Ev@Base 4:4.4.0
 _ZN7Akonadi28CollectionStatisticsDelegate11qt_metacallEN11QMetaObject4CallEiPPv@Base 4:4.3.4
 _ZN7Akonadi28CollectionStatisticsDelegate11qt_metacastEPKc@Base 4:4.3.4
 _ZN7Akonadi28CollectionStatisticsDelegate13updatePaletteEv@Base 4:4.10.1
 _ZN7Akonadi28CollectionStatisticsDelegate16staticMetaObjectE@Base 4:4.3.4
 _ZN7Akonadi28CollectionStatisticsDelegate19setUnreadCountShownEb@Base 4:4.3.4
 _ZN7Akonadi28CollectionStatisticsDelegate27setProgressAnimationEnabledEb@Base 4:4.5.0
 _ZN7Akonadi28CollectionStatisticsDelegateC1EP17QAbstractItemView@Base 4:4.5.86
 _ZN7Akonadi28CollectionStatisticsDelegateC1EP9QTreeView@Base 4:4.3.4
 _ZN7Akonadi28CollectionStatisticsDelegateC2EP17QAbstractItemView@Base 4:4.5.86
 _ZN7Akonadi28CollectionStatisticsDelegateC2EP9QTreeView@Base 4:4.3.4
 _ZN7Akonadi28CollectionStatisticsDelegateD0Ev@Base 4:4.3.4
 _ZN7Akonadi28CollectionStatisticsDelegateD1Ev@Base 4:4.3.4
 _ZN7Akonadi28CollectionStatisticsDelegateD2Ev@Base 4:4.3.4
 _ZN7Akonadi28SpecialCollectionsRequestJob10slotResultEP4KJob@Base 4:4.4.0
 _ZN7Akonadi28SpecialCollectionsRequestJob11qt_metacallEN11QMetaObject4CallEiPPv@Base 4:4.4.0
 _ZN7Akonadi28SpecialCollectionsRequestJob11qt_metacastEPKc@Base 4:4.4.0
 _ZN7Akonadi28SpecialCollectionsRequestJob16staticMetaObjectE@Base 4:4.4.0
 _ZN7Akonadi28SpecialCollectionsRequestJob17requestCollectionERK10QByteArrayRKNS_13AgentInstanceE@Base 4:4.4.0
 _ZN7Akonadi28SpecialCollectionsRequestJob17setIconForTypeMapERK4QMapI10QByteArray7QStringE@Base 4:4.4.0
 _ZN7Akonadi28SpecialCollectionsRequestJob17setNameForTypeMapERK4QMapI10QByteArray7QStringE@Base 4:4.4.0
 _ZN7Akonadi28SpecialCollectionsRequestJob22setDefaultResourceTypeERK7QString@Base 4:4.4.0
 _ZN7Akonadi28SpecialCollectionsRequestJob24requestDefaultCollectionERK10QByteArray@Base 4:4.4.0
 _ZN7Akonadi28SpecialCollectionsRequestJob25setDefaultResourceOptionsERK4QMapI7QString8QVariantE@Base 4:4.4.0
 _ZN7Akonadi28SpecialCollectionsRequestJob7doStartEv@Base 4:4.4.0
 _ZN7Akonadi28SpecialCollectionsRequestJob8setTypesERK5QListI10QByteArrayE@Base 4:4.4.0
 _ZN7Akonadi28SpecialCollectionsRequestJobC1EPNS_18SpecialCollectionsEP7QObject@Base 4:4.4.0
 _ZN7Akonadi28SpecialCollectionsRequestJobC2EPNS_18SpecialCollectionsEP7QObject@Base 4:4.4.0
 _ZN7Akonadi28SpecialCollectionsRequestJobD0Ev@Base 4:4.4.0
 _ZN7Akonadi28SpecialCollectionsRequestJobD1Ev@Base 4:4.4.0
 _ZN7Akonadi28SpecialCollectionsRequestJobD2Ev@Base 4:4.4.0
 _ZN7Akonadi31CollectionPropertiesPageFactoryD0Ev@Base 4:4.3.4
 _ZN7Akonadi31CollectionPropertiesPageFactoryD1Ev@Base 4:4.3.4
 _ZN7Akonadi31CollectionPropertiesPageFactoryD2Ev@Base 4:4.3.4
 _ZN7Akonadi35RecursiveCollectionFilterProxyModel11qt_metacallEN11QMetaObject4CallEiPPv@Base 4:4.5.86
 _ZN7Akonadi35RecursiveCollectionFilterProxyModel11qt_metacastEPKc@Base 4:4.5.86
 _ZN7Akonadi35RecursiveCollectionFilterProxyModel12clearFiltersEv@Base 4:4.5.86
 _ZN7Akonadi35RecursiveCollectionFilterProxyModel16setSearchPatternERK7QString@Base 4:4.8.1
 _ZN7Akonadi35RecursiveCollectionFilterProxyModel16staticMetaObjectE@Base 4:4.5.86
 _ZN7Akonadi35RecursiveCollectionFilterProxyModel21setIncludeCheckedOnlyEb@Base 4:4.10.1
 _ZN7Akonadi35RecursiveCollectionFilterProxyModel33addContentMimeTypeInclusionFilterERK7QString@Base 4:4.5.86
 _ZN7Akonadi35RecursiveCollectionFilterProxyModel34addContentMimeTypeInclusionFiltersERK11QStringList@Base 4:4.5.86
 _ZN7Akonadi35RecursiveCollectionFilterProxyModel34setContentMimeTypeInclusionFiltersERK11QStringList@Base 4:4.5.86
 _ZN7Akonadi35RecursiveCollectionFilterProxyModelC1EP7QObject@Base 4:4.5.86
 _ZN7Akonadi35RecursiveCollectionFilterProxyModelC2EP7QObject@Base 4:4.5.86
 _ZN7Akonadi35RecursiveCollectionFilterProxyModelD0Ev@Base 4:4.5.86
 _ZN7Akonadi35RecursiveCollectionFilterProxyModelD1Ev@Base 4:4.5.86
 _ZN7Akonadi35RecursiveCollectionFilterProxyModelD2Ev@Base 4:4.5.86
 _ZN7Akonadi37ChangeNotificationDependenciesFactory15createItemCacheEiPNS_7SessionE@Base 4:4.10.1
 _ZN7Akonadi37ChangeNotificationDependenciesFactory20createChangeMediatorEP7QObject@Base 4:4.10.1
 _ZN7Akonadi37ChangeNotificationDependenciesFactory21createCollectionCacheEiPNS_7SessionE@Base 4:4.10.1
 _ZN7Akonadi37ChangeNotificationDependenciesFactory24createNotificationSourceEP7QObject@Base 4:4.10.1
 _ZN7Akonadi38CollectionAttributesSynchronizationJob11qt_metacallEN11QMetaObject4CallEiPPv@Base 4:4.5.86
 _ZN7Akonadi38CollectionAttributesSynchronizationJob11qt_metacastEPKc@Base 4:4.5.86
 _ZN7Akonadi38CollectionAttributesSynchronizationJob16staticMetaObjectE@Base 4:4.5.86
 _ZN7Akonadi38CollectionAttributesSynchronizationJob5startEv@Base 4:4.5.86
 _ZN7Akonadi38CollectionAttributesSynchronizationJobC1ERKNS_10CollectionEP7QObject@Base 4:4.5.86
 _ZN7Akonadi38CollectionAttributesSynchronizationJobC2ERKNS_10CollectionEP7QObject@Base 4:4.5.86
 _ZN7Akonadi38CollectionAttributesSynchronizationJobD0Ev@Base 4:4.5.86
 _ZN7Akonadi38CollectionAttributesSynchronizationJobD1Ev@Base 4:4.5.86
 _ZN7Akonadi38CollectionAttributesSynchronizationJobD2Ev@Base 4:4.5.86
 _ZN7Akonadi3Job10slotResultEP4KJob@Base 4:4.3.4
 _ZN7Akonadi3Job11qt_metacallEN11QMetaObject4CallEiPPv@Base 4:4.3.4
 _ZN7Akonadi3Job11qt_metacastEPKc@Base 4:4.3.4
 _ZN7Akonadi3Job12aboutToStartEPS0_@Base 4:4.3.4
 _ZN7Akonadi3Job12removeSubjobEP4KJob@Base 4:4.3.4
 _ZN7Akonadi3Job13writeFinishedEPS0_@Base 4:4.3.4
 _ZN7Akonadi3Job16doHandleResponseERK10QByteArrayS3_@Base 4:4.3.4
 _ZN7Akonadi3Job16staticMetaObjectE@Base 4:4.3.4
 _ZN7Akonadi3Job17emitWriteFinishedEv@Base 4:4.3.4
 _ZN7Akonadi3Job5startEv@Base 4:4.3.4
 _ZN7Akonadi3Job6doKillEv@Base 4:4.3.4
 _ZN7Akonadi3Job9addSubjobEP4KJob@Base 4:4.3.4
 _ZN7Akonadi3JobC1EP7QObject@Base 4:4.3.4
 _ZN7Akonadi3JobC1EPNS_10JobPrivateEP7QObject@Base 4:4.3.4
 _ZN7Akonadi3JobC2EP7QObject@Base 4:4.3.4
 _ZN7Akonadi3JobC2EPNS_10JobPrivateEP7QObject@Base 4:4.3.4
 _ZN7Akonadi3JobD0Ev@Base 4:4.3.4
 _ZN7Akonadi3JobD1Ev@Base 4:4.3.4
 _ZN7Akonadi3JobD2Ev@Base 4:4.3.4
 _ZN7Akonadi4Item10clearFlagsEv@Base 4:4.3.4
 _ZN7Akonadi4Item11FullPayloadE@Base 4:4.3.4
 _ZN7Akonadi4Item11setMimeTypeERK7QString@Base 4:4.3.4
 _ZN7Akonadi4Item11setRevisionEi@Base 4:4.3.4
 _ZN7Akonadi4Item12clearPayloadEv@Base 4:4.5.0
 _ZN7Akonadi4Item14setPayloadBaseEPNS_11PayloadBaseE@Base 4:4.3.4
 _ZN7Akonadi4Item14setPayloadImplI10QByteArrayEEN5boost12disable_if_cIXsrNS_8Internal12PayloadTraitIT_EE13isPolymorphicEvE4typeERKS7_@Base 4:4.5.86
 _ZN7Akonadi4Item14setPayloadImplISsEEN5boost12disable_if_cIXsrNS_8Internal12PayloadTraitIT_EE13isPolymorphicEvE4typeERKS6_@Base 4:4.5.86
 _ZN7Akonadi4Item16setPayloadBaseV2EiiSt8auto_ptrINS_11PayloadBaseEE@Base 4:4.5.86
 _ZN7Akonadi4Item18addToLegacyMappingI10QByteArrayEEvRK7QString@Base 4:4.5.86
 _ZN7Akonadi4Item18setPayloadFromDataERK10QByteArray@Base 4:4.3.4
 _ZN7Akonadi4Item19setModificationTimeERK9QDateTime@Base 4:4.3.4
 _ZN7Akonadi4Item22addToLegacyMappingImplERK7QStringiiSt8auto_ptrINS_11PayloadBaseEE@Base 4:4.5.86
 _ZN7Akonadi4Item22setStorageCollectionIdEx@Base 4:4.3.4
 _ZN7Akonadi4Item5applyERKS0_@Base 4:4.4.0
 _ZN7Akonadi4Item6d_funcEv@Base 4:4.3.4
 _ZN7Akonadi4Item7fromUrlERK4KUrl@Base 4:4.3.4
 _ZN7Akonadi4Item7setFlagERK10QByteArray@Base 4:4.3.4
 _ZN7Akonadi4Item7setSizeEx@Base 4:4.3.4
 _ZN7Akonadi4Item8setFlagsERK4QSetI10QByteArrayE@Base 4:4.3.4
 _ZN7Akonadi4Item9clearFlagERK10QByteArray@Base 4:4.3.4
 _ZN7Akonadi4ItemC1ERK7QString@Base 4:4.3.4
 _ZN7Akonadi4ItemC1ERKS0_@Base 4:4.3.4
 _ZN7Akonadi4ItemC1Ev@Base 4:4.3.4
 _ZN7Akonadi4ItemC1Ex@Base 4:4.3.4
 _ZN7Akonadi4ItemC2ERK7QString@Base 4:4.3.4
 _ZN7Akonadi4ItemC2ERKS0_@Base 4:4.3.4
 _ZN7Akonadi4ItemC2Ev@Base 4:4.3.4
 _ZN7Akonadi4ItemC2Ex@Base 4:4.3.4
 _ZN7Akonadi4ItemD1Ev@Base 4:4.3.4
 _ZN7Akonadi4ItemD2Ev@Base 4:4.3.4
 _ZN7Akonadi6Entity11setRemoteIdERK7QString@Base 4:4.3.4
 _ZN7Akonadi6Entity12addAttributeEPNS_9AttributeE@Base 4:4.3.4
 _ZN7Akonadi6Entity15clearAttributesEv@Base 4:4.3.4
 _ZN7Akonadi6Entity15removeAttributeERK10QByteArray@Base 4:4.3.4
 _ZN7Akonadi6Entity16parentCollectionEv@Base 4:4.4.0
 _ZN7Akonadi6Entity17setRemoteRevisionERK7QString@Base 4:4.5.0
 _ZN7Akonadi6Entity19setParentCollectionERKNS_10CollectionE@Base 4:4.4.0
 _ZN7Akonadi6Entity5setIdEx@Base 4:4.3.4
 _ZN7Akonadi6Entity6d_funcEv@Base 4:4.3.4
 _ZN7Akonadi6Entity9attributeINS_22EntityDisplayAttributeEEEPT_NS0_12CreateOptionE@Base 4:4.6.2
 _ZN7Akonadi6EntityC1EPNS_13EntityPrivateE@Base 4:4.3.4
 _ZN7Akonadi6EntityC1ERKS0_@Base 4:4.3.4
 _ZN7Akonadi6EntityC2EPNS_13EntityPrivateE@Base 4:4.3.4
 _ZN7Akonadi6EntityC2ERKS0_@Base 4:4.3.4
 _ZN7Akonadi6EntityD1Ev@Base 4:4.3.4
 _ZN7Akonadi6EntityD2Ev@Base 4:4.3.4
 _ZN7Akonadi6EntityaSERKS0_@Base 4:4.3.4
 _ZN7Akonadi7Control11qt_metacallEN11QMetaObject4CallEiPPv@Base 4:4.3.4
 _ZN7Akonadi7Control11qt_metacastEPKc@Base 4:4.3.4
 _ZN7Akonadi7Control16staticMetaObjectE@Base 4:4.3.4
 _ZN7Akonadi7Control18widgetNeedsAkonadiEP7QWidget@Base 4:4.3.4
 _ZN7Akonadi7Control4stopEP7QWidget@Base 4:4.3.4
 _ZN7Akonadi7Control4stopEv@Base 4:4.3.4
 _ZN7Akonadi7Control5startEP7QWidget@Base 4:4.3.4
 _ZN7Akonadi7Control5startEv@Base 4:4.3.4
 _ZN7Akonadi7Control7Private18serverStateChangedENS_13ServerManager5StateE@Base 4:4.5.0
 _ZN7Akonadi7Control7Private4execEv@Base 4:4.3.4
 _ZN7Akonadi7Control7restartEP7QWidget@Base 4:4.3.4
 _ZN7Akonadi7Control7restartEv@Base 4:4.3.4
 _ZN7Akonadi7ControlC1Ev@Base 4:4.3.4
 _ZN7Akonadi7ControlC2Ev@Base 4:4.3.4
 _ZN7Akonadi7ControlD0Ev@Base 4:4.3.4
 _ZN7Akonadi7ControlD1Ev@Base 4:4.3.4
 _ZN7Akonadi7ControlD2Ev@Base 4:4.3.4
 _ZN7Akonadi7LinkJob11qt_metacallEN11QMetaObject4CallEiPPv@Base 4:4.3.4
 _ZN7Akonadi7LinkJob11qt_metacastEPKc@Base 4:4.3.4
 _ZN7Akonadi7LinkJob16staticMetaObjectE@Base 4:4.3.4
 _ZN7Akonadi7LinkJob7doStartEv@Base 4:4.3.4
 _ZN7Akonadi7LinkJobC1ERKNS_10CollectionERK5QListINS_4ItemEEP7QObject@Base 4:4.3.4
 _ZN7Akonadi7LinkJobC2ERKNS_10CollectionERK5QListINS_4ItemEEP7QObject@Base 4:4.3.4
 _ZN7Akonadi7LinkJobD0Ev@Base 4:4.3.4
 _ZN7Akonadi7LinkJobD1Ev@Base 4:4.3.4
 _ZN7Akonadi7LinkJobD2Ev@Base 4:4.3.4
 _ZN7Akonadi7Monitor10itemLinkedERKNS_4ItemERKNS_10CollectionE@Base 4:4.3.4
 _ZN7Akonadi7Monitor10setSessionEPNS_7SessionE@Base 4:4.4.0
 _ZN7Akonadi7Monitor11itemChangedERKNS_4ItemERK4QSetI10QByteArrayE@Base 4:4.3.4
 _ZN7Akonadi7Monitor11itemRemovedERKNS_4ItemE@Base 4:4.3.4
 _ZN7Akonadi7Monitor11qt_metacallEN11QMetaObject4CallEiPPv@Base 4:4.3.4
 _ZN7Akonadi7Monitor11qt_metacastEPKc@Base 4:4.3.4
 _ZN7Akonadi7Monitor12allMonitoredEb@Base 4:4.3.4
 _ZN7Akonadi7Monitor12itemUnlinkedERKNS_4ItemERKNS_10CollectionE@Base 4:4.3.4
 _ZN7Akonadi7Monitor13ignoreSessionEPNS_7SessionE@Base 4:4.3.4
 _ZN7Akonadi7Monitor13itemMonitoredERKNS_4ItemEb@Base 4:4.3.4
 _ZN7Akonadi7Monitor14itemFetchScopeEv@Base 4:4.3.4
 _ZN7Akonadi7Monitor15collectionAddedERKNS_10CollectionES3_@Base 4:4.3.4
 _ZN7Akonadi7Monitor15collectionMovedERKNS_10CollectionES3_S3_@Base 4:4.4.0
 _ZN7Akonadi7Monitor15fetchCollectionEb@Base 4:4.3.4
 _ZN7Akonadi7Monitor15setAllMonitoredEb@Base 4:4.3.4
 _ZN7Akonadi7Monitor16fetchChangedOnlyEb@Base 4:4.8.1
 _ZN7Akonadi7Monitor16setItemMonitoredERKNS_4ItemEb@Base 4:4.3.4
 _ZN7Akonadi7Monitor16staticMetaObjectE@Base 4:4.3.4
 _ZN7Akonadi7Monitor17collectionChangedERKNS_10CollectionE@Base 4:4.3.4
 _ZN7Akonadi7Monitor17collectionChangedERKNS_10CollectionERK4QSetI10QByteArrayE@Base 4:4.4.0
 _ZN7Akonadi7Monitor17collectionRemovedERKNS_10CollectionE@Base 4:4.3.4
 _ZN7Akonadi7Monitor17mimeTypeMonitoredERK7QStringb@Base 4:4.3.4
 _ZN7Akonadi7Monitor17resourceMonitoredERK10QByteArrayb@Base 4:4.3.4
 _ZN7Akonadi7Monitor17setItemFetchScopeERKNS_14ItemFetchScopeE@Base 4:4.3.4
 _ZN7Akonadi7Monitor19collectionMonitoredERKNS_10CollectionEb@Base 4:4.3.4
 _ZN7Akonadi7Monitor20collectionFetchScopeEv@Base 4:4.4.0
 _ZN7Akonadi7Monitor20collectionSubscribedERKNS_10CollectionES3_@Base 4:4.5.86
 _ZN7Akonadi7Monitor20setMimeTypeMonitoredERK7QStringb@Base 4:4.3.4
 _ZN7Akonadi7Monitor20setResourceMonitoredERK10QByteArrayb@Base 4:4.3.4
 _ZN7Akonadi7Monitor22collectionUnsubscribedERKNS_10CollectionE@Base 4:4.5.86
 _ZN7Akonadi7Monitor22setCollectionMonitoredERKNS_10CollectionEb@Base 4:4.3.4
 _ZN7Akonadi7Monitor23setCollectionFetchScopeERKNS_20CollectionFetchScopeE@Base 4:4.4.0
 _ZN7Akonadi7Monitor25fetchCollectionStatisticsEb@Base 4:4.3.4
 _ZN7Akonadi7Monitor27collectionStatisticsChangedExRKNS_20CollectionStatisticsE@Base 4:4.3.4
 _ZN7Akonadi7Monitor35setCollectionMoveTranslationEnabledEb@Base 4:4.10.1
 _ZN7Akonadi7Monitor9itemAddedERKNS_4ItemERKNS_10CollectionE@Base 4:4.3.4
 _ZN7Akonadi7Monitor9itemMovedERKNS_4ItemERKNS_10CollectionES6_@Base 4:4.3.4
 _ZN7Akonadi7MonitorC1EP7QObject@Base 4:4.3.4
 _ZN7Akonadi7MonitorC1EPNS_14MonitorPrivateEP7QObject@Base 4:4.3.4
 _ZN7Akonadi7MonitorC2EP7QObject@Base 4:4.3.4
 _ZN7Akonadi7MonitorC2EPNS_14MonitorPrivateEP7QObject@Base 4:4.3.4
 _ZN7Akonadi7MonitorD0Ev@Base 4:4.3.4
 _ZN7Akonadi7MonitorD1Ev@Base 4:4.3.4
 _ZN7Akonadi7MonitorD2Ev@Base 4:4.3.4
 _ZN7Akonadi7Session11qt_metacallEN11QMetaObject4CallEiPPv@Base 4:4.3.4
 _ZN7Akonadi7Session11qt_metacastEPKc@Base 4:4.3.4
 _ZN7Akonadi7Session11reconnectedEv@Base 4:4.5.90
 _ZN7Akonadi7Session14defaultSessionEv@Base 4:4.3.4
 _ZN7Akonadi7Session16staticMetaObjectE@Base 4:4.3.4
 _ZN7Akonadi7Session5clearEv@Base 4:4.3.4
 _ZN7Akonadi7SessionC1EPNS_14SessionPrivateERK10QByteArrayP7QObject@Base 4:4.4.0
 _ZN7Akonadi7SessionC1ERK10QByteArrayP7QObject@Base 4:4.3.4
 _ZN7Akonadi7SessionC2EPNS_14SessionPrivateERK10QByteArrayP7QObject@Base 4:4.4.0
 _ZN7Akonadi7SessionC2ERK10QByteArrayP7QObject@Base 4:4.3.4
 _ZN7Akonadi7SessionD0Ev@Base 4:4.3.4
 _ZN7Akonadi7SessionD1Ev@Base 4:4.3.4
 _ZN7Akonadi7SessionD2Ev@Base 4:4.3.4
 _ZN7Akonadi8ItemSync10fetchScopeEv@Base 4:4.3.4
 _ZN7Akonadi8ItemSync10slotResultEP4KJob@Base 4:4.5.0
 _ZN7Akonadi8ItemSync10updateItemERKNS_4ItemERS1_@Base 4:4.3.4
 _ZN7Akonadi8ItemSync11qt_metacallEN11QMetaObject4CallEiPPv@Base 4:4.3.4
 _ZN7Akonadi8ItemSync11qt_metacastEPKc@Base 4:4.3.4
 _ZN7Akonadi8ItemSync12deliveryDoneEv@Base 4:4.3.4
 _ZN7Akonadi8ItemSync13setFetchScopeERNS_14ItemFetchScopeE@Base 4:4.3.4
 _ZN7Akonadi8ItemSync13setTotalItemsEi@Base 4:4.3.4
 _ZN7Akonadi8ItemSync16setFullSyncItemsERK5QListINS_4ItemEE@Base 4:4.3.4
 _ZN7Akonadi8ItemSync16staticMetaObjectE@Base 4:4.3.4
 _ZN7Akonadi8ItemSync18setTransactionModeENS0_15TransactionModeE@Base 4:4.5.86
 _ZN7Akonadi8ItemSync19setStreamingEnabledEb@Base 4:4.3.4
 _ZN7Akonadi8ItemSync23setIncrementalSyncItemsERK5QListINS_4ItemEES5_@Base 4:4.3.4
 _ZN7Akonadi8ItemSync7Private11deleteItemsERK5QListINS_4ItemEE@Base 4:4.3.4
 _ZN7Akonadi8ItemSync7Private12processItemsEv@Base 4:4.3.4
 _ZN7Akonadi8ItemSync7Private15createLocalItemERKNS_4ItemE@Base 4:4.3.4
 _ZN7Akonadi8ItemSync7Private17slotLocalListDoneEP4KJob@Base 4:4.3.4
 _ZN7Akonadi8ItemSync7Private19slotLocalChangeDoneEP4KJob@Base 4:4.3.4
 _ZN7Akonadi8ItemSync7Private19slotLocalDeleteDoneEP4KJob@Base 4:4.5.0
 _ZN7Akonadi8ItemSync7Private21slotTransactionResultEP4KJob@Base 4:4.3.4
 _ZN7Akonadi8ItemSync7Private7executeEv@Base 4:4.3.4
 _ZN7Akonadi8ItemSync7Private9checkDoneEv@Base 4:4.3.4
 _ZN7Akonadi8ItemSync7doStartEv@Base 4:4.3.4
 _ZN7Akonadi8ItemSync8rollbackEv@Base 4:4.5.0
 _ZN7Akonadi8ItemSyncC1ERKNS_10CollectionEP7QObject@Base 4:4.3.4
 _ZN7Akonadi8ItemSyncC2ERKNS_10CollectionEP7QObject@Base 4:4.3.4
 _ZN7Akonadi8ItemSyncD0Ev@Base 4:4.3.4
 _ZN7Akonadi8ItemSyncD1Ev@Base 4:4.3.4
 _ZN7Akonadi8ItemSyncD2Ev@Base 4:4.3.4
 _ZN7Akonadi8ItemView11qt_metacallEN11QMetaObject4CallEiPPv@Base 4:4.3.4
 _ZN7Akonadi8ItemView11qt_metacastEPKc@Base 4:4.3.4
 _ZN7Akonadi8ItemView13doubleClickedERKNS_4ItemE@Base 4:4.3.4
 _ZN7Akonadi8ItemView14currentChangedERKNS_4ItemE@Base 4:4.3.4
 _ZN7Akonadi8ItemView15setXmlGuiClientEP13KXMLGUIClient@Base 4:4.3.4
 _ZN7Akonadi8ItemView15setXmlGuiWindowEP13KXmlGuiWindow@Base 4:4.3.4
 _ZN7Akonadi8ItemView16contextMenuEventEP17QContextMenuEvent@Base 4:4.3.4
 _ZN7Akonadi8ItemView16staticMetaObjectE@Base 4:4.3.4
 _ZN7Akonadi8ItemView7Private11itemClickedERK11QModelIndex@Base 4:4.3.4
 _ZN7Akonadi8ItemView7Private12itemForIndexERK11QModelIndex@Base 4:4.3.4
 _ZN7Akonadi8ItemView7Private13itemActivatedERK11QModelIndex@Base 4:4.3.4
 _ZN7Akonadi8ItemView7Private17itemDoubleClickedERK11QModelIndex@Base 4:4.3.4
 _ZN7Akonadi8ItemView7Private18itemCurrentChangedERK11QModelIndex@Base 4:4.3.4
 _ZN7Akonadi8ItemView7Private4initEv@Base 4:4.3.4
 _ZN7Akonadi8ItemView7clickedERKNS_4ItemE@Base 4:4.3.4
 _ZN7Akonadi8ItemView8setModelEP18QAbstractItemModel@Base 4:4.3.4
 _ZN7Akonadi8ItemView9activatedERKNS_4ItemE@Base 4:4.3.4
 _ZN7Akonadi8ItemViewC1EP13KXMLGUIClientP7QWidget@Base 4:4.3.4
 _ZN7Akonadi8ItemViewC1EP13KXmlGuiWindowP7QWidget@Base 4:4.3.4
 _ZN7Akonadi8ItemViewC1EP7QWidget@Base 4:4.3.4
 _ZN7Akonadi8ItemViewC2EP13KXMLGUIClientP7QWidget@Base 4:4.3.4
 _ZN7Akonadi8ItemViewC2EP13KXmlGuiWindowP7QWidget@Base 4:4.3.4
 _ZN7Akonadi8ItemViewC2EP7QWidget@Base 4:4.3.4
 _ZN7Akonadi8ItemViewD0Ev@Base 4:4.3.4
 _ZN7Akonadi8ItemViewD1Ev@Base 4:4.3.4
 _ZN7Akonadi8ItemViewD2Ev@Base 4:4.3.4
 _ZN7Akonadi8TrashJob11qt_metacallEN11QMetaObject4CallEiPPv@Base 4:4.8.1
 _ZN7Akonadi8TrashJob11qt_metacastEPKc@Base 4:4.8.1
 _ZN7Akonadi8TrashJob15TrashJobPrivate12selectResultEP4KJob@Base 4:4.8.1
 _ZN7Akonadi8TrashJob15TrashJobPrivate12setAttributeEP4KJob@Base 4:4.8.1
 _ZN7Akonadi8TrashJob15TrashJobPrivate12setAttributeERK5QListINS_10CollectionEE@Base 4:4.8.1
 _ZN7Akonadi8TrashJob15TrashJobPrivate12setAttributeERK5QListINS_4ItemEE@Base 4:4.8.1
 _ZN7Akonadi8TrashJob15TrashJobPrivate13itemsReceivedERK5QListINS_4ItemEE@Base 4:4.8.1
 _ZN7Akonadi8TrashJob15TrashJobPrivate19collectionsReceivedERK5QListINS_10CollectionEE@Base 4:4.8.1
 _ZN7Akonadi8TrashJob15TrashJobPrivate24parentCollectionReceivedERK5QListINS_10CollectionEE@Base 4:4.8.1
 _ZN7Akonadi8TrashJob15TrashJobPrivateD0Ev@Base 4:4.8.1
 _ZN7Akonadi8TrashJob15TrashJobPrivateD1Ev@Base 4:4.8.1
 _ZN7Akonadi8TrashJob15TrashJobPrivateD2Ev@Base 4:4.8.1
 _ZN7Akonadi8TrashJob15deleteIfInTrashEb@Base 4:4.8.1
 _ZN7Akonadi8TrashJob16staticMetaObjectE@Base 4:4.8.1
 _ZN7Akonadi8TrashJob18setTrashCollectionERKNS_10CollectionE@Base 4:4.8.1
 _ZN7Akonadi8TrashJob21keepTrashInCollectionEb@Base 4:4.8.1
 _ZN7Akonadi8TrashJob7doStartEv@Base 4:4.8.1
 _ZN7Akonadi8TrashJobC1ERK5QListINS_4ItemEEP7QObject@Base 4:4.8.1
 _ZN7Akonadi8TrashJobC1ERKNS_10CollectionEP7QObject@Base 4:4.8.1
 _ZN7Akonadi8TrashJobC1ERKNS_4ItemEP7QObject@Base 4:4.8.1
 _ZN7Akonadi8TrashJobC2ERK5QListINS_4ItemEEP7QObject@Base 4:4.8.1
 _ZN7Akonadi8TrashJobC2ERKNS_10CollectionEP7QObject@Base 4:4.8.1
 _ZN7Akonadi8TrashJobC2ERKNS_4ItemEP7QObject@Base 4:4.8.1
 _ZN7Akonadi8TrashJobD0Ev@Base 4:4.8.1
 _ZN7Akonadi8TrashJobD1Ev@Base 4:4.8.1
 _ZN7Akonadi8TrashJobD2Ev@Base 4:4.8.1
 _ZN7Akonadi9AgentBase10ObserverV210itemLinkedERKNS_4ItemERKNS_10CollectionE@Base 4:4.4.0
 _ZN7Akonadi9AgentBase10ObserverV212itemUnlinkedERKNS_4ItemERKNS_10CollectionE@Base 4:4.4.0
 _ZN7Akonadi9AgentBase10ObserverV215collectionMovedERKNS_10CollectionES4_S4_@Base 4:4.4.0
 _ZN7Akonadi9AgentBase10ObserverV217collectionChangedERKNS_10CollectionERK4QSetI10QByteArrayE@Base 4:4.4.0
 _ZN7Akonadi9AgentBase10ObserverV29itemMovedERKNS_4ItemERKNS_10CollectionES7_@Base 4:4.4.0
 _ZN7Akonadi9AgentBase10ObserverV2D0Ev@Base 4:4.6.5
 _ZN7Akonadi9AgentBase10ObserverV2D1Ev@Base 4:4.6.5
 _ZN7Akonadi9AgentBase10ObserverV2D2Ev@Base 4:4.6.5
 _ZN7Akonadi9AgentBase11aboutToQuitEv@Base 4:4.3.4
 _ZN7Akonadi9AgentBase11doSetOnlineEb@Base 4:4.3.4
 _ZN7Akonadi9AgentBase11qt_metacallEN11QMetaObject4CallEiPPv@Base 4:4.3.4
 _ZN7Akonadi9AgentBase11qt_metacastEPKc@Base 4:4.3.4
 _ZN7Akonadi9AgentBase11reconfigureEv@Base 4:4.3.4
 _ZN7Akonadi9AgentBase12setAgentNameERK7QString@Base 4:4.3.4
 _ZN7Akonadi9AgentBase13componentDataEv@Base 4:4.5.86
 _ZN7Akonadi9AgentBase13onlineChangedEb@Base 4:4.3.4
 _ZN7Akonadi9AgentBase14abortRequestedEv@Base 4:4.4.0
 _ZN7Akonadi9AgentBase14advancedStatusERK4QMapI7QString8QVariantE@Base 4:4.5.86
 _ZN7Akonadi9AgentBase14parseArgumentsEiPPc@Base 4:4.3.4
 _ZN7Akonadi9AgentBase15changeProcessedEv@Base 4:4.3.4
 _ZN7Akonadi9AgentBase15setNeedsNetworkEb@Base 4:4.3.4
 _ZN7Akonadi9AgentBase16agentNameChangedERK7QString@Base 4:4.3.4
 _ZN7Akonadi9AgentBase16registerObserverEPNS0_8ObserverE@Base 4:4.3.4
 _ZN7Akonadi9AgentBase16staticMetaObjectE@Base 4:4.3.4
 _ZN7Akonadi9AgentBase17setOnlineInternalEb@Base 4:4.10.1
 _ZN7Akonadi9AgentBase19reloadConfigurationEv@Base 4:4.3.4
 _ZN7Akonadi9AgentBase27configurationDialogAcceptedEv@Base 4:4.4.0
 _ZN7Akonadi9AgentBase27configurationDialogRejectedEv@Base 4:4.4.0
 _ZN7Akonadi9AgentBase4initEPS0_@Base 4:4.3.4
 _ZN7Akonadi9AgentBase4quitEv@Base 4:4.3.4
 _ZN7Akonadi9AgentBase5abortEv@Base 4:4.4.0
 _ZN7Akonadi9AgentBase5errorERK7QString@Base 4:4.3.4
 _ZN7Akonadi9AgentBase6configEv@Base 4:4.5.86
 _ZN7Akonadi9AgentBase6statusEiRK7QString@Base 4:4.3.4
 _ZN7Akonadi9AgentBase7cleanupEv@Base 4:4.3.4
 _ZN7Akonadi9AgentBase7percentEi@Base 4:4.3.4
 _ZN7Akonadi9AgentBase7warningERK7QString@Base 4:4.3.4
 _ZN7Akonadi9AgentBase8Observer11itemChangedERKNS_4ItemERK4QSetI10QByteArrayE@Base 4:4.3.4
 _ZN7Akonadi9AgentBase8Observer11itemRemovedERKNS_4ItemE@Base 4:4.3.4
 _ZN7Akonadi9AgentBase8Observer15collectionAddedERKNS_10CollectionES4_@Base 4:4.3.4
 _ZN7Akonadi9AgentBase8Observer17collectionChangedERKNS_10CollectionE@Base 4:4.3.4
 _ZN7Akonadi9AgentBase8Observer17collectionRemovedERKNS_10CollectionE@Base 4:4.3.4
 _ZN7Akonadi9AgentBase8Observer9itemAddedERKNS_4ItemERKNS_10CollectionE@Base 4:4.3.4
 _ZN7Akonadi9AgentBase8ObserverC1Ev@Base 4:4.3.4
 _ZN7Akonadi9AgentBase8ObserverC2Ev@Base 4:4.3.4
 _ZN7Akonadi9AgentBase8ObserverD0Ev@Base 4:4.3.4
 _ZN7Akonadi9AgentBase8ObserverD1Ev@Base 4:4.3.4
 _ZN7Akonadi9AgentBase8ObserverD2Ev@Base 4:4.3.4
 _ZN7Akonadi9AgentBase9configureEm@Base 4:4.3.4
 _ZN7Akonadi9AgentBase9setOnlineEb@Base 4:4.3.4
 _ZN7Akonadi9AgentBaseC1EPNS_16AgentBasePrivateERK7QString@Base 4:4.3.4
 _ZN7Akonadi9AgentBaseC1ERK7QString@Base 4:4.3.4
 _ZN7Akonadi9AgentBaseC2EPNS_16AgentBasePrivateERK7QString@Base 4:4.3.4
 _ZN7Akonadi9AgentBaseC2ERK7QString@Base 4:4.3.4
 _ZN7Akonadi9AgentBaseD0Ev@Base 4:4.3.4
 _ZN7Akonadi9AgentBaseD1Ev@Base 4:4.3.4
 _ZN7Akonadi9AgentBaseD2Ev@Base 4:4.3.4
 _ZN7Akonadi9AgentTypeC1ERKS0_@Base 4:4.3.4
 _ZN7Akonadi9AgentTypeC1Ev@Base 4:4.3.4
 _ZN7Akonadi9AgentTypeC2ERKS0_@Base 4:4.3.4
 _ZN7Akonadi9AgentTypeC2Ev@Base 4:4.3.4
 _ZN7Akonadi9AgentTypeD1Ev@Base 4:4.3.4
 _ZN7Akonadi9AgentTypeD2Ev@Base 4:4.3.4
 _ZN7Akonadi9AgentTypeaSERKS0_@Base 4:4.3.4
 _ZN7Akonadi9AttributeD0Ev@Base 4:4.3.4
 _ZN7Akonadi9AttributeD1Ev@Base 4:4.3.4
 _ZN7Akonadi9AttributeD2Ev@Base 4:4.3.4
 _ZN7Akonadi9ExceptionC1EPKc@Base 4:4.3.4
 _ZN7Akonadi9ExceptionC1ERK10QByteArray@Base 4:4.3.4
 _ZN7Akonadi9ExceptionC1ERK7QString@Base 4:4.3.4
 _ZN7Akonadi9ExceptionC1ERKS0_@Base 4:4.3.4
 _ZN7Akonadi9ExceptionC2EPKc@Base 4:4.3.4
 _ZN7Akonadi9ExceptionC2ERK10QByteArray@Base 4:4.3.4
 _ZN7Akonadi9ExceptionC2ERK7QString@Base 4:4.3.4
 _ZN7Akonadi9ExceptionC2ERKS0_@Base 4:4.3.4
 _ZN7Akonadi9ExceptionD0Ev@Base 4:4.3.4
 _ZN7Akonadi9ExceptionD1Ev@Base 4:4.3.4
 _ZN7Akonadi9ExceptionD2Ev@Base 4:4.3.4
 _ZN7Akonadi9ItemModel10fetchScopeEv@Base 4:4.3.4
 _ZN7Akonadi9ItemModel11qt_metacallEN11QMetaObject4CallEiPPv@Base 4:4.3.4
 _ZN7Akonadi9ItemModel11qt_metacastEPKc@Base 4:4.3.4
 _ZN7Akonadi9ItemModel12dropMimeDataEPK9QMimeDataN2Qt10DropActionEiiRK11QModelIndex@Base 4:4.3.4
 _ZN7Akonadi9ItemModel13setCollectionERKNS_10CollectionE@Base 4:4.3.4
 _ZN7Akonadi9ItemModel13setFetchScopeERKNS_14ItemFetchScopeE@Base 4:4.3.4
 _ZN7Akonadi9ItemModel16staticMetaObjectE@Base 4:4.3.4
 _ZN7Akonadi9ItemModel17collectionChangedERKNS_10CollectionE@Base 4:4.3.4
 _ZN7Akonadi9ItemModel7Private10itemsAddedERK5QListINS_4ItemEE@Base 4:4.3.4
 _ZN7Akonadi9ItemModel7Private10rowForItemERKNS_4ItemE@Base 4:4.3.4
 _ZN7Akonadi9ItemModel7Private11itemChangedERKNS_4ItemERK4QSetI10QByteArrayE@Base 4:4.3.4
 _ZN7Akonadi9ItemModel7Private11itemRemovedERKNS_4ItemE@Base 4:4.3.4
 _ZN7Akonadi9ItemModel7Private11listingDoneEP4KJob@Base 4:4.3.4
 _ZN7Akonadi9ItemModel7Private21collectionFetchResultEP4KJob@Base 4:4.3.4
 _ZN7Akonadi9ItemModel7Private9itemAddedERKNS_4ItemE@Base 4:4.3.4
 _ZN7Akonadi9ItemModel7Private9itemMovedERKNS_4ItemERKNS_10CollectionES7_@Base 4:4.3.4
 _ZN7Akonadi9ItemModelC1EP7QObject@Base 4:4.3.4
 _ZN7Akonadi9ItemModelC2EP7QObject@Base 4:4.3.4
 _ZN7Akonadi9ItemModelD0Ev@Base 4:4.3.4
 _ZN7Akonadi9ItemModelD1Ev@Base 4:4.3.4
 _ZN7Akonadi9ItemModelD2Ev@Base 4:4.3.4
 _ZN7Akonadi9UnlinkJob11qt_metacallEN11QMetaObject4CallEiPPv@Base 4:4.3.4
 _ZN7Akonadi9UnlinkJob11qt_metacastEPKc@Base 4:4.3.4
 _ZN7Akonadi9UnlinkJob16staticMetaObjectE@Base 4:4.3.4
 _ZN7Akonadi9UnlinkJob7doStartEv@Base 4:4.3.4
 _ZN7Akonadi9UnlinkJobC1ERKNS_10CollectionERK5QListINS_4ItemEEP7QObject@Base 4:4.3.4
 _ZN7Akonadi9UnlinkJobC2ERKNS_10CollectionERK5QListINS_4ItemEEP7QObject@Base 4:4.3.4
 _ZN7Akonadi9UnlinkJobD0Ev@Base 4:4.3.4
 _ZN7Akonadi9UnlinkJobD1Ev@Base 4:4.3.4
 _ZN7Akonadi9UnlinkJobD2Ev@Base 4:4.3.4
 _ZNK12KConfigGroup9readCheckIbEET_PKcRKS1_@Base 4:4.8.3
 _ZNK7Akonadi10Collection10statisticsEv@Base 4:4.3.4
 _ZNK7Akonadi10Collection11cachePolicyEv@Base 4:4.3.4
 _ZNK7Akonadi10Collection14parentRemoteIdEv@Base 4:4.3.4
 _ZNK7Akonadi10Collection16contentMimeTypesEv@Base 4:4.3.4
 _ZNK7Akonadi10Collection3urlENS0_7UrlTypeE@Base 4:4.7.0
 _ZNK7Akonadi10Collection3urlEv@Base 4:4.3.4
 _ZNK7Akonadi10Collection4nameEv@Base 4:4.3.4
 _ZNK7Akonadi10Collection6d_funcEv@Base 4:4.3.4
 _ZNK7Akonadi10Collection6parentEv@Base 4:4.3.4
 _ZNK7Akonadi10Collection6rightsEv@Base 4:4.3.4
 _ZNK7Akonadi10Collection8resourceEv@Base 4:4.3.4
 _ZNK7Akonadi10Collection9isVirtualEv@Base 4:4.5.90
 _ZNK7Akonadi10GetLockJob10metaObjectEv@Base 4:4.10.1
 _ZNK7Akonadi11CachePolicy10localPartsEv@Base 4:4.3.4
 _ZNK7Akonadi11CachePolicy12cacheTimeoutEv@Base 4:4.3.4
 _ZNK7Akonadi11CachePolicy12syncOnDemandEv@Base 4:4.3.4
 _ZNK7Akonadi11CachePolicy17inheritFromParentEv@Base 4:4.3.4
 _ZNK7Akonadi11CachePolicy17intervalCheckTimeEv@Base 4:4.3.4
 _ZNK7Akonadi11CachePolicyeqERKS0_@Base 4:4.3.4
 _ZNK7Akonadi11ItemCopyJob10metaObjectEv@Base 4:4.3.4
 _ZNK7Akonadi11ItemMonitor4itemEv@Base 4:4.3.4
 _ZNK7Akonadi11ItemMonitor7Private10metaObjectEv@Base 4:4.3.4
 _ZNK7Akonadi11ItemMoveJob10metaObjectEv@Base 4:4.3.4
 _ZNK7Akonadi11ItemMoveJob21destinationCollectionEv@Base 4:4.7.0
 _ZNK7Akonadi11ItemMoveJob5itemsEv@Base 4:4.7.0
 _ZNK7Akonadi11PartFetcher10metaObjectEv@Base 4:4.4.0
 _ZNK7Akonadi11PartFetcher4itemEv@Base 4:4.4.0
 _ZNK7Akonadi11PartFetcher5indexEv@Base 4:4.4.0
 _ZNK7Akonadi11PartFetcher8partNameEv@Base 4:4.4.0
 _ZNK7Akonadi12AgentManager10metaObjectEv@Base 4:4.3.4
 _ZNK7Akonadi12AgentManager4typeERK7QString@Base 4:4.3.4
 _ZNK7Akonadi12AgentManager5typesEv@Base 4:4.3.4
 _ZNK7Akonadi12AgentManager8instanceERK7QString@Base 4:4.3.4
 _ZNK7Akonadi12AgentManager9instancesEv@Base 4:4.3.4
 _ZNK7Akonadi12ItemFetchJob10metaObjectEv@Base 4:4.3.4
 _ZNK7Akonadi12ItemFetchJob5itemsEv@Base 4:4.3.4
 _ZNK7Akonadi12PluginLoader11infoForNameERK7QString@Base 4:4.10.1
 _ZNK7Akonadi12PluginLoader5namesEv@Base 4:4.10.1
 _ZNK7Akonadi12ResourceBase10metaObjectEv@Base 4:4.3.4
 _ZNK7Akonadi12ResourceBase11currentItemEv@Base 4:4.3.4
 _ZNK7Akonadi12ResourceBase17currentCollectionEv@Base 4:4.3.4
 _ZNK7Akonadi12ResourceBase21dumpSchedulerToStringEv@Base 4:4.8.1
 _ZNK7Akonadi12ResourceBase28dumpNotificationListToStringEv@Base 4:4.8.1
 _ZNK7Akonadi12ResourceBase4nameEv@Base 4:4.3.4
 _ZNK7Akonadi13AgentInstance10identifierEv@Base 4:4.3.4
 _ZNK7Akonadi13AgentInstance11reconfigureEv@Base 4:4.3.4
 _ZNK7Akonadi13AgentInstance13statusMessageEv@Base 4:4.3.4
 _ZNK7Akonadi13AgentInstance16abortCurrentTaskEv@Base 4:4.4.0
 _ZNK7Akonadi13AgentInstance4nameEv@Base 4:4.3.4
 _ZNK7Akonadi13AgentInstance4typeEv@Base 4:4.3.4
 _ZNK7Akonadi13AgentInstance6statusEv@Base 4:4.3.4
 _ZNK7Akonadi13AgentInstance7isValidEv@Base 4:4.3.4
 _ZNK7Akonadi13AgentInstance7restartEv@Base 4:4.3.4
 _ZNK7Akonadi13AgentInstance8isOnlineEv@Base 4:4.3.4
 _ZNK7Akonadi13AgentInstance8progressEv@Base 4:4.3.4
 _ZNK7Akonadi13AgentInstanceeqERKS0_@Base 4:4.3.4
 _ZNK7Akonadi13ItemCreateJob10metaObjectEv@Base 4:4.3.4
 _ZNK7Akonadi13ItemCreateJob4itemEv@Base 4:4.3.4
 _ZNK7Akonadi13ItemDeleteJob10metaObjectEv@Base 4:4.3.4
 _ZNK7Akonadi13ItemDeleteJob12deletedItemsEv@Base 4:4.4.0
 _ZNK7Akonadi13ItemModifyJob10metaObjectEv@Base 4:4.3.4
 _ZNK7Akonadi13ItemModifyJob13ignorePayloadEv@Base 4:4.3.4
 _ZNK7Akonadi13ItemModifyJob4itemEv@Base 4:4.3.4
 _ZNK7Akonadi13ItemModifyJob5itemsEv@Base 4:4.5.86
 _ZNK7Akonadi13ItemSearchJob10metaObjectEv@Base 4:4.4.0
 _ZNK7Akonadi13ItemSearchJob5itemsEv@Base 4:4.4.0
 _ZNK7Akonadi13ServerManager10metaObjectEv@Base 4:4.3.4
 _ZNK7Akonadi14AgentTypeModel10metaObjectEv@Base 4:4.3.4
 _ZNK7Akonadi14AgentTypeModel11columnCountERK11QModelIndex@Base 4:4.3.4
 _ZNK7Akonadi14AgentTypeModel4dataERK11QModelIndexi@Base 4:4.3.4
 _ZNK7Akonadi14AgentTypeModel5flagsERK11QModelIndex@Base 4:4.3.4
 _ZNK7Akonadi14AgentTypeModel5indexEiiRK11QModelIndex@Base 4:4.3.4
 _ZNK7Akonadi14AgentTypeModel6parentERK11QModelIndex@Base 4:4.3.4
 _ZNK7Akonadi14AgentTypeModel8rowCountERK11QModelIndex@Base 4:4.3.4
 _ZNK7Akonadi14ChangeRecorder10metaObjectEv@Base 4:4.3.4
 _ZNK7Akonadi14ChangeRecorder28dumpNotificationListToStringEv@Base 4:4.8.1
 _ZNK7Akonadi14ChangeRecorder7isEmptyEv@Base 4:4.3.4
 _ZNK7Akonadi14CollectionView10metaObjectEv@Base 4:4.3.4
 _ZNK7Akonadi14EntityListView10metaObjectEv@Base 4:4.4.0
 _ZNK7Akonadi14EntityListView23isDropActionMenuEnabledEv@Base 4:4.7.0
 _ZNK7Akonadi14EntityTreeView10metaObjectEv@Base 4:4.4.0
 _ZNK7Akonadi14EntityTreeView21isManualSortingActiveEv@Base 4:4.8.1
 _ZNK7Akonadi14EntityTreeView23isDropActionMenuEnabledEv@Base 4:4.5.0
 _ZNK7Akonadi14ItemFetchScope10attributesEv@Base 4:4.3.4
 _ZNK7Akonadi14ItemFetchScope11fullPayloadEv@Base 4:4.3.4
 _ZNK7Akonadi14ItemFetchScope12payloadPartsEv@Base 4:4.3.4
 _ZNK7Akonadi14ItemFetchScope13allAttributesEv@Base 4:4.3.4
 _ZNK7Akonadi14ItemFetchScope17ancestorRetrievalEv@Base 4:4.4.0
 _ZNK7Akonadi14ItemFetchScope21fetchModificationTimeEv@Base 4:4.5.86
 _ZNK7Akonadi14ItemFetchScope7isEmptyEv@Base 4:4.3.4
 _ZNK7Akonadi14ItemFetchScope9cacheOnlyEv@Base 4:4.3.4
 _ZNK7Akonadi14MonitorPrivate12pipelineSizeEv@Base 4:4.10.1
 _ZNK7Akonadi14MonitorPrivate15isLazilyIgnoredERKNS_19NotificationMessageE@Base 4:4.10.1
 _ZNK7Akonadi14MonitorPrivate18acceptNotificationERKNS_19NotificationMessageE@Base 4:4.10.1
 _ZNK7Akonadi14SelfTestDialog10metaObjectEv@Base 4:4.10.1
 _ZNK7Akonadi14SelfTestDialog10runProcessERK7QStringRK11QStringListRS1_@Base 4:4.10.1
 _ZNK7Akonadi14SelfTestDialog13serverSettingERK7QStringPKcRK8QVariant@Base 4:4.10.1
 _ZNK7Akonadi14SelfTestDialog24useStandaloneMysqlServerEv@Base 4:4.10.1
 _ZNK7Akonadi15AgentTypeDialog10metaObjectEv@Base 4:4.3.4
 _ZNK7Akonadi15AgentTypeDialog21agentFilterProxyModelEv@Base 4:4.3.4
 _ZNK7Akonadi15AgentTypeDialog9agentTypeEv@Base 4:4.3.4
 _ZNK7Akonadi15AgentTypeWidget10metaObjectEv@Base 4:4.3.4
 _ZNK7Akonadi15AgentTypeWidget16currentAgentTypeEv@Base 4:4.3.4
 _ZNK7Akonadi15AgentTypeWidget21agentFilterProxyModelEv@Base 4:4.3.4
 _ZNK7Akonadi15CachePolicyPage10metaObjectEv@Base 4:4.5.86
 _ZNK7Akonadi15CachePolicyPage9canHandleERKNS_10CollectionE@Base 4:4.5.86
 _ZNK7Akonadi15CollectionModel10headerDataEiN2Qt11OrientationEi@Base 4:4.3.4
 _ZNK7Akonadi15CollectionModel10metaObjectEv@Base 4:4.3.4
 _ZNK7Akonadi15CollectionModel11columnCountERK11QModelIndex@Base 4:4.3.4
 _ZNK7Akonadi15CollectionModel15collectionForIdEx@Base 4:4.3.4
 _ZNK7Akonadi15CollectionModel20supportedDropActionsEv@Base 4:4.3.4
 _ZNK7Akonadi15CollectionModel4dataERK11QModelIndexi@Base 4:4.3.4
 _ZNK7Akonadi15CollectionModel5flagsERK11QModelIndex@Base 4:4.3.4
 _ZNK7Akonadi15CollectionModel5indexEiiRK11QModelIndex@Base 4:4.3.4
 _ZNK7Akonadi15CollectionModel6parentERK11QModelIndex@Base 4:4.3.4
 _ZNK7Akonadi15CollectionModel8mimeDataERK5QListI11QModelIndexE@Base 4:4.3.4
 _ZNK7Akonadi15CollectionModel8rowCountERK11QModelIndex@Base 4:4.3.4
 _ZNK7Akonadi15CollectionModel9mimeTypesEv@Base 4:4.3.4
 _ZNK7Akonadi15EntityCacheBase10metaObjectEv@Base 4:4.10.1
 _ZNK7Akonadi15EntityTreeModel10entityDataERKNS_10CollectionEii@Base 4:4.4.0
 _ZNK7Akonadi15EntityTreeModel10entityDataERKNS_4ItemEii@Base 4:4.4.0
 _ZNK7Akonadi15EntityTreeModel10headerDataEiN2Qt11OrientationEi@Base 4:4.4.0
 _ZNK7Akonadi15EntityTreeModel10metaObjectEv@Base 4:4.4.0
 _ZNK7Akonadi15EntityTreeModel11columnCountERK11QModelIndex@Base 4:4.4.0
 _ZNK7Akonadi15EntityTreeModel11entityMatchERKNS_10CollectionERK8QVariant6QFlagsIN2Qt9MatchFlagEE@Base 4:4.4.0
 _ZNK7Akonadi15EntityTreeModel11entityMatchERKNS_4ItemERK8QVariant6QFlagsIN2Qt9MatchFlagEE@Base 4:4.4.0
 _ZNK7Akonadi15EntityTreeModel11hasChildrenERK11QModelIndex@Base 4:4.4.0
 _ZNK7Akonadi15EntityTreeModel12canFetchMoreERK11QModelIndex@Base 4:4.4.0
 _ZNK7Akonadi15EntityTreeModel16entityHeaderDataEiN2Qt11OrientationEiNS0_11HeaderGroupE@Base 4:4.4.0
 _ZNK7Akonadi15EntityTreeModel17entityColumnCountENS0_11HeaderGroupE@Base 4:4.4.0
 _ZNK7Akonadi15EntityTreeModel19includeUnsubscribedEv@Base 4:4.5.0
 _ZNK7Akonadi15EntityTreeModel19systemEntitiesShownEv@Base 4:4.4.0
 _ZNK7Akonadi15EntityTreeModel20supportedDropActionsEv@Base 4:4.4.0
 _ZNK7Akonadi15EntityTreeModel21includeRootCollectionEv@Base 4:4.4.0
 _ZNK7Akonadi15EntityTreeModel22itemPopulationStrategyEv@Base 4:4.4.0
 _ZNK7Akonadi15EntityTreeModel23collectionFetchStrategyEv@Base 4:4.4.0
 _ZNK7Akonadi15EntityTreeModel23isCollectionTreeFetchedEv@Base 4:4.10.1
 _ZNK7Akonadi15EntityTreeModel25rootCollectionDisplayNameEv@Base 4:4.4.0
 _ZNK7Akonadi15EntityTreeModel4dataERK11QModelIndexi@Base 4:4.4.0
 _ZNK7Akonadi15EntityTreeModel5flagsERK11QModelIndex@Base 4:4.4.0
 _ZNK7Akonadi15EntityTreeModel5indexEiiRK11QModelIndex@Base 4:4.4.0
 _ZNK7Akonadi15EntityTreeModel5matchERK11QModelIndexiRK8QVarianti6QFlagsIN2Qt9MatchFlagEE@Base 4:4.4.0
 _ZNK7Akonadi15EntityTreeModel6parentERK11QModelIndex@Base 4:4.4.0
 _ZNK7Akonadi15EntityTreeModel8mimeDataERK5QListI11QModelIndexE@Base 4:4.4.0
 _ZNK7Akonadi15EntityTreeModel8rowCountERK11QModelIndex@Base 4:4.4.0
 _ZNK7Akonadi15EntityTreeModel9mimeTypesEv@Base 4:4.4.0
 _ZNK7Akonadi15MimeTypeChecker12isWantedItemERKNS_4ItemE@Base 4:4.3.4
 _ZNK7Akonadi15MimeTypeChecker15wantedMimeTypesEv@Base 4:4.3.4
 _ZNK7Akonadi15MimeTypeChecker16isWantedMimeTypeERK7QString@Base 4:4.5.86
 _ZNK7Akonadi15MimeTypeChecker18isWantedCollectionERKNS_10CollectionE@Base 4:4.3.4
 _ZNK7Akonadi15MimeTypeChecker22containsWantedMimeTypeERK11QStringList@Base 4:4.5.86
 _ZNK7Akonadi15ResourceScanJob10metaObjectEv@Base 4:4.10.1
 _ZNK7Akonadi15ResourceScanJob10resourceIdEv@Base 4:4.10.1
 _ZNK7Akonadi15ResourceScanJob18specialCollectionsEv@Base 4:4.10.1
 _ZNK7Akonadi15ResourceScanJob22rootResourceCollectionEv@Base 4:4.10.1
 _ZNK7Akonadi15SearchCreateJob10metaObjectEv@Base 4:4.3.4
 _ZNK7Akonadi15SearchCreateJob17createdCollectionEv@Base 4:4.4.0
 _ZNK7Akonadi15SubscriptionJob10metaObjectEv@Base 4:4.3.4
 _ZNK7Akonadi15TrashRestoreJob10metaObjectEv@Base 4:4.8.1
 _ZNK7Akonadi15TrashRestoreJob5itemsEv@Base 4:4.8.1
 _ZNK7Akonadi16AgentFactoryBase10metaObjectEv@Base 4:4.5.86
 _ZNK7Akonadi16AgentFactoryBase19createComponentDataERK7QString@Base 4:4.5.86
 _ZNK7Akonadi16CollectionDialog10metaObjectEv@Base 4:4.3.4
 _ZNK7Akonadi16CollectionDialog13selectionModeEv@Base 4:4.3.4
 _ZNK7Akonadi16CollectionDialog14mimeTypeFilterEv@Base 4:4.3.4
 _ZNK7Akonadi16CollectionDialog18accessRightsFilterEv@Base 4:4.4.0
 _ZNK7Akonadi16CollectionDialog18selectedCollectionEv@Base 4:4.3.4
 _ZNK7Akonadi16CollectionDialog19selectedCollectionsEv@Base 4:4.3.4
 _ZNK7Akonadi16CollectionDialog7Private19canCreateCollectionERKNS_10CollectionE@Base 4:4.5.86
 _ZNK7Akonadi16PayloadException4typeEv@Base 4:4.5.86
 _ZNK7Akonadi16PreprocessorBase10metaObjectEv@Base 4:4.4.0
 _ZNK7Akonadi16ResourceSettings10metaObjectEv@Base 4:4.5.86
 _ZNK7Akonadi17CollectionCopyJob10metaObjectEv@Base 4:4.3.4
 _ZNK7Akonadi17CollectionMoveJob10metaObjectEv@Base 4:4.3.4
 _ZNK7Akonadi17ETMViewStateSaver10metaObjectEv@Base 4:4.5.86
 _ZNK7Akonadi17ETMViewStateSaver19indexToConfigStringERK11QModelIndex@Base 4:4.5.86
 _ZNK7Akonadi17ETMViewStateSaver21indexFromConfigStringEPK18QAbstractItemModelRK7QString@Base 4:4.5.86
 _ZNK7Akonadi17ResourceSelectJob10metaObjectEv@Base 4:4.10.1
 _ZNK7Akonadi18AgentActionManager10metaObjectEv@Base 4:4.5.86
 _ZNK7Akonadi18AgentActionManager22selectedAgentInstancesEv@Base 4:4.5.86
 _ZNK7Akonadi18AgentActionManager6actionENS0_4TypeE@Base 4:4.5.86
 _ZNK7Akonadi18AgentInstanceModel10headerDataEiN2Qt11OrientationEi@Base 4:4.3.4
 _ZNK7Akonadi18AgentInstanceModel10metaObjectEv@Base 4:4.3.4
 _ZNK7Akonadi18AgentInstanceModel11columnCountERK11QModelIndex@Base 4:4.3.4
 _ZNK7Akonadi18AgentInstanceModel4dataERK11QModelIndexi@Base 4:4.3.4
 _ZNK7Akonadi18AgentInstanceModel5flagsERK11QModelIndex@Base 4:4.3.4
 _ZNK7Akonadi18AgentInstanceModel5indexEiiRK11QModelIndex@Base 4:4.3.4
 _ZNK7Akonadi18AgentInstanceModel6parentERK11QModelIndex@Base 4:4.3.4
 _ZNK7Akonadi18AgentInstanceModel8rowCountERK11QModelIndex@Base 4:4.3.4
 _ZNK7Akonadi18CollectionComboBox10metaObjectEv@Base 4:4.4.0
 _ZNK7Akonadi18CollectionComboBox14mimeTypeFilterEv@Base 4:4.4.0
 _ZNK7Akonadi18CollectionComboBox17currentCollectionEv@Base 4:4.4.0
 _ZNK7Akonadi18CollectionComboBox18accessRightsFilterEv@Base 4:4.4.0
 _ZNK7Akonadi18CollectionFetchJob10metaObjectEv@Base 4:4.3.4
 _ZNK7Akonadi18CollectionFetchJob11collectionsEv@Base 4:4.3.4
 _ZNK7Akonadi18DefaultResourceJob10metaObjectEv@Base 4:4.10.1
 _ZNK7Akonadi18SpecialCollections10collectionERK10QByteArrayRKNS_13AgentInstanceE@Base 4:4.4.0
 _ZNK7Akonadi18SpecialCollections10metaObjectEv@Base 4:4.4.0
 _ZNK7Akonadi18SpecialCollections13hasCollectionERK10QByteArrayRKNS_13AgentInstanceE@Base 4:4.4.0
 _ZNK7Akonadi18SpecialCollections17defaultCollectionERK10QByteArray@Base 4:4.4.0
 _ZNK7Akonadi18SpecialCollections20hasDefaultCollectionERK10QByteArray@Base 4:4.4.0
 _ZNK7Akonadi18SubscriptionDialog10metaObjectEv@Base 4:4.3.4
 _ZNK7Akonadi19AgentInstanceWidget10metaObjectEv@Base 4:4.3.4
 _ZNK7Akonadi19AgentInstanceWidget20currentAgentInstanceEv@Base 4:4.3.4
 _ZNK7Akonadi19AgentInstanceWidget21agentFilterProxyModelEv@Base 4:4.3.4
 _ZNK7Akonadi19AgentInstanceWidget22selectedAgentInstancesEv@Base 4:4.5.0
 _ZNK7Akonadi19AgentInstanceWidget4viewEv@Base 4:4.5.0
 _ZNK7Akonadi19CollectionCreateJob10collectionEv@Base 4:4.3.4
 _ZNK7Akonadi19CollectionCreateJob10metaObjectEv@Base 4:4.3.4
 _ZNK7Akonadi19CollectionDeleteJob10metaObjectEv@Base 4:4.3.4
 _ZNK7Akonadi19CollectionModifyJob10collectionEv@Base 4:4.4.0
 _ZNK7Akonadi19CollectionModifyJob10metaObjectEv@Base 4:4.3.4
 _ZNK7Akonadi19CollectionRequester10collectionEv@Base 4:4.3.4
 _ZNK7Akonadi19CollectionRequester10metaObjectEv@Base 4:4.3.4
 _ZNK7Akonadi19CollectionRequester14mimeTypeFilterEv@Base 4:4.3.4
 _ZNK7Akonadi19CollectionRequester18accessRightsFilterEv@Base 4:4.4.0
 _ZNK7Akonadi19CollectionSelectJob10metaObjectEv@Base 4:4.3.4
 _ZNK7Akonadi19SelectionProxyModel10metaObjectEv@Base 4:4.4.0
 _ZNK7Akonadi19TransactionBeginJob10metaObjectEv@Base 4:4.3.4
 _ZNK7Akonadi19TransactionSequence10metaObjectEv@Base 4:4.3.4
 _ZNK7Akonadi20CollectionFetchScope16contentMimeTypesEv@Base 4:4.4.0
 _ZNK7Akonadi20CollectionFetchScope17ancestorRetrievalEv@Base 4:4.4.0
 _ZNK7Akonadi20CollectionFetchScope17includeStatisticsEv@Base 4:4.4.0
 _ZNK7Akonadi20CollectionFetchScope18includeUnubscribedEv@Base 4:4.4.0
 _ZNK7Akonadi20CollectionFetchScope19includeUnsubscribedEv@Base 4:4.5.0
 _ZNK7Akonadi20CollectionFetchScope7isEmptyEv@Base 4:4.4.0
 _ZNK7Akonadi20CollectionFetchScope8resourceEv@Base 4:4.4.0
 _ZNK7Akonadi20CollectionStatistics11unreadCountEv@Base 4:4.3.4
 _ZNK7Akonadi20CollectionStatistics4sizeEv@Base 4:4.3.4
 _ZNK7Akonadi20CollectionStatistics5countEv@Base 4:4.3.4
 _ZNK7Akonadi20IndexPolicyAttribute10serializedEv@Base 4:4.5.86
 _ZNK7Akonadi20IndexPolicyAttribute15indexingEnabledEv@Base 4:4.5.86
 _ZNK7Akonadi20IndexPolicyAttribute4typeEv@Base 4:4.5.86
 _ZNK7Akonadi20IndexPolicyAttribute5cloneEv@Base 4:4.5.86
 _ZNK7Akonadi20ItemSerializerPlugin5partsERKNS_4ItemE@Base 4:4.3.4
 _ZNK7Akonadi20StatisticsProxyModel10headerDataEiN2Qt11OrientationEi@Base 4:4.4.0
 _ZNK7Akonadi20StatisticsProxyModel10metaObjectEv@Base 4:4.4.0
 _ZNK7Akonadi20StatisticsProxyModel11columnCountERK11QModelIndex@Base 4:4.4.0
 _ZNK7Akonadi20StatisticsProxyModel16isToolTipEnabledEv@Base 4:4.4.0
 _ZNK7Akonadi20StatisticsProxyModel21isExtraColumnsEnabledEv@Base 4:4.4.0
 _ZNK7Akonadi20StatisticsProxyModel4dataERK11QModelIndexi@Base 4:4.4.0
 _ZNK7Akonadi20StatisticsProxyModel5flagsERK11QModelIndex@Base 4:4.4.0
 _ZNK7Akonadi20StatisticsProxyModel5indexEiiRK11QModelIndex@Base 4:4.4.0
 _ZNK7Akonadi20StatisticsProxyModel5matchERK11QModelIndexiRK8QVarianti6QFlagsIN2Qt9MatchFlagEE@Base 4:4.4.0
 _ZNK7Akonadi20TransactionCommitJob10metaObjectEv@Base 4:4.3.4
 _ZNK7Akonadi21AgentFilterProxyModel10metaObjectEv@Base 4:4.3.4
 _ZNK7Akonadi21AgentFilterProxyModel16filterAcceptsRowEiRK11QModelIndex@Base 4:4.3.4
 _ZNK7Akonadi21ChangeRecorderPrivate12pipelineSizeEv@Base 4:4.10.1
 _ZNK7Akonadi21ChangeRecorderPrivate21notificationsFileNameEv@Base 4:4.10.1
 _ZNK7Akonadi21ChangeRecorderPrivate28dumpNotificationListToStringEv@Base 4:4.10.1
 _ZNK7Akonadi21EntityHiddenAttribute10serializedEv@Base 4:4.4.0
 _ZNK7Akonadi21EntityHiddenAttribute4typeEv@Base 4:4.4.0
 _ZNK7Akonadi21EntityHiddenAttribute5cloneEv@Base 4:4.4.0
 _ZNK7Akonadi21EntityOrderProxyModel10metaObjectEv@Base 4:4.5.86
 _ZNK7Akonadi21EntityOrderProxyModel12configStringERK11QModelIndex@Base 4:4.5.86
 _ZNK7Akonadi21EntityOrderProxyModel18parentConfigStringERK11QModelIndex@Base 4:4.5.86
 _ZNK7Akonadi21EntityOrderProxyModel5matchERK11QModelIndexiRK8QVarianti6QFlagsIN2Qt9MatchFlagEE@Base 4:4.5.86
 _ZNK7Akonadi21EntityOrderProxyModel8lessThanERK11QModelIndexS3_@Base 4:4.5.86
 _ZNK7Akonadi21RecursiveItemFetchJob10metaObjectEv@Base 4:4.5.86
 _ZNK7Akonadi21RecursiveItemFetchJob5itemsEv@Base 4:4.5.86
 _ZNK7Akonadi21StandardActionManager10metaObjectEv@Base 4:4.3.4
 _ZNK7Akonadi21StandardActionManager13selectedItemsEv@Base 4:4.5.86
 _ZNK7Akonadi21StandardActionManager19selectedCollectionsEv@Base 4:4.5.86
 _ZNK7Akonadi21StandardActionManager6actionENS0_4TypeE@Base 4:4.3.4
 _ZNK7Akonadi21TrashFilterProxyModel10metaObjectEv@Base 4:4.8.1
 _ZNK7Akonadi21TrashFilterProxyModel12trashIsShownEv@Base 4:4.8.1
 _ZNK7Akonadi21TrashFilterProxyModel28TrashFilterProxyModelPrivate10showEntityERKNS_6EntityE@Base 4:4.8.1
 _ZNK7Akonadi21TrashFilterProxyModel9acceptRowEiRK11QModelIndex@Base 4:4.8.1
 _ZNK7Akonadi22AgentInstanceCreateJob10metaObjectEv@Base 4:4.3.4
 _ZNK7Akonadi22AgentInstanceCreateJob8instanceEv@Base 4:4.3.4
 _ZNK7Akonadi22CollectionPathResolver10collectionEv@Base 4:4.3.4
 _ZNK7Akonadi22CollectionPathResolver10metaObjectEv@Base 4:4.3.4
 _ZNK7Akonadi22CollectionPathResolver4pathEv@Base 4:4.3.4
 _ZNK7Akonadi22EntityDeletedAttribute10serializedEv@Base 4:4.8.1
 _ZNK7Akonadi22EntityDeletedAttribute15restoreResourceEv@Base 4:4.8.1
 _ZNK7Akonadi22EntityDeletedAttribute17restoreCollectionEv@Base 4:4.8.1
 _ZNK7Akonadi22EntityDeletedAttribute4typeEv@Base 4:4.8.1
 _ZNK7Akonadi22EntityDeletedAttribute5cloneEv@Base 4:4.8.1
 _ZNK7Akonadi22EntityDisplayAttribute10activeIconEv@Base 4:4.4.0
 _ZNK7Akonadi22EntityDisplayAttribute10serializedEv@Base 4:4.3.4
 _ZNK7Akonadi22EntityDisplayAttribute11displayNameEv@Base 4:4.3.4
 _ZNK7Akonadi22EntityDisplayAttribute14activeIconNameEv@Base 4:4.4.0
 _ZNK7Akonadi22EntityDisplayAttribute15backgroundColorEv@Base 4:4.4.0
 _ZNK7Akonadi22EntityDisplayAttribute4iconEv@Base 4:4.3.4
 _ZNK7Akonadi22EntityDisplayAttribute4typeEv@Base 4:4.3.4
 _ZNK7Akonadi22EntityDisplayAttribute5cloneEv@Base 4:4.3.4
 _ZNK7Akonadi22EntityDisplayAttribute8iconNameEv@Base 4:4.3.4
 _ZNK7Akonadi22EntityTreeModelPrivate12canFetchMoreERK11QModelIndex@Base 4:4.10.1
 _ZNK7Akonadi22EntityTreeModelPrivate14indexesForItemERKNS_4ItemE@Base 4:4.10.1
 _ZNK7Akonadi22EntityTreeModelPrivate15getItemFetchJobERKNS_10CollectionERKNS_14ItemFetchScopeE@Base 4:4.10.1
 _ZNK7Akonadi22EntityTreeModelPrivate15getItemFetchJobERKNS_4ItemERKNS_14ItemFetchScopeE@Base 4:4.10.1
 _ZNK7Akonadi22EntityTreeModelPrivate15runItemFetchJobEPNS_12ItemFetchJobERKNS_10CollectionE@Base 4:4.10.1
 _ZNK7Akonadi22EntityTreeModelPrivate18indexForCollectionERKNS_10CollectionE@Base 4:4.10.1
 _ZNK7Akonadi22EntityTreeModelPrivate20childCollectionNamesERKNS_10CollectionE@Base 4:4.10.1
 _ZNK7Akonadi22EntityTreeModelPrivate20getParentCollectionsERKNS_4ItemE@Base 4:4.10.1
 _ZNK7Akonadi22EntityTreeModelPrivate24fetchTopLevelCollectionsEv@Base 4:4.10.1
 _ZNK7Akonadi22EntityTreeModelPrivate8isHiddenERKNS_6EntityEN4Node4TypeE@Base 4:4.10.1
 _ZNK7Akonadi22EntityTreeModelPrivate8isHiddenINS_10CollectionEEEbRKT_@Base 4:4.10.1
 _ZNK7Akonadi22EntityTreeModelPrivate8isHiddenINS_4ItemEEEbRKT_@Base 4:4.10.1
 _ZNK7Akonadi22ItemSerializerPluginV214availablePartsERKNS_4ItemE@Base 4:4.4.0
 _ZNK7Akonadi22TransactionRollbackJob10metaObjectEv@Base 4:4.3.4
 _ZNK7Akonadi23CollectionStatisticsJob10collectionEv@Base 4:4.3.4
 _ZNK7Akonadi23CollectionStatisticsJob10metaObjectEv@Base 4:4.3.4
 _ZNK7Akonadi23CollectionStatisticsJob10statisticsEv@Base 4:4.3.4
 _ZNK7Akonadi23EntityRightsFilterModel10metaObjectEv@Base 4:4.5.86
 _ZNK7Akonadi23EntityRightsFilterModel12accessRightsEv@Base 4:4.5.86
 _ZNK7Akonadi23EntityRightsFilterModel5flagsERK11QModelIndex@Base 4:4.5.86
 _ZNK7Akonadi23EntityRightsFilterModel5matchERK11QModelIndexiRK8QVarianti6QFlagsIN2Qt9MatchFlagEE@Base 4:4.5.86
 _ZNK7Akonadi23EntityRightsFilterModel9acceptRowEiRK11QModelIndex@Base 4:4.5.86
 _ZNK7Akonadi24CollectionPropertiesPage10metaObjectEv@Base 4:4.3.4
 _ZNK7Akonadi24CollectionPropertiesPage9canHandleERKNS_10CollectionE@Base 4:4.3.4
 _ZNK7Akonadi24CollectionPropertiesPage9pageTitleEv@Base 4:4.3.4
 _ZNK7Akonadi24CollectionQuotaAttribute10serializedEv@Base 4:4.4.0
 _ZNK7Akonadi24CollectionQuotaAttribute12currentValueEv@Base 4:4.4.0
 _ZNK7Akonadi24CollectionQuotaAttribute12maximumValueEv@Base 4:4.4.0
 _ZNK7Akonadi24CollectionQuotaAttribute4typeEv@Base 4:4.4.0
 _ZNK7Akonadi24CollectionQuotaAttribute5cloneEv@Base 4:4.4.0
 _ZNK7Akonadi24EntityTreeViewStateSaver10metaObjectEv@Base 4:4.4.0
 _ZNK7Akonadi24EntityTreeViewStateSaver12restoreStateERK12KConfigGroup@Base 4:4.4.0
 _ZNK7Akonadi24EntityTreeViewStateSaver9saveStateER12KConfigGroup@Base 4:4.4.0
 _ZNK7Akonadi24FavoriteCollectionsModel10headerDataEiN2Qt11OrientationEi@Base 4:4.4.0
 _ZNK7Akonadi24FavoriteCollectionsModel10metaObjectEv@Base 4:4.4.0
 _ZNK7Akonadi24FavoriteCollectionsModel11collectionsEv@Base 4:4.4.0
 _ZNK7Akonadi24FavoriteCollectionsModel13collectionIdsEv@Base 4:4.5.86
 _ZNK7Akonadi24FavoriteCollectionsModel4dataERK11QModelIndexi@Base 4:4.4.0
 _ZNK7Akonadi24FavoriteCollectionsModel5flagsERK11QModelIndex@Base 4:4.5.90
 _ZNK7Akonadi24FavoriteCollectionsModel9mimeTypesEv@Base 4:4.5.90
 _ZNK7Akonadi25CollectionRightsAttribute10serializedEv@Base 4:4.3.4
 _ZNK7Akonadi25CollectionRightsAttribute4typeEv@Base 4:4.3.4
 _ZNK7Akonadi25CollectionRightsAttribute5cloneEv@Base 4:4.3.4
 _ZNK7Akonadi25CollectionRightsAttribute6rightsEv@Base 4:4.3.4
 _ZNK7Akonadi25CollectionStatisticsModel10headerDataEiN2Qt11OrientationEi@Base 4:4.3.4
 _ZNK7Akonadi25CollectionStatisticsModel10metaObjectEv@Base 4:4.3.4
 _ZNK7Akonadi25CollectionStatisticsModel11columnCountERK11QModelIndex@Base 4:4.3.4
 _ZNK7Akonadi25CollectionStatisticsModel4dataERK11QModelIndexi@Base 4:4.3.4
 _ZNK7Akonadi25EntityMimeTypeFilterModel10headerDataEiN2Qt11OrientationEi@Base 4:4.4.0
 _ZNK7Akonadi25EntityMimeTypeFilterModel10metaObjectEv@Base 4:4.4.0
 _ZNK7Akonadi25EntityMimeTypeFilterModel11columnCountERK11QModelIndex@Base 4:4.4.0
 _ZNK7Akonadi25EntityMimeTypeFilterModel11hasChildrenERK11QModelIndex@Base 4:4.4.0
 _ZNK7Akonadi25EntityMimeTypeFilterModel12canFetchMoreERK11QModelIndex@Base 4:4.4.0
 _ZNK7Akonadi25EntityMimeTypeFilterModel16filterAcceptsRowEiRK11QModelIndex@Base 4:4.4.0
 _ZNK7Akonadi25EntityMimeTypeFilterModel19filterAcceptsColumnEiRK11QModelIndex@Base 4:4.8.1
 _ZNK7Akonadi25EntityMimeTypeFilterModel24mimeTypeExclusionFiltersEv@Base 4:4.4.0
 _ZNK7Akonadi25EntityMimeTypeFilterModel24mimeTypeInclusionFiltersEv@Base 4:4.4.0
 _ZNK7Akonadi25EntityMimeTypeFilterModel5matchERK11QModelIndexiRK8QVarianti6QFlagsIN2Qt9MatchFlagEE@Base 4:4.4.0
 _ZNK7Akonadi25PersistentSearchAttribute10serializedEv@Base 4:4.5.0
 _ZNK7Akonadi25PersistentSearchAttribute11queryStringEv@Base 4:4.5.0
 _ZNK7Akonadi25PersistentSearchAttribute13queryLanguageEv@Base 4:4.5.0
 _ZNK7Akonadi25PersistentSearchAttribute4typeEv@Base 4:4.5.0
 _ZNK7Akonadi25PersistentSearchAttribute5cloneEv@Base 4:4.5.0
 _ZNK7Akonadi25SpecialCollectionsPrivate15defaultResourceEv@Base 4:4.10.1
 _ZNK7Akonadi25SpecialCollectionsPrivate17defaultResourceIdEv@Base 4:4.10.1
 _ZNK7Akonadi26CollectionFilterProxyModel10metaObjectEv@Base 4:4.3.4
 _ZNK7Akonadi26CollectionFilterProxyModel15mimeTypeFiltersEv@Base 4:4.3.4
 _ZNK7Akonadi26CollectionFilterProxyModel16filterAcceptsRowEiRK11QModelIndex@Base 4:4.3.4
 _ZNK7Akonadi26CollectionFilterProxyModel5flagsERK11QModelIndex@Base 4:4.4.0
 _ZNK7Akonadi26CollectionPropertiesDialog10metaObjectEv@Base 4:4.3.4
 _ZNK7Akonadi26ResourceSynchronizationJob10metaObjectEv@Base 4:4.4.0
 _ZNK7Akonadi26ResourceSynchronizationJob18collectionTreeOnlyEv@Base 4:4.8.1
 _ZNK7Akonadi26ResourceSynchronizationJob8resourceEv@Base 4:4.4.0
 _ZNK7Akonadi26SpecialCollectionAttribute10serializedEv@Base 4:4.4.0
 _ZNK7Akonadi26SpecialCollectionAttribute14collectionTypeEv@Base 4:4.4.0
 _ZNK7Akonadi26SpecialCollectionAttribute4typeEv@Base 4:4.4.0
 _ZNK7Akonadi26SpecialCollectionAttribute5cloneEv@Base 4:4.4.0
 _ZNK7Akonadi28CollectionStatisticsDelegate10metaObjectEv@Base 4:4.3.4
 _ZNK7Akonadi28CollectionStatisticsDelegate15initStyleOptionEP20QStyleOptionViewItemRK11QModelIndex@Base 4:4.3.4
 _ZNK7Akonadi28CollectionStatisticsDelegate16unreadCountShownEv@Base 4:4.3.4
 _ZNK7Akonadi28CollectionStatisticsDelegate24progressAnimationEnabledEv@Base 4:4.5.0
 _ZNK7Akonadi28CollectionStatisticsDelegate5paintEP8QPainterRK20QStyleOptionViewItemRK11QModelIndex@Base 4:4.3.4
 _ZNK7Akonadi28SpecialCollectionsRequestJob10collectionEv@Base 4:4.4.0
 _ZNK7Akonadi28SpecialCollectionsRequestJob10metaObjectEv@Base 4:4.4.0
 _ZNK7Akonadi35RecursiveCollectionFilterProxyModel10metaObjectEv@Base 4:4.5.86
 _ZNK7Akonadi35RecursiveCollectionFilterProxyModel11columnCountERK11QModelIndex@Base 4:4.8.1
 _ZNK7Akonadi35RecursiveCollectionFilterProxyModel31contentMimeTypeInclusionFiltersEv@Base 4:4.5.86
 _ZNK7Akonadi35RecursiveCollectionFilterProxyModel9acceptRowEiRK11QModelIndex@Base 4:4.5.86
 _ZNK7Akonadi38CollectionAttributesSynchronizationJob10metaObjectEv@Base 4:4.5.86
 _ZNK7Akonadi3Job10metaObjectEv@Base 4:4.3.4
 _ZNK7Akonadi3Job11errorStringEv@Base 4:4.3.4
 _ZNK7Akonadi4Item10hasPayloadEv@Base 4:4.3.4
 _ZNK7Akonadi4Item11payloadBaseEv@Base 4:4.3.4
 _ZNK7Akonadi4Item11payloadDataEv@Base 4:4.3.4
 _ZNK7Akonadi4Item11payloadImplI10QByteArrayEEN5boost12disable_if_cIXsrNS_8Internal12PayloadTraitIT_EE13isPolymorphicES7_E4typeEv@Base 4:4.5.86
 _ZNK7Akonadi4Item11payloadImplISsEEN5boost12disable_if_cIXsrNS_8Internal12PayloadTraitIT_EE13isPolymorphicES6_E4typeEv@Base 4:4.5.86
 _ZNK7Akonadi4Item13payloadBaseV2Eii@Base 4:4.5.86
 _ZNK7Akonadi4Item16ensureMetaTypeIdEi@Base 4:4.5.86
 _ZNK7Akonadi4Item16modificationTimeEv@Base 4:4.3.4
 _ZNK7Akonadi4Item18loadedPayloadPartsEv@Base 4:4.3.4
 _ZNK7Akonadi4Item19storageCollectionIdEv@Base 4:4.3.4
 _ZNK7Akonadi4Item21addPayloadBaseVariantEiiSt8auto_ptrINS_11PayloadBaseEE@Base 4:4.5.86
 _ZNK7Akonadi4Item21availablePayloadPartsEv@Base 4:4.4.0
 _ZNK7Akonadi4Item21throwPayloadExceptionEii@Base 4:4.5.86
 _ZNK7Akonadi4Item27availablePayloadMetaTypeIdsEv@Base 4:4.5.86
 _ZNK7Akonadi4Item3urlENS0_7UrlTypeE@Base 4:4.3.4
 _ZNK7Akonadi4Item4sizeEv@Base 4:4.3.4
 _ZNK7Akonadi4Item5flagsEv@Base 4:4.3.4
 _ZNK7Akonadi4Item6d_funcEv@Base 4:4.3.4
 _ZNK7Akonadi4Item7hasFlagERK10QByteArray@Base 4:4.3.4
 _ZNK7Akonadi4Item8mimeTypeEv@Base 4:4.3.4
 _ZNK7Akonadi4Item8revisionEv@Base 4:4.3.4
 _ZNK7Akonadi6Entity10attributesEv@Base 4:4.3.4
 _ZNK7Akonadi6Entity12hasAttributeERK10QByteArray@Base 4:4.3.4
 _ZNK7Akonadi6Entity12hasAttributeINS_21EntityHiddenAttributeEEEbv@Base 4:4.7.4
 _ZNK7Akonadi6Entity14remoteRevisionEv@Base 4:4.5.0
 _ZNK7Akonadi6Entity16parentCollectionEv@Base 4:4.4.0
 _ZNK7Akonadi6Entity2idEv@Base 4:4.3.4
 _ZNK7Akonadi6Entity6d_funcEv@Base 4:4.3.4
 _ZNK7Akonadi6Entity7isValidEv@Base 4:4.3.4
 _ZNK7Akonadi6Entity8remoteIdEv@Base 4:4.3.4
 _ZNK7Akonadi6Entity9attributeERK10QByteArray@Base 4:4.3.4
 _ZNK7Akonadi6Entity9attributeINS_22EntityDisplayAttributeEEEPT_v@Base 4:4.3.4
 _ZNK7Akonadi6EntityeqERKS0_@Base 4:4.3.4
 _ZNK7Akonadi6EntityltERKS0_@Base 4:4.8.1
 _ZNK7Akonadi6EntityneERKS0_@Base 4:4.3.4
 _ZNK7Akonadi7Control10metaObjectEv@Base 4:4.3.4
 _ZNK7Akonadi7LinkJob10metaObjectEv@Base 4:4.3.4
 _ZNK7Akonadi7Monitor10metaObjectEv@Base 4:4.3.4
 _ZNK7Akonadi7Monitor14isAllMonitoredEv@Base 4:4.3.4
 _ZNK7Akonadi7Monitor14itemsMonitoredEv@Base 4:4.3.4
 _ZNK7Akonadi7Monitor16itemsMonitoredExEv@Base 4:4.5.86
 _ZNK7Akonadi7Monitor18mimeTypesMonitoredEv@Base 4:4.3.4
 _ZNK7Akonadi7Monitor18resourcesMonitoredEv@Base 4:4.3.4
 _ZNK7Akonadi7Monitor20collectionsMonitoredEv@Base 4:4.3.4
 _ZNK7Akonadi7Monitor7sessionEv@Base 4:4.4.0
 _ZNK7Akonadi7Session10metaObjectEv@Base 4:4.3.4
 _ZNK7Akonadi7Session9sessionIdEv@Base 4:4.3.4
 _ZNK7Akonadi8ItemSync10metaObjectEv@Base 4:4.3.4
 _ZNK7Akonadi8ItemSync7Private12subjobParentEv@Base 4:4.3.4
 _ZNK7Akonadi8ItemView10metaObjectEv@Base 4:4.3.4
 _ZNK7Akonadi8TrashJob10metaObjectEv@Base 4:4.8.1
 _ZNK7Akonadi8TrashJob5itemsEv@Base 4:4.8.1
 _ZNK7Akonadi9AgentBase10identifierEv@Base 4:4.3.4
 _ZNK7Akonadi9AgentBase10metaObjectEv@Base 4:4.3.4
 _ZNK7Akonadi9AgentBase13statusMessageEv@Base 4:4.3.4
 _ZNK7Akonadi9AgentBase14changeRecorderEv@Base 4:4.3.4
 _ZNK7Akonadi9AgentBase15progressMessageEv@Base 4:4.3.4
 _ZNK7Akonadi9AgentBase15winIdForDialogsEv@Base 4:4.3.4
 _ZNK7Akonadi9AgentBase6statusEv@Base 4:4.3.4
 _ZNK7Akonadi9AgentBase8isOnlineEv@Base 4:4.3.4
 _ZNK7Akonadi9AgentBase8progressEv@Base 4:4.3.4
 _ZNK7Akonadi9AgentBase9agentNameEv@Base 4:4.3.4
 _ZNK7Akonadi9AgentType10identifierEv@Base 4:4.3.4
 _ZNK7Akonadi9AgentType11descriptionEv@Base 4:4.3.4
 _ZNK7Akonadi9AgentType12capabilitiesEv@Base 4:4.3.4
 _ZNK7Akonadi9AgentType4iconEv@Base 4:4.3.4
 _ZNK7Akonadi9AgentType4nameEv@Base 4:4.3.4
 _ZNK7Akonadi9AgentType7isValidEv@Base 4:4.3.4
 _ZNK7Akonadi9AgentType8iconNameEv@Base 4:4.3.4
 _ZNK7Akonadi9AgentType9mimeTypesEv@Base 4:4.3.4
 _ZNK7Akonadi9AgentTypeeqERKS0_@Base 4:4.3.4
 _ZNK7Akonadi9Exception4typeEv@Base 4:4.3.4
 _ZNK7Akonadi9Exception4whatEv@Base 4:4.3.4
 _ZNK7Akonadi9ItemModel10collectionEv@Base 4:4.3.4
 _ZNK7Akonadi9ItemModel10headerDataEiN2Qt11OrientationEi@Base 4:4.3.4
 _ZNK7Akonadi9ItemModel10metaObjectEv@Base 4:4.3.4
 _ZNK7Akonadi9ItemModel11columnCountERK11QModelIndex@Base 4:4.3.4
 _ZNK7Akonadi9ItemModel12indexForItemERKNS_4ItemEi@Base 4:4.3.4
 _ZNK7Akonadi9ItemModel12itemForIndexERK11QModelIndex@Base 4:4.3.4
 _ZNK7Akonadi9ItemModel20supportedDropActionsEv@Base 4:4.4.0
 _ZNK7Akonadi9ItemModel4dataERK11QModelIndexi@Base 4:4.3.4
 _ZNK7Akonadi9ItemModel5flagsERK11QModelIndex@Base 4:4.3.4
 _ZNK7Akonadi9ItemModel7Private22collectionIsCompatibleEv@Base 4:4.3.4
 _ZNK7Akonadi9ItemModel7sessionEv@Base 4:4.3.4
 _ZNK7Akonadi9ItemModel8mimeDataERK5QListI11QModelIndexE@Base 4:4.3.4
 _ZNK7Akonadi9ItemModel8rowCountERK11QModelIndex@Base 4:4.3.4
 _ZNK7Akonadi9ItemModel9mimeTypesEv@Base 4:4.3.4
 _ZNK7Akonadi9UnlinkJob10metaObjectEv@Base 4:4.3.4
 _ZNSt8auto_ptrIN7Akonadi9Exception7PrivateEED1Ev@Base 4:4.5.86
 _ZNSt8auto_ptrIN7Akonadi9Exception7PrivateEED2Ev@Base 4:4.6.1
 _ZTIN5boost16exception_detail10clone_baseE@Base 4:4.10.1
 _ZTIN5boost9exceptionE@Base 4:4.7.4
 _ZTIN7Akonadi10GetLockJobE@Base 4:4.10.1
 _ZTIN7Akonadi11ItemCopyJobE@Base 4:4.3.4
 _ZTIN7Akonadi11ItemMonitor7PrivateE@Base 4:4.3.4
 _ZTIN7Akonadi11ItemMonitorE@Base 4:4.3.4
 _ZTIN7Akonadi11ItemMoveJobE@Base 4:4.3.4
 _ZTIN7Akonadi11PartFetcherE@Base 4:4.4.0
 _ZTIN7Akonadi12AgentManagerE@Base 4:4.3.4
 _ZTIN7Akonadi12ItemFetchJobE@Base 4:4.3.4
 _ZTIN7Akonadi12ResourceBaseE@Base 4:4.3.4
 _ZTIN7Akonadi13ItemCreateJobE@Base 4:4.3.4
 _ZTIN7Akonadi13ItemDeleteJobE@Base 4:4.3.4
 _ZTIN7Akonadi13ItemModifyJobE@Base 4:4.3.4
 _ZTIN7Akonadi13ItemSearchJobE@Base 4:4.4.0
 _ZTIN7Akonadi13ServerManagerE@Base 4:4.3.4
 _ZTIN7Akonadi14AgentTypeModelE@Base 4:4.3.4
 _ZTIN7Akonadi14ChangeRecorderE@Base 4:4.3.4
 _ZTIN7Akonadi14CollectionViewE@Base 4:4.3.4
 _ZTIN7Akonadi14EntityListViewE@Base 4:4.4.0
 _ZTIN7Akonadi14EntityTreeViewE@Base 4:4.4.0
 _ZTIN7Akonadi14MonitorPrivateE@Base 4:4.10.1
 _ZTIN7Akonadi14SelfTestDialogE@Base 4:4.10.1
 _ZTIN7Akonadi14SessionPrivateE@Base 4:4.10.1
 _ZTIN7Akonadi15AgentTypeDialogE@Base 4:4.3.4
 _ZTIN7Akonadi15AgentTypeWidgetE@Base 4:4.3.4
 _ZTIN7Akonadi15CachePolicyPageE@Base 4:4.5.86
 _ZTIN7Akonadi15CollectionModelE@Base 4:4.3.4
 _ZTIN7Akonadi15EntityCacheBaseE@Base 4:4.10.1
 _ZTIN7Akonadi15EntityTreeModelE@Base 4:4.4.0
 _ZTIN7Akonadi15ResourceScanJobE@Base 4:4.10.1
 _ZTIN7Akonadi15SearchCreateJobE@Base 4:4.3.4
 _ZTIN7Akonadi15SubscriptionJobE@Base 4:4.3.4
 _ZTIN7Akonadi15TrashRestoreJob22TrashRestoreJobPrivateE@Base 4:4.8.1
 _ZTIN7Akonadi15TrashRestoreJobE@Base 4:4.8.1
 _ZTIN7Akonadi16AgentFactoryBaseE@Base 4:4.5.86
 _ZTIN7Akonadi16CollectionDialogE@Base 4:4.3.4
 _ZTIN7Akonadi16PayloadExceptionE@Base 4:4.5.86
 _ZTIN7Akonadi16PreprocessorBaseE@Base 4:4.4.0
 _ZTIN7Akonadi16ResourceSettingsE@Base 4:4.5.86
 _ZTIN7Akonadi17CollectionCopyJobE@Base 4:4.3.4
 _ZTIN7Akonadi17CollectionMoveJobE@Base 4:4.3.4
 _ZTIN7Akonadi17ETMViewStateSaverE@Base 4:4.5.86
 _ZTIN7Akonadi17ResourceSelectJobE@Base 4:4.10.1
 _ZTIN7Akonadi18AgentActionManagerE@Base 4:4.5.86
 _ZTIN7Akonadi18AgentInstanceModelE@Base 4:4.3.4
 _ZTIN7Akonadi18CollectionComboBoxE@Base 4:4.4.0
 _ZTIN7Akonadi18CollectionFetchJobE@Base 4:4.3.4
 _ZTIN7Akonadi18DefaultResourceJobE@Base 4:4.10.1
 _ZTIN7Akonadi18SpecialCollectionsE@Base 4:4.4.0
 _ZTIN7Akonadi18SubscriptionDialogE@Base 4:4.3.4
 _ZTIN7Akonadi19AgentInstanceWidgetE@Base 4:4.3.4
 _ZTIN7Akonadi19CollectionCreateJobE@Base 4:4.3.4
 _ZTIN7Akonadi19CollectionDeleteJobE@Base 4:4.3.4
 _ZTIN7Akonadi19CollectionModifyJobE@Base 4:4.3.4
 _ZTIN7Akonadi19CollectionRequesterE@Base 4:4.3.4
 _ZTIN7Akonadi19CollectionSelectJobE@Base 4:4.3.4
 _ZTIN7Akonadi19SelectionProxyModelE@Base 4:4.4.0
 _ZTIN7Akonadi19TransactionBeginJobE@Base 4:4.3.4
 _ZTIN7Akonadi19TransactionSequenceE@Base 4:4.3.4
 _ZTIN7Akonadi20AgentSearchInterfaceE@Base 4:4.5.0
 _ZTIN7Akonadi20IndexPolicyAttributeE@Base 4:4.5.86
 _ZTIN7Akonadi20ItemSerializerPluginE@Base 4:4.3.4
 _ZTIN7Akonadi20ResourceBaseSettingsE@Base 4:4.5.86
 _ZTIN7Akonadi20StatisticsProxyModelE@Base 4:4.4.0
 _ZTIN7Akonadi20TransactionCommitJobE@Base 4:4.3.4
 _ZTIN7Akonadi21AgentFilterProxyModelE@Base 4:4.3.4
 _ZTIN7Akonadi21ChangeRecorderPrivateE@Base 4:4.10.1
 _ZTIN7Akonadi21EntityHiddenAttributeE@Base 4:4.4.0
 _ZTIN7Akonadi21EntityOrderProxyModelE@Base 4:4.5.86
 _ZTIN7Akonadi21RecursiveItemFetchJobE@Base 4:4.5.86
 _ZTIN7Akonadi21StandardActionManagerE@Base 4:4.3.4
 _ZTIN7Akonadi21TransportResourceBaseE@Base 4:4.4.0
 _ZTIN7Akonadi21TrashFilterProxyModelE@Base 4:4.8.1
 _ZTIN7Akonadi22AgentInstanceCreateJobE@Base 4:4.3.4
 _ZTIN7Akonadi22CollectionPathResolverE@Base 4:4.3.4
 _ZTIN7Akonadi22EntityDeletedAttributeE@Base 4:4.8.1
 _ZTIN7Akonadi22EntityDisplayAttributeE@Base 4:4.3.4
 _ZTIN7Akonadi22ItemSerializerPluginV2E@Base 4:4.4.0
 _ZTIN7Akonadi22TransactionRollbackJobE@Base 4:4.3.4
 _ZTIN7Akonadi23CollectionStatisticsJobE@Base 4:4.3.4
 _ZTIN7Akonadi23EntityRightsFilterModelE@Base 4:4.5.86
 _ZTIN7Akonadi24CollectionPropertiesPageE@Base 4:4.3.4
 _ZTIN7Akonadi24CollectionQuotaAttributeE@Base 4:4.4.0
 _ZTIN7Akonadi24EntityTreeViewStateSaverE@Base 4:4.4.0
 _ZTIN7Akonadi24FavoriteCollectionsModelE@Base 4:4.4.0
 _ZTIN7Akonadi25CollectionRightsAttributeE@Base 4:4.3.4
 _ZTIN7Akonadi25CollectionStatisticsModelE@Base 4:4.3.4
 _ZTIN7Akonadi25EntityMimeTypeFilterModelE@Base 4:4.4.0
 _ZTIN7Akonadi25PersistentSearchAttributeE@Base 4:4.5.0
 _ZTIN7Akonadi26CollectionFilterProxyModelE@Base 4:4.3.4
 _ZTIN7Akonadi26CollectionPropertiesDialogE@Base 4:4.3.4
 _ZTIN7Akonadi26ResourceSynchronizationJobE@Base 4:4.4.0
 _ZTIN7Akonadi26SpecialCollectionAttributeE@Base 4:4.4.0
 _ZTIN7Akonadi28CollectionStatisticsDelegateE@Base 4:4.3.4
 _ZTIN7Akonadi28SpecialCollectionsRequestJobE@Base 4:4.4.0
 _ZTIN7Akonadi31CollectionPropertiesPageFactoryE@Base 4:4.3.4
 _ZTIN7Akonadi35RecursiveCollectionFilterProxyModelE@Base 4:4.5.86
 _ZTIN7Akonadi37ChangeNotificationDependenciesFactoryE@Base 4:4.10.1
 _ZTIN7Akonadi38CollectionAttributesSynchronizationJobE@Base 4:4.5.86
 _ZTIN7Akonadi3JobE@Base 4:4.3.4
 _ZTIN7Akonadi7ControlE@Base 4:4.3.4
 _ZTIN7Akonadi7LinkJobE@Base 4:4.3.4
 _ZTIN7Akonadi7MonitorE@Base 4:4.3.4
 _ZTIN7Akonadi7SessionE@Base 4:4.3.4
 _ZTIN7Akonadi8ItemSyncE@Base 4:4.3.4
 _ZTIN7Akonadi8ItemViewE@Base 4:4.3.4
 _ZTIN7Akonadi8TrashJob15TrashJobPrivateE@Base 4:4.8.1
 _ZTIN7Akonadi8TrashJobE@Base 4:4.8.1
 _ZTIN7Akonadi9AgentBase10ObserverV2E@Base 4:4.4.0
 _ZTIN7Akonadi9AgentBase8ObserverE@Base 4:4.3.4
 _ZTIN7Akonadi9AgentBaseE@Base 4:4.3.4
 _ZTIN7Akonadi9AttributeE@Base 4:4.3.4
 _ZTIN7Akonadi9ExceptionE@Base 4:4.3.4
 _ZTIN7Akonadi9ItemModelE@Base 4:4.3.4
 _ZTIN7Akonadi9UnlinkJobE@Base 4:4.3.4
 _ZTSN5boost16exception_detail10clone_baseE@Base 4:4.10.1
 _ZTSN5boost9exceptionE@Base 4:4.7.4
 _ZTSN7Akonadi10GetLockJobE@Base 4:4.10.1
 _ZTSN7Akonadi11ItemCopyJobE@Base 4:4.3.4
 _ZTSN7Akonadi11ItemMonitor7PrivateE@Base 4:4.3.4
 _ZTSN7Akonadi11ItemMonitorE@Base 4:4.3.4
 _ZTSN7Akonadi11ItemMoveJobE@Base 4:4.3.4
 _ZTSN7Akonadi11PartFetcherE@Base 4:4.4.0
 _ZTSN7Akonadi12AgentManagerE@Base 4:4.3.4
 _ZTSN7Akonadi12ItemFetchJobE@Base 4:4.3.4
 _ZTSN7Akonadi12ResourceBaseE@Base 4:4.3.4
 _ZTSN7Akonadi13ItemCreateJobE@Base 4:4.3.4
 _ZTSN7Akonadi13ItemDeleteJobE@Base 4:4.3.4
 _ZTSN7Akonadi13ItemModifyJobE@Base 4:4.3.4
 _ZTSN7Akonadi13ItemSearchJobE@Base 4:4.4.0
 _ZTSN7Akonadi13ServerManagerE@Base 4:4.3.4
 _ZTSN7Akonadi14AgentTypeModelE@Base 4:4.3.4
 _ZTSN7Akonadi14ChangeRecorderE@Base 4:4.3.4
 _ZTSN7Akonadi14CollectionViewE@Base 4:4.3.4
 _ZTSN7Akonadi14EntityListViewE@Base 4:4.4.0
 _ZTSN7Akonadi14EntityTreeViewE@Base 4:4.4.0
 _ZTSN7Akonadi14MonitorPrivateE@Base 4:4.10.1
 _ZTSN7Akonadi14SelfTestDialogE@Base 4:4.10.1
 _ZTSN7Akonadi14SessionPrivateE@Base 4:4.10.1
 _ZTSN7Akonadi15AgentTypeDialogE@Base 4:4.3.4
 _ZTSN7Akonadi15AgentTypeWidgetE@Base 4:4.3.4
 _ZTSN7Akonadi15CachePolicyPageE@Base 4:4.5.86
 _ZTSN7Akonadi15CollectionModelE@Base 4:4.3.4
 _ZTSN7Akonadi15EntityCacheBaseE@Base 4:4.10.1
 _ZTSN7Akonadi15EntityTreeModelE@Base 4:4.4.0
 _ZTSN7Akonadi15ResourceScanJobE@Base 4:4.10.1
 _ZTSN7Akonadi15SearchCreateJobE@Base 4:4.3.4
 _ZTSN7Akonadi15SubscriptionJobE@Base 4:4.3.4
 _ZTSN7Akonadi15TrashRestoreJob22TrashRestoreJobPrivateE@Base 4:4.8.1
 _ZTSN7Akonadi15TrashRestoreJobE@Base 4:4.8.1
 _ZTSN7Akonadi16AgentFactoryBaseE@Base 4:4.5.86
 _ZTSN7Akonadi16CollectionDialogE@Base 4:4.3.4
 _ZTSN7Akonadi16PayloadExceptionE@Base 4:4.5.86
 _ZTSN7Akonadi16PreprocessorBaseE@Base 4:4.4.0
 _ZTSN7Akonadi16ResourceSettingsE@Base 4:4.5.86
 _ZTSN7Akonadi17CollectionCopyJobE@Base 4:4.3.4
 _ZTSN7Akonadi17CollectionMoveJobE@Base 4:4.3.4
 _ZTSN7Akonadi17ETMViewStateSaverE@Base 4:4.5.86
 _ZTSN7Akonadi17ResourceSelectJobE@Base 4:4.10.1
 _ZTSN7Akonadi18AgentActionManagerE@Base 4:4.5.86
 _ZTSN7Akonadi18AgentInstanceModelE@Base 4:4.3.4
 _ZTSN7Akonadi18CollectionComboBoxE@Base 4:4.4.0
 _ZTSN7Akonadi18CollectionFetchJobE@Base 4:4.3.4
 _ZTSN7Akonadi18DefaultResourceJobE@Base 4:4.10.1
 _ZTSN7Akonadi18SpecialCollectionsE@Base 4:4.4.0
 _ZTSN7Akonadi18SubscriptionDialogE@Base 4:4.3.4
 _ZTSN7Akonadi19AgentInstanceWidgetE@Base 4:4.3.4
 _ZTSN7Akonadi19CollectionCreateJobE@Base 4:4.3.4
 _ZTSN7Akonadi19CollectionDeleteJobE@Base 4:4.3.4
 _ZTSN7Akonadi19CollectionModifyJobE@Base 4:4.3.4
 _ZTSN7Akonadi19CollectionRequesterE@Base 4:4.3.4
 _ZTSN7Akonadi19CollectionSelectJobE@Base 4:4.3.4
 _ZTSN7Akonadi19SelectionProxyModelE@Base 4:4.4.0
 _ZTSN7Akonadi19TransactionBeginJobE@Base 4:4.3.4
 _ZTSN7Akonadi19TransactionSequenceE@Base 4:4.3.4
 _ZTSN7Akonadi20AgentSearchInterfaceE@Base 4:4.5.0
 _ZTSN7Akonadi20IndexPolicyAttributeE@Base 4:4.5.86
 _ZTSN7Akonadi20ItemSerializerPluginE@Base 4:4.3.4
 _ZTSN7Akonadi20ResourceBaseSettingsE@Base 4:4.5.86
 _ZTSN7Akonadi20StatisticsProxyModelE@Base 4:4.4.0
 _ZTSN7Akonadi20TransactionCommitJobE@Base 4:4.3.4
 _ZTSN7Akonadi21AgentFilterProxyModelE@Base 4:4.3.4
 _ZTSN7Akonadi21ChangeRecorderPrivateE@Base 4:4.10.1
 _ZTSN7Akonadi21EntityHiddenAttributeE@Base 4:4.4.0
 _ZTSN7Akonadi21EntityOrderProxyModelE@Base 4:4.5.86
 _ZTSN7Akonadi21RecursiveItemFetchJobE@Base 4:4.5.86
 _ZTSN7Akonadi21StandardActionManagerE@Base 4:4.3.4
 _ZTSN7Akonadi21TransportResourceBaseE@Base 4:4.4.0
 _ZTSN7Akonadi21TrashFilterProxyModelE@Base 4:4.8.1
 _ZTSN7Akonadi22AgentInstanceCreateJobE@Base 4:4.3.4
 _ZTSN7Akonadi22CollectionPathResolverE@Base 4:4.3.4
 _ZTSN7Akonadi22EntityDeletedAttributeE@Base 4:4.8.1
 _ZTSN7Akonadi22EntityDisplayAttributeE@Base 4:4.3.4
 _ZTSN7Akonadi22ItemSerializerPluginV2E@Base 4:4.4.0
 _ZTSN7Akonadi22TransactionRollbackJobE@Base 4:4.3.4
 _ZTSN7Akonadi23CollectionStatisticsJobE@Base 4:4.3.4
 _ZTSN7Akonadi23EntityRightsFilterModelE@Base 4:4.5.86
 _ZTSN7Akonadi24CollectionPropertiesPageE@Base 4:4.3.4
 _ZTSN7Akonadi24CollectionQuotaAttributeE@Base 4:4.4.0
 _ZTSN7Akonadi24EntityTreeViewStateSaverE@Base 4:4.4.0
 _ZTSN7Akonadi24FavoriteCollectionsModelE@Base 4:4.4.0
 _ZTSN7Akonadi25CollectionRightsAttributeE@Base 4:4.3.4
 _ZTSN7Akonadi25CollectionStatisticsModelE@Base 4:4.3.4
 _ZTSN7Akonadi25EntityMimeTypeFilterModelE@Base 4:4.4.0
 _ZTSN7Akonadi25PersistentSearchAttributeE@Base 4:4.5.0
 _ZTSN7Akonadi26CollectionFilterProxyModelE@Base 4:4.3.4
 _ZTSN7Akonadi26CollectionPropertiesDialogE@Base 4:4.3.4
 _ZTSN7Akonadi26ResourceSynchronizationJobE@Base 4:4.4.0
 _ZTSN7Akonadi26SpecialCollectionAttributeE@Base 4:4.4.0
 _ZTSN7Akonadi28CollectionStatisticsDelegateE@Base 4:4.3.4
 _ZTSN7Akonadi28SpecialCollectionsRequestJobE@Base 4:4.4.0
 _ZTSN7Akonadi31CollectionPropertiesPageFactoryE@Base 4:4.3.4
 _ZTSN7Akonadi35RecursiveCollectionFilterProxyModelE@Base 4:4.5.86
 _ZTSN7Akonadi37ChangeNotificationDependenciesFactoryE@Base 4:4.10.1
 _ZTSN7Akonadi38CollectionAttributesSynchronizationJobE@Base 4:4.5.86
 _ZTSN7Akonadi3JobE@Base 4:4.3.4
 _ZTSN7Akonadi7ControlE@Base 4:4.3.4
 _ZTSN7Akonadi7LinkJobE@Base 4:4.3.4
 _ZTSN7Akonadi7MonitorE@Base 4:4.3.4
 _ZTSN7Akonadi7SessionE@Base 4:4.3.4
 _ZTSN7Akonadi8ItemSyncE@Base 4:4.3.4
 _ZTSN7Akonadi8ItemViewE@Base 4:4.3.4
 _ZTSN7Akonadi8TrashJob15TrashJobPrivateE@Base 4:4.8.1
 _ZTSN7Akonadi8TrashJobE@Base 4:4.8.1
 _ZTSN7Akonadi9AgentBase10ObserverV2E@Base 4:4.4.0
 _ZTSN7Akonadi9AgentBase8ObserverE@Base 4:4.3.4
 _ZTSN7Akonadi9AgentBaseE@Base 4:4.3.4
 _ZTSN7Akonadi9AttributeE@Base 4:4.3.4
 _ZTSN7Akonadi9ExceptionE@Base 4:4.3.4
 _ZTSN7Akonadi9ItemModelE@Base 4:4.3.4
 _ZTSN7Akonadi9UnlinkJobE@Base 4:4.3.4
 _ZTVN5boost16exception_detail10clone_baseE@Base 4:4.10.1
 _ZTVN5boost9exceptionE@Base 4:4.7.4
 _ZTVN7Akonadi10GetLockJobE@Base 4:4.10.1
 _ZTVN7Akonadi11ItemCopyJobE@Base 4:4.3.4
 _ZTVN7Akonadi11ItemMonitor7PrivateE@Base 4:4.3.4
 _ZTVN7Akonadi11ItemMonitorE@Base 4:4.3.4
 _ZTVN7Akonadi11ItemMoveJobE@Base 4:4.3.4
 _ZTVN7Akonadi11PartFetcherE@Base 4:4.4.0
 _ZTVN7Akonadi12AgentManagerE@Base 4:4.3.4
 _ZTVN7Akonadi12ItemFetchJobE@Base 4:4.3.4
 _ZTVN7Akonadi12ResourceBaseE@Base 4:4.3.4
 _ZTVN7Akonadi13ItemCreateJobE@Base 4:4.3.4
 _ZTVN7Akonadi13ItemDeleteJobE@Base 4:4.3.4
 _ZTVN7Akonadi13ItemModifyJobE@Base 4:4.3.4
 _ZTVN7Akonadi13ItemSearchJobE@Base 4:4.4.0
 _ZTVN7Akonadi13ServerManagerE@Base 4:4.3.4
 _ZTVN7Akonadi14AgentTypeModelE@Base 4:4.3.4
 _ZTVN7Akonadi14ChangeRecorderE@Base 4:4.3.4
 _ZTVN7Akonadi14CollectionViewE@Base 4:4.3.4
 _ZTVN7Akonadi14EntityListViewE@Base 4:4.4.0
 _ZTVN7Akonadi14EntityTreeViewE@Base 4:4.4.0
 _ZTVN7Akonadi14MonitorPrivateE@Base 4:4.10.1
 _ZTVN7Akonadi14SelfTestDialogE@Base 4:4.10.1
 _ZTVN7Akonadi14SessionPrivateE@Base 4:4.10.1
 _ZTVN7Akonadi15AgentTypeDialogE@Base 4:4.3.4
 _ZTVN7Akonadi15AgentTypeWidgetE@Base 4:4.3.4
 _ZTVN7Akonadi15CachePolicyPageE@Base 4:4.5.86
 _ZTVN7Akonadi15CollectionModelE@Base 4:4.3.4
 _ZTVN7Akonadi15EntityCacheBaseE@Base 4:4.10.1
 _ZTVN7Akonadi15EntityTreeModelE@Base 4:4.4.0
 _ZTVN7Akonadi15ResourceScanJobE@Base 4:4.10.1
 _ZTVN7Akonadi15SearchCreateJobE@Base 4:4.3.4
 _ZTVN7Akonadi15SubscriptionJobE@Base 4:4.3.4
 _ZTVN7Akonadi15TrashRestoreJob22TrashRestoreJobPrivateE@Base 4:4.8.1
 _ZTVN7Akonadi15TrashRestoreJobE@Base 4:4.8.1
 _ZTVN7Akonadi16AgentFactoryBaseE@Base 4:4.5.86
 _ZTVN7Akonadi16CollectionDialogE@Base 4:4.3.4
 _ZTVN7Akonadi16PayloadExceptionE@Base 4:4.5.86
 _ZTVN7Akonadi16PreprocessorBaseE@Base 4:4.4.0
 _ZTVN7Akonadi16ResourceSettingsE@Base 4:4.5.86
 _ZTVN7Akonadi17CollectionCopyJobE@Base 4:4.3.4
 _ZTVN7Akonadi17CollectionMoveJobE@Base 4:4.3.4
 _ZTVN7Akonadi17ETMViewStateSaverE@Base 4:4.5.86
 _ZTVN7Akonadi17ResourceSelectJobE@Base 4:4.10.1
 _ZTVN7Akonadi18AgentActionManagerE@Base 4:4.5.86
 _ZTVN7Akonadi18AgentInstanceModelE@Base 4:4.3.4
 _ZTVN7Akonadi18CollectionComboBoxE@Base 4:4.4.0
 _ZTVN7Akonadi18CollectionFetchJobE@Base 4:4.3.4
 _ZTVN7Akonadi18DefaultResourceJobE@Base 4:4.10.1
 _ZTVN7Akonadi18SpecialCollectionsE@Base 4:4.4.0
 _ZTVN7Akonadi18SubscriptionDialogE@Base 4:4.3.4
 _ZTVN7Akonadi19AgentInstanceWidgetE@Base 4:4.3.4
 _ZTVN7Akonadi19CollectionCreateJobE@Base 4:4.3.4
 _ZTVN7Akonadi19CollectionDeleteJobE@Base 4:4.3.4
 _ZTVN7Akonadi19CollectionModifyJobE@Base 4:4.3.4
 _ZTVN7Akonadi19CollectionRequesterE@Base 4:4.3.4
 _ZTVN7Akonadi19CollectionSelectJobE@Base 4:4.3.4
 _ZTVN7Akonadi19SelectionProxyModelE@Base 4:4.4.0
 _ZTVN7Akonadi19TransactionBeginJobE@Base 4:4.3.4
 _ZTVN7Akonadi19TransactionSequenceE@Base 4:4.3.4
 _ZTVN7Akonadi20AgentSearchInterfaceE@Base 4:4.5.0
 _ZTVN7Akonadi20IndexPolicyAttributeE@Base 4:4.5.86
 _ZTVN7Akonadi20ItemSerializerPluginE@Base 4:4.3.4
 _ZTVN7Akonadi20ResourceBaseSettingsE@Base 4:4.5.86
 _ZTVN7Akonadi20StatisticsProxyModelE@Base 4:4.4.0
 _ZTVN7Akonadi20TransactionCommitJobE@Base 4:4.3.4
 _ZTVN7Akonadi21AgentFilterProxyModelE@Base 4:4.3.4
 _ZTVN7Akonadi21ChangeRecorderPrivateE@Base 4:4.10.1
 _ZTVN7Akonadi21EntityHiddenAttributeE@Base 4:4.4.0
 _ZTVN7Akonadi21EntityOrderProxyModelE@Base 4:4.5.86
 _ZTVN7Akonadi21RecursiveItemFetchJobE@Base 4:4.5.86
 _ZTVN7Akonadi21StandardActionManagerE@Base 4:4.3.4
 _ZTVN7Akonadi21TransportResourceBaseE@Base 4:4.4.0
 _ZTVN7Akonadi21TrashFilterProxyModelE@Base 4:4.8.1
 _ZTVN7Akonadi22AgentInstanceCreateJobE@Base 4:4.3.4
 _ZTVN7Akonadi22CollectionPathResolverE@Base 4:4.3.4
 _ZTVN7Akonadi22EntityDeletedAttributeE@Base 4:4.8.1
 _ZTVN7Akonadi22EntityDisplayAttributeE@Base 4:4.3.4
 _ZTVN7Akonadi22ItemSerializerPluginV2E@Base 4:4.4.0
 _ZTVN7Akonadi22TransactionRollbackJobE@Base 4:4.3.4
 _ZTVN7Akonadi23CollectionStatisticsJobE@Base 4:4.3.4
 _ZTVN7Akonadi23EntityRightsFilterModelE@Base 4:4.5.86
 _ZTVN7Akonadi24CollectionPropertiesPageE@Base 4:4.3.4
 _ZTVN7Akonadi24CollectionQuotaAttributeE@Base 4:4.4.0
 _ZTVN7Akonadi24EntityTreeViewStateSaverE@Base 4:4.4.0
 _ZTVN7Akonadi24FavoriteCollectionsModelE@Base 4:4.4.0
 _ZTVN7Akonadi25CollectionRightsAttributeE@Base 4:4.3.4
 _ZTVN7Akonadi25CollectionStatisticsModelE@Base 4:4.3.4
 _ZTVN7Akonadi25EntityMimeTypeFilterModelE@Base 4:4.4.0
 _ZTVN7Akonadi25PersistentSearchAttributeE@Base 4:4.5.0
 _ZTVN7Akonadi26CollectionFilterProxyModelE@Base 4:4.3.4
 _ZTVN7Akonadi26CollectionPropertiesDialogE@Base 4:4.3.4
 _ZTVN7Akonadi26ResourceSynchronizationJobE@Base 4:4.4.0
 _ZTVN7Akonadi26SpecialCollectionAttributeE@Base 4:4.4.0
 _ZTVN7Akonadi28CollectionStatisticsDelegateE@Base 4:4.3.4
 _ZTVN7Akonadi28SpecialCollectionsRequestJobE@Base 4:4.4.0
 _ZTVN7Akonadi31CollectionPropertiesPageFactoryE@Base 4:4.3.4
 _ZTVN7Akonadi35RecursiveCollectionFilterProxyModelE@Base 4:4.5.86
 _ZTVN7Akonadi37ChangeNotificationDependenciesFactoryE@Base 4:4.10.1
 _ZTVN7Akonadi38CollectionAttributesSynchronizationJobE@Base 4:4.5.86
 _ZTVN7Akonadi3JobE@Base 4:4.3.4
 _ZTVN7Akonadi7ControlE@Base 4:4.3.4
 _ZTVN7Akonadi7LinkJobE@Base 4:4.3.4
 _ZTVN7Akonadi7MonitorE@Base 4:4.3.4
 _ZTVN7Akonadi7SessionE@Base 4:4.3.4
 _ZTVN7Akonadi8ItemSyncE@Base 4:4.3.4
 _ZTVN7Akonadi8ItemViewE@Base 4:4.3.4
 _ZTVN7Akonadi8TrashJob15TrashJobPrivateE@Base 4:4.8.1
 _ZTVN7Akonadi8TrashJobE@Base 4:4.8.1
 _ZTVN7Akonadi9AgentBase10ObserverV2E@Base 4:4.4.0
 _ZTVN7Akonadi9AgentBase8ObserverE@Base 4:4.3.4
 _ZTVN7Akonadi9AgentBaseE@Base 4:4.3.4
 _ZTVN7Akonadi9AttributeE@Base 4:4.3.4
 _ZTVN7Akonadi9ExceptionE@Base 4:4.3.4
 _ZTVN7Akonadi9ItemModelE@Base 4:4.3.4
 _ZTVN7Akonadi9UnlinkJobE@Base 4:4.3.4
 _ZThn16_N7Akonadi14CollectionViewD0Ev@Base 4:4.3.4
 _ZThn16_N7Akonadi14CollectionViewD1Ev@Base 4:4.3.4
 _ZThn16_N7Akonadi14EntityListViewD0Ev@Base 4:4.4.0
 _ZThn16_N7Akonadi14EntityListViewD1Ev@Base 4:4.4.0
 _ZThn16_N7Akonadi14EntityTreeViewD0Ev@Base 4:4.4.0
 _ZThn16_N7Akonadi14EntityTreeViewD1Ev@Base 4:4.4.0
 _ZThn16_N7Akonadi14SelfTestDialogD0Ev@Base 4:4.10.1
 _ZThn16_N7Akonadi14SelfTestDialogD1Ev@Base 4:4.10.1
 _ZThn16_N7Akonadi15AgentTypeDialogD0Ev@Base 4:4.3.4
 _ZThn16_N7Akonadi15AgentTypeDialogD1Ev@Base 4:4.3.4
 _ZThn16_N7Akonadi15AgentTypeWidgetD0Ev@Base 4:4.3.4
 _ZThn16_N7Akonadi15AgentTypeWidgetD1Ev@Base 4:4.3.4
 _ZThn16_N7Akonadi15CachePolicyPageD0Ev@Base 4:4.5.86
 _ZThn16_N7Akonadi15CachePolicyPageD1Ev@Base 4:4.5.86
 _ZThn16_N7Akonadi16CollectionDialogD0Ev@Base 4:4.3.4
 _ZThn16_N7Akonadi16CollectionDialogD1Ev@Base 4:4.3.4
 _ZThn16_N7Akonadi18CollectionComboBoxD0Ev@Base 4:4.4.0
 _ZThn16_N7Akonadi18CollectionComboBoxD1Ev@Base 4:4.4.0
 _ZThn16_N7Akonadi18SubscriptionDialogD0Ev@Base 4:4.3.4
 _ZThn16_N7Akonadi18SubscriptionDialogD1Ev@Base 4:4.3.4
 _ZThn16_N7Akonadi19AgentInstanceWidgetD0Ev@Base 4:4.3.4
 _ZThn16_N7Akonadi19AgentInstanceWidgetD1Ev@Base 4:4.3.4
 _ZThn16_N7Akonadi19CollectionRequesterD0Ev@Base 4:4.3.4
 _ZThn16_N7Akonadi19CollectionRequesterD1Ev@Base 4:4.3.4
 _ZThn16_N7Akonadi24CollectionPropertiesPageD0Ev@Base 4:4.3.4
 _ZThn16_N7Akonadi24CollectionPropertiesPageD1Ev@Base 4:4.3.4
 _ZThn16_N7Akonadi26CollectionPropertiesDialogD0Ev@Base 4:4.3.4
 _ZThn16_N7Akonadi26CollectionPropertiesDialogD1Ev@Base 4:4.3.4
 _ZThn16_N7Akonadi8ItemViewD0Ev@Base 4:4.3.4
 _ZThn16_N7Akonadi8ItemViewD1Ev@Base 4:4.3.4
 _ZThn40_N7Akonadi18CollectionComboBoxD0Ev@Base 4:4.4.0
 _ZThn40_N7Akonadi18CollectionComboBoxD1Ev@Base 4:4.4.0
 _Zls6QDebugRKN7Akonadi10CollectionE@Base 4:4.3.4
 _Zls6QDebugRKN7Akonadi11CachePolicyE@Base 4:4.3.4
 _Zls6QDebugRKN7Akonadi20CollectionStatisticsE@Base 4:4.3.4
