# SymbolsHelper-Confirmed: 4:4.8.3 amd64 armhf hurd-i386 i386 ia64 kfreebsd-amd64 kfreebsd-i386 powerpc s390 s390x
libakonadi-calendar.so.4 libakonadi-calendar4 #MINVER#
 _ZN7Akonadi20FreeBusyProviderBase17freeBusyRetrievedERK7QStringS3_bS3_@Base 4:4.8.1
 _ZN7Akonadi20FreeBusyProviderBaseC1Ev@Base 4:4.8.1
 _ZN7Akonadi20FreeBusyProviderBaseC2Ev@Base 4:4.8.1
 _ZN7Akonadi20FreeBusyProviderBaseD0Ev@Base 4:4.8.1
 _ZN7Akonadi20FreeBusyProviderBaseD1Ev@Base 4:4.8.1
 _ZN7Akonadi20FreeBusyProviderBaseD2Ev@Base 4:4.8.1
 _ZN7Akonadi29StandardCalendarActionManager11qt_metacallEN11QMetaObject4CallEiPPv@Base 4:4.5.86
 _ZN7Akonadi29StandardCalendarActionManager11qt_metacastEPKc@Base 4:4.5.86
 _ZN7Akonadi29StandardCalendarActionManager12createActionENS0_4TypeE@Base 4:4.5.86
 _ZN7Akonadi29StandardCalendarActionManager12createActionENS_21StandardActionManager4TypeE@Base 4:4.5.86
 _ZN7Akonadi29StandardCalendarActionManager13setActionTextENS_21StandardActionManager4TypeERK16KLocalizedString@Base 4:4.5.86
 _ZN7Akonadi29StandardCalendarActionManager14setContextTextENS_21StandardActionManager4TypeENS1_11TextContextERK16KLocalizedString@Base 4:4.5.86
 _ZN7Akonadi29StandardCalendarActionManager14setContextTextENS_21StandardActionManager4TypeENS1_11TextContextERK7QString@Base 4:4.5.86
 _ZN7Akonadi29StandardCalendarActionManager15interceptActionENS0_4TypeEb@Base 4:4.5.86
 _ZN7Akonadi29StandardCalendarActionManager15interceptActionENS_21StandardActionManager4TypeEb@Base 4:4.5.86
 _ZN7Akonadi29StandardCalendarActionManager16createAllActionsEv@Base 4:4.5.86
 _ZN7Akonadi29StandardCalendarActionManager16staticMetaObjectE@Base 4:4.5.86
 _ZN7Akonadi29StandardCalendarActionManager18actionStateUpdatedEv@Base 4:4.5.86
 _ZN7Akonadi29StandardCalendarActionManager21setItemSelectionModelEP19QItemSelectionModel@Base 4:4.5.86
 _ZN7Akonadi29StandardCalendarActionManager27setCollectionSelectionModelEP19QItemSelectionModel@Base 4:4.5.86
 _ZN7Akonadi29StandardCalendarActionManager32setCollectionPropertiesPageNamesERK11QStringList@Base 4:4.5.86
 _ZN7Akonadi29StandardCalendarActionManagerC1EP17KActionCollectionP7QWidget@Base 4:4.5.86
 _ZN7Akonadi29StandardCalendarActionManagerC2EP17KActionCollectionP7QWidget@Base 4:4.5.86
 _ZN7Akonadi29StandardCalendarActionManagerD0Ev@Base 4:4.5.86
 _ZN7Akonadi29StandardCalendarActionManagerD1Ev@Base 4:4.5.86
 _ZN7Akonadi29StandardCalendarActionManagerD2Ev@Base 4:4.5.86
 _ZNK7Akonadi20FreeBusyProviderBase15handlesFreeBusyERK7QStringb@Base 4:4.8.1
 _ZNK7Akonadi29StandardCalendarActionManager10metaObjectEv@Base 4:4.5.86
 _ZNK7Akonadi29StandardCalendarActionManager13selectedItemsEv@Base 4:4.5.86
 _ZNK7Akonadi29StandardCalendarActionManager19selectedCollectionsEv@Base 4:4.5.86
 _ZNK7Akonadi29StandardCalendarActionManager6actionENS0_4TypeE@Base 4:4.5.86
 _ZNK7Akonadi29StandardCalendarActionManager6actionENS_21StandardActionManager4TypeE@Base 4:4.5.86
 (optional=templinst)_ZNK7Akonadi4Item10tryToCloneI14QSharedPointerIN8KCalCore9IncidenceEEEEN5boost9enable_ifINS_8Internal17is_shared_pointerIT_EEbE4typeEPSA_PKi@Base 4:4.5.86
 (optional=templinst)_ZNK7Akonadi4Item11payloadImplI14QSharedPointerIN8KCalCore9IncidenceEEEEN5boost12disable_if_cIXsrNS_8Internal12PayloadTraitIT_EE13isPolymorphicESA_E4typeEv@Base 4:4.5.86
 (optional=templinst)_ZNK7Akonadi4Item14hasPayloadImplI14QSharedPointerIN8KCalCore4TodoEEEEN5boost11enable_if_cIXsrNS_8Internal12PayloadTraitIT_EE13isPolymorphicEbE4typeEPKi@Base 4:4.6.2
 (optional=templinst|arch=amd64 hurd-i386 i386 kfreebsd-amd64 kfreebsd-i386)_ZNK7Akonadi4Item14hasPayloadImplI14QSharedPointerIN8KCalCore9IncidenceEEEEN5boost12disable_if_cIXsrNS_8Internal12PayloadTraitIT_EE13isPolymorphicEbE4typeEv@Base 4:4.7.4
 _ZTIN7Akonadi20FreeBusyProviderBaseE@Base 4:4.8.3
 _ZTIN7Akonadi29StandardCalendarActionManagerE@Base 4:4.5.86
 _ZTSN7Akonadi20FreeBusyProviderBaseE@Base 4:4.8.1
 _ZTSN7Akonadi29StandardCalendarActionManagerE@Base 4:4.5.86
 _ZTVN7Akonadi20FreeBusyProviderBaseE@Base 4:4.8.1
 _ZTVN7Akonadi29StandardCalendarActionManagerE@Base 4:4.5.86
