libakonadi-contact.so.4 libakonadi-contact4 #MINVER#, kdepim-runtime
* Build-Depends-Package: kdepimlibs5-dev
 _ZGVZN7Akonadi13ContactViewer7Private10updateViewERK5QListI8QVariantERK7QStringE13defaultPixmap@Base 4:4.5.0
 _ZGVZN7Akonadi18ContactGroupViewer7PrivateC1EPS0_E11groupPixmap@Base 4:4.5.0
 _ZN19KCoreConfigSkeleton8ItemEnum7Choice2D1Ev@Base 4:4.6.5
 _ZN19KCoreConfigSkeleton8ItemEnum7Choice2D2Ev@Base 4:4.6.5
 _ZN5KMime5Types7MailboxD1Ev@Base 4:4.7.4
 _ZN5KMime5Types7MailboxD2Ev@Base 4:4.7.4
 _ZN7Akonadi13ContactEditor11loadContactERKNS_4ItemE@Base 4:4.4.0
 _ZN7Akonadi13ContactEditor11qt_metacallEN11QMetaObject4CallEiPPv@Base 4:4.4.0
 _ZN7Akonadi13ContactEditor11qt_metacastEPKc@Base 4:4.4.0
 _ZN7Akonadi13ContactEditor11saveContactEv@Base 4:4.4.0
 _ZN7Akonadi13ContactEditor13contactStoredERKNS_4ItemE@Base 4:4.4.0
 _ZN7Akonadi13ContactEditor16staticMetaObjectE@Base 4:4.4.0
 _ZN7Akonadi13ContactEditor18setContactTemplateERKN4KABC9AddresseeE@Base 4:4.4.0
 _ZN7Akonadi13ContactEditor21setDefaultAddressBookERKNS_10CollectionE@Base 4:4.4.0
 _ZN7Akonadi13ContactEditor5errorERK7QString@Base 4:4.4.0
 _ZN7Akonadi13ContactEditor7Private11itemChangedERKNS_4ItemERK4QSetI10QByteArrayE@Base 4:4.4.0
 _ZN7Akonadi13ContactEditor7Private11loadContactERKN4KABC9AddresseeERKNS_15ContactMetaDataE@Base 4:4.4.0
 _ZN7Akonadi13ContactEditor7Private12setupMonitorEv@Base 4:4.4.0
 _ZN7Akonadi13ContactEditor7Private12storeContactERN4KABC9AddresseeERNS_15ContactMetaDataE@Base 4:4.4.0
 _ZN7Akonadi13ContactEditor7Private13itemFetchDoneEP4KJob@Base 4:4.4.0
 _ZN7Akonadi13ContactEditor7Private25parentCollectionFetchDoneEP4KJob@Base 4:4.4.0
 _ZN7Akonadi13ContactEditor7Private9storeDoneEP4KJob@Base 4:4.4.0
 _ZN7Akonadi13ContactEditor7contactEv@Base 4:4.10.1
 _ZN7Akonadi13ContactEditorC1ENS0_4ModeENS0_11DisplayModeEP7QWidget@Base 4:4.10.1
 _ZN7Akonadi13ContactEditorC1ENS0_4ModeEP7QWidget@Base 4:4.4.0
 _ZN7Akonadi13ContactEditorC1ENS0_4ModeEPNS_27AbstractContactEditorWidgetEP7QWidget@Base 4:4.4.0
 _ZN7Akonadi13ContactEditorC2ENS0_4ModeENS0_11DisplayModeEP7QWidget@Base 4:4.10.1
 _ZN7Akonadi13ContactEditorC2ENS0_4ModeEP7QWidget@Base 4:4.4.0
 _ZN7Akonadi13ContactEditorC2ENS0_4ModeEPNS_27AbstractContactEditorWidgetEP7QWidget@Base 4:4.4.0
 _ZN7Akonadi13ContactEditorD0Ev@Base 4:4.4.0
 _ZN7Akonadi13ContactEditorD1Ev@Base 4:4.4.0
 _ZN7Akonadi13ContactEditorD2Ev@Base 4:4.4.0
 _ZN7Akonadi13ContactViewer10setContactERKNS_4ItemE@Base 4:4.4.0
 _ZN7Akonadi13ContactViewer10smsClickedERKN4KABC11PhoneNumberE@Base 4:4.5.86
 _ZN7Akonadi13ContactViewer10urlClickedERK4KUrl@Base 4:4.4.0
 _ZN7Akonadi13ContactViewer11itemChangedERKNS_4ItemE@Base 4:4.4.0
 _ZN7Akonadi13ContactViewer11itemRemovedEv@Base 4:4.4.0
 _ZN7Akonadi13ContactViewer11qt_metacallEN11QMetaObject4CallEiPPv@Base 4:4.4.0
 _ZN7Akonadi13ContactViewer11qt_metacastEPKc@Base 4:4.4.0
 _ZN7Akonadi13ContactViewer12emailClickedERK7QStringS3_@Base 4:4.4.0
 _ZN7Akonadi13ContactViewer13setRawContactERKN4KABC9AddresseeE@Base 4:4.5.0
 _ZN7Akonadi13ContactViewer14addressClickedERKN4KABC7AddressE@Base 4:4.4.0
 _ZN7Akonadi13ContactViewer16staticMetaObjectE@Base 4:4.4.0
 _ZN7Akonadi13ContactViewer18phoneNumberClickedERKN4KABC11PhoneNumberE@Base 4:4.4.0
 _ZN7Akonadi13ContactViewer19setContactFormatterEPNS_24AbstractContactFormatterE@Base 4:4.5.86
 _ZN7Akonadi13ContactViewerC1EP7QWidget@Base 4:4.4.0
 _ZN7Akonadi13ContactViewerC2EP7QWidget@Base 4:4.4.0
 _ZN7Akonadi13ContactViewerD0Ev@Base 4:4.4.0
 _ZN7Akonadi13ContactViewerD1Ev@Base 4:4.4.0
 _ZN7Akonadi13ContactViewerD2Ev@Base 4:4.4.0
 _ZN7Akonadi16ContactSearchJob11qt_metacallEN11QMetaObject4CallEiPPv@Base 4:4.4.0
 _ZN7Akonadi16ContactSearchJob11qt_metacastEPKc@Base 4:4.4.0
 _ZN7Akonadi16ContactSearchJob16staticMetaObjectE@Base 4:4.4.0
 _ZN7Akonadi16ContactSearchJob8setLimitEi@Base 4:4.4.0
 _ZN7Akonadi16ContactSearchJob8setQueryENS0_9CriterionERK7QString@Base 4:4.4.0
 _ZN7Akonadi16ContactSearchJob8setQueryENS0_9CriterionERK7QStringNS0_5MatchE@Base 4:4.5.0
 _ZN7Akonadi16ContactSearchJobC1EP7QObject@Base 4:4.4.0
 _ZN7Akonadi16ContactSearchJobC2EP7QObject@Base 4:4.4.0
 _ZN7Akonadi16ContactSearchJobD0Ev@Base 4:4.4.0
 _ZN7Akonadi16ContactSearchJobD1Ev@Base 4:4.4.0
 _ZN7Akonadi16ContactSearchJobD2Ev@Base 4:4.4.0
 _ZN7Akonadi17ContactsTreeModel10setColumnsERK5QListINS0_6ColumnEE@Base 4:4.5.0
 _ZN7Akonadi17ContactsTreeModel11qt_metacallEN11QMetaObject4CallEiPPv@Base 4:4.5.0
 _ZN7Akonadi17ContactsTreeModel11qt_metacastEPKc@Base 4:4.5.0
 _ZN7Akonadi17ContactsTreeModel16staticMetaObjectE@Base 4:4.5.0
 _ZN7Akonadi17ContactsTreeModelC1EPNS_14ChangeRecorderEP7QObject@Base 4:4.5.0
 _ZN7Akonadi17ContactsTreeModelC2EPNS_14ChangeRecorderEP7QObject@Base 4:4.5.0
 _ZN7Akonadi17ContactsTreeModelD0Ev@Base 4:4.5.0
 _ZN7Akonadi17ContactsTreeModelD1Ev@Base 4:4.5.0
 _ZN7Akonadi17ContactsTreeModelD2Ev@Base 4:4.5.0
 _ZN7Akonadi18ContactGroupEditor11qt_metacallEN11QMetaObject4CallEiPPv@Base 4:4.4.0
 _ZN7Akonadi18ContactGroupEditor11qt_metacastEPKc@Base 4:4.4.0
 _ZN7Akonadi18ContactGroupEditor16groupNameIsValidEb@Base 4:4.10.1
 _ZN7Akonadi18ContactGroupEditor16loadContactGroupERKNS_4ItemE@Base 4:4.4.0
 _ZN7Akonadi18ContactGroupEditor16saveContactGroupEv@Base 4:4.4.0
 _ZN7Akonadi18ContactGroupEditor16staticMetaObjectE@Base 4:4.4.0
 _ZN7Akonadi18ContactGroupEditor18contactGroupStoredERKNS_4ItemE@Base 4:4.4.0
 _ZN7Akonadi18ContactGroupEditor21setDefaultAddressBookERKNS_10CollectionE@Base 4:4.4.0
 _ZN7Akonadi18ContactGroupEditor23setContactGroupTemplateERKN4KABC12ContactGroupE@Base 4:4.4.0
 _ZN7Akonadi18ContactGroupEditor5errorERK7QString@Base 4:4.4.0
 _ZN7Akonadi18ContactGroupEditor7Private11itemChangedERKNS_4ItemERK4QSetI10QByteArrayE@Base 4:4.4.0
 _ZN7Akonadi18ContactGroupEditor7Private11setReadOnlyEb@Base 4:4.4.0
 _ZN7Akonadi18ContactGroupEditor7Private12setupMonitorEv@Base 4:4.4.0
 _ZN7Akonadi18ContactGroupEditor7Private13itemFetchDoneEP4KJob@Base 4:4.4.0
 _ZN7Akonadi18ContactGroupEditor7Private16adaptHeaderSizesEv@Base 4:4.5.0
 _ZN7Akonadi18ContactGroupEditor7Private16loadContactGroupERKN4KABC12ContactGroupE@Base 4:4.4.0
 _ZN7Akonadi18ContactGroupEditor7Private17storeContactGroupERN4KABC12ContactGroupE@Base 4:4.4.0
 _ZN7Akonadi18ContactGroupEditor7Private25parentCollectionFetchDoneEP4KJob@Base 4:4.4.0
 _ZN7Akonadi18ContactGroupEditor7Private9storeDoneEP4KJob@Base 4:4.4.0
 _ZN7Akonadi18ContactGroupEditor7PrivateC1EPS0_@Base 4:4.5.0
 _ZN7Akonadi18ContactGroupEditor7PrivateC2EPS0_@Base 4:4.5.0
 _ZN7Akonadi18ContactGroupEditor7PrivateD1Ev@Base 4:4.5.0
 _ZN7Akonadi18ContactGroupEditor7PrivateD2Ev@Base 4:4.5.0
 _ZN7Akonadi18ContactGroupEditorC1ENS0_4ModeEP7QWidget@Base 4:4.4.0
 _ZN7Akonadi18ContactGroupEditorC2ENS0_4ModeEP7QWidget@Base 4:4.4.0
 _ZN7Akonadi18ContactGroupEditorD0Ev@Base 4:4.4.0
 _ZN7Akonadi18ContactGroupEditorD1Ev@Base 4:4.4.0
 _ZN7Akonadi18ContactGroupEditorD2Ev@Base 4:4.4.0
 _ZN7Akonadi18ContactGroupViewer11itemChangedERKNS_4ItemE@Base 4:4.4.0
 _ZN7Akonadi18ContactGroupViewer11itemRemovedEv@Base 4:4.4.0
 _ZN7Akonadi18ContactGroupViewer11qt_metacallEN11QMetaObject4CallEiPPv@Base 4:4.4.0
 _ZN7Akonadi18ContactGroupViewer11qt_metacastEPKc@Base 4:4.4.0
 _ZN7Akonadi18ContactGroupViewer12emailClickedERK7QStringS3_@Base 4:4.4.0
 _ZN7Akonadi18ContactGroupViewer15setContactGroupERKNS_4ItemE@Base 4:4.4.0
 _ZN7Akonadi18ContactGroupViewer16staticMetaObjectE@Base 4:4.4.0
 _ZN7Akonadi18ContactGroupViewer24setContactGroupFormatterEPNS_29AbstractContactGroupFormatterE@Base 4:4.5.86
 _ZN7Akonadi18ContactGroupViewerC1EP7QWidget@Base 4:4.4.0
 _ZN7Akonadi18ContactGroupViewerC2EP7QWidget@Base 4:4.4.0
 _ZN7Akonadi18ContactGroupViewerD0Ev@Base 4:4.4.0
 _ZN7Akonadi18ContactGroupViewerD1Ev@Base 4:4.4.0
 _ZN7Akonadi18ContactGroupViewerD2Ev@Base 4:4.4.0
 _ZN7Akonadi19ContactEditorDialog10setContactERKNS_4ItemE@Base 4:4.4.0
 _ZN7Akonadi19ContactEditorDialog11qt_metacallEN11QMetaObject4CallEiPPv@Base 4:4.4.0
 _ZN7Akonadi19ContactEditorDialog11qt_metacastEPKc@Base 4:4.4.0
 _ZN7Akonadi19ContactEditorDialog13contactStoredERKNS_4ItemE@Base 4:4.4.0
 _ZN7Akonadi19ContactEditorDialog16staticMetaObjectE@Base 4:4.4.0
 _ZN7Akonadi19ContactEditorDialog21setDefaultAddressBookERKNS_10CollectionE@Base 4:4.4.0
 _ZN7Akonadi19ContactEditorDialogC1ENS0_4ModeENS0_11DisplayModeEP7QWidget@Base 4:4.10.1
 _ZN7Akonadi19ContactEditorDialogC1ENS0_4ModeEP7QWidget@Base 4:4.4.0
 _ZN7Akonadi19ContactEditorDialogC1ENS0_4ModeEPNS_27AbstractContactEditorWidgetEP7QWidget@Base 4:4.4.0
 _ZN7Akonadi19ContactEditorDialogC2ENS0_4ModeENS0_11DisplayModeEP7QWidget@Base 4:4.10.1
 _ZN7Akonadi19ContactEditorDialogC2ENS0_4ModeEP7QWidget@Base 4:4.4.0
 _ZN7Akonadi19ContactEditorDialogC2ENS0_4ModeEPNS_27AbstractContactEditorWidgetEP7QWidget@Base 4:4.4.0
 _ZN7Akonadi19ContactEditorDialogD0Ev@Base 4:4.4.0
 _ZN7Akonadi19ContactEditorDialogD1Ev@Base 4:4.4.0
 _ZN7Akonadi19ContactEditorDialogD2Ev@Base 4:4.4.0
 _ZN7Akonadi19ContactViewerDialog10setContactERKNS_4ItemE@Base 4:4.4.0
 _ZN7Akonadi19ContactViewerDialog11qt_metacallEN11QMetaObject4CallEiPPv@Base 4:4.4.0
 _ZN7Akonadi19ContactViewerDialog11qt_metacastEPKc@Base 4:4.4.0
 _ZN7Akonadi19ContactViewerDialog16staticMetaObjectE@Base 4:4.4.0
 _ZN7Akonadi19ContactViewerDialogC1EP7QWidget@Base 4:4.4.0
 _ZN7Akonadi19ContactViewerDialogC2EP7QWidget@Base 4:4.4.0
 _ZN7Akonadi19ContactViewerDialogD0Ev@Base 4:4.4.0
 _ZN7Akonadi19ContactViewerDialogD1Ev@Base 4:4.4.0
 _ZN7Akonadi19ContactViewerDialogD2Ev@Base 4:4.4.0
 _ZN7Akonadi21ContactDefaultActions11qt_metacallEN11QMetaObject4CallEiPPv@Base 4:4.4.0
 _ZN7Akonadi21ContactDefaultActions11qt_metacastEPKc@Base 4:4.4.0
 _ZN7Akonadi21ContactDefaultActions11showAddressERKN4KABC7AddressE@Base 4:4.4.0
 _ZN7Akonadi21ContactDefaultActions13connectToViewEP7QObject@Base 4:4.4.0
 _ZN7Akonadi21ContactDefaultActions15dialPhoneNumberERKN4KABC11PhoneNumberE@Base 4:4.4.0
 _ZN7Akonadi21ContactDefaultActions16staticMetaObjectE@Base 4:4.4.0
 _ZN7Akonadi21ContactDefaultActions7sendSmsERKN4KABC11PhoneNumberE@Base 4:4.5.86
 _ZN7Akonadi21ContactDefaultActions7showUrlERK4KUrl@Base 4:4.4.0
 _ZN7Akonadi21ContactDefaultActions9sendEmailERK7QStringS3_@Base 4:4.4.0
 _ZN7Akonadi21ContactDefaultActionsC1EP7QObject@Base 4:4.4.0
 _ZN7Akonadi21ContactDefaultActionsC2EP7QObject@Base 4:4.4.0
 _ZN7Akonadi21ContactDefaultActionsD0Ev@Base 4:4.4.0
 _ZN7Akonadi21ContactDefaultActionsD1Ev@Base 4:4.4.0
 _ZN7Akonadi21ContactDefaultActionsD2Ev@Base 4:4.4.0
 _ZN7Akonadi21ContactGroupExpandJob11qt_metacallEN11QMetaObject4CallEiPPv@Base 4:4.4.0
 _ZN7Akonadi21ContactGroupExpandJob11qt_metacastEPKc@Base 4:4.4.0
 _ZN7Akonadi21ContactGroupExpandJob16staticMetaObjectE@Base 4:4.4.0
 _ZN7Akonadi21ContactGroupExpandJob5startEv@Base 4:4.4.0
 _ZN7Akonadi21ContactGroupExpandJobC1ERK7QStringP7QObject@Base 4:4.5.0
 _ZN7Akonadi21ContactGroupExpandJobC1ERKN4KABC12ContactGroupEP7QObject@Base 4:4.4.0
 _ZN7Akonadi21ContactGroupExpandJobC2ERK7QStringP7QObject@Base 4:4.5.0
 _ZN7Akonadi21ContactGroupExpandJobC2ERKN4KABC12ContactGroupEP7QObject@Base 4:4.4.0
 _ZN7Akonadi21ContactGroupExpandJobD0Ev@Base 4:4.4.0
 _ZN7Akonadi21ContactGroupExpandJobD1Ev@Base 4:4.4.0
 _ZN7Akonadi21ContactGroupExpandJobD2Ev@Base 4:4.4.0
 _ZN7Akonadi21ContactGroupSearchJob11qt_metacallEN11QMetaObject4CallEiPPv@Base 4:4.4.0
 _ZN7Akonadi21ContactGroupSearchJob11qt_metacastEPKc@Base 4:4.4.0
 _ZN7Akonadi21ContactGroupSearchJob16staticMetaObjectE@Base 4:4.4.0
 _ZN7Akonadi21ContactGroupSearchJob8setLimitEi@Base 4:4.4.3
 _ZN7Akonadi21ContactGroupSearchJob8setQueryENS0_9CriterionERK7QString@Base 4:4.4.0
 _ZN7Akonadi21ContactGroupSearchJob8setQueryENS0_9CriterionERK7QStringNS0_5MatchE@Base 4:4.5.0
 _ZN7Akonadi21ContactGroupSearchJobC1EP7QObject@Base 4:4.4.0
 _ZN7Akonadi21ContactGroupSearchJobC2EP7QObject@Base 4:4.4.0
 _ZN7Akonadi21ContactGroupSearchJobD0Ev@Base 4:4.4.0
 _ZN7Akonadi21ContactGroupSearchJobD1Ev@Base 4:4.4.0
 _ZN7Akonadi21ContactGroupSearchJobD2Ev@Base 4:4.4.0
 _ZN7Akonadi21EmailAddressSelection7PrivateC1ERKS1_@Base 4:4.5.0
 _ZN7Akonadi21EmailAddressSelection7PrivateC1Ev@Base 4:4.5.0
 _ZN7Akonadi21EmailAddressSelection7PrivateC2ERKS1_@Base 4:4.5.0
 _ZN7Akonadi21EmailAddressSelection7PrivateC2Ev@Base 4:4.5.0
 _ZN7Akonadi21EmailAddressSelectionC1ERKS0_@Base 4:4.5.0
 _ZN7Akonadi21EmailAddressSelectionC1Ev@Base 4:4.5.0
 _ZN7Akonadi21EmailAddressSelectionC2ERKS0_@Base 4:4.5.0
 _ZN7Akonadi21EmailAddressSelectionC2Ev@Base 4:4.5.0
 _ZN7Akonadi21EmailAddressSelectionD1Ev@Base 4:4.5.0
 _ZN7Akonadi21EmailAddressSelectionD2Ev@Base 4:4.5.0
 _ZN7Akonadi21EmailAddressSelectionaSERKS0_@Base 4:4.5.0
 _ZN7Akonadi24AbstractContactFormatter10setContactERKN4KABC9AddresseeE@Base 4:4.5.0
 _ZN7Akonadi24AbstractContactFormatter26setCustomFieldDescriptionsERK5QListI4QMapI7QString8QVariantEE@Base 4:4.5.0
 _ZN7Akonadi24AbstractContactFormatter7setItemERKNS_4ItemE@Base 4:4.5.0
 _ZN7Akonadi24AbstractContactFormatterC1Ev@Base 4:4.5.0
 _ZN7Akonadi24AbstractContactFormatterC2Ev@Base 4:4.5.0
 _ZN7Akonadi24AbstractContactFormatterD0Ev@Base 4:4.5.0
 _ZN7Akonadi24AbstractContactFormatterD1Ev@Base 4:4.5.0
 _ZN7Akonadi24AbstractContactFormatterD2Ev@Base 4:4.5.0
 _ZN7Akonadi24ContactGroupEditorDialog11qt_metacallEN11QMetaObject4CallEiPPv@Base 4:4.4.0
 _ZN7Akonadi24ContactGroupEditorDialog11qt_metacastEPKc@Base 4:4.4.0
 _ZN7Akonadi24ContactGroupEditorDialog15setContactGroupERKNS_4ItemE@Base 4:4.4.0
 _ZN7Akonadi24ContactGroupEditorDialog16staticMetaObjectE@Base 4:4.4.0
 _ZN7Akonadi24ContactGroupEditorDialog17slotButtonClickedEi@Base 4:4.4.0
 _ZN7Akonadi24ContactGroupEditorDialog18contactGroupStoredERKNS_4ItemE@Base 4:4.4.0
 _ZN7Akonadi24ContactGroupEditorDialog21setDefaultAddressBookERKNS_10CollectionE@Base 4:4.4.0
 _ZN7Akonadi24ContactGroupEditorDialogC1ENS0_4ModeEP7QWidget@Base 4:4.4.0
 _ZN7Akonadi24ContactGroupEditorDialogC2ENS0_4ModeEP7QWidget@Base 4:4.4.0
 _ZN7Akonadi24ContactGroupEditorDialogD0Ev@Base 4:4.4.0
 _ZN7Akonadi24ContactGroupEditorDialogD1Ev@Base 4:4.4.0
 _ZN7Akonadi24ContactGroupEditorDialogD2Ev@Base 4:4.4.0
 _ZN7Akonadi24ContactGroupViewerDialog11qt_metacallEN11QMetaObject4CallEiPPv@Base 4:4.4.0
 _ZN7Akonadi24ContactGroupViewerDialog11qt_metacastEPKc@Base 4:4.4.0
 _ZN7Akonadi24ContactGroupViewerDialog15setContactGroupERKNS_4ItemE@Base 4:4.4.0
 _ZN7Akonadi24ContactGroupViewerDialog16staticMetaObjectE@Base 4:4.4.0
 _ZN7Akonadi24ContactGroupViewerDialogC1EP7QWidget@Base 4:4.4.0
 _ZN7Akonadi24ContactGroupViewerDialogC2EP7QWidget@Base 4:4.4.0
 _ZN7Akonadi24ContactGroupViewerDialogD0Ev@Base 4:4.4.0
 _ZN7Akonadi24ContactGroupViewerDialogD1Ev@Base 4:4.4.0
 _ZN7Akonadi24ContactGroupViewerDialogD2Ev@Base 4:4.4.0
 _ZN7Akonadi24ContactMetaDataAttribute11deserializeERK10QByteArray@Base 4:4.4.0
 _ZN7Akonadi24ContactMetaDataAttribute11setMetaDataERK4QMapI7QString8QVariantE@Base 4:4.4.0
 _ZN7Akonadi24ContactMetaDataAttributeC1Ev@Base 4:4.4.0
 _ZN7Akonadi24ContactMetaDataAttributeC2Ev@Base 4:4.4.0
 _ZN7Akonadi24ContactMetaDataAttributeD0Ev@Base 4:4.4.0
 _ZN7Akonadi24ContactMetaDataAttributeD1Ev@Base 4:4.4.0
 _ZN7Akonadi24ContactMetaDataAttributeD2Ev@Base 4:4.4.0
 _ZN7Akonadi24ContactsFilterProxyModel11qt_metacallEN11QMetaObject4CallEiPPv@Base 4:4.5.0
 _ZN7Akonadi24ContactsFilterProxyModel11qt_metacastEPKc@Base 4:4.5.0
 _ZN7Akonadi24ContactsFilterProxyModel14setFilterFlagsE6QFlagsINS0_10FilterFlagEE@Base 4:4.8.1
 _ZN7Akonadi24ContactsFilterProxyModel15setFilterStringERK7QString@Base 4:4.5.0
 _ZN7Akonadi24ContactsFilterProxyModel16staticMetaObjectE@Base 4:4.5.0
 _ZN7Akonadi24ContactsFilterProxyModel28setExcludeVirtualCollectionsEb@Base 4:4.8.1
 _ZN7Akonadi24ContactsFilterProxyModelC1EP7QObject@Base 4:4.5.0
 _ZN7Akonadi24ContactsFilterProxyModelC2EP7QObject@Base 4:4.5.0
 _ZN7Akonadi24ContactsFilterProxyModelD0Ev@Base 4:4.5.0
 _ZN7Akonadi24ContactsFilterProxyModelD1Ev@Base 4:4.5.0
 _ZN7Akonadi24ContactsFilterProxyModelD2Ev@Base 4:4.5.0
 _ZN7Akonadi24StandardContactFormatter16setDisplayQRCodeEb@Base 4:4.10.1
 _ZN7Akonadi24StandardContactFormatterC1Ev@Base 4:4.5.0
 _ZN7Akonadi24StandardContactFormatterC2Ev@Base 4:4.5.0
 _ZN7Akonadi24StandardContactFormatterD0Ev@Base 4:4.5.0
 _ZN7Akonadi24StandardContactFormatterD1Ev@Base 4:4.5.0
 _ZN7Akonadi24StandardContactFormatterD2Ev@Base 4:4.5.0
 _ZN7Akonadi25RecentContactsCollections11qt_metacallEN11QMetaObject4CallEiPPv@Base 4:4.4.0
 _ZN7Akonadi25RecentContactsCollections11qt_metacastEPKc@Base 4:4.4.0
 _ZN7Akonadi25RecentContactsCollections16staticMetaObjectE@Base 4:4.4.0
 _ZN7Akonadi25RecentContactsCollections18registerCollectionERKNS_10CollectionE@Base 4:4.4.0
 _ZN7Akonadi25RecentContactsCollections4selfEv@Base 4:4.4.0
 _ZN7Akonadi25RecentContactsCollectionsC1EPNS_32RecentContactsCollectionsPrivateE@Base 4:4.4.0
 _ZN7Akonadi25RecentContactsCollectionsC2EPNS_32RecentContactsCollectionsPrivateE@Base 4:4.4.0
 _ZN7Akonadi25RecentContactsCollectionsD0Ev@Base 4:4.6.5
 _ZN7Akonadi25RecentContactsCollectionsD1Ev@Base 4:4.6.5
 _ZN7Akonadi25RecentContactsCollectionsD2Ev@Base 4:4.6.5
 _ZN7Akonadi27EmailAddressSelectionDialog11qt_metacallEN11QMetaObject4CallEiPPv@Base 4:4.5.0
 _ZN7Akonadi27EmailAddressSelectionDialog11qt_metacastEPKc@Base 4:4.5.0
 _ZN7Akonadi27EmailAddressSelectionDialog16staticMetaObjectE@Base 4:4.5.0
 _ZN7Akonadi27EmailAddressSelectionDialogC1EP18QAbstractItemModelP7QWidget@Base 4:4.5.0
 _ZN7Akonadi27EmailAddressSelectionDialogC1EP7QWidget@Base 4:4.5.0
 _ZN7Akonadi27EmailAddressSelectionDialogC2EP18QAbstractItemModelP7QWidget@Base 4:4.5.0
 _ZN7Akonadi27EmailAddressSelectionDialogC2EP7QWidget@Base 4:4.5.0
 _ZN7Akonadi27EmailAddressSelectionDialogD0Ev@Base 4:4.5.0
 _ZN7Akonadi27EmailAddressSelectionDialogD1Ev@Base 4:4.5.0
 _ZN7Akonadi27EmailAddressSelectionDialogD2Ev@Base 4:4.5.0
 _ZN7Akonadi27EmailAddressSelectionWidget11qt_metacallEN11QMetaObject4CallEiPPv@Base 4:4.5.0
 _ZN7Akonadi27EmailAddressSelectionWidget11qt_metacastEPKc@Base 4:4.5.0
 _ZN7Akonadi27EmailAddressSelectionWidget13doubleClickedEv@Base 4:4.10.1
 _ZN7Akonadi27EmailAddressSelectionWidget16staticMetaObjectE@Base 4:4.5.0
 _ZN7Akonadi27EmailAddressSelectionWidget7Private4initEv@Base 4:4.5.0
 _ZN7Akonadi27EmailAddressSelectionWidgetC1EP18QAbstractItemModelP7QWidget@Base 4:4.5.0
 _ZN7Akonadi27EmailAddressSelectionWidgetC1EP7QWidget@Base 4:4.5.0
 _ZN7Akonadi27EmailAddressSelectionWidgetC2EP18QAbstractItemModelP7QWidget@Base 4:4.5.0
 _ZN7Akonadi27EmailAddressSelectionWidgetC2EP7QWidget@Base 4:4.5.0
 _ZN7Akonadi27EmailAddressSelectionWidgetD0Ev@Base 4:4.5.0
 _ZN7Akonadi27EmailAddressSelectionWidgetD1Ev@Base 4:4.5.0
 _ZN7Akonadi27EmailAddressSelectionWidgetD2Ev@Base 4:4.5.0
 _ZN7Akonadi28StandardContactActionManager11qt_metacallEN11QMetaObject4CallEiPPv@Base 4:4.5.86
 _ZN7Akonadi28StandardContactActionManager11qt_metacastEPKc@Base 4:4.5.86
 _ZN7Akonadi28StandardContactActionManager12createActionENS0_4TypeE@Base 4:4.5.86
 _ZN7Akonadi28StandardContactActionManager12createActionENS_21StandardActionManager4TypeE@Base 4:4.5.86
 _ZN7Akonadi28StandardContactActionManager13setActionTextENS_21StandardActionManager4TypeERK16KLocalizedString@Base 4:4.5.86
 _ZN7Akonadi28StandardContactActionManager15interceptActionENS0_4TypeEb@Base 4:4.5.86
 _ZN7Akonadi28StandardContactActionManager15interceptActionENS_21StandardActionManager4TypeEb@Base 4:4.5.86
 _ZN7Akonadi28StandardContactActionManager16createAllActionsEv@Base 4:4.5.86
 _ZN7Akonadi28StandardContactActionManager16staticMetaObjectE@Base 4:4.5.86
 _ZN7Akonadi28StandardContactActionManager18actionStateUpdatedEv@Base 4:4.5.86
 _ZN7Akonadi28StandardContactActionManager21setItemSelectionModelEP19QItemSelectionModel@Base 4:4.5.86
 _ZN7Akonadi28StandardContactActionManager27setCollectionSelectionModelEP19QItemSelectionModel@Base 4:4.5.86
 _ZN7Akonadi28StandardContactActionManager32setCollectionPropertiesPageNamesERK11QStringList@Base 4:4.8.2
 _ZN7Akonadi28StandardContactActionManagerC1EP17KActionCollectionP7QWidget@Base 4:4.5.86
 _ZN7Akonadi28StandardContactActionManagerC2EP17KActionCollectionP7QWidget@Base 4:4.5.86
 _ZN7Akonadi28StandardContactActionManagerD0Ev@Base 4:4.5.86
 _ZN7Akonadi28StandardContactActionManagerD1Ev@Base 4:4.5.86
 _ZN7Akonadi28StandardContactActionManagerD2Ev@Base 4:4.5.86
 _ZN7Akonadi29AbstractContactGroupFormatter15setContactGroupERKN4KABC12ContactGroupE@Base 4:4.5.86
 _ZN7Akonadi29AbstractContactGroupFormatter19setAdditionalFieldsERK5QListI4QMapI7QString8QVariantEE@Base 4:4.5.86
 _ZN7Akonadi29AbstractContactGroupFormatter7setItemERKNS_4ItemE@Base 4:4.5.86
 _ZN7Akonadi29AbstractContactGroupFormatterC1Ev@Base 4:4.5.86
 _ZN7Akonadi29AbstractContactGroupFormatterC2Ev@Base 4:4.5.86
 _ZN7Akonadi29AbstractContactGroupFormatterD0Ev@Base 4:4.5.86
 _ZN7Akonadi29AbstractContactGroupFormatterD1Ev@Base 4:4.5.86
 _ZN7Akonadi29AbstractContactGroupFormatterD2Ev@Base 4:4.5.86
 _ZN7Akonadi29StandardContactGroupFormatterC1Ev@Base 4:4.5.86
 _ZN7Akonadi29StandardContactGroupFormatterC2Ev@Base 4:4.5.86
 _ZN7Akonadi29StandardContactGroupFormatterD0Ev@Base 4:4.5.86
 _ZN7Akonadi29StandardContactGroupFormatterD1Ev@Base 4:4.5.86
 _ZN7Akonadi29StandardContactGroupFormatterD2Ev@Base 4:4.5.86
 _ZN7Akonadi34RecentContactsCollectionRequestJob11qt_metacallEN11QMetaObject4CallEiPPv@Base 4:4.4.0
 _ZN7Akonadi34RecentContactsCollectionRequestJob11qt_metacastEPKc@Base 4:4.4.0
 _ZN7Akonadi34RecentContactsCollectionRequestJob16staticMetaObjectE@Base 4:4.4.0
 _ZN7Akonadi34RecentContactsCollectionRequestJob17requestCollectionERKNS_13AgentInstanceE@Base 4:4.4.0
 _ZN7Akonadi34RecentContactsCollectionRequestJob24requestDefaultCollectionEv@Base 4:4.4.0
 _ZN7Akonadi34RecentContactsCollectionRequestJobC1EP7QObject@Base 4:4.4.0
 _ZN7Akonadi34RecentContactsCollectionRequestJobC2EP7QObject@Base 4:4.4.0
 _ZN7Akonadi34RecentContactsCollectionRequestJobD0Ev@Base 4:4.4.0
 _ZN7Akonadi34RecentContactsCollectionRequestJobD1Ev@Base 4:4.4.0
 _ZN7Akonadi34RecentContactsCollectionRequestJobD2Ev@Base 4:4.4.0
 _ZN7Akonadi4Item14setPayloadImplIN4KABC12ContactGroupEEEN5boost12disable_if_cIXsrNS_8Internal12PayloadTraitIT_EE13isPolymorphicEvE4typeERKS8_@Base 4:4.5.86
 _ZN7Akonadi4Item14setPayloadImplIN4KABC9AddresseeEEEN5boost12disable_if_cIXsrNS_8Internal12PayloadTraitIT_EE13isPolymorphicEvE4typeERKS8_@Base 4:4.5.86
 _ZNK7Akonadi13ContactEditor10metaObjectEv@Base 4:4.4.0
 _ZNK7Akonadi13ContactViewer10metaObjectEv@Base 4:4.4.0
 _ZNK7Akonadi13ContactViewer10rawContactEv@Base 4:4.5.0
 _ZNK7Akonadi13ContactViewer7contactEv@Base 4:4.4.0
 _ZNK7Akonadi16ContactSearchJob10metaObjectEv@Base 4:4.4.0
 _ZNK7Akonadi16ContactSearchJob8contactsEv@Base 4:4.4.0
 _ZNK7Akonadi17ContactsTreeModel10entityDataERKNS_10CollectionEii@Base 4:4.5.0
 _ZNK7Akonadi17ContactsTreeModel10entityDataERKNS_4ItemEii@Base 4:4.5.0
 _ZNK7Akonadi17ContactsTreeModel10metaObjectEv@Base 4:4.5.0
 _ZNK7Akonadi17ContactsTreeModel16entityHeaderDataEiN2Qt11OrientationEiNS_15EntityTreeModel11HeaderGroupE@Base 4:4.5.0
 _ZNK7Akonadi17ContactsTreeModel17entityColumnCountENS_15EntityTreeModel11HeaderGroupE@Base 4:4.5.0
 _ZNK7Akonadi17ContactsTreeModel7columnsEv@Base 4:4.5.0
 _ZNK7Akonadi18ContactGroupEditor10metaObjectEv@Base 4:4.4.0
 _ZNK7Akonadi18ContactGroupViewer10metaObjectEv@Base 4:4.4.0
 _ZNK7Akonadi18ContactGroupViewer12contactGroupEv@Base 4:4.4.0
 _ZNK7Akonadi19ContactEditorDialog10metaObjectEv@Base 4:4.4.0
 _ZNK7Akonadi19ContactEditorDialog6editorEv@Base 4:4.4.0
 _ZNK7Akonadi19ContactViewerDialog10metaObjectEv@Base 4:4.4.0
 _ZNK7Akonadi19ContactViewerDialog6viewerEv@Base 4:4.4.0
 _ZNK7Akonadi19ContactViewerDialog7contactEv@Base 4:4.4.0
 _ZNK7Akonadi21ContactDefaultActions10metaObjectEv@Base 4:4.4.0
 _ZNK7Akonadi21ContactGroupExpandJob10metaObjectEv@Base 4:4.4.0
 _ZNK7Akonadi21ContactGroupExpandJob8contactsEv@Base 4:4.4.0
 _ZNK7Akonadi21ContactGroupSearchJob10metaObjectEv@Base 4:4.4.0
 _ZNK7Akonadi21ContactGroupSearchJob13contactGroupsEv@Base 4:4.4.0
 _ZNK7Akonadi21EmailAddressSelection11quotedEmailEv@Base 4:4.5.0
 _ZNK7Akonadi21EmailAddressSelection4itemEv@Base 4:4.5.0
 _ZNK7Akonadi21EmailAddressSelection4nameEv@Base 4:4.5.0
 _ZNK7Akonadi21EmailAddressSelection5emailEv@Base 4:4.5.0
 _ZNK7Akonadi21EmailAddressSelection7isValidEv@Base 4:4.5.0
 _ZNK7Akonadi24AbstractContactFormatter23customFieldDescriptionsEv@Base 4:4.5.0
 _ZNK7Akonadi24AbstractContactFormatter4itemEv@Base 4:4.5.0
 _ZNK7Akonadi24AbstractContactFormatter7contactEv@Base 4:4.5.0
 _ZNK7Akonadi24ContactGroupEditorDialog10metaObjectEv@Base 4:4.4.0
 _ZNK7Akonadi24ContactGroupEditorDialog6editorEv@Base 4:4.4.0
 _ZNK7Akonadi24ContactGroupViewerDialog10metaObjectEv@Base 4:4.4.0
 _ZNK7Akonadi24ContactGroupViewerDialog12contactGroupEv@Base 4:4.4.0
 _ZNK7Akonadi24ContactGroupViewerDialog6viewerEv@Base 4:4.4.0
 _ZNK7Akonadi24ContactMetaDataAttribute10serializedEv@Base 4:4.4.0
 _ZNK7Akonadi24ContactMetaDataAttribute4typeEv@Base 4:4.4.0
 _ZNK7Akonadi24ContactMetaDataAttribute5cloneEv@Base 4:4.4.0
 _ZNK7Akonadi24ContactMetaDataAttribute8metaDataEv@Base 4:4.4.0
 _ZNK7Akonadi24ContactsFilterProxyModel10metaObjectEv@Base 4:4.5.0
 _ZNK7Akonadi24ContactsFilterProxyModel16filterAcceptsRowEiRK11QModelIndex@Base 4:4.5.0
 _ZNK7Akonadi24ContactsFilterProxyModel5flagsERK11QModelIndex@Base 4:4.8.1
 _ZNK7Akonadi24ContactsFilterProxyModel8lessThanERK11QModelIndexS3_@Base 4:4.5.0
 _ZNK7Akonadi24StandardContactFormatter13displayQRCodeEv@Base 4:4.10.1
 _ZNK7Akonadi24StandardContactFormatter6toHtmlENS_24AbstractContactFormatter8HtmlFormE@Base 4:4.5.0
 _ZNK7Akonadi25RecentContactsCollections10collectionERKNS_13AgentInstanceE@Base 4:4.4.0
 _ZNK7Akonadi25RecentContactsCollections10metaObjectEv@Base 4:4.4.0
 _ZNK7Akonadi25RecentContactsCollections13hasCollectionERKNS_13AgentInstanceE@Base 4:4.4.0
 _ZNK7Akonadi25RecentContactsCollections17defaultCollectionEv@Base 4:4.4.0
 _ZNK7Akonadi25RecentContactsCollections20hasDefaultCollectionEv@Base 4:4.4.0
 _ZNK7Akonadi27EmailAddressSelectionDialog10metaObjectEv@Base 4:4.5.0
 _ZNK7Akonadi27EmailAddressSelectionDialog17selectedAddressesEv@Base 4:4.5.0
 _ZNK7Akonadi27EmailAddressSelectionDialog4viewEv@Base 4:4.5.0
 _ZNK7Akonadi27EmailAddressSelectionWidget10metaObjectEv@Base 4:4.5.0
 _ZNK7Akonadi27EmailAddressSelectionWidget14searchLineEditEv@Base 4:4.5.0
 _ZNK7Akonadi27EmailAddressSelectionWidget17selectedAddressesEv@Base 4:4.5.0
 _ZNK7Akonadi27EmailAddressSelectionWidget4viewEv@Base 4:4.5.0
 _ZNK7Akonadi28StandardContactActionManager10metaObjectEv@Base 4:4.5.86
 _ZNK7Akonadi28StandardContactActionManager13selectedItemsEv@Base 4:4.5.86
 _ZNK7Akonadi28StandardContactActionManager19selectedCollectionsEv@Base 4:4.5.86
 _ZNK7Akonadi28StandardContactActionManager6actionENS0_4TypeE@Base 4:4.5.86
 _ZNK7Akonadi28StandardContactActionManager6actionENS_21StandardActionManager4TypeE@Base 4:4.5.86
 _ZNK7Akonadi29AbstractContactGroupFormatter12contactGroupEv@Base 4:4.5.86
 _ZNK7Akonadi29AbstractContactGroupFormatter16additionalFieldsEv@Base 4:4.5.86
 _ZNK7Akonadi29AbstractContactGroupFormatter4itemEv@Base 4:4.5.86
 _ZNK7Akonadi29StandardContactGroupFormatter6toHtmlENS_29AbstractContactGroupFormatter8HtmlFormE@Base 4:4.5.86
 _ZNK7Akonadi34RecentContactsCollectionRequestJob10metaObjectEv@Base 4:4.4.0
 _ZNK7Akonadi4Item10hasPayloadIN4KABC12ContactGroupEEEbv@Base 4:4.5.0
 _ZNK7Akonadi4Item10hasPayloadIN4KABC9AddresseeEEEbv@Base 4:4.5.0
 _ZNK7Akonadi4Item11payloadImplIN4KABC12ContactGroupEEEN5boost12disable_if_cIXsrNS_8Internal12PayloadTraitIT_EE13isPolymorphicES8_E4typeEv@Base 4:4.5.86
 _ZNK7Akonadi4Item11payloadImplIN4KABC9AddresseeEEEN5boost12disable_if_cIXsrNS_8Internal12PayloadTraitIT_EE13isPolymorphicES8_E4typeEv@Base 4:4.5.86
 _ZNK7Akonadi4Item14hasPayloadImplIN4KABC12ContactGroupEEEN5boost12disable_if_cIXsrNS_8Internal12PayloadTraitIT_EE13isPolymorphicEbE4typeEv@Base 4:4.5.86
 _ZNK7Akonadi4Item14hasPayloadImplIN4KABC9AddresseeEEEN5boost12disable_if_cIXsrNS_8Internal12PayloadTraitIT_EE13isPolymorphicEbE4typeEv@Base 4:4.7.4
 _ZNK7Akonadi4Item7payloadIN4KABC12ContactGroupEEET_v@Base 4:4.4.0
 _ZNK7Akonadi4Item7payloadIN4KABC9AddresseeEEET_v@Base 4:4.4.0
 _ZTIN7Akonadi13ContactEditorE@Base 4:4.4.0
 _ZTIN7Akonadi13ContactViewerE@Base 4:4.4.0
 _ZTIN7Akonadi16ContactSearchJobE@Base 4:4.4.0
 _ZTIN7Akonadi17ContactsTreeModelE@Base 4:4.5.0
 _ZTIN7Akonadi18ContactGroupEditorE@Base 4:4.4.0
 _ZTIN7Akonadi18ContactGroupViewerE@Base 4:4.4.0
 _ZTIN7Akonadi19ContactEditorDialogE@Base 4:4.4.0
 _ZTIN7Akonadi19ContactViewerDialogE@Base 4:4.4.0
 _ZTIN7Akonadi21ContactDefaultActionsE@Base 4:4.4.0
 _ZTIN7Akonadi21ContactGroupExpandJobE@Base 4:4.4.0
 _ZTIN7Akonadi21ContactGroupSearchJobE@Base 4:4.4.0
 _ZTIN7Akonadi24AbstractContactFormatterE@Base 4:4.5.0
 _ZTIN7Akonadi24ContactGroupEditorDialogE@Base 4:4.4.0
 _ZTIN7Akonadi24ContactGroupViewerDialogE@Base 4:4.4.0
 _ZTIN7Akonadi24ContactMetaDataAttributeE@Base 4:4.4.0
 _ZTIN7Akonadi24ContactsFilterProxyModelE@Base 4:4.5.0
 _ZTIN7Akonadi24StandardContactFormatterE@Base 4:4.5.0
 _ZTIN7Akonadi25RecentContactsCollectionsE@Base 4:4.4.0
 _ZTIN7Akonadi27EmailAddressSelectionDialogE@Base 4:4.5.0
 _ZTIN7Akonadi27EmailAddressSelectionWidgetE@Base 4:4.5.0
 _ZTIN7Akonadi28StandardContactActionManagerE@Base 4:4.5.86
 _ZTIN7Akonadi29AbstractContactGroupFormatterE@Base 4:4.5.86
 _ZTIN7Akonadi29StandardContactGroupFormatterE@Base 4:4.5.86
 _ZTIN7Akonadi34RecentContactsCollectionRequestJobE@Base 4:4.4.0
 _ZTSN7Akonadi13ContactEditorE@Base 4:4.4.0
 _ZTSN7Akonadi13ContactViewerE@Base 4:4.4.0
 _ZTSN7Akonadi16ContactSearchJobE@Base 4:4.4.0
 _ZTSN7Akonadi17ContactsTreeModelE@Base 4:4.5.0
 _ZTSN7Akonadi18ContactGroupEditorE@Base 4:4.4.0
 _ZTSN7Akonadi18ContactGroupViewerE@Base 4:4.4.0
 _ZTSN7Akonadi19ContactEditorDialogE@Base 4:4.4.0
 _ZTSN7Akonadi19ContactViewerDialogE@Base 4:4.4.0
 _ZTSN7Akonadi21ContactDefaultActionsE@Base 4:4.4.0
 _ZTSN7Akonadi21ContactGroupExpandJobE@Base 4:4.4.0
 _ZTSN7Akonadi21ContactGroupSearchJobE@Base 4:4.4.0
 _ZTSN7Akonadi24AbstractContactFormatterE@Base 4:4.5.0
 _ZTSN7Akonadi24ContactGroupEditorDialogE@Base 4:4.4.0
 _ZTSN7Akonadi24ContactGroupViewerDialogE@Base 4:4.4.0
 _ZTSN7Akonadi24ContactMetaDataAttributeE@Base 4:4.4.0
 _ZTSN7Akonadi24ContactsFilterProxyModelE@Base 4:4.5.0
 _ZTSN7Akonadi24StandardContactFormatterE@Base 4:4.5.0
 _ZTSN7Akonadi25RecentContactsCollectionsE@Base 4:4.4.0
 _ZTSN7Akonadi27EmailAddressSelectionDialogE@Base 4:4.5.0
 _ZTSN7Akonadi27EmailAddressSelectionWidgetE@Base 4:4.5.0
 _ZTSN7Akonadi28StandardContactActionManagerE@Base 4:4.5.86
 _ZTSN7Akonadi29AbstractContactGroupFormatterE@Base 4:4.5.86
 _ZTSN7Akonadi29StandardContactGroupFormatterE@Base 4:4.5.86
 _ZTSN7Akonadi34RecentContactsCollectionRequestJobE@Base 4:4.4.0
 _ZTVN7Akonadi13ContactEditorE@Base 4:4.4.0
 _ZTVN7Akonadi13ContactViewerE@Base 4:4.4.0
 _ZTVN7Akonadi16ContactSearchJobE@Base 4:4.4.0
 _ZTVN7Akonadi17ContactsTreeModelE@Base 4:4.5.0
 _ZTVN7Akonadi18ContactGroupEditorE@Base 4:4.4.0
 _ZTVN7Akonadi18ContactGroupViewerE@Base 4:4.4.0
 _ZTVN7Akonadi19ContactEditorDialogE@Base 4:4.4.0
 _ZTVN7Akonadi19ContactViewerDialogE@Base 4:4.4.0
 _ZTVN7Akonadi21ContactDefaultActionsE@Base 4:4.4.0
 _ZTVN7Akonadi21ContactGroupExpandJobE@Base 4:4.4.0
 _ZTVN7Akonadi21ContactGroupSearchJobE@Base 4:4.4.0
 _ZTVN7Akonadi24AbstractContactFormatterE@Base 4:4.5.0
 _ZTVN7Akonadi24ContactGroupEditorDialogE@Base 4:4.4.0
 _ZTVN7Akonadi24ContactGroupViewerDialogE@Base 4:4.4.0
 _ZTVN7Akonadi24ContactMetaDataAttributeE@Base 4:4.4.0
 _ZTVN7Akonadi24ContactsFilterProxyModelE@Base 4:4.5.0
 _ZTVN7Akonadi24StandardContactFormatterE@Base 4:4.5.0
 _ZTVN7Akonadi25RecentContactsCollectionsE@Base 4:4.4.0
 _ZTVN7Akonadi27EmailAddressSelectionDialogE@Base 4:4.5.0
 _ZTVN7Akonadi27EmailAddressSelectionWidgetE@Base 4:4.5.0
 _ZTVN7Akonadi28StandardContactActionManagerE@Base 4:4.5.86
 _ZTVN7Akonadi29AbstractContactGroupFormatterE@Base 4:4.5.86
 _ZTVN7Akonadi29StandardContactGroupFormatterE@Base 4:4.5.86
 _ZTVN7Akonadi34RecentContactsCollectionRequestJobE@Base 4:4.4.0
 _ZThn16_N7Akonadi13ContactEditorD0Ev@Base 4:4.4.0
 _ZThn16_N7Akonadi13ContactEditorD1Ev@Base 4:4.4.0
 _ZThn16_N7Akonadi13ContactViewerD0Ev@Base 4:4.4.0
 _ZThn16_N7Akonadi13ContactViewerD1Ev@Base 4:4.4.0
 _ZThn16_N7Akonadi18ContactGroupEditorD0Ev@Base 4:4.4.0
 _ZThn16_N7Akonadi18ContactGroupEditorD1Ev@Base 4:4.4.0
 _ZThn16_N7Akonadi18ContactGroupViewerD0Ev@Base 4:4.4.0
 _ZThn16_N7Akonadi18ContactGroupViewerD1Ev@Base 4:4.4.0
 _ZThn16_N7Akonadi19ContactEditorDialogD0Ev@Base 4:4.4.0
 _ZThn16_N7Akonadi19ContactEditorDialogD1Ev@Base 4:4.4.0
 _ZThn16_N7Akonadi19ContactViewerDialogD0Ev@Base 4:4.4.0
 _ZThn16_N7Akonadi19ContactViewerDialogD1Ev@Base 4:4.4.0
 _ZThn16_N7Akonadi24ContactGroupEditorDialogD0Ev@Base 4:4.4.0
 _ZThn16_N7Akonadi24ContactGroupEditorDialogD1Ev@Base 4:4.4.0
 _ZThn16_N7Akonadi24ContactGroupViewerDialogD0Ev@Base 4:4.4.0
 _ZThn16_N7Akonadi24ContactGroupViewerDialogD1Ev@Base 4:4.4.0
 _ZThn16_N7Akonadi27EmailAddressSelectionDialogD0Ev@Base 4:4.5.0
 _ZThn16_N7Akonadi27EmailAddressSelectionDialogD1Ev@Base 4:4.5.0
 _ZThn16_N7Akonadi27EmailAddressSelectionWidgetD0Ev@Base 4:4.5.0
 _ZThn16_N7Akonadi27EmailAddressSelectionWidgetD1Ev@Base 4:4.5.0
 _ZThn40_N7Akonadi13ContactViewer11itemChangedERKNS_4ItemE@Base 4:4.4.0
 _ZThn40_N7Akonadi13ContactViewer11itemRemovedEv@Base 4:4.4.0
 _ZThn40_N7Akonadi13ContactViewerD0Ev@Base 4:4.4.0
 _ZThn40_N7Akonadi13ContactViewerD1Ev@Base 4:4.4.0
 _ZThn40_N7Akonadi18ContactGroupViewer11itemChangedERKNS_4ItemE@Base 4:4.4.0
 _ZThn40_N7Akonadi18ContactGroupViewer11itemRemovedEv@Base 4:4.4.0
 _ZThn40_N7Akonadi18ContactGroupViewerD0Ev@Base 4:4.4.0
 _ZThn40_N7Akonadi18ContactGroupViewerD1Ev@Base 4:4.4.0
 _ZZN7Akonadi13ContactViewer7Private10updateViewERK5QListI8QVariantERK7QStringE13defaultPixmap@Base 4:4.5.0
 _ZZN7Akonadi18ContactGroupViewer7PrivateC1EPS0_E11groupPixmap@Base 4:4.5.0
