libgpgme++-pth.so.2 libgpgme++2 #MINVER#
* Build-Depends-Package: kdepimlibs5-dev
 _ZN5GpgME10EngineInfoC1EP18_gpgme_engine_info@Base 4:4.3.4
 _ZN5GpgME10EngineInfoC1Ev@Base 4:4.3.4
 _ZN5GpgME10EngineInfoC2EP18_gpgme_engine_info@Base 4:4.3.4
 _ZN5GpgME10EngineInfoC2Ev@Base 4:4.3.4
 _ZN5GpgME10EngineInfoD1Ev@Base 4:4.8.3
 _ZN5GpgME10EngineInfoD2Ev@Base 4:4.8.3
 _ZN5GpgME10engineInfoENS_6EngineE@Base 4:4.3.4
 _ZN5GpgME10engineInfoENS_8ProtocolE@Base 4:4.3.4
 _ZN5GpgME10hasFeatureEm@Base 4:4.3.4
 _ZN5GpgME10hasFeatureEmm@Base 4:4.5.0
 _ZN5GpgME11checkEngineENS_6EngineE@Base 4:4.3.4
 _ZN5GpgME11checkEngineENS_8ProtocolE@Base 4:4.3.4
 _ZN5GpgME12AssuanResult4initEP13gpgme_context@Base 4:4.4.0
 _ZN5GpgME12AssuanResultC1EP13gpgme_contextRKNS_5ErrorE@Base 4:4.4.0
 _ZN5GpgME12AssuanResultC1EP13gpgme_contexti@Base 4:4.4.0
 _ZN5GpgME12AssuanResultC1ERKNS_5ErrorE@Base 4:4.4.0
 _ZN5GpgME12AssuanResultC1Ev@Base 4:4.4.0
 _ZN5GpgME12AssuanResultC2EP13gpgme_contextRKNS_5ErrorE@Base 4:4.4.0
 _ZN5GpgME12AssuanResultC2EP13gpgme_contexti@Base 4:4.4.0
 _ZN5GpgME12AssuanResultC2ERKNS_5ErrorE@Base 4:4.4.0
 _ZN5GpgME12AssuanResultC2Ev@Base 4:4.4.0
 _ZN5GpgME12ImportResult4initEP13gpgme_context@Base 4:4.3.4
 _ZN5GpgME12ImportResultC1EP13gpgme_contextRKNS_5ErrorE@Base 4:4.3.4
 _ZN5GpgME12ImportResultC1EP13gpgme_contexti@Base 4:4.3.4
 _ZN5GpgME12ImportResultC1ERKNS_5ErrorE@Base 4:4.3.4
 _ZN5GpgME12ImportResultC1Ev@Base 4:4.3.4
 _ZN5GpgME12ImportResultC2EP13gpgme_contextRKNS_5ErrorE@Base 4:4.3.4
 _ZN5GpgME12ImportResultC2EP13gpgme_contexti@Base 4:4.3.4
 _ZN5GpgME12ImportResultC2ERKNS_5ErrorE@Base 4:4.3.4
 _ZN5GpgME12ImportResultC2Ev@Base 4:4.3.4
 _ZN5GpgME12getQIODeviceEi@Base 4:4.3.4
 _ZN5GpgME13Configuration6Option11setNewValueERKNS0_8ArgumentE@Base 4:4.5.86
 _ZN5GpgME13Configuration6Option18resetToActiveValueEv@Base 4:4.5.86
 _ZN5GpgME13Configuration6Option19resetToDefaultValueEv@Base 4:4.5.86
 _ZN5GpgME13Configuration8ArgumentC1ERKN5boost10shared_ptrI15gpgme_conf_compEEP14gpgme_conf_optP14gpgme_conf_argb@Base 4:4.5.86
 _ZN5GpgME13Configuration8ArgumentC1ERKS1_@Base 4:4.5.86
 _ZN5GpgME13Configuration8ArgumentC2ERKN5boost10shared_ptrI15gpgme_conf_compEEP14gpgme_conf_optP14gpgme_conf_argb@Base 4:4.5.86
 _ZN5GpgME13Configuration8ArgumentC2ERKS1_@Base 4:4.5.86
 _ZN5GpgME13Configuration8ArgumentD1Ev@Base 4:4.5.86
 _ZN5GpgME13Configuration8ArgumentD2Ev@Base 4:4.5.86
 _ZN5GpgME13Configuration9Component4loadERNS_5ErrorE@Base 4:4.5.86
 _ZN5GpgME13ConfigurationlsERSoNS0_4FlagE@Base 4:4.5.86
 _ZN5GpgME13ConfigurationlsERSoNS0_4TypeE@Base 4:4.5.86
 _ZN5GpgME13ConfigurationlsERSoNS0_5LevelE@Base 4:4.5.86
 _ZN5GpgME13ConfigurationlsERSoRKNS0_6OptionE@Base 4:4.5.86
 _ZN5GpgME13ConfigurationlsERSoRKNS0_8ArgumentE@Base 4:4.5.86
 _ZN5GpgME13ConfigurationlsERSoRKNS0_9ComponentE@Base 4:4.5.86
 _ZN5GpgME13KeyListResult4initEP13gpgme_context@Base 4:4.3.4
 _ZN5GpgME13KeyListResult6detachEv@Base 4:4.3.4
 _ZN5GpgME13KeyListResult9mergeWithERKS0_@Base 4:4.3.4
 _ZN5GpgME13KeyListResultC1EP13gpgme_contextRKNS_5ErrorE@Base 4:4.3.4
 _ZN5GpgME13KeyListResultC1EP13gpgme_contexti@Base 4:4.3.4
 _ZN5GpgME13KeyListResultC1ERKNS_5ErrorE@Base 4:4.3.4
 _ZN5GpgME13KeyListResultC1ERKNS_5ErrorERK24_gpgme_op_keylist_result@Base 4:4.3.4
 _ZN5GpgME13KeyListResultC1Ev@Base 4:4.3.4
 _ZN5GpgME13KeyListResultC2EP13gpgme_contextRKNS_5ErrorE@Base 4:4.3.4
 _ZN5GpgME13KeyListResultC2EP13gpgme_contexti@Base 4:4.3.4
 _ZN5GpgME13KeyListResultC2ERKNS_5ErrorE@Base 4:4.3.4
 _ZN5GpgME13KeyListResultC2ERKNS_5ErrorERK24_gpgme_op_keylist_result@Base 4:4.3.4
 _ZN5GpgME13KeyListResultC2Ev@Base 4:4.3.4
 _ZN5GpgME13KeyListResultD1Ev@Base 4:4.6.5
 _ZN5GpgME13KeyListResultD2Ev@Base 4:4.6.5
 _ZN5GpgME13SigningResult4initEP13gpgme_context@Base 4:4.3.4
 _ZN5GpgME13SigningResultC1EP13gpgme_contextRKNS_5ErrorE@Base 4:4.3.4
 _ZN5GpgME13SigningResultC1EP13gpgme_contexti@Base 4:4.3.4
 _ZN5GpgME13SigningResultC1ERKNS_5ErrorE@Base 4:4.3.4
 _ZN5GpgME13SigningResultC1Ev@Base 4:4.3.4
 _ZN5GpgME13SigningResultC2EP13gpgme_contextRKNS_5ErrorE@Base 4:4.3.4
 _ZN5GpgME13SigningResultC2EP13gpgme_contexti@Base 4:4.3.4
 _ZN5GpgME13SigningResultC2ERKNS_5ErrorE@Base 4:4.3.4
 _ZN5GpgME13SigningResultC2Ev@Base 4:4.3.4
 _ZN5GpgME13SigningResultD1Ev@Base 4:4.6.5
 _ZN5GpgME13SigningResultD2Ev@Base 4:4.6.5
 _ZN5GpgME13getGIOChannelEi@Base 4:4.3.4
 _ZN5GpgME14EditInteractor15setDebugChannelEP8_IO_FILE@Base 4:4.3.4
 _ZN5GpgME14EditInteractor7PrivateC1EPS0_@Base 4:4.3.4
 _ZN5GpgME14EditInteractor7PrivateC2EPS0_@Base 4:4.3.4
 _ZN5GpgME14EditInteractor7PrivateD1Ev@Base 4:4.3.4
 _ZN5GpgME14EditInteractor7PrivateD2Ev@Base 4:4.3.4
 _ZN5GpgME14EditInteractorC1Ev@Base 4:4.3.4
 _ZN5GpgME14EditInteractorC2Ev@Base 4:4.3.4
 _ZN5GpgME14EditInteractorD0Ev@Base 4:4.3.4
 _ZN5GpgME14EditInteractorD1Ev@Base 4:4.3.4
 _ZN5GpgME14EditInteractorD2Ev@Base 4:4.3.4
 _ZN5GpgME14VfsMountResult4initEP13gpgme_context@Base 4:4.5.0
 _ZN5GpgME14VfsMountResultC1EP13gpgme_contextRKNS_5ErrorES5_@Base 4:4.5.0
 _ZN5GpgME14VfsMountResultC1ERKNS_5ErrorE@Base 4:4.5.0
 _ZN5GpgME14VfsMountResultC1Ev@Base 4:4.5.0
 _ZN5GpgME14VfsMountResultC2EP13gpgme_contextRKNS_5ErrorES5_@Base 4:4.5.0
 _ZN5GpgME14VfsMountResultC2ERKNS_5ErrorE@Base 4:4.5.0
 _ZN5GpgME14VfsMountResultC2Ev@Base 4:4.5.0
 _ZN5GpgME16CreatedSignatureC1ERKN5boost10shared_ptrINS_13SigningResult7PrivateEEEj@Base 4:4.3.4
 _ZN5GpgME16CreatedSignatureC1Ev@Base 4:4.3.4
 _ZN5GpgME16CreatedSignatureC2ERKN5boost10shared_ptrINS_13SigningResult7PrivateEEEj@Base 4:4.3.4
 _ZN5GpgME16CreatedSignatureC2Ev@Base 4:4.3.4
 _ZN5GpgME16DecryptionResult4initEP13gpgme_context@Base 4:4.3.4
 _ZN5GpgME16DecryptionResult9RecipientC1EP16_gpgme_recipient@Base 4:4.3.4
 _ZN5GpgME16DecryptionResult9RecipientC1Ev@Base 4:4.3.4
 _ZN5GpgME16DecryptionResult9RecipientC2EP16_gpgme_recipient@Base 4:4.3.4
 _ZN5GpgME16DecryptionResult9RecipientC2Ev@Base 4:4.3.4
 _ZN5GpgME16DecryptionResultC1EP13gpgme_contextRKNS_5ErrorE@Base 4:4.3.4
 _ZN5GpgME16DecryptionResultC1EP13gpgme_contexti@Base 4:4.3.4
 _ZN5GpgME16DecryptionResultC1ERKNS_5ErrorE@Base 4:4.3.4
 _ZN5GpgME16DecryptionResultC1Ev@Base 4:4.3.4
 _ZN5GpgME16DecryptionResultC2EP13gpgme_contextRKNS_5ErrorE@Base 4:4.3.4
 _ZN5GpgME16DecryptionResultC2EP13gpgme_contexti@Base 4:4.3.4
 _ZN5GpgME16DecryptionResultC2ERKNS_5ErrorE@Base 4:4.3.4
 _ZN5GpgME16DecryptionResultC2Ev@Base 4:4.3.4
 _ZN5GpgME16DecryptionResultD1Ev@Base 4:4.6.5
 _ZN5GpgME16DecryptionResultD2Ev@Base 4:4.6.5
 _ZN5GpgME16EncryptionResult4initEP13gpgme_context@Base 4:4.3.4
 _ZN5GpgME16EncryptionResultC1EP13gpgme_contextRKNS_5ErrorE@Base 4:4.3.4
 _ZN5GpgME16EncryptionResultC1EP13gpgme_contexti@Base 4:4.3.4
 _ZN5GpgME16EncryptionResultC1ERKNS_5ErrorE@Base 4:4.3.4
 _ZN5GpgME16EncryptionResultC1Ev@Base 4:4.3.4
 _ZN5GpgME16EncryptionResultC2EP13gpgme_contextRKNS_5ErrorE@Base 4:4.3.4
 _ZN5GpgME16EncryptionResultC2EP13gpgme_contexti@Base 4:4.3.4
 _ZN5GpgME16EncryptionResultC2ERKNS_5ErrorE@Base 4:4.3.4
 _ZN5GpgME16EncryptionResultC2Ev@Base 4:4.3.4
 _ZN5GpgME16EncryptionResultD1Ev@Base 4:4.6.5
 _ZN5GpgME16EncryptionResultD2Ev@Base 4:4.6.5
 _ZN5GpgME16InvalidRecipientC1ERKN5boost10shared_ptrINS_16EncryptionResult7PrivateEEEj@Base 4:4.3.4
 _ZN5GpgME16InvalidRecipientC1Ev@Base 4:4.3.4
 _ZN5GpgME16InvalidRecipientC2ERKN5boost10shared_ptrINS_16EncryptionResult7PrivateEEEj@Base 4:4.3.4
 _ZN5GpgME16InvalidRecipientC2Ev@Base 4:4.3.4
 _ZN5GpgME16setDefaultLocaleEiPKc@Base 4:4.3.4
 _ZN5GpgME17InvalidSigningKeyC1ERKN5boost10shared_ptrINS_13SigningResult7PrivateEEEj@Base 4:4.3.4
 _ZN5GpgME17InvalidSigningKeyC1Ev@Base 4:4.3.4
 _ZN5GpgME17InvalidSigningKeyC2ERKN5boost10shared_ptrINS_13SigningResult7PrivateEEEj@Base 4:4.3.4
 _ZN5GpgME17InvalidSigningKeyC2Ev@Base 4:4.3.4
 _ZN5GpgME17initializeLibraryEi@Base 4:4.4.0
 _ZN5GpgME17initializeLibraryEv@Base 4:4.3.4
 _ZN5GpgME18VerificationResult4initEP13gpgme_context@Base 4:4.3.4
 _ZN5GpgME18VerificationResultC1EP13gpgme_contextRKNS_5ErrorE@Base 4:4.3.4
 _ZN5GpgME18VerificationResultC1EP13gpgme_contexti@Base 4:4.3.4
 _ZN5GpgME18VerificationResultC1ERKNS_5ErrorE@Base 4:4.3.4
 _ZN5GpgME18VerificationResultC1Ev@Base 4:4.3.4
 _ZN5GpgME18VerificationResultC2EP13gpgme_contextRKNS_5ErrorE@Base 4:4.3.4
 _ZN5GpgME18VerificationResultC2EP13gpgme_contexti@Base 4:4.3.4
 _ZN5GpgME18VerificationResultC2ERKNS_5ErrorE@Base 4:4.3.4
 _ZN5GpgME18VerificationResultC2Ev@Base 4:4.3.4
 _ZN5GpgME18VerificationResultD1Ev@Base 4:4.6.5
 _ZN5GpgME18VerificationResultD2Ev@Base 4:4.6.5
 _ZN5GpgME19EventLoopInteractor5actOnEiNS0_9DirectionE@Base 4:4.3.4
 _ZN5GpgME19EventLoopInteractor5mSelfE@Base 4:4.3.4
 _ZN5GpgME19EventLoopInteractor6manageEPNS_7ContextE@Base 4:4.3.4
 _ZN5GpgME19EventLoopInteractor7Private10removeIOCbEPv@Base 4:4.3.4
 _ZN5GpgME19EventLoopInteractor7Private12registerIOCbEPviiPFjS2_iES2_PS2_@Base 4:4.3.4
 _ZN5GpgME19EventLoopInteractor7Private5iocbsE@Base 4:4.3.4
 _ZN5GpgME19EventLoopInteractor7Private9eventIOCbEPv16gpgme_event_io_tS2_@Base 4:4.3.4
 _ZN5GpgME19EventLoopInteractor8unmanageEPNS_7ContextE@Base 4:4.3.4
 _ZN5GpgME19EventLoopInteractorC1Ev@Base 4:4.3.4
 _ZN5GpgME19EventLoopInteractorC2Ev@Base 4:4.3.4
 _ZN5GpgME19EventLoopInteractorD0Ev@Base 4:4.3.4
 _ZN5GpgME19EventLoopInteractorD1Ev@Base 4:4.3.4
 _ZN5GpgME19EventLoopInteractorD2Ev@Base 4:4.3.4
 _ZN5GpgME19KeyGenerationResult4initEP13gpgme_context@Base 4:4.3.4
 _ZN5GpgME19KeyGenerationResultC1EP13gpgme_contextRKNS_5ErrorE@Base 4:4.3.4
 _ZN5GpgME19KeyGenerationResultC1EP13gpgme_contexti@Base 4:4.3.4
 _ZN5GpgME19KeyGenerationResultC1ERKNS_5ErrorE@Base 4:4.3.4
 _ZN5GpgME19KeyGenerationResultC1Ev@Base 4:4.3.4
 _ZN5GpgME19KeyGenerationResultC2EP13gpgme_contextRKNS_5ErrorE@Base 4:4.3.4
 _ZN5GpgME19KeyGenerationResultC2EP13gpgme_contexti@Base 4:4.3.4
 _ZN5GpgME19KeyGenerationResultC2ERKNS_5ErrorE@Base 4:4.3.4
 _ZN5GpgME19KeyGenerationResultC2Ev@Base 4:4.3.4
 _ZN5GpgME24DefaultAssuanTransaction4dataEPKcm@Base 4:4.4.0
 _ZN5GpgME24DefaultAssuanTransaction6statusEPKcS2_@Base 4:4.4.0
 _ZN5GpgME24DefaultAssuanTransaction7inquireEPKcS2_RNS_5ErrorE@Base 4:4.4.0
 _ZN5GpgME24DefaultAssuanTransactionC1Ev@Base 4:4.4.0
 _ZN5GpgME24DefaultAssuanTransactionC2Ev@Base 4:4.4.0
 _ZN5GpgME24DefaultAssuanTransactionD0Ev@Base 4:4.4.0
 _ZN5GpgME24DefaultAssuanTransactionD1Ev@Base 4:4.4.0
 _ZN5GpgME24DefaultAssuanTransactionD2Ev@Base 4:4.4.0
 _ZN5GpgME24GpgSignKeyEditInteractor13setCheckLevelEj@Base 4:4.3.4
 _ZN5GpgME24GpgSignKeyEditInteractor16setUserIDsToSignERKSt6vectorIjSaIjEE@Base 4:4.3.4
 _ZN5GpgME24GpgSignKeyEditInteractor17setSigningOptionsEi@Base 4:4.3.4
 _ZN5GpgME24GpgSignKeyEditInteractor7PrivateC1Ev@Base 4:4.3.4
 _ZN5GpgME24GpgSignKeyEditInteractor7PrivateC2Ev@Base 4:4.3.4
 _ZN5GpgME24GpgSignKeyEditInteractorC1Ev@Base 4:4.3.4
 _ZN5GpgME24GpgSignKeyEditInteractorC2Ev@Base 4:4.3.4
 _ZN5GpgME24GpgSignKeyEditInteractorD0Ev@Base 4:4.3.4
 _ZN5GpgME24GpgSignKeyEditInteractorD1Ev@Base 4:4.3.4
 _ZN5GpgME24GpgSignKeyEditInteractorD2Ev@Base 4:4.3.4
 _ZN5GpgME26GpgAddUserIDEditInteractor11setNameUtf8ERKSs@Base 4:4.3.4
 _ZN5GpgME26GpgAddUserIDEditInteractor12setEmailUtf8ERKSs@Base 4:4.3.4
 _ZN5GpgME26GpgAddUserIDEditInteractor14setCommentUtf8ERKSs@Base 4:4.3.4
 _ZN5GpgME26GpgAddUserIDEditInteractorC1Ev@Base 4:4.3.4
 _ZN5GpgME26GpgAddUserIDEditInteractorC2Ev@Base 4:4.3.4
 _ZN5GpgME26GpgAddUserIDEditInteractorD0Ev@Base 4:4.3.4
 _ZN5GpgME26GpgAddUserIDEditInteractorD1Ev@Base 4:4.3.4
 _ZN5GpgME26GpgAddUserIDEditInteractorD2Ev@Base 4:4.3.4
 _ZN5GpgME27ScdGetInfoAssuanTransaction4dataEPKcm@Base 4:4.4.0
 _ZN5GpgME27ScdGetInfoAssuanTransaction6statusEPKcS2_@Base 4:4.4.0
 _ZN5GpgME27ScdGetInfoAssuanTransaction7inquireEPKcS2_RNS_5ErrorE@Base 4:4.4.0
 _ZN5GpgME27ScdGetInfoAssuanTransactionC1ENS0_8InfoItemE@Base 4:4.4.0
 _ZN5GpgME27ScdGetInfoAssuanTransactionC2ENS0_8InfoItemE@Base 4:4.4.0
 _ZN5GpgME27ScdGetInfoAssuanTransactionD0Ev@Base 4:4.4.0
 _ZN5GpgME27ScdGetInfoAssuanTransactionD1Ev@Base 4:4.4.0
 _ZN5GpgME27ScdGetInfoAssuanTransactionD2Ev@Base 4:4.4.0
 _ZN5GpgME30GpgSetExpiryTimeEditInteractorC1ERKSs@Base 4:4.3.4
 _ZN5GpgME30GpgSetExpiryTimeEditInteractorC2ERKSs@Base 4:4.3.4
 _ZN5GpgME30GpgSetExpiryTimeEditInteractorD0Ev@Base 4:4.3.4
 _ZN5GpgME30GpgSetExpiryTimeEditInteractorD1Ev@Base 4:4.3.4
 _ZN5GpgME30GpgSetExpiryTimeEditInteractorD2Ev@Base 4:4.3.4
 _ZN5GpgME30GpgSetOwnerTrustEditInteractorC1ENS_3Key10OwnerTrustE@Base 4:4.3.4
 _ZN5GpgME30GpgSetOwnerTrustEditInteractorC2ENS_3Key10OwnerTrustE@Base 4:4.3.4
 _ZN5GpgME30GpgSetOwnerTrustEditInteractorD0Ev@Base 4:4.3.4
 _ZN5GpgME30GpgSetOwnerTrustEditInteractorD1Ev@Base 4:4.3.4
 _ZN5GpgME30GpgSetOwnerTrustEditInteractorD2Ev@Base 4:4.3.4
 _ZN5GpgME32GpgAgentGetInfoAssuanTransaction4dataEPKcm@Base 4:4.4.0
 _ZN5GpgME32GpgAgentGetInfoAssuanTransaction6statusEPKcS2_@Base 4:4.4.0
 _ZN5GpgME32GpgAgentGetInfoAssuanTransaction7inquireEPKcS2_RNS_5ErrorE@Base 4:4.4.0
 _ZN5GpgME32GpgAgentGetInfoAssuanTransactionC1ENS0_8InfoItemE@Base 4:4.4.0
 _ZN5GpgME32GpgAgentGetInfoAssuanTransactionC2ENS0_8InfoItemE@Base 4:4.4.0
 _ZN5GpgME32GpgAgentGetInfoAssuanTransactionD0Ev@Base 4:4.4.0
 _ZN5GpgME32GpgAgentGetInfoAssuanTransactionD1Ev@Base 4:4.4.0
 _ZN5GpgME32GpgAgentGetInfoAssuanTransactionD2Ev@Base 4:4.4.0
 _ZN5GpgME3Key4nullE@Base 4:4.3.4
 _ZN5GpgME3Key9mergeWithERKS0_@Base 4:4.3.4
 _ZN5GpgME3KeyC1EP10_gpgme_keyb@Base 4:4.3.4
 _ZN5GpgME3KeyC1ERKN5boost10shared_ptrI10_gpgme_keyEE@Base 4:4.3.4
 _ZN5GpgME3KeyC1ERKNS0_4NullE@Base 4:4.3.4
 _ZN5GpgME3KeyC1Ev@Base 4:4.3.4
 _ZN5GpgME3KeyC2EP10_gpgme_keyb@Base 4:4.3.4
 _ZN5GpgME3KeyC2ERKN5boost10shared_ptrI10_gpgme_keyEE@Base 4:4.3.4
 _ZN5GpgME3KeyC2ERKNS0_4NullE@Base 4:4.3.4
 _ZN5GpgME3KeyC2Ev@Base 4:4.3.4
 _ZN5GpgME3KeyD1Ev@Base 4:4.8.3
 _ZN5GpgME3KeyD2Ev@Base 4:4.8.3
 _ZN5GpgME4Data11setEncodingENS0_8EncodingE@Base 4:4.3.4
 _ZN5GpgME4Data11setFileNameEPKc@Base 4:4.3.4
 _ZN5GpgME4Data4nullE@Base 4:4.3.4
 _ZN5GpgME4Data4readEPvm@Base 4:4.3.4
 _ZN5GpgME4Data4seekEli@Base 4:4.3.4
 _ZN5GpgME4Data5writeEPKvm@Base 4:4.3.4
 _ZN5GpgME4Data7PrivateD1Ev@Base 4:4.3.4
 _ZN5GpgME4Data7PrivateD2Ev@Base 4:4.3.4
 _ZN5GpgME4DataC1EP10gpgme_data@Base 4:4.3.4
 _ZN5GpgME4DataC1EP8_IO_FILE@Base 4:4.3.4
 _ZN5GpgME4DataC1EP8_IO_FILElm@Base 4:4.3.4
 _ZN5GpgME4DataC1EPKc@Base 4:4.3.4
 _ZN5GpgME4DataC1EPKclm@Base 4:4.3.4
 _ZN5GpgME4DataC1EPKcmb@Base 4:4.3.4
 _ZN5GpgME4DataC1EPNS_12DataProviderE@Base 4:4.3.4
 _ZN5GpgME4DataC1ERKNS0_4NullE@Base 4:4.3.4
 _ZN5GpgME4DataC1Ei@Base 4:4.3.4
 _ZN5GpgME4DataC1Ev@Base 4:4.3.4
 _ZN5GpgME4DataC2EP10gpgme_data@Base 4:4.3.4
 _ZN5GpgME4DataC2EP8_IO_FILE@Base 4:4.3.4
 _ZN5GpgME4DataC2EP8_IO_FILElm@Base 4:4.3.4
 _ZN5GpgME4DataC2EPKc@Base 4:4.3.4
 _ZN5GpgME4DataC2EPKclm@Base 4:4.3.4
 _ZN5GpgME4DataC2EPKcmb@Base 4:4.3.4
 _ZN5GpgME4DataC2EPNS_12DataProviderE@Base 4:4.3.4
 _ZN5GpgME4DataC2ERKNS0_4NullE@Base 4:4.3.4
 _ZN5GpgME4DataC2Ei@Base 4:4.3.4
 _ZN5GpgME4DataC2Ev@Base 4:4.3.4
 _ZN5GpgME4DataD1Ev@Base 4:4.8.3
 _ZN5GpgME4DataD2Ev@Base 4:4.8.3
 _ZN5GpgME5Error14hasSystemErrorEv@Base 4:4.5.86
 _ZN5GpgME5Error14setSystemErrorE14gpg_err_code_t@Base 4:4.5.86
 _ZN5GpgME5Error15fromSystemErrorEj@Base 4:4.5.86
 _ZN5GpgME5Error8fromCodeEjj@Base 4:4.5.86
 _ZN5GpgME5Error8setErrnoEi@Base 4:4.5.86
 _ZN5GpgME5Error9fromErrnoEij@Base 4:4.5.86
 _ZN5GpgME5ErrorD1Ev@Base 4:4.6.5
 _ZN5GpgME5ErrorD2Ev@Base 4:4.6.5
 _ZN5GpgME6ImportC1ERKN5boost10shared_ptrINS_12ImportResult7PrivateEEEj@Base 4:4.3.4
 _ZN5GpgME6ImportC1Ev@Base 4:4.3.4
 _ZN5GpgME6ImportC2ERKN5boost10shared_ptrINS_12ImportResult7PrivateEEEj@Base 4:4.3.4
 _ZN5GpgME6ImportC2Ev@Base 4:4.3.4
 _ZN5GpgME6ResultD1Ev@Base 4:4.8.3
 _ZN5GpgME6ResultD2Ev@Base 4:4.8.3
 _ZN5GpgME6SubkeyC1ERKN5boost10shared_ptrI10_gpgme_keyEEP13_gpgme_subkey@Base 4:4.3.4
 _ZN5GpgME6SubkeyC1ERKN5boost10shared_ptrI10_gpgme_keyEEj@Base 4:4.3.4
 _ZN5GpgME6SubkeyC1Ev@Base 4:4.3.4
 _ZN5GpgME6SubkeyC2ERKN5boost10shared_ptrI10_gpgme_keyEEP13_gpgme_subkey@Base 4:4.3.4
 _ZN5GpgME6SubkeyC2ERKN5boost10shared_ptrI10_gpgme_keyEEj@Base 4:4.3.4
 _ZN5GpgME6SubkeyC2Ev@Base 4:4.3.4
 _ZN5GpgME6UserID9SignatureC1ERKN5boost10shared_ptrI10_gpgme_keyEEP14_gpgme_user_idP14_gpgme_key_sig@Base 4:4.3.4
 _ZN5GpgME6UserID9SignatureC1ERKN5boost10shared_ptrI10_gpgme_keyEEP14_gpgme_user_idj@Base 4:4.3.4
 _ZN5GpgME6UserID9SignatureC1Ev@Base 4:4.3.4
 _ZN5GpgME6UserID9SignatureC2ERKN5boost10shared_ptrI10_gpgme_keyEEP14_gpgme_user_idP14_gpgme_key_sig@Base 4:4.3.4
 _ZN5GpgME6UserID9SignatureC2ERKN5boost10shared_ptrI10_gpgme_keyEEP14_gpgme_user_idj@Base 4:4.3.4
 _ZN5GpgME6UserID9SignatureC2Ev@Base 4:4.3.4
 _ZN5GpgME6UserIDC1ERKN5boost10shared_ptrI10_gpgme_keyEEP14_gpgme_user_id@Base 4:4.3.4
 _ZN5GpgME6UserIDC1ERKN5boost10shared_ptrI10_gpgme_keyEEj@Base 4:4.3.4
 _ZN5GpgME6UserIDC1Ev@Base 4:4.3.4
 _ZN5GpgME6UserIDC2ERKN5boost10shared_ptrI10_gpgme_keyEEP14_gpgme_user_id@Base 4:4.3.4
 _ZN5GpgME6UserIDC2ERKN5boost10shared_ptrI10_gpgme_keyEEj@Base 4:4.3.4
 _ZN5GpgME6UserIDC2Ev@Base 4:4.3.4
 _ZN5GpgME7Context10importKeysERKNS_4DataE@Base 4:4.3.4
 _ZN5GpgME7Context10importKeysERKSt6vectorINS_3KeyESaIS2_EE@Base 4:4.4.0
 _ZN5GpgME7Context11generateKeyEPKcRNS_4DataE@Base 4:4.3.4
 _ZN5GpgME7Context11getAuditLogERNS_4DataEj@Base 4:4.3.4
 _ZN5GpgME7Context11setTextModeEb@Base 4:4.3.4
 _ZN5GpgME7Context11startPasswdERKNS_3KeyE@Base 4:4.5.0
 _ZN5GpgME7Context12startEditingERKNS_3KeyESt8auto_ptrINS_14EditInteractorEERNS_4DataE@Base 4:4.3.4
 _ZN5GpgME7Context12startSigningERKNS_4DataERS1_NS_13SignatureModeE@Base 4:4.3.4
 _ZN5GpgME7Context13addSigningKeyERKNS_3KeyE@Base 4:4.3.4
 _ZN5GpgME7Context13endKeyListingEv@Base 4:4.3.4
 _ZN5GpgME7Context13nextTrustItemERNS_5ErrorE@Base 4:4.3.4
 _ZN5GpgME7Context14addKeyListModeEj@Base 4:4.3.4
 _ZN5GpgME7Context14assuanTransactEPKc@Base 4:4.4.0
 _ZN5GpgME7Context14assuanTransactEPKcSt8auto_ptrINS_17AssuanTransactionEE@Base 4:4.4.0
 _ZN5GpgME7Context14setKeyListModeEj@Base 4:4.3.4
 _ZN5GpgME7Context14signAndEncryptERKSt6vectorINS_3KeyESaIS2_EERKNS_4DataERS7_NS0_15EncryptionFlagsE@Base 4:4.3.4
 _ZN5GpgME7Context14startKeyImportERKNS_4DataE@Base 4:4.3.4
 _ZN5GpgME7Context14startKeyImportERKSt6vectorINS_3KeyESaIS2_EE@Base 4:4.4.0
 _ZN5GpgME7Context15createForEngineENS_6EngineEPNS_5ErrorE@Base 4:4.4.0
 _ZN5GpgME7Context15startDecryptionERKNS_4DataERS1_@Base 4:4.3.4
 _ZN5GpgME7Context15startEncryptionERKSt6vectorINS_3KeyESaIS2_EERKNS_4DataERS7_NS0_15EncryptionFlagsE@Base 4:4.3.4
 _ZN5GpgME7Context15startKeyListingEPKcb@Base 4:4.3.4
 _ZN5GpgME7Context15startKeyListingEPPKcb@Base 4:4.3.4
 _ZN5GpgME7Context16clearSigningKeysEv@Base 4:4.3.4
 _ZN5GpgME7Context16decryptAndVerifyERKNS_4DataERS1_@Base 4:4.3.4
 _ZN5GpgME7Context16exportPublicKeysEPKcRNS_4DataE@Base 4:4.3.4
 _ZN5GpgME7Context16exportPublicKeysEPPKcRNS_4DataE@Base 4:4.3.4
 _ZN5GpgME7Context16startCardEditingERKNS_3KeyESt8auto_ptrINS_14EditInteractorEERNS_4DataE@Base 4:4.3.4
 _ZN5GpgME7Context16startGetAuditLogERNS_4DataEj@Base 4:4.3.4
 _ZN5GpgME7Context16startKeyDeletionERKNS_3KeyEb@Base 4:4.3.4
 _ZN5GpgME7Context17createForProtocolENS_8ProtocolE@Base 4:4.3.4
 _ZN5GpgME7Context17setEngineFileNameEPKc@Base 4:4.3.4
 _ZN5GpgME7Context18installIOCallbacksEP12gpgme_io_cbs@Base 4:4.3.4
 _ZN5GpgME7Context18startKeyGenerationEPKcRNS_4DataE@Base 4:4.3.4
 _ZN5GpgME7Context19endTrustItemListingEv@Base 4:4.3.4
 _ZN5GpgME7Context19setProgressProviderEPNS_16ProgressProviderE@Base 4:4.3.4
 _ZN5GpgME7Context20addSignatureNotationEPKcS2_j@Base 4:4.3.4
 _ZN5GpgME7Context20encryptSymmetricallyERKNS_4DataERS1_@Base 4:4.3.4
 _ZN5GpgME7Context20startPublicKeyExportEPKcRNS_4DataE@Base 4:4.3.4
 _ZN5GpgME7Context20startPublicKeyExportEPPKcRNS_4DataE@Base 4:4.3.4
 _ZN5GpgME7Context20uninstallIOCallbacksEv@Base 4:4.3.4
 _ZN5GpgME7Context21addSignaturePolicyURLEPKcb@Base 4:4.3.4
 _ZN5GpgME7Context21setPassphraseProviderEPNS_18PassphraseProviderE@Base 4:4.3.4
 _ZN5GpgME7Context21startTrustItemListingEPKci@Base 4:4.3.4
 _ZN5GpgME7Context21verifyOpaqueSignatureERKNS_4DataERS1_@Base 4:4.3.4
 _ZN5GpgME7Context22cancelPendingOperationEv@Base 4:4.3.4
 _ZN5GpgME7Context22setEngineHomeDirectoryEPKc@Base 4:4.3.4
 _ZN5GpgME7Context22setIncludeCertificatesEi@Base 4:4.3.4
 _ZN5GpgME7Context22startAssuanTransactionEPKc@Base 4:4.4.0
 _ZN5GpgME7Context22startAssuanTransactionEPKcSt8auto_ptrINS_17AssuanTransactionEE@Base 4:4.4.0
 _ZN5GpgME7Context22takeLastEditInteractorEv@Base 4:4.4.0
 _ZN5GpgME7Context23clearSignatureNotationsEv@Base 4:4.3.4
 _ZN5GpgME7Context23verifyDetachedSignatureERKNS_4DataES3_@Base 4:4.3.4
 _ZN5GpgME7Context25takeLastAssuanTransactionEv@Base 4:4.4.0
 _ZN5GpgME7Context26takeLastCardEditInteractorEv@Base 4:4.4.0
 _ZN5GpgME7Context31setManagedByEventLoopInteractorEb@Base 4:4.3.4
 _ZN5GpgME7Context32startOpaqueSignatureVerificationERKNS_4DataERS1_@Base 4:4.3.4
 _ZN5GpgME7Context33startCombinedSigningAndEncryptionERKSt6vectorINS_3KeyESaIS2_EERKNS_4DataERS7_NS0_15EncryptionFlagsE@Base 4:4.3.4
 _ZN5GpgME7Context34startDetachedSignatureVerificationERKNS_4DataES3_@Base 4:4.3.4
 _ZN5GpgME7Context38startCombinedDecryptionAndVerificationERKNS_4DataERS1_@Base 4:4.3.4
 _ZN5GpgME7Context3keyEPKcRNS_5ErrorEb@Base 4:4.3.4
 _ZN5GpgME7Context4editERKNS_3KeyESt8auto_ptrINS_14EditInteractorEERNS_4DataE@Base 4:4.3.4
 _ZN5GpgME7Context4pollEv@Base 4:4.3.4
 _ZN5GpgME7Context4signERKNS_4DataERS1_NS_13SignatureModeE@Base 4:4.3.4
 _ZN5GpgME7Context4waitEv@Base 4:4.3.4
 _ZN5GpgME7Context6passwdERKNS_3KeyE@Base 4:4.5.0
 _ZN5GpgME7Context7PrivateC1EP13gpgme_context@Base 4:4.3.4
 _ZN5GpgME7Context7PrivateC2EP13gpgme_context@Base 4:4.3.4
 _ZN5GpgME7Context7PrivateD1Ev@Base 4:4.3.4
 _ZN5GpgME7Context7PrivateD2Ev@Base 4:4.3.4
 _ZN5GpgME7Context7decryptERKNS_4DataERS1_@Base 4:4.3.4
 _ZN5GpgME7Context7encryptERKSt6vectorINS_3KeyESaIS2_EERKNS_4DataERS7_NS0_15EncryptionFlagsE@Base 4:4.3.4
 _ZN5GpgME7Context7nextKeyERNS_5ErrorE@Base 4:4.3.4
 _ZN5GpgME7Context8cardEditERKNS_3KeyESt8auto_ptrINS_14EditInteractorEERNS_4DataE@Base 4:4.3.4
 _ZN5GpgME7Context8mountVFSEPKcS2_@Base 4:4.5.0
 _ZN5GpgME7Context8setArmorEb@Base 4:4.3.4
 _ZN5GpgME7Context9createVFSEPKcRKSt6vectorINS_3KeyESaIS4_EE@Base 4:4.5.0
 _ZN5GpgME7Context9deleteKeyERKNS_3KeyEb@Base 4:4.3.4
 _ZN5GpgME7Context9setLocaleEiPKc@Base 4:4.3.4
 _ZN5GpgME7ContextC1EP13gpgme_context@Base 4:4.3.4
 _ZN5GpgME7ContextC2EP13gpgme_context@Base 4:4.3.4
 _ZN5GpgME7ContextD0Ev@Base 4:4.3.4
 _ZN5GpgME7ContextD1Ev@Base 4:4.3.4
 _ZN5GpgME7ContextD2Ev@Base 4:4.3.4
 _ZN5GpgME8NotationC1EP19_gpgme_sig_notation@Base 4:4.3.4
 _ZN5GpgME8NotationC1ERKN5boost10shared_ptrINS_18VerificationResult7PrivateEEEjj@Base 4:4.3.4
 _ZN5GpgME8NotationC1Ev@Base 4:4.3.4
 _ZN5GpgME8NotationC2EP19_gpgme_sig_notation@Base 4:4.3.4
 _ZN5GpgME8NotationC2ERKN5boost10shared_ptrINS_18VerificationResult7PrivateEEEjj@Base 4:4.3.4
 _ZN5GpgME8NotationC2Ev@Base 4:4.3.4
 _ZN5GpgME9Exception12make_messageERKNS_5ErrorERKSs@Base 4:4.3.4
 _ZN5GpgME9Exception12make_messageERKNS_5ErrorERKSsNS0_7OptionsE@Base 4:4.5.0
 _ZN5GpgME9ExceptionD0Ev@Base 4:4.3.4
 _ZN5GpgME9ExceptionD1Ev@Base 4:4.3.4
 _ZN5GpgME9ExceptionD2Ev@Base 4:4.3.4
 _ZN5GpgME9SignatureC1ERKN5boost10shared_ptrINS_18VerificationResult7PrivateEEEj@Base 4:4.3.4
 _ZN5GpgME9SignatureC1Ev@Base 4:4.3.4
 _ZN5GpgME9SignatureC2ERKN5boost10shared_ptrINS_18VerificationResult7PrivateEEEj@Base 4:4.3.4
 _ZN5GpgME9SignatureC2Ev@Base 4:4.3.4
 _ZN5GpgME9TrustItemC1EP17_gpgme_trust_item@Base 4:4.3.4
 _ZN5GpgME9TrustItemC1ERKS0_@Base 4:4.3.4
 _ZN5GpgME9TrustItemC2EP17_gpgme_trust_item@Base 4:4.3.4
 _ZN5GpgME9TrustItemC2ERKS0_@Base 4:4.3.4
 _ZN5GpgME9TrustItemD0Ev@Base 4:4.3.4
 _ZN5GpgME9TrustItemD1Ev@Base 4:4.3.4
 _ZN5GpgME9TrustItemD2Ev@Base 4:4.3.4
 _ZN5GpgMElsERSoNS_11KeyListModeE@Base 4:4.3.4
 _ZN5GpgMElsERSoNS_13SignatureModeE@Base 4:4.3.4
 _ZN5GpgMElsERSoNS_6EngineE@Base 4:4.3.4
 _ZN5GpgMElsERSoNS_7Context13AuditLogFlagsE@Base 4:4.3.4
 _ZN5GpgMElsERSoNS_7Context15EncryptionFlagsE@Base 4:4.3.4
 _ZN5GpgMElsERSoNS_7Context20CertificateInclusionE@Base 4:4.3.4
 _ZN5GpgMElsERSoNS_8Notation5FlagsE@Base 4:4.3.4
 _ZN5GpgMElsERSoNS_8ProtocolE@Base 4:4.3.4
 _ZN5GpgMElsERSoNS_9Signature7SummaryE@Base 4:4.3.4
 _ZN5GpgMElsERSoNS_9Signature9PKAStatusE@Base 4:4.3.4
 _ZN5GpgMElsERSoRKNS_12AssuanResultE@Base 4:4.4.0
 _ZN5GpgMElsERSoRKNS_13SigningResultE@Base 4:4.3.4
 _ZN5GpgMElsERSoRKNS_14VfsMountResultE@Base 4:4.5.0
 _ZN5GpgMElsERSoRKNS_16CreatedSignatureE@Base 4:4.3.4
 _ZN5GpgMElsERSoRKNS_16DecryptionResult9RecipientE@Base 4:4.3.4
 _ZN5GpgMElsERSoRKNS_16DecryptionResultE@Base 4:4.3.4
 _ZN5GpgMElsERSoRKNS_16EncryptionResultE@Base 4:4.3.4
 _ZN5GpgMElsERSoRKNS_16InvalidRecipientE@Base 4:4.3.4
 _ZN5GpgMElsERSoRKNS_17InvalidSigningKeyE@Base 4:4.3.4
 _ZN5GpgMElsERSoRKNS_18VerificationResultE@Base 4:4.3.4
 _ZN5GpgMElsERSoRKNS_5ErrorE@Base 4:4.3.4
 _ZN5GpgMElsERSoRKNS_8NotationE@Base 4:4.3.4
 _ZN5GpgMElsERSoRKNS_9SignatureE@Base 4:4.3.4
 _ZNK5GpgME10EngineInfo13homeDirectoryEv@Base 4:4.3.4
 _ZNK5GpgME10EngineInfo15requiredVersionEv@Base 4:4.3.4
 _ZNK5GpgME10EngineInfo6isNullEv@Base 4:4.3.4
 _ZNK5GpgME10EngineInfo7versionEv@Base 4:4.3.4
 _ZNK5GpgME10EngineInfo8fileNameEv@Base 4:4.3.4
 _ZNK5GpgME10EngineInfo8protocolEv@Base 4:4.3.4
 _ZNK5GpgME12AssuanResult11assuanErrorEv@Base 4:4.4.0
 _ZNK5GpgME12AssuanResult6isNullEv@Base 4:4.4.0
 _ZNK5GpgME12ImportResult10newSubkeysEv@Base 4:4.3.4
 _ZNK5GpgME12ImportResult10newUserIDsEv@Base 4:4.3.4
 _ZNK5GpgME12ImportResult11notImportedEv@Base 4:4.3.4
 _ZNK5GpgME12ImportResult11numImportedEv@Base 4:4.3.4
 _ZNK5GpgME12ImportResult12numUnchangedEv@Base 4:4.3.4
 _ZNK5GpgME12ImportResult13newSignaturesEv@Base 4:4.3.4
 _ZNK5GpgME12ImportResult13numConsideredEv@Base 4:4.3.4
 _ZNK5GpgME12ImportResult14newRevocationsEv@Base 4:4.3.4
 _ZNK5GpgME12ImportResult14numRSAImportedEv@Base 4:4.3.4
 _ZNK5GpgME12ImportResult20numKeysWithoutUserIDEv@Base 4:4.3.4
 _ZNK5GpgME12ImportResult21numSecretKeysImportedEv@Base 4:4.3.4
 _ZNK5GpgME12ImportResult22numSecretKeysUnchangedEv@Base 4:4.3.4
 _ZNK5GpgME12ImportResult23numSecretKeysConsideredEv@Base 4:4.3.4
 _ZNK5GpgME12ImportResult6importEj@Base 4:4.3.4
 _ZNK5GpgME12ImportResult6isNullEv@Base 4:4.3.4
 _ZNK5GpgME12ImportResult7importsEv@Base 4:4.3.4
 _ZNK5GpgME13Configuration6Option11activeValueEv@Base 4:4.5.86
 _ZNK5GpgME13Configuration6Option11descriptionEv@Base 4:4.5.86
 _ZNK5GpgME13Configuration6Option12argumentNameEv@Base 4:4.5.86
 _ZNK5GpgME13Configuration6Option12currentValueEv@Base 4:4.5.86
 _ZNK5GpgME13Configuration6Option12defaultValueEv@Base 4:4.5.86
 _ZNK5GpgME13Configuration6Option13alternateTypeEv@Base 4:4.5.86
 _ZNK5GpgME13Configuration6Option15noArgumentValueEv@Base 4:4.5.86
 _ZNK5GpgME13Configuration6Option17createIntArgumentEi@Base 4:4.5.86
 _ZNK5GpgME13Configuration6Option18createNoneArgumentEb@Base 4:4.5.86
 _ZNK5GpgME13Configuration6Option18createUIntArgumentEj@Base 4:4.5.86
 _ZNK5GpgME13Configuration6Option18defaultDescriptionEv@Base 4:4.5.86
 _ZNK5GpgME13Configuration6Option20createStringArgumentEPKc@Base 4:4.5.86
 _ZNK5GpgME13Configuration6Option20createStringArgumentERKSs@Base 4:4.5.86
 _ZNK5GpgME13Configuration6Option21createIntListArgumentERKSt6vectorIiSaIiEE@Base 4:4.5.86
 _ZNK5GpgME13Configuration6Option21noArgumentDescriptionEv@Base 4:4.5.86
 _ZNK5GpgME13Configuration6Option22createNoneListArgumentEj@Base 4:4.5.86
 _ZNK5GpgME13Configuration6Option22createUIntListArgumentERKSt6vectorIjSaIjEE@Base 4:4.5.86
 _ZNK5GpgME13Configuration6Option24createStringListArgumentERKSt6vectorIPKcSaIS4_EE@Base 4:4.5.86
 _ZNK5GpgME13Configuration6Option24createStringListArgumentERKSt6vectorISsSaISsEE@Base 4:4.5.86
 _ZNK5GpgME13Configuration6Option3setEv@Base 4:4.5.86
 _ZNK5GpgME13Configuration6Option4nameEv@Base 4:4.5.86
 _ZNK5GpgME13Configuration6Option4typeEv@Base 4:4.5.86
 _ZNK5GpgME13Configuration6Option5dirtyEv@Base 4:4.5.86
 _ZNK5GpgME13Configuration6Option5flagsEv@Base 4:4.5.86
 _ZNK5GpgME13Configuration6Option5levelEv@Base 4:4.5.86
 _ZNK5GpgME13Configuration6Option6parentEv@Base 4:4.5.86
 _ZNK5GpgME13Configuration6Option8newValueEv@Base 4:4.5.86
 _ZNK5GpgME13Configuration8Argument10uintValuesEv@Base 4:4.5.86
 _ZNK5GpgME13Configuration8Argument11numElementsEv@Base 4:4.5.86
 _ZNK5GpgME13Configuration8Argument11stringValueEj@Base 4:4.5.86
 _ZNK5GpgME13Configuration8Argument12stringValuesEv@Base 4:4.5.86
 _ZNK5GpgME13Configuration8Argument16numberOfTimesSetEv@Base 4:4.5.86
 _ZNK5GpgME13Configuration8Argument6parentEv@Base 4:4.5.86
 _ZNK5GpgME13Configuration8Argument8intValueEj@Base 4:4.5.86
 _ZNK5GpgME13Configuration8Argument9boolValueEv@Base 4:4.5.86
 _ZNK5GpgME13Configuration8Argument9intValuesEv@Base 4:4.5.86
 _ZNK5GpgME13Configuration8Argument9uintValueEj@Base 4:4.5.86
 _ZNK5GpgME13Configuration9Component10numOptionsEv@Base 4:4.5.86
 _ZNK5GpgME13Configuration9Component11descriptionEv@Base 4:4.5.86
 _ZNK5GpgME13Configuration9Component11programNameEv@Base 4:4.5.86
 _ZNK5GpgME13Configuration9Component4nameEv@Base 4:4.5.86
 _ZNK5GpgME13Configuration9Component4saveEv@Base 4:4.5.86
 _ZNK5GpgME13Configuration9Component6optionEPKc@Base 4:4.5.86
 _ZNK5GpgME13Configuration9Component6optionEj@Base 4:4.5.86
 _ZNK5GpgME13Configuration9Component7optionsEv@Base 4:4.5.86
 _ZNK5GpgME13KeyListResult11isTruncatedEv@Base 4:4.3.4
 _ZNK5GpgME13KeyListResult6isNullEv@Base 4:4.3.4
 _ZNK5GpgME13SigningResult16createdSignatureEj@Base 4:4.3.4
 _ZNK5GpgME13SigningResult17createdSignaturesEv@Base 4:4.3.4
 _ZNK5GpgME13SigningResult17invalidSigningKeyEj@Base 4:4.3.4
 _ZNK5GpgME13SigningResult18invalidSigningKeysEv@Base 4:4.3.4
 _ZNK5GpgME13SigningResult6isNullEv@Base 4:4.3.4
 _ZNK5GpgME14EditInteractor15needsNoResponseEj@Base 4:4.3.4
 _ZNK5GpgME14EditInteractor5stateEv@Base 4:4.3.4
 _ZNK5GpgME14EditInteractor9lastErrorEv@Base 4:4.3.4
 _ZNK5GpgME14VfsMountResult6isNullEv@Base 4:4.5.0
 _ZNK5GpgME14VfsMountResult8mountDirEv@Base 4:4.5.0
 _ZNK5GpgME16CreatedSignature11fingerprintEv@Base 4:4.3.4
 _ZNK5GpgME16CreatedSignature12creationTimeEv@Base 4:4.3.4
 _ZNK5GpgME16CreatedSignature13hashAlgorithmEv@Base 4:4.3.4
 _ZNK5GpgME16CreatedSignature14signatureClassEv@Base 4:4.3.4
 _ZNK5GpgME16CreatedSignature18publicKeyAlgorithmEv@Base 4:4.3.4
 _ZNK5GpgME16CreatedSignature21hashAlgorithmAsStringEv@Base 4:4.3.4
 _ZNK5GpgME16CreatedSignature26publicKeyAlgorithmAsStringEv@Base 4:4.3.4
 _ZNK5GpgME16CreatedSignature4modeEv@Base 4:4.3.4
 _ZNK5GpgME16CreatedSignature6isNullEv@Base 4:4.3.4
 _ZNK5GpgME16DecryptionResult10recipientsEv@Base 4:4.3.4
 _ZNK5GpgME16DecryptionResult13numRecipientsEv@Base 4:4.3.4
 _ZNK5GpgME16DecryptionResult15isWrongKeyUsageEv@Base 4:4.3.4
 _ZNK5GpgME16DecryptionResult20unsupportedAlgorithmEv@Base 4:4.3.4
 _ZNK5GpgME16DecryptionResult6isNullEv@Base 4:4.3.4
 _ZNK5GpgME16DecryptionResult8fileNameEv@Base 4:4.3.4
 _ZNK5GpgME16DecryptionResult9Recipient10shortKeyIDEv@Base 4:4.3.4
 _ZNK5GpgME16DecryptionResult9Recipient18publicKeyAlgorithmEv@Base 4:4.3.4
 _ZNK5GpgME16DecryptionResult9Recipient26publicKeyAlgorithmAsStringEv@Base 4:4.3.4
 _ZNK5GpgME16DecryptionResult9Recipient5keyIDEv@Base 4:4.3.4
 _ZNK5GpgME16DecryptionResult9Recipient6isNullEv@Base 4:4.3.4
 _ZNK5GpgME16DecryptionResult9Recipient6statusEv@Base 4:4.3.4
 _ZNK5GpgME16DecryptionResult9recipientEj@Base 4:4.3.4
 _ZNK5GpgME16EncryptionResult20invalidEncryptionKeyEj@Base 4:4.3.4
 _ZNK5GpgME16EncryptionResult20numInvalidRecipientsEv@Base 4:4.3.4
 _ZNK5GpgME16EncryptionResult21invalidEncryptionKeysEv@Base 4:4.3.4
 _ZNK5GpgME16EncryptionResult6isNullEv@Base 4:4.3.4
 _ZNK5GpgME16InvalidRecipient11fingerprintEv@Base 4:4.3.4
 _ZNK5GpgME16InvalidRecipient6isNullEv@Base 4:4.3.4
 _ZNK5GpgME16InvalidRecipient6reasonEv@Base 4:4.3.4
 _ZNK5GpgME17InvalidSigningKey11fingerprintEv@Base 4:4.3.4
 _ZNK5GpgME17InvalidSigningKey6isNullEv@Base 4:4.3.4
 _ZNK5GpgME17InvalidSigningKey6reasonEv@Base 4:4.3.4
 _ZNK5GpgME18VerificationResult10signaturesEv@Base 4:4.3.4
 _ZNK5GpgME18VerificationResult13numSignaturesEv@Base 4:4.3.4
 _ZNK5GpgME18VerificationResult6isNullEv@Base 4:4.3.4
 _ZNK5GpgME18VerificationResult8fileNameEv@Base 4:4.3.4
 _ZNK5GpgME18VerificationResult9signatureEj@Base 4:4.3.4
 _ZNK5GpgME19KeyGenerationResult11fingerprintEv@Base 4:4.3.4
 _ZNK5GpgME19KeyGenerationResult17isSubkeyGeneratedEv@Base 4:4.3.4
 _ZNK5GpgME19KeyGenerationResult21isPrimaryKeyGeneratedEv@Base 4:4.3.4
 _ZNK5GpgME19KeyGenerationResult6isNullEv@Base 4:4.3.4
 _ZNK5GpgME24DefaultAssuanTransaction10statusLineEPKc@Base 4:4.4.0
 _ZNK5GpgME24DefaultAssuanTransaction15firstStatusLineEPKc@Base 4:4.4.0
 _ZNK5GpgME24GpgSignKeyEditInteractor6actionERNS_5ErrorE@Base 4:4.3.4
 _ZNK5GpgME24GpgSignKeyEditInteractor9nextStateEjPKcRNS_5ErrorE@Base 4:4.3.4
 _ZNK5GpgME26GpgAddUserIDEditInteractor6actionERNS_5ErrorE@Base 4:4.3.4
 _ZNK5GpgME26GpgAddUserIDEditInteractor9nextStateEjPKcRNS_5ErrorE@Base 4:4.3.4
 _ZNK5GpgME27ScdGetInfoAssuanTransaction10readerListEv@Base 4:4.4.0
 _ZNK5GpgME27ScdGetInfoAssuanTransaction10socketNameEv@Base 4:4.4.0
 _ZNK5GpgME27ScdGetInfoAssuanTransaction11makeCommandEv@Base 4:4.4.0
 _ZNK5GpgME27ScdGetInfoAssuanTransaction15applicationListEv@Base 4:4.4.0
 _ZNK5GpgME27ScdGetInfoAssuanTransaction3pidEv@Base 4:4.4.0
 _ZNK5GpgME27ScdGetInfoAssuanTransaction6statusEv@Base 4:4.4.0
 _ZNK5GpgME27ScdGetInfoAssuanTransaction7commandEv@Base 4:4.4.0
 _ZNK5GpgME27ScdGetInfoAssuanTransaction7versionEv@Base 4:4.4.0
 _ZNK5GpgME30GpgSetExpiryTimeEditInteractor6actionERNS_5ErrorE@Base 4:4.3.4
 _ZNK5GpgME30GpgSetExpiryTimeEditInteractor9nextStateEjPKcRNS_5ErrorE@Base 4:4.3.4
 _ZNK5GpgME30GpgSetOwnerTrustEditInteractor6actionERNS_5ErrorE@Base 4:4.3.4
 _ZNK5GpgME30GpgSetOwnerTrustEditInteractor9nextStateEjPKcRNS_5ErrorE@Base 4:4.3.4
 _ZNK5GpgME32GpgAgentGetInfoAssuanTransaction10socketNameEv@Base 4:4.4.0
 _ZNK5GpgME32GpgAgentGetInfoAssuanTransaction11makeCommandEv@Base 4:4.4.0
 _ZNK5GpgME32GpgAgentGetInfoAssuanTransaction13sshSocketNameEv@Base 4:4.4.0
 _ZNK5GpgME32GpgAgentGetInfoAssuanTransaction3pidEv@Base 4:4.4.0
 _ZNK5GpgME32GpgAgentGetInfoAssuanTransaction7commandEv@Base 4:4.4.0
 _ZNK5GpgME32GpgAgentGetInfoAssuanTransaction7versionEv@Base 4:4.4.0
 _ZNK5GpgME3Key10canCertifyEv@Base 4:4.3.4
 _ZNK5GpgME3Key10canEncryptEv@Base 4:4.3.4
 _ZNK5GpgME3Key10isDisabledEv@Base 4:4.3.4
 _ZNK5GpgME3Key10issuerNameEv@Base 4:4.3.4
 _ZNK5GpgME3Key10numSubkeysEv@Base 4:4.3.4
 _ZNK5GpgME3Key10numUserIDsEv@Base 4:4.3.4
 _ZNK5GpgME3Key10ownerTrustEv@Base 4:4.3.4
 _ZNK5GpgME3Key10shortKeyIDEv@Base 4:4.3.4
 _ZNK5GpgME3Key11isQualifiedEv@Base 4:4.3.4
 _ZNK5GpgME3Key11keyListModeEv@Base 4:4.3.4
 _ZNK5GpgME3Key12issuerSerialEv@Base 4:4.3.4
 _ZNK5GpgME3Key13canReallySignEv@Base 4:4.5.0
 _ZNK5GpgME3Key15canAuthenticateEv@Base 4:4.3.4
 _ZNK5GpgME3Key16protocolAsStringEv@Base 4:4.3.4
 _ZNK5GpgME3Key18ownerTrustAsStringEv@Base 4:4.3.4
 _ZNK5GpgME3Key18primaryFingerprintEv@Base 4:4.3.4
 _ZNK5GpgME3Key5keyIDEv@Base 4:4.3.4
 _ZNK5GpgME3Key6isRootEv@Base 4:4.3.4
 _ZNK5GpgME3Key6subkeyEj@Base 4:4.3.4
 _ZNK5GpgME3Key6userIDEj@Base 4:4.3.4
 _ZNK5GpgME3Key7canSignEv@Base 4:4.3.4
 _ZNK5GpgME3Key7chainIDEv@Base 4:4.3.4
 _ZNK5GpgME3Key7subkeysEv@Base 4:4.3.4
 _ZNK5GpgME3Key7userIDsEv@Base 4:4.3.4
 _ZNK5GpgME3Key8protocolEv@Base 4:4.3.4
 _ZNK5GpgME3Key9hasSecretEv@Base 4:4.3.4
 _ZNK5GpgME3Key9isExpiredEv@Base 4:4.3.4
 _ZNK5GpgME3Key9isInvalidEv@Base 4:4.3.4
 _ZNK5GpgME3Key9isRevokedEv@Base 4:4.3.4
 _ZNK5GpgME4Data6isNullEv@Base 4:4.3.4
 _ZNK5GpgME4Data8encodingEv@Base 4:4.3.4
 _ZNK5GpgME4Data8fileNameEv@Base 4:4.3.4
 _ZNK5GpgME5Error10isCanceledEv@Base 4:4.3.4
 _ZNK5GpgME5Error4codeEv@Base 4:4.3.4
 _ZNK5GpgME5Error6sourceEv@Base 4:4.3.4
 _ZNK5GpgME5Error7toErrnoEv@Base 4:4.5.86
 _ZNK5GpgME5Error8asStringEv@Base 4:4.3.4
 _ZNK5GpgME5Error8sourceIDEv@Base 4:4.3.4
 _ZNK5GpgME6Import11fingerprintEv@Base 4:4.3.4
 _ZNK5GpgME6Import5errorEv@Base 4:4.3.4
 _ZNK5GpgME6Import6isNullEv@Base 4:4.3.4
 _ZNK5GpgME6Import6statusEv@Base 4:4.3.4
 _ZNK5GpgME6Subkey10canCertifyEv@Base 4:4.3.4
 _ZNK5GpgME6Subkey10canEncryptEv@Base 4:4.3.4
 _ZNK5GpgME6Subkey10isDisabledEv@Base 4:4.3.4
 _ZNK5GpgME6Subkey11fingerprintEv@Base 4:4.3.4
 _ZNK5GpgME6Subkey11isQualifiedEv@Base 4:4.3.4
 _ZNK5GpgME6Subkey12creationTimeEv@Base 4:4.3.4
 _ZNK5GpgME6Subkey12neverExpiresEv@Base 4:4.3.4
 _ZNK5GpgME6Subkey14expirationTimeEv@Base 4:4.3.4
 _ZNK5GpgME6Subkey15canAuthenticateEv@Base 4:4.3.4
 _ZNK5GpgME6Subkey16cardSerialNumberEv@Base 4:4.3.4
 _ZNK5GpgME6Subkey18publicKeyAlgorithmEv@Base 4:4.3.4
 _ZNK5GpgME6Subkey26publicKeyAlgorithmAsStringEv@Base 4:4.3.4
 _ZNK5GpgME6Subkey5keyIDEv@Base 4:4.3.4
 _ZNK5GpgME6Subkey6lengthEv@Base 4:4.3.4
 _ZNK5GpgME6Subkey6parentEv@Base 4:4.3.4
 _ZNK5GpgME6Subkey7canSignEv@Base 4:4.3.4
 _ZNK5GpgME6Subkey8isSecretEv@Base 4:4.3.4
 _ZNK5GpgME6Subkey9isCardKeyEv@Base 4:4.3.4
 _ZNK5GpgME6Subkey9isExpiredEv@Base 4:4.3.4
 _ZNK5GpgME6Subkey9isInvalidEv@Base 4:4.3.4
 _ZNK5GpgME6Subkey9isRevokedEv@Base 4:4.3.4
 _ZNK5GpgME6UserID10signaturesEv@Base 4:4.3.4
 _ZNK5GpgME6UserID13numSignaturesEv@Base 4:4.3.4
 _ZNK5GpgME6UserID16validityAsStringEv@Base 4:4.3.4
 _ZNK5GpgME6UserID2idEv@Base 4:4.3.4
 _ZNK5GpgME6UserID4nameEv@Base 4:4.3.4
 _ZNK5GpgME6UserID5emailEv@Base 4:4.3.4
 _ZNK5GpgME6UserID6parentEv@Base 4:4.3.4
 _ZNK5GpgME6UserID7commentEv@Base 4:4.3.4
 _ZNK5GpgME6UserID8validityEv@Base 4:4.3.4
 _ZNK5GpgME6UserID9Signature10signerNameEv@Base 4:4.3.4
 _ZNK5GpgME6UserID9Signature11signerEmailEv@Base 4:4.3.4
 _ZNK5GpgME6UserID9Signature11signerKeyIDEv@Base 4:4.3.4
 _ZNK5GpgME6UserID9Signature12creationTimeEv@Base 4:4.3.4
 _ZNK5GpgME6UserID9Signature12isExportableEv@Base 4:4.3.4
 _ZNK5GpgME6UserID9Signature12isRevokationEv@Base 4:4.3.4
 _ZNK5GpgME6UserID9Signature12neverExpiresEv@Base 4:4.3.4
 _ZNK5GpgME6UserID9Signature12numNotationsEv@Base 4:4.3.4
 _ZNK5GpgME6UserID9Signature12signerUserIDEv@Base 4:4.3.4
 _ZNK5GpgME6UserID9Signature13signerCommentEv@Base 4:4.3.4
 _ZNK5GpgME6UserID9Signature14expirationTimeEv@Base 4:4.3.4
 _ZNK5GpgME6UserID9Signature14statusAsStringEv@Base 4:4.3.4
 _ZNK5GpgME6UserID9Signature17algorithmAsStringEv@Base 4:4.3.4
 _ZNK5GpgME6UserID9Signature6parentEv@Base 4:4.3.4
 _ZNK5GpgME6UserID9Signature6statusEv@Base 4:4.3.4
 _ZNK5GpgME6UserID9Signature8notationEj@Base 4:4.3.4
 _ZNK5GpgME6UserID9Signature9algorithmEv@Base 4:4.3.4
 _ZNK5GpgME6UserID9Signature9certClassEv@Base 4:4.3.4
 _ZNK5GpgME6UserID9Signature9isExpiredEv@Base 4:4.3.4
 _ZNK5GpgME6UserID9Signature9isInvalidEv@Base 4:4.3.4
 _ZNK5GpgME6UserID9Signature9notationsEv@Base 4:4.3.4
 _ZNK5GpgME6UserID9Signature9policyURLEv@Base 4:4.3.4
 _ZNK5GpgME6UserID9isInvalidEv@Base 4:4.3.4
 _ZNK5GpgME6UserID9isRevokedEv@Base 4:4.3.4
 _ZNK5GpgME6UserID9signatureEj@Base 4:4.3.4
 _ZNK5GpgME7Context10engineInfoEv@Base 4:4.3.4
 _ZNK5GpgME7Context10signingKeyEj@Base 4:4.3.4
 _ZNK5GpgME7Context11keyListModeEv@Base 4:4.3.4
 _ZNK5GpgME7Context11signingKeysEv@Base 4:4.3.4
 _ZNK5GpgME7Context12assuanResultEv@Base 4:4.4.0
 _ZNK5GpgME7Context12importResultEv@Base 4:4.3.4
 _ZNK5GpgME7Context13keyListResultEv@Base 4:4.3.4
 _ZNK5GpgME7Context13signingResultEv@Base 4:4.3.4
 _ZNK5GpgME7Context16decryptionResultEv@Base 4:4.3.4
 _ZNK5GpgME7Context16encryptionResultEv@Base 4:4.3.4
 _ZNK5GpgME7Context16progressProviderEv@Base 4:4.3.4
 _ZNK5GpgME7Context17signatureNotationEj@Base 4:4.3.4
 _ZNK5GpgME7Context18lastEditInteractorEv@Base 4:4.3.4
 _ZNK5GpgME7Context18passphraseProviderEv@Base 4:4.3.4
 _ZNK5GpgME7Context18signatureNotationsEv@Base 4:4.3.4
 _ZNK5GpgME7Context18signaturePolicyURLEv@Base 4:4.3.4
 _ZNK5GpgME7Context18verificationResultEv@Base 4:4.3.4
 _ZNK5GpgME7Context19includeCertificatesEv@Base 4:4.3.4
 _ZNK5GpgME7Context19keyGenerationResultEv@Base 4:4.3.4
 _ZNK5GpgME7Context21lastAssuanTransactionEv@Base 4:4.4.0
 _ZNK5GpgME7Context22lastCardEditInteractorEv@Base 4:4.3.4
 _ZNK5GpgME7Context28managedByEventLoopInteractorEv@Base 4:4.3.4
 _ZNK5GpgME7Context5armorEv@Base 4:4.3.4
 _ZNK5GpgME7Context8protocolEv@Base 4:4.3.4
 _ZNK5GpgME7Context8textModeEv@Base 4:4.3.4
 _ZNK5GpgME7Context9lastErrorEv@Base 4:4.3.4
 _ZNK5GpgME8Notation10isCriticalEv@Base 4:4.3.4
 _ZNK5GpgME8Notation15isHumanReadableEv@Base 4:4.3.4
 _ZNK5GpgME8Notation4nameEv@Base 4:4.3.4
 _ZNK5GpgME8Notation5flagsEv@Base 4:4.3.4
 _ZNK5GpgME8Notation5valueEv@Base 4:4.3.4
 _ZNK5GpgME8Notation6isNullEv@Base 4:4.3.4
 _ZNK5GpgME9Signature10pkaAddressEv@Base 4:4.3.4
 _ZNK5GpgME9Signature11fingerprintEv@Base 4:4.3.4
 _ZNK5GpgME9Signature12creationTimeEv@Base 4:4.3.4
 _ZNK5GpgME9Signature12neverExpiresEv@Base 4:4.3.4
 _ZNK5GpgME9Signature13hashAlgorithmEv@Base 4:4.3.4
 _ZNK5GpgME9Signature14expirationTimeEv@Base 4:4.3.4
 _ZNK5GpgME9Signature15isWrongKeyUsageEv@Base 4:4.3.4
 _ZNK5GpgME9Signature16validityAsStringEv@Base 4:4.3.4
 _ZNK5GpgME9Signature17nonValidityReasonEv@Base 4:4.3.4
 _ZNK5GpgME9Signature18publicKeyAlgorithmEv@Base 4:4.3.4
 _ZNK5GpgME9Signature21hashAlgorithmAsStringEv@Base 4:4.3.4
 _ZNK5GpgME9Signature25isVerifiedUsingChainModelEv@Base 4:4.3.4
 _ZNK5GpgME9Signature26publicKeyAlgorithmAsStringEv@Base 4:4.3.4
 _ZNK5GpgME9Signature6isNullEv@Base 4:4.3.4
 _ZNK5GpgME9Signature6statusEv@Base 4:4.3.4
 _ZNK5GpgME9Signature7summaryEv@Base 4:4.3.4
 _ZNK5GpgME9Signature8notationEj@Base 4:4.3.4
 _ZNK5GpgME9Signature8validityEv@Base 4:4.3.4
 _ZNK5GpgME9Signature9notationsEv@Base 4:4.3.4
 _ZNK5GpgME9Signature9pkaStatusEv@Base 4:4.3.4
 _ZNK5GpgME9Signature9policyURLEv@Base 4:4.3.4
 _ZNK5GpgME9TrustItem10trustLevelEv@Base 4:4.3.4
 _ZNK5GpgME9TrustItem16validityAsStringEv@Base 4:4.3.4
 _ZNK5GpgME9TrustItem18ownerTrustAsStringEv@Base 4:4.3.4
 _ZNK5GpgME9TrustItem4implEv@Base 4:4.3.4
 _ZNK5GpgME9TrustItem4typeEv@Base 4:4.3.4
 _ZNK5GpgME9TrustItem5keyIDEv@Base 4:4.3.4
 _ZNK5GpgME9TrustItem6isNullEv@Base 4:4.3.4
 _ZNK5GpgME9TrustItem6userIDEv@Base 4:4.3.4
 _ZNSs12_S_constructIN9__gnu_cxx17__normal_iteratorIPKcSsEEEEPcT_S6_RKSaIcESt20forward_iterator_tag@Base 4:4.7.4
 _ZNSs12_S_constructIPcEES0_T_S1_RKSaIcESt20forward_iterator_tag@Base 4:4.7.4
 _ZNSt12_Destroy_auxILb0EE9__destroyIPSsEEvT_S3_@Base 4:4.7.4
 _ZNSt12_Destroy_auxILb0EE9__destroyIPSt4pairISsSsEEEvT_S5_@Base 4:4.7.4
 _ZNSt12_Destroy_auxILb0EE9__destroyIPSt6vectorIN5GpgME18VerificationResult7Private4NotaESaIS6_EEEEvT_SA_@Base 4:4.7.4
 _ZNSt4pairISsSsED1Ev@Base 4:4.6.5
 _ZNSt4pairISsSsED2Ev@Base 4:4.6.5
 _ZNSt6vectorIN5GpgME13Configuration6OptionESaIS2_EE13_M_insert_auxEN9__gnu_cxx17__normal_iteratorIPS2_S4_EERKS2_@Base 4:4.5.86
 _ZNSt6vectorIN5GpgME13Configuration6OptionESaIS2_EED1Ev@Base 4:4.5.86
 _ZNSt6vectorIN5GpgME13Configuration6OptionESaIS2_EED2Ev@Base 4:4.6.1
 _ZNSt6vectorIN5GpgME13Configuration9ComponentESaIS2_EE14_M_fill_insertEN9__gnu_cxx17__normal_iteratorIPS2_S4_EEmRKS2_@Base 4:4.5.86
 _ZNSt6vectorIN5GpgME13Configuration9ComponentESaIS2_EED1Ev@Base 4:4.6.1
 _ZNSt6vectorIN5GpgME13Configuration9ComponentESaIS2_EED2Ev@Base 4:4.6.1
 _ZNSt6vectorIN5GpgME16CreatedSignatureESaIS1_EE13_M_insert_auxEN9__gnu_cxx17__normal_iteratorIPS1_S3_EERKS1_@Base 4:4.3.4
 _ZNSt6vectorIN5GpgME16CreatedSignatureESaIS1_EED1Ev@Base 4:4.3.4
 _ZNSt6vectorIN5GpgME16CreatedSignatureESaIS1_EED2Ev@Base 4:4.6.1
 _ZNSt6vectorIN5GpgME16DecryptionResult9RecipientESaIS2_EE13_M_insert_auxEN9__gnu_cxx17__normal_iteratorIPS2_S4_EERKS2_@Base 4:4.3.4
 _ZNSt6vectorIN5GpgME16DecryptionResult9RecipientESaIS2_EE7reserveEm@Base 4:4.3.4
 _ZNSt6vectorIN5GpgME16DecryptionResult9RecipientESaIS2_EED1Ev@Base 4:4.3.4
 _ZNSt6vectorIN5GpgME16DecryptionResult9RecipientESaIS2_EED2Ev@Base 4:4.6.1
 _ZNSt6vectorIN5GpgME16InvalidRecipientESaIS1_EE13_M_insert_auxEN9__gnu_cxx17__normal_iteratorIPS1_S3_EERKS1_@Base 4:4.3.4
 _ZNSt6vectorIN5GpgME16InvalidRecipientESaIS1_EED1Ev@Base 4:4.3.4
 _ZNSt6vectorIN5GpgME16InvalidRecipientESaIS1_EED2Ev@Base 4:4.6.1
 _ZNSt6vectorIN5GpgME17InvalidSigningKeyESaIS1_EE13_M_insert_auxEN9__gnu_cxx17__normal_iteratorIPS1_S3_EERKS1_@Base 4:4.3.4
 _ZNSt6vectorIN5GpgME17InvalidSigningKeyESaIS1_EED1Ev@Base 4:4.3.4
 _ZNSt6vectorIN5GpgME17InvalidSigningKeyESaIS1_EED2Ev@Base 4:4.6.1
 _ZNSt6vectorIN5GpgME18VerificationResult7Private4NotaESaIS3_EE13_M_insert_auxEN9__gnu_cxx17__normal_iteratorIPS3_S5_EERKS3_@Base 4:4.3.4
 _ZNSt6vectorIN5GpgME18VerificationResult7Private4NotaESaIS3_EED1Ev@Base 4:4.7.4
 _ZNSt6vectorIN5GpgME18VerificationResult7Private4NotaESaIS3_EED2Ev@Base 4:4.7.4
 _ZNSt6vectorIN5GpgME18VerificationResult7Private4NotaESaIS3_EEaSERKS5_@Base 4:4.3.4
 _ZNSt6vectorIN5GpgME3KeyESaIS1_EE13_M_insert_auxEN9__gnu_cxx17__normal_iteratorIPS1_S3_EERKS1_@Base 4:4.3.4
 _ZNSt6vectorIN5GpgME3KeyESaIS1_EED1Ev@Base 4:4.7.4
 _ZNSt6vectorIN5GpgME3KeyESaIS1_EED2Ev@Base 4:4.7.4
 _ZNSt6vectorIN5GpgME6ImportESaIS1_EE13_M_insert_auxEN9__gnu_cxx17__normal_iteratorIPS1_S3_EERKS1_@Base 4:4.3.4
 _ZNSt6vectorIN5GpgME6ImportESaIS1_EED1Ev@Base 4:4.6.1
 _ZNSt6vectorIN5GpgME6ImportESaIS1_EED2Ev@Base 4:4.6.1
 _ZNSt6vectorIN5GpgME6SubkeyESaIS1_EE13_M_insert_auxEN9__gnu_cxx17__normal_iteratorIPS1_S3_EERKS1_@Base 4:4.3.4
 _ZNSt6vectorIN5GpgME6SubkeyESaIS1_EED1Ev@Base 4:4.4.3
 _ZNSt6vectorIN5GpgME6SubkeyESaIS1_EED2Ev@Base 4:4.6.1
 _ZNSt6vectorIN5GpgME6UserID9SignatureESaIS2_EE13_M_insert_auxEN9__gnu_cxx17__normal_iteratorIPS2_S4_EERKS2_@Base 4:4.3.4
 _ZNSt6vectorIN5GpgME6UserID9SignatureESaIS2_EED1Ev@Base 4:4.4.3
 _ZNSt6vectorIN5GpgME6UserID9SignatureESaIS2_EED2Ev@Base 4:4.6.1
 _ZNSt6vectorIN5GpgME6UserIDESaIS1_EE13_M_insert_auxEN9__gnu_cxx17__normal_iteratorIPS1_S3_EERKS1_@Base 4:4.3.4
 _ZNSt6vectorIN5GpgME6UserIDESaIS1_EED1Ev@Base 4:4.4.3
 _ZNSt6vectorIN5GpgME6UserIDESaIS1_EED2Ev@Base 4:4.6.1
 _ZNSt6vectorIN5GpgME8NotationESaIS1_EE13_M_insert_auxEN9__gnu_cxx17__normal_iteratorIPS1_S3_EERKS1_@Base 4:4.3.4
 _ZNSt6vectorIN5GpgME8NotationESaIS1_EE7reserveEm@Base 4:4.3.4
 _ZNSt6vectorIN5GpgME8NotationESaIS1_EED1Ev@Base 4:4.3.4
 _ZNSt6vectorIN5GpgME8NotationESaIS1_EED2Ev@Base 4:4.6.1
 _ZNSt6vectorIN5GpgME9SignatureESaIS1_EE13_M_insert_auxEN9__gnu_cxx17__normal_iteratorIPS1_S3_EERKS1_@Base 4:4.3.4
 _ZNSt6vectorIN5GpgME9SignatureESaIS1_EED1Ev@Base 4:4.3.4
 _ZNSt6vectorIN5GpgME9SignatureESaIS1_EED2Ev@Base 4:4.6.1
 _ZNSt6vectorIPKcSaIS1_EE13_M_insert_auxEN9__gnu_cxx17__normal_iteratorIPS1_S3_EERKS1_@Base 4:4.4.0
 _ZNSt6vectorIPKcSaIS1_EED1Ev@Base 4:4.7.4
 _ZNSt6vectorIPKcSaIS1_EED2Ev@Base 4:4.7.4
 _ZNSt6vectorIPN5GpgME19EventLoopInteractor7Private5OneFDESaIS4_EE13_M_insert_auxEN9__gnu_cxx17__normal_iteratorIPS4_S6_EERKS4_@Base 4:4.3.4
 _ZNSt6vectorIS_IN5GpgME18VerificationResult7Private4NotaESaIS3_EESaIS5_EE13_M_insert_auxEN9__gnu_cxx17__normal_iteratorIPS5_S7_EERKS5_@Base 4:4.3.4
 _ZNSt6vectorISsSaISsEE13_M_insert_auxEN9__gnu_cxx17__normal_iteratorIPSsS1_EERKSs@Base 4:4.4.0
 _ZNSt6vectorISsSaISsEED1Ev@Base 4:4.4.0
 _ZNSt6vectorISsSaISsEED2Ev@Base 4:4.6.1
 _ZNSt6vectorISt4pairISsSsESaIS1_EE13_M_insert_auxEN9__gnu_cxx17__normal_iteratorIPS1_S3_EERKS1_@Base 4:4.4.0
 _ZNSt6vectorIiSaIiEE13_M_insert_auxEN9__gnu_cxx17__normal_iteratorIPiS1_EERKi@Base 4:4.5.86
 _ZNSt6vectorIiSaIiEED1Ev@Base 4:4.7.4
 _ZNSt6vectorIiSaIiEED2Ev@Base 4:4.7.4
 _ZNSt6vectorIjSaIjEE13_M_insert_auxEN9__gnu_cxx17__normal_iteratorIPjS1_EERKj@Base 4:4.5.86
 _ZNSt6vectorIjSaIjEED1Ev@Base 4:4.7.4
 _ZNSt6vectorIjSaIjEED2Ev@Base 4:4.7.4
 _ZNSt6vectorIjSaIjEEaSERKS1_@Base 4:4.3.4
 _ZSt13__adjust_heapIPclcEvT_T0_S2_T1_@Base 4:4.4.0
 _ZSt13binary_searchIPKccEbT_S2_RKT0_@Base 4:4.7.4
 _ZSt16__insertion_sortIPcEvT_S1_@Base 4:4.4.0
 _ZSt16__introsort_loopIPclEvT_S1_T0_@Base 4:4.4.0
 _ZTIN5GpgME14EditInteractorE@Base 4:4.3.4
 _ZTIN5GpgME17AssuanTransactionE@Base 4:4.4.0
 _ZTIN5GpgME19EventLoopInteractorE@Base 4:4.3.4
 _ZTIN5GpgME24DefaultAssuanTransactionE@Base 4:4.4.0
 _ZTIN5GpgME24GpgSignKeyEditInteractorE@Base 4:4.3.4
 _ZTIN5GpgME26GpgAddUserIDEditInteractorE@Base 4:4.3.4
 _ZTIN5GpgME27ScdGetInfoAssuanTransactionE@Base 4:4.4.0
 _ZTIN5GpgME30GpgSetExpiryTimeEditInteractorE@Base 4:4.3.4
 _ZTIN5GpgME30GpgSetOwnerTrustEditInteractorE@Base 4:4.3.4
 _ZTIN5GpgME32GpgAgentGetInfoAssuanTransactionE@Base 4:4.4.0
 _ZTIN5GpgME7ContextE@Base 4:4.3.4
 _ZTIN5GpgME9ExceptionE@Base 4:4.3.4
 _ZTIN5GpgME9TrustItemE@Base 4:4.3.4
 _ZTIN5boost16exception_detail10clone_baseE@Base 4:4.10.1
 _ZTIN5boost9exceptionE@Base 4:4.7.4
 _ZTSN5GpgME14EditInteractorE@Base 4:4.3.4
 _ZTSN5GpgME17AssuanTransactionE@Base 4:4.4.0
 _ZTSN5GpgME19EventLoopInteractorE@Base 4:4.3.4
 _ZTSN5GpgME24DefaultAssuanTransactionE@Base 4:4.4.0
 _ZTSN5GpgME24GpgSignKeyEditInteractorE@Base 4:4.3.4
 _ZTSN5GpgME26GpgAddUserIDEditInteractorE@Base 4:4.3.4
 _ZTSN5GpgME27ScdGetInfoAssuanTransactionE@Base 4:4.4.0
 _ZTSN5GpgME30GpgSetExpiryTimeEditInteractorE@Base 4:4.3.4
 _ZTSN5GpgME30GpgSetOwnerTrustEditInteractorE@Base 4:4.3.4
 _ZTSN5GpgME32GpgAgentGetInfoAssuanTransactionE@Base 4:4.4.0
 _ZTSN5GpgME7ContextE@Base 4:4.3.4
 _ZTSN5GpgME9ExceptionE@Base 4:4.3.4
 _ZTSN5GpgME9TrustItemE@Base 4:4.3.4
 _ZTSN5boost16exception_detail10clone_baseE@Base 4:4.10.1
 _ZTSN5boost9exceptionE@Base 4:4.7.4
 _ZTVN5GpgME14EditInteractorE@Base 4:4.3.4
 _ZTVN5GpgME17AssuanTransactionE@Base 4:4.4.0
 _ZTVN5GpgME19EventLoopInteractorE@Base 4:4.3.4
 _ZTVN5GpgME24DefaultAssuanTransactionE@Base 4:4.4.0
 _ZTVN5GpgME24GpgSignKeyEditInteractorE@Base 4:4.3.4
 _ZTVN5GpgME26GpgAddUserIDEditInteractorE@Base 4:4.3.4
 _ZTVN5GpgME27ScdGetInfoAssuanTransactionE@Base 4:4.4.0
 _ZTVN5GpgME30GpgSetExpiryTimeEditInteractorE@Base 4:4.3.4
 _ZTVN5GpgME30GpgSetOwnerTrustEditInteractorE@Base 4:4.3.4
 _ZTVN5GpgME32GpgAgentGetInfoAssuanTransactionE@Base 4:4.4.0
 _ZTVN5GpgME7ContextE@Base 4:4.3.4
 _ZTVN5GpgME9ExceptionE@Base 4:4.3.4
 _ZTVN5GpgME9TrustItemE@Base 4:4.3.4
 _ZTVN5boost16exception_detail10clone_baseE@Base 4:4.10.1
 _ZTVN5boost9exceptionE@Base 4:4.7.4
libgpgme++-pthread.so.2 libgpgme++2 #MINVER#
* Build-Depends-Package: kdepimlibs5-dev
 _ZN5GpgME10EngineInfoC1EP18_gpgme_engine_info@Base 4:4.3.4
 _ZN5GpgME10EngineInfoC1Ev@Base 4:4.3.4
 _ZN5GpgME10EngineInfoC2EP18_gpgme_engine_info@Base 4:4.3.4
 _ZN5GpgME10EngineInfoC2Ev@Base 4:4.3.4
 _ZN5GpgME10EngineInfoD1Ev@Base 4:4.8.3
 _ZN5GpgME10EngineInfoD2Ev@Base 4:4.8.3
 _ZN5GpgME10engineInfoENS_6EngineE@Base 4:4.3.4
 _ZN5GpgME10engineInfoENS_8ProtocolE@Base 4:4.3.4
 _ZN5GpgME10hasFeatureEm@Base 4:4.3.4
 _ZN5GpgME10hasFeatureEmm@Base 4:4.5.0
 _ZN5GpgME11checkEngineENS_6EngineE@Base 4:4.3.4
 _ZN5GpgME11checkEngineENS_8ProtocolE@Base 4:4.3.4
 _ZN5GpgME12AssuanResult4initEP13gpgme_context@Base 4:4.4.0
 _ZN5GpgME12AssuanResultC1EP13gpgme_contextRKNS_5ErrorE@Base 4:4.4.0
 _ZN5GpgME12AssuanResultC1EP13gpgme_contexti@Base 4:4.4.0
 _ZN5GpgME12AssuanResultC1ERKNS_5ErrorE@Base 4:4.4.0
 _ZN5GpgME12AssuanResultC1Ev@Base 4:4.4.0
 _ZN5GpgME12AssuanResultC2EP13gpgme_contextRKNS_5ErrorE@Base 4:4.4.0
 _ZN5GpgME12AssuanResultC2EP13gpgme_contexti@Base 4:4.4.0
 _ZN5GpgME12AssuanResultC2ERKNS_5ErrorE@Base 4:4.4.0
 _ZN5GpgME12AssuanResultC2Ev@Base 4:4.4.0
 _ZN5GpgME12ImportResult4initEP13gpgme_context@Base 4:4.3.4
 _ZN5GpgME12ImportResultC1EP13gpgme_contextRKNS_5ErrorE@Base 4:4.3.4
 _ZN5GpgME12ImportResultC1EP13gpgme_contexti@Base 4:4.3.4
 _ZN5GpgME12ImportResultC1ERKNS_5ErrorE@Base 4:4.3.4
 _ZN5GpgME12ImportResultC1Ev@Base 4:4.3.4
 _ZN5GpgME12ImportResultC2EP13gpgme_contextRKNS_5ErrorE@Base 4:4.3.4
 _ZN5GpgME12ImportResultC2EP13gpgme_contexti@Base 4:4.3.4
 _ZN5GpgME12ImportResultC2ERKNS_5ErrorE@Base 4:4.3.4
 _ZN5GpgME12ImportResultC2Ev@Base 4:4.3.4
 _ZN5GpgME12getQIODeviceEi@Base 4:4.3.4
 _ZN5GpgME13Configuration6Option11setNewValueERKNS0_8ArgumentE@Base 4:4.5.86
 _ZN5GpgME13Configuration6Option18resetToActiveValueEv@Base 4:4.5.86
 _ZN5GpgME13Configuration6Option19resetToDefaultValueEv@Base 4:4.5.86
 _ZN5GpgME13Configuration8ArgumentC1ERKN5boost10shared_ptrI15gpgme_conf_compEEP14gpgme_conf_optP14gpgme_conf_argb@Base 4:4.5.86
 _ZN5GpgME13Configuration8ArgumentC1ERKS1_@Base 4:4.5.86
 _ZN5GpgME13Configuration8ArgumentC2ERKN5boost10shared_ptrI15gpgme_conf_compEEP14gpgme_conf_optP14gpgme_conf_argb@Base 4:4.5.86
 _ZN5GpgME13Configuration8ArgumentC2ERKS1_@Base 4:4.5.86
 _ZN5GpgME13Configuration8ArgumentD1Ev@Base 4:4.5.86
 _ZN5GpgME13Configuration8ArgumentD2Ev@Base 4:4.5.86
 _ZN5GpgME13Configuration9Component4loadERNS_5ErrorE@Base 4:4.5.86
 _ZN5GpgME13ConfigurationlsERSoNS0_4FlagE@Base 4:4.5.86
 _ZN5GpgME13ConfigurationlsERSoNS0_4TypeE@Base 4:4.5.86
 _ZN5GpgME13ConfigurationlsERSoNS0_5LevelE@Base 4:4.5.86
 _ZN5GpgME13ConfigurationlsERSoRKNS0_6OptionE@Base 4:4.5.86
 _ZN5GpgME13ConfigurationlsERSoRKNS0_8ArgumentE@Base 4:4.5.86
 _ZN5GpgME13ConfigurationlsERSoRKNS0_9ComponentE@Base 4:4.5.86
 _ZN5GpgME13KeyListResult4initEP13gpgme_context@Base 4:4.3.4
 _ZN5GpgME13KeyListResult6detachEv@Base 4:4.3.4
 _ZN5GpgME13KeyListResult9mergeWithERKS0_@Base 4:4.3.4
 _ZN5GpgME13KeyListResultC1EP13gpgme_contextRKNS_5ErrorE@Base 4:4.3.4
 _ZN5GpgME13KeyListResultC1EP13gpgme_contexti@Base 4:4.3.4
 _ZN5GpgME13KeyListResultC1ERKNS_5ErrorE@Base 4:4.3.4
 _ZN5GpgME13KeyListResultC1ERKNS_5ErrorERK24_gpgme_op_keylist_result@Base 4:4.3.4
 _ZN5GpgME13KeyListResultC1Ev@Base 4:4.3.4
 _ZN5GpgME13KeyListResultC2EP13gpgme_contextRKNS_5ErrorE@Base 4:4.3.4
 _ZN5GpgME13KeyListResultC2EP13gpgme_contexti@Base 4:4.3.4
 _ZN5GpgME13KeyListResultC2ERKNS_5ErrorE@Base 4:4.3.4
 _ZN5GpgME13KeyListResultC2ERKNS_5ErrorERK24_gpgme_op_keylist_result@Base 4:4.3.4
 _ZN5GpgME13KeyListResultC2Ev@Base 4:4.3.4
 _ZN5GpgME13KeyListResultD1Ev@Base 4:4.6.5
 _ZN5GpgME13KeyListResultD2Ev@Base 4:4.6.5
 _ZN5GpgME13SigningResult4initEP13gpgme_context@Base 4:4.3.4
 _ZN5GpgME13SigningResultC1EP13gpgme_contextRKNS_5ErrorE@Base 4:4.3.4
 _ZN5GpgME13SigningResultC1EP13gpgme_contexti@Base 4:4.3.4
 _ZN5GpgME13SigningResultC1ERKNS_5ErrorE@Base 4:4.3.4
 _ZN5GpgME13SigningResultC1Ev@Base 4:4.3.4
 _ZN5GpgME13SigningResultC2EP13gpgme_contextRKNS_5ErrorE@Base 4:4.3.4
 _ZN5GpgME13SigningResultC2EP13gpgme_contexti@Base 4:4.3.4
 _ZN5GpgME13SigningResultC2ERKNS_5ErrorE@Base 4:4.3.4
 _ZN5GpgME13SigningResultC2Ev@Base 4:4.3.4
 _ZN5GpgME13SigningResultD1Ev@Base 4:4.6.5
 _ZN5GpgME13SigningResultD2Ev@Base 4:4.6.5
 _ZN5GpgME13getGIOChannelEi@Base 4:4.3.4
 _ZN5GpgME14EditInteractor15setDebugChannelEP8_IO_FILE@Base 4:4.3.4
 _ZN5GpgME14EditInteractor7PrivateC1EPS0_@Base 4:4.3.4
 _ZN5GpgME14EditInteractor7PrivateC2EPS0_@Base 4:4.3.4
 _ZN5GpgME14EditInteractor7PrivateD1Ev@Base 4:4.3.4
 _ZN5GpgME14EditInteractor7PrivateD2Ev@Base 4:4.3.4
 _ZN5GpgME14EditInteractorC1Ev@Base 4:4.3.4
 _ZN5GpgME14EditInteractorC2Ev@Base 4:4.3.4
 _ZN5GpgME14EditInteractorD0Ev@Base 4:4.3.4
 _ZN5GpgME14EditInteractorD1Ev@Base 4:4.3.4
 _ZN5GpgME14EditInteractorD2Ev@Base 4:4.3.4
 _ZN5GpgME14VfsMountResult4initEP13gpgme_context@Base 4:4.5.0
 _ZN5GpgME14VfsMountResultC1EP13gpgme_contextRKNS_5ErrorES5_@Base 4:4.5.0
 _ZN5GpgME14VfsMountResultC1ERKNS_5ErrorE@Base 4:4.5.0
 _ZN5GpgME14VfsMountResultC1Ev@Base 4:4.5.0
 _ZN5GpgME14VfsMountResultC2EP13gpgme_contextRKNS_5ErrorES5_@Base 4:4.5.0
 _ZN5GpgME14VfsMountResultC2ERKNS_5ErrorE@Base 4:4.5.0
 _ZN5GpgME14VfsMountResultC2Ev@Base 4:4.5.0
 _ZN5GpgME16CreatedSignatureC1ERKN5boost10shared_ptrINS_13SigningResult7PrivateEEEj@Base 4:4.3.4
 _ZN5GpgME16CreatedSignatureC1Ev@Base 4:4.3.4
 _ZN5GpgME16CreatedSignatureC2ERKN5boost10shared_ptrINS_13SigningResult7PrivateEEEj@Base 4:4.3.4
 _ZN5GpgME16CreatedSignatureC2Ev@Base 4:4.3.4
 _ZN5GpgME16DecryptionResult4initEP13gpgme_context@Base 4:4.3.4
 _ZN5GpgME16DecryptionResult9RecipientC1EP16_gpgme_recipient@Base 4:4.3.4
 _ZN5GpgME16DecryptionResult9RecipientC1Ev@Base 4:4.3.4
 _ZN5GpgME16DecryptionResult9RecipientC2EP16_gpgme_recipient@Base 4:4.3.4
 _ZN5GpgME16DecryptionResult9RecipientC2Ev@Base 4:4.3.4
 _ZN5GpgME16DecryptionResultC1EP13gpgme_contextRKNS_5ErrorE@Base 4:4.3.4
 _ZN5GpgME16DecryptionResultC1EP13gpgme_contexti@Base 4:4.3.4
 _ZN5GpgME16DecryptionResultC1ERKNS_5ErrorE@Base 4:4.3.4
 _ZN5GpgME16DecryptionResultC1Ev@Base 4:4.3.4
 _ZN5GpgME16DecryptionResultC2EP13gpgme_contextRKNS_5ErrorE@Base 4:4.3.4
 _ZN5GpgME16DecryptionResultC2EP13gpgme_contexti@Base 4:4.3.4
 _ZN5GpgME16DecryptionResultC2ERKNS_5ErrorE@Base 4:4.3.4
 _ZN5GpgME16DecryptionResultC2Ev@Base 4:4.3.4
 _ZN5GpgME16DecryptionResultD1Ev@Base 4:4.6.5
 _ZN5GpgME16DecryptionResultD2Ev@Base 4:4.6.5
 _ZN5GpgME16EncryptionResult4initEP13gpgme_context@Base 4:4.3.4
 _ZN5GpgME16EncryptionResultC1EP13gpgme_contextRKNS_5ErrorE@Base 4:4.3.4
 _ZN5GpgME16EncryptionResultC1EP13gpgme_contexti@Base 4:4.3.4
 _ZN5GpgME16EncryptionResultC1ERKNS_5ErrorE@Base 4:4.3.4
 _ZN5GpgME16EncryptionResultC1Ev@Base 4:4.3.4
 _ZN5GpgME16EncryptionResultC2EP13gpgme_contextRKNS_5ErrorE@Base 4:4.3.4
 _ZN5GpgME16EncryptionResultC2EP13gpgme_contexti@Base 4:4.3.4
 _ZN5GpgME16EncryptionResultC2ERKNS_5ErrorE@Base 4:4.3.4
 _ZN5GpgME16EncryptionResultC2Ev@Base 4:4.3.4
 _ZN5GpgME16EncryptionResultD1Ev@Base 4:4.6.5
 _ZN5GpgME16EncryptionResultD2Ev@Base 4:4.6.5
 _ZN5GpgME16InvalidRecipientC1ERKN5boost10shared_ptrINS_16EncryptionResult7PrivateEEEj@Base 4:4.3.4
 _ZN5GpgME16InvalidRecipientC1Ev@Base 4:4.3.4
 _ZN5GpgME16InvalidRecipientC2ERKN5boost10shared_ptrINS_16EncryptionResult7PrivateEEEj@Base 4:4.3.4
 _ZN5GpgME16InvalidRecipientC2Ev@Base 4:4.3.4
 _ZN5GpgME16setDefaultLocaleEiPKc@Base 4:4.3.4
 _ZN5GpgME17InvalidSigningKeyC1ERKN5boost10shared_ptrINS_13SigningResult7PrivateEEEj@Base 4:4.3.4
 _ZN5GpgME17InvalidSigningKeyC1Ev@Base 4:4.3.4
 _ZN5GpgME17InvalidSigningKeyC2ERKN5boost10shared_ptrINS_13SigningResult7PrivateEEEj@Base 4:4.3.4
 _ZN5GpgME17InvalidSigningKeyC2Ev@Base 4:4.3.4
 _ZN5GpgME17initializeLibraryEi@Base 4:4.4.0
 _ZN5GpgME17initializeLibraryEv@Base 4:4.3.4
 _ZN5GpgME18VerificationResult4initEP13gpgme_context@Base 4:4.3.4
 _ZN5GpgME18VerificationResultC1EP13gpgme_contextRKNS_5ErrorE@Base 4:4.3.4
 _ZN5GpgME18VerificationResultC1EP13gpgme_contexti@Base 4:4.3.4
 _ZN5GpgME18VerificationResultC1ERKNS_5ErrorE@Base 4:4.3.4
 _ZN5GpgME18VerificationResultC1Ev@Base 4:4.3.4
 _ZN5GpgME18VerificationResultC2EP13gpgme_contextRKNS_5ErrorE@Base 4:4.3.4
 _ZN5GpgME18VerificationResultC2EP13gpgme_contexti@Base 4:4.3.4
 _ZN5GpgME18VerificationResultC2ERKNS_5ErrorE@Base 4:4.3.4
 _ZN5GpgME18VerificationResultC2Ev@Base 4:4.3.4
 _ZN5GpgME18VerificationResultD1Ev@Base 4:4.6.5
 _ZN5GpgME18VerificationResultD2Ev@Base 4:4.6.5
 _ZN5GpgME19EventLoopInteractor5actOnEiNS0_9DirectionE@Base 4:4.3.4
 _ZN5GpgME19EventLoopInteractor5mSelfE@Base 4:4.3.4
 _ZN5GpgME19EventLoopInteractor6manageEPNS_7ContextE@Base 4:4.3.4
 _ZN5GpgME19EventLoopInteractor7Private10removeIOCbEPv@Base 4:4.3.4
 _ZN5GpgME19EventLoopInteractor7Private12registerIOCbEPviiPFjS2_iES2_PS2_@Base 4:4.3.4
 _ZN5GpgME19EventLoopInteractor7Private5iocbsE@Base 4:4.3.4
 _ZN5GpgME19EventLoopInteractor7Private9eventIOCbEPv16gpgme_event_io_tS2_@Base 4:4.3.4
 _ZN5GpgME19EventLoopInteractor8unmanageEPNS_7ContextE@Base 4:4.3.4
 _ZN5GpgME19EventLoopInteractorC1Ev@Base 4:4.3.4
 _ZN5GpgME19EventLoopInteractorC2Ev@Base 4:4.3.4
 _ZN5GpgME19EventLoopInteractorD0Ev@Base 4:4.3.4
 _ZN5GpgME19EventLoopInteractorD1Ev@Base 4:4.3.4
 _ZN5GpgME19EventLoopInteractorD2Ev@Base 4:4.3.4
 _ZN5GpgME19KeyGenerationResult4initEP13gpgme_context@Base 4:4.3.4
 _ZN5GpgME19KeyGenerationResultC1EP13gpgme_contextRKNS_5ErrorE@Base 4:4.3.4
 _ZN5GpgME19KeyGenerationResultC1EP13gpgme_contexti@Base 4:4.3.4
 _ZN5GpgME19KeyGenerationResultC1ERKNS_5ErrorE@Base 4:4.3.4
 _ZN5GpgME19KeyGenerationResultC1Ev@Base 4:4.3.4
 _ZN5GpgME19KeyGenerationResultC2EP13gpgme_contextRKNS_5ErrorE@Base 4:4.3.4
 _ZN5GpgME19KeyGenerationResultC2EP13gpgme_contexti@Base 4:4.3.4
 _ZN5GpgME19KeyGenerationResultC2ERKNS_5ErrorE@Base 4:4.3.4
 _ZN5GpgME19KeyGenerationResultC2Ev@Base 4:4.3.4
 _ZN5GpgME24DefaultAssuanTransaction4dataEPKcm@Base 4:4.4.0
 _ZN5GpgME24DefaultAssuanTransaction6statusEPKcS2_@Base 4:4.4.0
 _ZN5GpgME24DefaultAssuanTransaction7inquireEPKcS2_RNS_5ErrorE@Base 4:4.4.0
 _ZN5GpgME24DefaultAssuanTransactionC1Ev@Base 4:4.4.0
 _ZN5GpgME24DefaultAssuanTransactionC2Ev@Base 4:4.4.0
 _ZN5GpgME24DefaultAssuanTransactionD0Ev@Base 4:4.4.0
 _ZN5GpgME24DefaultAssuanTransactionD1Ev@Base 4:4.4.0
 _ZN5GpgME24DefaultAssuanTransactionD2Ev@Base 4:4.4.0
 _ZN5GpgME24GpgSignKeyEditInteractor13setCheckLevelEj@Base 4:4.3.4
 _ZN5GpgME24GpgSignKeyEditInteractor16setUserIDsToSignERKSt6vectorIjSaIjEE@Base 4:4.3.4
 _ZN5GpgME24GpgSignKeyEditInteractor17setSigningOptionsEi@Base 4:4.3.4
 _ZN5GpgME24GpgSignKeyEditInteractor7PrivateC1Ev@Base 4:4.3.4
 _ZN5GpgME24GpgSignKeyEditInteractor7PrivateC2Ev@Base 4:4.3.4
 _ZN5GpgME24GpgSignKeyEditInteractorC1Ev@Base 4:4.3.4
 _ZN5GpgME24GpgSignKeyEditInteractorC2Ev@Base 4:4.3.4
 _ZN5GpgME24GpgSignKeyEditInteractorD0Ev@Base 4:4.3.4
 _ZN5GpgME24GpgSignKeyEditInteractorD1Ev@Base 4:4.3.4
 _ZN5GpgME24GpgSignKeyEditInteractorD2Ev@Base 4:4.3.4
 _ZN5GpgME26GpgAddUserIDEditInteractor11setNameUtf8ERKSs@Base 4:4.3.4
 _ZN5GpgME26GpgAddUserIDEditInteractor12setEmailUtf8ERKSs@Base 4:4.3.4
 _ZN5GpgME26GpgAddUserIDEditInteractor14setCommentUtf8ERKSs@Base 4:4.3.4
 _ZN5GpgME26GpgAddUserIDEditInteractorC1Ev@Base 4:4.3.4
 _ZN5GpgME26GpgAddUserIDEditInteractorC2Ev@Base 4:4.3.4
 _ZN5GpgME26GpgAddUserIDEditInteractorD0Ev@Base 4:4.3.4
 _ZN5GpgME26GpgAddUserIDEditInteractorD1Ev@Base 4:4.3.4
 _ZN5GpgME26GpgAddUserIDEditInteractorD2Ev@Base 4:4.3.4
 _ZN5GpgME27ScdGetInfoAssuanTransaction4dataEPKcm@Base 4:4.4.0
 _ZN5GpgME27ScdGetInfoAssuanTransaction6statusEPKcS2_@Base 4:4.4.0
 _ZN5GpgME27ScdGetInfoAssuanTransaction7inquireEPKcS2_RNS_5ErrorE@Base 4:4.4.0
 _ZN5GpgME27ScdGetInfoAssuanTransactionC1ENS0_8InfoItemE@Base 4:4.4.0
 _ZN5GpgME27ScdGetInfoAssuanTransactionC2ENS0_8InfoItemE@Base 4:4.4.0
 _ZN5GpgME27ScdGetInfoAssuanTransactionD0Ev@Base 4:4.4.0
 _ZN5GpgME27ScdGetInfoAssuanTransactionD1Ev@Base 4:4.4.0
 _ZN5GpgME27ScdGetInfoAssuanTransactionD2Ev@Base 4:4.4.0
 _ZN5GpgME30GpgSetExpiryTimeEditInteractorC1ERKSs@Base 4:4.3.4
 _ZN5GpgME30GpgSetExpiryTimeEditInteractorC2ERKSs@Base 4:4.3.4
 _ZN5GpgME30GpgSetExpiryTimeEditInteractorD0Ev@Base 4:4.3.4
 _ZN5GpgME30GpgSetExpiryTimeEditInteractorD1Ev@Base 4:4.3.4
 _ZN5GpgME30GpgSetExpiryTimeEditInteractorD2Ev@Base 4:4.3.4
 _ZN5GpgME30GpgSetOwnerTrustEditInteractorC1ENS_3Key10OwnerTrustE@Base 4:4.3.4
 _ZN5GpgME30GpgSetOwnerTrustEditInteractorC2ENS_3Key10OwnerTrustE@Base 4:4.3.4
 _ZN5GpgME30GpgSetOwnerTrustEditInteractorD0Ev@Base 4:4.3.4
 _ZN5GpgME30GpgSetOwnerTrustEditInteractorD1Ev@Base 4:4.3.4
 _ZN5GpgME30GpgSetOwnerTrustEditInteractorD2Ev@Base 4:4.3.4
 _ZN5GpgME32GpgAgentGetInfoAssuanTransaction4dataEPKcm@Base 4:4.4.0
 _ZN5GpgME32GpgAgentGetInfoAssuanTransaction6statusEPKcS2_@Base 4:4.4.0
 _ZN5GpgME32GpgAgentGetInfoAssuanTransaction7inquireEPKcS2_RNS_5ErrorE@Base 4:4.4.0
 _ZN5GpgME32GpgAgentGetInfoAssuanTransactionC1ENS0_8InfoItemE@Base 4:4.4.0
 _ZN5GpgME32GpgAgentGetInfoAssuanTransactionC2ENS0_8InfoItemE@Base 4:4.4.0
 _ZN5GpgME32GpgAgentGetInfoAssuanTransactionD0Ev@Base 4:4.4.0
 _ZN5GpgME32GpgAgentGetInfoAssuanTransactionD1Ev@Base 4:4.4.0
 _ZN5GpgME32GpgAgentGetInfoAssuanTransactionD2Ev@Base 4:4.4.0
 _ZN5GpgME3Key4nullE@Base 4:4.3.4
 _ZN5GpgME3Key9mergeWithERKS0_@Base 4:4.3.4
 _ZN5GpgME3KeyC1EP10_gpgme_keyb@Base 4:4.3.4
 _ZN5GpgME3KeyC1ERKN5boost10shared_ptrI10_gpgme_keyEE@Base 4:4.3.4
 _ZN5GpgME3KeyC1ERKNS0_4NullE@Base 4:4.3.4
 _ZN5GpgME3KeyC1Ev@Base 4:4.3.4
 _ZN5GpgME3KeyC2EP10_gpgme_keyb@Base 4:4.3.4
 _ZN5GpgME3KeyC2ERKN5boost10shared_ptrI10_gpgme_keyEE@Base 4:4.3.4
 _ZN5GpgME3KeyC2ERKNS0_4NullE@Base 4:4.3.4
 _ZN5GpgME3KeyC2Ev@Base 4:4.3.4
 _ZN5GpgME3KeyD1Ev@Base 4:4.8.3
 _ZN5GpgME3KeyD2Ev@Base 4:4.8.3
 _ZN5GpgME4Data11setEncodingENS0_8EncodingE@Base 4:4.3.4
 _ZN5GpgME4Data11setFileNameEPKc@Base 4:4.3.4
 _ZN5GpgME4Data4nullE@Base 4:4.3.4
 _ZN5GpgME4Data4readEPvm@Base 4:4.3.4
 _ZN5GpgME4Data4seekEli@Base 4:4.3.4
 _ZN5GpgME4Data5writeEPKvm@Base 4:4.3.4
 _ZN5GpgME4Data7PrivateD1Ev@Base 4:4.3.4
 _ZN5GpgME4Data7PrivateD2Ev@Base 4:4.3.4
 _ZN5GpgME4DataC1EP10gpgme_data@Base 4:4.3.4
 _ZN5GpgME4DataC1EP8_IO_FILE@Base 4:4.3.4
 _ZN5GpgME4DataC1EP8_IO_FILElm@Base 4:4.3.4
 _ZN5GpgME4DataC1EPKc@Base 4:4.3.4
 _ZN5GpgME4DataC1EPKclm@Base 4:4.3.4
 _ZN5GpgME4DataC1EPKcmb@Base 4:4.3.4
 _ZN5GpgME4DataC1EPNS_12DataProviderE@Base 4:4.3.4
 _ZN5GpgME4DataC1ERKNS0_4NullE@Base 4:4.3.4
 _ZN5GpgME4DataC1Ei@Base 4:4.3.4
 _ZN5GpgME4DataC1Ev@Base 4:4.3.4
 _ZN5GpgME4DataC2EP10gpgme_data@Base 4:4.3.4
 _ZN5GpgME4DataC2EP8_IO_FILE@Base 4:4.3.4
 _ZN5GpgME4DataC2EP8_IO_FILElm@Base 4:4.3.4
 _ZN5GpgME4DataC2EPKc@Base 4:4.3.4
 _ZN5GpgME4DataC2EPKclm@Base 4:4.3.4
 _ZN5GpgME4DataC2EPKcmb@Base 4:4.3.4
 _ZN5GpgME4DataC2EPNS_12DataProviderE@Base 4:4.3.4
 _ZN5GpgME4DataC2ERKNS0_4NullE@Base 4:4.3.4
 _ZN5GpgME4DataC2Ei@Base 4:4.3.4
 _ZN5GpgME4DataC2Ev@Base 4:4.3.4
 _ZN5GpgME4DataD1Ev@Base 4:4.8.3
 _ZN5GpgME4DataD2Ev@Base 4:4.8.3
 _ZN5GpgME5Error14hasSystemErrorEv@Base 4:4.5.86
 _ZN5GpgME5Error14setSystemErrorE14gpg_err_code_t@Base 4:4.5.86
 _ZN5GpgME5Error15fromSystemErrorEj@Base 4:4.5.86
 _ZN5GpgME5Error8fromCodeEjj@Base 4:4.5.86
 _ZN5GpgME5Error8setErrnoEi@Base 4:4.5.86
 _ZN5GpgME5Error9fromErrnoEij@Base 4:4.5.86
 _ZN5GpgME5ErrorD1Ev@Base 4:4.6.5
 _ZN5GpgME5ErrorD2Ev@Base 4:4.6.5
 _ZN5GpgME6ImportC1ERKN5boost10shared_ptrINS_12ImportResult7PrivateEEEj@Base 4:4.3.4
 _ZN5GpgME6ImportC1Ev@Base 4:4.3.4
 _ZN5GpgME6ImportC2ERKN5boost10shared_ptrINS_12ImportResult7PrivateEEEj@Base 4:4.3.4
 _ZN5GpgME6ImportC2Ev@Base 4:4.3.4
 _ZN5GpgME6ResultD1Ev@Base 4:4.8.3
 _ZN5GpgME6ResultD2Ev@Base 4:4.8.3
 _ZN5GpgME6SubkeyC1ERKN5boost10shared_ptrI10_gpgme_keyEEP13_gpgme_subkey@Base 4:4.3.4
 _ZN5GpgME6SubkeyC1ERKN5boost10shared_ptrI10_gpgme_keyEEj@Base 4:4.3.4
 _ZN5GpgME6SubkeyC1Ev@Base 4:4.3.4
 _ZN5GpgME6SubkeyC2ERKN5boost10shared_ptrI10_gpgme_keyEEP13_gpgme_subkey@Base 4:4.3.4
 _ZN5GpgME6SubkeyC2ERKN5boost10shared_ptrI10_gpgme_keyEEj@Base 4:4.3.4
 _ZN5GpgME6SubkeyC2Ev@Base 4:4.3.4
 _ZN5GpgME6UserID9SignatureC1ERKN5boost10shared_ptrI10_gpgme_keyEEP14_gpgme_user_idP14_gpgme_key_sig@Base 4:4.3.4
 _ZN5GpgME6UserID9SignatureC1ERKN5boost10shared_ptrI10_gpgme_keyEEP14_gpgme_user_idj@Base 4:4.3.4
 _ZN5GpgME6UserID9SignatureC1Ev@Base 4:4.3.4
 _ZN5GpgME6UserID9SignatureC2ERKN5boost10shared_ptrI10_gpgme_keyEEP14_gpgme_user_idP14_gpgme_key_sig@Base 4:4.3.4
 _ZN5GpgME6UserID9SignatureC2ERKN5boost10shared_ptrI10_gpgme_keyEEP14_gpgme_user_idj@Base 4:4.3.4
 _ZN5GpgME6UserID9SignatureC2Ev@Base 4:4.3.4
 _ZN5GpgME6UserIDC1ERKN5boost10shared_ptrI10_gpgme_keyEEP14_gpgme_user_id@Base 4:4.3.4
 _ZN5GpgME6UserIDC1ERKN5boost10shared_ptrI10_gpgme_keyEEj@Base 4:4.3.4
 _ZN5GpgME6UserIDC1Ev@Base 4:4.3.4
 _ZN5GpgME6UserIDC2ERKN5boost10shared_ptrI10_gpgme_keyEEP14_gpgme_user_id@Base 4:4.3.4
 _ZN5GpgME6UserIDC2ERKN5boost10shared_ptrI10_gpgme_keyEEj@Base 4:4.3.4
 _ZN5GpgME6UserIDC2Ev@Base 4:4.3.4
 _ZN5GpgME7Context10importKeysERKNS_4DataE@Base 4:4.3.4
 _ZN5GpgME7Context10importKeysERKSt6vectorINS_3KeyESaIS2_EE@Base 4:4.4.0
 _ZN5GpgME7Context11generateKeyEPKcRNS_4DataE@Base 4:4.3.4
 _ZN5GpgME7Context11getAuditLogERNS_4DataEj@Base 4:4.3.4
 _ZN5GpgME7Context11setTextModeEb@Base 4:4.3.4
 _ZN5GpgME7Context11startPasswdERKNS_3KeyE@Base 4:4.5.0
 _ZN5GpgME7Context12startEditingERKNS_3KeyESt8auto_ptrINS_14EditInteractorEERNS_4DataE@Base 4:4.3.4
 _ZN5GpgME7Context12startSigningERKNS_4DataERS1_NS_13SignatureModeE@Base 4:4.3.4
 _ZN5GpgME7Context13addSigningKeyERKNS_3KeyE@Base 4:4.3.4
 _ZN5GpgME7Context13endKeyListingEv@Base 4:4.3.4
 _ZN5GpgME7Context13nextTrustItemERNS_5ErrorE@Base 4:4.3.4
 _ZN5GpgME7Context14addKeyListModeEj@Base 4:4.3.4
 _ZN5GpgME7Context14assuanTransactEPKc@Base 4:4.4.0
 _ZN5GpgME7Context14assuanTransactEPKcSt8auto_ptrINS_17AssuanTransactionEE@Base 4:4.4.0
 _ZN5GpgME7Context14setKeyListModeEj@Base 4:4.3.4
 _ZN5GpgME7Context14signAndEncryptERKSt6vectorINS_3KeyESaIS2_EERKNS_4DataERS7_NS0_15EncryptionFlagsE@Base 4:4.3.4
 _ZN5GpgME7Context14startKeyImportERKNS_4DataE@Base 4:4.3.4
 _ZN5GpgME7Context14startKeyImportERKSt6vectorINS_3KeyESaIS2_EE@Base 4:4.4.0
 _ZN5GpgME7Context15createForEngineENS_6EngineEPNS_5ErrorE@Base 4:4.4.0
 _ZN5GpgME7Context15startDecryptionERKNS_4DataERS1_@Base 4:4.3.4
 _ZN5GpgME7Context15startEncryptionERKSt6vectorINS_3KeyESaIS2_EERKNS_4DataERS7_NS0_15EncryptionFlagsE@Base 4:4.3.4
 _ZN5GpgME7Context15startKeyListingEPKcb@Base 4:4.3.4
 _ZN5GpgME7Context15startKeyListingEPPKcb@Base 4:4.3.4
 _ZN5GpgME7Context16clearSigningKeysEv@Base 4:4.3.4
 _ZN5GpgME7Context16decryptAndVerifyERKNS_4DataERS1_@Base 4:4.3.4
 _ZN5GpgME7Context16exportPublicKeysEPKcRNS_4DataE@Base 4:4.3.4
 _ZN5GpgME7Context16exportPublicKeysEPPKcRNS_4DataE@Base 4:4.3.4
 _ZN5GpgME7Context16startCardEditingERKNS_3KeyESt8auto_ptrINS_14EditInteractorEERNS_4DataE@Base 4:4.3.4
 _ZN5GpgME7Context16startGetAuditLogERNS_4DataEj@Base 4:4.3.4
 _ZN5GpgME7Context16startKeyDeletionERKNS_3KeyEb@Base 4:4.3.4
 _ZN5GpgME7Context17createForProtocolENS_8ProtocolE@Base 4:4.3.4
 _ZN5GpgME7Context17setEngineFileNameEPKc@Base 4:4.3.4
 _ZN5GpgME7Context18installIOCallbacksEP12gpgme_io_cbs@Base 4:4.3.4
 _ZN5GpgME7Context18startKeyGenerationEPKcRNS_4DataE@Base 4:4.3.4
 _ZN5GpgME7Context19endTrustItemListingEv@Base 4:4.3.4
 _ZN5GpgME7Context19setProgressProviderEPNS_16ProgressProviderE@Base 4:4.3.4
 _ZN5GpgME7Context20addSignatureNotationEPKcS2_j@Base 4:4.3.4
 _ZN5GpgME7Context20encryptSymmetricallyERKNS_4DataERS1_@Base 4:4.3.4
 _ZN5GpgME7Context20startPublicKeyExportEPKcRNS_4DataE@Base 4:4.3.4
 _ZN5GpgME7Context20startPublicKeyExportEPPKcRNS_4DataE@Base 4:4.3.4
 _ZN5GpgME7Context20uninstallIOCallbacksEv@Base 4:4.3.4
 _ZN5GpgME7Context21addSignaturePolicyURLEPKcb@Base 4:4.3.4
 _ZN5GpgME7Context21setPassphraseProviderEPNS_18PassphraseProviderE@Base 4:4.3.4
 _ZN5GpgME7Context21startTrustItemListingEPKci@Base 4:4.3.4
 _ZN5GpgME7Context21verifyOpaqueSignatureERKNS_4DataERS1_@Base 4:4.3.4
 _ZN5GpgME7Context22cancelPendingOperationEv@Base 4:4.3.4
 _ZN5GpgME7Context22setEngineHomeDirectoryEPKc@Base 4:4.3.4
 _ZN5GpgME7Context22setIncludeCertificatesEi@Base 4:4.3.4
 _ZN5GpgME7Context22startAssuanTransactionEPKc@Base 4:4.4.0
 _ZN5GpgME7Context22startAssuanTransactionEPKcSt8auto_ptrINS_17AssuanTransactionEE@Base 4:4.4.0
 _ZN5GpgME7Context22takeLastEditInteractorEv@Base 4:4.4.0
 _ZN5GpgME7Context23clearSignatureNotationsEv@Base 4:4.3.4
 _ZN5GpgME7Context23verifyDetachedSignatureERKNS_4DataES3_@Base 4:4.3.4
 _ZN5GpgME7Context25takeLastAssuanTransactionEv@Base 4:4.4.0
 _ZN5GpgME7Context26takeLastCardEditInteractorEv@Base 4:4.4.0
 _ZN5GpgME7Context31setManagedByEventLoopInteractorEb@Base 4:4.3.4
 _ZN5GpgME7Context32startOpaqueSignatureVerificationERKNS_4DataERS1_@Base 4:4.3.4
 _ZN5GpgME7Context33startCombinedSigningAndEncryptionERKSt6vectorINS_3KeyESaIS2_EERKNS_4DataERS7_NS0_15EncryptionFlagsE@Base 4:4.3.4
 _ZN5GpgME7Context34startDetachedSignatureVerificationERKNS_4DataES3_@Base 4:4.3.4
 _ZN5GpgME7Context38startCombinedDecryptionAndVerificationERKNS_4DataERS1_@Base 4:4.3.4
 _ZN5GpgME7Context3keyEPKcRNS_5ErrorEb@Base 4:4.3.4
 _ZN5GpgME7Context4editERKNS_3KeyESt8auto_ptrINS_14EditInteractorEERNS_4DataE@Base 4:4.3.4
 _ZN5GpgME7Context4pollEv@Base 4:4.3.4
 _ZN5GpgME7Context4signERKNS_4DataERS1_NS_13SignatureModeE@Base 4:4.3.4
 _ZN5GpgME7Context4waitEv@Base 4:4.3.4
 _ZN5GpgME7Context6passwdERKNS_3KeyE@Base 4:4.5.0
 _ZN5GpgME7Context7PrivateC1EP13gpgme_context@Base 4:4.3.4
 _ZN5GpgME7Context7PrivateC2EP13gpgme_context@Base 4:4.3.4
 _ZN5GpgME7Context7PrivateD1Ev@Base 4:4.3.4
 _ZN5GpgME7Context7PrivateD2Ev@Base 4:4.3.4
 _ZN5GpgME7Context7decryptERKNS_4DataERS1_@Base 4:4.3.4
 _ZN5GpgME7Context7encryptERKSt6vectorINS_3KeyESaIS2_EERKNS_4DataERS7_NS0_15EncryptionFlagsE@Base 4:4.3.4
 _ZN5GpgME7Context7nextKeyERNS_5ErrorE@Base 4:4.3.4
 _ZN5GpgME7Context8cardEditERKNS_3KeyESt8auto_ptrINS_14EditInteractorEERNS_4DataE@Base 4:4.3.4
 _ZN5GpgME7Context8mountVFSEPKcS2_@Base 4:4.5.0
 _ZN5GpgME7Context8setArmorEb@Base 4:4.3.4
 _ZN5GpgME7Context9createVFSEPKcRKSt6vectorINS_3KeyESaIS4_EE@Base 4:4.5.0
 _ZN5GpgME7Context9deleteKeyERKNS_3KeyEb@Base 4:4.3.4
 _ZN5GpgME7Context9setLocaleEiPKc@Base 4:4.3.4
 _ZN5GpgME7ContextC1EP13gpgme_context@Base 4:4.3.4
 _ZN5GpgME7ContextC2EP13gpgme_context@Base 4:4.3.4
 _ZN5GpgME7ContextD0Ev@Base 4:4.3.4
 _ZN5GpgME7ContextD1Ev@Base 4:4.3.4
 _ZN5GpgME7ContextD2Ev@Base 4:4.3.4
 _ZN5GpgME8NotationC1EP19_gpgme_sig_notation@Base 4:4.3.4
 _ZN5GpgME8NotationC1ERKN5boost10shared_ptrINS_18VerificationResult7PrivateEEEjj@Base 4:4.3.4
 _ZN5GpgME8NotationC1Ev@Base 4:4.3.4
 _ZN5GpgME8NotationC2EP19_gpgme_sig_notation@Base 4:4.3.4
 _ZN5GpgME8NotationC2ERKN5boost10shared_ptrINS_18VerificationResult7PrivateEEEjj@Base 4:4.3.4
 _ZN5GpgME8NotationC2Ev@Base 4:4.3.4
 _ZN5GpgME9Exception12make_messageERKNS_5ErrorERKSs@Base 4:4.3.4
 _ZN5GpgME9Exception12make_messageERKNS_5ErrorERKSsNS0_7OptionsE@Base 4:4.5.0
 _ZN5GpgME9ExceptionD0Ev@Base 4:4.3.4
 _ZN5GpgME9ExceptionD1Ev@Base 4:4.3.4
 _ZN5GpgME9ExceptionD2Ev@Base 4:4.3.4
 _ZN5GpgME9SignatureC1ERKN5boost10shared_ptrINS_18VerificationResult7PrivateEEEj@Base 4:4.3.4
 _ZN5GpgME9SignatureC1Ev@Base 4:4.3.4
 _ZN5GpgME9SignatureC2ERKN5boost10shared_ptrINS_18VerificationResult7PrivateEEEj@Base 4:4.3.4
 _ZN5GpgME9SignatureC2Ev@Base 4:4.3.4
 _ZN5GpgME9TrustItemC1EP17_gpgme_trust_item@Base 4:4.3.4
 _ZN5GpgME9TrustItemC1ERKS0_@Base 4:4.3.4
 _ZN5GpgME9TrustItemC2EP17_gpgme_trust_item@Base 4:4.3.4
 _ZN5GpgME9TrustItemC2ERKS0_@Base 4:4.3.4
 _ZN5GpgME9TrustItemD0Ev@Base 4:4.3.4
 _ZN5GpgME9TrustItemD1Ev@Base 4:4.3.4
 _ZN5GpgME9TrustItemD2Ev@Base 4:4.3.4
 _ZN5GpgMElsERSoNS_11KeyListModeE@Base 4:4.3.4
 _ZN5GpgMElsERSoNS_13SignatureModeE@Base 4:4.3.4
 _ZN5GpgMElsERSoNS_6EngineE@Base 4:4.3.4
 _ZN5GpgMElsERSoNS_7Context13AuditLogFlagsE@Base 4:4.3.4
 _ZN5GpgMElsERSoNS_7Context15EncryptionFlagsE@Base 4:4.3.4
 _ZN5GpgMElsERSoNS_7Context20CertificateInclusionE@Base 4:4.3.4
 _ZN5GpgMElsERSoNS_8Notation5FlagsE@Base 4:4.3.4
 _ZN5GpgMElsERSoNS_8ProtocolE@Base 4:4.3.4
 _ZN5GpgMElsERSoNS_9Signature7SummaryE@Base 4:4.3.4
 _ZN5GpgMElsERSoNS_9Signature9PKAStatusE@Base 4:4.3.4
 _ZN5GpgMElsERSoRKNS_12AssuanResultE@Base 4:4.4.0
 _ZN5GpgMElsERSoRKNS_13SigningResultE@Base 4:4.3.4
 _ZN5GpgMElsERSoRKNS_14VfsMountResultE@Base 4:4.5.0
 _ZN5GpgMElsERSoRKNS_16CreatedSignatureE@Base 4:4.3.4
 _ZN5GpgMElsERSoRKNS_16DecryptionResult9RecipientE@Base 4:4.3.4
 _ZN5GpgMElsERSoRKNS_16DecryptionResultE@Base 4:4.3.4
 _ZN5GpgMElsERSoRKNS_16EncryptionResultE@Base 4:4.3.4
 _ZN5GpgMElsERSoRKNS_16InvalidRecipientE@Base 4:4.3.4
 _ZN5GpgMElsERSoRKNS_17InvalidSigningKeyE@Base 4:4.3.4
 _ZN5GpgMElsERSoRKNS_18VerificationResultE@Base 4:4.3.4
 _ZN5GpgMElsERSoRKNS_5ErrorE@Base 4:4.3.4
 _ZN5GpgMElsERSoRKNS_8NotationE@Base 4:4.3.4
 _ZN5GpgMElsERSoRKNS_9SignatureE@Base 4:4.3.4
 _ZNK5GpgME10EngineInfo13homeDirectoryEv@Base 4:4.3.4
 _ZNK5GpgME10EngineInfo15requiredVersionEv@Base 4:4.3.4
 _ZNK5GpgME10EngineInfo6isNullEv@Base 4:4.3.4
 _ZNK5GpgME10EngineInfo7versionEv@Base 4:4.3.4
 _ZNK5GpgME10EngineInfo8fileNameEv@Base 4:4.3.4
 _ZNK5GpgME10EngineInfo8protocolEv@Base 4:4.3.4
 _ZNK5GpgME12AssuanResult11assuanErrorEv@Base 4:4.4.0
 _ZNK5GpgME12AssuanResult6isNullEv@Base 4:4.4.0
 _ZNK5GpgME12ImportResult10newSubkeysEv@Base 4:4.3.4
 _ZNK5GpgME12ImportResult10newUserIDsEv@Base 4:4.3.4
 _ZNK5GpgME12ImportResult11notImportedEv@Base 4:4.3.4
 _ZNK5GpgME12ImportResult11numImportedEv@Base 4:4.3.4
 _ZNK5GpgME12ImportResult12numUnchangedEv@Base 4:4.3.4
 _ZNK5GpgME12ImportResult13newSignaturesEv@Base 4:4.3.4
 _ZNK5GpgME12ImportResult13numConsideredEv@Base 4:4.3.4
 _ZNK5GpgME12ImportResult14newRevocationsEv@Base 4:4.3.4
 _ZNK5GpgME12ImportResult14numRSAImportedEv@Base 4:4.3.4
 _ZNK5GpgME12ImportResult20numKeysWithoutUserIDEv@Base 4:4.3.4
 _ZNK5GpgME12ImportResult21numSecretKeysImportedEv@Base 4:4.3.4
 _ZNK5GpgME12ImportResult22numSecretKeysUnchangedEv@Base 4:4.3.4
 _ZNK5GpgME12ImportResult23numSecretKeysConsideredEv@Base 4:4.3.4
 _ZNK5GpgME12ImportResult6importEj@Base 4:4.3.4
 _ZNK5GpgME12ImportResult6isNullEv@Base 4:4.3.4
 _ZNK5GpgME12ImportResult7importsEv@Base 4:4.3.4
 _ZNK5GpgME13Configuration6Option11activeValueEv@Base 4:4.5.86
 _ZNK5GpgME13Configuration6Option11descriptionEv@Base 4:4.5.86
 _ZNK5GpgME13Configuration6Option12argumentNameEv@Base 4:4.5.86
 _ZNK5GpgME13Configuration6Option12currentValueEv@Base 4:4.5.86
 _ZNK5GpgME13Configuration6Option12defaultValueEv@Base 4:4.5.86
 _ZNK5GpgME13Configuration6Option13alternateTypeEv@Base 4:4.5.86
 _ZNK5GpgME13Configuration6Option15noArgumentValueEv@Base 4:4.5.86
 _ZNK5GpgME13Configuration6Option17createIntArgumentEi@Base 4:4.5.86
 _ZNK5GpgME13Configuration6Option18createNoneArgumentEb@Base 4:4.5.86
 _ZNK5GpgME13Configuration6Option18createUIntArgumentEj@Base 4:4.5.86
 _ZNK5GpgME13Configuration6Option18defaultDescriptionEv@Base 4:4.5.86
 _ZNK5GpgME13Configuration6Option20createStringArgumentEPKc@Base 4:4.5.86
 _ZNK5GpgME13Configuration6Option20createStringArgumentERKSs@Base 4:4.5.86
 _ZNK5GpgME13Configuration6Option21createIntListArgumentERKSt6vectorIiSaIiEE@Base 4:4.5.86
 _ZNK5GpgME13Configuration6Option21noArgumentDescriptionEv@Base 4:4.5.86
 _ZNK5GpgME13Configuration6Option22createNoneListArgumentEj@Base 4:4.5.86
 _ZNK5GpgME13Configuration6Option22createUIntListArgumentERKSt6vectorIjSaIjEE@Base 4:4.5.86
 _ZNK5GpgME13Configuration6Option24createStringListArgumentERKSt6vectorIPKcSaIS4_EE@Base 4:4.5.86
 _ZNK5GpgME13Configuration6Option24createStringListArgumentERKSt6vectorISsSaISsEE@Base 4:4.5.86
 _ZNK5GpgME13Configuration6Option3setEv@Base 4:4.5.86
 _ZNK5GpgME13Configuration6Option4nameEv@Base 4:4.5.86
 _ZNK5GpgME13Configuration6Option4typeEv@Base 4:4.5.86
 _ZNK5GpgME13Configuration6Option5dirtyEv@Base 4:4.5.86
 _ZNK5GpgME13Configuration6Option5flagsEv@Base 4:4.5.86
 _ZNK5GpgME13Configuration6Option5levelEv@Base 4:4.5.86
 _ZNK5GpgME13Configuration6Option6parentEv@Base 4:4.5.86
 _ZNK5GpgME13Configuration6Option8newValueEv@Base 4:4.5.86
 _ZNK5GpgME13Configuration8Argument10uintValuesEv@Base 4:4.5.86
 _ZNK5GpgME13Configuration8Argument11numElementsEv@Base 4:4.5.86
 _ZNK5GpgME13Configuration8Argument11stringValueEj@Base 4:4.5.86
 _ZNK5GpgME13Configuration8Argument12stringValuesEv@Base 4:4.5.86
 _ZNK5GpgME13Configuration8Argument16numberOfTimesSetEv@Base 4:4.5.86
 _ZNK5GpgME13Configuration8Argument6parentEv@Base 4:4.5.86
 _ZNK5GpgME13Configuration8Argument8intValueEj@Base 4:4.5.86
 _ZNK5GpgME13Configuration8Argument9boolValueEv@Base 4:4.5.86
 _ZNK5GpgME13Configuration8Argument9intValuesEv@Base 4:4.5.86
 _ZNK5GpgME13Configuration8Argument9uintValueEj@Base 4:4.5.86
 _ZNK5GpgME13Configuration9Component10numOptionsEv@Base 4:4.5.86
 _ZNK5GpgME13Configuration9Component11descriptionEv@Base 4:4.5.86
 _ZNK5GpgME13Configuration9Component11programNameEv@Base 4:4.5.86
 _ZNK5GpgME13Configuration9Component4nameEv@Base 4:4.5.86
 _ZNK5GpgME13Configuration9Component4saveEv@Base 4:4.5.86
 _ZNK5GpgME13Configuration9Component6optionEPKc@Base 4:4.5.86
 _ZNK5GpgME13Configuration9Component6optionEj@Base 4:4.5.86
 _ZNK5GpgME13Configuration9Component7optionsEv@Base 4:4.5.86
 _ZNK5GpgME13KeyListResult11isTruncatedEv@Base 4:4.3.4
 _ZNK5GpgME13KeyListResult6isNullEv@Base 4:4.3.4
 _ZNK5GpgME13SigningResult16createdSignatureEj@Base 4:4.3.4
 _ZNK5GpgME13SigningResult17createdSignaturesEv@Base 4:4.3.4
 _ZNK5GpgME13SigningResult17invalidSigningKeyEj@Base 4:4.3.4
 _ZNK5GpgME13SigningResult18invalidSigningKeysEv@Base 4:4.3.4
 _ZNK5GpgME13SigningResult6isNullEv@Base 4:4.3.4
 _ZNK5GpgME14EditInteractor15needsNoResponseEj@Base 4:4.3.4
 _ZNK5GpgME14EditInteractor5stateEv@Base 4:4.3.4
 _ZNK5GpgME14EditInteractor9lastErrorEv@Base 4:4.3.4
 _ZNK5GpgME14VfsMountResult6isNullEv@Base 4:4.5.0
 _ZNK5GpgME14VfsMountResult8mountDirEv@Base 4:4.5.0
 _ZNK5GpgME16CreatedSignature11fingerprintEv@Base 4:4.3.4
 _ZNK5GpgME16CreatedSignature12creationTimeEv@Base 4:4.3.4
 _ZNK5GpgME16CreatedSignature13hashAlgorithmEv@Base 4:4.3.4
 _ZNK5GpgME16CreatedSignature14signatureClassEv@Base 4:4.3.4
 _ZNK5GpgME16CreatedSignature18publicKeyAlgorithmEv@Base 4:4.3.4
 _ZNK5GpgME16CreatedSignature21hashAlgorithmAsStringEv@Base 4:4.3.4
 _ZNK5GpgME16CreatedSignature26publicKeyAlgorithmAsStringEv@Base 4:4.3.4
 _ZNK5GpgME16CreatedSignature4modeEv@Base 4:4.3.4
 _ZNK5GpgME16CreatedSignature6isNullEv@Base 4:4.3.4
 _ZNK5GpgME16DecryptionResult10recipientsEv@Base 4:4.3.4
 _ZNK5GpgME16DecryptionResult13numRecipientsEv@Base 4:4.3.4
 _ZNK5GpgME16DecryptionResult15isWrongKeyUsageEv@Base 4:4.3.4
 _ZNK5GpgME16DecryptionResult20unsupportedAlgorithmEv@Base 4:4.3.4
 _ZNK5GpgME16DecryptionResult6isNullEv@Base 4:4.3.4
 _ZNK5GpgME16DecryptionResult8fileNameEv@Base 4:4.3.4
 _ZNK5GpgME16DecryptionResult9Recipient10shortKeyIDEv@Base 4:4.3.4
 _ZNK5GpgME16DecryptionResult9Recipient18publicKeyAlgorithmEv@Base 4:4.3.4
 _ZNK5GpgME16DecryptionResult9Recipient26publicKeyAlgorithmAsStringEv@Base 4:4.3.4
 _ZNK5GpgME16DecryptionResult9Recipient5keyIDEv@Base 4:4.3.4
 _ZNK5GpgME16DecryptionResult9Recipient6isNullEv@Base 4:4.3.4
 _ZNK5GpgME16DecryptionResult9Recipient6statusEv@Base 4:4.3.4
 _ZNK5GpgME16DecryptionResult9recipientEj@Base 4:4.3.4
 _ZNK5GpgME16EncryptionResult20invalidEncryptionKeyEj@Base 4:4.3.4
 _ZNK5GpgME16EncryptionResult20numInvalidRecipientsEv@Base 4:4.3.4
 _ZNK5GpgME16EncryptionResult21invalidEncryptionKeysEv@Base 4:4.3.4
 _ZNK5GpgME16EncryptionResult6isNullEv@Base 4:4.3.4
 _ZNK5GpgME16InvalidRecipient11fingerprintEv@Base 4:4.3.4
 _ZNK5GpgME16InvalidRecipient6isNullEv@Base 4:4.3.4
 _ZNK5GpgME16InvalidRecipient6reasonEv@Base 4:4.3.4
 _ZNK5GpgME17InvalidSigningKey11fingerprintEv@Base 4:4.3.4
 _ZNK5GpgME17InvalidSigningKey6isNullEv@Base 4:4.3.4
 _ZNK5GpgME17InvalidSigningKey6reasonEv@Base 4:4.3.4
 _ZNK5GpgME18VerificationResult10signaturesEv@Base 4:4.3.4
 _ZNK5GpgME18VerificationResult13numSignaturesEv@Base 4:4.3.4
 _ZNK5GpgME18VerificationResult6isNullEv@Base 4:4.3.4
 _ZNK5GpgME18VerificationResult8fileNameEv@Base 4:4.3.4
 _ZNK5GpgME18VerificationResult9signatureEj@Base 4:4.3.4
 _ZNK5GpgME19KeyGenerationResult11fingerprintEv@Base 4:4.3.4
 _ZNK5GpgME19KeyGenerationResult17isSubkeyGeneratedEv@Base 4:4.3.4
 _ZNK5GpgME19KeyGenerationResult21isPrimaryKeyGeneratedEv@Base 4:4.3.4
 _ZNK5GpgME19KeyGenerationResult6isNullEv@Base 4:4.3.4
 _ZNK5GpgME24DefaultAssuanTransaction10statusLineEPKc@Base 4:4.4.0
 _ZNK5GpgME24DefaultAssuanTransaction15firstStatusLineEPKc@Base 4:4.4.0
 _ZNK5GpgME24GpgSignKeyEditInteractor6actionERNS_5ErrorE@Base 4:4.3.4
 _ZNK5GpgME24GpgSignKeyEditInteractor9nextStateEjPKcRNS_5ErrorE@Base 4:4.3.4
 _ZNK5GpgME26GpgAddUserIDEditInteractor6actionERNS_5ErrorE@Base 4:4.3.4
 _ZNK5GpgME26GpgAddUserIDEditInteractor9nextStateEjPKcRNS_5ErrorE@Base 4:4.3.4
 _ZNK5GpgME27ScdGetInfoAssuanTransaction10readerListEv@Base 4:4.4.0
 _ZNK5GpgME27ScdGetInfoAssuanTransaction10socketNameEv@Base 4:4.4.0
 _ZNK5GpgME27ScdGetInfoAssuanTransaction11makeCommandEv@Base 4:4.4.0
 _ZNK5GpgME27ScdGetInfoAssuanTransaction15applicationListEv@Base 4:4.4.0
 _ZNK5GpgME27ScdGetInfoAssuanTransaction3pidEv@Base 4:4.4.0
 _ZNK5GpgME27ScdGetInfoAssuanTransaction6statusEv@Base 4:4.4.0
 _ZNK5GpgME27ScdGetInfoAssuanTransaction7commandEv@Base 4:4.4.0
 _ZNK5GpgME27ScdGetInfoAssuanTransaction7versionEv@Base 4:4.4.0
 _ZNK5GpgME30GpgSetExpiryTimeEditInteractor6actionERNS_5ErrorE@Base 4:4.3.4
 _ZNK5GpgME30GpgSetExpiryTimeEditInteractor9nextStateEjPKcRNS_5ErrorE@Base 4:4.3.4
 _ZNK5GpgME30GpgSetOwnerTrustEditInteractor6actionERNS_5ErrorE@Base 4:4.3.4
 _ZNK5GpgME30GpgSetOwnerTrustEditInteractor9nextStateEjPKcRNS_5ErrorE@Base 4:4.3.4
 _ZNK5GpgME32GpgAgentGetInfoAssuanTransaction10socketNameEv@Base 4:4.4.0
 _ZNK5GpgME32GpgAgentGetInfoAssuanTransaction11makeCommandEv@Base 4:4.4.0
 _ZNK5GpgME32GpgAgentGetInfoAssuanTransaction13sshSocketNameEv@Base 4:4.4.0
 _ZNK5GpgME32GpgAgentGetInfoAssuanTransaction3pidEv@Base 4:4.4.0
 _ZNK5GpgME32GpgAgentGetInfoAssuanTransaction7commandEv@Base 4:4.4.0
 _ZNK5GpgME32GpgAgentGetInfoAssuanTransaction7versionEv@Base 4:4.4.0
 _ZNK5GpgME3Key10canCertifyEv@Base 4:4.3.4
 _ZNK5GpgME3Key10canEncryptEv@Base 4:4.3.4
 _ZNK5GpgME3Key10isDisabledEv@Base 4:4.3.4
 _ZNK5GpgME3Key10issuerNameEv@Base 4:4.3.4
 _ZNK5GpgME3Key10numSubkeysEv@Base 4:4.3.4
 _ZNK5GpgME3Key10numUserIDsEv@Base 4:4.3.4
 _ZNK5GpgME3Key10ownerTrustEv@Base 4:4.3.4
 _ZNK5GpgME3Key10shortKeyIDEv@Base 4:4.3.4
 _ZNK5GpgME3Key11isQualifiedEv@Base 4:4.3.4
 _ZNK5GpgME3Key11keyListModeEv@Base 4:4.3.4
 _ZNK5GpgME3Key12issuerSerialEv@Base 4:4.3.4
 _ZNK5GpgME3Key13canReallySignEv@Base 4:4.5.0
 _ZNK5GpgME3Key15canAuthenticateEv@Base 4:4.3.4
 _ZNK5GpgME3Key16protocolAsStringEv@Base 4:4.3.4
 _ZNK5GpgME3Key18ownerTrustAsStringEv@Base 4:4.3.4
 _ZNK5GpgME3Key18primaryFingerprintEv@Base 4:4.3.4
 _ZNK5GpgME3Key5keyIDEv@Base 4:4.3.4
 _ZNK5GpgME3Key6isRootEv@Base 4:4.3.4
 _ZNK5GpgME3Key6subkeyEj@Base 4:4.3.4
 _ZNK5GpgME3Key6userIDEj@Base 4:4.3.4
 _ZNK5GpgME3Key7canSignEv@Base 4:4.3.4
 _ZNK5GpgME3Key7chainIDEv@Base 4:4.3.4
 _ZNK5GpgME3Key7subkeysEv@Base 4:4.3.4
 _ZNK5GpgME3Key7userIDsEv@Base 4:4.3.4
 _ZNK5GpgME3Key8protocolEv@Base 4:4.3.4
 _ZNK5GpgME3Key9hasSecretEv@Base 4:4.3.4
 _ZNK5GpgME3Key9isExpiredEv@Base 4:4.3.4
 _ZNK5GpgME3Key9isInvalidEv@Base 4:4.3.4
 _ZNK5GpgME3Key9isRevokedEv@Base 4:4.3.4
 _ZNK5GpgME4Data6isNullEv@Base 4:4.3.4
 _ZNK5GpgME4Data8encodingEv@Base 4:4.3.4
 _ZNK5GpgME4Data8fileNameEv@Base 4:4.3.4
 _ZNK5GpgME5Error10isCanceledEv@Base 4:4.3.4
 _ZNK5GpgME5Error4codeEv@Base 4:4.3.4
 _ZNK5GpgME5Error6sourceEv@Base 4:4.3.4
 _ZNK5GpgME5Error7toErrnoEv@Base 4:4.5.86
 _ZNK5GpgME5Error8asStringEv@Base 4:4.3.4
 _ZNK5GpgME5Error8sourceIDEv@Base 4:4.3.4
 _ZNK5GpgME6Import11fingerprintEv@Base 4:4.3.4
 _ZNK5GpgME6Import5errorEv@Base 4:4.3.4
 _ZNK5GpgME6Import6isNullEv@Base 4:4.3.4
 _ZNK5GpgME6Import6statusEv@Base 4:4.3.4
 _ZNK5GpgME6Subkey10canCertifyEv@Base 4:4.3.4
 _ZNK5GpgME6Subkey10canEncryptEv@Base 4:4.3.4
 _ZNK5GpgME6Subkey10isDisabledEv@Base 4:4.3.4
 _ZNK5GpgME6Subkey11fingerprintEv@Base 4:4.3.4
 _ZNK5GpgME6Subkey11isQualifiedEv@Base 4:4.3.4
 _ZNK5GpgME6Subkey12creationTimeEv@Base 4:4.3.4
 _ZNK5GpgME6Subkey12neverExpiresEv@Base 4:4.3.4
 _ZNK5GpgME6Subkey14expirationTimeEv@Base 4:4.3.4
 _ZNK5GpgME6Subkey15canAuthenticateEv@Base 4:4.3.4
 _ZNK5GpgME6Subkey16cardSerialNumberEv@Base 4:4.3.4
 _ZNK5GpgME6Subkey18publicKeyAlgorithmEv@Base 4:4.3.4
 _ZNK5GpgME6Subkey26publicKeyAlgorithmAsStringEv@Base 4:4.3.4
 _ZNK5GpgME6Subkey5keyIDEv@Base 4:4.3.4
 _ZNK5GpgME6Subkey6lengthEv@Base 4:4.3.4
 _ZNK5GpgME6Subkey6parentEv@Base 4:4.3.4
 _ZNK5GpgME6Subkey7canSignEv@Base 4:4.3.4
 _ZNK5GpgME6Subkey8isSecretEv@Base 4:4.3.4
 _ZNK5GpgME6Subkey9isCardKeyEv@Base 4:4.3.4
 _ZNK5GpgME6Subkey9isExpiredEv@Base 4:4.3.4
 _ZNK5GpgME6Subkey9isInvalidEv@Base 4:4.3.4
 _ZNK5GpgME6Subkey9isRevokedEv@Base 4:4.3.4
 _ZNK5GpgME6UserID10signaturesEv@Base 4:4.3.4
 _ZNK5GpgME6UserID13numSignaturesEv@Base 4:4.3.4
 _ZNK5GpgME6UserID16validityAsStringEv@Base 4:4.3.4
 _ZNK5GpgME6UserID2idEv@Base 4:4.3.4
 _ZNK5GpgME6UserID4nameEv@Base 4:4.3.4
 _ZNK5GpgME6UserID5emailEv@Base 4:4.3.4
 _ZNK5GpgME6UserID6parentEv@Base 4:4.3.4
 _ZNK5GpgME6UserID7commentEv@Base 4:4.3.4
 _ZNK5GpgME6UserID8validityEv@Base 4:4.3.4
 _ZNK5GpgME6UserID9Signature10signerNameEv@Base 4:4.3.4
 _ZNK5GpgME6UserID9Signature11signerEmailEv@Base 4:4.3.4
 _ZNK5GpgME6UserID9Signature11signerKeyIDEv@Base 4:4.3.4
 _ZNK5GpgME6UserID9Signature12creationTimeEv@Base 4:4.3.4
 _ZNK5GpgME6UserID9Signature12isExportableEv@Base 4:4.3.4
 _ZNK5GpgME6UserID9Signature12isRevokationEv@Base 4:4.3.4
 _ZNK5GpgME6UserID9Signature12neverExpiresEv@Base 4:4.3.4
 _ZNK5GpgME6UserID9Signature12numNotationsEv@Base 4:4.3.4
 _ZNK5GpgME6UserID9Signature12signerUserIDEv@Base 4:4.3.4
 _ZNK5GpgME6UserID9Signature13signerCommentEv@Base 4:4.3.4
 _ZNK5GpgME6UserID9Signature14expirationTimeEv@Base 4:4.3.4
 _ZNK5GpgME6UserID9Signature14statusAsStringEv@Base 4:4.3.4
 _ZNK5GpgME6UserID9Signature17algorithmAsStringEv@Base 4:4.3.4
 _ZNK5GpgME6UserID9Signature6parentEv@Base 4:4.3.4
 _ZNK5GpgME6UserID9Signature6statusEv@Base 4:4.3.4
 _ZNK5GpgME6UserID9Signature8notationEj@Base 4:4.3.4
 _ZNK5GpgME6UserID9Signature9algorithmEv@Base 4:4.3.4
 _ZNK5GpgME6UserID9Signature9certClassEv@Base 4:4.3.4
 _ZNK5GpgME6UserID9Signature9isExpiredEv@Base 4:4.3.4
 _ZNK5GpgME6UserID9Signature9isInvalidEv@Base 4:4.3.4
 _ZNK5GpgME6UserID9Signature9notationsEv@Base 4:4.3.4
 _ZNK5GpgME6UserID9Signature9policyURLEv@Base 4:4.3.4
 _ZNK5GpgME6UserID9isInvalidEv@Base 4:4.3.4
 _ZNK5GpgME6UserID9isRevokedEv@Base 4:4.3.4
 _ZNK5GpgME6UserID9signatureEj@Base 4:4.3.4
 _ZNK5GpgME7Context10engineInfoEv@Base 4:4.3.4
 _ZNK5GpgME7Context10signingKeyEj@Base 4:4.3.4
 _ZNK5GpgME7Context11keyListModeEv@Base 4:4.3.4
 _ZNK5GpgME7Context11signingKeysEv@Base 4:4.3.4
 _ZNK5GpgME7Context12assuanResultEv@Base 4:4.4.0
 _ZNK5GpgME7Context12importResultEv@Base 4:4.3.4
 _ZNK5GpgME7Context13keyListResultEv@Base 4:4.3.4
 _ZNK5GpgME7Context13signingResultEv@Base 4:4.3.4
 _ZNK5GpgME7Context16decryptionResultEv@Base 4:4.3.4
 _ZNK5GpgME7Context16encryptionResultEv@Base 4:4.3.4
 _ZNK5GpgME7Context16progressProviderEv@Base 4:4.3.4
 _ZNK5GpgME7Context17signatureNotationEj@Base 4:4.3.4
 _ZNK5GpgME7Context18lastEditInteractorEv@Base 4:4.3.4
 _ZNK5GpgME7Context18passphraseProviderEv@Base 4:4.3.4
 _ZNK5GpgME7Context18signatureNotationsEv@Base 4:4.3.4
 _ZNK5GpgME7Context18signaturePolicyURLEv@Base 4:4.3.4
 _ZNK5GpgME7Context18verificationResultEv@Base 4:4.3.4
 _ZNK5GpgME7Context19includeCertificatesEv@Base 4:4.3.4
 _ZNK5GpgME7Context19keyGenerationResultEv@Base 4:4.3.4
 _ZNK5GpgME7Context21lastAssuanTransactionEv@Base 4:4.4.0
 _ZNK5GpgME7Context22lastCardEditInteractorEv@Base 4:4.3.4
 _ZNK5GpgME7Context28managedByEventLoopInteractorEv@Base 4:4.3.4
 _ZNK5GpgME7Context5armorEv@Base 4:4.3.4
 _ZNK5GpgME7Context8protocolEv@Base 4:4.3.4
 _ZNK5GpgME7Context8textModeEv@Base 4:4.3.4
 _ZNK5GpgME7Context9lastErrorEv@Base 4:4.3.4
 _ZNK5GpgME8Notation10isCriticalEv@Base 4:4.3.4
 _ZNK5GpgME8Notation15isHumanReadableEv@Base 4:4.3.4
 _ZNK5GpgME8Notation4nameEv@Base 4:4.3.4
 _ZNK5GpgME8Notation5flagsEv@Base 4:4.3.4
 _ZNK5GpgME8Notation5valueEv@Base 4:4.3.4
 _ZNK5GpgME8Notation6isNullEv@Base 4:4.3.4
 _ZNK5GpgME9Signature10pkaAddressEv@Base 4:4.3.4
 _ZNK5GpgME9Signature11fingerprintEv@Base 4:4.3.4
 _ZNK5GpgME9Signature12creationTimeEv@Base 4:4.3.4
 _ZNK5GpgME9Signature12neverExpiresEv@Base 4:4.3.4
 _ZNK5GpgME9Signature13hashAlgorithmEv@Base 4:4.3.4
 _ZNK5GpgME9Signature14expirationTimeEv@Base 4:4.3.4
 _ZNK5GpgME9Signature15isWrongKeyUsageEv@Base 4:4.3.4
 _ZNK5GpgME9Signature16validityAsStringEv@Base 4:4.3.4
 _ZNK5GpgME9Signature17nonValidityReasonEv@Base 4:4.3.4
 _ZNK5GpgME9Signature18publicKeyAlgorithmEv@Base 4:4.3.4
 _ZNK5GpgME9Signature21hashAlgorithmAsStringEv@Base 4:4.3.4
 _ZNK5GpgME9Signature25isVerifiedUsingChainModelEv@Base 4:4.3.4
 _ZNK5GpgME9Signature26publicKeyAlgorithmAsStringEv@Base 4:4.3.4
 _ZNK5GpgME9Signature6isNullEv@Base 4:4.3.4
 _ZNK5GpgME9Signature6statusEv@Base 4:4.3.4
 _ZNK5GpgME9Signature7summaryEv@Base 4:4.3.4
 _ZNK5GpgME9Signature8notationEj@Base 4:4.3.4
 _ZNK5GpgME9Signature8validityEv@Base 4:4.3.4
 _ZNK5GpgME9Signature9notationsEv@Base 4:4.3.4
 _ZNK5GpgME9Signature9pkaStatusEv@Base 4:4.3.4
 _ZNK5GpgME9Signature9policyURLEv@Base 4:4.3.4
 _ZNK5GpgME9TrustItem10trustLevelEv@Base 4:4.3.4
 _ZNK5GpgME9TrustItem16validityAsStringEv@Base 4:4.3.4
 _ZNK5GpgME9TrustItem18ownerTrustAsStringEv@Base 4:4.3.4
 _ZNK5GpgME9TrustItem4implEv@Base 4:4.3.4
 _ZNK5GpgME9TrustItem4typeEv@Base 4:4.3.4
 _ZNK5GpgME9TrustItem5keyIDEv@Base 4:4.3.4
 _ZNK5GpgME9TrustItem6isNullEv@Base 4:4.3.4
 _ZNK5GpgME9TrustItem6userIDEv@Base 4:4.3.4
 _ZNSs12_S_constructIN9__gnu_cxx17__normal_iteratorIPKcSsEEEEPcT_S6_RKSaIcESt20forward_iterator_tag@Base 4:4.7.4
 _ZNSs12_S_constructIPcEES0_T_S1_RKSaIcESt20forward_iterator_tag@Base 4:4.7.4
 _ZNSt12_Destroy_auxILb0EE9__destroyIPSsEEvT_S3_@Base 4:4.7.4
 _ZNSt12_Destroy_auxILb0EE9__destroyIPSt4pairISsSsEEEvT_S5_@Base 4:4.7.4
 _ZNSt12_Destroy_auxILb0EE9__destroyIPSt6vectorIN5GpgME18VerificationResult7Private4NotaESaIS6_EEEEvT_SA_@Base 4:4.7.4
 _ZNSt4pairISsSsED1Ev@Base 4:4.6.5
 _ZNSt4pairISsSsED2Ev@Base 4:4.6.5
 _ZNSt6vectorIN5GpgME13Configuration6OptionESaIS2_EE13_M_insert_auxEN9__gnu_cxx17__normal_iteratorIPS2_S4_EERKS2_@Base 4:4.5.86
 _ZNSt6vectorIN5GpgME13Configuration6OptionESaIS2_EED1Ev@Base 4:4.5.86
 _ZNSt6vectorIN5GpgME13Configuration6OptionESaIS2_EED2Ev@Base 4:4.6.1
 _ZNSt6vectorIN5GpgME13Configuration9ComponentESaIS2_EE14_M_fill_insertEN9__gnu_cxx17__normal_iteratorIPS2_S4_EEmRKS2_@Base 4:4.5.86
 _ZNSt6vectorIN5GpgME13Configuration9ComponentESaIS2_EED1Ev@Base 4:4.6.1
 _ZNSt6vectorIN5GpgME13Configuration9ComponentESaIS2_EED2Ev@Base 4:4.6.1
 _ZNSt6vectorIN5GpgME16CreatedSignatureESaIS1_EE13_M_insert_auxEN9__gnu_cxx17__normal_iteratorIPS1_S3_EERKS1_@Base 4:4.3.4
 _ZNSt6vectorIN5GpgME16CreatedSignatureESaIS1_EED1Ev@Base 4:4.3.4
 _ZNSt6vectorIN5GpgME16CreatedSignatureESaIS1_EED2Ev@Base 4:4.6.1
 _ZNSt6vectorIN5GpgME16DecryptionResult9RecipientESaIS2_EE13_M_insert_auxEN9__gnu_cxx17__normal_iteratorIPS2_S4_EERKS2_@Base 4:4.3.4
 _ZNSt6vectorIN5GpgME16DecryptionResult9RecipientESaIS2_EE7reserveEm@Base 4:4.3.4
 _ZNSt6vectorIN5GpgME16DecryptionResult9RecipientESaIS2_EED1Ev@Base 4:4.3.4
 _ZNSt6vectorIN5GpgME16DecryptionResult9RecipientESaIS2_EED2Ev@Base 4:4.6.1
 _ZNSt6vectorIN5GpgME16InvalidRecipientESaIS1_EE13_M_insert_auxEN9__gnu_cxx17__normal_iteratorIPS1_S3_EERKS1_@Base 4:4.3.4
 _ZNSt6vectorIN5GpgME16InvalidRecipientESaIS1_EED1Ev@Base 4:4.3.4
 _ZNSt6vectorIN5GpgME16InvalidRecipientESaIS1_EED2Ev@Base 4:4.6.1
 _ZNSt6vectorIN5GpgME17InvalidSigningKeyESaIS1_EE13_M_insert_auxEN9__gnu_cxx17__normal_iteratorIPS1_S3_EERKS1_@Base 4:4.3.4
 _ZNSt6vectorIN5GpgME17InvalidSigningKeyESaIS1_EED1Ev@Base 4:4.3.4
 _ZNSt6vectorIN5GpgME17InvalidSigningKeyESaIS1_EED2Ev@Base 4:4.6.1
 _ZNSt6vectorIN5GpgME18VerificationResult7Private4NotaESaIS3_EE13_M_insert_auxEN9__gnu_cxx17__normal_iteratorIPS3_S5_EERKS3_@Base 4:4.3.4
 _ZNSt6vectorIN5GpgME18VerificationResult7Private4NotaESaIS3_EED1Ev@Base 4:4.7.4
 _ZNSt6vectorIN5GpgME18VerificationResult7Private4NotaESaIS3_EED2Ev@Base 4:4.7.4
 _ZNSt6vectorIN5GpgME18VerificationResult7Private4NotaESaIS3_EEaSERKS5_@Base 4:4.3.4
 _ZNSt6vectorIN5GpgME3KeyESaIS1_EE13_M_insert_auxEN9__gnu_cxx17__normal_iteratorIPS1_S3_EERKS1_@Base 4:4.3.4
 _ZNSt6vectorIN5GpgME3KeyESaIS1_EED1Ev@Base 4:4.7.4
 _ZNSt6vectorIN5GpgME3KeyESaIS1_EED2Ev@Base 4:4.7.4
 _ZNSt6vectorIN5GpgME6ImportESaIS1_EE13_M_insert_auxEN9__gnu_cxx17__normal_iteratorIPS1_S3_EERKS1_@Base 4:4.3.4
 _ZNSt6vectorIN5GpgME6ImportESaIS1_EED1Ev@Base 4:4.6.1
 _ZNSt6vectorIN5GpgME6ImportESaIS1_EED2Ev@Base 4:4.6.1
 _ZNSt6vectorIN5GpgME6SubkeyESaIS1_EE13_M_insert_auxEN9__gnu_cxx17__normal_iteratorIPS1_S3_EERKS1_@Base 4:4.3.4
 _ZNSt6vectorIN5GpgME6SubkeyESaIS1_EED1Ev@Base 4:4.4.3
 _ZNSt6vectorIN5GpgME6SubkeyESaIS1_EED2Ev@Base 4:4.6.1
 _ZNSt6vectorIN5GpgME6UserID9SignatureESaIS2_EE13_M_insert_auxEN9__gnu_cxx17__normal_iteratorIPS2_S4_EERKS2_@Base 4:4.3.4
 _ZNSt6vectorIN5GpgME6UserID9SignatureESaIS2_EED1Ev@Base 4:4.4.3
 _ZNSt6vectorIN5GpgME6UserID9SignatureESaIS2_EED2Ev@Base 4:4.6.1
 _ZNSt6vectorIN5GpgME6UserIDESaIS1_EE13_M_insert_auxEN9__gnu_cxx17__normal_iteratorIPS1_S3_EERKS1_@Base 4:4.3.4
 _ZNSt6vectorIN5GpgME6UserIDESaIS1_EED1Ev@Base 4:4.4.3
 _ZNSt6vectorIN5GpgME6UserIDESaIS1_EED2Ev@Base 4:4.6.1
 _ZNSt6vectorIN5GpgME8NotationESaIS1_EE13_M_insert_auxEN9__gnu_cxx17__normal_iteratorIPS1_S3_EERKS1_@Base 4:4.3.4
 _ZNSt6vectorIN5GpgME8NotationESaIS1_EE7reserveEm@Base 4:4.3.4
 _ZNSt6vectorIN5GpgME8NotationESaIS1_EED1Ev@Base 4:4.3.4
 _ZNSt6vectorIN5GpgME8NotationESaIS1_EED2Ev@Base 4:4.6.1
 _ZNSt6vectorIN5GpgME9SignatureESaIS1_EE13_M_insert_auxEN9__gnu_cxx17__normal_iteratorIPS1_S3_EERKS1_@Base 4:4.3.4
 _ZNSt6vectorIN5GpgME9SignatureESaIS1_EED1Ev@Base 4:4.3.4
 _ZNSt6vectorIN5GpgME9SignatureESaIS1_EED2Ev@Base 4:4.6.1
 _ZNSt6vectorIPKcSaIS1_EE13_M_insert_auxEN9__gnu_cxx17__normal_iteratorIPS1_S3_EERKS1_@Base 4:4.4.0
 _ZNSt6vectorIPKcSaIS1_EED1Ev@Base 4:4.7.4
 _ZNSt6vectorIPKcSaIS1_EED2Ev@Base 4:4.7.4
 _ZNSt6vectorIPN5GpgME19EventLoopInteractor7Private5OneFDESaIS4_EE13_M_insert_auxEN9__gnu_cxx17__normal_iteratorIPS4_S6_EERKS4_@Base 4:4.3.4
 _ZNSt6vectorIS_IN5GpgME18VerificationResult7Private4NotaESaIS3_EESaIS5_EE13_M_insert_auxEN9__gnu_cxx17__normal_iteratorIPS5_S7_EERKS5_@Base 4:4.3.4
 _ZNSt6vectorISsSaISsEE13_M_insert_auxEN9__gnu_cxx17__normal_iteratorIPSsS1_EERKSs@Base 4:4.4.0
 _ZNSt6vectorISsSaISsEED1Ev@Base 4:4.4.0
 _ZNSt6vectorISsSaISsEED2Ev@Base 4:4.6.1
 _ZNSt6vectorISt4pairISsSsESaIS1_EE13_M_insert_auxEN9__gnu_cxx17__normal_iteratorIPS1_S3_EERKS1_@Base 4:4.4.0
 _ZNSt6vectorIiSaIiEE13_M_insert_auxEN9__gnu_cxx17__normal_iteratorIPiS1_EERKi@Base 4:4.5.86
 _ZNSt6vectorIiSaIiEED1Ev@Base 4:4.7.4
 _ZNSt6vectorIiSaIiEED2Ev@Base 4:4.7.4
 _ZNSt6vectorIjSaIjEE13_M_insert_auxEN9__gnu_cxx17__normal_iteratorIPjS1_EERKj@Base 4:4.5.86
 _ZNSt6vectorIjSaIjEED1Ev@Base 4:4.7.4
 _ZNSt6vectorIjSaIjEED2Ev@Base 4:4.7.4
 _ZNSt6vectorIjSaIjEEaSERKS1_@Base 4:4.3.4
 _ZSt13__adjust_heapIPclcEvT_T0_S2_T1_@Base 4:4.4.0
 _ZSt13binary_searchIPKccEbT_S2_RKT0_@Base 4:4.7.4
 _ZSt16__insertion_sortIPcEvT_S1_@Base 4:4.4.0
 _ZSt16__introsort_loopIPclEvT_S1_T0_@Base 4:4.4.0
 _ZTIN5GpgME14EditInteractorE@Base 4:4.3.4
 _ZTIN5GpgME17AssuanTransactionE@Base 4:4.4.0
 _ZTIN5GpgME19EventLoopInteractorE@Base 4:4.3.4
 _ZTIN5GpgME24DefaultAssuanTransactionE@Base 4:4.4.0
 _ZTIN5GpgME24GpgSignKeyEditInteractorE@Base 4:4.3.4
 _ZTIN5GpgME26GpgAddUserIDEditInteractorE@Base 4:4.3.4
 _ZTIN5GpgME27ScdGetInfoAssuanTransactionE@Base 4:4.4.0
 _ZTIN5GpgME30GpgSetExpiryTimeEditInteractorE@Base 4:4.3.4
 _ZTIN5GpgME30GpgSetOwnerTrustEditInteractorE@Base 4:4.3.4
 _ZTIN5GpgME32GpgAgentGetInfoAssuanTransactionE@Base 4:4.4.0
 _ZTIN5GpgME7ContextE@Base 4:4.3.4
 _ZTIN5GpgME9ExceptionE@Base 4:4.3.4
 _ZTIN5GpgME9TrustItemE@Base 4:4.3.4
 _ZTIN5boost16exception_detail10clone_baseE@Base 4:4.10.1
 _ZTIN5boost9exceptionE@Base 4:4.7.4
 _ZTSN5GpgME14EditInteractorE@Base 4:4.3.4
 _ZTSN5GpgME17AssuanTransactionE@Base 4:4.4.0
 _ZTSN5GpgME19EventLoopInteractorE@Base 4:4.3.4
 _ZTSN5GpgME24DefaultAssuanTransactionE@Base 4:4.4.0
 _ZTSN5GpgME24GpgSignKeyEditInteractorE@Base 4:4.3.4
 _ZTSN5GpgME26GpgAddUserIDEditInteractorE@Base 4:4.3.4
 _ZTSN5GpgME27ScdGetInfoAssuanTransactionE@Base 4:4.4.0
 _ZTSN5GpgME30GpgSetExpiryTimeEditInteractorE@Base 4:4.3.4
 _ZTSN5GpgME30GpgSetOwnerTrustEditInteractorE@Base 4:4.3.4
 _ZTSN5GpgME32GpgAgentGetInfoAssuanTransactionE@Base 4:4.4.0
 _ZTSN5GpgME7ContextE@Base 4:4.3.4
 _ZTSN5GpgME9ExceptionE@Base 4:4.3.4
 _ZTSN5GpgME9TrustItemE@Base 4:4.3.4
 _ZTSN5boost16exception_detail10clone_baseE@Base 4:4.10.1
 _ZTSN5boost9exceptionE@Base 4:4.7.4
 _ZTVN5GpgME14EditInteractorE@Base 4:4.3.4
 _ZTVN5GpgME17AssuanTransactionE@Base 4:4.4.0
 _ZTVN5GpgME19EventLoopInteractorE@Base 4:4.3.4
 _ZTVN5GpgME24DefaultAssuanTransactionE@Base 4:4.4.0
 _ZTVN5GpgME24GpgSignKeyEditInteractorE@Base 4:4.3.4
 _ZTVN5GpgME26GpgAddUserIDEditInteractorE@Base 4:4.3.4
 _ZTVN5GpgME27ScdGetInfoAssuanTransactionE@Base 4:4.4.0
 _ZTVN5GpgME30GpgSetExpiryTimeEditInteractorE@Base 4:4.3.4
 _ZTVN5GpgME30GpgSetOwnerTrustEditInteractorE@Base 4:4.3.4
 _ZTVN5GpgME32GpgAgentGetInfoAssuanTransactionE@Base 4:4.4.0
 _ZTVN5GpgME7ContextE@Base 4:4.3.4
 _ZTVN5GpgME9ExceptionE@Base 4:4.3.4
 _ZTVN5GpgME9TrustItemE@Base 4:4.3.4
 _ZTVN5boost16exception_detail10clone_baseE@Base 4:4.10.1
 _ZTVN5boost9exceptionE@Base 4:4.7.4
libgpgme++.so.2 libgpgme++2 #MINVER#
* Build-Depends-Package: kdepimlibs5-dev
 _ZN5GpgME10EngineInfoC1EP18_gpgme_engine_info@Base 4:4.3.4
 _ZN5GpgME10EngineInfoC1Ev@Base 4:4.3.4
 _ZN5GpgME10EngineInfoC2EP18_gpgme_engine_info@Base 4:4.3.4
 _ZN5GpgME10EngineInfoC2Ev@Base 4:4.3.4
 _ZN5GpgME10EngineInfoD1Ev@Base 4:4.8.3
 _ZN5GpgME10EngineInfoD2Ev@Base 4:4.8.3
 _ZN5GpgME10engineInfoENS_6EngineE@Base 4:4.3.4
 _ZN5GpgME10engineInfoENS_8ProtocolE@Base 4:4.3.4
 _ZN5GpgME10hasFeatureEm@Base 4:4.3.4
 _ZN5GpgME10hasFeatureEmm@Base 4:4.5.0
 _ZN5GpgME11checkEngineENS_6EngineE@Base 4:4.3.4
 _ZN5GpgME11checkEngineENS_8ProtocolE@Base 4:4.3.4
 _ZN5GpgME12AssuanResult4initEP13gpgme_context@Base 4:4.4.0
 _ZN5GpgME12AssuanResultC1EP13gpgme_contextRKNS_5ErrorE@Base 4:4.4.0
 _ZN5GpgME12AssuanResultC1EP13gpgme_contexti@Base 4:4.4.0
 _ZN5GpgME12AssuanResultC1ERKNS_5ErrorE@Base 4:4.4.0
 _ZN5GpgME12AssuanResultC1Ev@Base 4:4.4.0
 _ZN5GpgME12AssuanResultC2EP13gpgme_contextRKNS_5ErrorE@Base 4:4.4.0
 _ZN5GpgME12AssuanResultC2EP13gpgme_contexti@Base 4:4.4.0
 _ZN5GpgME12AssuanResultC2ERKNS_5ErrorE@Base 4:4.4.0
 _ZN5GpgME12AssuanResultC2Ev@Base 4:4.4.0
 _ZN5GpgME12ImportResult4initEP13gpgme_context@Base 4:4.3.4
 _ZN5GpgME12ImportResultC1EP13gpgme_contextRKNS_5ErrorE@Base 4:4.3.4
 _ZN5GpgME12ImportResultC1EP13gpgme_contexti@Base 4:4.3.4
 _ZN5GpgME12ImportResultC1ERKNS_5ErrorE@Base 4:4.3.4
 _ZN5GpgME12ImportResultC1Ev@Base 4:4.3.4
 _ZN5GpgME12ImportResultC2EP13gpgme_contextRKNS_5ErrorE@Base 4:4.3.4
 _ZN5GpgME12ImportResultC2EP13gpgme_contexti@Base 4:4.3.4
 _ZN5GpgME12ImportResultC2ERKNS_5ErrorE@Base 4:4.3.4
 _ZN5GpgME12ImportResultC2Ev@Base 4:4.3.4
 _ZN5GpgME12getQIODeviceEi@Base 4:4.3.4
 _ZN5GpgME13Configuration6Option11setNewValueERKNS0_8ArgumentE@Base 4:4.5.86
 _ZN5GpgME13Configuration6Option18resetToActiveValueEv@Base 4:4.5.86
 _ZN5GpgME13Configuration6Option19resetToDefaultValueEv@Base 4:4.5.86
 _ZN5GpgME13Configuration8ArgumentC1ERKN5boost10shared_ptrI15gpgme_conf_compEEP14gpgme_conf_optP14gpgme_conf_argb@Base 4:4.5.86
 _ZN5GpgME13Configuration8ArgumentC1ERKS1_@Base 4:4.5.86
 _ZN5GpgME13Configuration8ArgumentC2ERKN5boost10shared_ptrI15gpgme_conf_compEEP14gpgme_conf_optP14gpgme_conf_argb@Base 4:4.5.86
 _ZN5GpgME13Configuration8ArgumentC2ERKS1_@Base 4:4.5.86
 _ZN5GpgME13Configuration8ArgumentD1Ev@Base 4:4.5.86
 _ZN5GpgME13Configuration8ArgumentD2Ev@Base 4:4.5.86
 _ZN5GpgME13Configuration9Component4loadERNS_5ErrorE@Base 4:4.5.86
 _ZN5GpgME13ConfigurationlsERSoNS0_4FlagE@Base 4:4.5.86
 _ZN5GpgME13ConfigurationlsERSoNS0_4TypeE@Base 4:4.5.86
 _ZN5GpgME13ConfigurationlsERSoNS0_5LevelE@Base 4:4.5.86
 _ZN5GpgME13ConfigurationlsERSoRKNS0_6OptionE@Base 4:4.5.86
 _ZN5GpgME13ConfigurationlsERSoRKNS0_8ArgumentE@Base 4:4.5.86
 _ZN5GpgME13ConfigurationlsERSoRKNS0_9ComponentE@Base 4:4.5.86
 _ZN5GpgME13KeyListResult4initEP13gpgme_context@Base 4:4.3.4
 _ZN5GpgME13KeyListResult6detachEv@Base 4:4.3.4
 _ZN5GpgME13KeyListResult9mergeWithERKS0_@Base 4:4.3.4
 _ZN5GpgME13KeyListResultC1EP13gpgme_contextRKNS_5ErrorE@Base 4:4.3.4
 _ZN5GpgME13KeyListResultC1EP13gpgme_contexti@Base 4:4.3.4
 _ZN5GpgME13KeyListResultC1ERKNS_5ErrorE@Base 4:4.3.4
 _ZN5GpgME13KeyListResultC1ERKNS_5ErrorERK24_gpgme_op_keylist_result@Base 4:4.3.4
 _ZN5GpgME13KeyListResultC1Ev@Base 4:4.3.4
 _ZN5GpgME13KeyListResultC2EP13gpgme_contextRKNS_5ErrorE@Base 4:4.3.4
 _ZN5GpgME13KeyListResultC2EP13gpgme_contexti@Base 4:4.3.4
 _ZN5GpgME13KeyListResultC2ERKNS_5ErrorE@Base 4:4.3.4
 _ZN5GpgME13KeyListResultC2ERKNS_5ErrorERK24_gpgme_op_keylist_result@Base 4:4.3.4
 _ZN5GpgME13KeyListResultC2Ev@Base 4:4.3.4
 _ZN5GpgME13KeyListResultD1Ev@Base 4:4.6.5
 _ZN5GpgME13KeyListResultD2Ev@Base 4:4.6.5
 _ZN5GpgME13SigningResult4initEP13gpgme_context@Base 4:4.3.4
 _ZN5GpgME13SigningResultC1EP13gpgme_contextRKNS_5ErrorE@Base 4:4.3.4
 _ZN5GpgME13SigningResultC1EP13gpgme_contexti@Base 4:4.3.4
 _ZN5GpgME13SigningResultC1ERKNS_5ErrorE@Base 4:4.3.4
 _ZN5GpgME13SigningResultC1Ev@Base 4:4.3.4
 _ZN5GpgME13SigningResultC2EP13gpgme_contextRKNS_5ErrorE@Base 4:4.3.4
 _ZN5GpgME13SigningResultC2EP13gpgme_contexti@Base 4:4.3.4
 _ZN5GpgME13SigningResultC2ERKNS_5ErrorE@Base 4:4.3.4
 _ZN5GpgME13SigningResultC2Ev@Base 4:4.3.4
 _ZN5GpgME13SigningResultD1Ev@Base 4:4.6.5
 _ZN5GpgME13SigningResultD2Ev@Base 4:4.6.5
 _ZN5GpgME13getGIOChannelEi@Base 4:4.3.4
 _ZN5GpgME14EditInteractor15setDebugChannelEP8_IO_FILE@Base 4:4.3.4
 _ZN5GpgME14EditInteractor7PrivateC1EPS0_@Base 4:4.3.4
 _ZN5GpgME14EditInteractor7PrivateC2EPS0_@Base 4:4.3.4
 _ZN5GpgME14EditInteractor7PrivateD1Ev@Base 4:4.3.4
 _ZN5GpgME14EditInteractor7PrivateD2Ev@Base 4:4.3.4
 _ZN5GpgME14EditInteractorC1Ev@Base 4:4.3.4
 _ZN5GpgME14EditInteractorC2Ev@Base 4:4.3.4
 _ZN5GpgME14EditInteractorD0Ev@Base 4:4.3.4
 _ZN5GpgME14EditInteractorD1Ev@Base 4:4.3.4
 _ZN5GpgME14EditInteractorD2Ev@Base 4:4.3.4
 _ZN5GpgME14VfsMountResult4initEP13gpgme_context@Base 4:4.5.0
 _ZN5GpgME14VfsMountResultC1EP13gpgme_contextRKNS_5ErrorES5_@Base 4:4.5.0
 _ZN5GpgME14VfsMountResultC1ERKNS_5ErrorE@Base 4:4.5.0
 _ZN5GpgME14VfsMountResultC1Ev@Base 4:4.5.0
 _ZN5GpgME14VfsMountResultC2EP13gpgme_contextRKNS_5ErrorES5_@Base 4:4.5.0
 _ZN5GpgME14VfsMountResultC2ERKNS_5ErrorE@Base 4:4.5.0
 _ZN5GpgME14VfsMountResultC2Ev@Base 4:4.5.0
 _ZN5GpgME16CreatedSignatureC1ERKN5boost10shared_ptrINS_13SigningResult7PrivateEEEj@Base 4:4.3.4
 _ZN5GpgME16CreatedSignatureC1Ev@Base 4:4.3.4
 _ZN5GpgME16CreatedSignatureC2ERKN5boost10shared_ptrINS_13SigningResult7PrivateEEEj@Base 4:4.3.4
 _ZN5GpgME16CreatedSignatureC2Ev@Base 4:4.3.4
 _ZN5GpgME16DecryptionResult4initEP13gpgme_context@Base 4:4.3.4
 _ZN5GpgME16DecryptionResult9RecipientC1EP16_gpgme_recipient@Base 4:4.3.4
 _ZN5GpgME16DecryptionResult9RecipientC1Ev@Base 4:4.3.4
 _ZN5GpgME16DecryptionResult9RecipientC2EP16_gpgme_recipient@Base 4:4.3.4
 _ZN5GpgME16DecryptionResult9RecipientC2Ev@Base 4:4.3.4
 _ZN5GpgME16DecryptionResultC1EP13gpgme_contextRKNS_5ErrorE@Base 4:4.3.4
 _ZN5GpgME16DecryptionResultC1EP13gpgme_contexti@Base 4:4.3.4
 _ZN5GpgME16DecryptionResultC1ERKNS_5ErrorE@Base 4:4.3.4
 _ZN5GpgME16DecryptionResultC1Ev@Base 4:4.3.4
 _ZN5GpgME16DecryptionResultC2EP13gpgme_contextRKNS_5ErrorE@Base 4:4.3.4
 _ZN5GpgME16DecryptionResultC2EP13gpgme_contexti@Base 4:4.3.4
 _ZN5GpgME16DecryptionResultC2ERKNS_5ErrorE@Base 4:4.3.4
 _ZN5GpgME16DecryptionResultC2Ev@Base 4:4.3.4
 _ZN5GpgME16DecryptionResultD1Ev@Base 4:4.6.5
 _ZN5GpgME16DecryptionResultD2Ev@Base 4:4.6.5
 _ZN5GpgME16EncryptionResult4initEP13gpgme_context@Base 4:4.3.4
 _ZN5GpgME16EncryptionResultC1EP13gpgme_contextRKNS_5ErrorE@Base 4:4.3.4
 _ZN5GpgME16EncryptionResultC1EP13gpgme_contexti@Base 4:4.3.4
 _ZN5GpgME16EncryptionResultC1ERKNS_5ErrorE@Base 4:4.3.4
 _ZN5GpgME16EncryptionResultC1Ev@Base 4:4.3.4
 _ZN5GpgME16EncryptionResultC2EP13gpgme_contextRKNS_5ErrorE@Base 4:4.3.4
 _ZN5GpgME16EncryptionResultC2EP13gpgme_contexti@Base 4:4.3.4
 _ZN5GpgME16EncryptionResultC2ERKNS_5ErrorE@Base 4:4.3.4
 _ZN5GpgME16EncryptionResultC2Ev@Base 4:4.3.4
 _ZN5GpgME16EncryptionResultD1Ev@Base 4:4.6.5
 _ZN5GpgME16EncryptionResultD2Ev@Base 4:4.6.5
 _ZN5GpgME16InvalidRecipientC1ERKN5boost10shared_ptrINS_16EncryptionResult7PrivateEEEj@Base 4:4.3.4
 _ZN5GpgME16InvalidRecipientC1Ev@Base 4:4.3.4
 _ZN5GpgME16InvalidRecipientC2ERKN5boost10shared_ptrINS_16EncryptionResult7PrivateEEEj@Base 4:4.3.4
 _ZN5GpgME16InvalidRecipientC2Ev@Base 4:4.3.4
 _ZN5GpgME16setDefaultLocaleEiPKc@Base 4:4.3.4
 _ZN5GpgME17InvalidSigningKeyC1ERKN5boost10shared_ptrINS_13SigningResult7PrivateEEEj@Base 4:4.3.4
 _ZN5GpgME17InvalidSigningKeyC1Ev@Base 4:4.3.4
 _ZN5GpgME17InvalidSigningKeyC2ERKN5boost10shared_ptrINS_13SigningResult7PrivateEEEj@Base 4:4.3.4
 _ZN5GpgME17InvalidSigningKeyC2Ev@Base 4:4.3.4
 _ZN5GpgME17initializeLibraryEi@Base 4:4.4.0
 _ZN5GpgME17initializeLibraryEv@Base 4:4.3.4
 _ZN5GpgME18VerificationResult4initEP13gpgme_context@Base 4:4.3.4
 _ZN5GpgME18VerificationResultC1EP13gpgme_contextRKNS_5ErrorE@Base 4:4.3.4
 _ZN5GpgME18VerificationResultC1EP13gpgme_contexti@Base 4:4.3.4
 _ZN5GpgME18VerificationResultC1ERKNS_5ErrorE@Base 4:4.3.4
 _ZN5GpgME18VerificationResultC1Ev@Base 4:4.3.4
 _ZN5GpgME18VerificationResultC2EP13gpgme_contextRKNS_5ErrorE@Base 4:4.3.4
 _ZN5GpgME18VerificationResultC2EP13gpgme_contexti@Base 4:4.3.4
 _ZN5GpgME18VerificationResultC2ERKNS_5ErrorE@Base 4:4.3.4
 _ZN5GpgME18VerificationResultC2Ev@Base 4:4.3.4
 _ZN5GpgME18VerificationResultD1Ev@Base 4:4.6.5
 _ZN5GpgME18VerificationResultD2Ev@Base 4:4.6.5
 _ZN5GpgME19EventLoopInteractor5actOnEiNS0_9DirectionE@Base 4:4.3.4
 _ZN5GpgME19EventLoopInteractor5mSelfE@Base 4:4.3.4
 _ZN5GpgME19EventLoopInteractor6manageEPNS_7ContextE@Base 4:4.3.4
 _ZN5GpgME19EventLoopInteractor7Private10removeIOCbEPv@Base 4:4.3.4
 _ZN5GpgME19EventLoopInteractor7Private12registerIOCbEPviiPFjS2_iES2_PS2_@Base 4:4.3.4
 _ZN5GpgME19EventLoopInteractor7Private5iocbsE@Base 4:4.3.4
 _ZN5GpgME19EventLoopInteractor7Private9eventIOCbEPv16gpgme_event_io_tS2_@Base 4:4.3.4
 _ZN5GpgME19EventLoopInteractor8unmanageEPNS_7ContextE@Base 4:4.3.4
 _ZN5GpgME19EventLoopInteractorC1Ev@Base 4:4.3.4
 _ZN5GpgME19EventLoopInteractorC2Ev@Base 4:4.3.4
 _ZN5GpgME19EventLoopInteractorD0Ev@Base 4:4.3.4
 _ZN5GpgME19EventLoopInteractorD1Ev@Base 4:4.3.4
 _ZN5GpgME19EventLoopInteractorD2Ev@Base 4:4.3.4
 _ZN5GpgME19KeyGenerationResult4initEP13gpgme_context@Base 4:4.3.4
 _ZN5GpgME19KeyGenerationResultC1EP13gpgme_contextRKNS_5ErrorE@Base 4:4.3.4
 _ZN5GpgME19KeyGenerationResultC1EP13gpgme_contexti@Base 4:4.3.4
 _ZN5GpgME19KeyGenerationResultC1ERKNS_5ErrorE@Base 4:4.3.4
 _ZN5GpgME19KeyGenerationResultC1Ev@Base 4:4.3.4
 _ZN5GpgME19KeyGenerationResultC2EP13gpgme_contextRKNS_5ErrorE@Base 4:4.3.4
 _ZN5GpgME19KeyGenerationResultC2EP13gpgme_contexti@Base 4:4.3.4
 _ZN5GpgME19KeyGenerationResultC2ERKNS_5ErrorE@Base 4:4.3.4
 _ZN5GpgME19KeyGenerationResultC2Ev@Base 4:4.3.4
 _ZN5GpgME24DefaultAssuanTransaction4dataEPKcm@Base 4:4.4.0
 _ZN5GpgME24DefaultAssuanTransaction6statusEPKcS2_@Base 4:4.4.0
 _ZN5GpgME24DefaultAssuanTransaction7inquireEPKcS2_RNS_5ErrorE@Base 4:4.4.0
 _ZN5GpgME24DefaultAssuanTransactionC1Ev@Base 4:4.4.0
 _ZN5GpgME24DefaultAssuanTransactionC2Ev@Base 4:4.4.0
 _ZN5GpgME24DefaultAssuanTransactionD0Ev@Base 4:4.4.0
 _ZN5GpgME24DefaultAssuanTransactionD1Ev@Base 4:4.4.0
 _ZN5GpgME24DefaultAssuanTransactionD2Ev@Base 4:4.4.0
 _ZN5GpgME24GpgSignKeyEditInteractor13setCheckLevelEj@Base 4:4.3.4
 _ZN5GpgME24GpgSignKeyEditInteractor16setUserIDsToSignERKSt6vectorIjSaIjEE@Base 4:4.3.4
 _ZN5GpgME24GpgSignKeyEditInteractor17setSigningOptionsEi@Base 4:4.3.4
 _ZN5GpgME24GpgSignKeyEditInteractor7PrivateC1Ev@Base 4:4.3.4
 _ZN5GpgME24GpgSignKeyEditInteractor7PrivateC2Ev@Base 4:4.3.4
 _ZN5GpgME24GpgSignKeyEditInteractorC1Ev@Base 4:4.3.4
 _ZN5GpgME24GpgSignKeyEditInteractorC2Ev@Base 4:4.3.4
 _ZN5GpgME24GpgSignKeyEditInteractorD0Ev@Base 4:4.3.4
 _ZN5GpgME24GpgSignKeyEditInteractorD1Ev@Base 4:4.3.4
 _ZN5GpgME24GpgSignKeyEditInteractorD2Ev@Base 4:4.3.4
 _ZN5GpgME26GpgAddUserIDEditInteractor11setNameUtf8ERKSs@Base 4:4.3.4
 _ZN5GpgME26GpgAddUserIDEditInteractor12setEmailUtf8ERKSs@Base 4:4.3.4
 _ZN5GpgME26GpgAddUserIDEditInteractor14setCommentUtf8ERKSs@Base 4:4.3.4
 _ZN5GpgME26GpgAddUserIDEditInteractorC1Ev@Base 4:4.3.4
 _ZN5GpgME26GpgAddUserIDEditInteractorC2Ev@Base 4:4.3.4
 _ZN5GpgME26GpgAddUserIDEditInteractorD0Ev@Base 4:4.3.4
 _ZN5GpgME26GpgAddUserIDEditInteractorD1Ev@Base 4:4.3.4
 _ZN5GpgME26GpgAddUserIDEditInteractorD2Ev@Base 4:4.3.4
 _ZN5GpgME27ScdGetInfoAssuanTransaction4dataEPKcm@Base 4:4.4.0
 _ZN5GpgME27ScdGetInfoAssuanTransaction6statusEPKcS2_@Base 4:4.4.0
 _ZN5GpgME27ScdGetInfoAssuanTransaction7inquireEPKcS2_RNS_5ErrorE@Base 4:4.4.0
 _ZN5GpgME27ScdGetInfoAssuanTransactionC1ENS0_8InfoItemE@Base 4:4.4.0
 _ZN5GpgME27ScdGetInfoAssuanTransactionC2ENS0_8InfoItemE@Base 4:4.4.0
 _ZN5GpgME27ScdGetInfoAssuanTransactionD0Ev@Base 4:4.4.0
 _ZN5GpgME27ScdGetInfoAssuanTransactionD1Ev@Base 4:4.4.0
 _ZN5GpgME27ScdGetInfoAssuanTransactionD2Ev@Base 4:4.4.0
 _ZN5GpgME30GpgSetExpiryTimeEditInteractorC1ERKSs@Base 4:4.3.4
 _ZN5GpgME30GpgSetExpiryTimeEditInteractorC2ERKSs@Base 4:4.3.4
 _ZN5GpgME30GpgSetExpiryTimeEditInteractorD0Ev@Base 4:4.3.4
 _ZN5GpgME30GpgSetExpiryTimeEditInteractorD1Ev@Base 4:4.3.4
 _ZN5GpgME30GpgSetExpiryTimeEditInteractorD2Ev@Base 4:4.3.4
 _ZN5GpgME30GpgSetOwnerTrustEditInteractorC1ENS_3Key10OwnerTrustE@Base 4:4.3.4
 _ZN5GpgME30GpgSetOwnerTrustEditInteractorC2ENS_3Key10OwnerTrustE@Base 4:4.3.4
 _ZN5GpgME30GpgSetOwnerTrustEditInteractorD0Ev@Base 4:4.3.4
 _ZN5GpgME30GpgSetOwnerTrustEditInteractorD1Ev@Base 4:4.3.4
 _ZN5GpgME30GpgSetOwnerTrustEditInteractorD2Ev@Base 4:4.3.4
 _ZN5GpgME32GpgAgentGetInfoAssuanTransaction4dataEPKcm@Base 4:4.4.0
 _ZN5GpgME32GpgAgentGetInfoAssuanTransaction6statusEPKcS2_@Base 4:4.4.0
 _ZN5GpgME32GpgAgentGetInfoAssuanTransaction7inquireEPKcS2_RNS_5ErrorE@Base 4:4.4.0
 _ZN5GpgME32GpgAgentGetInfoAssuanTransactionC1ENS0_8InfoItemE@Base 4:4.4.0
 _ZN5GpgME32GpgAgentGetInfoAssuanTransactionC2ENS0_8InfoItemE@Base 4:4.4.0
 _ZN5GpgME32GpgAgentGetInfoAssuanTransactionD0Ev@Base 4:4.4.0
 _ZN5GpgME32GpgAgentGetInfoAssuanTransactionD1Ev@Base 4:4.4.0
 _ZN5GpgME32GpgAgentGetInfoAssuanTransactionD2Ev@Base 4:4.4.0
 _ZN5GpgME3Key4nullE@Base 4:4.3.4
 _ZN5GpgME3Key9mergeWithERKS0_@Base 4:4.3.4
 _ZN5GpgME3KeyC1EP10_gpgme_keyb@Base 4:4.3.4
 _ZN5GpgME3KeyC1ERKN5boost10shared_ptrI10_gpgme_keyEE@Base 4:4.3.4
 _ZN5GpgME3KeyC1ERKNS0_4NullE@Base 4:4.3.4
 _ZN5GpgME3KeyC1Ev@Base 4:4.3.4
 _ZN5GpgME3KeyC2EP10_gpgme_keyb@Base 4:4.3.4
 _ZN5GpgME3KeyC2ERKN5boost10shared_ptrI10_gpgme_keyEE@Base 4:4.3.4
 _ZN5GpgME3KeyC2ERKNS0_4NullE@Base 4:4.3.4
 _ZN5GpgME3KeyC2Ev@Base 4:4.3.4
 _ZN5GpgME3KeyD1Ev@Base 4:4.8.3
 _ZN5GpgME3KeyD2Ev@Base 4:4.8.3
 _ZN5GpgME4Data11setEncodingENS0_8EncodingE@Base 4:4.3.4
 _ZN5GpgME4Data11setFileNameEPKc@Base 4:4.3.4
 _ZN5GpgME4Data4nullE@Base 4:4.3.4
 _ZN5GpgME4Data4readEPvm@Base 4:4.3.4
 _ZN5GpgME4Data4seekEli@Base 4:4.3.4
 _ZN5GpgME4Data5writeEPKvm@Base 4:4.3.4
 _ZN5GpgME4Data7PrivateD1Ev@Base 4:4.3.4
 _ZN5GpgME4Data7PrivateD2Ev@Base 4:4.3.4
 _ZN5GpgME4DataC1EP10gpgme_data@Base 4:4.3.4
 _ZN5GpgME4DataC1EP8_IO_FILE@Base 4:4.3.4
 _ZN5GpgME4DataC1EP8_IO_FILElm@Base 4:4.3.4
 _ZN5GpgME4DataC1EPKc@Base 4:4.3.4
 _ZN5GpgME4DataC1EPKclm@Base 4:4.3.4
 _ZN5GpgME4DataC1EPKcmb@Base 4:4.3.4
 _ZN5GpgME4DataC1EPNS_12DataProviderE@Base 4:4.3.4
 _ZN5GpgME4DataC1ERKNS0_4NullE@Base 4:4.3.4
 _ZN5GpgME4DataC1Ei@Base 4:4.3.4
 _ZN5GpgME4DataC1Ev@Base 4:4.3.4
 _ZN5GpgME4DataC2EP10gpgme_data@Base 4:4.3.4
 _ZN5GpgME4DataC2EP8_IO_FILE@Base 4:4.3.4
 _ZN5GpgME4DataC2EP8_IO_FILElm@Base 4:4.3.4
 _ZN5GpgME4DataC2EPKc@Base 4:4.3.4
 _ZN5GpgME4DataC2EPKclm@Base 4:4.3.4
 _ZN5GpgME4DataC2EPKcmb@Base 4:4.3.4
 _ZN5GpgME4DataC2EPNS_12DataProviderE@Base 4:4.3.4
 _ZN5GpgME4DataC2ERKNS0_4NullE@Base 4:4.3.4
 _ZN5GpgME4DataC2Ei@Base 4:4.3.4
 _ZN5GpgME4DataC2Ev@Base 4:4.3.4
 _ZN5GpgME4DataD1Ev@Base 4:4.8.3
 _ZN5GpgME4DataD2Ev@Base 4:4.8.3
 _ZN5GpgME5Error14hasSystemErrorEv@Base 4:4.5.86
 _ZN5GpgME5Error14setSystemErrorE14gpg_err_code_t@Base 4:4.5.86
 _ZN5GpgME5Error15fromSystemErrorEj@Base 4:4.5.86
 _ZN5GpgME5Error8fromCodeEjj@Base 4:4.5.86
 _ZN5GpgME5Error8setErrnoEi@Base 4:4.5.86
 _ZN5GpgME5Error9fromErrnoEij@Base 4:4.5.86
 _ZN5GpgME5ErrorD1Ev@Base 4:4.6.5
 _ZN5GpgME5ErrorD2Ev@Base 4:4.6.5
 _ZN5GpgME6ImportC1ERKN5boost10shared_ptrINS_12ImportResult7PrivateEEEj@Base 4:4.3.4
 _ZN5GpgME6ImportC1Ev@Base 4:4.3.4
 _ZN5GpgME6ImportC2ERKN5boost10shared_ptrINS_12ImportResult7PrivateEEEj@Base 4:4.3.4
 _ZN5GpgME6ImportC2Ev@Base 4:4.3.4
 _ZN5GpgME6ResultD1Ev@Base 4:4.8.3
 _ZN5GpgME6ResultD2Ev@Base 4:4.8.3
 _ZN5GpgME6SubkeyC1ERKN5boost10shared_ptrI10_gpgme_keyEEP13_gpgme_subkey@Base 4:4.3.4
 _ZN5GpgME6SubkeyC1ERKN5boost10shared_ptrI10_gpgme_keyEEj@Base 4:4.3.4
 _ZN5GpgME6SubkeyC1Ev@Base 4:4.3.4
 _ZN5GpgME6SubkeyC2ERKN5boost10shared_ptrI10_gpgme_keyEEP13_gpgme_subkey@Base 4:4.3.4
 _ZN5GpgME6SubkeyC2ERKN5boost10shared_ptrI10_gpgme_keyEEj@Base 4:4.3.4
 _ZN5GpgME6SubkeyC2Ev@Base 4:4.3.4
 _ZN5GpgME6UserID9SignatureC1ERKN5boost10shared_ptrI10_gpgme_keyEEP14_gpgme_user_idP14_gpgme_key_sig@Base 4:4.3.4
 _ZN5GpgME6UserID9SignatureC1ERKN5boost10shared_ptrI10_gpgme_keyEEP14_gpgme_user_idj@Base 4:4.3.4
 _ZN5GpgME6UserID9SignatureC1Ev@Base 4:4.3.4
 _ZN5GpgME6UserID9SignatureC2ERKN5boost10shared_ptrI10_gpgme_keyEEP14_gpgme_user_idP14_gpgme_key_sig@Base 4:4.3.4
 _ZN5GpgME6UserID9SignatureC2ERKN5boost10shared_ptrI10_gpgme_keyEEP14_gpgme_user_idj@Base 4:4.3.4
 _ZN5GpgME6UserID9SignatureC2Ev@Base 4:4.3.4
 _ZN5GpgME6UserIDC1ERKN5boost10shared_ptrI10_gpgme_keyEEP14_gpgme_user_id@Base 4:4.3.4
 _ZN5GpgME6UserIDC1ERKN5boost10shared_ptrI10_gpgme_keyEEj@Base 4:4.3.4
 _ZN5GpgME6UserIDC1Ev@Base 4:4.3.4
 _ZN5GpgME6UserIDC2ERKN5boost10shared_ptrI10_gpgme_keyEEP14_gpgme_user_id@Base 4:4.3.4
 _ZN5GpgME6UserIDC2ERKN5boost10shared_ptrI10_gpgme_keyEEj@Base 4:4.3.4
 _ZN5GpgME6UserIDC2Ev@Base 4:4.3.4
 _ZN5GpgME7Context10importKeysERKNS_4DataE@Base 4:4.3.4
 _ZN5GpgME7Context10importKeysERKSt6vectorINS_3KeyESaIS2_EE@Base 4:4.4.0
 _ZN5GpgME7Context11generateKeyEPKcRNS_4DataE@Base 4:4.3.4
 _ZN5GpgME7Context11getAuditLogERNS_4DataEj@Base 4:4.3.4
 _ZN5GpgME7Context11setTextModeEb@Base 4:4.3.4
 _ZN5GpgME7Context11startPasswdERKNS_3KeyE@Base 4:4.5.0
 _ZN5GpgME7Context12startEditingERKNS_3KeyESt8auto_ptrINS_14EditInteractorEERNS_4DataE@Base 4:4.3.4
 _ZN5GpgME7Context12startSigningERKNS_4DataERS1_NS_13SignatureModeE@Base 4:4.3.4
 _ZN5GpgME7Context13addSigningKeyERKNS_3KeyE@Base 4:4.3.4
 _ZN5GpgME7Context13endKeyListingEv@Base 4:4.3.4
 _ZN5GpgME7Context13nextTrustItemERNS_5ErrorE@Base 4:4.3.4
 _ZN5GpgME7Context14addKeyListModeEj@Base 4:4.3.4
 _ZN5GpgME7Context14assuanTransactEPKc@Base 4:4.4.0
 _ZN5GpgME7Context14assuanTransactEPKcSt8auto_ptrINS_17AssuanTransactionEE@Base 4:4.4.0
 _ZN5GpgME7Context14setKeyListModeEj@Base 4:4.3.4
 _ZN5GpgME7Context14signAndEncryptERKSt6vectorINS_3KeyESaIS2_EERKNS_4DataERS7_NS0_15EncryptionFlagsE@Base 4:4.3.4
 _ZN5GpgME7Context14startKeyImportERKNS_4DataE@Base 4:4.3.4
 _ZN5GpgME7Context14startKeyImportERKSt6vectorINS_3KeyESaIS2_EE@Base 4:4.4.0
 _ZN5GpgME7Context15createForEngineENS_6EngineEPNS_5ErrorE@Base 4:4.4.0
 _ZN5GpgME7Context15startDecryptionERKNS_4DataERS1_@Base 4:4.3.4
 _ZN5GpgME7Context15startEncryptionERKSt6vectorINS_3KeyESaIS2_EERKNS_4DataERS7_NS0_15EncryptionFlagsE@Base 4:4.3.4
 _ZN5GpgME7Context15startKeyListingEPKcb@Base 4:4.3.4
 _ZN5GpgME7Context15startKeyListingEPPKcb@Base 4:4.3.4
 _ZN5GpgME7Context16clearSigningKeysEv@Base 4:4.3.4
 _ZN5GpgME7Context16decryptAndVerifyERKNS_4DataERS1_@Base 4:4.3.4
 _ZN5GpgME7Context16exportPublicKeysEPKcRNS_4DataE@Base 4:4.3.4
 _ZN5GpgME7Context16exportPublicKeysEPPKcRNS_4DataE@Base 4:4.3.4
 _ZN5GpgME7Context16startCardEditingERKNS_3KeyESt8auto_ptrINS_14EditInteractorEERNS_4DataE@Base 4:4.3.4
 _ZN5GpgME7Context16startGetAuditLogERNS_4DataEj@Base 4:4.3.4
 _ZN5GpgME7Context16startKeyDeletionERKNS_3KeyEb@Base 4:4.3.4
 _ZN5GpgME7Context17createForProtocolENS_8ProtocolE@Base 4:4.3.4
 _ZN5GpgME7Context17setEngineFileNameEPKc@Base 4:4.3.4
 _ZN5GpgME7Context18installIOCallbacksEP12gpgme_io_cbs@Base 4:4.3.4
 _ZN5GpgME7Context18startKeyGenerationEPKcRNS_4DataE@Base 4:4.3.4
 _ZN5GpgME7Context19endTrustItemListingEv@Base 4:4.3.4
 _ZN5GpgME7Context19setProgressProviderEPNS_16ProgressProviderE@Base 4:4.3.4
 _ZN5GpgME7Context20addSignatureNotationEPKcS2_j@Base 4:4.3.4
 _ZN5GpgME7Context20encryptSymmetricallyERKNS_4DataERS1_@Base 4:4.3.4
 _ZN5GpgME7Context20startPublicKeyExportEPKcRNS_4DataE@Base 4:4.3.4
 _ZN5GpgME7Context20startPublicKeyExportEPPKcRNS_4DataE@Base 4:4.3.4
 _ZN5GpgME7Context20uninstallIOCallbacksEv@Base 4:4.3.4
 _ZN5GpgME7Context21addSignaturePolicyURLEPKcb@Base 4:4.3.4
 _ZN5GpgME7Context21setPassphraseProviderEPNS_18PassphraseProviderE@Base 4:4.3.4
 _ZN5GpgME7Context21startTrustItemListingEPKci@Base 4:4.3.4
 _ZN5GpgME7Context21verifyOpaqueSignatureERKNS_4DataERS1_@Base 4:4.3.4
 _ZN5GpgME7Context22cancelPendingOperationEv@Base 4:4.3.4
 _ZN5GpgME7Context22setEngineHomeDirectoryEPKc@Base 4:4.3.4
 _ZN5GpgME7Context22setIncludeCertificatesEi@Base 4:4.3.4
 _ZN5GpgME7Context22startAssuanTransactionEPKc@Base 4:4.4.0
 _ZN5GpgME7Context22startAssuanTransactionEPKcSt8auto_ptrINS_17AssuanTransactionEE@Base 4:4.4.0
 _ZN5GpgME7Context22takeLastEditInteractorEv@Base 4:4.4.0
 _ZN5GpgME7Context23clearSignatureNotationsEv@Base 4:4.3.4
 _ZN5GpgME7Context23verifyDetachedSignatureERKNS_4DataES3_@Base 4:4.3.4
 _ZN5GpgME7Context25takeLastAssuanTransactionEv@Base 4:4.4.0
 _ZN5GpgME7Context26takeLastCardEditInteractorEv@Base 4:4.4.0
 _ZN5GpgME7Context31setManagedByEventLoopInteractorEb@Base 4:4.3.4
 _ZN5GpgME7Context32startOpaqueSignatureVerificationERKNS_4DataERS1_@Base 4:4.3.4
 _ZN5GpgME7Context33startCombinedSigningAndEncryptionERKSt6vectorINS_3KeyESaIS2_EERKNS_4DataERS7_NS0_15EncryptionFlagsE@Base 4:4.3.4
 _ZN5GpgME7Context34startDetachedSignatureVerificationERKNS_4DataES3_@Base 4:4.3.4
 _ZN5GpgME7Context38startCombinedDecryptionAndVerificationERKNS_4DataERS1_@Base 4:4.3.4
 _ZN5GpgME7Context3keyEPKcRNS_5ErrorEb@Base 4:4.3.4
 _ZN5GpgME7Context4editERKNS_3KeyESt8auto_ptrINS_14EditInteractorEERNS_4DataE@Base 4:4.3.4
 _ZN5GpgME7Context4pollEv@Base 4:4.3.4
 _ZN5GpgME7Context4signERKNS_4DataERS1_NS_13SignatureModeE@Base 4:4.3.4
 _ZN5GpgME7Context4waitEv@Base 4:4.3.4
 _ZN5GpgME7Context6passwdERKNS_3KeyE@Base 4:4.5.0
 _ZN5GpgME7Context7PrivateC1EP13gpgme_context@Base 4:4.3.4
 _ZN5GpgME7Context7PrivateC2EP13gpgme_context@Base 4:4.3.4
 _ZN5GpgME7Context7PrivateD1Ev@Base 4:4.3.4
 _ZN5GpgME7Context7PrivateD2Ev@Base 4:4.3.4
 _ZN5GpgME7Context7decryptERKNS_4DataERS1_@Base 4:4.3.4
 _ZN5GpgME7Context7encryptERKSt6vectorINS_3KeyESaIS2_EERKNS_4DataERS7_NS0_15EncryptionFlagsE@Base 4:4.3.4
 _ZN5GpgME7Context7nextKeyERNS_5ErrorE@Base 4:4.3.4
 _ZN5GpgME7Context8cardEditERKNS_3KeyESt8auto_ptrINS_14EditInteractorEERNS_4DataE@Base 4:4.3.4
 _ZN5GpgME7Context8mountVFSEPKcS2_@Base 4:4.5.0
 _ZN5GpgME7Context8setArmorEb@Base 4:4.3.4
 _ZN5GpgME7Context9createVFSEPKcRKSt6vectorINS_3KeyESaIS4_EE@Base 4:4.5.0
 _ZN5GpgME7Context9deleteKeyERKNS_3KeyEb@Base 4:4.3.4
 _ZN5GpgME7Context9setLocaleEiPKc@Base 4:4.3.4
 _ZN5GpgME7ContextC1EP13gpgme_context@Base 4:4.3.4
 _ZN5GpgME7ContextC2EP13gpgme_context@Base 4:4.3.4
 _ZN5GpgME7ContextD0Ev@Base 4:4.3.4
 _ZN5GpgME7ContextD1Ev@Base 4:4.3.4
 _ZN5GpgME7ContextD2Ev@Base 4:4.3.4
 _ZN5GpgME8NotationC1EP19_gpgme_sig_notation@Base 4:4.3.4
 _ZN5GpgME8NotationC1ERKN5boost10shared_ptrINS_18VerificationResult7PrivateEEEjj@Base 4:4.3.4
 _ZN5GpgME8NotationC1Ev@Base 4:4.3.4
 _ZN5GpgME8NotationC2EP19_gpgme_sig_notation@Base 4:4.3.4
 _ZN5GpgME8NotationC2ERKN5boost10shared_ptrINS_18VerificationResult7PrivateEEEjj@Base 4:4.3.4
 _ZN5GpgME8NotationC2Ev@Base 4:4.3.4
 _ZN5GpgME9Exception12make_messageERKNS_5ErrorERKSs@Base 4:4.3.4
 _ZN5GpgME9Exception12make_messageERKNS_5ErrorERKSsNS0_7OptionsE@Base 4:4.5.0
 _ZN5GpgME9ExceptionD0Ev@Base 4:4.3.4
 _ZN5GpgME9ExceptionD1Ev@Base 4:4.3.4
 _ZN5GpgME9ExceptionD2Ev@Base 4:4.3.4
 _ZN5GpgME9SignatureC1ERKN5boost10shared_ptrINS_18VerificationResult7PrivateEEEj@Base 4:4.3.4
 _ZN5GpgME9SignatureC1Ev@Base 4:4.3.4
 _ZN5GpgME9SignatureC2ERKN5boost10shared_ptrINS_18VerificationResult7PrivateEEEj@Base 4:4.3.4
 _ZN5GpgME9SignatureC2Ev@Base 4:4.3.4
 _ZN5GpgME9TrustItemC1EP17_gpgme_trust_item@Base 4:4.3.4
 _ZN5GpgME9TrustItemC1ERKS0_@Base 4:4.3.4
 _ZN5GpgME9TrustItemC2EP17_gpgme_trust_item@Base 4:4.3.4
 _ZN5GpgME9TrustItemC2ERKS0_@Base 4:4.3.4
 _ZN5GpgME9TrustItemD0Ev@Base 4:4.3.4
 _ZN5GpgME9TrustItemD1Ev@Base 4:4.3.4
 _ZN5GpgME9TrustItemD2Ev@Base 4:4.3.4
 _ZN5GpgMElsERSoNS_11KeyListModeE@Base 4:4.3.4
 _ZN5GpgMElsERSoNS_13SignatureModeE@Base 4:4.3.4
 _ZN5GpgMElsERSoNS_6EngineE@Base 4:4.3.4
 _ZN5GpgMElsERSoNS_7Context13AuditLogFlagsE@Base 4:4.3.4
 _ZN5GpgMElsERSoNS_7Context15EncryptionFlagsE@Base 4:4.3.4
 _ZN5GpgMElsERSoNS_7Context20CertificateInclusionE@Base 4:4.3.4
 _ZN5GpgMElsERSoNS_8Notation5FlagsE@Base 4:4.3.4
 _ZN5GpgMElsERSoNS_8ProtocolE@Base 4:4.3.4
 _ZN5GpgMElsERSoNS_9Signature7SummaryE@Base 4:4.3.4
 _ZN5GpgMElsERSoNS_9Signature9PKAStatusE@Base 4:4.3.4
 _ZN5GpgMElsERSoRKNS_12AssuanResultE@Base 4:4.4.0
 _ZN5GpgMElsERSoRKNS_13SigningResultE@Base 4:4.3.4
 _ZN5GpgMElsERSoRKNS_14VfsMountResultE@Base 4:4.5.0
 _ZN5GpgMElsERSoRKNS_16CreatedSignatureE@Base 4:4.3.4
 _ZN5GpgMElsERSoRKNS_16DecryptionResult9RecipientE@Base 4:4.3.4
 _ZN5GpgMElsERSoRKNS_16DecryptionResultE@Base 4:4.3.4
 _ZN5GpgMElsERSoRKNS_16EncryptionResultE@Base 4:4.3.4
 _ZN5GpgMElsERSoRKNS_16InvalidRecipientE@Base 4:4.3.4
 _ZN5GpgMElsERSoRKNS_17InvalidSigningKeyE@Base 4:4.3.4
 _ZN5GpgMElsERSoRKNS_18VerificationResultE@Base 4:4.3.4
 _ZN5GpgMElsERSoRKNS_5ErrorE@Base 4:4.3.4
 _ZN5GpgMElsERSoRKNS_8NotationE@Base 4:4.3.4
 _ZN5GpgMElsERSoRKNS_9SignatureE@Base 4:4.3.4
 _ZNK5GpgME10EngineInfo13homeDirectoryEv@Base 4:4.3.4
 _ZNK5GpgME10EngineInfo15requiredVersionEv@Base 4:4.3.4
 _ZNK5GpgME10EngineInfo6isNullEv@Base 4:4.3.4
 _ZNK5GpgME10EngineInfo7versionEv@Base 4:4.3.4
 _ZNK5GpgME10EngineInfo8fileNameEv@Base 4:4.3.4
 _ZNK5GpgME10EngineInfo8protocolEv@Base 4:4.3.4
 _ZNK5GpgME12AssuanResult11assuanErrorEv@Base 4:4.4.0
 _ZNK5GpgME12AssuanResult6isNullEv@Base 4:4.4.0
 _ZNK5GpgME12ImportResult10newSubkeysEv@Base 4:4.3.4
 _ZNK5GpgME12ImportResult10newUserIDsEv@Base 4:4.3.4
 _ZNK5GpgME12ImportResult11notImportedEv@Base 4:4.3.4
 _ZNK5GpgME12ImportResult11numImportedEv@Base 4:4.3.4
 _ZNK5GpgME12ImportResult12numUnchangedEv@Base 4:4.3.4
 _ZNK5GpgME12ImportResult13newSignaturesEv@Base 4:4.3.4
 _ZNK5GpgME12ImportResult13numConsideredEv@Base 4:4.3.4
 _ZNK5GpgME12ImportResult14newRevocationsEv@Base 4:4.3.4
 _ZNK5GpgME12ImportResult14numRSAImportedEv@Base 4:4.3.4
 _ZNK5GpgME12ImportResult20numKeysWithoutUserIDEv@Base 4:4.3.4
 _ZNK5GpgME12ImportResult21numSecretKeysImportedEv@Base 4:4.3.4
 _ZNK5GpgME12ImportResult22numSecretKeysUnchangedEv@Base 4:4.3.4
 _ZNK5GpgME12ImportResult23numSecretKeysConsideredEv@Base 4:4.3.4
 _ZNK5GpgME12ImportResult6importEj@Base 4:4.3.4
 _ZNK5GpgME12ImportResult6isNullEv@Base 4:4.3.4
 _ZNK5GpgME12ImportResult7importsEv@Base 4:4.3.4
 _ZNK5GpgME13Configuration6Option11activeValueEv@Base 4:4.5.86
 _ZNK5GpgME13Configuration6Option11descriptionEv@Base 4:4.5.86
 _ZNK5GpgME13Configuration6Option12argumentNameEv@Base 4:4.5.86
 _ZNK5GpgME13Configuration6Option12currentValueEv@Base 4:4.5.86
 _ZNK5GpgME13Configuration6Option12defaultValueEv@Base 4:4.5.86
 _ZNK5GpgME13Configuration6Option13alternateTypeEv@Base 4:4.5.86
 _ZNK5GpgME13Configuration6Option15noArgumentValueEv@Base 4:4.5.86
 _ZNK5GpgME13Configuration6Option17createIntArgumentEi@Base 4:4.5.86
 _ZNK5GpgME13Configuration6Option18createNoneArgumentEb@Base 4:4.5.86
 _ZNK5GpgME13Configuration6Option18createUIntArgumentEj@Base 4:4.5.86
 _ZNK5GpgME13Configuration6Option18defaultDescriptionEv@Base 4:4.5.86
 _ZNK5GpgME13Configuration6Option20createStringArgumentEPKc@Base 4:4.5.86
 _ZNK5GpgME13Configuration6Option20createStringArgumentERKSs@Base 4:4.5.86
 _ZNK5GpgME13Configuration6Option21createIntListArgumentERKSt6vectorIiSaIiEE@Base 4:4.5.86
 _ZNK5GpgME13Configuration6Option21noArgumentDescriptionEv@Base 4:4.5.86
 _ZNK5GpgME13Configuration6Option22createNoneListArgumentEj@Base 4:4.5.86
 _ZNK5GpgME13Configuration6Option22createUIntListArgumentERKSt6vectorIjSaIjEE@Base 4:4.5.86
 _ZNK5GpgME13Configuration6Option24createStringListArgumentERKSt6vectorIPKcSaIS4_EE@Base 4:4.5.86
 _ZNK5GpgME13Configuration6Option24createStringListArgumentERKSt6vectorISsSaISsEE@Base 4:4.5.86
 _ZNK5GpgME13Configuration6Option3setEv@Base 4:4.5.86
 _ZNK5GpgME13Configuration6Option4nameEv@Base 4:4.5.86
 _ZNK5GpgME13Configuration6Option4typeEv@Base 4:4.5.86
 _ZNK5GpgME13Configuration6Option5dirtyEv@Base 4:4.5.86
 _ZNK5GpgME13Configuration6Option5flagsEv@Base 4:4.5.86
 _ZNK5GpgME13Configuration6Option5levelEv@Base 4:4.5.86
 _ZNK5GpgME13Configuration6Option6parentEv@Base 4:4.5.86
 _ZNK5GpgME13Configuration6Option8newValueEv@Base 4:4.5.86
 _ZNK5GpgME13Configuration8Argument10uintValuesEv@Base 4:4.5.86
 _ZNK5GpgME13Configuration8Argument11numElementsEv@Base 4:4.5.86
 _ZNK5GpgME13Configuration8Argument11stringValueEj@Base 4:4.5.86
 _ZNK5GpgME13Configuration8Argument12stringValuesEv@Base 4:4.5.86
 _ZNK5GpgME13Configuration8Argument16numberOfTimesSetEv@Base 4:4.5.86
 _ZNK5GpgME13Configuration8Argument6parentEv@Base 4:4.5.86
 _ZNK5GpgME13Configuration8Argument8intValueEj@Base 4:4.5.86
 _ZNK5GpgME13Configuration8Argument9boolValueEv@Base 4:4.5.86
 _ZNK5GpgME13Configuration8Argument9intValuesEv@Base 4:4.5.86
 _ZNK5GpgME13Configuration8Argument9uintValueEj@Base 4:4.5.86
 _ZNK5GpgME13Configuration9Component10numOptionsEv@Base 4:4.5.86
 _ZNK5GpgME13Configuration9Component11descriptionEv@Base 4:4.5.86
 _ZNK5GpgME13Configuration9Component11programNameEv@Base 4:4.5.86
 _ZNK5GpgME13Configuration9Component4nameEv@Base 4:4.5.86
 _ZNK5GpgME13Configuration9Component4saveEv@Base 4:4.5.86
 _ZNK5GpgME13Configuration9Component6optionEPKc@Base 4:4.5.86
 _ZNK5GpgME13Configuration9Component6optionEj@Base 4:4.5.86
 _ZNK5GpgME13Configuration9Component7optionsEv@Base 4:4.5.86
 _ZNK5GpgME13KeyListResult11isTruncatedEv@Base 4:4.3.4
 _ZNK5GpgME13KeyListResult6isNullEv@Base 4:4.3.4
 _ZNK5GpgME13SigningResult16createdSignatureEj@Base 4:4.3.4
 _ZNK5GpgME13SigningResult17createdSignaturesEv@Base 4:4.3.4
 _ZNK5GpgME13SigningResult17invalidSigningKeyEj@Base 4:4.3.4
 _ZNK5GpgME13SigningResult18invalidSigningKeysEv@Base 4:4.3.4
 _ZNK5GpgME13SigningResult6isNullEv@Base 4:4.3.4
 _ZNK5GpgME14EditInteractor15needsNoResponseEj@Base 4:4.3.4
 _ZNK5GpgME14EditInteractor5stateEv@Base 4:4.3.4
 _ZNK5GpgME14EditInteractor9lastErrorEv@Base 4:4.3.4
 _ZNK5GpgME14VfsMountResult6isNullEv@Base 4:4.5.0
 _ZNK5GpgME14VfsMountResult8mountDirEv@Base 4:4.5.0
 _ZNK5GpgME16CreatedSignature11fingerprintEv@Base 4:4.3.4
 _ZNK5GpgME16CreatedSignature12creationTimeEv@Base 4:4.3.4
 _ZNK5GpgME16CreatedSignature13hashAlgorithmEv@Base 4:4.3.4
 _ZNK5GpgME16CreatedSignature14signatureClassEv@Base 4:4.3.4
 _ZNK5GpgME16CreatedSignature18publicKeyAlgorithmEv@Base 4:4.3.4
 _ZNK5GpgME16CreatedSignature21hashAlgorithmAsStringEv@Base 4:4.3.4
 _ZNK5GpgME16CreatedSignature26publicKeyAlgorithmAsStringEv@Base 4:4.3.4
 _ZNK5GpgME16CreatedSignature4modeEv@Base 4:4.3.4
 _ZNK5GpgME16CreatedSignature6isNullEv@Base 4:4.3.4
 _ZNK5GpgME16DecryptionResult10recipientsEv@Base 4:4.3.4
 _ZNK5GpgME16DecryptionResult13numRecipientsEv@Base 4:4.3.4
 _ZNK5GpgME16DecryptionResult15isWrongKeyUsageEv@Base 4:4.3.4
 _ZNK5GpgME16DecryptionResult20unsupportedAlgorithmEv@Base 4:4.3.4
 _ZNK5GpgME16DecryptionResult6isNullEv@Base 4:4.3.4
 _ZNK5GpgME16DecryptionResult8fileNameEv@Base 4:4.3.4
 _ZNK5GpgME16DecryptionResult9Recipient10shortKeyIDEv@Base 4:4.3.4
 _ZNK5GpgME16DecryptionResult9Recipient18publicKeyAlgorithmEv@Base 4:4.3.4
 _ZNK5GpgME16DecryptionResult9Recipient26publicKeyAlgorithmAsStringEv@Base 4:4.3.4
 _ZNK5GpgME16DecryptionResult9Recipient5keyIDEv@Base 4:4.3.4
 _ZNK5GpgME16DecryptionResult9Recipient6isNullEv@Base 4:4.3.4
 _ZNK5GpgME16DecryptionResult9Recipient6statusEv@Base 4:4.3.4
 _ZNK5GpgME16DecryptionResult9recipientEj@Base 4:4.3.4
 _ZNK5GpgME16EncryptionResult20invalidEncryptionKeyEj@Base 4:4.3.4
 _ZNK5GpgME16EncryptionResult20numInvalidRecipientsEv@Base 4:4.3.4
 _ZNK5GpgME16EncryptionResult21invalidEncryptionKeysEv@Base 4:4.3.4
 _ZNK5GpgME16EncryptionResult6isNullEv@Base 4:4.3.4
 _ZNK5GpgME16InvalidRecipient11fingerprintEv@Base 4:4.3.4
 _ZNK5GpgME16InvalidRecipient6isNullEv@Base 4:4.3.4
 _ZNK5GpgME16InvalidRecipient6reasonEv@Base 4:4.3.4
 _ZNK5GpgME17InvalidSigningKey11fingerprintEv@Base 4:4.3.4
 _ZNK5GpgME17InvalidSigningKey6isNullEv@Base 4:4.3.4
 _ZNK5GpgME17InvalidSigningKey6reasonEv@Base 4:4.3.4
 _ZNK5GpgME18VerificationResult10signaturesEv@Base 4:4.3.4
 _ZNK5GpgME18VerificationResult13numSignaturesEv@Base 4:4.3.4
 _ZNK5GpgME18VerificationResult6isNullEv@Base 4:4.3.4
 _ZNK5GpgME18VerificationResult8fileNameEv@Base 4:4.3.4
 _ZNK5GpgME18VerificationResult9signatureEj@Base 4:4.3.4
 _ZNK5GpgME19KeyGenerationResult11fingerprintEv@Base 4:4.3.4
 _ZNK5GpgME19KeyGenerationResult17isSubkeyGeneratedEv@Base 4:4.3.4
 _ZNK5GpgME19KeyGenerationResult21isPrimaryKeyGeneratedEv@Base 4:4.3.4
 _ZNK5GpgME19KeyGenerationResult6isNullEv@Base 4:4.3.4
 _ZNK5GpgME24DefaultAssuanTransaction10statusLineEPKc@Base 4:4.4.0
 _ZNK5GpgME24DefaultAssuanTransaction15firstStatusLineEPKc@Base 4:4.4.0
 _ZNK5GpgME24GpgSignKeyEditInteractor6actionERNS_5ErrorE@Base 4:4.3.4
 _ZNK5GpgME24GpgSignKeyEditInteractor9nextStateEjPKcRNS_5ErrorE@Base 4:4.3.4
 _ZNK5GpgME26GpgAddUserIDEditInteractor6actionERNS_5ErrorE@Base 4:4.3.4
 _ZNK5GpgME26GpgAddUserIDEditInteractor9nextStateEjPKcRNS_5ErrorE@Base 4:4.3.4
 _ZNK5GpgME27ScdGetInfoAssuanTransaction10readerListEv@Base 4:4.4.0
 _ZNK5GpgME27ScdGetInfoAssuanTransaction10socketNameEv@Base 4:4.4.0
 _ZNK5GpgME27ScdGetInfoAssuanTransaction11makeCommandEv@Base 4:4.4.0
 _ZNK5GpgME27ScdGetInfoAssuanTransaction15applicationListEv@Base 4:4.4.0
 _ZNK5GpgME27ScdGetInfoAssuanTransaction3pidEv@Base 4:4.4.0
 _ZNK5GpgME27ScdGetInfoAssuanTransaction6statusEv@Base 4:4.4.0
 _ZNK5GpgME27ScdGetInfoAssuanTransaction7commandEv@Base 4:4.4.0
 _ZNK5GpgME27ScdGetInfoAssuanTransaction7versionEv@Base 4:4.4.0
 _ZNK5GpgME30GpgSetExpiryTimeEditInteractor6actionERNS_5ErrorE@Base 4:4.3.4
 _ZNK5GpgME30GpgSetExpiryTimeEditInteractor9nextStateEjPKcRNS_5ErrorE@Base 4:4.3.4
 _ZNK5GpgME30GpgSetOwnerTrustEditInteractor6actionERNS_5ErrorE@Base 4:4.3.4
 _ZNK5GpgME30GpgSetOwnerTrustEditInteractor9nextStateEjPKcRNS_5ErrorE@Base 4:4.3.4
 _ZNK5GpgME32GpgAgentGetInfoAssuanTransaction10socketNameEv@Base 4:4.4.0
 _ZNK5GpgME32GpgAgentGetInfoAssuanTransaction11makeCommandEv@Base 4:4.4.0
 _ZNK5GpgME32GpgAgentGetInfoAssuanTransaction13sshSocketNameEv@Base 4:4.4.0
 _ZNK5GpgME32GpgAgentGetInfoAssuanTransaction3pidEv@Base 4:4.4.0
 _ZNK5GpgME32GpgAgentGetInfoAssuanTransaction7commandEv@Base 4:4.4.0
 _ZNK5GpgME32GpgAgentGetInfoAssuanTransaction7versionEv@Base 4:4.4.0
 _ZNK5GpgME3Key10canCertifyEv@Base 4:4.3.4
 _ZNK5GpgME3Key10canEncryptEv@Base 4:4.3.4
 _ZNK5GpgME3Key10isDisabledEv@Base 4:4.3.4
 _ZNK5GpgME3Key10issuerNameEv@Base 4:4.3.4
 _ZNK5GpgME3Key10numSubkeysEv@Base 4:4.3.4
 _ZNK5GpgME3Key10numUserIDsEv@Base 4:4.3.4
 _ZNK5GpgME3Key10ownerTrustEv@Base 4:4.3.4
 _ZNK5GpgME3Key10shortKeyIDEv@Base 4:4.3.4
 _ZNK5GpgME3Key11isQualifiedEv@Base 4:4.3.4
 _ZNK5GpgME3Key11keyListModeEv@Base 4:4.3.4
 _ZNK5GpgME3Key12issuerSerialEv@Base 4:4.3.4
 _ZNK5GpgME3Key13canReallySignEv@Base 4:4.5.0
 _ZNK5GpgME3Key15canAuthenticateEv@Base 4:4.3.4
 _ZNK5GpgME3Key16protocolAsStringEv@Base 4:4.3.4
 _ZNK5GpgME3Key18ownerTrustAsStringEv@Base 4:4.3.4
 _ZNK5GpgME3Key18primaryFingerprintEv@Base 4:4.3.4
 _ZNK5GpgME3Key5keyIDEv@Base 4:4.3.4
 _ZNK5GpgME3Key6isRootEv@Base 4:4.3.4
 _ZNK5GpgME3Key6subkeyEj@Base 4:4.3.4
 _ZNK5GpgME3Key6userIDEj@Base 4:4.3.4
 _ZNK5GpgME3Key7canSignEv@Base 4:4.3.4
 _ZNK5GpgME3Key7chainIDEv@Base 4:4.3.4
 _ZNK5GpgME3Key7subkeysEv@Base 4:4.3.4
 _ZNK5GpgME3Key7userIDsEv@Base 4:4.3.4
 _ZNK5GpgME3Key8protocolEv@Base 4:4.3.4
 _ZNK5GpgME3Key9hasSecretEv@Base 4:4.3.4
 _ZNK5GpgME3Key9isExpiredEv@Base 4:4.3.4
 _ZNK5GpgME3Key9isInvalidEv@Base 4:4.3.4
 _ZNK5GpgME3Key9isRevokedEv@Base 4:4.3.4
 _ZNK5GpgME4Data6isNullEv@Base 4:4.3.4
 _ZNK5GpgME4Data8encodingEv@Base 4:4.3.4
 _ZNK5GpgME4Data8fileNameEv@Base 4:4.3.4
 _ZNK5GpgME5Error10isCanceledEv@Base 4:4.3.4
 _ZNK5GpgME5Error4codeEv@Base 4:4.3.4
 _ZNK5GpgME5Error6sourceEv@Base 4:4.3.4
 _ZNK5GpgME5Error7toErrnoEv@Base 4:4.5.86
 _ZNK5GpgME5Error8asStringEv@Base 4:4.3.4
 _ZNK5GpgME5Error8sourceIDEv@Base 4:4.3.4
 _ZNK5GpgME6Import11fingerprintEv@Base 4:4.3.4
 _ZNK5GpgME6Import5errorEv@Base 4:4.3.4
 _ZNK5GpgME6Import6isNullEv@Base 4:4.3.4
 _ZNK5GpgME6Import6statusEv@Base 4:4.3.4
 _ZNK5GpgME6Subkey10canCertifyEv@Base 4:4.3.4
 _ZNK5GpgME6Subkey10canEncryptEv@Base 4:4.3.4
 _ZNK5GpgME6Subkey10isDisabledEv@Base 4:4.3.4
 _ZNK5GpgME6Subkey11fingerprintEv@Base 4:4.3.4
 _ZNK5GpgME6Subkey11isQualifiedEv@Base 4:4.3.4
 _ZNK5GpgME6Subkey12creationTimeEv@Base 4:4.3.4
 _ZNK5GpgME6Subkey12neverExpiresEv@Base 4:4.3.4
 _ZNK5GpgME6Subkey14expirationTimeEv@Base 4:4.3.4
 _ZNK5GpgME6Subkey15canAuthenticateEv@Base 4:4.3.4
 _ZNK5GpgME6Subkey16cardSerialNumberEv@Base 4:4.3.4
 _ZNK5GpgME6Subkey18publicKeyAlgorithmEv@Base 4:4.3.4
 _ZNK5GpgME6Subkey26publicKeyAlgorithmAsStringEv@Base 4:4.3.4
 _ZNK5GpgME6Subkey5keyIDEv@Base 4:4.3.4
 _ZNK5GpgME6Subkey6lengthEv@Base 4:4.3.4
 _ZNK5GpgME6Subkey6parentEv@Base 4:4.3.4
 _ZNK5GpgME6Subkey7canSignEv@Base 4:4.3.4
 _ZNK5GpgME6Subkey8isSecretEv@Base 4:4.3.4
 _ZNK5GpgME6Subkey9isCardKeyEv@Base 4:4.3.4
 _ZNK5GpgME6Subkey9isExpiredEv@Base 4:4.3.4
 _ZNK5GpgME6Subkey9isInvalidEv@Base 4:4.3.4
 _ZNK5GpgME6Subkey9isRevokedEv@Base 4:4.3.4
 _ZNK5GpgME6UserID10signaturesEv@Base 4:4.3.4
 _ZNK5GpgME6UserID13numSignaturesEv@Base 4:4.3.4
 _ZNK5GpgME6UserID16validityAsStringEv@Base 4:4.3.4
 _ZNK5GpgME6UserID2idEv@Base 4:4.3.4
 _ZNK5GpgME6UserID4nameEv@Base 4:4.3.4
 _ZNK5GpgME6UserID5emailEv@Base 4:4.3.4
 _ZNK5GpgME6UserID6parentEv@Base 4:4.3.4
 _ZNK5GpgME6UserID7commentEv@Base 4:4.3.4
 _ZNK5GpgME6UserID8validityEv@Base 4:4.3.4
 _ZNK5GpgME6UserID9Signature10signerNameEv@Base 4:4.3.4
 _ZNK5GpgME6UserID9Signature11signerEmailEv@Base 4:4.3.4
 _ZNK5GpgME6UserID9Signature11signerKeyIDEv@Base 4:4.3.4
 _ZNK5GpgME6UserID9Signature12creationTimeEv@Base 4:4.3.4
 _ZNK5GpgME6UserID9Signature12isExportableEv@Base 4:4.3.4
 _ZNK5GpgME6UserID9Signature12isRevokationEv@Base 4:4.3.4
 _ZNK5GpgME6UserID9Signature12neverExpiresEv@Base 4:4.3.4
 _ZNK5GpgME6UserID9Signature12numNotationsEv@Base 4:4.3.4
 _ZNK5GpgME6UserID9Signature12signerUserIDEv@Base 4:4.3.4
 _ZNK5GpgME6UserID9Signature13signerCommentEv@Base 4:4.3.4
 _ZNK5GpgME6UserID9Signature14expirationTimeEv@Base 4:4.3.4
 _ZNK5GpgME6UserID9Signature14statusAsStringEv@Base 4:4.3.4
 _ZNK5GpgME6UserID9Signature17algorithmAsStringEv@Base 4:4.3.4
 _ZNK5GpgME6UserID9Signature6parentEv@Base 4:4.3.4
 _ZNK5GpgME6UserID9Signature6statusEv@Base 4:4.3.4
 _ZNK5GpgME6UserID9Signature8notationEj@Base 4:4.3.4
 _ZNK5GpgME6UserID9Signature9algorithmEv@Base 4:4.3.4
 _ZNK5GpgME6UserID9Signature9certClassEv@Base 4:4.3.4
 _ZNK5GpgME6UserID9Signature9isExpiredEv@Base 4:4.3.4
 _ZNK5GpgME6UserID9Signature9isInvalidEv@Base 4:4.3.4
 _ZNK5GpgME6UserID9Signature9notationsEv@Base 4:4.3.4
 _ZNK5GpgME6UserID9Signature9policyURLEv@Base 4:4.3.4
 _ZNK5GpgME6UserID9isInvalidEv@Base 4:4.3.4
 _ZNK5GpgME6UserID9isRevokedEv@Base 4:4.3.4
 _ZNK5GpgME6UserID9signatureEj@Base 4:4.3.4
 _ZNK5GpgME7Context10engineInfoEv@Base 4:4.3.4
 _ZNK5GpgME7Context10signingKeyEj@Base 4:4.3.4
 _ZNK5GpgME7Context11keyListModeEv@Base 4:4.3.4
 _ZNK5GpgME7Context11signingKeysEv@Base 4:4.3.4
 _ZNK5GpgME7Context12assuanResultEv@Base 4:4.4.0
 _ZNK5GpgME7Context12importResultEv@Base 4:4.3.4
 _ZNK5GpgME7Context13keyListResultEv@Base 4:4.3.4
 _ZNK5GpgME7Context13signingResultEv@Base 4:4.3.4
 _ZNK5GpgME7Context16decryptionResultEv@Base 4:4.3.4
 _ZNK5GpgME7Context16encryptionResultEv@Base 4:4.3.4
 _ZNK5GpgME7Context16progressProviderEv@Base 4:4.3.4
 _ZNK5GpgME7Context17signatureNotationEj@Base 4:4.3.4
 _ZNK5GpgME7Context18lastEditInteractorEv@Base 4:4.3.4
 _ZNK5GpgME7Context18passphraseProviderEv@Base 4:4.3.4
 _ZNK5GpgME7Context18signatureNotationsEv@Base 4:4.3.4
 _ZNK5GpgME7Context18signaturePolicyURLEv@Base 4:4.3.4
 _ZNK5GpgME7Context18verificationResultEv@Base 4:4.3.4
 _ZNK5GpgME7Context19includeCertificatesEv@Base 4:4.3.4
 _ZNK5GpgME7Context19keyGenerationResultEv@Base 4:4.3.4
 _ZNK5GpgME7Context21lastAssuanTransactionEv@Base 4:4.4.0
 _ZNK5GpgME7Context22lastCardEditInteractorEv@Base 4:4.3.4
 _ZNK5GpgME7Context28managedByEventLoopInteractorEv@Base 4:4.3.4
 _ZNK5GpgME7Context5armorEv@Base 4:4.3.4
 _ZNK5GpgME7Context8protocolEv@Base 4:4.3.4
 _ZNK5GpgME7Context8textModeEv@Base 4:4.3.4
 _ZNK5GpgME7Context9lastErrorEv@Base 4:4.3.4
 _ZNK5GpgME8Notation10isCriticalEv@Base 4:4.3.4
 _ZNK5GpgME8Notation15isHumanReadableEv@Base 4:4.3.4
 _ZNK5GpgME8Notation4nameEv@Base 4:4.3.4
 _ZNK5GpgME8Notation5flagsEv@Base 4:4.3.4
 _ZNK5GpgME8Notation5valueEv@Base 4:4.3.4
 _ZNK5GpgME8Notation6isNullEv@Base 4:4.3.4
 _ZNK5GpgME9Signature10pkaAddressEv@Base 4:4.3.4
 _ZNK5GpgME9Signature11fingerprintEv@Base 4:4.3.4
 _ZNK5GpgME9Signature12creationTimeEv@Base 4:4.3.4
 _ZNK5GpgME9Signature12neverExpiresEv@Base 4:4.3.4
 _ZNK5GpgME9Signature13hashAlgorithmEv@Base 4:4.3.4
 _ZNK5GpgME9Signature14expirationTimeEv@Base 4:4.3.4
 _ZNK5GpgME9Signature15isWrongKeyUsageEv@Base 4:4.3.4
 _ZNK5GpgME9Signature16validityAsStringEv@Base 4:4.3.4
 _ZNK5GpgME9Signature17nonValidityReasonEv@Base 4:4.3.4
 _ZNK5GpgME9Signature18publicKeyAlgorithmEv@Base 4:4.3.4
 _ZNK5GpgME9Signature21hashAlgorithmAsStringEv@Base 4:4.3.4
 _ZNK5GpgME9Signature25isVerifiedUsingChainModelEv@Base 4:4.3.4
 _ZNK5GpgME9Signature26publicKeyAlgorithmAsStringEv@Base 4:4.3.4
 _ZNK5GpgME9Signature6isNullEv@Base 4:4.3.4
 _ZNK5GpgME9Signature6statusEv@Base 4:4.3.4
 _ZNK5GpgME9Signature7summaryEv@Base 4:4.3.4
 _ZNK5GpgME9Signature8notationEj@Base 4:4.3.4
 _ZNK5GpgME9Signature8validityEv@Base 4:4.3.4
 _ZNK5GpgME9Signature9notationsEv@Base 4:4.3.4
 _ZNK5GpgME9Signature9pkaStatusEv@Base 4:4.3.4
 _ZNK5GpgME9Signature9policyURLEv@Base 4:4.3.4
 _ZNK5GpgME9TrustItem10trustLevelEv@Base 4:4.3.4
 _ZNK5GpgME9TrustItem16validityAsStringEv@Base 4:4.3.4
 _ZNK5GpgME9TrustItem18ownerTrustAsStringEv@Base 4:4.3.4
 _ZNK5GpgME9TrustItem4implEv@Base 4:4.3.4
 _ZNK5GpgME9TrustItem4typeEv@Base 4:4.3.4
 _ZNK5GpgME9TrustItem5keyIDEv@Base 4:4.3.4
 _ZNK5GpgME9TrustItem6isNullEv@Base 4:4.3.4
 _ZNK5GpgME9TrustItem6userIDEv@Base 4:4.3.4
 _ZNSs12_S_constructIN9__gnu_cxx17__normal_iteratorIPKcSsEEEEPcT_S6_RKSaIcESt20forward_iterator_tag@Base 4:4.7.4
 _ZNSs12_S_constructIPcEES0_T_S1_RKSaIcESt20forward_iterator_tag@Base 4:4.7.4
 _ZNSt12_Destroy_auxILb0EE9__destroyIPSsEEvT_S3_@Base 4:4.7.4
 _ZNSt12_Destroy_auxILb0EE9__destroyIPSt4pairISsSsEEEvT_S5_@Base 4:4.7.4
 _ZNSt12_Destroy_auxILb0EE9__destroyIPSt6vectorIN5GpgME18VerificationResult7Private4NotaESaIS6_EEEEvT_SA_@Base 4:4.7.4
 _ZNSt4pairISsSsED1Ev@Base 4:4.6.5
 _ZNSt4pairISsSsED2Ev@Base 4:4.6.5
 _ZNSt6vectorIN5GpgME13Configuration6OptionESaIS2_EE13_M_insert_auxEN9__gnu_cxx17__normal_iteratorIPS2_S4_EERKS2_@Base 4:4.5.86
 _ZNSt6vectorIN5GpgME13Configuration6OptionESaIS2_EED1Ev@Base 4:4.5.86
 _ZNSt6vectorIN5GpgME13Configuration6OptionESaIS2_EED2Ev@Base 4:4.6.1
 _ZNSt6vectorIN5GpgME13Configuration9ComponentESaIS2_EE14_M_fill_insertEN9__gnu_cxx17__normal_iteratorIPS2_S4_EEmRKS2_@Base 4:4.5.86
 _ZNSt6vectorIN5GpgME13Configuration9ComponentESaIS2_EED1Ev@Base 4:4.6.1
 _ZNSt6vectorIN5GpgME13Configuration9ComponentESaIS2_EED2Ev@Base 4:4.6.1
 _ZNSt6vectorIN5GpgME16CreatedSignatureESaIS1_EE13_M_insert_auxEN9__gnu_cxx17__normal_iteratorIPS1_S3_EERKS1_@Base 4:4.3.4
 _ZNSt6vectorIN5GpgME16CreatedSignatureESaIS1_EED1Ev@Base 4:4.3.4
 _ZNSt6vectorIN5GpgME16CreatedSignatureESaIS1_EED2Ev@Base 4:4.6.1
 _ZNSt6vectorIN5GpgME16DecryptionResult9RecipientESaIS2_EE13_M_insert_auxEN9__gnu_cxx17__normal_iteratorIPS2_S4_EERKS2_@Base 4:4.3.4
 _ZNSt6vectorIN5GpgME16DecryptionResult9RecipientESaIS2_EE7reserveEm@Base 4:4.3.4
 _ZNSt6vectorIN5GpgME16DecryptionResult9RecipientESaIS2_EED1Ev@Base 4:4.3.4
 _ZNSt6vectorIN5GpgME16DecryptionResult9RecipientESaIS2_EED2Ev@Base 4:4.6.1
 _ZNSt6vectorIN5GpgME16InvalidRecipientESaIS1_EE13_M_insert_auxEN9__gnu_cxx17__normal_iteratorIPS1_S3_EERKS1_@Base 4:4.3.4
 _ZNSt6vectorIN5GpgME16InvalidRecipientESaIS1_EED1Ev@Base 4:4.3.4
 _ZNSt6vectorIN5GpgME16InvalidRecipientESaIS1_EED2Ev@Base 4:4.6.1
 _ZNSt6vectorIN5GpgME17InvalidSigningKeyESaIS1_EE13_M_insert_auxEN9__gnu_cxx17__normal_iteratorIPS1_S3_EERKS1_@Base 4:4.3.4
 _ZNSt6vectorIN5GpgME17InvalidSigningKeyESaIS1_EED1Ev@Base 4:4.3.4
 _ZNSt6vectorIN5GpgME17InvalidSigningKeyESaIS1_EED2Ev@Base 4:4.6.1
 _ZNSt6vectorIN5GpgME18VerificationResult7Private4NotaESaIS3_EE13_M_insert_auxEN9__gnu_cxx17__normal_iteratorIPS3_S5_EERKS3_@Base 4:4.3.4
 _ZNSt6vectorIN5GpgME18VerificationResult7Private4NotaESaIS3_EED1Ev@Base 4:4.7.4
 _ZNSt6vectorIN5GpgME18VerificationResult7Private4NotaESaIS3_EED2Ev@Base 4:4.7.4
 _ZNSt6vectorIN5GpgME18VerificationResult7Private4NotaESaIS3_EEaSERKS5_@Base 4:4.3.4
 _ZNSt6vectorIN5GpgME3KeyESaIS1_EE13_M_insert_auxEN9__gnu_cxx17__normal_iteratorIPS1_S3_EERKS1_@Base 4:4.3.4
 _ZNSt6vectorIN5GpgME3KeyESaIS1_EED1Ev@Base 4:4.7.4
 _ZNSt6vectorIN5GpgME3KeyESaIS1_EED2Ev@Base 4:4.7.4
 _ZNSt6vectorIN5GpgME6ImportESaIS1_EE13_M_insert_auxEN9__gnu_cxx17__normal_iteratorIPS1_S3_EERKS1_@Base 4:4.3.4
 _ZNSt6vectorIN5GpgME6ImportESaIS1_EED1Ev@Base 4:4.6.1
 _ZNSt6vectorIN5GpgME6ImportESaIS1_EED2Ev@Base 4:4.6.1
 _ZNSt6vectorIN5GpgME6SubkeyESaIS1_EE13_M_insert_auxEN9__gnu_cxx17__normal_iteratorIPS1_S3_EERKS1_@Base 4:4.3.4
 _ZNSt6vectorIN5GpgME6SubkeyESaIS1_EED1Ev@Base 4:4.4.3
 _ZNSt6vectorIN5GpgME6SubkeyESaIS1_EED2Ev@Base 4:4.6.1
 _ZNSt6vectorIN5GpgME6UserID9SignatureESaIS2_EE13_M_insert_auxEN9__gnu_cxx17__normal_iteratorIPS2_S4_EERKS2_@Base 4:4.3.4
 _ZNSt6vectorIN5GpgME6UserID9SignatureESaIS2_EED1Ev@Base 4:4.4.3
 _ZNSt6vectorIN5GpgME6UserID9SignatureESaIS2_EED2Ev@Base 4:4.6.1
 _ZNSt6vectorIN5GpgME6UserIDESaIS1_EE13_M_insert_auxEN9__gnu_cxx17__normal_iteratorIPS1_S3_EERKS1_@Base 4:4.3.4
 _ZNSt6vectorIN5GpgME6UserIDESaIS1_EED1Ev@Base 4:4.4.3
 _ZNSt6vectorIN5GpgME6UserIDESaIS1_EED2Ev@Base 4:4.6.1
 _ZNSt6vectorIN5GpgME8NotationESaIS1_EE13_M_insert_auxEN9__gnu_cxx17__normal_iteratorIPS1_S3_EERKS1_@Base 4:4.3.4
 _ZNSt6vectorIN5GpgME8NotationESaIS1_EE7reserveEm@Base 4:4.3.4
 _ZNSt6vectorIN5GpgME8NotationESaIS1_EED1Ev@Base 4:4.3.4
 _ZNSt6vectorIN5GpgME8NotationESaIS1_EED2Ev@Base 4:4.6.1
 _ZNSt6vectorIN5GpgME9SignatureESaIS1_EE13_M_insert_auxEN9__gnu_cxx17__normal_iteratorIPS1_S3_EERKS1_@Base 4:4.3.4
 _ZNSt6vectorIN5GpgME9SignatureESaIS1_EED1Ev@Base 4:4.3.4
 _ZNSt6vectorIN5GpgME9SignatureESaIS1_EED2Ev@Base 4:4.6.1
 _ZNSt6vectorIPKcSaIS1_EE13_M_insert_auxEN9__gnu_cxx17__normal_iteratorIPS1_S3_EERKS1_@Base 4:4.4.0
 _ZNSt6vectorIPKcSaIS1_EED1Ev@Base 4:4.7.4
 _ZNSt6vectorIPKcSaIS1_EED2Ev@Base 4:4.7.4
 _ZNSt6vectorIPN5GpgME19EventLoopInteractor7Private5OneFDESaIS4_EE13_M_insert_auxEN9__gnu_cxx17__normal_iteratorIPS4_S6_EERKS4_@Base 4:4.3.4
 _ZNSt6vectorIS_IN5GpgME18VerificationResult7Private4NotaESaIS3_EESaIS5_EE13_M_insert_auxEN9__gnu_cxx17__normal_iteratorIPS5_S7_EERKS5_@Base 4:4.3.4
 _ZNSt6vectorISsSaISsEE13_M_insert_auxEN9__gnu_cxx17__normal_iteratorIPSsS1_EERKSs@Base 4:4.4.0
 _ZNSt6vectorISsSaISsEED1Ev@Base 4:4.4.0
 _ZNSt6vectorISsSaISsEED2Ev@Base 4:4.6.1
 _ZNSt6vectorISt4pairISsSsESaIS1_EE13_M_insert_auxEN9__gnu_cxx17__normal_iteratorIPS1_S3_EERKS1_@Base 4:4.4.0
 _ZNSt6vectorIiSaIiEE13_M_insert_auxEN9__gnu_cxx17__normal_iteratorIPiS1_EERKi@Base 4:4.5.86
 _ZNSt6vectorIiSaIiEED1Ev@Base 4:4.7.4
 _ZNSt6vectorIiSaIiEED2Ev@Base 4:4.7.4
 _ZNSt6vectorIjSaIjEE13_M_insert_auxEN9__gnu_cxx17__normal_iteratorIPjS1_EERKj@Base 4:4.5.86
 _ZNSt6vectorIjSaIjEED1Ev@Base 4:4.7.4
 _ZNSt6vectorIjSaIjEED2Ev@Base 4:4.7.4
 _ZNSt6vectorIjSaIjEEaSERKS1_@Base 4:4.3.4
 _ZSt13__adjust_heapIPclcEvT_T0_S2_T1_@Base 4:4.4.0
 _ZSt13binary_searchIPKccEbT_S2_RKT0_@Base 4:4.7.4
 _ZSt16__insertion_sortIPcEvT_S1_@Base 4:4.4.0
 _ZSt16__introsort_loopIPclEvT_S1_T0_@Base 4:4.4.0
 _ZTIN5GpgME14EditInteractorE@Base 4:4.3.4
 _ZTIN5GpgME17AssuanTransactionE@Base 4:4.4.0
 _ZTIN5GpgME19EventLoopInteractorE@Base 4:4.3.4
 _ZTIN5GpgME24DefaultAssuanTransactionE@Base 4:4.4.0
 _ZTIN5GpgME24GpgSignKeyEditInteractorE@Base 4:4.3.4
 _ZTIN5GpgME26GpgAddUserIDEditInteractorE@Base 4:4.3.4
 _ZTIN5GpgME27ScdGetInfoAssuanTransactionE@Base 4:4.4.0
 _ZTIN5GpgME30GpgSetExpiryTimeEditInteractorE@Base 4:4.3.4
 _ZTIN5GpgME30GpgSetOwnerTrustEditInteractorE@Base 4:4.3.4
 _ZTIN5GpgME32GpgAgentGetInfoAssuanTransactionE@Base 4:4.4.0
 _ZTIN5GpgME7ContextE@Base 4:4.3.4
 _ZTIN5GpgME9ExceptionE@Base 4:4.3.4
 _ZTIN5GpgME9TrustItemE@Base 4:4.3.4
 _ZTIN5boost16exception_detail10clone_baseE@Base 4:4.10.1
 _ZTIN5boost9exceptionE@Base 4:4.7.4
 _ZTSN5GpgME14EditInteractorE@Base 4:4.3.4
 _ZTSN5GpgME17AssuanTransactionE@Base 4:4.4.0
 _ZTSN5GpgME19EventLoopInteractorE@Base 4:4.3.4
 _ZTSN5GpgME24DefaultAssuanTransactionE@Base 4:4.4.0
 _ZTSN5GpgME24GpgSignKeyEditInteractorE@Base 4:4.3.4
 _ZTSN5GpgME26GpgAddUserIDEditInteractorE@Base 4:4.3.4
 _ZTSN5GpgME27ScdGetInfoAssuanTransactionE@Base 4:4.4.0
 _ZTSN5GpgME30GpgSetExpiryTimeEditInteractorE@Base 4:4.3.4
 _ZTSN5GpgME30GpgSetOwnerTrustEditInteractorE@Base 4:4.3.4
 _ZTSN5GpgME32GpgAgentGetInfoAssuanTransactionE@Base 4:4.4.0
 _ZTSN5GpgME7ContextE@Base 4:4.3.4
 _ZTSN5GpgME9ExceptionE@Base 4:4.3.4
 _ZTSN5GpgME9TrustItemE@Base 4:4.3.4
 _ZTSN5boost16exception_detail10clone_baseE@Base 4:4.10.1
 _ZTSN5boost9exceptionE@Base 4:4.7.4
 _ZTVN5GpgME14EditInteractorE@Base 4:4.3.4
 _ZTVN5GpgME17AssuanTransactionE@Base 4:4.4.0
 _ZTVN5GpgME19EventLoopInteractorE@Base 4:4.3.4
 _ZTVN5GpgME24DefaultAssuanTransactionE@Base 4:4.4.0
 _ZTVN5GpgME24GpgSignKeyEditInteractorE@Base 4:4.3.4
 _ZTVN5GpgME26GpgAddUserIDEditInteractorE@Base 4:4.3.4
 _ZTVN5GpgME27ScdGetInfoAssuanTransactionE@Base 4:4.4.0
 _ZTVN5GpgME30GpgSetExpiryTimeEditInteractorE@Base 4:4.3.4
 _ZTVN5GpgME30GpgSetOwnerTrustEditInteractorE@Base 4:4.3.4
 _ZTVN5GpgME32GpgAgentGetInfoAssuanTransactionE@Base 4:4.4.0
 _ZTVN5GpgME7ContextE@Base 4:4.3.4
 _ZTVN5GpgME9ExceptionE@Base 4:4.3.4
 _ZTVN5GpgME9TrustItemE@Base 4:4.3.4
 _ZTVN5boost16exception_detail10clone_baseE@Base 4:4.10.1
 _ZTVN5boost9exceptionE@Base 4:4.7.4
