# SymbolsHelper-Confirmed: 4:4.8.3 amd64 armhf hurd-i386 i386 ia64 kfreebsd-amd64 kfreebsd-i386 powerpc s390 s390x
libkldap.so.4 libkldap4 #MINVER#
* Build-Depends-Package: kdepimlibs5-dev
 _ZN5KLDAP10LdapObject13setAttributesERK4QMapI7QString5QListI10QByteArrayEE@Base 4:4.3.4
 _ZN5KLDAP10LdapObject5clearEv@Base 4:4.3.4
 _ZN5KLDAP10LdapObject5setDnERK7QString@Base 4:4.3.4
 _ZN5KLDAP10LdapObject5setDnERKNS_6LdapDNE@Base 4:4.3.4
 _ZN5KLDAP10LdapObject8addValueERK7QStringRK10QByteArray@Base 4:4.3.4
 _ZN5KLDAP10LdapObject9setValuesERK7QStringRK5QListI10QByteArrayE@Base 4:4.3.4
 _ZN5KLDAP10LdapObjectC1ERK7QString@Base 4:4.3.4
 _ZN5KLDAP10LdapObjectC1ERKS0_@Base 4:4.3.4
 _ZN5KLDAP10LdapObjectC1Ev@Base 4:4.3.4
 _ZN5KLDAP10LdapObjectC2ERK7QString@Base 4:4.3.4
 _ZN5KLDAP10LdapObjectC2ERKS0_@Base 4:4.3.4
 _ZN5KLDAP10LdapObjectC2Ev@Base 4:4.3.4
 _ZN5KLDAP10LdapObjectD0Ev@Base 4:4.3.4
 _ZN5KLDAP10LdapObjectD1Ev@Base 4:4.3.4
 _ZN5KLDAP10LdapObjectD2Ev@Base 4:4.3.4
 _ZN5KLDAP10LdapObjectaSERKS0_@Base 4:4.3.4
 _ZN5KLDAP10LdapSearch10isFinishedEv@Base 4:4.3.4
 _ZN5KLDAP10LdapSearch11qt_metacallEN11QMetaObject4CallEiPPv@Base 4:4.3.4
 _ZN5KLDAP10LdapSearch11qt_metacastEPKc@Base 4:4.3.4
 _ZN5KLDAP10LdapSearch13setConnectionERNS_14LdapConnectionE@Base 4:4.3.4
 _ZN5KLDAP10LdapSearch14continueSearchEv@Base 4:4.3.4
 _ZN5KLDAP10LdapSearch16staticMetaObjectE@Base 4:4.3.4
 _ZN5KLDAP10LdapSearch17setClientControlsERK5QListINS_11LdapControlEE@Base 4:4.3.4
 _ZN5KLDAP10LdapSearch17setServerControlsERK5QListINS_11LdapControlEE@Base 4:4.3.4
 _ZN5KLDAP10LdapSearch4dataEPS0_RKNS_10LdapObjectE@Base 4:4.3.4
 _ZN5KLDAP10LdapSearch6resultEPS0_@Base 4:4.3.4
 _ZN5KLDAP10LdapSearch6searchERKNS_10LdapServerERK11QStringListi@Base 4:4.3.4
 _ZN5KLDAP10LdapSearch6searchERKNS_6LdapDNENS_7LdapUrl5ScopeERK7QStringRK11QStringListii@Base 4:4.3.4
 _ZN5KLDAP10LdapSearch6searchERKNS_7LdapUrlEi@Base 4:4.3.4
 _ZN5KLDAP10LdapSearch7Private11startSearchERKNS_6LdapDNENS_7LdapUrl5ScopeERK7QStringRK11QStringListii@Base 4:4.3.4
 _ZN5KLDAP10LdapSearch7Private15closeConnectionEv@Base 4:4.3.4
 _ZN5KLDAP10LdapSearch7Private6resultEv@Base 4:4.3.4
 _ZN5KLDAP10LdapSearch7Private7connectEv@Base 4:4.3.4
 _ZN5KLDAP10LdapSearch7abandonEv@Base 4:4.3.4
 _ZN5KLDAP10LdapSearchC1ERNS_14LdapConnectionE@Base 4:4.3.4
 _ZN5KLDAP10LdapSearchC1Ev@Base 4:4.3.4
 _ZN5KLDAP10LdapSearchC2ERNS_14LdapConnectionE@Base 4:4.3.4
 _ZN5KLDAP10LdapSearchC2Ev@Base 4:4.3.4
 _ZN5KLDAP10LdapSearchD0Ev@Base 4:4.3.4
 _ZN5KLDAP10LdapSearchD1Ev@Base 4:4.3.4
 _ZN5KLDAP10LdapSearchD2Ev@Base 4:4.3.4
 _ZN5KLDAP10LdapServer10setTimeoutEi@Base 4:4.3.4
 _ZN5KLDAP10LdapServer10setVersionEi@Base 4:4.3.4
 _ZN5KLDAP10LdapServer11setPageSizeEi@Base 4:4.3.4
 _ZN5KLDAP10LdapServer11setPasswordERK7QString@Base 4:4.3.4
 _ZN5KLDAP10LdapServer11setSecurityENS0_8SecurityE@Base 4:4.3.4
 _ZN5KLDAP10LdapServer12setSizeLimitEi@Base 4:4.3.4
 _ZN5KLDAP10LdapServer12setTimeLimitEi@Base 4:4.3.4
 _ZN5KLDAP10LdapServer5clearEv@Base 4:4.3.4
 _ZN5KLDAP10LdapServer6setUrlERKNS_7LdapUrlE@Base 4:4.3.4
 _ZN5KLDAP10LdapServer7setAuthENS0_4AuthE@Base 4:4.3.4
 _ZN5KLDAP10LdapServer7setHostERK7QString@Base 4:4.3.4
 _ZN5KLDAP10LdapServer7setMechERK7QString@Base 4:4.3.4
 _ZN5KLDAP10LdapServer7setPortEi@Base 4:4.3.4
 _ZN5KLDAP10LdapServer7setUserERK7QString@Base 4:4.3.4
 _ZN5KLDAP10LdapServer8setRealmERK7QString@Base 4:4.3.4
 _ZN5KLDAP10LdapServer8setScopeENS_7LdapUrl5ScopeE@Base 4:4.3.4
 _ZN5KLDAP10LdapServer9setBaseDnERKNS_6LdapDNE@Base 4:4.3.4
 _ZN5KLDAP10LdapServer9setBindDnERK7QString@Base 4:4.3.4
 _ZN5KLDAP10LdapServer9setFilterERK7QString@Base 4:4.3.4
 _ZN5KLDAP10LdapServerC1ERKNS_7LdapUrlE@Base 4:4.3.4
 _ZN5KLDAP10LdapServerC1ERKS0_@Base 4:4.3.4
 _ZN5KLDAP10LdapServerC1Ev@Base 4:4.3.4
 _ZN5KLDAP10LdapServerC2ERKNS_7LdapUrlE@Base 4:4.3.4
 _ZN5KLDAP10LdapServerC2ERKS0_@Base 4:4.3.4
 _ZN5KLDAP10LdapServerC2Ev@Base 4:4.3.4
 _ZN5KLDAP10LdapServerD0Ev@Base 4:4.3.4
 _ZN5KLDAP10LdapServerD1Ev@Base 4:4.3.4
 _ZN5KLDAP10LdapServerD2Ev@Base 4:4.3.4
 _ZN5KLDAP10LdapServeraSERKS0_@Base 4:4.3.4
 _ZN5KLDAP11LdapControl10setControlERK7QStringRK10QByteArrayb@Base 4:4.3.4
 _ZN5KLDAP11LdapControl11setCriticalEb@Base 4:4.3.4
 _ZN5KLDAP11LdapControl17createPageControlEiRK10QByteArray@Base 4:4.3.4
 _ZN5KLDAP11LdapControl6insertER5QListIS0_ERKS0_@Base 4:4.4.0
 _ZN5KLDAP11LdapControl6setOidERK7QString@Base 4:4.3.4
 _ZN5KLDAP11LdapControl8setValueERK10QByteArray@Base 4:4.3.4
 _ZN5KLDAP11LdapControlC1ER7QStringR10QByteArrayb@Base 4:4.3.4
 _ZN5KLDAP11LdapControlC1ERKS0_@Base 4:4.3.4
 _ZN5KLDAP11LdapControlC1Ev@Base 4:4.3.4
 _ZN5KLDAP11LdapControlC2ER7QStringR10QByteArrayb@Base 4:4.3.4
 _ZN5KLDAP11LdapControlC2ERKS0_@Base 4:4.3.4
 _ZN5KLDAP11LdapControlC2Ev@Base 4:4.3.4
 _ZN5KLDAP11LdapControlD0Ev@Base 4:4.3.4
 _ZN5KLDAP11LdapControlD1Ev@Base 4:4.3.4
 _ZN5KLDAP11LdapControlD2Ev@Base 4:4.3.4
 _ZN5KLDAP11LdapControlaSERKS0_@Base 4:4.3.4
 _ZN5KLDAP13LdapOperation10connectionEv@Base 4:4.3.4
 _ZN5KLDAP13LdapOperation13setConnectionERNS_14LdapConnectionE@Base 4:4.3.4
 _ZN5KLDAP13LdapOperation13waitForResultEii@Base 4:4.3.4
 (arch=kfreebsd-amd64 kfreebsd-i386)_ZN5KLDAP13LdapOperation16SASL_CredentialsD1Ev@Base 4:4.8.3
 (arch=kfreebsd-amd64 kfreebsd-i386)_ZN5KLDAP13LdapOperation16SASL_CredentialsD2Ev@Base 4:4.8.3
 _ZN5KLDAP13LdapOperation17setClientControlsERK5QListINS_11LdapControlEE@Base 4:4.3.4
 _ZN5KLDAP13LdapOperation17setServerControlsERK5QListINS_11LdapControlEE@Base 4:4.3.4
 _ZN5KLDAP13LdapOperation20LdapOperationPrivate13processResultEiP7ldapmsg@Base 4:4.3.4
 _ZN5KLDAP13LdapOperation20LdapOperationPrivate4bindERK10QByteArrayPFiRNS0_16SASL_CredentialsEPvES7_b@Base 4:4.3.4
 _ZN5KLDAP13LdapOperation20LdapOperationPrivateC1Ev@Base 4:4.3.4
 _ZN5KLDAP13LdapOperation20LdapOperationPrivateC2Ev@Base 4:4.3.4
 _ZN5KLDAP13LdapOperation20LdapOperationPrivateD1Ev@Base 4:4.3.4
 _ZN5KLDAP13LdapOperation20LdapOperationPrivateD2Ev@Base 4:4.3.4
 _ZN5KLDAP13LdapOperation3addERKNS_10LdapObjectE@Base 4:4.3.4
 _ZN5KLDAP13LdapOperation3addERKNS_6LdapDNERK5QListINS0_5ModOpEE@Base 4:4.3.4
 _ZN5KLDAP13LdapOperation3delERKNS_6LdapDNE@Base 4:4.3.4
 _ZN5KLDAP13LdapOperation4bindERK10QByteArrayPFiRNS0_16SASL_CredentialsEPvES6_@Base 4:4.3.4
 _ZN5KLDAP13LdapOperation4exopERK7QStringRK10QByteArray@Base 4:4.3.4
 _ZN5KLDAP13LdapOperation5add_sERKNS_10LdapObjectE@Base 4:4.3.4
 _ZN5KLDAP13LdapOperation5add_sERKNS_6LdapDNERK5QListINS0_5ModOpEE@Base 4:4.3.4
 _ZN5KLDAP13LdapOperation5del_sERKNS_6LdapDNE@Base 4:4.3.4
 _ZN5KLDAP13LdapOperation6bind_sEPFiRNS0_16SASL_CredentialsEPvES3_@Base 4:4.3.4
 _ZN5KLDAP13LdapOperation6exop_sERK7QStringRK10QByteArray@Base 4:4.3.4
 _ZN5KLDAP13LdapOperation6modifyERKNS_6LdapDNERK5QListINS0_5ModOpEE@Base 4:4.3.4
 _ZN5KLDAP13LdapOperation6renameERKNS_6LdapDNERK7QStringS6_b@Base 4:4.3.4
 _ZN5KLDAP13LdapOperation6searchERKNS_6LdapDNENS_7LdapUrl5ScopeERK7QStringRK11QStringList@Base 4:4.3.4
 _ZN5KLDAP13LdapOperation7abandonEi@Base 4:4.3.4
 _ZN5KLDAP13LdapOperation7compareERKNS_6LdapDNERK7QStringRK10QByteArray@Base 4:4.3.4
 _ZN5KLDAP13LdapOperation8modify_sERKNS_6LdapDNERK5QListINS0_5ModOpEE@Base 4:4.3.4
 _ZN5KLDAP13LdapOperation8rename_sERKNS_6LdapDNERK7QStringS6_b@Base 4:4.3.4
 _ZN5KLDAP13LdapOperation9compare_sERKNS_6LdapDNERK7QStringRK10QByteArray@Base 4:4.3.4
 _ZN5KLDAP13LdapOperationC1ERNS_14LdapConnectionE@Base 4:4.3.4
 _ZN5KLDAP13LdapOperationC1Ev@Base 4:4.3.4
 _ZN5KLDAP13LdapOperationC2ERNS_14LdapConnectionE@Base 4:4.3.4
 _ZN5KLDAP13LdapOperationC2Ev@Base 4:4.3.4
 _ZN5KLDAP13LdapOperationD0Ev@Base 4:4.3.4
 _ZN5KLDAP13LdapOperationD1Ev@Base 4:4.3.4
 _ZN5KLDAP13LdapOperationD2Ev@Base 4:4.3.4
 _ZN5KLDAP14LdapConnection11errorStringEi@Base 4:4.3.4
 _ZN5KLDAP14LdapConnection12setSizeLimitEi@Base 4:4.3.4
 _ZN5KLDAP14LdapConnection12setTimeLimitEi@Base 4:4.3.4
 _ZN5KLDAP14LdapConnection21LdapConnectionPrivateC1Ev@Base 4:4.3.4
 _ZN5KLDAP14LdapConnection21LdapConnectionPrivateC2Ev@Base 4:4.3.4
 _ZN5KLDAP14LdapConnection5closeEv@Base 4:4.3.4
 _ZN5KLDAP14LdapConnection6setUrlERKNS_7LdapUrlE@Base 4:4.3.4
 _ZN5KLDAP14LdapConnection7connectEv@Base 4:4.3.4
 _ZN5KLDAP14LdapConnection9setOptionEiPv@Base 4:4.3.4
 _ZN5KLDAP14LdapConnection9setServerERKNS_10LdapServerE@Base 4:4.3.4
 _ZN5KLDAP14LdapConnectionC1ERKNS_10LdapServerE@Base 4:4.3.4
 _ZN5KLDAP14LdapConnectionC1ERKNS_7LdapUrlE@Base 4:4.3.4
 _ZN5KLDAP14LdapConnectionC1Ev@Base 4:4.3.4
 _ZN5KLDAP14LdapConnectionC2ERKNS_10LdapServerE@Base 4:4.3.4
 _ZN5KLDAP14LdapConnectionC2ERKNS_7LdapUrlE@Base 4:4.3.4
 _ZN5KLDAP14LdapConnectionC2Ev@Base 4:4.3.4
 _ZN5KLDAP14LdapConnectionD0Ev@Base 4:4.3.4
 _ZN5KLDAP14LdapConnectionD1Ev@Base 4:4.3.4
 _ZN5KLDAP14LdapConnectionD2Ev@Base 4:4.3.4
 _ZN5KLDAP16LdapConfigWidget10setVersionEi@Base 4:4.3.4
 _ZN5KLDAP16LdapConfigWidget11qt_metacallEN11QMetaObject4CallEiPPv@Base 4:4.3.4
 _ZN5KLDAP16LdapConfigWidget11qt_metacastEPKc@Base 4:4.3.4
 _ZN5KLDAP16LdapConfigWidget11setFeaturesE6QFlagsINS0_7WinFlagEE@Base 4:4.3.4
 _ZN5KLDAP16LdapConfigWidget11setPageSizeEi@Base 4:4.3.4
 _ZN5KLDAP16LdapConfigWidget11setPasswordERK7QString@Base 4:4.3.4
 _ZN5KLDAP16LdapConfigWidget11setSecurityENS0_8SecurityE@Base 4:4.3.4
 _ZN5KLDAP16LdapConfigWidget12setSizeLimitEi@Base 4:4.3.4
 _ZN5KLDAP16LdapConfigWidget12setTimeLimitEi@Base 4:4.3.4
 _ZN5KLDAP16LdapConfigWidget16staticMetaObjectE@Base 4:4.3.4
 _ZN5KLDAP16LdapConfigWidget5setDnERKNS_6LdapDNE@Base 4:4.3.4
 _ZN5KLDAP16LdapConfigWidget6setUrlERKNS_7LdapUrlE@Base 4:4.3.4
 _ZN5KLDAP16LdapConfigWidget7Private10initWidgetEv@Base 4:4.3.4
 _ZN5KLDAP16LdapConfigWidget7Private10loadResultEPNS_10LdapSearchE@Base 4:4.3.4
 _ZN5KLDAP16LdapConfigWidget7Private11setLDAPPortEv@Base 4:4.3.4
 _ZN5KLDAP16LdapConfigWidget7Private12setAnonymousEb@Base 4:4.3.4
 _ZN5KLDAP16LdapConfigWidget7Private12setLDAPSPortEv@Base 4:4.3.4
 _ZN5KLDAP16LdapConfigWidget7Private14queryDNClickedEv@Base 4:4.3.4
 _ZN5KLDAP16LdapConfigWidget7Private16queryMechClickedEv@Base 4:4.3.4
 _ZN5KLDAP16LdapConfigWidget7Private7setSASLEb@Base 4:4.3.4
 _ZN5KLDAP16LdapConfigWidget7Private8loadDataEPNS_10LdapSearchERKNS_10LdapObjectE@Base 4:4.3.4
 _ZN5KLDAP16LdapConfigWidget7Private9sendQueryEv@Base 4:4.3.4
 _ZN5KLDAP16LdapConfigWidget7Private9setSimpleEb@Base 4:4.3.4
 _ZN5KLDAP16LdapConfigWidget7setAuthENS0_4AuthE@Base 4:4.3.4
 _ZN5KLDAP16LdapConfigWidget7setHostERK7QString@Base 4:4.3.4
 _ZN5KLDAP16LdapConfigWidget7setMechERK7QString@Base 4:4.3.4
 _ZN5KLDAP16LdapConfigWidget7setPortEi@Base 4:4.3.4
 _ZN5KLDAP16LdapConfigWidget7setUserERK7QString@Base 4:4.3.4
 _ZN5KLDAP16LdapConfigWidget8setRealmERK7QString@Base 4:4.3.4
 _ZN5KLDAP16LdapConfigWidget9setBindDnERK7QString@Base 4:4.3.4
 _ZN5KLDAP16LdapConfigWidget9setFilterERK7QString@Base 4:4.3.4
 _ZN5KLDAP16LdapConfigWidget9setServerERKNS_10LdapServerE@Base 4:4.3.4
 _ZN5KLDAP16LdapConfigWidgetC1E6QFlagsINS0_7WinFlagEEP7QWidgetS1_IN2Qt10WindowTypeEE@Base 4:4.3.4
 _ZN5KLDAP16LdapConfigWidgetC1EP7QWidget6QFlagsIN2Qt10WindowTypeEE@Base 4:4.3.4
 _ZN5KLDAP16LdapConfigWidgetC2E6QFlagsINS0_7WinFlagEEP7QWidgetS1_IN2Qt10WindowTypeEE@Base 4:4.3.4
 _ZN5KLDAP16LdapConfigWidgetC2EP7QWidget6QFlagsIN2Qt10WindowTypeEE@Base 4:4.3.4
 _ZN5KLDAP16LdapConfigWidgetD0Ev@Base 4:4.3.4
 _ZN5KLDAP16LdapConfigWidgetD1Ev@Base 4:4.3.4
 _ZN5KLDAP16LdapConfigWidgetD2Ev@Base 4:4.3.4
 _ZN5KLDAP23LdapAttributeProxyModel10insertRowsEiiRK11QModelIndex@Base 4:4.3.4
 _ZN5KLDAP23LdapAttributeProxyModel10removeRowsEiiRK11QModelIndex@Base 4:4.3.4
 _ZN5KLDAP23LdapAttributeProxyModel11qt_metacallEN11QMetaObject4CallEiPPv@Base 4:4.3.4
 _ZN5KLDAP23LdapAttributeProxyModel11qt_metacastEPKc@Base 4:4.3.4
 _ZN5KLDAP23LdapAttributeProxyModel12dropMimeDataEPK9QMimeDataN2Qt10DropActionEiiRK11QModelIndex@Base 4:4.3.4
 _ZN5KLDAP23LdapAttributeProxyModel16staticMetaObjectE@Base 4:4.3.4
 _ZN5KLDAP23LdapAttributeProxyModel30LdapAttributeProxyModelPrivateC1Ev@Base 4:4.3.4
 _ZN5KLDAP23LdapAttributeProxyModel30LdapAttributeProxyModelPrivateC2Ev@Base 4:4.3.4
 _ZN5KLDAP23LdapAttributeProxyModel4sortEiN2Qt9SortOrderE@Base 4:4.3.4
 _ZN5KLDAP23LdapAttributeProxyModel7setDataERK11QModelIndexRK8QVarianti@Base 4:4.3.4
 _ZN5KLDAP23LdapAttributeProxyModelC1EP7QObject@Base 4:4.3.4
 _ZN5KLDAP23LdapAttributeProxyModelC2EP7QObject@Base 4:4.3.4
 _ZN5KLDAP23LdapAttributeProxyModelD0Ev@Base 4:4.3.4
 _ZN5KLDAP23LdapAttributeProxyModelD1Ev@Base 4:4.3.4
 _ZN5KLDAP23LdapAttributeProxyModelD2Ev@Base 4:4.3.4
 _ZN5KLDAP23LdapStructureProxyModel10insertRowsEiiRK11QModelIndex@Base 4:4.3.4
 _ZN5KLDAP23LdapStructureProxyModel10removeRowsEiiRK11QModelIndex@Base 4:4.3.4
 _ZN5KLDAP23LdapStructureProxyModel11qt_metacallEN11QMetaObject4CallEiPPv@Base 4:4.3.4
 _ZN5KLDAP23LdapStructureProxyModel11qt_metacastEPKc@Base 4:4.3.4
 _ZN5KLDAP23LdapStructureProxyModel12dropMimeDataEPK9QMimeDataN2Qt10DropActionEiiRK11QModelIndex@Base 4:4.3.4
 _ZN5KLDAP23LdapStructureProxyModel16staticMetaObjectE@Base 4:4.3.4
 _ZN5KLDAP23LdapStructureProxyModel30LdapStructureProxyModelPrivateC1Ev@Base 4:4.3.4
 _ZN5KLDAP23LdapStructureProxyModel30LdapStructureProxyModelPrivateC2Ev@Base 4:4.3.4
 _ZN5KLDAP23LdapStructureProxyModel4sortEiN2Qt9SortOrderE@Base 4:4.3.4
 _ZN5KLDAP23LdapStructureProxyModel7setDataERK11QModelIndexRK8QVarianti@Base 4:4.3.4
 _ZN5KLDAP23LdapStructureProxyModelC1EP7QObject@Base 4:4.3.4
 _ZN5KLDAP23LdapStructureProxyModelC2EP7QObject@Base 4:4.3.4
 _ZN5KLDAP23LdapStructureProxyModelD0Ev@Base 4:4.3.4
 _ZN5KLDAP23LdapStructureProxyModelD1Ev@Base 4:4.3.4
 _ZN5KLDAP23LdapStructureProxyModelD2Ev@Base 4:4.3.4
 _ZN5KLDAP3Ber5scanfERK7QStringz@Base 4:4.3.4
 _ZN5KLDAP3Ber6printfERK7QStringz@Base 4:4.3.4
 _ZN5KLDAP3Ber7peekTagERi@Base 4:4.3.4
 _ZN5KLDAP3Ber7skipTagERi@Base 4:4.3.4
 _ZN5KLDAP3BerC1ERK10QByteArray@Base 4:4.3.4
 _ZN5KLDAP3BerC1ERKS0_@Base 4:4.3.4
 _ZN5KLDAP3BerC1Ev@Base 4:4.3.4
 _ZN5KLDAP3BerC2ERK10QByteArray@Base 4:4.3.4
 _ZN5KLDAP3BerC2ERKS0_@Base 4:4.3.4
 _ZN5KLDAP3BerC2Ev@Base 4:4.3.4
 _ZN5KLDAP3BerD0Ev@Base 4:4.3.4
 _ZN5KLDAP3BerD1Ev@Base 4:4.3.4
 _ZN5KLDAP3BerD2Ev@Base 4:4.3.4
 _ZN5KLDAP3BeraSERKS0_@Base 4:4.3.4
 _ZN5KLDAP4Ldif11processLineEv@Base 4:4.3.4
 _ZN5KLDAP4Ldif12assembleLineERK7QStringRK10QByteArrayjb@Base 4:4.3.4
 _ZN5KLDAP4Ldif12assembleLineERK7QStringS3_jb@Base 4:4.3.4
 _ZN5KLDAP4Ldif12splitControlERK10QByteArrayR7QStringRbRS1_@Base 4:4.3.4
 _ZN5KLDAP4Ldif12startParsingEv@Base 4:4.3.4
 _ZN5KLDAP4Ldif7endLdifEv@Base 4:4.3.4
 _ZN5KLDAP4Ldif7setLdifERK10QByteArray@Base 4:4.3.4
 _ZN5KLDAP4Ldif8nextItemEv@Base 4:4.3.4
 _ZN5KLDAP4Ldif9splitLineERK10QByteArrayR7QStringRS1_@Base 4:4.3.4
 _ZN5KLDAP4LdifC1ERKS0_@Base 4:4.3.4
 _ZN5KLDAP4LdifC1Ev@Base 4:4.3.4
 _ZN5KLDAP4LdifC2ERKS0_@Base 4:4.3.4
 _ZN5KLDAP4LdifC2Ev@Base 4:4.3.4
 _ZN5KLDAP4LdifD0Ev@Base 4:4.3.4
 _ZN5KLDAP4LdifD1Ev@Base 4:4.3.4
 _ZN5KLDAP4LdifD2Ev@Base 4:4.3.4
 _ZN5KLDAP4LdifaSERKS0_@Base 4:4.3.4
 _ZN5KLDAP6LdapDN5clearEv@Base 4:4.3.4
 _ZN5KLDAP6LdapDNC1ERK7QString@Base 4:4.3.4
 _ZN5KLDAP6LdapDNC1ERKS0_@Base 4:4.3.4
 _ZN5KLDAP6LdapDNC1Ev@Base 4:4.3.4
 _ZN5KLDAP6LdapDNC2ERK7QString@Base 4:4.3.4
 _ZN5KLDAP6LdapDNC2ERKS0_@Base 4:4.3.4
 _ZN5KLDAP6LdapDNC2Ev@Base 4:4.3.4
 _ZN5KLDAP6LdapDND1Ev@Base 4:4.3.4
 _ZN5KLDAP6LdapDND2Ev@Base 4:4.3.4
 _ZN5KLDAP6LdapDNaSERKS0_@Base 4:4.3.4
 _ZN5KLDAP7LdapUrl10parseQueryEv@Base 4:4.3.4
 _ZN5KLDAP7LdapUrl11updateQueryEv@Base 4:4.3.4
 _ZN5KLDAP7LdapUrl12setExtensionERK7QStringRKNS0_9ExtensionE@Base 4:4.3.4
 _ZN5KLDAP7LdapUrl12setExtensionERK7QStringS3_b@Base 4:4.3.4
 _ZN5KLDAP7LdapUrl12setExtensionERK7QStringib@Base 4:4.3.4
 _ZN5KLDAP7LdapUrl13setAttributesERK11QStringList@Base 4:4.3.4
 _ZN5KLDAP7LdapUrl15removeExtensionERK7QString@Base 4:4.3.4
 _ZN5KLDAP7LdapUrl5setDnERKNS_6LdapDNE@Base 4:4.3.4
 _ZN5KLDAP7LdapUrl8setScopeENS0_5ScopeE@Base 4:4.3.4
 _ZN5KLDAP7LdapUrl9setFilterERK7QString@Base 4:4.3.4
 _ZN5KLDAP7LdapUrlC1ERK4KUrl@Base 4:4.3.4
 _ZN5KLDAP7LdapUrlC1ERKS0_@Base 4:4.3.4
 _ZN5KLDAP7LdapUrlC1Ev@Base 4:4.3.4
 _ZN5KLDAP7LdapUrlC2ERK4KUrl@Base 4:4.3.4
 _ZN5KLDAP7LdapUrlC2ERKS0_@Base 4:4.3.4
 _ZN5KLDAP7LdapUrlC2Ev@Base 4:4.3.4
 _ZN5KLDAP7LdapUrlD0Ev@Base 4:4.3.4
 _ZN5KLDAP7LdapUrlD1Ev@Base 4:4.3.4
 _ZN5KLDAP7LdapUrlD2Ev@Base 4:4.3.4
 _ZN5KLDAP7LdapUrlaSERKS0_@Base 4:4.3.4
 _ZN5KLDAP9LdapModel10insertRowsEiiRK11QModelIndex@Base 4:4.3.4
 _ZN5KLDAP9LdapModel10removeRowsEiiRK11QModelIndex@Base 4:4.3.4
 _ZN5KLDAP9LdapModel11qt_metacallEN11QMetaObject4CallEiPPv@Base 4:4.3.4
 _ZN5KLDAP9LdapModel11qt_metacastEPKc@Base 4:4.3.4
 _ZN5KLDAP9LdapModel12dropMimeDataEPK9QMimeDataN2Qt10DropActionEiiRK11QModelIndex@Base 4:4.3.4
 _ZN5KLDAP9LdapModel13setConnectionERNS_14LdapConnectionE@Base 4:4.3.4
 _ZN5KLDAP9LdapModel16LdapModelPrivate13gotSearchDataEPNS_10LdapSearchERKNS_10LdapObjectE@Base 4:4.3.4
 _ZN5KLDAP9LdapModel16LdapModelPrivate13setConnectionERNS_14LdapConnectionE@Base 4:4.3.4
 _ZN5KLDAP9LdapModel16LdapModelPrivate13setSearchTypeENS1_10SearchTypeEPNS_15LdapModelDNNodeE@Base 4:4.3.4
 _ZN5KLDAP9LdapModel16LdapModelPrivate15gotSearchResultEPNS_10LdapSearchE@Base 4:4.3.4
 _ZN5KLDAP9LdapModel16LdapModelPrivate16recreateRootItemEv@Base 4:4.3.4
 _ZN5KLDAP9LdapModel16LdapModelPrivate17createConnectionsEv@Base 4:4.3.4
 _ZN5KLDAP9LdapModel16LdapModelPrivate20populateRootToBaseDNEv@Base 4:4.3.4
 _ZN5KLDAP9LdapModel16LdapModelPrivate6searchERKNS_6LdapDNENS_7LdapUrl5ScopeERK7QStringRK11QStringListi@Base 4:4.3.4
 _ZN5KLDAP9LdapModel16LdapModelPrivateC1EPS0_@Base 4:4.3.4
 _ZN5KLDAP9LdapModel16LdapModelPrivateC1EPS0_RNS_14LdapConnectionE@Base 4:4.3.4
 _ZN5KLDAP9LdapModel16LdapModelPrivateC2EPS0_@Base 4:4.3.4
 _ZN5KLDAP9LdapModel16LdapModelPrivateC2EPS0_RNS_14LdapConnectionE@Base 4:4.3.4
 _ZN5KLDAP9LdapModel16LdapModelPrivateD1Ev@Base 4:4.3.4
 _ZN5KLDAP9LdapModel16LdapModelPrivateD2Ev@Base 4:4.3.4
 _ZN5KLDAP9LdapModel16staticMetaObjectE@Base 4:4.3.4
 _ZN5KLDAP9LdapModel4sortEiN2Qt9SortOrderE@Base 4:4.3.4
 _ZN5KLDAP9LdapModel5readyEv@Base 4:4.3.4
 _ZN5KLDAP9LdapModel6revertEv@Base 4:4.3.4
 _ZN5KLDAP9LdapModel6submitEv@Base 4:4.3.4
 _ZN5KLDAP9LdapModel7setDataERK11QModelIndexRK8QVarianti@Base 4:4.3.4
 _ZN5KLDAP9LdapModel9fetchMoreERK11QModelIndex@Base 4:4.3.4
 _ZN5KLDAP9LdapModelC1EP7QObject@Base 4:4.3.4
 _ZN5KLDAP9LdapModelC1ERNS_14LdapConnectionEP7QObject@Base 4:4.3.4
 _ZN5KLDAP9LdapModelC2EP7QObject@Base 4:4.3.4
 _ZN5KLDAP9LdapModelC2ERNS_14LdapConnectionEP7QObject@Base 4:4.3.4
 _ZN5KLDAP9LdapModelD0Ev@Base 4:4.3.4
 _ZN5KLDAP9LdapModelD1Ev@Base 4:4.3.4
 _ZN5KLDAP9LdapModelD2Ev@Base 4:4.3.4
 _ZNK5KLDAP10LdapObject10attributesEv@Base 4:4.3.4
 _ZNK5KLDAP10LdapObject12hasAttributeERK7QString@Base 4:4.3.4
 _ZNK5KLDAP10LdapObject2dnEv@Base 4:4.3.4
 _ZNK5KLDAP10LdapObject5valueERK7QString@Base 4:4.3.4
 _ZNK5KLDAP10LdapObject6valuesERK7QString@Base 4:4.3.4
 _ZNK5KLDAP10LdapObject8toStringEv@Base 4:4.3.4
 _ZNK5KLDAP10LdapSearch10metaObjectEv@Base 4:4.3.4
 _ZNK5KLDAP10LdapSearch11errorStringEv@Base 4:4.3.4
 _ZNK5KLDAP10LdapSearch5errorEv@Base 4:4.3.4
 _ZNK5KLDAP10LdapServer3urlEv@Base 4:4.3.4
 _ZNK5KLDAP10LdapServer4authEv@Base 4:4.3.4
 _ZNK5KLDAP10LdapServer4hostEv@Base 4:4.3.4
 _ZNK5KLDAP10LdapServer4mechEv@Base 4:4.3.4
 _ZNK5KLDAP10LdapServer4portEv@Base 4:4.3.4
 _ZNK5KLDAP10LdapServer4userEv@Base 4:4.3.4
 _ZNK5KLDAP10LdapServer5realmEv@Base 4:4.3.4
 _ZNK5KLDAP10LdapServer5scopeEv@Base 4:4.3.4
 _ZNK5KLDAP10LdapServer6baseDnEv@Base 4:4.3.4
 _ZNK5KLDAP10LdapServer6bindDnEv@Base 4:4.3.4
 _ZNK5KLDAP10LdapServer6filterEv@Base 4:4.3.4
 _ZNK5KLDAP10LdapServer7timeoutEv@Base 4:4.3.4
 _ZNK5KLDAP10LdapServer7versionEv@Base 4:4.3.4
 _ZNK5KLDAP10LdapServer8pageSizeEv@Base 4:4.3.4
 _ZNK5KLDAP10LdapServer8passwordEv@Base 4:4.3.4
 _ZNK5KLDAP10LdapServer8securityEv@Base 4:4.3.4
 _ZNK5KLDAP10LdapServer9sizeLimitEv@Base 4:4.3.4
 _ZNK5KLDAP10LdapServer9timeLimitEv@Base 4:4.3.4
 _ZNK5KLDAP11LdapControl16parsePageControlER10QByteArray@Base 4:4.3.4
 _ZNK5KLDAP11LdapControl3oidEv@Base 4:4.3.4
 _ZNK5KLDAP11LdapControl5valueEv@Base 4:4.3.4
 _ZNK5KLDAP11LdapControl8criticalEv@Base 4:4.3.4
 _ZNK5KLDAP13LdapOperation10serverCredEv@Base 4:4.3.4
 _ZNK5KLDAP13LdapOperation11extendedOidEv@Base 4:4.3.4
 _ZNK5KLDAP13LdapOperation12extendedDataEv@Base 4:4.3.4
 _ZNK5KLDAP13LdapOperation14clientControlsEv@Base 4:4.3.4
 _ZNK5KLDAP13LdapOperation14serverControlsEv@Base 4:4.3.4
 _ZNK5KLDAP13LdapOperation6objectEv@Base 4:4.3.4
 _ZNK5KLDAP13LdapOperation8controlsEv@Base 4:4.3.4
 _ZNK5KLDAP13LdapOperation9matchedDnEv@Base 4:4.3.4
 _ZNK5KLDAP13LdapOperation9referralsEv@Base 4:4.3.4
 _ZNK5KLDAP14LdapConnection10saslHandleEv@Base 4:4.3.4
 _ZNK5KLDAP14LdapConnection13ldapErrorCodeEv@Base 4:4.3.4
 _ZNK5KLDAP14LdapConnection15connectionErrorEv@Base 4:4.3.4
 _ZNK5KLDAP14LdapConnection15ldapErrorStringEv@Base 4:4.3.4
 _ZNK5KLDAP14LdapConnection15saslErrorStringEv@Base 4:4.3.4
 _ZNK5KLDAP14LdapConnection6handleEv@Base 4:4.3.4
 _ZNK5KLDAP14LdapConnection6serverEv@Base 4:4.3.4
 _ZNK5KLDAP14LdapConnection9getOptionEiPv@Base 4:4.3.4
 _ZNK5KLDAP14LdapConnection9sizeLimitEv@Base 4:4.3.4
 _ZNK5KLDAP14LdapConnection9timeLimitEv@Base 4:4.3.4
 _ZNK5KLDAP16LdapConfigWidget10metaObjectEv@Base 4:4.3.4
 _ZNK5KLDAP16LdapConfigWidget2dnEv@Base 4:4.3.4
 _ZNK5KLDAP16LdapConfigWidget3urlEv@Base 4:4.3.4
 _ZNK5KLDAP16LdapConfigWidget4authEv@Base 4:4.3.4
 _ZNK5KLDAP16LdapConfigWidget4hostEv@Base 4:4.3.4
 _ZNK5KLDAP16LdapConfigWidget4mechEv@Base 4:4.3.4
 _ZNK5KLDAP16LdapConfigWidget4portEv@Base 4:4.3.4
 _ZNK5KLDAP16LdapConfigWidget4userEv@Base 4:4.3.4
 _ZNK5KLDAP16LdapConfigWidget5realmEv@Base 4:4.3.4
 _ZNK5KLDAP16LdapConfigWidget6bindDnEv@Base 4:4.3.4
 _ZNK5KLDAP16LdapConfigWidget6filterEv@Base 4:4.3.4
 _ZNK5KLDAP16LdapConfigWidget6serverEv@Base 4:4.3.4
 _ZNK5KLDAP16LdapConfigWidget7versionEv@Base 4:4.3.4
 _ZNK5KLDAP16LdapConfigWidget8featuresEv@Base 4:4.3.4
 _ZNK5KLDAP16LdapConfigWidget8pageSizeEv@Base 4:4.3.4
 _ZNK5KLDAP16LdapConfigWidget8passwordEv@Base 4:4.3.4
 _ZNK5KLDAP16LdapConfigWidget8securityEv@Base 4:4.3.4
 _ZNK5KLDAP16LdapConfigWidget9sizeLimitEv@Base 4:4.3.4
 _ZNK5KLDAP16LdapConfigWidget9timeLimitEv@Base 4:4.3.4
 _ZNK5KLDAP23LdapAttributeProxyModel10headerDataEiN2Qt11OrientationEi@Base 4:4.3.4
 _ZNK5KLDAP23LdapAttributeProxyModel10metaObjectEv@Base 4:4.3.4
 _ZNK5KLDAP23LdapAttributeProxyModel11columnCountERK11QModelIndex@Base 4:4.3.4
 _ZNK5KLDAP23LdapAttributeProxyModel11hasChildrenERK11QModelIndex@Base 4:4.3.4
 _ZNK5KLDAP23LdapAttributeProxyModel11mapToSourceERK11QModelIndex@Base 4:4.3.4
 _ZNK5KLDAP23LdapAttributeProxyModel13mapFromSourceERK11QModelIndex@Base 4:4.3.4
 _ZNK5KLDAP23LdapAttributeProxyModel16filterAcceptsRowEiRK11QModelIndex@Base 4:4.3.4
 _ZNK5KLDAP23LdapAttributeProxyModel20supportedDropActionsEv@Base 4:4.3.4
 _ZNK5KLDAP23LdapAttributeProxyModel4dataERK11QModelIndexi@Base 4:4.3.4
 _ZNK5KLDAP23LdapAttributeProxyModel5flagsERK11QModelIndex@Base 4:4.3.4
 _ZNK5KLDAP23LdapAttributeProxyModel8mimeDataERK5QListI11QModelIndexE@Base 4:4.3.4
 _ZNK5KLDAP23LdapStructureProxyModel10headerDataEiN2Qt11OrientationEi@Base 4:4.3.4
 _ZNK5KLDAP23LdapStructureProxyModel10metaObjectEv@Base 4:4.3.4
 _ZNK5KLDAP23LdapStructureProxyModel11columnCountERK11QModelIndex@Base 4:4.3.4
 _ZNK5KLDAP23LdapStructureProxyModel11hasChildrenERK11QModelIndex@Base 4:4.3.4
 _ZNK5KLDAP23LdapStructureProxyModel11mapToSourceERK11QModelIndex@Base 4:4.3.4
 _ZNK5KLDAP23LdapStructureProxyModel13mapFromSourceERK11QModelIndex@Base 4:4.3.4
 _ZNK5KLDAP23LdapStructureProxyModel16filterAcceptsRowEiRK11QModelIndex@Base 4:4.3.4
 _ZNK5KLDAP23LdapStructureProxyModel20supportedDropActionsEv@Base 4:4.3.4
 _ZNK5KLDAP23LdapStructureProxyModel4dataERK11QModelIndexi@Base 4:4.3.4
 _ZNK5KLDAP23LdapStructureProxyModel5flagsERK11QModelIndex@Base 4:4.3.4
 _ZNK5KLDAP23LdapStructureProxyModel8mimeDataERK5QListI11QModelIndexE@Base 4:4.3.4
 _ZNK5KLDAP3Ber7flattenEv@Base 4:4.3.4
 _ZNK5KLDAP4Ldif10isCriticalEv@Base 4:4.3.4
 _ZNK5KLDAP4Ldif10lineNumberEv@Base 4:4.3.4
 _ZNK5KLDAP4Ldif11newSuperiorEv@Base 4:4.3.4
 _ZNK5KLDAP4Ldif2dnEv@Base 4:4.3.4
 _ZNK5KLDAP4Ldif3oidEv@Base 4:4.3.4
 _ZNK5KLDAP4Ldif4attrEv@Base 4:4.3.4
 _ZNK5KLDAP4Ldif5isUrlEv@Base 4:4.3.4
 _ZNK5KLDAP4Ldif5valueEv@Base 4:4.3.4
 _ZNK5KLDAP4Ldif6newRdnEv@Base 4:4.3.4
 _ZNK5KLDAP4Ldif7modTypeEv@Base 4:4.3.4
 _ZNK5KLDAP4Ldif9delOldRdnEv@Base 4:4.3.4
 _ZNK5KLDAP4Ldif9entryTypeEv@Base 4:4.3.4
 _ZNK5KLDAP6LdapDN13LdapDNPrivate16isValidRDNStringERK7QString@Base 4:4.3.4
 _ZNK5KLDAP6LdapDN13LdapDNPrivate21splitOnNonEscapedCharERK7QStringRK5QChar@Base 4:4.3.4
 _ZNK5KLDAP6LdapDN5depthEv@Base 4:4.3.4
 _ZNK5KLDAP6LdapDN7isEmptyEv@Base 4:4.3.4
 _ZNK5KLDAP6LdapDN7isValidEv@Base 4:4.3.4
 _ZNK5KLDAP6LdapDN8toStringEi@Base 4:4.3.4
 _ZNK5KLDAP6LdapDN8toStringEv@Base 4:4.3.4
 _ZNK5KLDAP6LdapDN9rdnStringEi@Base 4:4.3.4
 _ZNK5KLDAP6LdapDN9rdnStringEv@Base 4:4.3.4
 _ZNK5KLDAP6LdapDNeqERKS0_@Base 4:4.3.4
 _ZNK5KLDAP6LdapDNneERKS0_@Base 4:4.3.4
 _ZNK5KLDAP7LdapUrl10attributesEv@Base 4:4.3.4
 _ZNK5KLDAP7LdapUrl12hasExtensionERK7QString@Base 4:4.3.4
 _ZNK5KLDAP7LdapUrl2dnEv@Base 4:4.3.4
 _ZNK5KLDAP7LdapUrl5scopeEv@Base 4:4.3.4
 _ZNK5KLDAP7LdapUrl6filterEv@Base 4:4.3.4
 _ZNK5KLDAP7LdapUrl9extensionERK7QString@Base 4:4.3.4
 _ZNK5KLDAP7LdapUrl9extensionERK7QStringRb@Base 4:4.3.4
 _ZNK5KLDAP9LdapModel10headerDataEiN2Qt11OrientationEi@Base 4:4.3.4
 _ZNK5KLDAP9LdapModel10metaObjectEv@Base 4:4.3.4
 _ZNK5KLDAP9LdapModel11columnCountERK11QModelIndex@Base 4:4.3.4
 _ZNK5KLDAP9LdapModel11hasChildrenERK11QModelIndex@Base 4:4.3.4
 _ZNK5KLDAP9LdapModel12canFetchMoreERK11QModelIndex@Base 4:4.3.4
 _ZNK5KLDAP9LdapModel17hasChildrenOfTypeERK11QModelIndexNS0_12LdapDataTypeE@Base 4:4.3.4
 _ZNK5KLDAP9LdapModel20supportedDropActionsEv@Base 4:4.3.4
 _ZNK5KLDAP9LdapModel4dataERK11QModelIndexi@Base 4:4.3.4
 _ZNK5KLDAP9LdapModel5flagsERK11QModelIndex@Base 4:4.3.4
 _ZNK5KLDAP9LdapModel5indexEiiRK11QModelIndex@Base 4:4.3.4
 _ZNK5KLDAP9LdapModel6parentERK11QModelIndex@Base 4:4.3.4
 _ZNK5KLDAP9LdapModel8mimeDataERK5QListI11QModelIndexE@Base 4:4.3.4
 _ZNK5KLDAP9LdapModel8rowCountERK11QModelIndex@Base 4:4.3.4
 _ZTI4KUrl@Base 4:4.3.4
 _ZTIN5KLDAP10LdapObjectE@Base 4:4.3.4
 _ZTIN5KLDAP10LdapSearchE@Base 4:4.3.4
 _ZTIN5KLDAP10LdapServerE@Base 4:4.3.4
 _ZTIN5KLDAP11LdapControlE@Base 4:4.3.4
 _ZTIN5KLDAP13LdapOperationE@Base 4:4.3.4
 _ZTIN5KLDAP14LdapConnectionE@Base 4:4.3.4
 _ZTIN5KLDAP16LdapConfigWidgetE@Base 4:4.3.4
 _ZTIN5KLDAP23LdapAttributeProxyModelE@Base 4:4.3.4
 _ZTIN5KLDAP23LdapStructureProxyModelE@Base 4:4.3.4
 _ZTIN5KLDAP3BerE@Base 4:4.3.4
 _ZTIN5KLDAP4LdifE@Base 4:4.3.4
 _ZTIN5KLDAP7LdapUrlE@Base 4:4.3.4
 _ZTIN5KLDAP9LdapModelE@Base 4:4.3.4
 _ZTS4KUrl@Base 4:4.3.4
 _ZTSN5KLDAP10LdapObjectE@Base 4:4.3.4
 _ZTSN5KLDAP10LdapSearchE@Base 4:4.3.4
 _ZTSN5KLDAP10LdapServerE@Base 4:4.3.4
 _ZTSN5KLDAP11LdapControlE@Base 4:4.3.4
 _ZTSN5KLDAP13LdapOperationE@Base 4:4.3.4
 _ZTSN5KLDAP14LdapConnectionE@Base 4:4.3.4
 _ZTSN5KLDAP16LdapConfigWidgetE@Base 4:4.3.4
 _ZTSN5KLDAP23LdapAttributeProxyModelE@Base 4:4.3.4
 _ZTSN5KLDAP23LdapStructureProxyModelE@Base 4:4.3.4
 _ZTSN5KLDAP3BerE@Base 4:4.3.4
 _ZTSN5KLDAP4LdifE@Base 4:4.3.4
 _ZTSN5KLDAP7LdapUrlE@Base 4:4.3.4
 _ZTSN5KLDAP9LdapModelE@Base 4:4.3.4
 _ZTVN5KLDAP10LdapObjectE@Base 4:4.3.4
 _ZTVN5KLDAP10LdapSearchE@Base 4:4.3.4
 _ZTVN5KLDAP10LdapServerE@Base 4:4.3.4
 _ZTVN5KLDAP11LdapControlE@Base 4:4.3.4
 _ZTVN5KLDAP13LdapOperationE@Base 4:4.3.4
 _ZTVN5KLDAP14LdapConnectionE@Base 4:4.3.4
 _ZTVN5KLDAP16LdapConfigWidgetE@Base 4:4.3.4
 _ZTVN5KLDAP23LdapAttributeProxyModelE@Base 4:4.3.4
 _ZTVN5KLDAP23LdapStructureProxyModelE@Base 4:4.3.4
 _ZTVN5KLDAP3BerE@Base 4:4.3.4
 _ZTVN5KLDAP4LdifE@Base 4:4.3.4
 _ZTVN5KLDAP7LdapUrlE@Base 4:4.3.4
 _ZTVN5KLDAP9LdapModelE@Base 4:4.3.4
 (c++)"non-virtual thunk to KLDAP::LdapConfigWidget::~LdapConfigWidget()@Base" 4:4.3.4
