# SymbolsHelper-Confirmed: 4:4.6.5 amd64
libkresources.so.4 libkresources4 #MINVER#, kdepim-runtime
* Build-Depends-Package: kdepimlibs5-dev
 _ZN4KRES10ConfigPage10slotRemoveEv@Base 4:4.3.4
 _ZN4KRES10ConfigPage11qt_metacallEN11QMetaObject4CallEiPPv@Base 4:4.3.4
 _ZN4KRES10ConfigPage11qt_metacastEPKc@Base 4:4.3.4
 _ZN4KRES10ConfigPage12slotStandardEv@Base 4:4.3.4
 _ZN4KRES10ConfigPage13resourceAddedEPNS_8ResourceE@Base 4:4.3.4
 _ZN4KRES10ConfigPage15resourceDeletedEPNS_8ResourceE@Base 4:4.3.4
 _ZN4KRES10ConfigPage15slotItemClickedEP15QTreeWidgetItem@Base 4:4.3.4
 _ZN4KRES10ConfigPage16resourceModifiedEPNS_8ResourceE@Base 4:4.3.4
 _ZN4KRES10ConfigPage16staticMetaObjectE@Base 4:4.3.4
 _ZN4KRES10ConfigPage17slotFamilyChangedEi@Base 4:4.3.4
 _ZN4KRES10ConfigPage20slotSelectionChangedEv@Base 4:4.3.4
 _ZN4KRES10ConfigPage4loadEv@Base 4:4.3.4
 _ZN4KRES10ConfigPage4saveEv@Base 4:4.3.4
 _ZN4KRES10ConfigPage7Private11loadManagerERK7QStringPS0_@Base 4:4.3.4
 _ZN4KRES10ConfigPage7Private20saveResourceSettingsEPS0_@Base 4:4.3.4
 _ZN4KRES10ConfigPage7changedEb@Base 4:4.3.4
 _ZN4KRES10ConfigPage7slotAddEv@Base 4:4.3.4
 _ZN4KRES10ConfigPage8defaultsEv@Base 4:4.3.4
 _ZN4KRES10ConfigPage8findItemEPNS_8ResourceE@Base 4:4.3.4
 _ZN4KRES10ConfigPage8slotEditEv@Base 4:4.3.4
 _ZN4KRES10ConfigPageC1EP7QWidget@Base 4:4.3.4
 _ZN4KRES10ConfigPageC2EP7QWidget@Base 4:4.3.4
 _ZN4KRES10ConfigPageD0Ev@Base 4:4.3.4
 _ZN4KRES10ConfigPageD1Ev@Base 4:4.3.4
 _ZN4KRES10ConfigPageD2Ev@Base 4:4.3.4
 _ZN4KRES11ManagerImpl10readConfigEP7KConfig@Base 4:4.3.4
 _ZN4KRES11ManagerImpl11getResourceERK7QString@Base 4:4.3.4
 _ZN4KRES11ManagerImpl11qt_metacallEN11QMetaObject4CallEiPPv@Base 4:4.3.4
 _ZN4KRES11ManagerImpl11qt_metacastEPKc@Base 4:4.3.4
 _ZN4KRES11ManagerImpl11writeConfigEP7KConfig@Base 4:4.3.4
 _ZN4KRES11ManagerImpl12resourceListEv@Base 4:4.3.4
 _ZN4KRES11ManagerImpl13resourceNamesEv@Base 4:4.3.4
 _ZN4KRES11ManagerImpl14removeResourceEPNS_8ResourceE@Base 4:4.3.4
 _ZN4KRES11ManagerImpl16standardResourceEv@Base 4:4.3.4
 _ZN4KRES11ManagerImpl16staticMetaObjectE@Base 4:4.3.4
 _ZN4KRES11ManagerImpl17defaultConfigFileERK7QString@Base 4:4.3.4
 _ZN4KRES11ManagerImpl18dbusKResourceAddedERK7QStringS3_@Base 4:4.3.4
 _ZN4KRES11ManagerImpl18readResourceConfigERK7QStringb@Base 4:4.3.4
 _ZN4KRES11ManagerImpl19setStandardResourceEPNS_8ResourceE@Base 4:4.3.4
 _ZN4KRES11ManagerImpl19writeResourceConfigEPNS_8ResourceEb@Base 4:4.3.4
 _ZN4KRES11ManagerImpl20createStandardConfigEv@Base 4:4.3.4
 _ZN4KRES11ManagerImpl20dbusKResourceDeletedERK7QStringS3_@Base 4:4.3.4
 _ZN4KRES11ManagerImpl20signalKResourceAddedE7QStringS1_@Base 4:4.3.4
 _ZN4KRES11ManagerImpl21dbusKResourceModifiedERK7QStringS3_@Base 4:4.3.4
 _ZN4KRES11ManagerImpl22signalKResourceDeletedE7QStringS1_@Base 4:4.3.4
 _ZN4KRES11ManagerImpl23signalKResourceModifiedE7QStringS1_@Base 4:4.3.4
 _ZN4KRES11ManagerImpl3addEPNS_8ResourceE@Base 4:4.3.4
 _ZN4KRES11ManagerImpl6changeEPNS_8ResourceE@Base 4:4.3.4
 _ZN4KRES11ManagerImpl6removeEPNS_8ResourceE@Base 4:4.3.4
 _ZN4KRES11ManagerImpl9resourcesEb@Base 4:4.3.4
 _ZN4KRES11ManagerImpl9resourcesEv@Base 4:4.3.4
 _ZN4KRES11ManagerImpl9setActiveEPNS_8ResourceEb@Base 4:4.3.4
 _ZN4KRES11ManagerImplC1EPNS_15ManagerNotifierERK7QString@Base 4:4.3.4
 _ZN4KRES11ManagerImplC2EPNS_15ManagerNotifierERK7QString@Base 4:4.3.4
 _ZN4KRES11ManagerImplD0Ev@Base 4:4.3.4
 _ZN4KRES11ManagerImplD1Ev@Base 4:4.3.4
 _ZN4KRES11ManagerImplD2Ev@Base 4:4.3.4
 _ZN4KRES12ConfigDialog11qt_metacallEN11QMetaObject4CallEiPPv@Base 4:4.3.4
 _ZN4KRES12ConfigDialog11qt_metacastEPKc@Base 4:4.3.4
 _ZN4KRES12ConfigDialog11setReadOnlyEb@Base 4:4.3.4
 _ZN4KRES12ConfigDialog13setInEditModeEb@Base 4:4.3.4
 _ZN4KRES12ConfigDialog15slotNameChangedERK7QString@Base 4:4.3.4
 _ZN4KRES12ConfigDialog16staticMetaObjectE@Base 4:4.3.4
 _ZN4KRES12ConfigDialog6acceptEv@Base 4:4.3.4
 _ZN4KRES12ConfigDialogC1EP7QWidgetRK7QStringPNS_8ResourceE@Base 4:4.3.4
 _ZN4KRES12ConfigDialogC2EP7QWidgetRK7QStringPNS_8ResourceE@Base 4:4.3.4
 _ZN4KRES12ConfigDialogD0Ev@Base 4:4.3.4
 _ZN4KRES12ConfigDialogD1Ev@Base 4:4.3.4
 _ZN4KRES12ConfigDialogD2Ev@Base 4:4.3.4
 _ZN4KRES12ConfigWidget11qt_metacallEN11QMetaObject4CallEiPPv@Base 4:4.3.4
 _ZN4KRES12ConfigWidget11qt_metacastEPKc@Base 4:4.3.4
 _ZN4KRES12ConfigWidget11setReadOnlyEb@Base 4:4.3.4
 _ZN4KRES12ConfigWidget13setInEditModeEb@Base 4:4.3.4
 _ZN4KRES12ConfigWidget16staticMetaObjectE@Base 4:4.3.4
 _ZN4KRES12ConfigWidgetC1EP7QWidget@Base 4:4.3.4
 _ZN4KRES12ConfigWidgetC2EP7QWidget@Base 4:4.3.4
 _ZN4KRES12ConfigWidgetD0Ev@Base 4:4.6.5
 _ZN4KRES12ConfigWidgetD1Ev@Base 4:4.6.5
 _ZN4KRES12ConfigWidgetD2Ev@Base 4:4.6.5
 _ZN4KRES12SelectDialog11getResourceE5QListIPNS_8ResourceEEP7QWidget@Base 4:4.3.4
 _ZN4KRES12SelectDialog8resourceEv@Base 4:4.3.4
 _ZN4KRES12SelectDialogC1E5QListIPNS_8ResourceEEP7QWidget@Base 4:4.3.4
 _ZN4KRES12SelectDialogC2E5QListIPNS_8ResourceEEP7QWidget@Base 4:4.3.4
 _ZN4KRES12SelectDialogD0Ev@Base 4:4.3.4
 _ZN4KRES12SelectDialogD1Ev@Base 4:4.3.4
 _ZN4KRES12SelectDialogD2Ev@Base 4:4.3.4
 _ZN4KRES16ResourcePageInfoC1Ev@Base 4:4.3.4
 _ZN4KRES16ResourcePageInfoC2Ev@Base 4:4.3.4
 _ZN4KRES16ResourcePageInfoD1Ev@Base 4:4.3.4
 _ZN4KRES16ResourcePageInfoD2Ev@Base 4:4.3.4
 _ZN4KRES17PluginFactoryBase12createObjectEP7QObjectPKcRK11QStringList@Base 4:4.3.4
 _ZN4KRES17PluginFactoryBaseD0Ev@Base 4:4.6.5
 _ZN4KRES17PluginFactoryBaseD1Ev@Base 4:4.6.5
 _ZN4KRES17PluginFactoryBaseD2Ev@Base 4:4.6.5
 _ZN4KRES7Factory12configWidgetERK7QStringP7QWidget@Base 4:4.3.4
 _ZN4KRES7Factory12reloadConfigEv@Base 4:4.3.4
 _ZN4KRES7Factory4selfERK7QString@Base 4:4.3.4
 _ZN4KRES7Factory7Private16resourceInternalERK7QStringPK12KConfigGroup@Base 4:4.3.4
 _ZN4KRES7Factory8resourceERK7QString@Base 4:4.3.4
 _ZN4KRES7Factory8resourceERK7QStringRK12KConfigGroup@Base 4:4.3.4
 _ZN4KRES7FactoryC1ERK7QString@Base 4:4.3.4
 _ZN4KRES7FactoryC2ERK7QString@Base 4:4.3.4
 _ZN4KRES7FactoryD1Ev@Base 4:4.3.4
 _ZN4KRES7FactoryD2Ev@Base 4:4.3.4
 _ZN4KRES8IdMapper11setRemoteIdERK7QStringS3_@Base 4:4.3.4
 _ZN4KRES8IdMapper13setIdentifierERK7QString@Base 4:4.3.4
 _ZN4KRES8IdMapper14removeRemoteIdERK7QString@Base 4:4.3.4
 _ZN4KRES8IdMapper14setFingerprintERK7QStringS3_@Base 4:4.3.4
 _ZN4KRES8IdMapper4loadEv@Base 4:4.3.4
 _ZN4KRES8IdMapper4saveEv@Base 4:4.3.4
 _ZN4KRES8IdMapper5clearEv@Base 4:4.3.4
 _ZN4KRES8IdMapper7setPathERK7QString@Base 4:4.3.4
 _ZN4KRES8IdMapper8filenameEv@Base 4:4.3.4
 _ZN4KRES8IdMapperC1ERK7QStringS3_@Base 4:4.3.4
 _ZN4KRES8IdMapperC1Ev@Base 4:4.3.4
 _ZN4KRES8IdMapperC2ERK7QStringS3_@Base 4:4.3.4
 _ZN4KRES8IdMapperC2Ev@Base 4:4.3.4
 _ZN4KRES8IdMapperD1Ev@Base 4:4.3.4
 _ZN4KRES8IdMapperD2Ev@Base 4:4.3.4
 _ZN4KRES8Resource11qt_metacallEN11QMetaObject4CallEiPPv@Base 4:4.3.4
 _ZN4KRES8Resource11qt_metacastEPKc@Base 4:4.3.4
 _ZN4KRES8Resource11setReadOnlyEb@Base 4:4.3.4
 _ZN4KRES8Resource11writeConfigER12KConfigGroup@Base 4:4.3.4
 _ZN4KRES8Resource13setIdentifierERK7QString@Base 4:4.3.4
 _ZN4KRES8Resource15setResourceNameERK7QString@Base 4:4.3.4
 _ZN4KRES8Resource16staticMetaObjectE@Base 4:4.3.4
 _ZN4KRES8Resource4openEv@Base 4:4.3.4
 _ZN4KRES8Resource5closeEv@Base 4:4.3.4
 _ZN4KRES8Resource6doOpenEv@Base 4:4.3.4
 _ZN4KRES8Resource7doCloseEv@Base 4:4.3.4
 _ZN4KRES8Resource7setTypeERK7QString@Base 4:4.3.4
 _ZN4KRES8Resource9setActiveEb@Base 4:4.3.4
 _ZN4KRES8ResourceC1ERK12KConfigGroup@Base 4:4.3.4
 _ZN4KRES8ResourceC1Ev@Base 4:4.3.4
 _ZN4KRES8ResourceC2ERK12KConfigGroup@Base 4:4.3.4
 _ZN4KRES8ResourceC2Ev@Base 4:4.3.4
 _ZN4KRES8ResourceD0Ev@Base 4:4.3.4
 _ZN4KRES8ResourceD1Ev@Base 4:4.3.4
 _ZN4KRES8ResourceD2Ev@Base 4:4.3.4
 _ZNK4KRES10ConfigPage10metaObjectEv@Base 4:4.3.4
 _ZNK4KRES11ManagerImpl10metaObjectEv@Base 4:4.3.4
 _ZNK4KRES12ConfigDialog10metaObjectEv@Base 4:4.3.4
 _ZNK4KRES12ConfigWidget10metaObjectEv@Base 4:4.3.4
 _ZNK4KRES7Factory15typeDescriptionERK7QString@Base 4:4.3.4
 _ZNK4KRES7Factory8typeNameERK7QString@Base 4:4.3.4
 _ZNK4KRES7Factory9typeNamesEv@Base 4:4.3.4
 _ZNK4KRES8IdMapper10identifierEv@Base 4:4.3.4
 _ZNK4KRES8IdMapper11fingerprintERK7QString@Base 4:4.3.4
 _ZNK4KRES8IdMapper11remoteIdMapEv@Base 4:4.3.4
 _ZNK4KRES8IdMapper4pathEv@Base 4:4.3.4
 _ZNK4KRES8IdMapper7localIdERK7QString@Base 4:4.3.4
 _ZNK4KRES8IdMapper8asStringEv@Base 4:4.3.4
 _ZNK4KRES8IdMapper8remoteIdERK7QString@Base 4:4.3.4
 _ZNK4KRES8Resource10identifierEv@Base 4:4.3.4
 _ZNK4KRES8Resource10metaObjectEv@Base 4:4.3.4
 _ZNK4KRES8Resource12resourceNameEv@Base 4:4.3.4
 _ZNK4KRES8Resource4dumpEv@Base 4:4.3.4
 _ZNK4KRES8Resource4typeEv@Base 4:4.3.4
 _ZNK4KRES8Resource6isOpenEv@Base 4:4.3.4
 _ZNK4KRES8Resource8isActiveEv@Base 4:4.3.4
 _ZNK4KRES8Resource8readOnlyEv@Base 4:4.3.4
 _ZTIN4KRES10ConfigPageE@Base 4:4.3.4
 _ZTIN4KRES11ManagerImplE@Base 4:4.3.4
 _ZTIN4KRES12ConfigDialogE@Base 4:4.3.4
 _ZTIN4KRES12ConfigWidgetE@Base 4:4.3.4
 _ZTIN4KRES12SelectDialogE@Base 4:4.3.4
 _ZTIN4KRES17PluginFactoryBaseE@Base 4:4.3.4
 _ZTIN4KRES8ResourceE@Base 4:4.3.4
 _ZTSN4KRES10ConfigPageE@Base 4:4.3.4
 _ZTSN4KRES11ManagerImplE@Base 4:4.3.4
 _ZTSN4KRES12ConfigDialogE@Base 4:4.3.4
 _ZTSN4KRES12ConfigWidgetE@Base 4:4.3.4
 _ZTSN4KRES12SelectDialogE@Base 4:4.3.4
 _ZTSN4KRES17PluginFactoryBaseE@Base 4:4.3.4
 _ZTSN4KRES8ResourceE@Base 4:4.3.4
 _ZTVN4KRES10ConfigPageE@Base 4:4.3.4
 _ZTVN4KRES11ManagerImplE@Base 4:4.3.4
 _ZTVN4KRES12ConfigDialogE@Base 4:4.3.4
 _ZTVN4KRES12ConfigWidgetE@Base 4:4.3.4
 _ZTVN4KRES12SelectDialogE@Base 4:4.3.4
 _ZTVN4KRES17PluginFactoryBaseE@Base 4:4.3.4
 _ZTVN4KRES8ResourceE@Base 4:4.3.4
 (c++)"non-virtual thunk to KRES::ConfigDialog::~ConfigDialog()@Base" 4:4.3.4
 (c++)"non-virtual thunk to KRES::ConfigPage::resourceAdded(KRES::Resource*)@Base" 4:4.3.4
 (c++)"non-virtual thunk to KRES::ConfigPage::resourceDeleted(KRES::Resource*)@Base" 4:4.3.4
 (c++)"non-virtual thunk to KRES::ConfigPage::resourceModified(KRES::Resource*)@Base" 4:4.3.4
 (c++)"non-virtual thunk to KRES::ConfigPage::~ConfigPage()@Base" 4:4.3.4
 (c++)"non-virtual thunk to KRES::ConfigWidget::~ConfigWidget()@Base" 4:4.6.5
 (c++)"non-virtual thunk to KRES::SelectDialog::~SelectDialog()@Base" 4:4.3.4
