# SymbolsHelper-Confirmed: 4:4.7.4 amd64 armel armhf hurd-i386 i386 ia64 kfreebsd-amd64 kfreebsd-i386 mips mipsel powerpc s390 s390x sparc
libkcal.so.4 libkcal4 #MINVER#, kdepim-runtime
* Build-Depends-Package: kdepimlibs5-dev
 Parse_MIME@Base 4:4.3.4
 Parse_MIME_FromFile@Base 4:4.3.4
 Parse_MIME_FromFileName@Base 4:4.3.4
 YYDebug@Base 4:4.3.4
 _ZN4KCal10Attachment11setMimeTypeERK7QString@Base 4:4.3.4
 _ZN4KCal10Attachment13setShowInlineEb@Base 4:4.3.4
 _ZN4KCal10Attachment14setDecodedDataERK10QByteArray@Base 4:4.3.4
 _ZN4KCal10Attachment6setUriERK7QString@Base 4:4.3.4
 _ZN4KCal10Attachment7setDataEPKc@Base 4:4.3.4
 _ZN4KCal10Attachment8setLabelERK7QString@Base 4:4.3.4
 _ZN4KCal10Attachment8setLocalEb@Base 4:4.3.4
 _ZN4KCal10AttachmentC1EPKcRK7QString@Base 4:4.3.4
 _ZN4KCal10AttachmentC1ERK7QStringS3_@Base 4:4.3.4
 _ZN4KCal10AttachmentC1ERKS0_@Base 4:4.3.4
 _ZN4KCal10AttachmentC2EPKcRK7QString@Base 4:4.3.4
 _ZN4KCal10AttachmentC2ERK7QStringS3_@Base 4:4.3.4
 _ZN4KCal10AttachmentC2ERKS0_@Base 4:4.3.4
 _ZN4KCal10AttachmentD1Ev@Base 4:4.3.4
 _ZN4KCal10AttachmentD2Ev@Base 4:4.3.4
 _ZN4KCal10CalStorageC1EPNS_8CalendarE@Base 4:4.3.4
 _ZN4KCal10CalStorageC2EPNS_8CalendarE@Base 4:4.3.4
 _ZN4KCal10CalStorageD0Ev@Base 4:4.3.4
 _ZN4KCal10CalStorageD1Ev@Base 4:4.3.4
 _ZN4KCal10CalStorageD2Ev@Base 4:4.3.4
 _ZN4KCal10DndFactory10createDragEP7QWidget@Base 4:4.3.4
 _ZN4KCal10DndFactory10createDragEPNS_9IncidenceEP7QWidget@Base 4:4.3.4
 _ZN4KCal10DndFactory12cutIncidenceEPNS_9IncidenceE@Base 4:4.3.4
 _ZN4KCal10DndFactory13copyIncidenceEPNS_9IncidenceE@Base 4:4.3.4
 _ZN4KCal10DndFactory13cutIncidencesERKNS_8ListBaseINS_9IncidenceEEE@Base 4:4.5.0
 _ZN4KCal10DndFactory14copyIncidencesERKNS_8ListBaseINS_9IncidenceEEE@Base 4:4.5.0
 _ZN4KCal10DndFactory14createDropTodoEP10QDropEvent@Base 4:4.3.4
 _ZN4KCal10DndFactory14createDropTodoEPK9QMimeData@Base 4:4.3.4
 _ZN4KCal10DndFactory14createMimeDataEPNS_9IncidenceE@Base 4:4.3.4
 _ZN4KCal10DndFactory14createMimeDataEv@Base 4:4.3.4
 _ZN4KCal10DndFactory14pasteIncidenceERK5QDatePK5QTime@Base 4:4.3.4
 _ZN4KCal10DndFactory15createDropEventEP10QDropEvent@Base 4:4.3.4
 _ZN4KCal10DndFactory15createDropEventEPK9QMimeData@Base 4:4.3.4
 _ZN4KCal10DndFactory15pasteIncidencesERK5QDatePK5QTime@Base 4:4.5.0
 _ZN4KCal10DndFactory18createDropCalendarEP10QDropEvent@Base 4:4.3.4
 _ZN4KCal10DndFactory18createDropCalendarEPK9QMimeData@Base 4:4.3.4
 _ZN4KCal10DndFactory18createDropCalendarEPK9QMimeDataRKN9KDateTime4SpecE@Base 4:4.4.0
 _ZN4KCal10DndFactoryC1EPNS_8CalendarE@Base 4:4.3.4
 _ZN4KCal10DndFactoryC2EPNS_8CalendarE@Base 4:4.3.4
 _ZN4KCal10DndFactoryD1Ev@Base 4:4.3.4
 _ZN4KCal10DndFactoryD2Ev@Base 4:4.3.4
 _ZN4KCal10HtmlExport10addHolidayERK5QDateRK7QString@Base 4:4.3.4
 _ZN4KCal10HtmlExport10createTodoEP11QTextStreamPNS_4TodoE@Base 4:4.3.4
 _ZN4KCal10HtmlExport11breakStringERK7QString@Base 4:4.3.4
 _ZN4KCal10HtmlExport11createEventEP11QTextStreamPNS_5EventE5QDateb@Base 4:4.3.4
 _ZN4KCal10HtmlExport12checkSecrecyEPNS_9IncidenceE@Base 4:4.3.4
 _ZN4KCal10HtmlExport12createFooterEP11QTextStream@Base 4:4.3.4
 _ZN4KCal10HtmlExport14createTodoListEP11QTextStream@Base 4:4.3.4
 _ZN4KCal10HtmlExport14createWeekViewEP11QTextStream@Base 4:4.3.4
 _ZN4KCal10HtmlExport14formatLocationEP11QTextStreamPNS_9IncidenceE@Base 4:4.3.4
 _ZN4KCal10HtmlExport15createEventListEP11QTextStream@Base 4:4.3.4
 _ZN4KCal10HtmlExport15createMonthViewEP11QTextStream@Base 4:4.3.4
 _ZN4KCal10HtmlExport15formatAttendeesEP11QTextStreamPNS_9IncidenceE@Base 4:4.3.4
 _ZN4KCal10HtmlExport16formatCategoriesEP11QTextStreamPNS_9IncidenceE@Base 4:4.3.4
 _ZN4KCal10HtmlExport17createJournalViewEP11QTextStream@Base 4:4.3.4
 _ZN4KCal10HtmlExport18createFreeBusyViewEP11QTextStream@Base 4:4.3.4
 _ZN4KCal10HtmlExport4saveEP11QTextStream@Base 4:4.3.4
 _ZN4KCal10HtmlExport4saveERK7QString@Base 4:4.3.4
 _ZN4KCal10HtmlExportC1EPNS_8CalendarEPNS_18HTMLExportSettingsE@Base 4:4.3.4
 _ZN4KCal10HtmlExportC2EPNS_8CalendarEPNS_18HTMLExportSettingsE@Base 4:4.3.4
 _ZN4KCal10HtmlExportD0Ev@Base 4:4.3.4
 _ZN4KCal10HtmlExportD1Ev@Base 4:4.3.4
 _ZN4KCal10HtmlExportD2Ev@Base 4:4.3.4
 _ZN4KCal10ICalFormat10fromStringEPNS_14RecurrenceRuleERK7QString@Base 4:4.3.4
 _ZN4KCal10ICalFormat10fromStringEPNS_8CalendarERK7QString@Base 4:4.3.4
 _ZN4KCal10ICalFormat10fromStringERK7QString@Base 4:4.3.4
 _ZN4KCal10ICalFormat11setTimeSpecERKN9KDateTime4SpecE@Base 4:4.3.4
 _ZN4KCal10ICalFormat12toICalStringEPNS_9IncidenceE@Base 4:4.3.4
 _ZN4KCal10ICalFormat13fromRawStringEPNS_8CalendarERK10QByteArray@Base 4:4.3.4
 _ZN4KCal10ICalFormat13parseFreeBusyERK7QString@Base 4:4.3.4
 _ZN4KCal10ICalFormat20parseScheduleMessageEPNS_8CalendarERK7QString@Base 4:4.3.4
 _ZN4KCal10ICalFormat21createScheduleMessageEPNS_13IncidenceBaseENS_10iTIPMethodE@Base 4:4.3.4
 _ZN4KCal10ICalFormat4loadEPNS_8CalendarERK7QString@Base 4:4.3.4
 _ZN4KCal10ICalFormat4saveEPNS_8CalendarERK7QString@Base 4:4.3.4
 _ZN4KCal10ICalFormat8toStringEPNS_14RecurrenceRuleE@Base 4:4.3.4
 _ZN4KCal10ICalFormat8toStringEPNS_8CalendarE@Base 4:4.3.4
 _ZN4KCal10ICalFormat8toStringEPNS_9IncidenceE@Base 4:4.3.4
 _ZN4KCal10ICalFormatC1Ev@Base 4:4.3.4
 _ZN4KCal10ICalFormatC2Ev@Base 4:4.3.4
 _ZN4KCal10ICalFormatD0Ev@Base 4:4.3.4
 _ZN4KCal10ICalFormatD1Ev@Base 4:4.3.4
 _ZN4KCal10ICalFormatD2Ev@Base 4:4.3.4
 _ZN4KCal10Recurrence10setEndDateERK5QDate@Base 4:4.3.4
 _ZN4KCal10Recurrence10setExDatesERKNS_12SortableListI5QDateEE@Base 4:4.3.4
 _ZN4KCal10Recurrence10setMonthlyEi@Base 4:4.3.4
 _ZN4KCal10Recurrence10shiftTimesERKN9KDateTime4SpecES4_@Base 4:4.3.4
 _ZN4KCal10Recurrence11addObserverEPNS0_18RecurrenceObserverE@Base 4:4.3.4
 _ZN4KCal10Recurrence11deleteRRuleEPNS_14RecurrenceRuleE@Base 4:4.3.4
 _ZN4KCal10Recurrence11removeRRuleEPNS_14RecurrenceRuleE@Base 4:4.3.4
 _ZN4KCal10Recurrence11setDurationEi@Base 4:4.3.4
 _ZN4KCal10Recurrence11setMinutelyEi@Base 4:4.3.4
 _ZN4KCal10Recurrence11unsetRecursEv@Base 4:4.3.4
 _ZN4KCal10Recurrence12addRDateTimeERK9KDateTime@Base 4:4.3.4
 _ZN4KCal10Recurrence12addYearlyDayEi@Base 4:4.3.4
 _ZN4KCal10Recurrence12addYearlyPosEsRK9QBitArray@Base 4:4.3.4
 _ZN4KCal10Recurrence12deleteExRuleEPNS_14RecurrenceRuleE@Base 4:4.3.4
 _ZN4KCal10Recurrence12removeExRuleEPNS_14RecurrenceRuleE@Base 4:4.3.4
 _ZN4KCal10Recurrence12setFrequencyEi@Base 4:4.3.4
 _ZN4KCal10Recurrence13addExDateTimeERK9KDateTime@Base 4:4.3.4
 _ZN4KCal10Recurrence13addMonthlyPosEsRK9QBitArray@Base 4:4.3.4
 _ZN4KCal10Recurrence13addMonthlyPosEst@Base 4:4.3.4
 _ZN4KCal10Recurrence13addWeeklyDaysERK9QBitArray@Base 4:4.3.4
 _ZN4KCal10Recurrence13addYearlyDateEi@Base 4:4.3.4
 _ZN4KCal10Recurrence13setRDateTimesERKNS_12SortableListI9KDateTimeEE@Base 4:4.3.4
 _ZN4KCal10Recurrence14addMonthlyDateEs@Base 4:4.3.4
 _ZN4KCal10Recurrence14addYearlyMonthEs@Base 4:4.3.4
 _ZN4KCal10Recurrence14recurrenceTypeEPKNS_14RecurrenceRuleE@Base 4:4.3.4
 _ZN4KCal10Recurrence14removeObserverEPNS0_18RecurrenceObserverE@Base 4:4.3.4
 _ZN4KCal10Recurrence14setEndDateTimeERK9KDateTime@Base 4:4.3.4
 _ZN4KCal10Recurrence14setExDateTimesERKNS_12SortableListI9KDateTimeEE@Base 4:4.3.4
 _ZN4KCal10Recurrence16setRecurReadOnlyEb@Base 4:4.3.4
 _ZN4KCal10Recurrence16setStartDateTimeERK9KDateTime@Base 4:4.3.4
 _ZN4KCal10Recurrence17recurrenceChangedEPNS_14RecurrenceRuleE@Base 4:4.3.4
 _ZN4KCal10Recurrence20setNewRecurrenceTypeENS_14RecurrenceRule10PeriodTypeEi@Base 4:4.3.4
 _ZN4KCal10Recurrence5clearEv@Base 4:4.3.4
 _ZN4KCal10Recurrence7updatedEv@Base 4:4.3.4
 _ZN4KCal10Recurrence8addRDateERK5QDate@Base 4:4.3.4
 _ZN4KCal10Recurrence8addRRuleEPNS_14RecurrenceRuleE@Base 4:4.3.4
 _ZN4KCal10Recurrence8setDailyEi@Base 4:4.3.4
 _ZN4KCal10Recurrence9addExDateERK5QDate@Base 4:4.3.4
 _ZN4KCal10Recurrence9addExRuleEPNS_14RecurrenceRuleE@Base 4:4.3.4
 _ZN4KCal10Recurrence9setAllDayEb@Base 4:4.3.4
 _ZN4KCal10Recurrence9setHourlyEi@Base 4:4.3.4
 _ZN4KCal10Recurrence9setRDatesERKNS_12SortableListI5QDateEE@Base 4:4.3.4
 _ZN4KCal10Recurrence9setWeeklyEiRK9QBitArrayi@Base 4:4.3.4
 _ZN4KCal10Recurrence9setWeeklyEii@Base 4:4.3.4
 _ZN4KCal10Recurrence9setYearlyEi@Base 4:4.3.4
 _ZN4KCal10RecurrenceC1ERKS0_@Base 4:4.3.4
 _ZN4KCal10RecurrenceC1Ev@Base 4:4.3.4
 _ZN4KCal10RecurrenceC2ERKS0_@Base 4:4.3.4
 _ZN4KCal10RecurrenceC2Ev@Base 4:4.3.4
 _ZN4KCal10RecurrenceD0Ev@Base 4:4.3.4
 _ZN4KCal10RecurrenceD1Ev@Base 4:4.3.4
 _ZN4KCal10RecurrenceD2Ev@Base 4:4.3.4
 _ZN4KCal10RecurrenceaSERKS0_@Base 4:4.5.0
 _ZN4KCal10VCalFormat10ISOToQDateERK7QString@Base 4:4.3.4
 _ZN4KCal10VCalFormat10dayFromNumEi@Base 4:4.3.4
 _ZN4KCal10VCalFormat10fromStringEPNS_8CalendarERK7QString@Base 4:4.3.4
 _ZN4KCal10VCalFormat10numFromDayERK7QString@Base 4:4.3.4
 _ZN4KCal10VCalFormat10qDateToISOERK5QDate@Base 4:4.3.4
 _ZN4KCal10VCalFormat12VTodoToEventEP7VObject@Base 4:4.3.4
 _ZN4KCal10VCalFormat12eventToVTodoEPKNS_4TodoE@Base 4:4.3.4
 _ZN4KCal10VCalFormat13VEventToEventEP7VObject@Base 4:4.3.4
 _ZN4KCal10VCalFormat13eventToVEventEPKNS_5EventE@Base 4:4.3.4
 _ZN4KCal10VCalFormat13fromRawStringEPNS_8CalendarERK10QByteArray@Base 4:4.3.4
 _ZN4KCal10VCalFormat14ISOToKDateTimeERK7QString@Base 4:4.3.4
 _ZN4KCal10VCalFormat14kDateTimeToISOERK9KDateTimeb@Base 4:4.3.4
 _ZN4KCal10VCalFormat4loadEPNS_8CalendarERK7QString@Base 4:4.3.4
 _ZN4KCal10VCalFormat4saveEPNS_8CalendarERK7QString@Base 4:4.3.4
 _ZN4KCal10VCalFormat8populateEP7VObject@Base 4:4.3.4
 _ZN4KCal10VCalFormat8toStringEPNS_8CalendarE@Base 4:4.3.4
 _ZN4KCal10VCalFormatC1Ev@Base 4:4.3.4
 _ZN4KCal10VCalFormatC2Ev@Base 4:4.3.4
 _ZN4KCal10VCalFormatD0Ev@Base 4:4.3.4
 _ZN4KCal10VCalFormatD1Ev@Base 4:4.3.4
 _ZN4KCal10VCalFormatD2Ev@Base 4:4.3.4
 _ZN4KCal11ErrorFormat7messageEv@Base 4:4.3.4
 _ZN4KCal11ErrorFormat9errorCodeEv@Base 4:4.3.4
 _ZN4KCal11ErrorFormatC1ENS0_15ErrorCodeFormatERK7QString@Base 4:4.3.4
 _ZN4KCal11ErrorFormatC2ENS0_15ErrorCodeFormatERK7QString@Base 4:4.3.4
 _ZN4KCal11ErrorFormatD0Ev@Base 4:4.3.4
 _ZN4KCal11ErrorFormatD1Ev@Base 4:4.3.4
 _ZN4KCal11ErrorFormatD2Ev@Base 4:4.3.4
 _ZN4KCal11FileStorage11setFileNameERK7QString@Base 4:4.3.4
 _ZN4KCal11FileStorage13setSaveFormatEPNS_9CalFormatE@Base 4:4.3.4
 _ZN4KCal11FileStorage4loadEv@Base 4:4.3.4
 _ZN4KCal11FileStorage4openEv@Base 4:4.3.4
 _ZN4KCal11FileStorage4saveEv@Base 4:4.3.4
 _ZN4KCal11FileStorage5closeEv@Base 4:4.3.4
 _ZN4KCal11FileStorageC1EPNS_8CalendarERK7QStringPNS_9CalFormatE@Base 4:4.3.4
 _ZN4KCal11FileStorageC2EPNS_8CalendarERK7QStringPNS_9CalFormatE@Base 4:4.3.4
 _ZN4KCal11FileStorageD0Ev@Base 4:4.3.4
 _ZN4KCal11FileStorageD1Ev@Base 4:4.3.4
 _ZN4KCal11FileStorageD2Ev@Base 4:4.3.4
 _ZN4KCal12CalendarNull10addJournalEPNS_7JournalE@Base 4:4.3.4
 _ZN4KCal12CalendarNull10deleteTodoEPNS_4TodoE@Base 4:4.3.4
 _ZN4KCal12CalendarNull11deleteEventEPNS_5EventE@Base 4:4.3.4
 _ZN4KCal12CalendarNull11rawJournalsENS_16JournalSortFieldENS_13SortDirectionE@Base 4:4.3.4
 _ZN4KCal12CalendarNull13deleteJournalEPNS_7JournalE@Base 4:4.3.4
 _ZN4KCal12CalendarNull14deleteAllTodosEv@Base 4:4.3.4
 _ZN4KCal12CalendarNull15deleteAllEventsEv@Base 4:4.3.4
 _ZN4KCal12CalendarNull15rawTodosForDateERK5QDate@Base 4:4.3.4
 _ZN4KCal12CalendarNull16incidenceUpdatedEPNS_13IncidenceBaseE@Base 4:4.3.4
 _ZN4KCal12CalendarNull16rawEventsForDateERK5QDateRKN9KDateTime4SpecENS_14EventSortFieldENS_13SortDirectionE@Base 4:4.3.4
 _ZN4KCal12CalendarNull16rawEventsForDateERK9KDateTime@Base 4:4.3.4
 _ZN4KCal12CalendarNull17deleteAllJournalsEv@Base 4:4.3.4
 _ZN4KCal12CalendarNull18rawJournalsForDateERK5QDate@Base 4:4.3.4
 _ZN4KCal12CalendarNull4saveEv@Base 4:4.3.4
 _ZN4KCal12CalendarNull4selfEv@Base 4:4.3.4
 _ZN4KCal12CalendarNull4todoERK7QString@Base 4:4.3.4
 _ZN4KCal12CalendarNull5closeEv@Base 4:4.3.4
 _ZN4KCal12CalendarNull5eventERK7QString@Base 4:4.3.4
 _ZN4KCal12CalendarNull6alarmsERK9KDateTimeS3_@Base 4:4.3.4
 _ZN4KCal12CalendarNull6reloadEv@Base 4:4.3.4
 _ZN4KCal12CalendarNull7addTodoEPNS_4TodoE@Base 4:4.3.4
 _ZN4KCal12CalendarNull7journalERK7QString@Base 4:4.3.4
 _ZN4KCal12CalendarNull8addEventEPNS_5EventE@Base 4:4.3.4
 _ZN4KCal12CalendarNull8rawTodosENS_13TodoSortFieldENS_13SortDirectionE@Base 4:4.3.4
 _ZN4KCal12CalendarNull9rawEventsENS_14EventSortFieldENS_13SortDirectionE@Base 4:4.3.4
 _ZN4KCal12CalendarNull9rawEventsERK5QDateS3_RKN9KDateTime4SpecEb@Base 4:4.3.4
 _ZN4KCal12CalendarNullC1ERK7QString@Base 4:4.3.4
 _ZN4KCal12CalendarNullC1ERKN9KDateTime4SpecE@Base 4:4.3.4
 _ZN4KCal12CalendarNullC2ERK7QString@Base 4:4.3.4
 _ZN4KCal12CalendarNullC2ERKN9KDateTime4SpecE@Base 4:4.3.4
 _ZN4KCal12CalendarNullD0Ev@Base 4:4.3.4
 _ZN4KCal12CalendarNullD1Ev@Base 4:4.3.4
 _ZN4KCal12CalendarNullD2Ev@Base 4:4.3.4
 _ZN4KCal12ICalTimeZone3utcEv@Base 4:4.3.4
 _ZN4KCal12ICalTimeZone6updateERKS0_@Base 4:4.3.4
 _ZN4KCal12ICalTimeZoneC1EPNS_18ICalTimeZoneSourceERK7QStringPNS_16ICalTimeZoneDataE@Base 4:4.3.4
 _ZN4KCal12ICalTimeZoneC1ERK9KTimeZoneRK5QDate@Base 4:4.3.4
 _ZN4KCal12ICalTimeZoneC1Ev@Base 4:4.3.4
 _ZN4KCal12ICalTimeZoneC2EPNS_18ICalTimeZoneSourceERK7QStringPNS_16ICalTimeZoneDataE@Base 4:4.3.4
 _ZN4KCal12ICalTimeZoneC2ERK9KTimeZoneRK5QDate@Base 4:4.3.4
 _ZN4KCal12ICalTimeZoneC2Ev@Base 4:4.3.4
 _ZN4KCal12ICalTimeZoneD0Ev@Base 4:4.3.4
 _ZN4KCal12ICalTimeZoneD1Ev@Base 4:4.3.4
 _ZN4KCal12ICalTimeZoneD2Ev@Base 4:4.3.4
 _ZN4KCal12QtopiaFormat10fromStringEPNS_8CalendarERK7QString@Base 4:4.3.4
 _ZN4KCal12QtopiaFormat13fromRawStringEPNS_8CalendarERK10QByteArray@Base 4:4.3.4
 _ZN4KCal12QtopiaFormat4loadEPNS_8CalendarERK7QString@Base 4:4.3.4
 _ZN4KCal12QtopiaFormat4saveEPNS_8CalendarERK7QString@Base 4:4.3.4
 _ZN4KCal12QtopiaFormat8toStringEPNS_8CalendarE@Base 4:4.3.4
 _ZN4KCal12QtopiaFormatC1Ev@Base 4:4.3.4
 _ZN4KCal12QtopiaFormatC2Ev@Base 4:4.3.4
 _ZN4KCal12QtopiaFormatD0Ev@Base 4:4.3.4
 _ZN4KCal12QtopiaFormatD1Ev@Base 4:4.3.4
 _ZN4KCal12QtopiaFormatD2Ev@Base 4:4.3.4
 _ZN4KCal13CalendarLocal10addJournalEPNS_7JournalE@Base 4:4.3.4
 _ZN4KCal13CalendarLocal10deleteTodoEPNS_4TodoE@Base 4:4.3.4
 _ZN4KCal13CalendarLocal11deleteEventEPNS_5EventE@Base 4:4.3.4
 _ZN4KCal13CalendarLocal11rawJournalsENS_16JournalSortFieldENS_13SortDirectionE@Base 4:4.3.4
 _ZN4KCal13CalendarLocal13deleteJournalEPNS_7JournalE@Base 4:4.3.4
 _ZN4KCal13CalendarLocal14deleteAllTodosEv@Base 4:4.3.4
 _ZN4KCal13CalendarLocal15deleteAllEventsEv@Base 4:4.3.4
 _ZN4KCal13CalendarLocal15rawTodosForDateERK5QDate@Base 4:4.3.4
 _ZN4KCal13CalendarLocal16incidenceUpdatedEPNS_13IncidenceBaseE@Base 4:4.3.4
 _ZN4KCal13CalendarLocal16rawEventsForDateERK5QDateRKN9KDateTime4SpecENS_14EventSortFieldENS_13SortDirectionE@Base 4:4.3.4
 _ZN4KCal13CalendarLocal16rawEventsForDateERK9KDateTime@Base 4:4.3.4
 _ZN4KCal13CalendarLocal17deleteAllJournalsEv@Base 4:4.3.4
 _ZN4KCal13CalendarLocal18rawJournalsForDateERK5QDate@Base 4:4.3.4
 _ZN4KCal13CalendarLocal4loadERK7QStringPNS_9CalFormatE@Base 4:4.3.4
 _ZN4KCal13CalendarLocal4saveERK7QStringPNS_9CalFormatE@Base 4:4.3.4
 _ZN4KCal13CalendarLocal4saveEv@Base 4:4.3.4
 _ZN4KCal13CalendarLocal4todoERK7QString@Base 4:4.3.4
 _ZN4KCal13CalendarLocal5closeEv@Base 4:4.3.4
 _ZN4KCal13CalendarLocal5eventERK7QString@Base 4:4.3.4
 _ZN4KCal13CalendarLocal6alarmsERK9KDateTimeS3_@Base 4:4.3.4
 _ZN4KCal13CalendarLocal6reloadEv@Base 4:4.3.4
 _ZN4KCal13CalendarLocal7Private10insertTodoEPNS_4TodoE@Base 4:4.3.4
 _ZN4KCal13CalendarLocal7Private11insertEventEPNS_5EventE@Base 4:4.3.4
 _ZN4KCal13CalendarLocal7Private13insertJournalEPNS_7JournalE@Base 4:4.3.4
 _ZN4KCal13CalendarLocal7addTodoEPNS_4TodoE@Base 4:4.3.4
 _ZN4KCal13CalendarLocal7journalERK7QString@Base 4:4.3.4
 _ZN4KCal13CalendarLocal8addEventEPNS_5EventE@Base 4:4.3.4
 _ZN4KCal13CalendarLocal8alarmsToERK9KDateTime@Base 4:4.3.4
 _ZN4KCal13CalendarLocal8rawTodosENS_13TodoSortFieldENS_13SortDirectionE@Base 4:4.3.4
 _ZN4KCal13CalendarLocal9rawEventsENS_14EventSortFieldENS_13SortDirectionE@Base 4:4.3.4
 _ZN4KCal13CalendarLocal9rawEventsERK5QDateS3_RKN9KDateTime4SpecEb@Base 4:4.3.4
 _ZN4KCal13CalendarLocalC1ERK7QString@Base 4:4.3.4
 _ZN4KCal13CalendarLocalC1ERKN9KDateTime4SpecE@Base 4:4.3.4
 _ZN4KCal13CalendarLocalC2ERK7QString@Base 4:4.3.4
 _ZN4KCal13CalendarLocalC2ERKN9KDateTime4SpecE@Base 4:4.3.4
 _ZN4KCal13CalendarLocalD0Ev@Base 4:4.3.4
 _ZN4KCal13CalendarLocalD1Ev@Base 4:4.3.4
 _ZN4KCal13CalendarLocalD2Ev@Base 4:4.3.4
 _ZN4KCal13ICalTimeZones3addERKNS_12ICalTimeZoneE@Base 4:4.3.4
 _ZN4KCal13ICalTimeZones5clearEv@Base 4:4.3.4
 _ZN4KCal13ICalTimeZones6removeERK7QString@Base 4:4.3.4
 _ZN4KCal13ICalTimeZones6removeERKNS_12ICalTimeZoneE@Base 4:4.3.4
 _ZN4KCal13ICalTimeZonesC1Ev@Base 4:4.3.4
 _ZN4KCal13ICalTimeZonesC2Ev@Base 4:4.3.4
 _ZN4KCal13ICalTimeZonesD1Ev@Base 4:4.3.4
 _ZN4KCal13ICalTimeZonesD2Ev@Base 4:4.3.4
 _ZN4KCal13IMIPScheduler18performTransactionEPNS_13IncidenceBaseENS_10iTIPMethodE@Base 4:4.3.4
 _ZN4KCal13IMIPScheduler20retrieveTransactionsEv@Base 4:4.3.4
 _ZN4KCal13IMIPScheduler7publishEPNS_13IncidenceBaseERK7QString@Base 4:4.3.4
 _ZN4KCal13IMIPSchedulerC1EPNS_8CalendarE@Base 4:4.3.4
 _ZN4KCal13IMIPSchedulerC2EPNS_8CalendarE@Base 4:4.3.4
 _ZN4KCal13IMIPSchedulerD0Ev@Base 4:4.3.4
 _ZN4KCal13IMIPSchedulerD1Ev@Base 4:4.3.4
 _ZN4KCal13IMIPSchedulerD2Ev@Base 4:4.3.4
 _ZN4KCal13IncidenceBase10addCommentERK7QString@Base 4:4.3.4
 _ZN4KCal13IncidenceBase10endUpdatesEv@Base 4:4.3.4
 _ZN4KCal13IncidenceBase10setDtStartERK9KDateTime@Base 4:4.3.4
 _ZN4KCal13IncidenceBase10shiftTimesERKN9KDateTime4SpecES4_@Base 4:4.3.4
 _ZN4KCal13IncidenceBase11addAttendeeEPNS_8AttendeeEb@Base 4:4.3.4
 _ZN4KCal13IncidenceBase11setDurationERKNS_8DurationE@Base 4:4.3.4
 _ZN4KCal13IncidenceBase11setReadOnlyEb@Base 4:4.3.4
 _ZN4KCal13IncidenceBase12setOrganizerERK7QString@Base 4:4.3.4
 _ZN4KCal13IncidenceBase12setOrganizerERKNS_6PersonE@Base 4:4.3.4
 _ZN4KCal13IncidenceBase12startUpdatesEv@Base 4:4.3.4
 _ZN4KCal13IncidenceBase13clearCommentsEv@Base 4:4.3.4
 _ZN4KCal13IncidenceBase13removeCommentERK7QString@Base 4:4.3.4
 _ZN4KCal13IncidenceBase14clearAttendeesEv@Base 4:4.3.4
 _ZN4KCal13IncidenceBase14setHasDurationEb@Base 4:4.3.4
 _ZN4KCal13IncidenceBase15setLastModifiedERK9KDateTime@Base 4:4.3.4
 _ZN4KCal13IncidenceBase16registerObserverEPNS0_17IncidenceObserverE@Base 4:4.3.4
 _ZN4KCal13IncidenceBase18unRegisterObserverEPNS0_17IncidenceObserverE@Base 4:4.3.4
 _ZN4KCal13IncidenceBase21customPropertyUpdatedEv@Base 4:4.3.4
 _ZN4KCal13IncidenceBase6setUidERK7QString@Base 4:4.3.4
 _ZN4KCal13IncidenceBase7Private4initERKS1_@Base 4:4.3.4
 _ZN4KCal13IncidenceBase7Visitor5visitEPNS_4TodoE@Base 4:4.3.4
 _ZN4KCal13IncidenceBase7Visitor5visitEPNS_5EventE@Base 4:4.3.4
 _ZN4KCal13IncidenceBase7Visitor5visitEPNS_7JournalE@Base 4:4.3.4
 _ZN4KCal13IncidenceBase7Visitor5visitEPNS_8FreeBusyE@Base 4:4.3.4
 _ZN4KCal13IncidenceBase7updatedEv@Base 4:4.3.4
 _ZN4KCal13IncidenceBase9setAllDayEb@Base 4:4.3.4
 _ZN4KCal13IncidenceBaseC1ERKS0_@Base 4:4.3.4
 _ZN4KCal13IncidenceBaseC1Ev@Base 4:4.3.4
 _ZN4KCal13IncidenceBaseC2ERKS0_@Base 4:4.3.4
 _ZN4KCal13IncidenceBaseC2Ev@Base 4:4.3.4
 _ZN4KCal13IncidenceBaseD0Ev@Base 4:4.3.4
 _ZN4KCal13IncidenceBaseD1Ev@Base 4:4.3.4
 _ZN4KCal13IncidenceBaseD2Ev@Base 4:4.3.4
 _ZN4KCal13IncidenceBaseaSERKS0_@Base 4:4.3.4
 _ZN4KCal13ResourceLocal11qt_metacallEN11QMetaObject4CallEiPPv@Base 4:4.3.4
 _ZN4KCal13ResourceLocal11qt_metacastEPKc@Base 4:4.3.4
 _ZN4KCal13ResourceLocal11setFileNameERK7QString@Base 4:4.3.4
 _ZN4KCal13ResourceLocal11writeConfigER12KConfigGroup@Base 4:4.3.4
 _ZN4KCal13ResourceLocal16readLastModifiedEv@Base 4:4.3.4
 _ZN4KCal13ResourceLocal16staticMetaObjectE@Base 4:4.3.4
 _ZN4KCal13ResourceLocal4initEv@Base 4:4.3.4
 _ZN4KCal13ResourceLocal4lockEv@Base 4:4.3.4
 _ZN4KCal13ResourceLocal6doLoadEb@Base 4:4.3.4
 _ZN4KCal13ResourceLocal6doSaveEb@Base 4:4.3.4
 _ZN4KCal13ResourceLocal6doSaveEbPNS_9IncidenceE@Base 4:4.3.4
 _ZN4KCal13ResourceLocal6reloadEv@Base 4:4.3.4
 _ZN4KCal13ResourceLocal8doReloadEv@Base 4:4.3.4
 _ZN4KCal13ResourceLocal8setValueERK7QStringS3_@Base 4:4.3.4
 _ZN4KCal13ResourceLocalC1ERK12KConfigGroup@Base 4:4.3.4
 _ZN4KCal13ResourceLocalC1ERK7QString@Base 4:4.3.4
 _ZN4KCal13ResourceLocalC1Ev@Base 4:4.3.4
 _ZN4KCal13ResourceLocalC2ERK12KConfigGroup@Base 4:4.3.4
 _ZN4KCal13ResourceLocalC2ERK7QString@Base 4:4.3.4
 _ZN4KCal13ResourceLocalC2Ev@Base 4:4.3.4
 _ZN4KCal13ResourceLocalD0Ev@Base 4:4.3.4
 _ZN4KCal13ResourceLocalD1Ev@Base 4:4.3.4
 _ZN4KCal13ResourceLocalD2Ev@Base 4:4.3.4
 _ZN4KCal13ResourceLocalaSERKS0_@Base 4:4.3.4
 _ZN4KCal13ResourceLocaleqERKS0_@Base 4:4.3.4
 _ZN4KCal14FreeBusyPeriod10setSummaryERK7QString@Base 4:4.3.4
 _ZN4KCal14FreeBusyPeriod11setLocationERK7QString@Base 4:4.3.4
 _ZN4KCal14FreeBusyPeriodC1ERK9KDateTimeRKNS_8DurationE@Base 4:4.3.4
 _ZN4KCal14FreeBusyPeriodC1ERK9KDateTimeS3_@Base 4:4.3.4
 _ZN4KCal14FreeBusyPeriodC1ERKNS_6PeriodE@Base 4:4.3.4
 _ZN4KCal14FreeBusyPeriodC1ERKS0_@Base 4:4.3.4
 _ZN4KCal14FreeBusyPeriodC1Ev@Base 4:4.3.4
 _ZN4KCal14FreeBusyPeriodC2ERK9KDateTimeRKNS_8DurationE@Base 4:4.3.4
 _ZN4KCal14FreeBusyPeriodC2ERK9KDateTimeS3_@Base 4:4.3.4
 _ZN4KCal14FreeBusyPeriodC2ERKNS_6PeriodE@Base 4:4.3.4
 _ZN4KCal14FreeBusyPeriodC2ERKS0_@Base 4:4.3.4
 _ZN4KCal14FreeBusyPeriodC2Ev@Base 4:4.3.4
 _ZN4KCal14FreeBusyPeriodD1Ev@Base 4:4.3.4
 _ZN4KCal14FreeBusyPeriodD2Ev@Base 4:4.3.4
 _ZN4KCal14FreeBusyPeriodaSERKS0_@Base 4:4.3.4
 _ZN4KCal14RecurrenceRule10setByHoursE5QListIiE@Base 4:4.3.4
 _ZN4KCal14RecurrenceRule10setStartDtERK9KDateTime@Base 4:4.3.4
 _ZN4KCal14RecurrenceRule10shiftTimesERKN9KDateTime4SpecES4_@Base 4:4.3.4
 _ZN4KCal14RecurrenceRule11addObserverEPNS0_12RuleObserverE@Base 4:4.3.4
 _ZN4KCal14RecurrenceRule11setByMonthsE5QListIiE@Base 4:4.3.4
 _ZN4KCal14RecurrenceRule11setBySetPosE5QListIiE@Base 4:4.3.4
 _ZN4KCal14RecurrenceRule11setDurationEi@Base 4:4.3.4
 _ZN4KCal14RecurrenceRule11setReadOnlyEb@Base 4:4.3.4
 _ZN4KCal14RecurrenceRule12setByMinutesE5QListIiE@Base 4:4.3.4
 _ZN4KCal14RecurrenceRule12setBySecondsE5QListIiE@Base 4:4.3.4
 _ZN4KCal14RecurrenceRule12setFrequencyEi@Base 4:4.3.4
 _ZN4KCal14RecurrenceRule12setWeekStartEs@Base 4:4.3.4
 _ZN4KCal14RecurrenceRule13setByYearDaysE5QListIiE@Base 4:4.3.4
 _ZN4KCal14RecurrenceRule14removeObserverEPNS0_12RuleObserverE@Base 4:4.3.4
 _ZN4KCal14RecurrenceRule14setByMonthDaysE5QListIiE@Base 4:4.3.4
 _ZN4KCal14RecurrenceRule16setByWeekNumbersE5QListIiE@Base 4:4.3.4
 _ZN4KCal14RecurrenceRule17setRecurrenceTypeENS0_10PeriodTypeE@Base 4:4.3.4
 _ZN4KCal14RecurrenceRule5clearEv@Base 4:4.3.4
 _ZN4KCal14RecurrenceRule7Private16buildConstraintsEv@Base 4:4.3.4
 _ZN4KCal14RecurrenceRule7Private5clearEv@Base 4:4.3.4
 _ZN4KCal14RecurrenceRule7Private8setDirtyEv@Base 4:4.3.4
 _ZN4KCal14RecurrenceRule7PrivateC1EPS0_RKS1_@Base 4:4.3.4
 _ZN4KCal14RecurrenceRule7PrivateC2EPS0_RKS1_@Base 4:4.3.4
 _ZN4KCal14RecurrenceRule7PrivateaSERKS1_@Base 4:4.3.4
 _ZN4KCal14RecurrenceRule8setDirtyEv@Base 4:4.3.4
 _ZN4KCal14RecurrenceRule8setEndDtERK9KDateTime@Base 4:4.3.4
 _ZN4KCal14RecurrenceRule8setRRuleERK7QString@Base 4:4.3.4
 _ZN4KCal14RecurrenceRule9setAllDayEb@Base 4:4.3.4
 _ZN4KCal14RecurrenceRule9setByDaysE5QListINS0_7WDayPosEE@Base 4:4.3.4
 _ZN4KCal14RecurrenceRuleC1ERKS0_@Base 4:4.3.4
 _ZN4KCal14RecurrenceRuleC1Ev@Base 4:4.3.4
 _ZN4KCal14RecurrenceRuleC2ERKS0_@Base 4:4.3.4
 _ZN4KCal14RecurrenceRuleC2Ev@Base 4:4.3.4
 _ZN4KCal14RecurrenceRuleD1Ev@Base 4:4.3.4
 _ZN4KCal14RecurrenceRuleD2Ev@Base 4:4.3.4
 _ZN4KCal14RecurrenceRuleaSERKS0_@Base 4:4.3.4
 _ZN4KCal14ResourceCached10addJournalEPNS_7JournalE@Base 4:4.3.4
 _ZN4KCal14ResourceCached10clearCacheEv@Base 4:4.3.4
 _ZN4KCal14ResourceCached10deleteTodoEPNS_4TodoE@Base 4:4.3.4
 _ZN4KCal14ResourceCached10readConfigERK12KConfigGroup@Base 4:4.3.4
 _ZN4KCal14ResourceCached10shiftTimesERKN9KDateTime4SpecES4_@Base 4:4.3.4
 _ZN4KCal14ResourceCached10slotReloadEv@Base 4:4.3.4
 _ZN4KCal14ResourceCached11clearChangeEPNS_9IncidenceE@Base 4:4.3.4
 _ZN4KCal14ResourceCached11clearChangeERK7QString@Base 4:4.3.4
 _ZN4KCal14ResourceCached11deleteEventEPNS_5EventE@Base 4:4.3.4
 _ZN4KCal14ResourceCached11qt_metacallEN11QMetaObject4CallEiPPv@Base 4:4.3.4
 _ZN4KCal14ResourceCached11qt_metacastEPKc@Base 4:4.3.4
 _ZN4KCal14ResourceCached11rawJournalsENS_16JournalSortFieldENS_13SortDirectionE@Base 4:4.3.4
 _ZN4KCal14ResourceCached11saveToCacheEv@Base 4:4.3.4
 _ZN4KCal14ResourceCached11setReloadedEb@Base 4:4.3.4
 _ZN4KCal14ResourceCached11setTimeSpecERKN9KDateTime4SpecE@Base 4:4.3.4
 _ZN4KCal14ResourceCached11writeConfigER12KConfigGroup@Base 4:4.3.4
 _ZN4KCal14ResourceCached12checkForSaveEv@Base 4:4.3.4
 _ZN4KCal14ResourceCached12clearChangesEv@Base 4:4.3.4
 _ZN4KCal14ResourceCached13deleteJournalEPNS_7JournalE@Base 4:4.3.4
 _ZN4KCal14ResourceCached13loadFromCacheEv@Base 4:4.3.4
 _ZN4KCal14ResourceCached13setSavePolicyEi@Base 4:4.3.4
 _ZN4KCal14ResourceCached13setTimeZoneIdERK7QString@Base 4:4.3.4
 _ZN4KCal14ResourceCached14checkForReloadEv@Base 4:4.3.4
 _ZN4KCal14ResourceCached14deleteAllTodosEv@Base 4:4.3.4
 _ZN4KCal14ResourceCached14setupSaveTimerEv@Base 4:4.3.4
 _ZN4KCal14ResourceCached15deleteAllEventsEv@Base 4:4.3.4
 _ZN4KCal14ResourceCached15rawTodosForDateERK5QDate@Base 4:4.3.4
 _ZN4KCal14ResourceCached15setReloadPolicyEi@Base 4:4.3.4
 _ZN4KCal14ResourceCached15setSaveIntervalEi@Base 4:4.3.4
 _ZN4KCal14ResourceCached16cleanUpTodoCacheERKNS_8ListBaseINS_4TodoEEE@Base 4:4.3.4
 _ZN4KCal14ResourceCached16loadChangesCacheER4QMapIPNS_9IncidenceEbERK7QString@Base 4:4.3.4
 _ZN4KCal14ResourceCached16loadChangesCacheEv@Base 4:4.3.4
 _ZN4KCal14ResourceCached16rawEventsForDateERK5QDateRKN9KDateTime4SpecENS_14EventSortFieldENS_13SortDirectionE@Base 4:4.3.4
 _ZN4KCal14ResourceCached16rawEventsForDateERK9KDateTime@Base 4:4.3.4
 _ZN4KCal14ResourceCached16saveChangesCacheERK4QMapIPNS_9IncidenceEbERK7QString@Base 4:4.3.4
 _ZN4KCal14ResourceCached16saveChangesCacheEv@Base 4:4.3.4
 _ZN4KCal14ResourceCached16setupReloadTimerEv@Base 4:4.3.4
 _ZN4KCal14ResourceCached16staticMetaObjectE@Base 4:4.3.4
 _ZN4KCal14ResourceCached17cleanUpEventCacheERKNS_8ListBaseINS_5EventEEE@Base 4:4.3.4
 _ZN4KCal14ResourceCached17deleteAllJournalsEv@Base 4:4.3.4
 _ZN4KCal14ResourceCached17setReloadIntervalEi@Base 4:4.3.4
 _ZN4KCal14ResourceCached18rawJournalsForDateERK5QDate@Base 4:4.3.4
 _ZN4KCal14ResourceCached20inhibitDefaultReloadEb@Base 4:4.3.4
 _ZN4KCal14ResourceCached21checkForAutomaticSaveEv@Base 4:4.3.4
 _ZN4KCal14ResourceCached21setIdMapperIdentifierEv@Base 4:4.3.4
 _ZN4KCal14ResourceCached22calendarIncidenceAddedEPNS_9IncidenceE@Base 4:4.3.4
 _ZN4KCal14ResourceCached24calendarIncidenceChangedEPNS_9IncidenceE@Base 4:4.3.4
 _ZN4KCal14ResourceCached24calendarIncidenceDeletedEPNS_9IncidenceE@Base 4:4.3.4
 _ZN4KCal14ResourceCached24enableChangeNotificationEv@Base 4:4.3.4
 _ZN4KCal14ResourceCached25disableChangeNotificationEv@Base 4:4.3.4
 _ZN4KCal14ResourceCached4loadENS0_11CacheActionE@Base 4:4.3.4
 _ZN4KCal14ResourceCached4loadEv@Base 4:4.3.4
 _ZN4KCal14ResourceCached4saveENS0_11CacheActionEPNS_9IncidenceE@Base 4:4.3.4
 _ZN4KCal14ResourceCached4saveEPNS_9IncidenceE@Base 4:4.3.4
 _ZN4KCal14ResourceCached4todoERK7QString@Base 4:4.3.4
 _ZN4KCal14ResourceCached5eventERK7QString@Base 4:4.3.4
 _ZN4KCal14ResourceCached6alarmsERK9KDateTimeS3_@Base 4:4.3.4
 _ZN4KCal14ResourceCached6doOpenEv@Base 4:4.3.4
 _ZN4KCal14ResourceCached6doSaveEbPNS_9IncidenceE@Base 4:4.3.4
 _ZN4KCal14ResourceCached7addTodoEPNS_4TodoE@Base 4:4.3.4
 _ZN4KCal14ResourceCached7doCloseEv@Base 4:4.3.4
 _ZN4KCal14ResourceCached7journalERK7QString@Base 4:4.3.4
 _ZN4KCal14ResourceCached8addEventEPNS_5EventE@Base 4:4.3.4
 _ZN4KCal14ResourceCached8alarmsToERK9KDateTime@Base 4:4.3.4
 _ZN4KCal14ResourceCached8idMapperEv@Base 4:4.3.4
 _ZN4KCal14ResourceCached8rawTodosENS_13TodoSortFieldENS_13SortDirectionE@Base 4:4.3.4
 _ZN4KCal14ResourceCached8setOwnerERKNS_6PersonE@Base 4:4.3.4
 _ZN4KCal14ResourceCached8slotSaveEv@Base 4:4.3.4
 _ZN4KCal14ResourceCached9rawEventsENS_14EventSortFieldENS_13SortDirectionE@Base 4:4.3.4
 _ZN4KCal14ResourceCached9rawEventsERK5QDateS3_RKN9KDateTime4SpecEb@Base 4:4.3.4
 _ZN4KCal14ResourceCachedC1ERK12KConfigGroup@Base 4:4.3.4
 _ZN4KCal14ResourceCachedC1Ev@Base 4:4.3.4
 _ZN4KCal14ResourceCachedC2ERK12KConfigGroup@Base 4:4.3.4
 _ZN4KCal14ResourceCachedC2Ev@Base 4:4.3.4
 _ZN4KCal14ResourceCachedD0Ev@Base 4:4.3.4
 _ZN4KCal14ResourceCachedD1Ev@Base 4:4.3.4
 _ZN4KCal14ResourceCachedD2Ev@Base 4:4.3.4
 _ZN4KCal15ScheduleMessage10statusNameENS0_6StatusE@Base 4:4.3.4
 _ZN4KCal15ScheduleMessage5errorEv@Base 4:4.3.4
 _ZN4KCal15ScheduleMessage5eventEv@Base 4:4.3.4
 _ZN4KCal15ScheduleMessage6methodEv@Base 4:4.3.4
 _ZN4KCal15ScheduleMessage6statusEv@Base 4:4.3.4
 _ZN4KCal15ScheduleMessageC1EPNS_13IncidenceBaseENS_10iTIPMethodENS0_6StatusE@Base 4:4.3.4
 _ZN4KCal15ScheduleMessageC2EPNS_13IncidenceBaseENS_10iTIPMethodENS0_6StatusE@Base 4:4.3.4
 _ZN4KCal15ScheduleMessageD1Ev@Base 4:4.3.4
 _ZN4KCal15ScheduleMessageD2Ev@Base 4:4.3.4
 _ZN4KCal16CustomProperties17setCustomPropertyERK10QByteArrayS3_RK7QString@Base 4:4.3.4
 _ZN4KCal16CustomProperties18customPropertyNameERK10QByteArrayS3_@Base 4:4.5.0
 _ZN4KCal16CustomProperties19setCustomPropertiesERK4QMapI10QByteArray7QStringE@Base 4:4.3.4
 _ZN4KCal16CustomProperties20removeCustomPropertyERK10QByteArrayS3_@Base 4:4.3.4
 _ZN4KCal16CustomProperties23setNonKDECustomPropertyERK10QByteArrayRK7QString@Base 4:4.3.4
 _ZN4KCal16CustomProperties26removeNonKDECustomPropertyERK10QByteArray@Base 4:4.3.4
 _ZN4KCal16CustomPropertiesC1ERKS0_@Base 4:4.3.4
 _ZN4KCal16CustomPropertiesC1Ev@Base 4:4.3.4
 _ZN4KCal16CustomPropertiesC2ERKS0_@Base 4:4.3.4
 _ZN4KCal16CustomPropertiesC2Ev@Base 4:4.3.4
 _ZN4KCal16CustomPropertiesD0Ev@Base 4:4.3.4
 _ZN4KCal16CustomPropertiesD1Ev@Base 4:4.3.4
 _ZN4KCal16CustomPropertiesD2Ev@Base 4:4.3.4
 _ZN4KCal16CustomPropertiesaSERKS0_@Base 4:4.3.4
 _ZN4KCal16FreeBusyUrlStore4selfEv@Base 4:4.3.4
 _ZN4KCal16FreeBusyUrlStore4syncEv@Base 4:4.3.4
 _ZN4KCal16FreeBusyUrlStore7Private5sSelfE@Base 4:4.3.4
 _ZN4KCal16FreeBusyUrlStore7readUrlERK7QString@Base 4:4.3.4
 _ZN4KCal16FreeBusyUrlStore8writeUrlERK7QStringS3_@Base 4:4.3.4
 _ZN4KCal16FreeBusyUrlStoreC1Ev@Base 4:4.3.4
 _ZN4KCal16FreeBusyUrlStoreC2Ev@Base 4:4.3.4
 _ZN4KCal16FreeBusyUrlStoreD1Ev@Base 4:4.3.4
 _ZN4KCal16FreeBusyUrlStoreD2Ev@Base 4:4.3.4
 _ZN4KCal16ICalTimeZoneDataC1ERK13KTimeZoneDataRK9KTimeZoneRK5QDate@Base 4:4.3.4
 _ZN4KCal16ICalTimeZoneDataC1ERKS0_@Base 4:4.3.4
 _ZN4KCal16ICalTimeZoneDataC1Ev@Base 4:4.3.4
 _ZN4KCal16ICalTimeZoneDataC2ERK13KTimeZoneDataRK9KTimeZoneRK5QDate@Base 4:4.3.4
 _ZN4KCal16ICalTimeZoneDataC2ERKS0_@Base 4:4.3.4
 _ZN4KCal16ICalTimeZoneDataC2Ev@Base 4:4.3.4
 _ZN4KCal16ICalTimeZoneDataD0Ev@Base 4:4.3.4
 _ZN4KCal16ICalTimeZoneDataD1Ev@Base 4:4.3.4
 _ZN4KCal16ICalTimeZoneDataD2Ev@Base 4:4.3.4
 _ZN4KCal16ICalTimeZoneDataaSERKS0_@Base 4:4.3.4
 _ZN4KCal16ResourceCalendar11qt_metacallEN11QMetaObject4CallEiPPv@Base 4:4.3.4
 _ZN4KCal16ResourceCalendar11qt_metacastEPKc@Base 4:4.3.4
 _ZN4KCal16ResourceCalendar11writeConfigER12KConfigGroup@Base 4:4.3.4
 _ZN4KCal16ResourceCalendar12addIncidenceEPNS_9IncidenceE@Base 4:4.3.4
 _ZN4KCal16ResourceCalendar13rawIncidencesEv@Base 4:4.3.4
 _ZN4KCal16ResourceCalendar13resourceSavedEPS0_@Base 4:4.3.4
 _ZN4KCal16ResourceCalendar14addSubresourceERK7QStringS3_@Base 4:4.3.4
 _ZN4KCal16ResourceCalendar14resourceLoadedEPS0_@Base 4:4.3.4
 _ZN4KCal16ResourceCalendar14setInhibitSaveEb@Base 4:4.3.4
 _ZN4KCal16ResourceCalendar15deleteIncidenceEPNS_9IncidenceE@Base 4:4.3.4
 _ZN4KCal16ResourceCalendar15resourceChangedEPS0_@Base 4:4.3.4
 _ZN4KCal16ResourceCalendar15subresourceTypeERK7QString@Base 4:4.3.4
 _ZN4KCal16ResourceCalendar16staticMetaObjectE@Base 4:4.3.4
 _ZN4KCal16ResourceCalendar17removeSubresourceERK7QString@Base 4:4.3.4
 _ZN4KCal16ResourceCalendar17resourceLoadErrorEPS0_RK7QString@Base 4:4.3.4
 _ZN4KCal16ResourceCalendar17resourceSaveErrorEPS0_RK7QString@Base 4:4.3.4
 _ZN4KCal16ResourceCalendar18setResolveConflictEb@Base 4:4.3.4
 _ZN4KCal16ResourceCalendar19setNoReadOnlyOnLoadEb@Base 4:4.3.4
 _ZN4KCal16ResourceCalendar20setReceivedLoadErrorEb@Base 4:4.3.4
 _ZN4KCal16ResourceCalendar20setReceivedSaveErrorEb@Base 4:4.3.4
 _ZN4KCal16ResourceCalendar20setSubresourceActiveERK7QStringb@Base 4:4.3.4
 _ZN4KCal16ResourceCalendar21subresourceIdentifierEPNS_9IncidenceE@Base 4:4.3.4
 _ZN4KCal16ResourceCalendar22signalSubresourceAddedEPS0_RK7QStringS4_S4_@Base 4:4.3.4
 _ZN4KCal16ResourceCalendar24signalSubresourceRemovedEPS0_RK7QStringS4_@Base 4:4.3.4
 _ZN4KCal16ResourceCalendar4loadEv@Base 4:4.3.4
 _ZN4KCal16ResourceCalendar4saveEPNS_9IncidenceE@Base 4:4.3.4
 _ZN4KCal16ResourceCalendar4saveER7QStringPNS_9IncidenceE@Base 4:4.3.4
 _ZN4KCal16ResourceCalendar6doSaveEbPNS_9IncidenceE@Base 4:4.3.4
 _ZN4KCal16ResourceCalendar8isSavingEv@Base 4:4.3.4
 _ZN4KCal16ResourceCalendar8setValueERK7QStringS3_@Base 4:4.3.4
 _ZN4KCal16ResourceCalendar9incidenceERK7QString@Base 4:4.3.4
 _ZN4KCal16ResourceCalendar9loadErrorERK7QString@Base 4:4.3.4
 _ZN4KCal16ResourceCalendar9saveErrorERK7QString@Base 4:4.3.4
 _ZN4KCal16ResourceCalendarC1ERK12KConfigGroup@Base 4:4.3.4
 _ZN4KCal16ResourceCalendarC1Ev@Base 4:4.3.4
 _ZN4KCal16ResourceCalendarC2ERK12KConfigGroup@Base 4:4.3.4
 _ZN4KCal16ResourceCalendarC2Ev@Base 4:4.3.4
 _ZN4KCal16ResourceCalendarD0Ev@Base 4:4.3.4
 _ZN4KCal16ResourceCalendarD1Ev@Base 4:4.3.4
 _ZN4KCal16ResourceCalendarD2Ev@Base 4:4.3.4
 _ZN4KCal16ResourceLocalDir10deleteTodoEPNS_4TodoE@Base 4:4.3.4
 _ZN4KCal16ResourceLocalDir10doFileLoadERNS_13CalendarLocalERK7QString@Base 4:4.3.4
 _ZN4KCal16ResourceLocalDir10readConfigERK12KConfigGroup@Base 4:4.3.4
 _ZN4KCal16ResourceLocalDir11deleteEventEPNS_5EventE@Base 4:4.3.4
 _ZN4KCal16ResourceLocalDir11qt_metacallEN11QMetaObject4CallEiPPv@Base 4:4.3.4
 _ZN4KCal16ResourceLocalDir11qt_metacastEPKc@Base 4:4.3.4
 _ZN4KCal16ResourceLocalDir11writeConfigER12KConfigGroup@Base 4:4.3.4
 _ZN4KCal16ResourceLocalDir13deleteJournalEPNS_7JournalE@Base 4:4.3.4
 _ZN4KCal16ResourceLocalDir14deleteAllTodosEv@Base 4:4.3.4
 _ZN4KCal16ResourceLocalDir15deleteAllEventsEv@Base 4:4.3.4
 _ZN4KCal16ResourceLocalDir16staticMetaObjectE@Base 4:4.3.4
 _ZN4KCal16ResourceLocalDir17deleteAllJournalsEv@Base 4:4.3.4
 _ZN4KCal16ResourceLocalDir4lockEv@Base 4:4.3.4
 _ZN4KCal16ResourceLocalDir6doLoadEb@Base 4:4.3.4
 _ZN4KCal16ResourceLocalDir6doOpenEv@Base 4:4.3.4
 _ZN4KCal16ResourceLocalDir6doSaveEb@Base 4:4.3.4
 _ZN4KCal16ResourceLocalDir6doSaveEbPNS_9IncidenceE@Base 4:4.3.4
 _ZN4KCal16ResourceLocalDir6reloadERK7QString@Base 4:4.3.4
 _ZN4KCal16ResourceLocalDir7Private10doFileLoadERNS_13CalendarLocalERK7QStringb@Base 4:4.3.4
 _ZN4KCal16ResourceLocalDir7Private11qt_metacallEN11QMetaObject4CallEiPPv@Base 4:4.3.4
 _ZN4KCal16ResourceLocalDir7Private11qt_metacastEPKc@Base 4:4.3.4
 _ZN4KCal16ResourceLocalDir7Private15resourceChangedEPNS_16ResourceCalendarE@Base 4:4.3.4
 _ZN4KCal16ResourceLocalDir7Private16staticMetaObjectE@Base 4:4.3.4
 _ZN4KCal16ResourceLocalDir7Private18getUidFromFileNameERK7QString@Base 4:4.3.4
 _ZN4KCal16ResourceLocalDir7Private19deleteIncidenceFileEPNS_9IncidenceE@Base 4:4.3.4
 _ZN4KCal16ResourceLocalDir7Private22addIncidenceToCalendarERK7QString@Base 4:4.3.4
 _ZN4KCal16ResourceLocalDir7Private25updateIncidenceInCalendarERK7QString@Base 4:4.3.4
 _ZN4KCal16ResourceLocalDir7Private27deleteIncidenceFromCalendarERK7QString@Base 4:4.3.4
 _ZN4KCal16ResourceLocalDir7Private4initEv@Base 4:4.3.4
 _ZN4KCal16ResourceLocalDir7PrivateD0Ev@Base 4:4.6.5
 _ZN4KCal16ResourceLocalDir7PrivateD1Ev@Base 4:4.6.5
 _ZN4KCal16ResourceLocalDir7PrivateD2Ev@Base 4:4.6.5
 _ZN4KCal16ResourceLocalDirC1ERK12KConfigGroup@Base 4:4.3.4
 _ZN4KCal16ResourceLocalDirC1ERK7QString@Base 4:4.3.4
 _ZN4KCal16ResourceLocalDirC1Ev@Base 4:4.3.4
 _ZN4KCal16ResourceLocalDirC2ERK12KConfigGroup@Base 4:4.3.4
 _ZN4KCal16ResourceLocalDirC2ERK7QString@Base 4:4.3.4
 _ZN4KCal16ResourceLocalDirC2Ev@Base 4:4.3.4
 _ZN4KCal16ResourceLocalDirD0Ev@Base 4:4.3.4
 _ZN4KCal16ResourceLocalDirD1Ev@Base 4:4.3.4
 _ZN4KCal16ResourceLocalDirD2Ev@Base 4:4.3.4
 _ZN4KCal17AssignmentVisitor5visitEPNS_4TodoE@Base 4:4.3.4
 _ZN4KCal17AssignmentVisitor5visitEPNS_5EventE@Base 4:4.3.4
 _ZN4KCal17AssignmentVisitor5visitEPNS_7JournalE@Base 4:4.3.4
 _ZN4KCal17AssignmentVisitor5visitEPNS_8FreeBusyE@Base 4:4.3.4
 _ZN4KCal17AssignmentVisitor6assignEPNS_13IncidenceBaseEPKS1_@Base 4:4.3.4
 _ZN4KCal17AssignmentVisitorC1Ev@Base 4:4.3.4
 _ZN4KCal17AssignmentVisitorC2Ev@Base 4:4.3.4
 _ZN4KCal17AssignmentVisitorD0Ev@Base 4:4.3.4
 _ZN4KCal17AssignmentVisitorD1Ev@Base 4:4.3.4
 _ZN4KCal17AssignmentVisitorD2Ev@Base 4:4.3.4
 _ZN4KCal17CalendarResources10addJournalEPNS_7JournalE@Base 4:4.3.4
 _ZN4KCal17CalendarResources10addJournalEPNS_7JournalEPNS_16ResourceCalendarE@Base 4:4.3.4
 _ZN4KCal17CalendarResources10deleteTodoEPNS_4TodoE@Base 4:4.3.4
 _ZN4KCal17CalendarResources10readConfigEP7KConfig@Base 4:4.3.4
 _ZN4KCal17CalendarResources11beginChangeEPNS_9IncidenceE@Base 4:4.3.4
 _ZN4KCal17CalendarResources11deleteEventEPNS_5EventE@Base 4:4.3.4
 _ZN4KCal17CalendarResources11qt_metacallEN11QMetaObject4CallEiPPv@Base 4:4.3.4
 _ZN4KCal17CalendarResources11qt_metacastEPKc@Base 4:4.3.4
 _ZN4KCal17CalendarResources11rawJournalsENS_16JournalSortFieldENS_13SortDirectionE@Base 4:4.3.4
 _ZN4KCal17CalendarResources12addIncidenceEPNS_9IncidenceE@Base 4:4.3.4
 _ZN4KCal17CalendarResources12addIncidenceEPNS_9IncidenceEPNS_16ResourceCalendarE@Base 4:4.3.4
 _ZN4KCal17CalendarResources13deleteJournalEPNS_7JournalE@Base 4:4.3.4
 _ZN4KCal17CalendarResources13doSetTimeSpecERKN9KDateTime4SpecE@Base 4:4.3.4
 _ZN4KCal17CalendarResources13resourceAddedEPNS_16ResourceCalendarE@Base 4:4.3.4
 _ZN4KCal17CalendarResources13slotLoadErrorEPNS_16ResourceCalendarERK7QString@Base 4:4.3.4
 _ZN4KCal17CalendarResources13slotSaveErrorEPNS_16ResourceCalendarERK7QString@Base 4:4.3.4
 _ZN4KCal17CalendarResources14clearExceptionEv@Base 4:4.3.4
 _ZN4KCal17CalendarResources14deleteAllTodosEv@Base 4:4.3.4
 _ZN4KCal17CalendarResources15connectResourceEPNS_16ResourceCalendarE@Base 4:4.3.4
 _ZN4KCal17CalendarResources15deleteAllEventsEv@Base 4:4.3.4
 _ZN4KCal17CalendarResources15rawTodosForDateERK5QDate@Base 4:4.3.4
 _ZN4KCal17CalendarResources15resourceDeletedEPNS_16ResourceCalendarE@Base 4:4.3.4
 _ZN4KCal17CalendarResources16rawEventsForDateERK5QDateRKN9KDateTime4SpecENS_14EventSortFieldENS_13SortDirectionE@Base 4:4.3.4
 _ZN4KCal17CalendarResources16rawEventsForDateERK9KDateTime@Base 4:4.3.4
 _ZN4KCal17CalendarResources16resourceModifiedEPNS_16ResourceCalendarE@Base 4:4.3.4
 _ZN4KCal17CalendarResources16staticMetaObjectE@Base 4:4.3.4
 _ZN4KCal17CalendarResources17DestinationPolicy15resourceManagerEv@Base 4:4.3.4
 _ZN4KCal17CalendarResources17DestinationPolicy20hasCalendarResourcesEv@Base 4:4.3.4
 _ZN4KCal17CalendarResources17DestinationPolicy6parentEv@Base 4:4.3.4
 _ZN4KCal17CalendarResources17DestinationPolicy9setParentEP7QWidget@Base 4:4.3.4
 _ZN4KCal17CalendarResources17DestinationPolicyC1EPN4KRES7ManagerINS_16ResourceCalendarEEEP7QWidget@Base 4:4.3.4
 _ZN4KCal17CalendarResources17DestinationPolicyC2EPN4KRES7ManagerINS_16ResourceCalendarEEEP7QWidget@Base 4:4.3.4
 _ZN4KCal17CalendarResources17DestinationPolicyD0Ev@Base 4:4.3.4
 _ZN4KCal17CalendarResources17DestinationPolicyD1Ev@Base 4:4.3.4
 _ZN4KCal17CalendarResources17DestinationPolicyD2Ev@Base 4:4.3.4
 _ZN4KCal17CalendarResources17deleteAllJournalsEv@Base 4:4.3.4
 _ZN4KCal17CalendarResources17releaseSaveTicketEPNS0_6TicketE@Base 4:4.3.4
 _ZN4KCal17CalendarResources17requestSaveTicketEPNS_16ResourceCalendarE@Base 4:4.3.4
 _ZN4KCal17CalendarResources18dialogParentWidgetEv@Base 4:4.3.4
 _ZN4KCal17CalendarResources18rawJournalsForDateERK5QDate@Base 4:4.3.4
 _ZN4KCal17CalendarResources18signalErrorMessageERK7QString@Base 4:4.3.4
 _ZN4KCal17CalendarResources19endAddingIncidencesEv@Base 4:4.4.0
 _ZN4KCal17CalendarResources19signalResourceAddedEPNS_16ResourceCalendarE@Base 4:4.3.4
 _ZN4KCal17CalendarResources20AskDestinationPolicy11destinationEPNS_9IncidenceE@Base 4:4.3.4
 _ZN4KCal17CalendarResources20AskDestinationPolicyC1EPN4KRES7ManagerINS_16ResourceCalendarEEEP7QWidget@Base 4:4.3.4
 _ZN4KCal17CalendarResources20AskDestinationPolicyC2EPN4KRES7ManagerINS_16ResourceCalendarEEEP7QWidget@Base 4:4.3.4
 _ZN4KCal17CalendarResources20AskDestinationPolicyD0Ev@Base 4:4.3.4
 _ZN4KCal17CalendarResources20AskDestinationPolicyD1Ev@Base 4:4.3.4
 _ZN4KCal17CalendarResources20AskDestinationPolicyD2Ev@Base 4:4.3.4
 _ZN4KCal17CalendarResources20decrementChangeCountEPNS_16ResourceCalendarE@Base 4:4.3.4
 _ZN4KCal17CalendarResources20hasCalendarResourcesEv@Base 4:4.3.4
 _ZN4KCal17CalendarResources20incrementChangeCountEPNS_16ResourceCalendarE@Base 4:4.3.4
 _ZN4KCal17CalendarResources21beginAddingIncidencesEv@Base 4:4.4.0
 _ZN4KCal17CalendarResources21setDialogParentWidgetEP7QWidget@Base 4:4.3.4
 _ZN4KCal17CalendarResources21signalResourceDeletedEPNS_16ResourceCalendarE@Base 4:4.3.4
 _ZN4KCal17CalendarResources22signalResourceModifiedEPNS_16ResourceCalendarE@Base 4:4.3.4
 _ZN4KCal17CalendarResources23setAskDestinationPolicyEv@Base 4:4.3.4
 _ZN4KCal17CalendarResources25StandardDestinationPolicy11destinationEPNS_9IncidenceE@Base 4:4.3.4
 _ZN4KCal17CalendarResources25StandardDestinationPolicyC1EPN4KRES7ManagerINS_16ResourceCalendarEEEP7QWidget@Base 4:4.3.4
 _ZN4KCal17CalendarResources25StandardDestinationPolicyC2EPN4KRES7ManagerINS_16ResourceCalendarEEEP7QWidget@Base 4:4.3.4
 _ZN4KCal17CalendarResources25StandardDestinationPolicyD0Ev@Base 4:4.3.4
 _ZN4KCal17CalendarResources25StandardDestinationPolicyD1Ev@Base 4:4.3.4
 _ZN4KCal17CalendarResources25StandardDestinationPolicyD2Ev@Base 4:4.3.4
 _ZN4KCal17CalendarResources28setStandardDestinationPolicyEv@Base 4:4.3.4
 _ZN4KCal17CalendarResources4loadEv@Base 4:4.3.4
 _ZN4KCal17CalendarResources4saveEPNS0_6TicketEPNS_9IncidenceE@Base 4:4.3.4
 _ZN4KCal17CalendarResources4saveEv@Base 4:4.3.4
 _ZN4KCal17CalendarResources4todoERK7QString@Base 4:4.3.4
 _ZN4KCal17CalendarResources5closeEv@Base 4:4.3.4
 _ZN4KCal17CalendarResources5eventERK7QString@Base 4:4.3.4
 _ZN4KCal17CalendarResources6TicketC1EPNS_16ResourceCalendarE@Base 4:4.3.4
 _ZN4KCal17CalendarResources6TicketC2EPNS_16ResourceCalendarE@Base 4:4.3.4
 _ZN4KCal17CalendarResources6TicketD1Ev@Base 4:4.3.4
 _ZN4KCal17CalendarResources6TicketD2Ev@Base 4:4.3.4
 _ZN4KCal17CalendarResources6alarmsERK9KDateTimeS3_@Base 4:4.3.4
 _ZN4KCal17CalendarResources6reloadEv@Base 4:4.3.4
 (optional=templinst)_ZN4KCal17CalendarResources7Private16appendIncidencesINS_8ListBaseINS_4TodoEEEEEvRT_RKS6_PNS_16ResourceCalendarE@Base 4:4.3.4
 (optional=templinst)_ZN4KCal17CalendarResources7Private16appendIncidencesINS_8ListBaseINS_5EventEEEEEvRT_RKS6_PNS_16ResourceCalendarE@Base 4:4.3.4
 (optional=templinst)_ZN4KCal17CalendarResources7Private16appendIncidencesINS_8ListBaseINS_7JournalEEEEEvRT_RKS6_PNS_16ResourceCalendarE@Base 4:4.3.4
 _ZN4KCal17CalendarResources7addTodoEPNS_4TodoE@Base 4:4.3.4
 _ZN4KCal17CalendarResources7addTodoEPNS_4TodoEPNS_16ResourceCalendarE@Base 4:4.3.4
 _ZN4KCal17CalendarResources7journalERK7QString@Base 4:4.3.4
 _ZN4KCal17CalendarResources8addEventEPNS_5EventE@Base 4:4.3.4
 _ZN4KCal17CalendarResources8addEventEPNS_5EventEPNS_16ResourceCalendarE@Base 4:4.3.4
 _ZN4KCal17CalendarResources8alarmsToERK9KDateTime@Base 4:4.3.4
 _ZN4KCal17CalendarResources8isSavingEv@Base 4:4.3.4
 _ZN4KCal17CalendarResources8rawTodosENS_13TodoSortFieldENS_13SortDirectionE@Base 4:4.3.4
 _ZN4KCal17CalendarResources8resourceEPNS_9IncidenceE@Base 4:4.3.4
 _ZN4KCal17CalendarResources9endChangeEPNS_9IncidenceE@Base 4:4.3.4
 _ZN4KCal17CalendarResources9exceptionEv@Base 4:4.3.4
 _ZN4KCal17CalendarResources9rawEventsENS_14EventSortFieldENS_13SortDirectionE@Base 4:4.3.4
 _ZN4KCal17CalendarResources9rawEventsERK5QDateS3_RKN9KDateTime4SpecEb@Base 4:4.3.4
 _ZN4KCal17CalendarResourcesC1ERK7QStringS3_@Base 4:4.3.4
 _ZN4KCal17CalendarResourcesC1ERKN9KDateTime4SpecERK7QString@Base 4:4.3.4
 _ZN4KCal17CalendarResourcesC2ERK7QStringS3_@Base 4:4.3.4
 _ZN4KCal17CalendarResourcesC2ERKN9KDateTime4SpecERK7QString@Base 4:4.3.4
 _ZN4KCal17CalendarResourcesD0Ev@Base 4:4.3.4
 _ZN4KCal17CalendarResourcesD1Ev@Base 4:4.3.4
 _ZN4KCal17CalendarResourcesD2Ev@Base 4:4.3.4
 _ZN4KCal17ComparisonVisitor5visitEPNS_4TodoE@Base 4:4.3.4
 _ZN4KCal17ComparisonVisitor5visitEPNS_5EventE@Base 4:4.3.4
 _ZN4KCal17ComparisonVisitor5visitEPNS_7JournalE@Base 4:4.3.4
 _ZN4KCal17ComparisonVisitor5visitEPNS_8FreeBusyE@Base 4:4.3.4
 _ZN4KCal17ComparisonVisitor7compareEPNS_13IncidenceBaseEPKS1_@Base 4:4.3.4
 _ZN4KCal17ComparisonVisitorC1Ev@Base 4:4.3.4
 _ZN4KCal17ComparisonVisitorC2Ev@Base 4:4.3.4
 _ZN4KCal17ComparisonVisitorD0Ev@Base 4:4.3.4
 _ZN4KCal17ComparisonVisitorD1Ev@Base 4:4.3.4
 _ZN4KCal17ComparisonVisitorD2Ev@Base 4:4.3.4
 _ZN4KCal17ConfirmSaveDialog13addIncidencesERKNS_8ListBaseINS_9IncidenceEEERK7QString@Base 4:4.3.4
 _ZN4KCal17ConfirmSaveDialogC1ERK7QStringP7QWidget@Base 4:4.3.4
 _ZN4KCal17ConfirmSaveDialogC2ERK7QStringP7QWidget@Base 4:4.3.4
 _ZN4KCal17ConfirmSaveDialogD0Ev@Base 4:4.3.4
 _ZN4KCal17ConfirmSaveDialogD1Ev@Base 4:4.3.4
 _ZN4KCal17ConfirmSaveDialogD2Ev@Base 4:4.3.4
 _ZN4KCal18HTMLExportSettingsC1ERK7QString@Base 4:4.3.4
 _ZN4KCal18HTMLExportSettingsC2ERK7QString@Base 4:4.3.4
 _ZN4KCal18HTMLExportSettingsD0Ev@Base 4:4.3.4
 _ZN4KCal18HTMLExportSettingsD1Ev@Base 4:4.3.4
 _ZN4KCal18HTMLExportSettingsD2Ev@Base 4:4.3.4
 _ZN4KCal18ICalTimeZoneSource12standardZoneERK7QStringb@Base 4:4.3.4
 _ZN4KCal18ICalTimeZoneSource14icalTzidPrefixEv@Base 4:4.3.4
 _ZN4KCal18ICalTimeZoneSource5parseEP13_icaltimezone@Base 4:4.3.4
 _ZN4KCal18ICalTimeZoneSource5parseEP18icalcomponent_impl@Base 4:4.3.4
 _ZN4KCal18ICalTimeZoneSource5parseEP18icalcomponent_implRNS_13ICalTimeZonesE@Base 4:4.3.4
 _ZN4KCal18ICalTimeZoneSource5parseERK7QStringRNS_13ICalTimeZonesE@Base 4:4.3.4
 _ZN4KCal18ICalTimeZoneSourceC1Ev@Base 4:4.3.4
 _ZN4KCal18ICalTimeZoneSourceC2Ev@Base 4:4.3.4
 _ZN4KCal18ICalTimeZoneSourceD0Ev@Base 4:4.3.4
 _ZN4KCal18ICalTimeZoneSourceD1Ev@Base 4:4.3.4
 _ZN4KCal18ICalTimeZoneSourceD2Ev@Base 4:4.3.4
 _ZN4KCal18IncidenceFormatter10toolTipStrEPNS_13IncidenceBaseEbN9KDateTime4SpecE@Base 4:4.3.4
 _ZN4KCal18IncidenceFormatter10toolTipStrEPNS_8CalendarEPNS_13IncidenceBaseERK5QDatebN9KDateTime4SpecE@Base 4:4.4.0
 _ZN4KCal18IncidenceFormatter10toolTipStrERK7QStringPNS_13IncidenceBaseERK5QDatebN9KDateTime4SpecE@Base 4:4.5.0
 _ZN4KCal18IncidenceFormatter11mailBodyStrEPNS_13IncidenceBaseEN9KDateTime4SpecE@Base 4:4.3.4
 _ZN4KCal18IncidenceFormatter12dateToStringERK9KDateTimebRKNS1_4SpecE@Base 4:4.3.4
 _ZN4KCal18IncidenceFormatter12timeToStringERK9KDateTimebRKNS1_4SpecE@Base 4:4.3.4
 _ZN4KCal18IncidenceFormatter13toolTipStringEPNS_13IncidenceBaseEb@Base 4:4.3.4
 _ZN4KCal18IncidenceFormatter14durationStringEPNS_9IncidenceE@Base 4:4.5.0
 _ZN4KCal18IncidenceFormatter14mailBodyStringEPNS_13IncidenceBaseE@Base 4:4.3.4
 _ZN4KCal18IncidenceFormatter14resourceStringEPNS_8CalendarEPNS_9IncidenceE@Base 4:4.4.0
 _ZN4KCal18IncidenceFormatter16dateTimeToStringERK9KDateTimebbRKNS1_4SpecE@Base 4:4.3.4
 _ZN4KCal18IncidenceFormatter16recurrenceStringEPNS_9IncidenceE@Base 4:4.3.4
 _ZN4KCal18IncidenceFormatter18reminderStringListEPNS_9IncidenceEb@Base 4:4.5.0
 _ZN4KCal18IncidenceFormatter19extensiveDisplayStrEPNS_13IncidenceBaseEN9KDateTime4SpecE@Base 4:4.3.4
 _ZN4KCal18IncidenceFormatter19extensiveDisplayStrEPNS_8CalendarEPNS_13IncidenceBaseERK5QDateN9KDateTime4SpecE@Base 4:4.4.0
 _ZN4KCal18IncidenceFormatter19extensiveDisplayStrERK7QStringPNS_13IncidenceBaseERK5QDateN9KDateTime4SpecE@Base 4:4.5.0
 _ZN4KCal18IncidenceFormatter20formatICalInvitationE7QStringPNS_8CalendarEPNS_25InvitationFormatterHelperE@Base 4:4.3.4
 _ZN4KCal18IncidenceFormatter22extensiveDisplayStringEPNS_13IncidenceBaseE@Base 4:4.3.4
 _ZN4KCal18IncidenceFormatter26formatICalInvitationNoHtmlE7QStringPNS_8CalendarEPNS_25InvitationFormatterHelperE@Base 4:4.3.4
 _ZN4KCal18IncidenceFormatter26formatICalInvitationNoHtmlERK7QStringPNS_8CalendarEPNS_25InvitationFormatterHelperES3_@Base 4:4.5.0
 _ZN4KCal19ICalTimeZoneBackendC1EPNS_18ICalTimeZoneSourceERK7QStringS5_ffS5_@Base 4:4.3.4
 _ZN4KCal19ICalTimeZoneBackendC1ERK9KTimeZoneRK5QDate@Base 4:4.3.4
 _ZN4KCal19ICalTimeZoneBackendC1Ev@Base 4:4.3.4
 _ZN4KCal19ICalTimeZoneBackendC2EPNS_18ICalTimeZoneSourceERK7QStringS5_ffS5_@Base 4:4.3.4
 _ZN4KCal19ICalTimeZoneBackendC2ERK9KTimeZoneRK5QDate@Base 4:4.3.4
 _ZN4KCal19ICalTimeZoneBackendC2Ev@Base 4:4.3.4
 _ZN4KCal19ICalTimeZoneBackendD0Ev@Base 4:4.3.4
 _ZN4KCal19ICalTimeZoneBackendD1Ev@Base 4:4.3.4
 _ZN4KCal19ICalTimeZoneBackendD2Ev@Base 4:4.3.4
 _ZN4KCal19ResourceLocalConfig11qt_metacallEN11QMetaObject4CallEiPPv@Base 4:4.3.4
 _ZN4KCal19ResourceLocalConfig11qt_metacastEPKc@Base 4:4.3.4
 _ZN4KCal19ResourceLocalConfig12loadSettingsEPN4KRES8ResourceE@Base 4:4.3.4
 _ZN4KCal19ResourceLocalConfig12saveSettingsEPN4KRES8ResourceE@Base 4:4.3.4
 _ZN4KCal19ResourceLocalConfig16staticMetaObjectE@Base 4:4.3.4
 _ZN4KCal19ResourceLocalConfigC1EP7QWidget@Base 4:4.3.4
 _ZN4KCal19ResourceLocalConfigC2EP7QWidget@Base 4:4.3.4
 _ZN4KCal19ResourceLocalConfigD0Ev@Base 4:4.3.4
 _ZN4KCal19ResourceLocalConfigD1Ev@Base 4:4.3.4
 _ZN4KCal19ResourceLocalConfigD2Ev@Base 4:4.3.4
 _ZN4KCal22ResourceLocalDirConfig11qt_metacallEN11QMetaObject4CallEiPPv@Base 4:4.3.4
 _ZN4KCal22ResourceLocalDirConfig11qt_metacastEPKc@Base 4:4.3.4
 _ZN4KCal22ResourceLocalDirConfig12loadSettingsEPN4KRES8ResourceE@Base 4:4.3.4
 _ZN4KCal22ResourceLocalDirConfig12saveSettingsEPN4KRES8ResourceE@Base 4:4.3.4
 _ZN4KCal22ResourceLocalDirConfig16staticMetaObjectE@Base 4:4.3.4
 _ZN4KCal22ResourceLocalDirConfigC1EP7QWidget@Base 4:4.3.4
 _ZN4KCal22ResourceLocalDirConfigC2EP7QWidget@Base 4:4.3.4
 _ZN4KCal22ResourceLocalDirConfigD0Ev@Base 4:4.3.4
 _ZN4KCal22ResourceLocalDirConfigD1Ev@Base 4:4.3.4
 _ZN4KCal22ResourceLocalDirConfigD2Ev@Base 4:4.3.4
 _ZN4KCal24ResourceCachedSaveConfig11qt_metacallEN11QMetaObject4CallEiPPv@Base 4:4.3.4
 _ZN4KCal24ResourceCachedSaveConfig11qt_metacastEPKc@Base 4:4.3.4
 _ZN4KCal24ResourceCachedSaveConfig12loadSettingsEPNS_14ResourceCachedE@Base 4:4.3.4
 _ZN4KCal24ResourceCachedSaveConfig12saveSettingsEPNS_14ResourceCachedE@Base 4:4.3.4
 _ZN4KCal24ResourceCachedSaveConfig16staticMetaObjectE@Base 4:4.3.4
 _ZN4KCal24ResourceCachedSaveConfig19slotIntervalToggledEb@Base 4:4.3.4
 _ZN4KCal24ResourceCachedSaveConfigC1EP7QWidget@Base 4:4.3.4
 _ZN4KCal24ResourceCachedSaveConfigC2EP7QWidget@Base 4:4.3.4
 _ZN4KCal24ResourceCachedSaveConfigD0Ev@Base 4:4.3.4
 _ZN4KCal24ResourceCachedSaveConfigD1Ev@Base 4:4.3.4
 _ZN4KCal24ResourceCachedSaveConfigD2Ev@Base 4:4.3.4
 _ZN4KCal25InvitationFormatterHelper15generateLinkURLERK7QString@Base 4:4.3.4
 _ZN4KCal25InvitationFormatterHelper8makeLinkERK7QStringS3_@Base 4:4.3.4
 _ZN4KCal26ResourceCachedReloadConfig11qt_metacallEN11QMetaObject4CallEiPPv@Base 4:4.3.4
 _ZN4KCal26ResourceCachedReloadConfig11qt_metacastEPKc@Base 4:4.3.4
 _ZN4KCal26ResourceCachedReloadConfig12loadSettingsEPNS_14ResourceCachedE@Base 4:4.3.4
 _ZN4KCal26ResourceCachedReloadConfig12saveSettingsEPNS_14ResourceCachedE@Base 4:4.3.4
 _ZN4KCal26ResourceCachedReloadConfig16staticMetaObjectE@Base 4:4.3.4
 _ZN4KCal26ResourceCachedReloadConfig19slotIntervalToggledEb@Base 4:4.3.4
 _ZN4KCal26ResourceCachedReloadConfigC1EP7QWidget@Base 4:4.3.4
 _ZN4KCal26ResourceCachedReloadConfigC2EP7QWidget@Base 4:4.3.4
 _ZN4KCal26ResourceCachedReloadConfigD0Ev@Base 4:4.3.4
 _ZN4KCal26ResourceCachedReloadConfigD1Ev@Base 4:4.3.4
 _ZN4KCal26ResourceCachedReloadConfigD2Ev@Base 4:4.3.4
 _ZN4KCal4Todo10setDtStartERK9KDateTime@Base 4:4.3.4
 _ZN4KCal4Todo10shiftTimesERKN9KDateTime4SpecES4_@Base 4:4.3.4
 _ZN4KCal4Todo12setCompletedERK9KDateTime@Base 4:4.3.4
 _ZN4KCal4Todo12setCompletedEb@Base 4:4.3.4
 _ZN4KCal4Todo13setHasDueDateEb@Base 4:4.3.4
 _ZN4KCal4Todo15setDtRecurrenceERK9KDateTime@Base 4:4.3.4
 _ZN4KCal4Todo15setHasStartDateEb@Base 4:4.3.4
 _ZN4KCal4Todo18setPercentCompleteEi@Base 4:4.3.4
 _ZN4KCal4Todo5cloneEv@Base 4:4.3.4
 _ZN4KCal4Todo7Private4initERKS1_@Base 4:4.3.4
 _ZN4KCal4Todo7Private9recurTodoEPS0_@Base 4:4.3.4
 _ZN4KCal4Todo8setDtDueERK9KDateTimeb@Base 4:4.3.4
 _ZN4KCal4TodoC1ERKS0_@Base 4:4.3.4
 _ZN4KCal4TodoC1Ev@Base 4:4.3.4
 _ZN4KCal4TodoC2ERKS0_@Base 4:4.3.4
 _ZN4KCal4TodoC2Ev@Base 4:4.3.4
 _ZN4KCal4TodoD0Ev@Base 4:4.3.4
 _ZN4KCal4TodoD1Ev@Base 4:4.3.4
 _ZN4KCal4TodoD2Ev@Base 4:4.3.4
 _ZN4KCal4TodoaSERKS0_@Base 4:4.3.4
 _ZN4KCal5Alarm10setEnabledEb@Base 4:4.3.4
 _ZN4KCal5Alarm10shiftTimesERKN9KDateTime4SpecES4_@Base 4:4.3.4
 _ZN4KCal5Alarm11setMailTextERK7QString@Base 4:4.3.4
 _ZN4KCal5Alarm11toggleAlarmEv@Base 4:4.3.4
 _ZN4KCal5Alarm12setAudioFileERK7QString@Base 4:4.3.4
 _ZN4KCal5Alarm12setEndOffsetERKNS_8DurationE@Base 4:4.3.4
 _ZN4KCal5Alarm13setAudioAlarmERK7QString@Base 4:4.3.4
 _ZN4KCal5Alarm13setEmailAlarmERK7QStringS3_RK5QListINS_6PersonEERK11QStringList@Base 4:4.3.4
 _ZN4KCal5Alarm13setSnoozeTimeERKNS_8DurationE@Base 4:4.3.4
 _ZN4KCal5Alarm14addMailAddressERKNS_6PersonE@Base 4:4.3.4
 _ZN4KCal5Alarm14setMailAddressERKNS_6PersonE@Base 4:4.3.4
 _ZN4KCal5Alarm14setMailSubjectERK7QString@Base 4:4.3.4
 _ZN4KCal5Alarm14setProgramFileERK7QString@Base 4:4.3.4
 _ZN4KCal5Alarm14setRepeatCountEi@Base 4:4.3.4
 _ZN4KCal5Alarm14setStartOffsetERKNS_8DurationE@Base 4:4.3.4
 _ZN4KCal5Alarm15setDisplayAlarmERK7QString@Base 4:4.3.4
 _ZN4KCal5Alarm16setMailAddressesERK5QListINS_6PersonEE@Base 4:4.3.4
 _ZN4KCal5Alarm17addMailAttachmentERK7QString@Base 4:4.3.4
 _ZN4KCal5Alarm17setMailAttachmentERK7QString@Base 4:4.3.4
 _ZN4KCal5Alarm17setProcedureAlarmERK7QStringS3_@Base 4:4.3.4
 _ZN4KCal5Alarm18setMailAttachmentsERK11QStringList@Base 4:4.3.4
 _ZN4KCal5Alarm19setProgramArgumentsERK7QString@Base 4:4.3.4
 _ZN4KCal5Alarm21customPropertyUpdatedEv@Base 4:4.3.4
 _ZN4KCal5Alarm7setTextERK7QString@Base 4:4.3.4
 _ZN4KCal5Alarm7setTimeERK9KDateTime@Base 4:4.3.4
 _ZN4KCal5Alarm7setTypeENS0_4TypeE@Base 4:4.3.4
 _ZN4KCal5Alarm9setParentEPNS_9IncidenceE@Base 4:4.3.4
 _ZN4KCal5AlarmC1EPNS_9IncidenceE@Base 4:4.3.4
 _ZN4KCal5AlarmC1ERKS0_@Base 4:4.3.4
 _ZN4KCal5AlarmC2EPNS_9IncidenceE@Base 4:4.3.4
 _ZN4KCal5AlarmC2ERKS0_@Base 4:4.3.4
 _ZN4KCal5AlarmD0Ev@Base 4:4.3.4
 _ZN4KCal5AlarmD1Ev@Base 4:4.3.4
 _ZN4KCal5AlarmD2Ev@Base 4:4.3.4
 _ZN4KCal5AlarmaSERKS0_@Base 4:4.5.0
 _ZN4KCal5Event10shiftTimesERKN9KDateTime4SpecES4_@Base 4:4.3.4
 _ZN4KCal5Event11setDurationERKNS_8DurationE@Base 4:4.3.4
 _ZN4KCal5Event13setHasEndDateEb@Base 4:4.3.4
 _ZN4KCal5Event15setTransparencyENS0_12TransparencyE@Base 4:4.3.4
 _ZN4KCal5Event5cloneEv@Base 4:4.3.4
 _ZN4KCal5Event8setDtEndERK9KDateTime@Base 4:4.3.4
 _ZN4KCal5EventC1ERKS0_@Base 4:4.3.4
 _ZN4KCal5EventC1Ev@Base 4:4.3.4
 _ZN4KCal5EventC2ERKS0_@Base 4:4.3.4
 _ZN4KCal5EventC2Ev@Base 4:4.3.4
 _ZN4KCal5EventD0Ev@Base 4:4.3.4
 _ZN4KCal5EventD1Ev@Base 4:4.3.4
 _ZN4KCal5EventD2Ev@Base 4:4.3.4
 _ZN4KCal5EventaSERKS0_@Base 4:4.3.4
 _ZN4KCal6Period10shiftTimesERKN9KDateTime4SpecES4_@Base 4:4.3.4
 _ZN4KCal6PeriodC1ERK9KDateTimeRKNS_8DurationE@Base 4:4.3.4
 _ZN4KCal6PeriodC1ERK9KDateTimeS3_@Base 4:4.3.4
 _ZN4KCal6PeriodC1ERKS0_@Base 4:4.3.4
 _ZN4KCal6PeriodC1Ev@Base 4:4.3.4
 _ZN4KCal6PeriodC2ERK9KDateTimeRKNS_8DurationE@Base 4:4.3.4
 _ZN4KCal6PeriodC2ERK9KDateTimeS3_@Base 4:4.3.4
 _ZN4KCal6PeriodC2ERKS0_@Base 4:4.3.4
 _ZN4KCal6PeriodC2Ev@Base 4:4.3.4
 _ZN4KCal6PeriodD1Ev@Base 4:4.3.4
 _ZN4KCal6PeriodD2Ev@Base 4:4.3.4
 _ZN4KCal6PeriodaSERKS0_@Base 4:4.3.4
 _ZN4KCal6Person12fromFullNameERK7QString@Base 4:4.3.4
 _ZN4KCal6Person7setNameERK7QString@Base 4:4.3.4
 _ZN4KCal6Person8setEmailERK7QString@Base 4:4.3.4
 _ZN4KCal6PersonC1ERK7QString@Base 4:4.3.4
 _ZN4KCal6PersonC1ERK7QStringS3_@Base 4:4.3.4
 _ZN4KCal6PersonC1ERKS0_@Base 4:4.3.4
 _ZN4KCal6PersonC1Ev@Base 4:4.3.4
 _ZN4KCal6PersonC2ERK7QString@Base 4:4.3.4
 _ZN4KCal6PersonC2ERK7QStringS3_@Base 4:4.3.4
 _ZN4KCal6PersonC2ERKS0_@Base 4:4.3.4
 _ZN4KCal6PersonC2Ev@Base 4:4.3.4
 _ZN4KCal6PersonD1Ev@Base 4:4.3.4
 _ZN4KCal6PersonD2Ev@Base 4:4.3.4
 _ZN4KCal6PersonaSERKS0_@Base 4:4.3.4
 _ZN4KCal6PersoneqERKS0_@Base 4:4.3.4
 _ZN4KCal7Journal5cloneEv@Base 4:4.3.4
 _ZN4KCal7JournalC1Ev@Base 4:4.3.4
 _ZN4KCal7JournalC2Ev@Base 4:4.3.4
 _ZN4KCal7JournalD0Ev@Base 4:4.3.4
 _ZN4KCal7JournalD1Ev@Base 4:4.3.4
 _ZN4KCal7JournalD2Ev@Base 4:4.3.4
 _ZN4KCal7JournalaSERKS0_@Base 4:4.3.4
 _ZN4KCal7KResult10setDetailsERK7QString@Base 4:4.3.4
 _ZN4KCal7KResult5chainERKS0_@Base 4:4.3.4
 _ZN4KCal7KResultC1ENS0_4TypeE@Base 4:4.3.4
 _ZN4KCal7KResultC1ENS0_9ErrorTypeERK7QString@Base 4:4.3.4
 _ZN4KCal7KResultC1ERKS0_@Base 4:4.3.4
 _ZN4KCal7KResultC1Ev@Base 4:4.3.4
 _ZN4KCal7KResultC2ENS0_4TypeE@Base 4:4.3.4
 _ZN4KCal7KResultC2ENS0_9ErrorTypeERK7QString@Base 4:4.3.4
 _ZN4KCal7KResultC2ERKS0_@Base 4:4.3.4
 _ZN4KCal7KResultC2Ev@Base 4:4.3.4
 _ZN4KCal7KResultD1Ev@Base 4:4.3.4
 _ZN4KCal7KResultD2Ev@Base 4:4.3.4
 _ZN4KCal8Attendee10statusListEv@Base 4:4.3.4
 _ZN4KCal8Attendee10statusNameENS0_8PartStatE@Base 4:4.3.4
 _ZN4KCal8Attendee11setDelegateERK7QString@Base 4:4.3.4
 _ZN4KCal8Attendee12setDelegatorERK7QString@Base 4:4.3.4
 _ZN4KCal8Attendee16customPropertiesEv@Base 4:4.4.0
 _ZN4KCal8Attendee17setCustomPropertyERK10QByteArrayRK7QString@Base 4:4.4.0
 _ZN4KCal8Attendee6setUidERK7QString@Base 4:4.3.4
 _ZN4KCal8Attendee7setRSVPEb@Base 4:4.3.4
 _ZN4KCal8Attendee7setRoleENS0_4RoleE@Base 4:4.3.4
 _ZN4KCal8Attendee8roleListEv@Base 4:4.3.4
 _ZN4KCal8Attendee8roleNameENS0_4RoleE@Base 4:4.3.4
 _ZN4KCal8Attendee9setStatusENS0_8PartStatE@Base 4:4.3.4
 _ZN4KCal8AttendeeC1ERK7QStringS3_bNS0_8PartStatENS0_4RoleES3_@Base 4:4.3.4
 _ZN4KCal8AttendeeC1ERKS0_@Base 4:4.3.4
 _ZN4KCal8AttendeeC2ERK7QStringS3_bNS0_8PartStatENS0_4RoleES3_@Base 4:4.3.4
 _ZN4KCal8AttendeeC2ERKS0_@Base 4:4.3.4
 _ZN4KCal8AttendeeD1Ev@Base 4:4.3.4
 _ZN4KCal8AttendeeD2Ev@Base 4:4.3.4
 _ZN4KCal8AttendeeaSERKS0_@Base 4:4.3.4
 _ZN4KCal8AttendeeeqERKS0_@Base 4:4.3.4
 _ZN4KCal8Calendar10categoriesEv@Base 4:4.3.4
 _ZN4KCal8Calendar10incidencesERK5QDate@Base 4:4.3.4
 _ZN4KCal8Calendar10incidencesEv@Base 4:4.3.4
 _ZN4KCal8Calendar10shiftTimesERKN9KDateTime4SpecES4_@Base 4:4.3.4
 _ZN4KCal8Calendar10sortEventsEPNS_8ListBaseINS_5EventEEENS_14EventSortFieldENS_13SortDirectionE@Base 4:4.3.4
 _ZN4KCal8Calendar11beginChangeEPNS_9IncidenceE@Base 4:4.3.4
 _ZN4KCal8Calendar11qt_metacallEN11QMetaObject4CallEiPPv@Base 4:4.3.4
 _ZN4KCal8Calendar11qt_metacastEPKc@Base 4:4.3.4
 _ZN4KCal8Calendar11setModifiedEb@Base 4:4.3.4
 _ZN4KCal8Calendar11setTimeSpecERKN9KDateTime4SpecE@Base 4:4.3.4
 _ZN4KCal8Calendar12addIncidenceEPNS_9IncidenceE@Base 4:4.3.4
 _ZN4KCal8Calendar12appendAlarmsERNS_8ListBaseINS_5AlarmEEEPNS_9IncidenceERK9KDateTimeS9_@Base 4:4.3.4
 _ZN4KCal8Calendar12isAncestorOfEPNS_9IncidenceES2_@Base 4:4.5.0
 _ZN4KCal8Calendar12setProductIdERK7QString@Base 4:4.3.4
 _ZN4KCal8Calendar12sortJournalsEPNS_8ListBaseINS_7JournalEEENS_16JournalSortFieldENS_13SortDirectionE@Base 4:4.3.4
 _ZN4KCal8Calendar13calendarSavedEv@Base 4:4.3.4
 _ZN4KCal8Calendar13doSetTimeSpecERKN9KDateTime4SpecE@Base 4:4.3.4
 _ZN4KCal8Calendar13rawIncidencesEv@Base 4:4.3.4
 _ZN4KCal8Calendar13setTimeZoneIdERK7QString@Base 4:4.3.4
 _ZN4KCal8Calendar14calendarLoadedEv@Base 4:4.3.4
 _ZN4KCal8Calendar14endBatchAddingEv@Base 4:4.4.0
 _ZN4KCal8Calendar14setupRelationsEPNS_9IncidenceE@Base 4:4.3.4
 _ZN4KCal8Calendar15batchAddingEndsEv@Base 4:4.4.0
 _ZN4KCal8Calendar15calendarChangedEv@Base 4:4.3.4
 _ZN4KCal8Calendar15deleteIncidenceEPNS_9IncidenceE@Base 4:4.3.4
 _ZN4KCal8Calendar15removeRelationsEPNS_9IncidenceE@Base 4:4.3.4
 _ZN4KCal8Calendar16CalendarObserver16calendarModifiedEbPS0_@Base 4:4.3.4
 _ZN4KCal8Calendar16CalendarObserver22calendarIncidenceAddedEPNS_9IncidenceE@Base 4:4.3.4
 _ZN4KCal8Calendar16CalendarObserver24calendarIncidenceChangedEPNS_9IncidenceE@Base 4:4.3.4
 _ZN4KCal8Calendar16CalendarObserver24calendarIncidenceDeletedEPNS_9IncidenceE@Base 4:4.3.4
 _ZN4KCal8Calendar16beginBatchAddingEv@Base 4:4.4.0
 _ZN4KCal8Calendar16incidenceUpdatedEPNS_13IncidenceBaseE@Base 4:4.3.4
 _ZN4KCal8Calendar16registerObserverEPNS0_16CalendarObserverE@Base 4:4.3.4
 _ZN4KCal8Calendar16staticMetaObjectE@Base 4:4.3.4
 _ZN4KCal8Calendar17batchAddingBeginsEv@Base 4:4.4.0
 _ZN4KCal8Calendar17sortEventsForDateEPNS_8ListBaseINS_5EventEEERK5QDateRKN9KDateTime4SpecENS_14EventSortFieldENS_13SortDirectionE@Base 4:4.5.0
 _ZN4KCal8Calendar18mergeIncidenceListERKNS_8ListBaseINS_5EventEEERKNS1_INS_4TodoEEERKNS1_INS_7JournalEEE@Base 4:4.3.4
 _ZN4KCal8Calendar18unregisterObserverEPNS0_16CalendarObserverE@Base 4:4.3.4
 _ZN4KCal8Calendar19setObserversEnabledEb@Base 4:4.3.4
 _ZN4KCal8Calendar20dissociateOccurrenceEPNS_9IncidenceERK5QDateRKN9KDateTime4SpecEb@Base 4:4.3.4
 _ZN4KCal8Calendar20notifyIncidenceAddedEPNS_9IncidenceE@Base 4:4.3.4
 _ZN4KCal8Calendar21appendRecurringAlarmsERNS_8ListBaseINS_5AlarmEEEPNS_9IncidenceERK9KDateTimeS9_@Base 4:4.3.4
 _ZN4KCal8Calendar21customPropertyUpdatedEv@Base 4:4.3.4
 _ZN4KCal8Calendar22notifyIncidenceChangedEPNS_9IncidenceE@Base 4:4.3.4
 _ZN4KCal8Calendar22notifyIncidenceDeletedEPNS_9IncidenceE@Base 4:4.3.4
 _ZN4KCal8Calendar25incidenceFromSchedulingIDERK7QString@Base 4:4.3.4
 _ZN4KCal8Calendar26incidencesFromSchedulingIDERK7QString@Base 4:4.3.4
 _ZN4KCal8Calendar5todosENS_13TodoSortFieldENS_13SortDirectionE@Base 4:4.3.4
 _ZN4KCal8Calendar5todosERK5QDate@Base 4:4.3.4
 _ZN4KCal8Calendar6eventsENS_14EventSortFieldENS_13SortDirectionE@Base 4:4.3.4
 _ZN4KCal8Calendar6eventsERK5QDateRKN9KDateTime4SpecENS_14EventSortFieldENS_13SortDirectionE@Base 4:4.3.4
 _ZN4KCal8Calendar6eventsERK5QDateS3_RKN9KDateTime4SpecEb@Base 4:4.3.4
 _ZN4KCal8Calendar6eventsERK9KDateTime@Base 4:4.3.4
 _ZN4KCal8Calendar6filterEv@Base 4:4.3.4
 _ZN4KCal8Calendar7Private14timeZoneIdSpecERK7QStringb@Base 4:4.3.4
 _ZN4KCal8Calendar8isSavingEv@Base 4:4.3.4
 _ZN4KCal8Calendar8journalsENS_16JournalSortFieldENS_13SortDirectionE@Base 4:4.3.4
 _ZN4KCal8Calendar8journalsERK5QDate@Base 4:4.3.4
 _ZN4KCal8Calendar8setOwnerERKNS_6PersonE@Base 4:4.3.4
 _ZN4KCal8Calendar9endChangeEPNS_9IncidenceE@Base 4:4.3.4
 _ZN4KCal8Calendar9incidenceERK7QString@Base 4:4.3.4
 _ZN4KCal8Calendar9setFilterEPNS_9CalFilterE@Base 4:4.3.4
 _ZN4KCal8Calendar9sortTodosEPNS_8ListBaseINS_4TodoEEENS_13TodoSortFieldENS_13SortDirectionE@Base 4:4.3.4
 _ZN4KCal8CalendarC1ERK7QString@Base 4:4.3.4
 _ZN4KCal8CalendarC1ERKN9KDateTime4SpecE@Base 4:4.3.4
 _ZN4KCal8CalendarC2ERK7QString@Base 4:4.3.4
 _ZN4KCal8CalendarC2ERKN9KDateTime4SpecE@Base 4:4.3.4
 _ZN4KCal8CalendarD0Ev@Base 4:4.3.4
 _ZN4KCal8CalendarD1Ev@Base 4:4.3.4
 _ZN4KCal8CalendarD2Ev@Base 4:4.3.4
 _ZN4KCal8DurationC1ERK9KDateTimeS3_@Base 4:4.3.4
 _ZN4KCal8DurationC1ERK9KDateTimeS3_NS0_4TypeE@Base 4:4.3.4
 _ZN4KCal8DurationC1ERKS0_@Base 4:4.3.4
 _ZN4KCal8DurationC1EiNS0_4TypeE@Base 4:4.3.4
 _ZN4KCal8DurationC1Ev@Base 4:4.3.4
 _ZN4KCal8DurationC2ERK9KDateTimeS3_@Base 4:4.3.4
 _ZN4KCal8DurationC2ERK9KDateTimeS3_NS0_4TypeE@Base 4:4.3.4
 _ZN4KCal8DurationC2ERKS0_@Base 4:4.3.4
 _ZN4KCal8DurationC2EiNS0_4TypeE@Base 4:4.3.4
 _ZN4KCal8DurationC2Ev@Base 4:4.3.4
 _ZN4KCal8DurationD1Ev@Base 4:4.3.4
 _ZN4KCal8DurationD2Ev@Base 4:4.3.4
 _ZN4KCal8DurationaSERKS0_@Base 4:4.3.4
 _ZN4KCal8DurationdVEi@Base 4:4.3.4
 _ZN4KCal8DurationmIERKS0_@Base 4:4.3.4
 _ZN4KCal8DurationmLEi@Base 4:4.3.4
 _ZN4KCal8DurationpLERKS0_@Base 4:4.3.4
 _ZN4KCal8FreeBusy10addPeriodsERK5QListINS_14FreeBusyPeriodEE@Base 4:4.3.4
 _ZN4KCal8FreeBusy10addPeriodsERK5QListINS_6PeriodEE@Base 4:4.3.4
 _ZN4KCal8FreeBusy10setDtStartERK9KDateTime@Base 4:4.3.4
 _ZN4KCal8FreeBusy10shiftTimesERKN9KDateTime4SpecES4_@Base 4:4.3.4
 _ZN4KCal8FreeBusy5mergeEPS0_@Base 4:4.3.4
 _ZN4KCal8FreeBusy7Private14addLocalPeriodEPS0_RK9KDateTimeS5_@Base 4:4.3.4
 _ZN4KCal8FreeBusy7Private4initERKNS_8ListBaseINS_5EventEEERK9KDateTimeS9_@Base 4:4.4.0
 _ZN4KCal8FreeBusy7Private4initERKS1_@Base 4:4.3.4
 _ZN4KCal8FreeBusy8setDtEndERK9KDateTime@Base 4:4.3.4
 _ZN4KCal8FreeBusy8sortListEv@Base 4:4.3.4
 _ZN4KCal8FreeBusy9addPeriodERK9KDateTimeRKNS_8DurationE@Base 4:4.3.4
 _ZN4KCal8FreeBusy9addPeriodERK9KDateTimeS3_@Base 4:4.3.4
 _ZN4KCal8FreeBusyC1EPNS_8CalendarERK9KDateTimeS5_@Base 4:4.3.4
 _ZN4KCal8FreeBusyC1ERK5QListINS_14FreeBusyPeriodEE@Base 4:4.3.4
 _ZN4KCal8FreeBusyC1ERK5QListINS_6PeriodEE@Base 4:4.3.4
 _ZN4KCal8FreeBusyC1ERK9KDateTimeS3_@Base 4:4.3.4
 _ZN4KCal8FreeBusyC1ERKNS_8ListBaseINS_5EventEEERK9KDateTimeS8_@Base 4:4.4.0
 _ZN4KCal8FreeBusyC1ERKS0_@Base 4:4.3.4
 _ZN4KCal8FreeBusyC1Ev@Base 4:4.3.4
 _ZN4KCal8FreeBusyC2EPNS_8CalendarERK9KDateTimeS5_@Base 4:4.3.4
 _ZN4KCal8FreeBusyC2ERK5QListINS_14FreeBusyPeriodEE@Base 4:4.3.4
 _ZN4KCal8FreeBusyC2ERK5QListINS_6PeriodEE@Base 4:4.3.4
 _ZN4KCal8FreeBusyC2ERK9KDateTimeS3_@Base 4:4.3.4
 _ZN4KCal8FreeBusyC2ERKNS_8ListBaseINS_5EventEEERK9KDateTimeS8_@Base 4:4.4.0
 _ZN4KCal8FreeBusyC2ERKS0_@Base 4:4.3.4
 _ZN4KCal8FreeBusyC2Ev@Base 4:4.3.4
 _ZN4KCal8FreeBusyD0Ev@Base 4:4.3.4
 _ZN4KCal8FreeBusyD1Ev@Base 4:4.3.4
 _ZN4KCal8FreeBusyD2Ev@Base 4:4.3.4
 _ZN4KCal8FreeBusyaSERKS0_@Base 4:4.3.4
 _ZN4KCal8ICalDrag12fromMimeDataEPK9QMimeDataPNS_8CalendarE@Base 4:4.3.4
 _ZN4KCal8ICalDrag16populateMimeDataEP9QMimeDataPNS_8CalendarE@Base 4:4.3.4
 _ZN4KCal8ICalDrag8mimeTypeEv@Base 4:4.3.4
 _ZN4KCal8ICalDrag9canDecodeEPK9QMimeData@Base 4:4.3.4
 _ZN4KCal8VCalDrag12fromMimeDataEPK9QMimeDataPNS_8CalendarE@Base 4:4.3.4
 _ZN4KCal8VCalDrag16populateMimeDataEP9QMimeDataPNS_8CalendarE@Base 4:4.3.4
 _ZN4KCal8VCalDrag8mimeTypeEv@Base 4:4.3.4
 _ZN4KCal8VCalDrag9canDecodeEPK9QMimeData@Base 4:4.3.4
 _ZN4KCal9CalFilter10setEnabledEb@Base 4:4.3.4
 _ZN4KCal9CalFilter11setCriteriaEi@Base 4:4.3.4
 _ZN4KCal9CalFilter12setEmailListERK11QStringList@Base 4:4.3.4
 _ZN4KCal9CalFilter15setCategoryListERK11QStringList@Base 4:4.3.4
 _ZN4KCal9CalFilter20setCompletedTimeSpanEi@Base 4:4.3.4
 _ZN4KCal9CalFilter7setNameERK7QString@Base 4:4.3.4
 _ZN4KCal9CalFilterC1ERK7QString@Base 4:4.3.4
 _ZN4KCal9CalFilterC1Ev@Base 4:4.3.4
 _ZN4KCal9CalFilterC2ERK7QString@Base 4:4.3.4
 _ZN4KCal9CalFilterC2Ev@Base 4:4.3.4
 _ZN4KCal9CalFilterD1Ev@Base 4:4.3.4
 _ZN4KCal9CalFilterD2Ev@Base 4:4.3.4
 _ZN4KCal9CalFiltereqERKS0_@Base 4:4.3.4
 _ZN4KCal9CalFormat11applicationEv@Base 4:4.3.4
 _ZN4KCal9CalFormat12setExceptionEPNS_11ErrorFormatE@Base 4:4.3.4
 _ZN4KCal9CalFormat14clearExceptionEv@Base 4:4.3.4
 _ZN4KCal9CalFormat14createUniqueIdEv@Base 4:4.3.4
 _ZN4KCal9CalFormat14setApplicationERK7QStringS3_@Base 4:4.3.4
 _ZN4KCal9CalFormat15loadedProductIdEv@Base 4:4.3.4
 _ZN4KCal9CalFormat18setLoadedProductIdERK7QString@Base 4:4.3.4
 _ZN4KCal9CalFormat7Private10mProductIdE@Base 4:4.3.4
 _ZN4KCal9CalFormat7Private12mApplicationE@Base 4:4.3.4
 _ZN4KCal9CalFormat9exceptionEv@Base 4:4.3.4
 _ZN4KCal9CalFormat9productIdEv@Base 4:4.3.4
 _ZN4KCal9CalFormatC1Ev@Base 4:4.3.4
 _ZN4KCal9CalFormatC2Ev@Base 4:4.3.4
 _ZN4KCal9CalFormatD0Ev@Base 4:4.3.4
 _ZN4KCal9CalFormatD1Ev@Base 4:4.3.4
 _ZN4KCal9CalFormatD2Ev@Base 4:4.3.4
 _ZN4KCal9CalHelper14usingGroupwareEPNS_8CalendarE@Base 4:4.4.0
 _ZN4KCal9CalHelper18isMyKolabIncidenceEPNS_8CalendarEPNS_9IncidenceE@Base 4:4.4.0
 _ZN4KCal9CalHelper21isMyCalendarIncidenceEPNS_8CalendarEPNS_9IncidenceE@Base 4:4.4.0
 _ZN4KCal9CalHelper28findMyCalendarIncidenceByUidEPNS_8CalendarERK7QString@Base 4:4.4.0
 (optional=templinst)_ZN4KCal9Incidence10AddVisitorINS_16ResourceCalendarEE5visitEPNS_4TodoE@Base 4:4.3.4
 (optional=templinst)_ZN4KCal9Incidence10AddVisitorINS_16ResourceCalendarEE5visitEPNS_5EventE@Base 4:4.3.4
 (optional=templinst)_ZN4KCal9Incidence10AddVisitorINS_16ResourceCalendarEE5visitEPNS_7JournalE@Base 4:4.3.4
 (optional=templinst)_ZN4KCal9Incidence10AddVisitorINS_16ResourceCalendarEE5visitEPNS_8FreeBusyE@Base 4:4.3.4
 (optional=templinst)_ZN4KCal9Incidence10AddVisitorINS_16ResourceCalendarEED0Ev@Base 4:4.6.5
 (optional=templinst)_ZN4KCal9Incidence10AddVisitorINS_16ResourceCalendarEED1Ev@Base 4:4.6.5
 (optional=templinst)_ZN4KCal9Incidence10AddVisitorINS_16ResourceCalendarEED2Ev@Base 4:4.6.5
 (optional=templinst)_ZN4KCal9Incidence10AddVisitorINS_8CalendarEE5visitEPNS_4TodoE@Base 4:4.3.4
 (optional=templinst)_ZN4KCal9Incidence10AddVisitorINS_8CalendarEE5visitEPNS_5EventE@Base 4:4.3.4
 (optional=templinst)_ZN4KCal9Incidence10AddVisitorINS_8CalendarEE5visitEPNS_7JournalE@Base 4:4.3.4
 (optional=templinst)_ZN4KCal9Incidence10AddVisitorINS_8CalendarEE5visitEPNS_8FreeBusyE@Base 4:4.3.4
 (optional=templinst)_ZN4KCal9Incidence10AddVisitorINS_8CalendarEED0Ev@Base 4:4.6.5
 (optional=templinst)_ZN4KCal9Incidence10AddVisitorINS_8CalendarEED1Ev@Base 4:4.6.5
 (optional=templinst)_ZN4KCal9Incidence10AddVisitorINS_8CalendarEED2Ev@Base 4:4.6.5
 _ZN4KCal9Incidence10setCreatedERK9KDateTime@Base 4:4.3.4
 _ZN4KCal9Incidence10setDtStartERK9KDateTime@Base 4:4.3.4
 _ZN4KCal9Incidence10setSecrecyENS0_7SecrecyE@Base 4:4.3.4
 _ZN4KCal9Incidence10setSummaryERK7QString@Base 4:4.3.4
 _ZN4KCal9Incidence10setSummaryERK7QStringb@Base 4:4.3.4
 _ZN4KCal9Incidence10shiftTimesERKN9KDateTime4SpecES4_@Base 4:4.3.4
 _ZN4KCal9Incidence10statusNameENS0_6StatusE@Base 4:4.3.4
 _ZN4KCal9Incidence11addRelationEPS0_@Base 4:4.3.4
 _ZN4KCal9Incidence11clearAlarmsEv@Base 4:4.3.4
 _ZN4KCal9Incidence11removeAlarmEPNS_5AlarmE@Base 4:4.3.4
 _ZN4KCal9Incidence11secrecyListEv@Base 4:4.3.4
 _ZN4KCal9Incidence11secrecyNameENS0_7SecrecyE@Base 4:4.3.4
 _ZN4KCal9Incidence11setLocationERK7QString@Base 4:4.3.4
 _ZN4KCal9Incidence11setLocationERK7QStringb@Base 4:4.3.4
 _ZN4KCal9Incidence11setPriorityEi@Base 4:4.3.4
 _ZN4KCal9Incidence11setReadOnlyEb@Base 4:4.3.4
 _ZN4KCal9Incidence11setRevisionEi@Base 4:4.3.4
 _ZN4KCal9Incidence12setRelatedToEPS0_@Base 4:4.3.4
 _ZN4KCal9Incidence12setResourcesERK11QStringList@Base 4:4.3.4
 (optional=templinst)_ZN4KCal9Incidence13DeleteVisitorINS_16ResourceCalendarEE5visitEPNS_4TodoE@Base 4:4.3.4
 (optional=templinst)_ZN4KCal9Incidence13DeleteVisitorINS_16ResourceCalendarEE5visitEPNS_5EventE@Base 4:4.3.4
 (optional=templinst)_ZN4KCal9Incidence13DeleteVisitorINS_16ResourceCalendarEE5visitEPNS_7JournalE@Base 4:4.3.4
 (optional=templinst)_ZN4KCal9Incidence13DeleteVisitorINS_16ResourceCalendarEE5visitEPNS_8FreeBusyE@Base 4:4.3.4
 (optional=templinst)_ZN4KCal9Incidence13DeleteVisitorINS_16ResourceCalendarEED0Ev@Base 4:4.6.5
 (optional=templinst)_ZN4KCal9Incidence13DeleteVisitorINS_16ResourceCalendarEED1Ev@Base 4:4.6.5
 (optional=templinst)_ZN4KCal9Incidence13DeleteVisitorINS_16ResourceCalendarEED2Ev@Base 4:4.6.5
 (optional=templinst)_ZN4KCal9Incidence13DeleteVisitorINS_8CalendarEE5visitEPNS_4TodoE@Base 4:4.3.4
 (optional=templinst)_ZN4KCal9Incidence13DeleteVisitorINS_8CalendarEE5visitEPNS_5EventE@Base 4:4.3.4
 (optional=templinst)_ZN4KCal9Incidence13DeleteVisitorINS_8CalendarEE5visitEPNS_7JournalE@Base 4:4.3.4
 (optional=templinst)_ZN4KCal9Incidence13DeleteVisitorINS_8CalendarEE5visitEPNS_8FreeBusyE@Base 4:4.3.4
 (optional=templinst)_ZN4KCal9Incidence13DeleteVisitorINS_8CalendarEED0Ev@Base 4:4.6.5
 (optional=templinst)_ZN4KCal9Incidence13DeleteVisitorINS_8CalendarEED1Ev@Base 4:4.6.5
 (optional=templinst)_ZN4KCal9Incidence13DeleteVisitorINS_8CalendarEED2Ev@Base 4:4.6.5
 _ZN4KCal9Incidence13addAttachmentEPNS_10AttachmentE@Base 4:4.3.4
 _ZN4KCal9Incidence13setCategoriesERK11QStringList@Base 4:4.3.4
 _ZN4KCal9Incidence13setCategoriesERK7QString@Base 4:4.3.4
 _ZN4KCal9Incidence14clearTempFilesEv@Base 4:4.5.0
 _ZN4KCal9Incidence14removeRelationEPS0_@Base 4:4.3.4
 _ZN4KCal9Incidence14setDescriptionERK7QString@Base 4:4.3.4
 _ZN4KCal9Incidence14setDescriptionERK7QStringb@Base 4:4.3.4
 _ZN4KCal9Incidence14setGeoLatitudeEf@Base 4:4.3.4
 _ZN4KCal9Incidence15clearRecurrenceEv@Base 4:4.3.4
 _ZN4KCal9Incidence15setCustomStatusERK7QString@Base 4:4.3.4
 _ZN4KCal9Incidence15setGeoLongitudeEf@Base 4:4.3.4
 _ZN4KCal9Incidence15setRelatedToUidERK7QString@Base 4:4.3.4
 _ZN4KCal9Incidence15setSchedulingIDERK7QString@Base 4:4.3.4
 _ZN4KCal9Incidence16clearAttachmentsEv@Base 4:4.3.4
 _ZN4KCal9Incidence16deleteAttachmentEPNS_10AttachmentE@Base 4:4.3.4
 _ZN4KCal9Incidence17deleteAttachmentsERK7QString@Base 4:4.3.4
 _ZN4KCal9Incidence17recurrenceUpdatedEPNS_10RecurrenceE@Base 4:4.3.4
 _ZN4KCal9Incidence4initERKS0_@Base 4:4.3.4
 _ZN4KCal9Incidence8addAlarmEPNS_5AlarmE@Base 4:4.3.4
 _ZN4KCal9Incidence8newAlarmEv@Base 4:4.3.4
 _ZN4KCal9Incidence8recreateEv@Base 4:4.3.4
 _ZN4KCal9Incidence9setAllDayEb@Base 4:4.3.4
 _ZN4KCal9Incidence9setHasGeoEb@Base 4:4.3.4
 _ZN4KCal9Incidence9setStatusENS0_6StatusE@Base 4:4.3.4
 _ZN4KCal9IncidenceC1ERKS0_@Base 4:4.3.4
 _ZN4KCal9IncidenceC1Ev@Base 4:4.3.4
 _ZN4KCal9IncidenceC2ERKS0_@Base 4:4.3.4
 _ZN4KCal9IncidenceC2Ev@Base 4:4.3.4
 _ZN4KCal9IncidenceD0Ev@Base 4:4.3.4
 _ZN4KCal9IncidenceD1Ev@Base 4:4.3.4
 _ZN4KCal9IncidenceD2Ev@Base 4:4.3.4
 _ZN4KCal9IncidenceaSERKS0_@Base 4:4.3.4
 _ZN4KCal9Scheduler10methodNameENS_10iTIPMethodE@Base 4:4.3.4
 _ZN4KCal9Scheduler11acceptReplyEPNS_13IncidenceBaseENS_15ScheduleMessage6StatusENS_10iTIPMethodE@Base 4:4.3.4
 _ZN4KCal9Scheduler12acceptCancelEPNS_13IncidenceBaseENS_15ScheduleMessage6StatusE@Base 4:4.3.4
 _ZN4KCal9Scheduler12acceptCancelEPNS_13IncidenceBaseENS_15ScheduleMessage6StatusERK7QString@Base 4:4.4.0
 _ZN4KCal9Scheduler13acceptCounterEPNS_13IncidenceBaseENS_15ScheduleMessage6StatusE@Base 4:4.3.4
 _ZN4KCal9Scheduler13acceptPublishEPNS_13IncidenceBaseENS_15ScheduleMessage6StatusENS_10iTIPMethodE@Base 4:4.3.4
 _ZN4KCal9Scheduler13acceptRefreshEPNS_13IncidenceBaseENS_15ScheduleMessage6StatusE@Base 4:4.3.4
 _ZN4KCal9Scheduler13acceptRequestEPNS_13IncidenceBaseENS_15ScheduleMessage6StatusE@Base 4:4.3.4
 _ZN4KCal9Scheduler13acceptRequestEPNS_13IncidenceBaseENS_15ScheduleMessage6StatusERK7QString@Base 4:4.4.0
 _ZN4KCal9Scheduler14acceptFreeBusyEPNS_13IncidenceBaseENS_10iTIPMethodE@Base 4:4.3.4
 _ZN4KCal9Scheduler16setFreeBusyCacheEPNS_13FreeBusyCacheE@Base 4:4.3.4
 _ZN4KCal9Scheduler17acceptTransactionEPNS_13IncidenceBaseENS_10iTIPMethodENS_15ScheduleMessage6StatusE@Base 4:4.3.4
 _ZN4KCal9Scheduler17acceptTransactionEPNS_13IncidenceBaseENS_10iTIPMethodENS_15ScheduleMessage6StatusERK7QString@Base 4:4.4.0
 _ZN4KCal9Scheduler17deleteTransactionEPNS_13IncidenceBaseE@Base 4:4.3.4
 _ZN4KCal9Scheduler20acceptDeclineCounterEPNS_13IncidenceBaseENS_15ScheduleMessage6StatusE@Base 4:4.3.4
 _ZN4KCal9Scheduler20translatedMethodNameENS_10iTIPMethodE@Base 4:4.3.4
 _ZN4KCal9Scheduler9acceptAddEPNS_13IncidenceBaseENS_15ScheduleMessage6StatusE@Base 4:4.3.4
 _ZN4KCal9SchedulerC1EPNS_8CalendarE@Base 4:4.3.4
 _ZN4KCal9SchedulerC2EPNS_8CalendarE@Base 4:4.3.4
 _ZN4KCal9SchedulerD0Ev@Base 4:4.3.4
 _ZN4KCal9SchedulerD1Ev@Base 4:4.3.4
 _ZN4KCal9SchedulerD2Ev@Base 4:4.3.4
 _ZNK4KCal10Attachment10showInlineEv@Base 4:4.3.4
 _ZNK4KCal10Attachment11decodedDataEv@Base 4:4.3.4
 _ZNK4KCal10Attachment3uriEv@Base 4:4.3.4
 _ZNK4KCal10Attachment4dataEv@Base 4:4.3.4
 _ZNK4KCal10Attachment4sizeEv@Base 4:4.3.4
 _ZNK4KCal10Attachment5isUriEv@Base 4:4.3.4
 _ZNK4KCal10Attachment5labelEv@Base 4:4.3.4
 _ZNK4KCal10Attachment7isLocalEv@Base 4:4.3.4
 _ZNK4KCal10Attachment8isBinaryEv@Base 4:4.3.4
 _ZNK4KCal10Attachment8mimeTypeEv@Base 4:4.3.4
 _ZNK4KCal10AttachmenteqERKS0_@Base 4:4.3.4
 _ZNK4KCal10AttachmentneERKS0_@Base 4:4.3.4
 _ZNK4KCal10CalStorage8calendarEv@Base 4:4.3.4
 _ZNK4KCal10HtmlExport10styleSheetEv@Base 4:4.3.4
 _ZNK4KCal10HtmlExport6toDateEv@Base 4:4.3.4
 _ZNK4KCal10HtmlExport8fromDateEv@Base 4:4.3.4
 _ZNK4KCal10ICalFormat10timeZoneIdEv@Base 4:4.3.4
 _ZNK4KCal10ICalFormat8timeSpecEv@Base 4:4.3.4
 _ZNK4KCal10Recurrence10durationToERK5QDate@Base 4:4.3.4
 _ZNK4KCal10Recurrence10durationToERK9KDateTime@Base 4:4.3.4
 _ZNK4KCal10Recurrence10rDateTimesEv@Base 4:4.3.4
 _ZNK4KCal10Recurrence10yearMonthsEv@Base 4:4.3.4
 _ZNK4KCal10Recurrence11endDateTimeEv@Base 4:4.3.4
 _ZNK4KCal10Recurrence11exDateTimesEv@Base 4:4.3.4
 _ZNK4KCal10Recurrence12defaultRRuleEb@Base 4:4.3.4
 _ZNK4KCal10Recurrence12recurTimesOnERK5QDateRKN9KDateTime4SpecE@Base 4:4.3.4
 _ZNK4KCal10Recurrence13recurReadOnlyEv@Base 4:4.3.4
 _ZNK4KCal10Recurrence13startDateTimeEv@Base 4:4.3.4
 _ZNK4KCal10Recurrence13yearPositionsEv@Base 4:4.3.4
 _ZNK4KCal10Recurrence14monthPositionsEv@Base 4:4.3.4
 _ZNK4KCal10Recurrence14recurrenceTypeEv@Base 4:4.3.4
 _ZNK4KCal10Recurrence15getNextDateTimeERK9KDateTime@Base 4:4.3.4
 _ZNK4KCal10Recurrence15timesInIntervalERK9KDateTimeS3_@Base 4:4.3.4
 _ZNK4KCal10Recurrence17defaultRRuleConstEv@Base 4:4.3.4
 _ZNK4KCal10Recurrence19getPreviousDateTimeERK9KDateTime@Base 4:4.3.4
 _ZNK4KCal10Recurrence4daysEv@Base 4:4.3.4
 _ZNK4KCal10Recurrence4dumpEv@Base 4:4.3.4
 _ZNK4KCal10Recurrence6allDayEv@Base 4:4.3.4
 _ZNK4KCal10Recurrence6rDatesEv@Base 4:4.3.4
 _ZNK4KCal10Recurrence6rRulesEv@Base 4:4.3.4
 _ZNK4KCal10Recurrence6recursEv@Base 4:4.3.4
 _ZNK4KCal10Recurrence7PrivateeqERKS1_@Base 4:4.3.4
 _ZNK4KCal10Recurrence7endDateEv@Base 4:4.3.4
 _ZNK4KCal10Recurrence7exDatesEv@Base 4:4.3.4
 _ZNK4KCal10Recurrence7exRulesEv@Base 4:4.3.4
 _ZNK4KCal10Recurrence8durationEv@Base 4:4.3.4
 _ZNK4KCal10Recurrence8recursAtERK9KDateTime@Base 4:4.3.4
 _ZNK4KCal10Recurrence8recursOnERK5QDateRKN9KDateTime4SpecE@Base 4:4.3.4
 _ZNK4KCal10Recurrence8yearDaysEv@Base 4:4.3.4
 _ZNK4KCal10Recurrence9frequencyEv@Base 4:4.3.4
 _ZNK4KCal10Recurrence9monthDaysEv@Base 4:4.3.4
 _ZNK4KCal10Recurrence9startDateEv@Base 4:4.3.4
 _ZNK4KCal10Recurrence9weekStartEv@Base 4:4.3.4
 _ZNK4KCal10Recurrence9yearDatesEv@Base 4:4.3.4
 _ZNK4KCal10RecurrenceeqERKS0_@Base 4:4.3.4
 _ZNK4KCal10VCalFormat10readStatusEPKc@Base 4:4.3.4
 _ZNK4KCal10VCalFormat11writeStatusENS_8Attendee8PartStatE@Base 4:4.3.4
 _ZNK4KCal11FileStorage10saveFormatEv@Base 4:4.3.4
 _ZNK4KCal11FileStorage8fileNameEv@Base 4:4.3.4
 _ZNK4KCal12ICalTimeZone12icalTimezoneEv@Base 4:4.3.4
 _ZNK4KCal12ICalTimeZone12lastModifiedEv@Base 4:4.3.4
 _ZNK4KCal12ICalTimeZone3urlEv@Base 4:4.3.4
 _ZNK4KCal12ICalTimeZone4cityEv@Base 4:4.3.4
 _ZNK4KCal12ICalTimeZone9vtimezoneEv@Base 4:4.3.4
 _ZNK4KCal13ICalTimeZones4zoneERK7QString@Base 4:4.3.4
 _ZNK4KCal13ICalTimeZones5zonesEv@Base 4:4.3.4
 _ZNK4KCal13IncidenceBase10dtStartStrEbRKN9KDateTime4SpecE@Base 4:4.3.4
 _ZNK4KCal13IncidenceBase11hasDurationEv@Base 4:4.3.4
 _ZNK4KCal13IncidenceBase12lastModifiedEv@Base 4:4.3.4
 _ZNK4KCal13IncidenceBase13attendeeByUidERK7QString@Base 4:4.3.4
 _ZNK4KCal13IncidenceBase13attendeeCountEv@Base 4:4.3.4
 _ZNK4KCal13IncidenceBase14attendeeByMailERK7QString@Base 4:4.3.4
 _ZNK4KCal13IncidenceBase14dtStartDateStrEbRKN9KDateTime4SpecE@Base 4:4.3.4
 _ZNK4KCal13IncidenceBase14dtStartTimeStrEbRKN9KDateTime4SpecE@Base 4:4.3.4
 _ZNK4KCal13IncidenceBase15attendeeByMailsERK11QStringListRK7QString@Base 4:4.3.4
 _ZNK4KCal13IncidenceBase3uidEv@Base 4:4.3.4
 _ZNK4KCal13IncidenceBase3uriEv@Base 4:4.3.4
 _ZNK4KCal13IncidenceBase6allDayEv@Base 4:4.3.4
 _ZNK4KCal13IncidenceBase7dtStartEv@Base 4:4.3.4
 _ZNK4KCal13IncidenceBase8commentsEv@Base 4:4.3.4
 _ZNK4KCal13IncidenceBase8durationEv@Base 4:4.3.4
 _ZNK4KCal13IncidenceBase9attendeesEv@Base 4:4.3.4
 _ZNK4KCal13IncidenceBase9organizerEv@Base 4:4.3.4
 _ZNK4KCal13IncidenceBaseeqERKS0_@Base 4:4.3.4
 _ZNK4KCal13ResourceLocal10metaObjectEv@Base 4:4.3.4
 _ZNK4KCal13ResourceLocal4dumpEv@Base 4:4.3.4
 _ZNK4KCal13ResourceLocal8fileNameEv@Base 4:4.3.4
 _ZNK4KCal14FreeBusyPeriod7summaryEv@Base 4:4.3.4
 _ZNK4KCal14FreeBusyPeriod8locationEv@Base 4:4.3.4
 _ZNK4KCal14RecurrenceRule10byYearDaysEv@Base 4:4.3.4
 _ZNK4KCal14RecurrenceRule10durationToERK5QDate@Base 4:4.3.4
 _ZNK4KCal14RecurrenceRule10durationToERK9KDateTime@Base 4:4.3.4
 _ZNK4KCal14RecurrenceRule10isReadOnlyEv@Base 4:4.3.4
 _ZNK4KCal14RecurrenceRule11byMonthDaysEv@Base 4:4.3.4
 _ZNK4KCal14RecurrenceRule11getNextDateERK9KDateTime@Base 4:4.3.4
 _ZNK4KCal14RecurrenceRule12recurTimesOnERK5QDateRKN9KDateTime4SpecE@Base 4:4.3.4
 _ZNK4KCal14RecurrenceRule13byWeekNumbersEv@Base 4:4.3.4
 _ZNK4KCal14RecurrenceRule14recurrenceTypeEv@Base 4:4.3.4
 _ZNK4KCal14RecurrenceRule15getPreviousDateERK9KDateTime@Base 4:4.3.4
 _ZNK4KCal14RecurrenceRule15timesInIntervalERK9KDateTimeS3_@Base 4:4.3.4
 _ZNK4KCal14RecurrenceRule16dateMatchesRulesERK9KDateTime@Base 4:4.3.4
 _ZNK4KCal14RecurrenceRule4dumpEv@Base 4:4.3.4
 _ZNK4KCal14RecurrenceRule5endDtEPb@Base 4:4.3.4
 _ZNK4KCal14RecurrenceRule5rruleEv@Base 4:4.3.4
 _ZNK4KCal14RecurrenceRule6allDayEv@Base 4:4.3.4
 _ZNK4KCal14RecurrenceRule6byDaysEv@Base 4:4.3.4
 _ZNK4KCal14RecurrenceRule6recursEv@Base 4:4.3.4
 _ZNK4KCal14RecurrenceRule7Private10buildCacheEv@Base 4:4.3.4
 _ZNK4KCal14RecurrenceRule7Private16datesForIntervalERK10ConstraintNS0_10PeriodTypeE@Base 4:4.3.4
 _ZNK4KCal14RecurrenceRule7Private24getNextValidDateIntervalERK9KDateTimeNS0_10PeriodTypeE@Base 4:4.3.4
 _ZNK4KCal14RecurrenceRule7Private28getPreviousValidDateIntervalERK9KDateTimeNS0_10PeriodTypeE@Base 4:4.3.4
 _ZNK4KCal14RecurrenceRule7PrivateeqERKS1_@Base 4:4.3.4
 _ZNK4KCal14RecurrenceRule7byHoursEv@Base 4:4.3.4
 _ZNK4KCal14RecurrenceRule7startDtEv@Base 4:4.3.4
 _ZNK4KCal14RecurrenceRule8byMonthsEv@Base 4:4.3.4
 _ZNK4KCal14RecurrenceRule8bySetPosEv@Base 4:4.3.4
 _ZNK4KCal14RecurrenceRule8durationEv@Base 4:4.3.4
 _ZNK4KCal14RecurrenceRule8recursAtERK9KDateTime@Base 4:4.3.4
 _ZNK4KCal14RecurrenceRule8recursOnERK5QDateRKN9KDateTime4SpecE@Base 4:4.3.4
 _ZNK4KCal14RecurrenceRule9byMinutesEv@Base 4:4.3.4
 _ZNK4KCal14RecurrenceRule9bySecondsEv@Base 4:4.3.4
 _ZNK4KCal14RecurrenceRule9frequencyEv@Base 4:4.3.4
 _ZNK4KCal14RecurrenceRule9weekStartEv@Base 4:4.3.4
 _ZNK4KCal14RecurrenceRuleeqERKS0_@Base 4:4.3.4
 _ZNK4KCal14ResourceCached10allChangesEv@Base 4:4.3.4
 _ZNK4KCal14ResourceCached10hasChangesEv@Base 4:4.3.4
 _ZNK4KCal14ResourceCached10metaObjectEv@Base 4:4.3.4
 _ZNK4KCal14ResourceCached10savePolicyEv@Base 4:4.3.4
 _ZNK4KCal14ResourceCached10timeZoneIdEv@Base 4:4.3.4
 _ZNK4KCal14ResourceCached11addInfoTextER7QString@Base 4:4.3.4
 _ZNK4KCal14ResourceCached12reloadPolicyEv@Base 4:4.3.4
 _ZNK4KCal14ResourceCached12saveIntervalEv@Base 4:4.3.4
 _ZNK4KCal14ResourceCached14reloadIntervalEv@Base 4:4.3.4
 _ZNK4KCal14ResourceCached15addedIncidencesEv@Base 4:4.3.4
 _ZNK4KCal14ResourceCached16changesCacheFileERK7QString@Base 4:4.3.4
 _ZNK4KCal14ResourceCached17changedIncidencesEv@Base 4:4.3.4
 _ZNK4KCal14ResourceCached17deletedIncidencesEv@Base 4:4.3.4
 _ZNK4KCal14ResourceCached22defaultReloadInhibitedEv@Base 4:4.3.4
 _ZNK4KCal14ResourceCached5ownerEv@Base 4:4.3.4
 _ZNK4KCal14ResourceCached8calendarEv@Base 4:4.3.4
 _ZNK4KCal14ResourceCached8reloadedEv@Base 4:4.3.4
 _ZNK4KCal14ResourceCached8timeSpecEv@Base 4:4.3.4
 _ZNK4KCal14ResourceCached9cacheFileEv@Base 4:4.3.4
 _ZNK4KCal16CustomProperties14customPropertyERK10QByteArrayS3_@Base 4:4.3.4
 _ZNK4KCal16CustomProperties16customPropertiesEv@Base 4:4.3.4
 _ZNK4KCal16CustomProperties20nonKDECustomPropertyERK10QByteArray@Base 4:4.3.4
 _ZNK4KCal16CustomProperties7PrivateeqERKS1_@Base 4:4.3.4
 _ZNK4KCal16CustomPropertieseqERKS0_@Base 4:4.3.4
 _ZNK4KCal16ICalTimeZoneData12icalTimezoneEv@Base 4:4.3.4
 _ZNK4KCal16ICalTimeZoneData12lastModifiedEv@Base 4:4.3.4
 _ZNK4KCal16ICalTimeZoneData14hasTransitionsEv@Base 4:4.3.4
 _ZNK4KCal16ICalTimeZoneData3urlEv@Base 4:4.3.4
 _ZNK4KCal16ICalTimeZoneData4cityEv@Base 4:4.3.4
 _ZNK4KCal16ICalTimeZoneData5cloneEv@Base 4:4.3.4
 _ZNK4KCal16ICalTimeZoneData9vtimezoneEv@Base 4:4.3.4
 _ZNK4KCal16ResourceCalendar10metaObjectEv@Base 4:4.3.4
 _ZNK4KCal16ResourceCalendar12subresourcesEv@Base 4:4.3.4
 _ZNK4KCal16ResourceCalendar13saveInhibitedEv@Base 4:4.3.4
 _ZNK4KCal16ResourceCalendar16noReadOnlyOnLoadEv@Base 4:4.3.4
 _ZNK4KCal16ResourceCalendar17receivedLoadErrorEv@Base 4:4.3.4
 _ZNK4KCal16ResourceCalendar17receivedSaveErrorEv@Base 4:4.3.4
 _ZNK4KCal16ResourceCalendar17subresourceActiveERK7QString@Base 4:4.3.4
 _ZNK4KCal16ResourceCalendar19canHaveSubresourcesEv@Base 4:4.3.4
 _ZNK4KCal16ResourceCalendar19labelForSubresourceERK7QString@Base 4:4.3.4
 _ZNK4KCal16ResourceCalendar20isResolveConflictSetEv@Base 4:4.3.4
 _ZNK4KCal16ResourceCalendar8infoTextEv@Base 4:4.3.4
 _ZNK4KCal16ResourceLocalDir10metaObjectEv@Base 4:4.3.4
 _ZNK4KCal16ResourceLocalDir4dumpEv@Base 4:4.3.4
 _ZNK4KCal16ResourceLocalDir7Private10isTempFileERK7QString@Base 4:4.3.4
 _ZNK4KCal16ResourceLocalDir7Private10metaObjectEv@Base 4:4.3.4
 _ZNK4KCal17CalendarResources10metaObjectEv@Base 4:4.3.4
 _ZNK4KCal17CalendarResources15resourceManagerEv@Base 4:4.3.4
 _ZNK4KCal17CalendarResources6Ticket8resourceEv@Base 4:4.3.4
 _ZNK4KCal19ICalTimeZoneBackend14hasTransitionsEPK9KTimeZone@Base 4:4.3.4
 _ZNK4KCal19ICalTimeZoneBackend4typeEv@Base 4:4.3.4
 _ZNK4KCal19ICalTimeZoneBackend5cloneEv@Base 4:4.3.4
 _ZNK4KCal19ResourceLocalConfig10metaObjectEv@Base 4:4.3.4
 _ZNK4KCal22ResourceLocalDirConfig10metaObjectEv@Base 4:4.3.4
 _ZNK4KCal24ResourceCachedSaveConfig10metaObjectEv@Base 4:4.3.4
 _ZNK4KCal25InvitationFormatterHelper8calendarEv@Base 4:4.3.4
 _ZNK4KCal26ResourceCachedReloadConfig10metaObjectEv@Base 4:4.3.4
 _ZNK4KCal4Todo10dtStartStrEbRKN9KDateTime4SpecE@Base 4:4.3.4
 _ZNK4KCal4Todo10dtStartStrEbbRKN9KDateTime4SpecE@Base 4:4.3.4
 _ZNK4KCal4Todo10hasDueDateEv@Base 4:4.3.4
 _ZNK4KCal4Todo11isCompletedEv@Base 4:4.3.4
 _ZNK4KCal4Todo11isOpenEndedEv@Base 4:4.4.0
 _ZNK4KCal4Todo12completedStrEb@Base 4:4.3.4
 _ZNK4KCal4Todo12dtDueDateStrEbRKN9KDateTime4SpecE@Base 4:4.3.4
 _ZNK4KCal4Todo12dtDueTimeStrEbRKN9KDateTime4SpecE@Base 4:4.3.4
 _ZNK4KCal4Todo12dtRecurrenceEv@Base 4:4.3.4
 _ZNK4KCal4Todo12hasStartDateEv@Base 4:4.3.4
 _ZNK4KCal4Todo12isInProgressEb@Base 4:4.4.0
 _ZNK4KCal4Todo12isNotStartedEb@Base 4:4.4.0
 _ZNK4KCal4Todo14dtStartDateStrEbRKN9KDateTime4SpecE@Base 4:4.3.4
 _ZNK4KCal4Todo14dtStartDateStrEbbRKN9KDateTime4SpecE@Base 4:4.3.4
 _ZNK4KCal4Todo14dtStartTimeStrEbRKN9KDateTime4SpecE@Base 4:4.3.4
 _ZNK4KCal4Todo14dtStartTimeStrEbbRKN9KDateTime4SpecE@Base 4:4.3.4
 _ZNK4KCal4Todo15percentCompleteEv@Base 4:4.3.4
 _ZNK4KCal4Todo16hasCompletedDateEv@Base 4:4.3.4
 _ZNK4KCal4Todo21endDateRecurrenceBaseEv@Base 4:4.3.4
 _ZNK4KCal4Todo4typeEv@Base 4:4.3.4
 _ZNK4KCal4Todo5dtDueEb@Base 4:4.3.4
 _ZNK4KCal4Todo7dtStartEb@Base 4:4.3.4
 _ZNK4KCal4Todo7dtStartEv@Base 4:4.3.4
 _ZNK4KCal4Todo8dtDueStrEbRKN9KDateTime4SpecE@Base 4:4.3.4
 _ZNK4KCal4Todo8recursOnERK5QDateRKN9KDateTime4SpecE@Base 4:4.3.4
 _ZNK4KCal4Todo9completedEv@Base 4:4.3.4
 _ZNK4KCal4Todo9isOverdueEv@Base 4:4.3.4
 _ZNK4KCal4TodoeqERKS0_@Base 4:4.3.4
 _ZNK4KCal5Alarm10snoozeTimeEv@Base 4:4.3.4
 _ZNK4KCal5Alarm11mailSubjectEv@Base 4:4.3.4
 _ZNK4KCal5Alarm11programFileEv@Base 4:4.3.4
 _ZNK4KCal5Alarm11repeatCountEv@Base 4:4.3.4
 _ZNK4KCal5Alarm11startOffsetEv@Base 4:4.3.4
 _ZNK4KCal5Alarm12hasEndOffsetEv@Base 4:4.3.4
 _ZNK4KCal5Alarm13mailAddressesEv@Base 4:4.3.4
 _ZNK4KCal5Alarm14hasStartOffsetEv@Base 4:4.3.4
 _ZNK4KCal5Alarm14nextRepetitionERK9KDateTime@Base 4:4.3.4
 _ZNK4KCal5Alarm15mailAttachmentsEv@Base 4:4.3.4
 _ZNK4KCal5Alarm16programArgumentsEv@Base 4:4.3.4
 _ZNK4KCal5Alarm18previousRepetitionERK9KDateTime@Base 4:4.3.4
 _ZNK4KCal5Alarm4textEv@Base 4:4.3.4
 _ZNK4KCal5Alarm4timeEv@Base 4:4.3.4
 _ZNK4KCal5Alarm4typeEv@Base 4:4.3.4
 _ZNK4KCal5Alarm6parentEv@Base 4:4.3.4
 _ZNK4KCal5Alarm7enabledEv@Base 4:4.3.4
 _ZNK4KCal5Alarm7endTimeEv@Base 4:4.3.4
 _ZNK4KCal5Alarm7hasTimeEv@Base 4:4.3.4
 _ZNK4KCal5Alarm8durationEv@Base 4:4.3.4
 _ZNK4KCal5Alarm8mailTextEv@Base 4:4.3.4
 _ZNK4KCal5Alarm9audioFileEv@Base 4:4.3.4
 _ZNK4KCal5Alarm9endOffsetEv@Base 4:4.3.4
 _ZNK4KCal5AlarmeqERKS0_@Base 4:4.3.4
 _ZNK4KCal5Event10hasEndDateEv@Base 4:4.3.4
 _ZNK4KCal5Event10isMultiDayERKN9KDateTime4SpecE@Base 4:4.3.4
 _ZNK4KCal5Event12dtEndDateStrEbRKN9KDateTime4SpecE@Base 4:4.3.4
 _ZNK4KCal5Event12dtEndTimeStrEbRKN9KDateTime4SpecE@Base 4:4.3.4
 _ZNK4KCal5Event12transparencyEv@Base 4:4.3.4
 _ZNK4KCal5Event21endDateRecurrenceBaseEv@Base 4:4.3.4
 _ZNK4KCal5Event4typeEv@Base 4:4.3.4
 _ZNK4KCal5Event5dtEndEv@Base 4:4.3.4
 _ZNK4KCal5Event7dateEndEv@Base 4:4.3.4
 _ZNK4KCal5Event8dtEndStrEbRKN9KDateTime4SpecE@Base 4:4.3.4
 _ZNK4KCal5EventeqERKS0_@Base 4:4.3.4
 _ZNK4KCal6Period11hasDurationEv@Base 4:4.3.4
 _ZNK4KCal6Period3endEv@Base 4:4.3.4
 _ZNK4KCal6Period5startEv@Base 4:4.3.4
 _ZNK4KCal6Period8durationENS_8Duration4TypeE@Base 4:4.3.4
 _ZNK4KCal6Period8durationEv@Base 4:4.3.4
 _ZNK4KCal6PeriodeqERKS0_@Base 4:4.3.4
 _ZNK4KCal6PeriodltERKS0_@Base 4:4.3.4
 _ZNK4KCal6Person4nameEv@Base 4:4.3.4
 _ZNK4KCal6Person5emailEv@Base 4:4.3.4
 _ZNK4KCal6Person7isEmptyEv@Base 4:4.3.4
 _ZNK4KCal6Person8fullNameEv@Base 4:4.3.4
 _ZNK4KCal7Journal4typeEv@Base 4:4.3.4
 _ZNK4KCal7JournaleqERKS0_@Base 4:4.3.4
 _ZNK4KCal7KResult11fullMessageEv@Base 4:4.3.4
 _ZNK4KCal7KResult12isInProgressEv@Base 4:4.3.4
 _ZNK4KCal7KResult13chainedResultEv@Base 4:4.3.4
 _ZNK4KCal7KResult14chainedMessageEv@Base 4:4.3.4
 _ZNK4KCal7KResult16hasChainedResultEv@Base 4:4.3.4
 _ZNK4KCal7KResult4isOkEv@Base 4:4.3.4
 _ZNK4KCal7KResult5errorEv@Base 4:4.3.4
 _ZNK4KCal7KResult7detailsEv@Base 4:4.3.4
 _ZNK4KCal7KResult7isErrorEv@Base 4:4.3.4
 _ZNK4KCal7KResult7messageEv@Base 4:4.3.4
 _ZNK4KCal7KResultcvbEv@Base 4:4.3.4
 _ZNK4KCal8Attendee16customPropertiesEv@Base 4:4.4.0
 _ZNK4KCal8Attendee3uidEv@Base 4:4.3.4
 _ZNK4KCal8Attendee4RSVPEv@Base 4:4.3.4
 _ZNK4KCal8Attendee4roleEv@Base 4:4.3.4
 _ZNK4KCal8Attendee6statusEv@Base 4:4.3.4
 _ZNK4KCal8Attendee7roleStrEv@Base 4:4.3.4
 _ZNK4KCal8Attendee8delegateEv@Base 4:4.3.4
 _ZNK4KCal8Attendee9delegatorEv@Base 4:4.3.4
 _ZNK4KCal8Attendee9statusStrEv@Base 4:4.3.4
 _ZNK4KCal8Calendar10isModifiedEv@Base 4:4.3.4
 _ZNK4KCal8Calendar10metaObjectEv@Base 4:4.3.4
 _ZNK4KCal8Calendar10timeZoneIdEv@Base 4:4.3.4
 _ZNK4KCal8Calendar12viewTimeSpecEv@Base 4:4.3.4
 _ZNK4KCal8Calendar14viewTimeZoneIdEv@Base 4:4.3.4
 _ZNK4KCal8Calendar15setViewTimeSpecERKN9KDateTime4SpecE@Base 4:4.3.4
 _ZNK4KCal8Calendar17setViewTimeZoneIdERK7QString@Base 4:4.3.4
 _ZNK4KCal8Calendar5ownerEv@Base 4:4.3.4
 _ZNK4KCal8Calendar8timeSpecEv@Base 4:4.3.4
 _ZNK4KCal8Calendar9productIdEv@Base 4:4.3.4
 _ZNK4KCal8Calendar9timeZonesEv@Base 4:4.3.4
 _ZNK4KCal8Duration3endERK9KDateTime@Base 4:4.3.4
 _ZNK4KCal8Duration4typeEv@Base 4:4.3.4
 _ZNK4KCal8Duration5valueEv@Base 4:4.3.4
 _ZNK4KCal8Duration6asDaysEv@Base 4:4.3.4
 _ZNK4KCal8Duration7isDailyEv@Base 4:4.3.4
 _ZNK4KCal8Duration9asSecondsEv@Base 4:4.3.4
 _ZNK4KCal8DurationcvbEv@Base 4:4.3.4
 _ZNK4KCal8DurationeqERKS0_@Base 4:4.3.4
 _ZNK4KCal8DurationltERKS0_@Base 4:4.3.4
 _ZNK4KCal8DurationngEv@Base 4:4.3.4
 _ZNK4KCal8FreeBusy11busyPeriodsEv@Base 4:4.3.4
 _ZNK4KCal8FreeBusy15fullBusyPeriodsEv@Base 4:4.3.4
 _ZNK4KCal8FreeBusy4typeEv@Base 4:4.3.4
 _ZNK4KCal8FreeBusy5dtEndEv@Base 4:4.3.4
 _ZNK4KCal8FreeBusyeqERKS0_@Base 4:4.3.4
 _ZNK4KCal9CalFilter12categoryListEv@Base 4:4.3.4
 _ZNK4KCal9CalFilter15filterIncidenceEPNS_9IncidenceE@Base 4:4.3.4
 _ZNK4KCal9CalFilter17completedTimeSpanEv@Base 4:4.3.4
 _ZNK4KCal9CalFilter4nameEv@Base 4:4.3.4
 _ZNK4KCal9CalFilter5applyEPNS_8ListBaseINS_4TodoEEE@Base 4:4.3.4
 _ZNK4KCal9CalFilter5applyEPNS_8ListBaseINS_5EventEEE@Base 4:4.3.4
 _ZNK4KCal9CalFilter5applyEPNS_8ListBaseINS_7JournalEEE@Base 4:4.3.4
 _ZNK4KCal9CalFilter8criteriaEv@Base 4:4.3.4
 _ZNK4KCal9CalFilter9emailListEv@Base 4:4.3.4
 _ZNK4KCal9CalFilter9isEnabledEv@Base 4:4.3.4
 _ZNK4KCal9Incidence10categoriesEv@Base 4:4.3.4
 _ZNK4KCal9Incidence10recurrenceEv@Base 4:4.3.4
 _ZNK4KCal9Incidence10secrecyStrEv@Base 4:4.3.4
 _ZNK4KCal9Incidence11attachmentsERK7QString@Base 4:4.3.4
 _ZNK4KCal9Incidence11attachmentsEv@Base 4:4.3.4
 _ZNK4KCal9Incidence11descriptionEv@Base 4:4.3.4
 _ZNK4KCal9Incidence11geoLatitudeEv@Base 4:4.3.4
 _ZNK4KCal9Incidence11richSummaryEv@Base 4:4.3.4
 _ZNK4KCal9Incidence12geoLongitudeEv@Base 4:4.3.4
 _ZNK4KCal9Incidence12relatedToUidEv@Base 4:4.3.4
 _ZNK4KCal9Incidence12richLocationEv@Base 4:4.3.4
 _ZNK4KCal9Incidence12schedulingIDEv@Base 4:4.3.4
 _ZNK4KCal9Incidence13categoriesStrEv@Base 4:4.3.4
 _ZNK4KCal9Incidence13summaryIsRichEv@Base 4:4.3.4
 _ZNK4KCal9Incidence14isAlarmEnabledEv@Base 4:4.3.4
 _ZNK4KCal9Incidence14locationIsRichEv@Base 4:4.3.4
 _ZNK4KCal9Incidence14recurrenceTypeEv@Base 4:4.3.4
 _ZNK4KCal9Incidence15endDateForStartERK9KDateTime@Base 4:4.3.4
 _ZNK4KCal9Incidence15richDescriptionEv@Base 4:4.3.4
 _ZNK4KCal9Incidence17descriptionIsRichEv@Base 4:4.3.4
 _ZNK4KCal9Incidence21startDateTimesForDateERK5QDateRKN9KDateTime4SpecE@Base 4:4.3.4
 _ZNK4KCal9Incidence25startDateTimesForDateTimeERK9KDateTime@Base 4:4.3.4
 _ZNK4KCal9Incidence25writeAttachmentToTempFileEPNS_10AttachmentE@Base 4:4.5.0
 _ZNK4KCal9Incidence5dtEndEv@Base 4:4.3.4
 _ZNK4KCal9Incidence6alarmsEv@Base 4:4.3.4
 _ZNK4KCal9Incidence6hasGeoEv@Base 4:4.3.4
 _ZNK4KCal9Incidence6recursEv@Base 4:4.3.4
 _ZNK4KCal9Incidence6statusEv@Base 4:4.3.4
 _ZNK4KCal9Incidence7createdEv@Base 4:4.3.4
 _ZNK4KCal9Incidence7secrecyEv@Base 4:4.3.4
 _ZNK4KCal9Incidence7summaryEv@Base 4:4.3.4
 _ZNK4KCal9Incidence8locationEv@Base 4:4.3.4
 _ZNK4KCal9Incidence8priorityEv@Base 4:4.3.4
 _ZNK4KCal9Incidence8recursAtERK9KDateTime@Base 4:4.3.4
 _ZNK4KCal9Incidence8recursOnERK5QDateRKN9KDateTime4SpecE@Base 4:4.3.4
 _ZNK4KCal9Incidence8revisionEv@Base 4:4.3.4
 _ZNK4KCal9Incidence9relatedToEv@Base 4:4.3.4
 _ZNK4KCal9Incidence9relationsEv@Base 4:4.3.4
 _ZNK4KCal9Incidence9resourcesEv@Base 4:4.3.4
 _ZNK4KCal9Incidence9statusStrEv@Base 4:4.3.4
 _ZNK4KCal9IncidenceeqERKS0_@Base 4:4.3.4
 _ZNK4KCal9Scheduler13freeBusyCacheEv@Base 4:4.3.4
 _ZTIN4KCal10CalStorageE@Base 4:4.3.4
 _ZTIN4KCal10HtmlExportE@Base 4:4.3.4
 _ZTIN4KCal10ICalFormatE@Base 4:4.3.4
 _ZTIN4KCal10Recurrence18RecurrenceObserverE@Base 4:4.3.4
 _ZTIN4KCal10RecurrenceE@Base 4:4.3.4
 _ZTIN4KCal10VCalFormatE@Base 4:4.3.4
 _ZTIN4KCal11ErrorFormatE@Base 4:4.3.4
 _ZTIN4KCal11FileStorageE@Base 4:4.3.4
 _ZTIN4KCal12CalendarNullE@Base 4:4.3.4
 _ZTIN4KCal12ICalTimeZoneE@Base 4:4.3.4
 _ZTIN4KCal12QtopiaFormatE@Base 4:4.3.4
 _ZTIN4KCal13CalendarLocalE@Base 4:4.3.4
 _ZTIN4KCal13IMIPSchedulerE@Base 4:4.3.4
 _ZTIN4KCal13IncidenceBase17IncidenceObserverE@Base 4:4.3.4
 _ZTIN4KCal13IncidenceBase7VisitorE@Base 4:4.3.4
 _ZTIN4KCal13IncidenceBaseE@Base 4:4.3.4
 _ZTIN4KCal13ResourceLocalE@Base 4:4.3.4
 _ZTIN4KCal14RecurrenceRule12RuleObserverE@Base 4:4.3.4
 _ZTIN4KCal14ResourceCachedE@Base 4:4.3.4
 _ZTIN4KCal16CustomPropertiesE@Base 4:4.3.4
 _ZTIN4KCal16ICalTimeZoneDataE@Base 4:4.3.4
 _ZTIN4KCal16ResourceCalendarE@Base 4:4.3.4
 _ZTIN4KCal16ResourceLocalDir7PrivateE@Base 4:4.3.4
 _ZTIN4KCal16ResourceLocalDirE@Base 4:4.3.4
 _ZTIN4KCal17AssignmentVisitorE@Base 4:4.3.4
 _ZTIN4KCal17CalendarResources17DestinationPolicyE@Base 4:4.3.4
 _ZTIN4KCal17CalendarResources20AskDestinationPolicyE@Base 4:4.3.4
 _ZTIN4KCal17CalendarResources25StandardDestinationPolicyE@Base 4:4.3.4
 _ZTIN4KCal17CalendarResourcesE@Base 4:4.3.4
 _ZTIN4KCal17ComparisonVisitorE@Base 4:4.3.4
 _ZTIN4KCal17ConfirmSaveDialogE@Base 4:4.3.4
 _ZTIN4KCal18HTMLExportSettingsE@Base 4:4.3.4
 _ZTIN4KCal18ICalTimeZoneSourceE@Base 4:4.3.4
 _ZTIN4KCal19ICalTimeZoneBackendE@Base 4:4.3.4
 _ZTIN4KCal19ResourceLocalConfigE@Base 4:4.3.4
 _ZTIN4KCal22ResourceLocalDirConfigE@Base 4:4.3.4
 _ZTIN4KCal24ResourceCachedSaveConfigE@Base 4:4.3.4
 _ZTIN4KCal25InvitationFormatterHelperE@Base 4:4.3.4
 _ZTIN4KCal26ResourceCachedReloadConfigE@Base 4:4.3.4
 _ZTIN4KCal4TodoE@Base 4:4.3.4
 _ZTIN4KCal5AlarmE@Base 4:4.3.4
 _ZTIN4KCal5EventE@Base 4:4.3.4
 _ZTIN4KCal7JournalE@Base 4:4.3.4
 _ZTIN4KCal8Calendar16CalendarObserverE@Base 4:4.3.4
 _ZTIN4KCal8CalendarE@Base 4:4.3.4
 _ZTIN4KCal8FreeBusyE@Base 4:4.3.4
 _ZTIN4KCal9CalFormatE@Base 4:4.3.4
 _ZTIN4KCal9Incidence10AddVisitorINS_16ResourceCalendarEEE@Base 4:4.3.4
 _ZTIN4KCal9Incidence10AddVisitorINS_8CalendarEEE@Base 4:4.3.4
 _ZTIN4KCal9Incidence13DeleteVisitorINS_16ResourceCalendarEEE@Base 4:4.3.4
 _ZTIN4KCal9Incidence13DeleteVisitorINS_8CalendarEEE@Base 4:4.3.4
 _ZTIN4KCal9IncidenceE@Base 4:4.3.4
 _ZTIN4KCal9SchedulerE@Base 4:4.3.4
 _ZTSN4KCal10CalStorageE@Base 4:4.3.4
 _ZTSN4KCal10HtmlExportE@Base 4:4.3.4
 _ZTSN4KCal10ICalFormatE@Base 4:4.3.4
 _ZTSN4KCal10Recurrence18RecurrenceObserverE@Base 4:4.3.4
 _ZTSN4KCal10RecurrenceE@Base 4:4.3.4
 _ZTSN4KCal10VCalFormatE@Base 4:4.3.4
 _ZTSN4KCal11ErrorFormatE@Base 4:4.3.4
 _ZTSN4KCal11FileStorageE@Base 4:4.3.4
 _ZTSN4KCal12CalendarNullE@Base 4:4.3.4
 _ZTSN4KCal12ICalTimeZoneE@Base 4:4.3.4
 _ZTSN4KCal12QtopiaFormatE@Base 4:4.3.4
 _ZTSN4KCal13CalendarLocalE@Base 4:4.3.4
 _ZTSN4KCal13IMIPSchedulerE@Base 4:4.3.4
 _ZTSN4KCal13IncidenceBase17IncidenceObserverE@Base 4:4.3.4
 _ZTSN4KCal13IncidenceBase7VisitorE@Base 4:4.3.4
 _ZTSN4KCal13IncidenceBaseE@Base 4:4.3.4
 _ZTSN4KCal13ResourceLocalE@Base 4:4.3.4
 _ZTSN4KCal14RecurrenceRule12RuleObserverE@Base 4:4.3.4
 _ZTSN4KCal14ResourceCachedE@Base 4:4.3.4
 _ZTSN4KCal16CustomPropertiesE@Base 4:4.3.4
 _ZTSN4KCal16ICalTimeZoneDataE@Base 4:4.3.4
 _ZTSN4KCal16ResourceCalendarE@Base 4:4.3.4
 _ZTSN4KCal16ResourceLocalDir7PrivateE@Base 4:4.3.4
 _ZTSN4KCal16ResourceLocalDirE@Base 4:4.3.4
 _ZTSN4KCal17AssignmentVisitorE@Base 4:4.3.4
 _ZTSN4KCal17CalendarResources17DestinationPolicyE@Base 4:4.3.4
 _ZTSN4KCal17CalendarResources20AskDestinationPolicyE@Base 4:4.3.4
 _ZTSN4KCal17CalendarResources25StandardDestinationPolicyE@Base 4:4.3.4
 _ZTSN4KCal17CalendarResourcesE@Base 4:4.3.4
 _ZTSN4KCal17ComparisonVisitorE@Base 4:4.3.4
 _ZTSN4KCal17ConfirmSaveDialogE@Base 4:4.3.4
 _ZTSN4KCal18HTMLExportSettingsE@Base 4:4.3.4
 _ZTSN4KCal18ICalTimeZoneSourceE@Base 4:4.3.4
 _ZTSN4KCal19ICalTimeZoneBackendE@Base 4:4.3.4
 _ZTSN4KCal19ResourceLocalConfigE@Base 4:4.3.4
 _ZTSN4KCal22ResourceLocalDirConfigE@Base 4:4.3.4
 _ZTSN4KCal24ResourceCachedSaveConfigE@Base 4:4.3.4
 _ZTSN4KCal25InvitationFormatterHelperE@Base 4:4.3.4
 _ZTSN4KCal26ResourceCachedReloadConfigE@Base 4:4.3.4
 _ZTSN4KCal4TodoE@Base 4:4.3.4
 _ZTSN4KCal5AlarmE@Base 4:4.3.4
 _ZTSN4KCal5EventE@Base 4:4.3.4
 _ZTSN4KCal7JournalE@Base 4:4.3.4
 _ZTSN4KCal8Calendar16CalendarObserverE@Base 4:4.3.4
 _ZTSN4KCal8CalendarE@Base 4:4.3.4
 _ZTSN4KCal8FreeBusyE@Base 4:4.3.4
 _ZTSN4KCal9CalFormatE@Base 4:4.3.4
 _ZTSN4KCal9Incidence10AddVisitorINS_16ResourceCalendarEEE@Base 4:4.3.4
 _ZTSN4KCal9Incidence10AddVisitorINS_8CalendarEEE@Base 4:4.3.4
 _ZTSN4KCal9Incidence13DeleteVisitorINS_16ResourceCalendarEEE@Base 4:4.3.4
 _ZTSN4KCal9Incidence13DeleteVisitorINS_8CalendarEEE@Base 4:4.3.4
 _ZTSN4KCal9IncidenceE@Base 4:4.3.4
 _ZTSN4KCal9SchedulerE@Base 4:4.3.4
 _ZTSPN4KCal9CalFormatE@Base 4:4.3.4
 _ZTVN4KCal10CalStorageE@Base 4:4.3.4
 _ZTVN4KCal10HtmlExportE@Base 4:4.3.4
 _ZTVN4KCal10ICalFormatE@Base 4:4.3.4
 _ZTVN4KCal10Recurrence18RecurrenceObserverE@Base 4:4.3.4
 _ZTVN4KCal10RecurrenceE@Base 4:4.3.4
 _ZTVN4KCal10VCalFormatE@Base 4:4.3.4
 _ZTVN4KCal11ErrorFormatE@Base 4:4.3.4
 _ZTVN4KCal11FileStorageE@Base 4:4.3.4
 _ZTVN4KCal12CalendarNullE@Base 4:4.3.4
 _ZTVN4KCal12ICalTimeZoneE@Base 4:4.3.4
 _ZTVN4KCal12QtopiaFormatE@Base 4:4.3.4
 _ZTVN4KCal13CalendarLocalE@Base 4:4.3.4
 _ZTVN4KCal13IMIPSchedulerE@Base 4:4.3.4
 _ZTVN4KCal13IncidenceBase17IncidenceObserverE@Base 4:4.3.4
 _ZTVN4KCal13IncidenceBase7VisitorE@Base 4:4.3.4
 _ZTVN4KCal13IncidenceBaseE@Base 4:4.3.4
 _ZTVN4KCal13ResourceLocalE@Base 4:4.3.4
 _ZTVN4KCal14RecurrenceRule12RuleObserverE@Base 4:4.3.4
 _ZTVN4KCal14ResourceCachedE@Base 4:4.3.4
 _ZTVN4KCal16CustomPropertiesE@Base 4:4.3.4
 _ZTVN4KCal16ICalTimeZoneDataE@Base 4:4.3.4
 _ZTVN4KCal16ResourceCalendarE@Base 4:4.3.4
 _ZTVN4KCal16ResourceLocalDir7PrivateE@Base 4:4.3.4
 _ZTVN4KCal16ResourceLocalDirE@Base 4:4.3.4
 _ZTVN4KCal17AssignmentVisitorE@Base 4:4.3.4
 _ZTVN4KCal17CalendarResources17DestinationPolicyE@Base 4:4.3.4
 _ZTVN4KCal17CalendarResources20AskDestinationPolicyE@Base 4:4.3.4
 _ZTVN4KCal17CalendarResources25StandardDestinationPolicyE@Base 4:4.3.4
 _ZTVN4KCal17CalendarResourcesE@Base 4:4.3.4
 _ZTVN4KCal17ComparisonVisitorE@Base 4:4.3.4
 _ZTVN4KCal17ConfirmSaveDialogE@Base 4:4.3.4
 _ZTVN4KCal18HTMLExportSettingsE@Base 4:4.3.4
 _ZTVN4KCal18ICalTimeZoneSourceE@Base 4:4.3.4
 _ZTVN4KCal19ICalTimeZoneBackendE@Base 4:4.3.4
 _ZTVN4KCal19ResourceLocalConfigE@Base 4:4.3.4
 _ZTVN4KCal22ResourceLocalDirConfigE@Base 4:4.3.4
 _ZTVN4KCal24ResourceCachedSaveConfigE@Base 4:4.3.4
 _ZTVN4KCal25InvitationFormatterHelperE@Base 4:4.3.4
 _ZTVN4KCal26ResourceCachedReloadConfigE@Base 4:4.3.4
 _ZTVN4KCal4TodoE@Base 4:4.3.4
 _ZTVN4KCal5AlarmE@Base 4:4.3.4
 _ZTVN4KCal5EventE@Base 4:4.3.4
 _ZTVN4KCal7JournalE@Base 4:4.3.4
 _ZTVN4KCal8Calendar16CalendarObserverE@Base 4:4.3.4
 _ZTVN4KCal8CalendarE@Base 4:4.3.4
 _ZTVN4KCal8FreeBusyE@Base 4:4.3.4
 _ZTVN4KCal9CalFormatE@Base 4:4.3.4
 _ZTVN4KCal9Incidence10AddVisitorINS_16ResourceCalendarEEE@Base 4:4.3.4
 _ZTVN4KCal9Incidence10AddVisitorINS_8CalendarEEE@Base 4:4.3.4
 _ZTVN4KCal9Incidence13DeleteVisitorINS_16ResourceCalendarEEE@Base 4:4.3.4
 _ZTVN4KCal9Incidence13DeleteVisitorINS_8CalendarEEE@Base 4:4.3.4
 _ZTVN4KCal9IncidenceE@Base 4:4.3.4
 _ZTVN4KCal9SchedulerE@Base 4:4.3.4
 addGroup@Base 4:4.3.4
 addList@Base 4:4.3.4
 addProp@Base 4:4.3.4
 addPropSizedValue@Base 4:4.3.4
 addPropSizedValue_@Base 4:4.3.4
 addPropValue@Base 4:4.3.4
 addProp_@Base 4:4.3.4
 addVObjectProp@Base 4:4.3.4
 cleanStrTbl@Base 4:4.3.4
 cleanVObject@Base 4:4.3.4
 cleanVObjects@Base 4:4.3.4
 deleteStr@Base 4:4.3.4
 deleteVObject@Base 4:4.3.4
 dupStr@Base 4:4.3.4
 fakeCString@Base 4:4.3.4
 fakeUnicode@Base 4:4.3.4
 fieldedProp@Base 4:4.3.4
 initLex@Base 4:4.3.4
 initPropIterator@Base 4:4.3.4
 initVObjectIterator@Base 4:4.3.4
 isAPropertyOf@Base 4:4.3.4
 lexBuf@Base 4:4.3.4
 lexGetStrUntil@Base 4:4.3.4
 lexPushLookahead@Base 4:4.3.4
 lookupProp@Base 4:4.3.4
 lookupProp_@Base 4:4.3.4
 lookupStr@Base 4:4.3.4
 mime_char@Base 4:4.3.4
 mime_lineNum@Base 4:4.3.4
 mime_nerrs@Base 4:4.3.4
 mime_numErrors@Base 4:4.3.4
 mime_parse@Base 4:4.3.4
 mime_yylval@Base 4:4.3.4
 moreIteration@Base 4:4.3.4
 newVObject@Base 4:4.3.4
 newVObject_@Base 4:4.3.4
 nextVObject@Base 4:4.3.4
 nextVObjectInList@Base 4:4.3.4
 (c++)"non-virtual thunk to KCal::Calendar::customPropertyUpdated()@Base" 4:4.3.4
 (c++)"non-virtual thunk to KCal::Calendar::incidenceUpdated(KCal::IncidenceBase*)@Base" 4:4.3.4
 (c++)"non-virtual thunk to KCal::Calendar::~Calendar()@Base" 4:4.3.4
 (c++)"non-virtual thunk to KCal::CalendarLocal::incidenceUpdated(KCal::IncidenceBase*)@Base" 4:4.3.4
 (c++)"non-virtual thunk to KCal::CalendarLocal::~CalendarLocal()@Base" 4:4.3.4
 (c++)"non-virtual thunk to KCal::CalendarNull::incidenceUpdated(KCal::IncidenceBase*)@Base" 4:4.3.4
 (c++)"non-virtual thunk to KCal::CalendarNull::~CalendarNull()@Base" 4:4.3.4
 (c++)"non-virtual thunk to KCal::CalendarResources::resourceAdded(KCal::ResourceCalendar*)@Base" 4:4.3.4
 (c++)"non-virtual thunk to KCal::CalendarResources::resourceDeleted(KCal::ResourceCalendar*)@Base" 4:4.3.4
 (c++)"non-virtual thunk to KCal::CalendarResources::resourceModified(KCal::ResourceCalendar*)@Base" 4:4.3.4
 (c++)"non-virtual thunk to KCal::CalendarResources::~CalendarResources()@Base" 4:4.3.4
 (c++)"non-virtual thunk to KCal::ConfirmSaveDialog::~ConfirmSaveDialog()@Base" 4:4.3.4
 (c++)"non-virtual thunk to KCal::Event::~Event()@Base" 4:4.3.4
 (c++)"non-virtual thunk to KCal::Incidence::recurrenceUpdated(KCal::Recurrence*)@Base" 4:4.3.4
 (c++)"non-virtual thunk to KCal::Incidence::~Incidence()@Base" 4:4.3.4
 (c++)"non-virtual thunk to KCal::Journal::~Journal()@Base" 4:4.3.4
 (c++)"non-virtual thunk to KCal::ResourceCached::calendarIncidenceAdded(KCal::Incidence*)@Base" 4:4.3.4
 (c++)"non-virtual thunk to KCal::ResourceCached::calendarIncidenceChanged(KCal::Incidence*)@Base" 4:4.3.4
 (c++)"non-virtual thunk to KCal::ResourceCached::calendarIncidenceDeleted(KCal::Incidence*)@Base" 4:4.3.4
 (c++)"non-virtual thunk to KCal::ResourceCached::~ResourceCached()@Base" 4:4.3.4
 (c++)"non-virtual thunk to KCal::ResourceCachedReloadConfig::~ResourceCachedReloadConfig()@Base" 4:4.3.4
 (c++)"non-virtual thunk to KCal::ResourceCachedSaveConfig::~ResourceCachedSaveConfig()@Base" 4:4.3.4
 (c++)"non-virtual thunk to KCal::ResourceLocal::~ResourceLocal()@Base" 4:4.3.4
 (c++)"non-virtual thunk to KCal::ResourceLocalConfig::~ResourceLocalConfig()@Base" 4:4.3.4
 (c++)"non-virtual thunk to KCal::ResourceLocalDir::~ResourceLocalDir()@Base" 4:4.3.4
 (c++)"non-virtual thunk to KCal::ResourceLocalDirConfig::~ResourceLocalDirConfig()@Base" 4:4.3.4
 (c++)"non-virtual thunk to KCal::Todo::~Todo()@Base" 4:4.3.4
 printVObject@Base 4:4.3.4
 printVObjectToFile@Base 4:4.3.4
 printVObjectsToFile@Base 4:4.3.4
 registerMimeErrorHandler@Base 4:4.3.4
 setVObjectAnyValue@Base 4:4.3.4
 setVObjectIntegerValue@Base 4:4.3.4
 setVObjectLongValue@Base 4:4.3.4
 setVObjectName@Base 4:4.3.4
 setVObjectStringZValue@Base 4:4.3.4
 setVObjectStringZValue_@Base 4:4.3.4
 setVObjectUStringZValue@Base 4:4.3.4
 setVObjectUStringZValue_@Base 4:4.3.4
 setVObjectVObjectValue@Base 4:4.3.4
 setValueWithSize@Base 4:4.3.4
 setValueWithSize_@Base 4:4.3.4
 uStrLen@Base 4:4.3.4
 unUseStr@Base 4:4.3.4
 vObjectAnyValue@Base 4:4.3.4
 vObjectIntegerValue@Base 4:4.3.4
 vObjectLongValue@Base 4:4.3.4
 vObjectName@Base 4:4.3.4
 vObjectStringZValue@Base 4:4.3.4
 vObjectUStringZValue@Base 4:4.3.4
 vObjectVObjectValue@Base 4:4.3.4
 vObjectValueType@Base 4:4.3.4
 writeMemVObject@Base 4:4.3.4
 writeMemVObjects@Base 4:4.3.4
 writeVObject@Base 4:4.3.4
 writeVObjectToFile@Base 4:4.3.4
 writeVObjectsToFile@Base 4:4.3.4
