# SymbolsHelper-Confirmed: 4:4.8.3 amd64 armhf hurd-i386 i386 ia64 kfreebsd-amd64 kfreebsd-i386 powerpc s390 s390x
libkpimtextedit.so.4 libkpimtextedit4 #MINVER#
* Build-Depends-Package: kdepimlibs5-dev
 _ZN12KPIMTextEdit21EMailQuoteHighlighter13highlightTextERK7QStringRK6QColorS6_S6_@Base 4:4.4.0
 _ZN12KPIMTextEdit21EMailQuoteHighlighter13setMisspelledEii@Base 4:4.3.4
 _ZN12KPIMTextEdit21EMailQuoteHighlighter13setQuoteColorERK6QColorS3_S3_S3_S3_@Base 4:4.3.4
 _ZN12KPIMTextEdit21EMailQuoteHighlighter14highlightBlockERK7QString@Base 4:4.3.4
 _ZN12KPIMTextEdit21EMailQuoteHighlighter15unsetMisspelledEii@Base 4:4.3.4
 _ZN12KPIMTextEdit21EMailQuoteHighlighter18highlightParagraphERK7QStringRK6QColorS6_S6_@Base 4:4.4.0
 _ZN12KPIMTextEdit21EMailQuoteHighlighter23toggleSpellHighlightingEb@Base 4:4.3.4
 _ZN12KPIMTextEdit21EMailQuoteHighlighterC1EPNS_8TextEditERK6QColorS5_S5_S5_S5_@Base 4:4.3.4
 _ZN12KPIMTextEdit21EMailQuoteHighlighterC2EPNS_8TextEditERK6QColorS5_S5_S5_S5_@Base 4:4.3.4
 _ZN12KPIMTextEdit21EMailQuoteHighlighterD0Ev@Base 4:4.3.4
 _ZN12KPIMTextEdit21EMailQuoteHighlighterD1Ev@Base 4:4.3.4
 _ZN12KPIMTextEdit21EMailQuoteHighlighterD2Ev@Base 4:4.3.4
 _ZN12KPIMTextEdit8TextEdit11eventFilterEP7QObjectP6QEvent@Base 4:4.3.4
 _ZN12KPIMTextEdit8TextEdit11insertImageERK6QImageRK9QFileInfo@Base 4:4.5.86
 _ZN12KPIMTextEdit8TextEdit11qt_metacallEN11QMetaObject4CallEiPPv@Base 4:4.3.4
 _ZN12KPIMTextEdit8TextEdit11qt_metacastEPKc@Base 4:4.3.4
 _ZN12KPIMTextEdit8TextEdit13createActionsEP17KActionCollection@Base 4:4.3.4
 _ZN12KPIMTextEdit8TextEdit13keyPressEventEP9QKeyEvent@Base 4:4.3.4
 _ZN12KPIMTextEdit8TextEdit16staticMetaObjectE@Base 4:4.3.4
 _ZN12KPIMTextEdit8TextEdit17createHighlighterEv@Base 4:4.3.4
 _ZN12KPIMTextEdit8TextEdit17deleteCurrentLineEv@Base 4:4.4.0
 _ZN12KPIMTextEdit8TextEdit18enableImageActionsEv@Base 4:4.3.4
 _ZN12KPIMTextEdit8TextEdit18insertFromMimeDataEPK9QMimeData@Base 4:4.3.4
 _ZN12KPIMTextEdit8TextEdit20setHighlighterColorsEPNS_21EMailQuoteHighlighterE@Base 4:4.3.4
 _ZN12KPIMTextEdit8TextEdit22imageNamesToContentIdsERK10QByteArrayRK5QListI14QSharedPointerINS_13EmbeddedImageEEE@Base 4:4.3.4
 _ZN12KPIMTextEdit8TextEdit23setSpellCheckingEnabledEb@Base 4:4.3.4
 _ZN12KPIMTextEdit8TextEdit8addImageERK4KUrl@Base 4:4.3.4
 _ZN12KPIMTextEdit8TextEdit9loadImageERK6QImageRK7QStringS6_@Base 4:4.4.0
 _ZN12KPIMTextEdit8TextEditC1EP7QWidget@Base 4:4.3.4
 _ZN12KPIMTextEdit8TextEditC1EP7QWidgetRK7QString@Base 4:4.5.0
 _ZN12KPIMTextEdit8TextEditC1ERK7QStringP7QWidget@Base 4:4.3.4
 _ZN12KPIMTextEdit8TextEditC2EP7QWidget@Base 4:4.3.4
 _ZN12KPIMTextEdit8TextEditC2EP7QWidgetRK7QString@Base 4:4.5.0
 _ZN12KPIMTextEdit8TextEditC2ERK7QStringP7QWidget@Base 4:4.3.4
 _ZN12KPIMTextEdit8TextEditD0Ev@Base 4:4.3.4
 _ZN12KPIMTextEdit8TextEditD1Ev@Base 4:4.3.4
 _ZN12KPIMTextEdit8TextEditD2Ev@Base 4:4.3.4
 _ZN12KPIMTextEdit9TextUtils18containsFormattingEPK13QTextDocument@Base 4:4.5.0
 _ZN12KPIMTextEdit9TextUtils8flowTextER7QStringRKS1_i@Base 4:4.5.0
 _ZNK12KPIMTextEdit8TextEdit10configFileEv@Base 4:4.5.0
 _ZNK12KPIMTextEdit8TextEdit10metaObjectEv@Base 4:4.3.4
 _ZNK12KPIMTextEdit8TextEdit11quoteLengthERK7QString@Base 4:4.3.4
 _ZNK12KPIMTextEdit8TextEdit12isLineQuotedERK7QString@Base 4:4.3.4
 _ZNK12KPIMTextEdit8TextEdit14embeddedImagesEv@Base 4:4.3.4
 _ZNK12KPIMTextEdit8TextEdit14imagesWithNameEv@Base 4:4.4.0
 _ZNK12KPIMTextEdit8TextEdit16defaultQuoteSignEv@Base 4:4.3.4
 _ZNK12KPIMTextEdit8TextEdit16isFormattingUsedEv@Base 4:4.3.4
 _ZNK12KPIMTextEdit8TextEdit16toCleanPlainTextEv@Base 4:4.3.4
 _ZNK12KPIMTextEdit8TextEdit18toWrappedPlainTextEv@Base 4:4.3.4
 _ZNK12KPIMTextEdit8TextEdit20isEnableImageActionsEv@Base 4:4.5.86
 _ZNK12KPIMTextEdit8TextEdit21canInsertFromMimeDataEPK9QMimeData@Base 4:4.3.4
 _ZNK12KPIMTextEdit8TextEdit22isSpellCheckingEnabledEv@Base 4:4.3.4
 _ZNK12KPIMTextEdit8TextEdit25shouldBlockBeSpellCheckedERK7QString@Base 4:4.3.4
 _ZTIN12KPIMTextEdit21EMailQuoteHighlighterE@Base 4:4.3.4
 _ZTIN12KPIMTextEdit8TextEditE@Base 4:4.3.4
 _ZTSN12KPIMTextEdit21EMailQuoteHighlighterE@Base 4:4.3.4
 _ZTSN12KPIMTextEdit8TextEditE@Base 4:4.3.4
 _ZTVN12KPIMTextEdit21EMailQuoteHighlighterE@Base 4:4.3.4
 _ZTVN12KPIMTextEdit8TextEditE@Base 4:4.3.4
 (c++)"non-virtual thunk to KPIMTextEdit::TextEdit::isSpellCheckingEnabled() const@Base" 4:4.3.4
 (c++)"non-virtual thunk to KPIMTextEdit::TextEdit::setSpellCheckingEnabled(bool)@Base" 4:4.3.4
 (c++)"non-virtual thunk to KPIMTextEdit::TextEdit::shouldBlockBeSpellChecked(QString const&) const@Base" 4:4.3.4
 (c++)"non-virtual thunk to KPIMTextEdit::TextEdit::~TextEdit()@Base" 4:4.3.4
