libkpimidentities.so.4 libkpimidentities4 #MINVER#
* Build-Depends-Package: kdepimlibs5-dev
 _ZN14KPIMIdentities13IdentityCombo11qt_metacallEN11QMetaObject4CallEiPPv@Base 4:4.3.4
 _ZN14KPIMIdentities13IdentityCombo11qt_metacastEPKc@Base 4:4.3.4
 _ZN14KPIMIdentities13IdentityCombo11reloadComboEv@Base 4:4.3.4
 _ZN14KPIMIdentities13IdentityCombo14reloadUoidListEv@Base 4:4.3.4
 _ZN14KPIMIdentities13IdentityCombo15identityChangedEj@Base 4:4.3.4
 _ZN14KPIMIdentities13IdentityCombo15slotEmitChangedEi@Base 4:4.3.4
 _ZN14KPIMIdentities13IdentityCombo16staticMetaObjectE@Base 4:4.3.4
 _ZN14KPIMIdentities13IdentityCombo17slotUpdateTooltipEj@Base 4:4.4.0
 _ZN14KPIMIdentities13IdentityCombo18setCurrentIdentityERK7QString@Base 4:4.3.4
 _ZN14KPIMIdentities13IdentityCombo18setCurrentIdentityERKNS_8IdentityE@Base 4:4.3.4
 _ZN14KPIMIdentities13IdentityCombo18setCurrentIdentityEj@Base 4:4.3.4
 _ZN14KPIMIdentities13IdentityCombo26slotIdentityManagerChangedEv@Base 4:4.3.4
 _ZN14KPIMIdentities13IdentityComboC1EPNS_15IdentityManagerEP7QWidget@Base 4:4.3.4
 _ZN14KPIMIdentities13IdentityComboC2EPNS_15IdentityManagerEP7QWidget@Base 4:4.3.4
 _ZN14KPIMIdentities13IdentityComboD0Ev@Base 4:4.3.4
 _ZN14KPIMIdentities13IdentityComboD1Ev@Base 4:4.3.4
 _ZN14KPIMIdentities13IdentityComboD2Ev@Base 4:4.3.4
 _ZN14KPIMIdentities15IdentityManager10readConfigEP7KConfig@Base 4:4.3.4
 _ZN14KPIMIdentities15IdentityManager11modifyBeginEv@Base 4:4.3.4
 _ZN14KPIMIdentities15IdentityManager11qt_metacallEN11QMetaObject4CallEiPPv@Base 4:4.3.4
 _ZN14KPIMIdentities15IdentityManager11qt_metacastEPKc@Base 4:4.3.4
 _ZN14KPIMIdentities15IdentityManager12setAsDefaultEj@Base 4:4.3.4
 _ZN14KPIMIdentities15IdentityManager12slotRollbackEv@Base 4:4.3.4
 _ZN14KPIMIdentities15IdentityManager14newFromScratchERK7QString@Base 4:4.3.4
 _ZN14KPIMIdentities15IdentityManager14removeIdentityERK7QString@Base 4:4.3.4
 _ZN14KPIMIdentities15IdentityManager15newFromExistingERKNS_8IdentityERK7QString@Base 4:4.3.4
 _ZN14KPIMIdentities15IdentityManager16staticMetaObjectE@Base 4:4.3.4
 _ZN14KPIMIdentities15IdentityManager17identitiesChangedERK7QString@Base 4:4.3.4
 _ZN14KPIMIdentities15IdentityManager20newFromControlCenterERK7QString@Base 4:4.3.4
 _ZN14KPIMIdentities15IdentityManager20removeIdentityForcedERK7QString@Base 4:4.5.95
 _ZN14KPIMIdentities15IdentityManager21createDefaultIdentityEv@Base 4:4.3.4
 _ZN14KPIMIdentities15IdentityManager21modifyIdentityForNameERK7QString@Base 4:4.3.4
 _ZN14KPIMIdentities15IdentityManager21modifyIdentityForUoidEj@Base 4:4.3.4
 _ZN14KPIMIdentities15IdentityManager21slotIdentitiesChangedERK7QString@Base 4:4.3.4
 _ZN14KPIMIdentities15IdentityManager4sortEv@Base 4:4.3.4
 _ZN14KPIMIdentities15IdentityManager5addedERKNS_8IdentityE@Base 4:4.3.4
 _ZN14KPIMIdentities15IdentityManager6commitEv@Base 4:4.3.4
 _ZN14KPIMIdentities15IdentityManager7changedERKNS_8IdentityE@Base 4:4.3.4
 _ZN14KPIMIdentities15IdentityManager7changedEj@Base 4:4.3.4
 _ZN14KPIMIdentities15IdentityManager7changedEv@Base 4:4.3.4
 _ZN14KPIMIdentities15IdentityManager7deletedEj@Base 4:4.3.4
 _ZN14KPIMIdentities15IdentityManager7newUoidEv@Base 4:4.3.4
 _ZN14KPIMIdentities15IdentityManager8rollbackEv@Base 4:4.3.4
 _ZN14KPIMIdentities15IdentityManager9modifyEndEv@Base 4:4.3.4
 _ZN14KPIMIdentities15IdentityManagerC1EbP7QObjectPKc@Base 4:4.3.4
 _ZN14KPIMIdentities15IdentityManagerC2EbP7QObjectPKc@Base 4:4.3.4
 _ZN14KPIMIdentities15IdentityManagerD0Ev@Base 4:4.3.4
 _ZN14KPIMIdentities15IdentityManagerD1Ev@Base 4:4.3.4
 _ZN14KPIMIdentities15IdentityManagerD2Ev@Base 4:4.3.4
 _ZN14KPIMIdentities21SignatureConfigurator10setFileURLERK7QString@Base 4:4.3.4
 _ZN14KPIMIdentities21SignatureConfigurator11qt_metacallEN11QMetaObject4CallEiPPv@Base 4:4.3.4
 _ZN14KPIMIdentities21SignatureConfigurator11qt_metacastEPKc@Base 4:4.3.4
 _ZN14KPIMIdentities21SignatureConfigurator11slotSetHtmlEv@Base 4:4.3.4
 _ZN14KPIMIdentities21SignatureConfigurator12setSignatureERKNS_9SignatureE@Base 4:4.3.4
 _ZN14KPIMIdentities21SignatureConfigurator13setCommandURLERK7QString@Base 4:4.3.4
 _ZN14KPIMIdentities21SignatureConfigurator13setInlineTextERK7QString@Base 4:4.3.4
 _ZN14KPIMIdentities21SignatureConfigurator16setImageLocationERK7QString@Base 4:4.4.0
 _ZN14KPIMIdentities21SignatureConfigurator16setImageLocationERKNS_8IdentityE@Base 4:4.4.0
 _ZN14KPIMIdentities21SignatureConfigurator16setSignatureTypeENS_9Signature4TypeE@Base 4:4.3.4
 _ZN14KPIMIdentities21SignatureConfigurator16staticMetaObjectE@Base 4:4.3.4
 _ZN14KPIMIdentities21SignatureConfigurator19setSignatureEnabledEb@Base 4:4.3.4
 _ZN14KPIMIdentities21SignatureConfigurator20slotEnableEditButtonERK7QString@Base 4:4.3.4
 _ZN14KPIMIdentities21SignatureConfigurator7Private4initEv@Base 4:4.4.0
 _ZN14KPIMIdentities21SignatureConfigurator7PrivateC1EPS0_@Base 4:4.4.0
 _ZN14KPIMIdentities21SignatureConfigurator7PrivateC2EPS0_@Base 4:4.4.0
 _ZN14KPIMIdentities21SignatureConfigurator8slotEditEv@Base 4:4.3.4
 _ZN14KPIMIdentities21SignatureConfiguratorC1EP7QWidget@Base 4:4.3.4
 _ZN14KPIMIdentities21SignatureConfiguratorC2EP7QWidget@Base 4:4.3.4
 _ZN14KPIMIdentities21SignatureConfiguratorD0Ev@Base 4:4.3.4
 _ZN14KPIMIdentities21SignatureConfiguratorD1Ev@Base 4:4.3.4
 _ZN14KPIMIdentities21SignatureConfiguratorD2Ev@Base 4:4.3.4
 _ZN14KPIMIdentities8Identity10readConfigERK12KConfigGroup@Base 4:4.3.4
 _ZN14KPIMIdentities8Identity11setFullNameERK7QString@Base 4:4.3.4
 _ZN14KPIMIdentities8Identity11setPropertyERK7QStringRK8QVariant@Base 4:4.3.4
 _ZN14KPIMIdentities8Identity12fromMimeDataEPK9QMimeData@Base 4:4.3.4
 _ZN14KPIMIdentities8Identity12mimeDataTypeEv@Base 4:4.3.4
 _ZN14KPIMIdentities8Identity12setEmailAddrERK7QString@Base 4:4.3.4
 _ZN14KPIMIdentities8Identity12setIsDefaultEb@Base 4:4.3.4
 _ZN14KPIMIdentities8Identity12setSignatureERKNS_9SignatureE@Base 4:4.3.4
 _ZN14KPIMIdentities8Identity12setTemplatesERK7QString@Base 4:4.3.4
 _ZN14KPIMIdentities8Identity12setTransportERK7QString@Base 4:4.3.4
 _ZN14KPIMIdentities8Identity12setVCardFileERK7QString@Base 4:4.3.4
 _ZN14KPIMIdentities8Identity13setDictionaryERK7QString@Base 4:4.3.4
 _ZN14KPIMIdentities8Identity14setAttachVcardEb@Base 4:4.10.1
 _ZN14KPIMIdentities8Identity14setReplyToAddrERK7QString@Base 4:4.3.4
 _ZN14KPIMIdentities8Identity15setEmailAliasesERK11QStringList@Base 4:4.5.86
 _ZN14KPIMIdentities8Identity15setIdentityNameERK7QString@Base 4:4.3.4
 _ZN14KPIMIdentities8Identity15setOrganizationERK7QString@Base 4:4.3.4
 _ZN14KPIMIdentities8Identity15setXFaceEnabledEb@Base 4:4.3.4
 _ZN14KPIMIdentities8Identity16populateMimeDataEP9QMimeData@Base 4:4.3.4
 _ZN14KPIMIdentities8Identity16setPGPSigningKeyERK10QByteArray@Base 4:4.3.4
 _ZN14KPIMIdentities8Identity16setSignatureFileERK7QString@Base 4:4.3.4
 _ZN14KPIMIdentities8Identity18setSMIMESigningKeyERK10QByteArray@Base 4:4.3.4
 _ZN14KPIMIdentities8Identity19setPGPEncryptionKeyERK10QByteArray@Base 4:4.3.4
 _ZN14KPIMIdentities8Identity21setSMIMEEncryptionKeyERK10QByteArray@Base 4:4.3.4
 _ZN14KPIMIdentities8Identity22setPrimaryEmailAddressERK7QString@Base 4:4.5.86
 _ZN14KPIMIdentities8Identity22setSignatureInlineTextERK7QString@Base 4:4.3.4
 _ZN14KPIMIdentities8Identity25setAutocorrectionLanguageERK7QString@Base 4:4.10.1
 _ZN14KPIMIdentities8Identity31setPreferredCryptoMessageFormatERK7QString@Base 4:4.3.4
 _ZN14KPIMIdentities8Identity4nullEv@Base 4:4.3.4
 _ZN14KPIMIdentities8Identity5setCcERK7QString@Base 4:4.10.1
 _ZN14KPIMIdentities8Identity6setBccERK7QString@Base 4:4.3.4
 _ZN14KPIMIdentities8Identity6setFccERK7QString@Base 4:4.3.4
 _ZN14KPIMIdentities8Identity7setUoidEj@Base 4:4.3.4
 _ZN14KPIMIdentities8Identity8setXFaceERK7QString@Base 4:4.3.4
 _ZN14KPIMIdentities8Identity9canDecodeEPK9QMimeData@Base 4:4.3.4
 _ZN14KPIMIdentities8Identity9setDraftsERK7QString@Base 4:4.3.4
 _ZN14KPIMIdentities8Identity9signatureEv@Base 4:4.3.4
 _ZN14KPIMIdentities8IdentityC1ERK7QStringS3_S3_S3_S3_@Base 4:4.3.4
 _ZN14KPIMIdentities8IdentityC2ERK7QStringS3_S3_S3_S3_@Base 4:4.3.4
 _ZN14KPIMIdentities8IdentityD1Ev@Base 4:4.3.4
 _ZN14KPIMIdentities8IdentityD2Ev@Base 4:4.3.4
 _ZN14KPIMIdentities9Signature10assignFromERKS0_@Base 4:4.4.0
 _ZN14KPIMIdentities9Signature10readConfigERK12KConfigGroup@Base 4:4.3.4
 _ZN14KPIMIdentities9Signature14setInlinedHtmlEb@Base 4:4.3.4
 _ZN14KPIMIdentities9Signature16setImageLocationERK7QString@Base 4:4.4.0
 _ZN14KPIMIdentities9Signature18insertIntoTextEditEP13KRichTextEditNS0_9PlacementEb@Base 4:4.3.4
 _ZN14KPIMIdentities9Signature19setEnabledSignatureEb@Base 4:4.10.1
 _ZN14KPIMIdentities9Signature32insertPlainSignatureIntoTextEditERK7QStringP13KRichTextEditNS0_9PlacementEb@Base 4:4.3.4
 _ZN14KPIMIdentities9Signature6setUrlERK7QStringb@Base 4:4.3.4
 _ZN14KPIMIdentities9Signature7setTextERK7QString@Base 4:4.3.4
 _ZN14KPIMIdentities9Signature7setTypeENS0_4TypeE@Base 4:4.3.4
 _ZN14KPIMIdentities9Signature8addImageERK6QImageRK7QString@Base 4:4.4.0
 _ZN14KPIMIdentities9SignatureC1ERK7QString@Base 4:4.3.4
 _ZN14KPIMIdentities9SignatureC1ERK7QStringb@Base 4:4.3.4
 _ZN14KPIMIdentities9SignatureC1ERKS0_@Base 4:4.4.0
 _ZN14KPIMIdentities9SignatureC1Ev@Base 4:4.3.4
 _ZN14KPIMIdentities9SignatureC2ERK7QString@Base 4:4.3.4
 _ZN14KPIMIdentities9SignatureC2ERK7QStringb@Base 4:4.3.4
 _ZN14KPIMIdentities9SignatureC2ERKS0_@Base 4:4.4.0
 _ZN14KPIMIdentities9SignatureC2Ev@Base 4:4.3.4
 _ZN14KPIMIdentities9SignatureD1Ev@Base 4:4.4.0
 _ZN14KPIMIdentities9SignatureD2Ev@Base 4:4.4.0
 _ZN14KPIMIdentities9SignatureaSERKS0_@Base 4:4.4.0
 _ZN14KPIMIdentitieslsER11QDataStreamRKNS_8IdentityE@Base 4:4.3.4
 _ZN14KPIMIdentitieslsER11QDataStreamRKNS_9SignatureE@Base 4:4.3.4
 _ZN14KPIMIdentitiesrsER11QDataStreamRNS_8IdentityE@Base 4:4.3.4
 _ZN14KPIMIdentitiesrsER11QDataStreamRNS_9SignatureE@Base 4:4.3.4
 _ZNK14KPIMIdentities13IdentityCombo10metaObjectEv@Base 4:4.3.4
 _ZNK14KPIMIdentities13IdentityCombo15currentIdentityEv@Base 4:4.3.4
 _ZNK14KPIMIdentities13IdentityCombo15identityManagerEv@Base 4:4.5.0
 _ZNK14KPIMIdentities13IdentityCombo19currentIdentityNameEv@Base 4:4.3.4
 _ZNK14KPIMIdentities15IdentityManager10identitiesEv@Base 4:4.3.4
 _ZNK14KPIMIdentities15IdentityManager10makeUniqueERK7QString@Base 4:4.3.4
 _ZNK14KPIMIdentities15IdentityManager10metaObjectEv@Base 4:4.3.4
 _ZNK14KPIMIdentities15IdentityManager11writeConfigEv@Base 4:4.3.4
 _ZNK14KPIMIdentities15IdentityManager15defaultIdentityEv@Base 4:4.3.4
 _ZNK14KPIMIdentities15IdentityManager15identityForUoidEj@Base 4:4.3.4
 _ZNK14KPIMIdentities15IdentityManager16shadowIdentitiesEv@Base 4:4.3.4
 _ZNK14KPIMIdentities15IdentityManager17hasPendingChangesEv@Base 4:4.3.4
 _ZNK14KPIMIdentities15IdentityManager18identityForAddressERK7QString@Base 4:4.3.4
 _ZNK14KPIMIdentities15IdentityManager24identityForUoidOrDefaultEj@Base 4:4.3.4
 _ZNK14KPIMIdentities15IdentityManager3endEv@Base 4:4.3.4
 _ZNK14KPIMIdentities15IdentityManager5beginEv@Base 4:4.3.4
 _ZNK14KPIMIdentities15IdentityManager8isUniqueERK7QString@Base 4:4.3.4
 _ZNK14KPIMIdentities15IdentityManager8thatIsMeERK7QString@Base 4:4.3.4
 _ZNK14KPIMIdentities15IdentityManager9allEmailsEv@Base 4:4.3.4
 _ZNK14KPIMIdentities15IdentityManager9groupListEP7KConfig@Base 4:4.3.4
 _ZNK14KPIMIdentities21SignatureConfigurator10commandURLEv@Base 4:4.3.4
 _ZNK14KPIMIdentities21SignatureConfigurator10metaObjectEv@Base 4:4.3.4
 _ZNK14KPIMIdentities21SignatureConfigurator13asCleanedHTMLEv@Base 4:4.3.4
 _ZNK14KPIMIdentities21SignatureConfigurator13signatureTypeEv@Base 4:4.3.4
 _ZNK14KPIMIdentities21SignatureConfigurator18isSignatureEnabledEv@Base 4:4.3.4
 _ZNK14KPIMIdentities21SignatureConfigurator7fileURLEv@Base 4:4.3.4
 _ZNK14KPIMIdentities21SignatureConfigurator9signatureEv@Base 4:4.3.4
 _ZNK14KPIMIdentities8Identity10dictionaryEv@Base 4:4.3.4
 _ZNK14KPIMIdentities8Identity11attachVcardEv@Base 4:4.10.1
 _ZNK14KPIMIdentities8Identity11replyToAddrEv@Base 4:4.3.4
 _ZNK14KPIMIdentities8Identity11writeConfigER12KConfigGroup@Base 4:4.3.4
 _ZNK14KPIMIdentities8Identity12emailAliasesEv@Base 4:4.5.86
 _ZNK14KPIMIdentities8Identity12identityNameEv@Base 4:4.3.4
 _ZNK14KPIMIdentities8Identity12organizationEv@Base 4:4.3.4
 _ZNK14KPIMIdentities8Identity13fullEmailAddrEv@Base 4:4.3.4
 _ZNK14KPIMIdentities8Identity13pgpSigningKeyEv@Base 4:4.3.4
 _ZNK14KPIMIdentities8Identity13signatureFileEv@Base 4:4.3.4
 _ZNK14KPIMIdentities8Identity13signatureTextEPb@Base 4:4.3.4
 _ZNK14KPIMIdentities8Identity14isXFaceEnabledEv@Base 4:4.3.4
 _ZNK14KPIMIdentities8Identity14mailingAllowedEv@Base 4:4.3.4
 _ZNK14KPIMIdentities8Identity15smimeSigningKeyEv@Base 4:4.3.4
 _ZNK14KPIMIdentities8Identity15verifyAkonadiIdERK7QString@Base 4:4.10.1
 _ZNK14KPIMIdentities8Identity16pgpEncryptionKeyEv@Base 4:4.3.4
 _ZNK14KPIMIdentities8Identity16useSignatureFileEv@Base 4:4.3.4
 _ZNK14KPIMIdentities8Identity17signatureIsInlineEv@Base 4:4.3.4
 _ZNK14KPIMIdentities8Identity18signatureIsCommandEv@Base 4:4.3.4
 _ZNK14KPIMIdentities8Identity18smimeEncryptionKeyEv@Base 4:4.3.4
 _ZNK14KPIMIdentities8Identity19matchesEmailAddressERK7QString@Base 4:4.5.86
 _ZNK14KPIMIdentities8Identity19primaryEmailAddressEv@Base 4:4.5.86
 _ZNK14KPIMIdentities8Identity19signatureInlineTextEv@Base 4:4.3.4
 _ZNK14KPIMIdentities8Identity20signatureIsPlainFileEv@Base 4:4.3.4
 _ZNK14KPIMIdentities8Identity22autocorrectionLanguageEv@Base 4:4.10.1
 _ZNK14KPIMIdentities8Identity22signatureIsInlinedHtmlEv@Base 4:4.3.4
 _ZNK14KPIMIdentities8Identity28preferredCryptoMessageFormatEv@Base 4:4.3.4
 _ZNK14KPIMIdentities8Identity2ccEv@Base 4:4.10.1
 _ZNK14KPIMIdentities8Identity3bccEv@Base 4:4.3.4
 _ZNK14KPIMIdentities8Identity3fccEv@Base 4:4.3.4
 _ZNK14KPIMIdentities8Identity4uoidEv@Base 4:4.3.4
 _ZNK14KPIMIdentities8Identity5xfaceEv@Base 4:4.3.4
 _ZNK14KPIMIdentities8Identity6draftsEv@Base 4:4.3.4
 _ZNK14KPIMIdentities8Identity6isNullEv@Base 4:4.3.4
 _ZNK14KPIMIdentities8Identity8fullNameEv@Base 4:4.3.4
 _ZNK14KPIMIdentities8Identity8propertyERK7QString@Base 4:4.3.4
 _ZNK14KPIMIdentities8Identity9emailAddrEv@Base 4:4.3.4
 _ZNK14KPIMIdentities8Identity9isDefaultEv@Base 4:4.3.4
 _ZNK14KPIMIdentities8Identity9templatesEv@Base 4:4.3.4
 _ZNK14KPIMIdentities8Identity9transportEv@Base 4:4.3.4
 _ZNK14KPIMIdentities8Identity9vCardFileEv@Base 4:4.3.4
 _ZNK14KPIMIdentities8IdentityeqERKS0_@Base 4:4.3.4
 _ZNK14KPIMIdentities8IdentitygeERKS0_@Base 4:4.3.4
 _ZNK14KPIMIdentities8IdentitygtERKS0_@Base 4:4.3.4
 _ZNK14KPIMIdentities8IdentityleERKS0_@Base 4:4.3.4
 _ZNK14KPIMIdentities8IdentityltERKS0_@Base 4:4.3.4
 _ZNK14KPIMIdentities8IdentityneERKS0_@Base 4:4.3.4
 _ZNK14KPIMIdentities9Signature10saveImagesEv@Base 4:4.4.0
 _ZNK14KPIMIdentities9Signature11toPlainTextEv@Base 4:4.4.0
 _ZNK14KPIMIdentities9Signature11writeConfigER12KConfigGroup@Base 4:4.3.4
 _ZNK14KPIMIdentities9Signature12textFromFileEPb@Base 4:4.3.4
 _ZNK14KPIMIdentities9Signature13cleanupImagesEv@Base 4:4.4.0
 _ZNK14KPIMIdentities9Signature13isInlinedHtmlEv@Base 4:4.3.4
 _ZNK14KPIMIdentities9Signature13withSeparatorEPb@Base 4:4.3.4
 _ZNK14KPIMIdentities9Signature15textFromCommandEPb@Base 4:4.3.4
 _ZNK14KPIMIdentities9Signature18insertIntoTextEditENS0_9PlacementE6QFlagsINS0_13AddedTextFlagEEPN12KPIMTextEdit8TextEditE@Base 4:4.4.0
 _ZNK14KPIMIdentities9Signature18insertIntoTextEditENS0_9PlacementE6QFlagsINS0_13AddedTextFlagEEPN12KPIMTextEdit8TextEditEb@Base 4:4.10.1
 _ZNK14KPIMIdentities9Signature18isEnabledSignatureEv@Base 4:4.10.1
 _ZNK14KPIMIdentities9Signature19insertSignatureTextENS0_9PlacementE6QFlagsINS0_13AddedTextFlagEEPN12KPIMTextEdit8TextEditEb@Base 4:4.10.1
 _ZNK14KPIMIdentities9Signature3urlEv@Base 4:4.3.4
 _ZNK14KPIMIdentities9Signature4textEv@Base 4:4.3.4
 _ZNK14KPIMIdentities9Signature4typeEv@Base 4:4.3.4
 _ZNK14KPIMIdentities9Signature7rawTextEPb@Base 4:4.3.4
 _ZNK14KPIMIdentities9SignatureeqERKS0_@Base 4:4.3.4
 _ZTIN14KPIMIdentities13IdentityComboE@Base 4:4.3.4
 _ZTIN14KPIMIdentities15IdentityManagerE@Base 4:4.3.4
 _ZTIN14KPIMIdentities21SignatureConfiguratorE@Base 4:4.3.4
 _ZTSN14KPIMIdentities13IdentityComboE@Base 4:4.3.4
 _ZTSN14KPIMIdentities15IdentityManagerE@Base 4:4.3.4
 _ZTSN14KPIMIdentities21SignatureConfiguratorE@Base 4:4.3.4
 _ZTVN14KPIMIdentities13IdentityComboE@Base 4:4.3.4
 _ZTVN14KPIMIdentities15IdentityManagerE@Base 4:4.3.4
 _ZTVN14KPIMIdentities21SignatureConfiguratorE@Base 4:4.3.4
 _ZThn16_N14KPIMIdentities13IdentityComboD0Ev@Base 4:4.3.4
 _ZThn16_N14KPIMIdentities13IdentityComboD1Ev@Base 4:4.3.4
 _ZThn16_N14KPIMIdentities21SignatureConfiguratorD0Ev@Base 4:4.3.4
 _ZThn16_N14KPIMIdentities21SignatureConfiguratorD1Ev@Base 4:4.3.4
