# SymbolsHelper-Confirmed: 4:4.5.86 amd64
libkmbox.so.4 libkmbox4 #MINVER#
 _ZN5KMBox4MBox11readMessageERKNS_9MBoxEntryE@Base 4:4.5.86
 _ZN5KMBox4MBox11setLockFileERK7QString@Base 4:4.5.86
 _ZN5KMBox4MBox11setLockTypeENS0_8LockTypeE@Base 4:4.5.86
 _ZN5KMBox4MBox13appendMessageERKN5boost10shared_ptrIN5KMime7MessageEEE@Base 4:4.5.86
 _ZN5KMBox4MBox14readRawMessageERKNS_9MBoxEntryE@Base 4:4.5.86
 _ZN5KMBox4MBox16setUnlockTimeoutEi@Base 4:4.5.86
 _ZN5KMBox4MBox18readMessageHeadersERKNS_9MBoxEntryE@Base 4:4.5.86
 _ZN5KMBox4MBox4loadERK7QString@Base 4:4.5.86
 _ZN5KMBox4MBox4lockEv@Base 4:4.5.86
 _ZN5KMBox4MBox4saveERK7QString@Base 4:4.5.86
 _ZN5KMBox4MBox5purgeERK5QListINS_9MBoxEntryEEPS1_I5QPairIS2_S2_EE@Base 4:4.5.86
 _ZN5KMBox4MBox6unlockEv@Base 4:4.5.86
 _ZN5KMBox4MBoxC1Ev@Base 4:4.5.86
 _ZN5KMBox4MBoxC2Ev@Base 4:4.5.86
 _ZN5KMBox4MBoxD1Ev@Base 4:4.5.86
 _ZN5KMBox4MBoxD2Ev@Base 4:4.5.86
 _ZN5KMBox9MBoxEntryC1ERKS0_@Base 4:4.5.86
 _ZN5KMBox9MBoxEntryC1Ev@Base 4:4.5.86
 _ZN5KMBox9MBoxEntryC1Ey@Base 4:4.5.86
 _ZN5KMBox9MBoxEntryC2ERKS0_@Base 4:4.5.86
 _ZN5KMBox9MBoxEntryC2Ev@Base 4:4.5.86
 _ZN5KMBox9MBoxEntryC2Ey@Base 4:4.5.86
 _ZN5KMBox9MBoxEntryD1Ev@Base 4:4.5.86
 _ZN5KMBox9MBoxEntryD2Ev@Base 4:4.5.86
 _ZN5KMBox9MBoxEntryaSERKS0_@Base 4:4.5.86
 _ZNK5KMBox4MBox6lockedEv@Base 4:4.5.86
 _ZNK5KMBox4MBox7entriesERK5QListINS_9MBoxEntryEE@Base 4:4.5.86
 _ZNK5KMBox4MBox8fileNameEv@Base 4:4.5.86
 _ZNK5KMBox9MBoxEntry11messageSizeEv@Base 4:4.5.86
 _ZNK5KMBox9MBoxEntry13messageOffsetEv@Base 4:4.5.86
 _ZNK5KMBox9MBoxEntry13separatorSizeEv@Base 4:4.5.86
 _ZNK5KMBox9MBoxEntry7isValidEv@Base 4:4.5.86
 _ZNK5KMBox9MBoxEntryeqERKS0_@Base 4:4.5.86
 _ZNK5KMBox9MBoxEntryneERKS0_@Base 4:4.5.86
