libkcalcore.so.4 libkcalcore4 #MINVER#
 Parse_MIME@Base 4:4.5.86
 Parse_MIME_FromFile@Base 4:4.5.86
 Parse_MIME_FromFileName@Base 4:4.5.86
 YYDebug@Base 4:4.5.86
 _Z5qHashRKN8KCalCore6PeriodE@Base 4:4.5.86
 _Z5qHashRKN8KCalCore6PersonE@Base 4:4.5.86
 _ZN8KCalCore10Attachment11setMimeTypeERK7QString@Base 4:4.5.86
 _ZN8KCalCore10Attachment13setShowInlineEb@Base 4:4.5.86
 _ZN8KCalCore10Attachment14setDecodedDataERK10QByteArray@Base 4:4.5.86
 _ZN8KCalCore10Attachment6setUriERK7QString@Base 4:4.5.86
 _ZN8KCalCore10Attachment7setDataERK10QByteArray@Base 4:4.5.86
 _ZN8KCalCore10Attachment8setLabelERK7QString@Base 4:4.5.86
 _ZN8KCalCore10Attachment8setLocalEb@Base 4:4.5.86
 _ZN8KCalCore10AttachmentC1ERK10QByteArrayRK7QString@Base 4:4.5.86
 _ZN8KCalCore10AttachmentC1ERK7QStringS3_@Base 4:4.5.86
 _ZN8KCalCore10AttachmentC1ERKS0_@Base 4:4.5.86
 _ZN8KCalCore10AttachmentC2ERK10QByteArrayRK7QString@Base 4:4.5.86
 _ZN8KCalCore10AttachmentC2ERK7QStringS3_@Base 4:4.5.86
 _ZN8KCalCore10AttachmentC2ERKS0_@Base 4:4.5.86
 _ZN8KCalCore10AttachmentD1Ev@Base 4:4.5.86
 _ZN8KCalCore10AttachmentD2Ev@Base 4:4.5.86
 _ZN8KCalCore10AttachmentaSERKS0_@Base 4:4.5.86
 _ZN8KCalCore10CalStorage11qt_metacallEN11QMetaObject4CallEiPPv@Base 4:4.5.86
 _ZN8KCalCore10CalStorage11qt_metacastEPKc@Base 4:4.5.86
 _ZN8KCalCore10CalStorage16staticMetaObjectE@Base 4:4.5.86
 _ZN8KCalCore10CalStorageC1ERK14QSharedPointerINS_8CalendarEE@Base 4:4.5.86
 _ZN8KCalCore10CalStorageC2ERK14QSharedPointerINS_8CalendarEE@Base 4:4.5.86
 _ZN8KCalCore10CalStorageD0Ev@Base 4:4.5.86
 _ZN8KCalCore10CalStorageD1Ev@Base 4:4.5.86
 _ZN8KCalCore10CalStorageD2Ev@Base 4:4.5.86
 _ZN8KCalCore10ICalFormat10fromStringEPNS_14RecurrenceRuleERK7QString@Base 4:4.5.86
 _ZN8KCalCore10ICalFormat10fromStringERK14QSharedPointerINS_8CalendarEERK7QStringbS8_@Base 4:4.5.86
 _ZN8KCalCore10ICalFormat10fromStringERK7QString@Base 4:4.5.86
 _ZN8KCalCore10ICalFormat11setTimeSpecERKN9KDateTime4SpecE@Base 4:4.5.86
 _ZN8KCalCore10ICalFormat11toRawStringERK14QSharedPointerINS_9IncidenceEE@Base 4:4.7.0
 _ZN8KCalCore10ICalFormat12toICalStringERK14QSharedPointerINS_9IncidenceEE@Base 4:4.5.86
 _ZN8KCalCore10ICalFormat12virtual_hookEiPv@Base 4:4.5.86
 _ZN8KCalCore10ICalFormat13fromRawStringERK14QSharedPointerINS_8CalendarEERK10QByteArraybRK7QString@Base 4:4.5.86
 _ZN8KCalCore10ICalFormat13parseFreeBusyERK7QString@Base 4:4.5.86
 _ZN8KCalCore10ICalFormat20parseScheduleMessageERK14QSharedPointerINS_8CalendarEERK7QString@Base 4:4.5.86
 _ZN8KCalCore10ICalFormat21createScheduleMessageERK14QSharedPointerINS_13IncidenceBaseEENS_10iTIPMethodE@Base 4:4.5.86
 _ZN8KCalCore10ICalFormat4loadERK14QSharedPointerINS_8CalendarEERK7QString@Base 4:4.5.86
 _ZN8KCalCore10ICalFormat4saveERK14QSharedPointerINS_8CalendarEERK7QString@Base 4:4.5.86
 _ZN8KCalCore10ICalFormat8toStringEPNS_14RecurrenceRuleE@Base 4:4.5.86
 _ZN8KCalCore10ICalFormat8toStringERK14QSharedPointerINS_8CalendarEERK7QStringb@Base 4:4.5.86
 _ZN8KCalCore10ICalFormat8toStringERK14QSharedPointerINS_9IncidenceEE@Base 4:4.5.86
 _ZN8KCalCore10ICalFormatC1Ev@Base 4:4.5.86
 _ZN8KCalCore10ICalFormatC2Ev@Base 4:4.5.86
 _ZN8KCalCore10ICalFormatD0Ev@Base 4:4.5.86
 _ZN8KCalCore10ICalFormatD1Ev@Base 4:4.5.86
 _ZN8KCalCore10ICalFormatD2Ev@Base 4:4.5.86
 _ZN8KCalCore10Incidences12dateLessThanERK14QSharedPointerINS_9IncidenceEES5_@Base 4:4.5.86
 _ZN8KCalCore10Incidences12dateMoreThanERK14QSharedPointerINS_9IncidenceEES5_@Base 4:4.5.86
 _ZN8KCalCore10Incidences15createdLessThanERK14QSharedPointerINS_9IncidenceEES5_@Base 4:4.5.86
 _ZN8KCalCore10Incidences15createdMoreThanERK14QSharedPointerINS_9IncidenceEES5_@Base 4:4.5.86
 _ZN8KCalCore10Incidences15summaryLessThanERK14QSharedPointerINS_9IncidenceEES5_@Base 4:4.5.86
 _ZN8KCalCore10Incidences15summaryMoreThanERK14QSharedPointerINS_9IncidenceEES5_@Base 4:4.5.86
 _ZN8KCalCore10Recurrence10setEndDateERK5QDate@Base 4:4.5.86
 _ZN8KCalCore10Recurrence10setExDatesERKNS_12SortableListI5QDateEE@Base 4:4.5.86
 _ZN8KCalCore10Recurrence10setMonthlyEi@Base 4:4.5.86
 _ZN8KCalCore10Recurrence10shiftTimesERKN9KDateTime4SpecES4_@Base 4:4.5.86
 _ZN8KCalCore10Recurrence11addObserverEPNS0_18RecurrenceObserverE@Base 4:4.5.86
 _ZN8KCalCore10Recurrence11deleteRRuleEPNS_14RecurrenceRuleE@Base 4:4.5.86
 _ZN8KCalCore10Recurrence11removeRRuleEPNS_14RecurrenceRuleE@Base 4:4.5.86
 _ZN8KCalCore10Recurrence11setDurationEi@Base 4:4.5.86
 _ZN8KCalCore10Recurrence11setMinutelyEi@Base 4:4.5.86
 _ZN8KCalCore10Recurrence11unsetRecursEv@Base 4:4.5.86
 _ZN8KCalCore10Recurrence12addRDateTimeERK9KDateTime@Base 4:4.5.86
 _ZN8KCalCore10Recurrence12addYearlyDayEi@Base 4:4.5.86
 _ZN8KCalCore10Recurrence12addYearlyPosEsRK9QBitArray@Base 4:4.5.86
 _ZN8KCalCore10Recurrence12deleteExRuleEPNS_14RecurrenceRuleE@Base 4:4.5.86
 _ZN8KCalCore10Recurrence12removeExRuleEPNS_14RecurrenceRuleE@Base 4:4.5.86
 _ZN8KCalCore10Recurrence12setFrequencyEi@Base 4:4.5.86
 _ZN8KCalCore10Recurrence13addExDateTimeERK9KDateTime@Base 4:4.5.86
 _ZN8KCalCore10Recurrence13addMonthlyPosEsRK9QBitArray@Base 4:4.5.86
 _ZN8KCalCore10Recurrence13addMonthlyPosEst@Base 4:4.5.86
 _ZN8KCalCore10Recurrence13addWeeklyDaysERK9QBitArray@Base 4:4.5.86
 _ZN8KCalCore10Recurrence13addYearlyDateEi@Base 4:4.5.86
 _ZN8KCalCore10Recurrence13setRDateTimesERKNS_12SortableListI9KDateTimeEE@Base 4:4.5.86
 _ZN8KCalCore10Recurrence14addMonthlyDateEs@Base 4:4.5.86
 _ZN8KCalCore10Recurrence14addYearlyMonthEs@Base 4:4.5.86
 _ZN8KCalCore10Recurrence14recurrenceTypeEPKNS_14RecurrenceRuleE@Base 4:4.5.86
 _ZN8KCalCore10Recurrence14removeObserverEPNS0_18RecurrenceObserverE@Base 4:4.5.86
 _ZN8KCalCore10Recurrence14setEndDateTimeERK9KDateTime@Base 4:4.5.86
 _ZN8KCalCore10Recurrence14setExDateTimesERKNS_12SortableListI9KDateTimeEE@Base 4:4.5.86
 _ZN8KCalCore10Recurrence16setRecurReadOnlyEb@Base 4:4.5.86
 _ZN8KCalCore10Recurrence16setStartDateTimeERK9KDateTime@Base 4:4.5.86
 _ZN8KCalCore10Recurrence17recurrenceChangedEPNS_14RecurrenceRuleE@Base 4:4.5.86
 _ZN8KCalCore10Recurrence18RecurrenceObserverD0Ev@Base 4:4.5.86
 _ZN8KCalCore10Recurrence18RecurrenceObserverD1Ev@Base 4:4.5.86
 _ZN8KCalCore10Recurrence18RecurrenceObserverD2Ev@Base 4:4.5.86
 _ZN8KCalCore10Recurrence20setNewRecurrenceTypeENS_14RecurrenceRule10PeriodTypeEi@Base 4:4.5.86
 _ZN8KCalCore10Recurrence5clearEv@Base 4:4.5.86
 _ZN8KCalCore10Recurrence7updatedEv@Base 4:4.5.86
 _ZN8KCalCore10Recurrence8addRDateERK5QDate@Base 4:4.5.86
 _ZN8KCalCore10Recurrence8addRRuleEPNS_14RecurrenceRuleE@Base 4:4.5.86
 _ZN8KCalCore10Recurrence8setDailyEi@Base 4:4.5.86
 _ZN8KCalCore10Recurrence9addExDateERK5QDate@Base 4:4.5.86
 _ZN8KCalCore10Recurrence9addExRuleEPNS_14RecurrenceRuleE@Base 4:4.5.86
 _ZN8KCalCore10Recurrence9setAllDayEb@Base 4:4.5.86
 _ZN8KCalCore10Recurrence9setHourlyEi@Base 4:4.5.86
 _ZN8KCalCore10Recurrence9setRDatesERKNS_12SortableListI5QDateEE@Base 4:4.5.86
 _ZN8KCalCore10Recurrence9setWeeklyEiRK9QBitArrayi@Base 4:4.5.86
 _ZN8KCalCore10Recurrence9setWeeklyEii@Base 4:4.5.86
 _ZN8KCalCore10Recurrence9setYearlyEi@Base 4:4.5.86
 _ZN8KCalCore10RecurrenceC1ERKS0_@Base 4:4.5.86
 _ZN8KCalCore10RecurrenceC1Ev@Base 4:4.5.86
 _ZN8KCalCore10RecurrenceC2ERKS0_@Base 4:4.5.86
 _ZN8KCalCore10RecurrenceC2Ev@Base 4:4.5.86
 _ZN8KCalCore10RecurrenceD0Ev@Base 4:4.5.86
 _ZN8KCalCore10RecurrenceD1Ev@Base 4:4.5.86
 _ZN8KCalCore10RecurrenceD2Ev@Base 4:4.5.86
 _ZN8KCalCore10RecurrenceaSERKS0_@Base 4:4.5.86
 _ZN8KCalCore10VCalFormat10ISOToQDateERK7QString@Base 4:4.5.86
 _ZN8KCalCore10VCalFormat10dayFromNumEi@Base 4:4.5.86
 _ZN8KCalCore10VCalFormat10fromStringERK14QSharedPointerINS_8CalendarEERK7QStringbS8_@Base 4:4.5.86
 _ZN8KCalCore10VCalFormat10numFromDayERK7QString@Base 4:4.5.86
 _ZN8KCalCore10VCalFormat10qDateToISOERK5QDate@Base 4:4.5.86
 _ZN8KCalCore10VCalFormat12VTodoToEventEP7VObject@Base 4:4.5.86
 _ZN8KCalCore10VCalFormat12eventToVTodoERK14QSharedPointerINS_4TodoEE@Base 4:4.5.86
 _ZN8KCalCore10VCalFormat12virtual_hookEiPv@Base 4:4.5.86
 _ZN8KCalCore10VCalFormat13VEventToEventEP7VObject@Base 4:4.5.86
 _ZN8KCalCore10VCalFormat13eventToVEventERK14QSharedPointerINS_5EventEE@Base 4:4.5.86
 _ZN8KCalCore10VCalFormat13fromRawStringERK14QSharedPointerINS_8CalendarEERK10QByteArraybRK7QString@Base 4:4.5.86
 _ZN8KCalCore10VCalFormat14ISOToKDateTimeERK7QString@Base 4:4.5.86
 _ZN8KCalCore10VCalFormat14kDateTimeToISOERK9KDateTimeb@Base 4:4.5.86
 _ZN8KCalCore10VCalFormat20parseTZOffsetISO8601ERK7QStringRi@Base 4:4.5.86
 _ZN8KCalCore10VCalFormat20readCustomPropertiesEP7VObjectRK14QSharedPointerINS_9IncidenceEE@Base 4:4.5.86
 _ZN8KCalCore10VCalFormat21writeCustomPropertiesEP7VObjectRK14QSharedPointerINS_9IncidenceEE@Base 4:4.5.86
 _ZN8KCalCore10VCalFormat4loadERK14QSharedPointerINS_8CalendarEERK7QString@Base 4:4.5.86
 _ZN8KCalCore10VCalFormat4saveERK14QSharedPointerINS_8CalendarEERK7QString@Base 4:4.5.86
 _ZN8KCalCore10VCalFormat7PrivateD1Ev@Base 4:4.7.4
 _ZN8KCalCore10VCalFormat7PrivateD2Ev@Base 4:4.7.4
 _ZN8KCalCore10VCalFormat8populateEP7VObjectbRK7QString@Base 4:4.5.86
 _ZN8KCalCore10VCalFormat8toStringERK14QSharedPointerINS_8CalendarEERK7QStringb@Base 4:4.5.86
 _ZN8KCalCore10VCalFormatC1Ev@Base 4:4.5.86
 _ZN8KCalCore10VCalFormatC2Ev@Base 4:4.5.86
 _ZN8KCalCore10VCalFormatD0Ev@Base 4:4.5.86
 _ZN8KCalCore10VCalFormatD1Ev@Base 4:4.5.86
 _ZN8KCalCore10VCalFormatD2Ev@Base 4:4.5.86
 _ZN8KCalCore11FileStorage11setFileNameERK7QString@Base 4:4.5.86
 _ZN8KCalCore11FileStorage13setSaveFormatEPNS_9CalFormatE@Base 4:4.5.86
 _ZN8KCalCore11FileStorage4loadEv@Base 4:4.5.86
 _ZN8KCalCore11FileStorage4openEv@Base 4:4.5.86
 _ZN8KCalCore11FileStorage4saveEv@Base 4:4.5.86
 _ZN8KCalCore11FileStorage5closeEv@Base 4:4.5.86
 _ZN8KCalCore11FileStorageC1ERK14QSharedPointerINS_8CalendarEERK7QStringPNS_9CalFormatE@Base 4:4.5.86
 _ZN8KCalCore11FileStorageC2ERK14QSharedPointerINS_8CalendarEERK7QStringPNS_9CalFormatE@Base 4:4.5.86
 _ZN8KCalCore11FileStorageD0Ev@Base 4:4.5.86
 _ZN8KCalCore11FileStorageD1Ev@Base 4:4.5.86
 _ZN8KCalCore11FileStorageD2Ev@Base 4:4.5.86
 _ZN8KCalCore12ICalTimeZone12virtual_hookEiPv@Base 4:4.5.86
 _ZN8KCalCore12ICalTimeZone3utcEv@Base 4:4.5.86
 _ZN8KCalCore12ICalTimeZone6updateERKS0_@Base 4:4.5.86
 _ZN8KCalCore12ICalTimeZoneC1EPNS_18ICalTimeZoneSourceERK7QStringPNS_16ICalTimeZoneDataE@Base 4:4.5.86
 _ZN8KCalCore12ICalTimeZoneC1ERK9KTimeZoneRK5QDate@Base 4:4.5.86
 _ZN8KCalCore12ICalTimeZoneC1Ev@Base 4:4.5.86
 _ZN8KCalCore12ICalTimeZoneC2EPNS_18ICalTimeZoneSourceERK7QStringPNS_16ICalTimeZoneDataE@Base 4:4.5.86
 _ZN8KCalCore12ICalTimeZoneC2ERK9KTimeZoneRK5QDate@Base 4:4.5.86
 _ZN8KCalCore12ICalTimeZoneC2Ev@Base 4:4.5.86
 _ZN8KCalCore12ICalTimeZoneD0Ev@Base 4:4.5.86
 _ZN8KCalCore12ICalTimeZoneD1Ev@Base 4:4.5.86
 _ZN8KCalCore12ICalTimeZoneD2Ev@Base 4:4.5.86
 _ZN8KCalCore13FreeBusyCache12virtual_hookEiPv@Base 4:4.5.86
 _ZN8KCalCore13FreeBusyCacheD0Ev@Base 4:4.5.86
 _ZN8KCalCore13FreeBusyCacheD1Ev@Base 4:4.5.86
 _ZN8KCalCore13FreeBusyCacheD2Ev@Base 4:4.5.86
 _ZN8KCalCore13ICalTimeZones3addERKNS_12ICalTimeZoneE@Base 4:4.5.86
 _ZN8KCalCore13ICalTimeZones5clearEv@Base 4:4.5.86
 _ZN8KCalCore13ICalTimeZones5countEv@Base 4:4.5.86
 _ZN8KCalCore13ICalTimeZones6removeERK7QString@Base 4:4.5.86
 _ZN8KCalCore13ICalTimeZones6removeERKNS_12ICalTimeZoneE@Base 4:4.5.86
 _ZN8KCalCore13ICalTimeZonesC1ERKS0_@Base 4:4.5.86
 _ZN8KCalCore13ICalTimeZonesC1Ev@Base 4:4.5.86
 _ZN8KCalCore13ICalTimeZonesC2ERKS0_@Base 4:4.5.86
 _ZN8KCalCore13ICalTimeZonesC2Ev@Base 4:4.5.86
 _ZN8KCalCore13ICalTimeZonesD1Ev@Base 4:4.5.86
 _ZN8KCalCore13ICalTimeZonesD2Ev@Base 4:4.5.86
 _ZN8KCalCore13ICalTimeZonesaSERKS0_@Base 4:4.5.86
 _ZN8KCalCore13IncidenceBase10addCommentERK7QString@Base 4:4.5.86
 _ZN8KCalCore13IncidenceBase10addContactERK7QString@Base 4:4.5.86
 _ZN8KCalCore13IncidenceBase10endUpdatesEv@Base 4:4.5.86
 _ZN8KCalCore13IncidenceBase10setDtStartERK9KDateTime@Base 4:4.5.86
 _ZN8KCalCore13IncidenceBase10shiftTimesERKN9KDateTime4SpecES4_@Base 4:4.5.86
 _ZN8KCalCore13IncidenceBase11addAttendeeERK14QSharedPointerINS_8AttendeeEEb@Base 4:4.5.86
 _ZN8KCalCore13IncidenceBase11setDurationERKNS_8DurationE@Base 4:4.5.86
 _ZN8KCalCore13IncidenceBase11setReadOnlyEb@Base 4:4.5.86
 _ZN8KCalCore13IncidenceBase12setOrganizerERK14QSharedPointerINS_6PersonEE@Base 4:4.5.86
 _ZN8KCalCore13IncidenceBase12setOrganizerERK7QString@Base 4:4.5.86
 _ZN8KCalCore13IncidenceBase12startUpdatesEv@Base 4:4.5.86
 _ZN8KCalCore13IncidenceBase13clearCommentsEv@Base 4:4.5.86
 _ZN8KCalCore13IncidenceBase13clearContactsEv@Base 4:4.5.86
 _ZN8KCalCore13IncidenceBase13removeCommentERK7QString@Base 4:4.5.86
 _ZN8KCalCore13IncidenceBase13removeContactERK7QString@Base 4:4.5.86
 _ZN8KCalCore13IncidenceBase13setFieldDirtyENS0_5FieldE@Base 4:4.5.86
 _ZN8KCalCore13IncidenceBase14clearAttendeesEv@Base 4:4.5.86
 _ZN8KCalCore13IncidenceBase14deleteAttendeeERK14QSharedPointerINS_8AttendeeEEb@Base 4:4.5.86
 _ZN8KCalCore13IncidenceBase14setDirtyFieldsERK4QSetINS0_5FieldEE@Base 4:4.8.1
 _ZN8KCalCore13IncidenceBase14setHasDurationEb@Base 4:4.5.86
 _ZN8KCalCore13IncidenceBase15setLastModifiedERK9KDateTime@Base 4:4.5.86
 _ZN8KCalCore13IncidenceBase16registerObserverEPNS0_17IncidenceObserverE@Base 4:4.5.86
 _ZN8KCalCore13IncidenceBase16resetDirtyFieldsEv@Base 4:4.5.86
 _ZN8KCalCore13IncidenceBase17IncidenceObserverD0Ev@Base 4:4.5.86
 _ZN8KCalCore13IncidenceBase17IncidenceObserverD1Ev@Base 4:4.5.86
 _ZN8KCalCore13IncidenceBase17IncidenceObserverD2Ev@Base 4:4.5.86
 _ZN8KCalCore13IncidenceBase18unRegisterObserverEPNS0_17IncidenceObserverE@Base 4:4.5.86
 _ZN8KCalCore13IncidenceBase20customPropertyUpdateEv@Base 4:4.5.86
 _ZN8KCalCore13IncidenceBase21customPropertyUpdatedEv@Base 4:4.5.86
 _ZN8KCalCore13IncidenceBase6acceptERNS_7VisitorE14QSharedPointerIS0_E@Base 4:4.5.86
 _ZN8KCalCore13IncidenceBase6assignERKS0_@Base 4:4.5.86
 _ZN8KCalCore13IncidenceBase6setUidERK7QString@Base 4:4.5.86
 _ZN8KCalCore13IncidenceBase6updateEv@Base 4:4.5.86
 _ZN8KCalCore13IncidenceBase7Private4initERKS1_@Base 4:4.5.86
 _ZN8KCalCore13IncidenceBase7updatedEv@Base 4:4.5.86
 _ZN8KCalCore13IncidenceBase9setAllDayEb@Base 4:4.5.86
 _ZN8KCalCore13IncidenceBaseC1ERKS0_@Base 4:4.5.86
 _ZN8KCalCore13IncidenceBaseC1Ev@Base 4:4.5.86
 _ZN8KCalCore13IncidenceBaseC2ERKS0_@Base 4:4.5.86
 _ZN8KCalCore13IncidenceBaseC2Ev@Base 4:4.5.86
 _ZN8KCalCore13IncidenceBaseD0Ev@Base 4:4.5.86
 _ZN8KCalCore13IncidenceBaseD1Ev@Base 4:4.5.86
 _ZN8KCalCore13IncidenceBaseD2Ev@Base 4:4.5.86
 _ZN8KCalCore13IncidenceBaseaSERKS0_@Base 4:4.5.86
 _ZN8KCalCore14FreeBusyPeriod10setSummaryERK7QString@Base 4:4.5.86
 _ZN8KCalCore14FreeBusyPeriod11setLocationERK7QString@Base 4:4.5.86
 _ZN8KCalCore14FreeBusyPeriodC1ERK9KDateTimeRKNS_8DurationE@Base 4:4.5.86
 _ZN8KCalCore14FreeBusyPeriodC1ERK9KDateTimeS3_@Base 4:4.5.86
 _ZN8KCalCore14FreeBusyPeriodC1ERKNS_6PeriodE@Base 4:4.5.86
 _ZN8KCalCore14FreeBusyPeriodC1ERKS0_@Base 4:4.5.86
 _ZN8KCalCore14FreeBusyPeriodC1Ev@Base 4:4.5.86
 _ZN8KCalCore14FreeBusyPeriodC2ERK9KDateTimeRKNS_8DurationE@Base 4:4.5.86
 _ZN8KCalCore14FreeBusyPeriodC2ERK9KDateTimeS3_@Base 4:4.5.86
 _ZN8KCalCore14FreeBusyPeriodC2ERKNS_6PeriodE@Base 4:4.5.86
 _ZN8KCalCore14FreeBusyPeriodC2ERKS0_@Base 4:4.5.86
 _ZN8KCalCore14FreeBusyPeriodC2Ev@Base 4:4.5.86
 _ZN8KCalCore14FreeBusyPeriodD1Ev@Base 4:4.5.86
 _ZN8KCalCore14FreeBusyPeriodD2Ev@Base 4:4.5.86
 _ZN8KCalCore14FreeBusyPeriodaSERKS0_@Base 4:4.5.86
 _ZN8KCalCore14MemoryCalendar10addJournalERK14QSharedPointerINS_7JournalEE@Base 4:4.5.86
 _ZN8KCalCore14MemoryCalendar10deleteTodoERK14QSharedPointerINS_4TodoEE@Base 4:4.5.86
 _ZN8KCalCore14MemoryCalendar11deleteEventERK14QSharedPointerINS_5EventEE@Base 4:4.5.86
 _ZN8KCalCore14MemoryCalendar12addIncidenceERK14QSharedPointerINS_9IncidenceEE@Base 4:4.5.86
 _ZN8KCalCore14MemoryCalendar12virtual_hookEiPv@Base 4:4.5.86
 _ZN8KCalCore14MemoryCalendar13deleteJournalERK14QSharedPointerINS_7JournalEE@Base 4:4.5.86
 _ZN8KCalCore14MemoryCalendar14deleteAllTodosEv@Base 4:4.5.86
 _ZN8KCalCore14MemoryCalendar15deleteAllEventsEv@Base 4:4.5.86
 _ZN8KCalCore14MemoryCalendar15deleteIncidenceERK14QSharedPointerINS_9IncidenceEE@Base 4:4.5.86
 _ZN8KCalCore14MemoryCalendar15incidenceUpdateERK7QStringRK9KDateTime@Base 4:4.5.86
 _ZN8KCalCore14MemoryCalendar16incidenceUpdatedERK7QStringRK9KDateTime@Base 4:4.5.86
 _ZN8KCalCore14MemoryCalendar17deleteAllJournalsEv@Base 4:4.5.86
 _ZN8KCalCore14MemoryCalendar19deleteTodoInstancesERK14QSharedPointerINS_4TodoEE@Base 4:4.5.86
 _ZN8KCalCore14MemoryCalendar20deleteEventInstancesERK14QSharedPointerINS_5EventEE@Base 4:4.5.86
 _ZN8KCalCore14MemoryCalendar22deleteJournalInstancesERK14QSharedPointerINS_7JournalEE@Base 4:4.5.86
 _ZN8KCalCore14MemoryCalendar24deleteIncidenceInstancesERK14QSharedPointerINS_9IncidenceEE@Base 4:4.5.86
 _ZN8KCalCore14MemoryCalendar5closeEv@Base 4:4.5.86
 _ZN8KCalCore14MemoryCalendar7Private15insertIncidenceE14QSharedPointerINS_9IncidenceEE@Base 4:4.5.86
 _ZN8KCalCore14MemoryCalendar7Private19deleteAllIncidencesENS_13IncidenceBase13IncidenceTypeE@Base 4:4.5.86
 _ZN8KCalCore14MemoryCalendar7addTodoERK14QSharedPointerINS_4TodoEE@Base 4:4.5.86
 _ZN8KCalCore14MemoryCalendar8addEventERK14QSharedPointerINS_5EventEE@Base 4:4.5.86
 _ZN8KCalCore14MemoryCalendarC1ERK7QString@Base 4:4.5.86
 _ZN8KCalCore14MemoryCalendarC1ERKN9KDateTime4SpecE@Base 4:4.5.86
 _ZN8KCalCore14MemoryCalendarC2ERK7QString@Base 4:4.5.86
 _ZN8KCalCore14MemoryCalendarC2ERKN9KDateTime4SpecE@Base 4:4.5.86
 _ZN8KCalCore14MemoryCalendarD0Ev@Base 4:4.5.86
 _ZN8KCalCore14MemoryCalendarD1Ev@Base 4:4.5.86
 _ZN8KCalCore14MemoryCalendarD2Ev@Base 4:4.5.86
 _ZN8KCalCore14RecurrenceRule10setByHoursERK5QListIiE@Base 4:4.5.86
 _ZN8KCalCore14RecurrenceRule10setStartDtERK9KDateTime@Base 4:4.5.86
 _ZN8KCalCore14RecurrenceRule10shiftTimesERKN9KDateTime4SpecES4_@Base 4:4.5.86
 _ZN8KCalCore14RecurrenceRule11addObserverEPNS0_12RuleObserverE@Base 4:4.5.86
 _ZN8KCalCore14RecurrenceRule11setByMonthsERK5QListIiE@Base 4:4.5.86
 _ZN8KCalCore14RecurrenceRule11setBySetPosERK5QListIiE@Base 4:4.5.86
 _ZN8KCalCore14RecurrenceRule11setDurationEi@Base 4:4.5.86
 _ZN8KCalCore14RecurrenceRule11setReadOnlyEb@Base 4:4.5.86
 _ZN8KCalCore14RecurrenceRule12RuleObserverD0Ev@Base 4:4.5.86
 _ZN8KCalCore14RecurrenceRule12RuleObserverD1Ev@Base 4:4.5.86
 _ZN8KCalCore14RecurrenceRule12RuleObserverD2Ev@Base 4:4.5.86
 _ZN8KCalCore14RecurrenceRule12setByMinutesERK5QListIiE@Base 4:4.5.86
 _ZN8KCalCore14RecurrenceRule12setBySecondsERK5QListIiE@Base 4:4.5.86
 _ZN8KCalCore14RecurrenceRule12setFrequencyEi@Base 4:4.5.86
 _ZN8KCalCore14RecurrenceRule12setWeekStartEs@Base 4:4.5.86
 _ZN8KCalCore14RecurrenceRule13setByYearDaysERK5QListIiE@Base 4:4.5.86
 _ZN8KCalCore14RecurrenceRule14removeObserverEPNS0_12RuleObserverE@Base 4:4.5.86
 _ZN8KCalCore14RecurrenceRule14setByMonthDaysERK5QListIiE@Base 4:4.5.86
 _ZN8KCalCore14RecurrenceRule16setByWeekNumbersERK5QListIiE@Base 4:4.5.86
 _ZN8KCalCore14RecurrenceRule17setRecurrenceTypeENS0_10PeriodTypeE@Base 4:4.5.86
 _ZN8KCalCore14RecurrenceRule5clearEv@Base 4:4.5.86
 _ZN8KCalCore14RecurrenceRule7Private16buildConstraintsEv@Base 4:4.5.86
 _ZN8KCalCore14RecurrenceRule7Private5clearEv@Base 4:4.5.86
 _ZN8KCalCore14RecurrenceRule7Private8setDirtyEv@Base 4:4.5.86
 _ZN8KCalCore14RecurrenceRule7PrivateC1EPS0_RKS1_@Base 4:4.5.86
 _ZN8KCalCore14RecurrenceRule7PrivateC2EPS0_RKS1_@Base 4:4.5.86
 _ZN8KCalCore14RecurrenceRule7PrivateaSERKS1_@Base 4:4.5.86
 _ZN8KCalCore14RecurrenceRule7WDayPos6setDayEs@Base 4:4.5.86
 _ZN8KCalCore14RecurrenceRule7WDayPos6setPosEi@Base 4:4.5.86
 _ZN8KCalCore14RecurrenceRule7WDayPosC1Eis@Base 4:4.5.86
 _ZN8KCalCore14RecurrenceRule7WDayPosC2Eis@Base 4:4.5.86
 _ZN8KCalCore14RecurrenceRule8setDirtyEv@Base 4:4.5.86
 _ZN8KCalCore14RecurrenceRule8setEndDtERK9KDateTime@Base 4:4.5.86
 _ZN8KCalCore14RecurrenceRule8setRRuleERK7QString@Base 4:4.5.86
 _ZN8KCalCore14RecurrenceRule9setAllDayEb@Base 4:4.5.86
 _ZN8KCalCore14RecurrenceRule9setByDaysERK5QListINS0_7WDayPosEE@Base 4:4.5.86
 _ZN8KCalCore14RecurrenceRuleC1ERKS0_@Base 4:4.5.86
 _ZN8KCalCore14RecurrenceRuleC1Ev@Base 4:4.5.86
 _ZN8KCalCore14RecurrenceRuleC2ERKS0_@Base 4:4.5.86
 _ZN8KCalCore14RecurrenceRuleC2Ev@Base 4:4.5.86
 _ZN8KCalCore14RecurrenceRuleD1Ev@Base 4:4.5.86
 _ZN8KCalCore14RecurrenceRuleD2Ev@Base 4:4.5.86
 _ZN8KCalCore14RecurrenceRuleaSERKS0_@Base 4:4.5.86
 _ZN8KCalCore15ScheduleMessage10methodNameENS_10iTIPMethodE@Base 4:4.5.86
 _ZN8KCalCore15ScheduleMessageC1E14QSharedPointerINS_13IncidenceBaseEENS_10iTIPMethodENS0_6StatusE@Base 4:4.5.86
 _ZN8KCalCore15ScheduleMessageC2E14QSharedPointerINS_13IncidenceBaseEENS_10iTIPMethodENS0_6StatusE@Base 4:4.5.86
 _ZN8KCalCore15ScheduleMessageD1Ev@Base 4:4.5.86
 _ZN8KCalCore15ScheduleMessageD2Ev@Base 4:4.5.86
 _ZN8KCalCore16CustomProperties12virtual_hookEiPv@Base 4:4.5.86
 _ZN8KCalCore16CustomProperties17setCustomPropertyERK10QByteArrayS3_RK7QString@Base 4:4.5.86
 _ZN8KCalCore16CustomProperties18customPropertyNameERK10QByteArrayS3_@Base 4:4.5.86
 _ZN8KCalCore16CustomProperties19setCustomPropertiesERK4QMapI10QByteArray7QStringE@Base 4:4.5.86
 _ZN8KCalCore16CustomProperties20customPropertyUpdateEv@Base 4:4.5.86
 _ZN8KCalCore16CustomProperties20removeCustomPropertyERK10QByteArrayS3_@Base 4:4.5.86
 _ZN8KCalCore16CustomProperties21customPropertyUpdatedEv@Base 4:4.5.86
 _ZN8KCalCore16CustomProperties23setNonKDECustomPropertyERK10QByteArrayRK7QStringS6_@Base 4:4.5.86
 _ZN8KCalCore16CustomProperties26removeNonKDECustomPropertyERK10QByteArray@Base 4:4.5.86
 _ZN8KCalCore16CustomPropertiesC1ERKS0_@Base 4:4.5.86
 _ZN8KCalCore16CustomPropertiesC1Ev@Base 4:4.5.86
 _ZN8KCalCore16CustomPropertiesC2ERKS0_@Base 4:4.5.86
 _ZN8KCalCore16CustomPropertiesC2Ev@Base 4:4.5.86
 _ZN8KCalCore16CustomPropertiesD0Ev@Base 4:4.5.86
 _ZN8KCalCore16CustomPropertiesD1Ev@Base 4:4.5.86
 _ZN8KCalCore16CustomPropertiesD2Ev@Base 4:4.5.86
 _ZN8KCalCore16CustomPropertiesaSERKS0_@Base 4:4.5.86
 _ZN8KCalCore16FreeBusyUrlStore4selfEv@Base 4:4.5.86
 _ZN8KCalCore16FreeBusyUrlStore4syncEv@Base 4:4.5.86
 _ZN8KCalCore16FreeBusyUrlStore7Private5sSelfE@Base 4:4.5.86
 _ZN8KCalCore16FreeBusyUrlStore7readUrlERK7QString@Base 4:4.5.86
 _ZN8KCalCore16FreeBusyUrlStore8writeUrlERK7QStringS3_@Base 4:4.5.86
 _ZN8KCalCore16FreeBusyUrlStoreC1Ev@Base 4:4.5.86
 _ZN8KCalCore16FreeBusyUrlStoreC2Ev@Base 4:4.5.86
 _ZN8KCalCore16FreeBusyUrlStoreD1Ev@Base 4:4.5.86
 _ZN8KCalCore16FreeBusyUrlStoreD2Ev@Base 4:4.5.86
 _ZN8KCalCore16ICalTimeZoneData12virtual_hookEiPv@Base 4:4.5.86
 _ZN8KCalCore16ICalTimeZoneDataC1ERK13KTimeZoneDataRK9KTimeZoneRK5QDate@Base 4:4.5.86
 _ZN8KCalCore16ICalTimeZoneDataC1ERKS0_@Base 4:4.5.86
 _ZN8KCalCore16ICalTimeZoneDataC1Ev@Base 4:4.5.86
 _ZN8KCalCore16ICalTimeZoneDataC2ERK13KTimeZoneDataRK9KTimeZoneRK5QDate@Base 4:4.5.86
 _ZN8KCalCore16ICalTimeZoneDataC2ERKS0_@Base 4:4.5.86
 _ZN8KCalCore16ICalTimeZoneDataC2Ev@Base 4:4.5.86
 _ZN8KCalCore16ICalTimeZoneDataD0Ev@Base 4:4.5.86
 _ZN8KCalCore16ICalTimeZoneDataD1Ev@Base 4:4.5.86
 _ZN8KCalCore16ICalTimeZoneDataD2Ev@Base 4:4.5.86
 _ZN8KCalCore16ICalTimeZoneDataaSERKS0_@Base 4:4.5.86
 _ZN8KCalCore18ICalTimeZoneSource12standardZoneERK7QStringb@Base 4:4.5.86
 _ZN8KCalCore18ICalTimeZoneSource12virtual_hookEiPv@Base 4:4.5.86
 _ZN8KCalCore18ICalTimeZoneSource14icalTzidPrefixEv@Base 4:4.5.86
 _ZN8KCalCore18ICalTimeZoneSource5parseEP13_icaltimezone@Base 4:4.5.86
 _ZN8KCalCore18ICalTimeZoneSource5parseEP18icalcomponent_impl@Base 4:4.5.86
 _ZN8KCalCore18ICalTimeZoneSource5parseEP18icalcomponent_implRNS_13ICalTimeZonesE@Base 4:4.5.86
 _ZN8KCalCore18ICalTimeZoneSource5parseEPNS_11_MSTimeZoneE@Base 4:4.6.1
 _ZN8KCalCore18ICalTimeZoneSource5parseEPNS_11_MSTimeZoneERNS_13ICalTimeZonesE@Base 4:4.6.1
 _ZN8KCalCore18ICalTimeZoneSource5parseERK7QStringRK11QStringList@Base 4:4.5.86
 _ZN8KCalCore18ICalTimeZoneSource5parseERK7QStringRK11QStringListRNS_13ICalTimeZonesE@Base 4:4.5.86
 _ZN8KCalCore18ICalTimeZoneSource5parseERK7QStringRNS_13ICalTimeZonesE@Base 4:4.5.86
 _ZN8KCalCore18ICalTimeZoneSourceC1Ev@Base 4:4.5.86
 _ZN8KCalCore18ICalTimeZoneSourceC2Ev@Base 4:4.5.86
 _ZN8KCalCore18ICalTimeZoneSourceD0Ev@Base 4:4.5.86
 _ZN8KCalCore18ICalTimeZoneSourceD1Ev@Base 4:4.5.86
 _ZN8KCalCore18ICalTimeZoneSourceD2Ev@Base 4:4.5.86
 _ZN8KCalCore19ICalTimeZoneBackend12virtual_hookEiPv@Base 4:4.5.86
 _ZN8KCalCore19ICalTimeZoneBackendC1EPNS_18ICalTimeZoneSourceERK7QStringS5_ffS5_@Base 4:4.5.86
 _ZN8KCalCore19ICalTimeZoneBackendC1ERK9KTimeZoneRK5QDate@Base 4:4.5.86
 _ZN8KCalCore19ICalTimeZoneBackendC1Ev@Base 4:4.5.86
 _ZN8KCalCore19ICalTimeZoneBackendC2EPNS_18ICalTimeZoneSourceERK7QStringS5_ffS5_@Base 4:4.5.86
 _ZN8KCalCore19ICalTimeZoneBackendC2ERK9KTimeZoneRK5QDate@Base 4:4.5.86
 _ZN8KCalCore19ICalTimeZoneBackendC2Ev@Base 4:4.5.86
 _ZN8KCalCore19ICalTimeZoneBackendD0Ev@Base 4:4.5.86
 _ZN8KCalCore19ICalTimeZoneBackendD1Ev@Base 4:4.5.86
 _ZN8KCalCore19ICalTimeZoneBackendD2Ev@Base 4:4.5.86
 _ZN8KCalCore4Todo10setDtStartERK9KDateTime@Base 4:4.5.86
 _ZN8KCalCore4Todo10shiftTimesERKN9KDateTime4SpecES4_@Base 4:4.5.86
 _ZN8KCalCore4Todo11setDateTimeERK9KDateTimeNS_13IncidenceBase12DateTimeRoleE@Base 4:4.5.86
 _ZN8KCalCore4Todo12setCompletedERK9KDateTime@Base 4:4.5.86
 _ZN8KCalCore4Todo12setCompletedEb@Base 4:4.5.86
 _ZN8KCalCore4Todo12todoMimeTypeEv@Base 4:4.5.86
 _ZN8KCalCore4Todo12virtual_hookEiPv@Base 4:4.5.86
 _ZN8KCalCore4Todo13setHasDueDateEb@Base 4:4.5.86
 _ZN8KCalCore4Todo15setDtRecurrenceERK9KDateTime@Base 4:4.5.86
 _ZN8KCalCore4Todo15setHasStartDateEb@Base 4:4.5.86
 _ZN8KCalCore4Todo18setPercentCompleteEi@Base 4:4.5.86
 _ZN8KCalCore4Todo6acceptERNS_7VisitorE14QSharedPointerINS_13IncidenceBaseEE@Base 4:4.5.86
 _ZN8KCalCore4Todo6assignERKNS_13IncidenceBaseE@Base 4:4.5.86
 _ZN8KCalCore4Todo7Private4initERKS1_@Base 4:4.5.86
 _ZN8KCalCore4Todo7Private9recurTodoEPS0_@Base 4:4.5.86
 _ZN8KCalCore4Todo8setDtDueERK9KDateTimeb@Base 4:4.5.86
 _ZN8KCalCore4Todo9setAllDayEb@Base 4:4.5.86
 _ZN8KCalCore4TodoC1ERKS0_@Base 4:4.5.86
 _ZN8KCalCore4TodoC1Ev@Base 4:4.5.86
 _ZN8KCalCore4TodoC2ERKS0_@Base 4:4.5.86
 _ZN8KCalCore4TodoC2Ev@Base 4:4.5.86
 _ZN8KCalCore4TodoD0Ev@Base 4:4.5.86
 _ZN8KCalCore4TodoD1Ev@Base 4:4.5.86
 _ZN8KCalCore4TodoD2Ev@Base 4:4.5.86
 _ZN8KCalCore5Alarm10setEnabledEb@Base 4:4.5.86
 _ZN8KCalCore5Alarm10shiftTimesERKN9KDateTime4SpecES4_@Base 4:4.5.86
 _ZN8KCalCore5Alarm11setMailTextERK7QString@Base 4:4.5.86
 _ZN8KCalCore5Alarm11toggleAlarmEv@Base 4:4.5.86
 _ZN8KCalCore5Alarm12setAudioFileERK7QString@Base 4:4.5.86
 _ZN8KCalCore5Alarm12setEndOffsetERKNS_8DurationE@Base 4:4.5.86
 _ZN8KCalCore5Alarm12virtual_hookEiPv@Base 4:4.5.86
 _ZN8KCalCore5Alarm13setAudioAlarmERK7QString@Base 4:4.5.86
 _ZN8KCalCore5Alarm13setEmailAlarmERK7QStringS3_RK7QVectorI14QSharedPointerINS_6PersonEEERK11QStringList@Base 4:4.5.86
 _ZN8KCalCore5Alarm13setSnoozeTimeERKNS_8DurationE@Base 4:4.5.86
 _ZN8KCalCore5Alarm14addMailAddressERK14QSharedPointerINS_6PersonEE@Base 4:4.5.86
 _ZN8KCalCore5Alarm14setMailAddressERK14QSharedPointerINS_6PersonEE@Base 4:4.5.86
 _ZN8KCalCore5Alarm14setMailSubjectERK7QString@Base 4:4.5.86
 _ZN8KCalCore5Alarm14setProgramFileERK7QString@Base 4:4.5.86
 _ZN8KCalCore5Alarm14setRepeatCountEi@Base 4:4.5.86
 _ZN8KCalCore5Alarm14setStartOffsetERKNS_8DurationE@Base 4:4.5.86
 _ZN8KCalCore5Alarm15setDisplayAlarmERK7QString@Base 4:4.5.86
 _ZN8KCalCore5Alarm16setMailAddressesERK7QVectorI14QSharedPointerINS_6PersonEEE@Base 4:4.5.86
 _ZN8KCalCore5Alarm17addMailAttachmentERK7QString@Base 4:4.5.86
 _ZN8KCalCore5Alarm17setLocationRadiusEi@Base 4:4.5.86
 _ZN8KCalCore5Alarm17setMailAttachmentERK7QString@Base 4:4.5.86
 _ZN8KCalCore5Alarm17setProcedureAlarmERK7QStringS3_@Base 4:4.5.86
 _ZN8KCalCore5Alarm18setMailAttachmentsERK11QStringList@Base 4:4.5.86
 _ZN8KCalCore5Alarm19setProgramArgumentsERK7QString@Base 4:4.5.86
 _ZN8KCalCore5Alarm20setHasLocationRadiusEb@Base 4:4.5.86
 _ZN8KCalCore5Alarm21customPropertyUpdatedEv@Base 4:4.5.86
 _ZN8KCalCore5Alarm7setTextERK7QString@Base 4:4.5.86
 _ZN8KCalCore5Alarm7setTimeERK9KDateTime@Base 4:4.5.86
 _ZN8KCalCore5Alarm7setTypeENS0_4TypeE@Base 4:4.5.86
 _ZN8KCalCore5Alarm9setParentEPNS_9IncidenceE@Base 4:4.5.86
 _ZN8KCalCore5AlarmC1EPNS_9IncidenceE@Base 4:4.5.86
 _ZN8KCalCore5AlarmC1ERKS0_@Base 4:4.5.86
 _ZN8KCalCore5AlarmC2EPNS_9IncidenceE@Base 4:4.5.86
 _ZN8KCalCore5AlarmC2ERKS0_@Base 4:4.5.86
 _ZN8KCalCore5AlarmD0Ev@Base 4:4.5.86
 _ZN8KCalCore5AlarmD1Ev@Base 4:4.5.86
 _ZN8KCalCore5AlarmD2Ev@Base 4:4.5.86
 _ZN8KCalCore5AlarmaSERKS0_@Base 4:4.5.86
 _ZN8KCalCore5Event10setDtStartERK9KDateTime@Base 4:4.5.86
 _ZN8KCalCore5Event10shiftTimesERKN9KDateTime4SpecES4_@Base 4:4.5.86
 _ZN8KCalCore5Event11setDateTimeERK9KDateTimeNS_13IncidenceBase12DateTimeRoleE@Base 4:4.5.86
 _ZN8KCalCore5Event11setDurationERKNS_8DurationE@Base 4:4.5.86
 _ZN8KCalCore5Event12virtual_hookEiPv@Base 4:4.5.86
 _ZN8KCalCore5Event13eventMimeTypeEv@Base 4:4.5.86
 _ZN8KCalCore5Event13setHasEndDateEb@Base 4:4.5.86
 _ZN8KCalCore5Event15setTransparencyENS0_12TransparencyE@Base 4:4.5.86
 _ZN8KCalCore5Event6acceptERNS_7VisitorE14QSharedPointerINS_13IncidenceBaseEE@Base 4:4.5.86
 _ZN8KCalCore5Event6assignERKNS_13IncidenceBaseE@Base 4:4.5.86
 _ZN8KCalCore5Event8setDtEndERK9KDateTime@Base 4:4.5.86
 _ZN8KCalCore5Event9setAllDayEb@Base 4:4.5.86
 _ZN8KCalCore5EventC1ERKS0_@Base 4:4.5.86
 _ZN8KCalCore5EventC1Ev@Base 4:4.5.86
 _ZN8KCalCore5EventC2ERKS0_@Base 4:4.5.86
 _ZN8KCalCore5EventC2Ev@Base 4:4.5.86
 _ZN8KCalCore5EventD0Ev@Base 4:4.5.86
 _ZN8KCalCore5EventD1Ev@Base 4:4.5.86
 _ZN8KCalCore5EventD2Ev@Base 4:4.5.86
 _ZN8KCalCore5Todos15createdLessThanERK14QSharedPointerINS_4TodoEES5_@Base 4:4.5.86
 _ZN8KCalCore5Todos15createdMoreThanERK14QSharedPointerINS_4TodoEES5_@Base 4:4.5.86
 _ZN8KCalCore5Todos15dueDateLessThanERK14QSharedPointerINS_4TodoEES5_@Base 4:4.5.86
 _ZN8KCalCore5Todos15dueDateMoreThanERK14QSharedPointerINS_4TodoEES5_@Base 4:4.5.86
 _ZN8KCalCore5Todos15percentLessThanERK14QSharedPointerINS_4TodoEES5_@Base 4:4.5.86
 _ZN8KCalCore5Todos15percentMoreThanERK14QSharedPointerINS_4TodoEES5_@Base 4:4.5.86
 _ZN8KCalCore5Todos15summaryLessThanERK14QSharedPointerINS_4TodoEES5_@Base 4:4.5.86
 _ZN8KCalCore5Todos15summaryMoreThanERK14QSharedPointerINS_4TodoEES5_@Base 4:4.5.86
 _ZN8KCalCore5Todos16priorityLessThanERK14QSharedPointerINS_4TodoEES5_@Base 4:4.5.86
 _ZN8KCalCore5Todos16priorityMoreThanERK14QSharedPointerINS_4TodoEES5_@Base 4:4.5.86
 _ZN8KCalCore5Todos17startDateLessThanERK14QSharedPointerINS_4TodoEES5_@Base 4:4.5.86
 _ZN8KCalCore5Todos17startDateMoreThanERK14QSharedPointerINS_4TodoEES5_@Base 4:4.5.86
 _ZN8KCalCore6Events15endDateLessThanERK14QSharedPointerINS_5EventEES5_@Base 4:4.5.86
 _ZN8KCalCore6Events15endDateMoreThanERK14QSharedPointerINS_5EventEES5_@Base 4:4.5.86
 _ZN8KCalCore6Events15summaryLessThanERK14QSharedPointerINS_5EventEES5_@Base 4:4.5.86
 _ZN8KCalCore6Events15summaryMoreThanERK14QSharedPointerINS_5EventEES5_@Base 4:4.5.86
 _ZN8KCalCore6Events17startDateLessThanERK14QSharedPointerINS_5EventEES5_@Base 4:4.5.86
 _ZN8KCalCore6Events17startDateMoreThanERK14QSharedPointerINS_5EventEES5_@Base 4:4.5.86
 _ZN8KCalCore6Period10shiftTimesERKN9KDateTime4SpecES4_@Base 4:4.5.86
 _ZN8KCalCore6PeriodC1ERK9KDateTimeRKNS_8DurationE@Base 4:4.5.86
 _ZN8KCalCore6PeriodC1ERK9KDateTimeS3_@Base 4:4.5.86
 _ZN8KCalCore6PeriodC1ERKS0_@Base 4:4.5.86
 _ZN8KCalCore6PeriodC1Ev@Base 4:4.5.86
 _ZN8KCalCore6PeriodC2ERK9KDateTimeRKNS_8DurationE@Base 4:4.5.86
 _ZN8KCalCore6PeriodC2ERK9KDateTimeS3_@Base 4:4.5.86
 _ZN8KCalCore6PeriodC2ERKS0_@Base 4:4.5.86
 _ZN8KCalCore6PeriodC2Ev@Base 4:4.5.86
 _ZN8KCalCore6PeriodD1Ev@Base 4:4.5.86
 _ZN8KCalCore6PeriodD2Ev@Base 4:4.5.86
 _ZN8KCalCore6PeriodaSERKS0_@Base 4:4.5.86
 _ZN8KCalCore6Person12fromFullNameERK7QString@Base 4:4.5.86
 _ZN8KCalCore6Person12isValidEmailERK7QString@Base 4:4.5.86
 _ZN8KCalCore6Person7setNameERK7QString@Base 4:4.5.86
 _ZN8KCalCore6Person8setCountEi@Base 4:4.5.86
 _ZN8KCalCore6Person8setEmailERK7QString@Base 4:4.5.86
 _ZN8KCalCore6PersonC1ERK7QStringS3_@Base 4:4.5.86
 _ZN8KCalCore6PersonC1ERKS0_@Base 4:4.5.86
 _ZN8KCalCore6PersonC1Ev@Base 4:4.5.86
 _ZN8KCalCore6PersonC2ERK7QStringS3_@Base 4:4.5.86
 _ZN8KCalCore6PersonC2ERKS0_@Base 4:4.5.86
 _ZN8KCalCore6PersonC2Ev@Base 4:4.5.86
 _ZN8KCalCore6PersonD0Ev@Base 4:4.5.86
 _ZN8KCalCore6PersonD1Ev@Base 4:4.5.86
 _ZN8KCalCore6PersonD2Ev@Base 4:4.5.86
 _ZN8KCalCore6PersonaSERKS0_@Base 4:4.5.86
 _ZN8KCalCore7Journal11setDateTimeERK9KDateTimeNS_13IncidenceBase12DateTimeRoleE@Base 4:4.5.86
 _ZN8KCalCore7Journal12virtual_hookEiPv@Base 4:4.5.86
 _ZN8KCalCore7Journal15journalMimeTypeEv@Base 4:4.5.86
 _ZN8KCalCore7Journal6acceptERNS_7VisitorE14QSharedPointerINS_13IncidenceBaseEE@Base 4:4.5.86
 _ZN8KCalCore7Journal6assignERKNS_13IncidenceBaseE@Base 4:4.5.86
 _ZN8KCalCore7JournalC1Ev@Base 4:4.5.86
 _ZN8KCalCore7JournalC2Ev@Base 4:4.5.86
 _ZN8KCalCore7JournalD0Ev@Base 4:4.5.86
 _ZN8KCalCore7JournalD1Ev@Base 4:4.5.86
 _ZN8KCalCore7JournalD2Ev@Base 4:4.5.86
 _ZN8KCalCore7Persons13countMoreThanERK14QSharedPointerINS_6PersonEES5_@Base 4:4.5.86
 _ZN8KCalCore7Visitor5visitE14QSharedPointerINS_4TodoEE@Base 4:4.5.86
 _ZN8KCalCore7Visitor5visitE14QSharedPointerINS_5EventEE@Base 4:4.5.86
 _ZN8KCalCore7Visitor5visitE14QSharedPointerINS_7JournalEE@Base 4:4.5.86
 _ZN8KCalCore7Visitor5visitE14QSharedPointerINS_8FreeBusyEE@Base 4:4.5.86
 _ZN8KCalCore7VisitorC1Ev@Base 4:4.5.86
 _ZN8KCalCore7VisitorC2Ev@Base 4:4.5.86
 _ZN8KCalCore7VisitorD0Ev@Base 4:4.5.86
 _ZN8KCalCore7VisitorD1Ev@Base 4:4.5.86
 _ZN8KCalCore7VisitorD2Ev@Base 4:4.5.86
 _ZN8KCalCore8Attendee11setDelegateERK7QString@Base 4:4.5.86
 _ZN8KCalCore8Attendee12setDelegatorERK7QString@Base 4:4.5.86
 _ZN8KCalCore8Attendee16customPropertiesEv@Base 4:4.5.86
 _ZN8KCalCore8Attendee17setCustomPropertyERK10QByteArrayRK7QString@Base 4:4.5.86
 _ZN8KCalCore8Attendee6setUidERK7QString@Base 4:4.5.86
 _ZN8KCalCore8Attendee7setRSVPEb@Base 4:4.5.86
 _ZN8KCalCore8Attendee7setRoleENS0_4RoleE@Base 4:4.5.86
 _ZN8KCalCore8Attendee9setStatusENS0_8PartStatE@Base 4:4.5.86
 _ZN8KCalCore8AttendeeC1ERK7QStringS3_bNS0_8PartStatENS0_4RoleES3_@Base 4:4.5.86
 _ZN8KCalCore8AttendeeC1ERKS0_@Base 4:4.5.86
 _ZN8KCalCore8AttendeeC2ERK7QStringS3_bNS0_8PartStatENS0_4RoleES3_@Base 4:4.5.86
 _ZN8KCalCore8AttendeeC2ERKS0_@Base 4:4.5.86
 _ZN8KCalCore8AttendeeD0Ev@Base 4:4.5.86
 _ZN8KCalCore8AttendeeD1Ev@Base 4:4.5.86
 _ZN8KCalCore8AttendeeD2Ev@Base 4:4.5.86
 _ZN8KCalCore8AttendeeaSERKS0_@Base 4:4.5.86
 _ZN8KCalCore8Calendar10duplicatesERK14QSharedPointerINS_9IncidenceEE@Base 4:4.5.86
 _ZN8KCalCore8Calendar10shiftTimesERKN9KDateTime4SpecES4_@Base 4:4.5.86
 _ZN8KCalCore8Calendar10sortEventsERK7QVectorI14QSharedPointerINS_5EventEEENS_14EventSortFieldENS_13SortDirectionE@Base 4:4.5.86
 _ZN8KCalCore8Calendar11addNotebookERK7QStringb@Base 4:4.5.86
 _ZN8KCalCore8Calendar11beginChangeERK14QSharedPointerINS_9IncidenceEE@Base 4:4.5.86
 _ZN8KCalCore8Calendar11qt_metacallEN11QMetaObject4CallEiPPv@Base 4:4.5.86
 _ZN8KCalCore8Calendar11qt_metacastEPKc@Base 4:4.5.86
 _ZN8KCalCore8Calendar11setModifiedEb@Base 4:4.5.86
 _ZN8KCalCore8Calendar11setNotebookERK14QSharedPointerINS_9IncidenceEERK7QString@Base 4:4.5.86
 _ZN8KCalCore8Calendar11setTimeSpecERKN9KDateTime4SpecE@Base 4:4.5.86
 _ZN8KCalCore8Calendar12addIncidenceERK14QSharedPointerINS_9IncidenceEE@Base 4:4.5.86
 _ZN8KCalCore8Calendar12setProductIdERK7QString@Base 4:4.5.86
 _ZN8KCalCore8Calendar12setTimeZonesEPNS_13ICalTimeZonesE@Base 4:4.5.86
 _ZN8KCalCore8Calendar12sortJournalsERK7QVectorI14QSharedPointerINS_7JournalEEENS_16JournalSortFieldENS_13SortDirectionE@Base 4:4.5.86
 _ZN8KCalCore8Calendar12virtual_hookEiPv@Base 4:4.5.86
 _ZN8KCalCore8Calendar13doSetTimeSpecERKN9KDateTime4SpecE@Base 4:4.5.86
 _ZN8KCalCore8Calendar13setTimeZoneIdERK7QString@Base 4:4.5.86
 _ZN8KCalCore8Calendar14deleteNotebookERK7QString@Base 4:4.5.86
 _ZN8KCalCore8Calendar14endBatchAddingEv@Base 4:4.5.86
 _ZN8KCalCore8Calendar14setupRelationsERK14QSharedPointerINS_9IncidenceEE@Base 4:4.5.86
 _ZN8KCalCore8Calendar14updateNotebookERK7QStringb@Base 4:4.5.86
 _ZN8KCalCore8Calendar15deleteIncidenceERK14QSharedPointerINS_9IncidenceEE@Base 4:4.5.86
 _ZN8KCalCore8Calendar15removeRelationsERK14QSharedPointerINS_9IncidenceEE@Base 4:4.5.86
 _ZN8KCalCore8Calendar16CalendarObserver16calendarModifiedEbPS0_@Base 4:4.5.86
 _ZN8KCalCore8Calendar16CalendarObserver22calendarIncidenceAddedERK14QSharedPointerINS_9IncidenceEE@Base 4:4.5.86
 _ZN8KCalCore8Calendar16CalendarObserver24calendarIncidenceChangedERK14QSharedPointerINS_9IncidenceEE@Base 4:4.5.86
 _ZN8KCalCore8Calendar16CalendarObserver24calendarIncidenceDeletedERK14QSharedPointerINS_9IncidenceEE@Base 4:4.5.86
 _ZN8KCalCore8Calendar16CalendarObserver33calendarIncidenceAdditionCanceledERK14QSharedPointerINS_9IncidenceEE@Base 4:4.5.86
 _ZN8KCalCore8Calendar16CalendarObserverD0Ev@Base 4:4.5.86
 _ZN8KCalCore8Calendar16CalendarObserverD1Ev@Base 4:4.5.86
 _ZN8KCalCore8Calendar16CalendarObserverD2Ev@Base 4:4.5.86
 _ZN8KCalCore8Calendar16incidenceUpdatedERK7QStringRK9KDateTime@Base 4:4.5.86
 _ZN8KCalCore8Calendar16registerObserverEPNS0_16CalendarObserverE@Base 4:4.5.86
 _ZN8KCalCore8Calendar16startBatchAddingEv@Base 4:4.5.86
 _ZN8KCalCore8Calendar16staticMetaObjectE@Base 4:4.5.86
 _ZN8KCalCore8Calendar18mergeIncidenceListERK7QVectorI14QSharedPointerINS_5EventEEERKS1_IS2_INS_4TodoEEERKS1_IS2_INS_7JournalEEE@Base 4:4.5.86
 _ZN8KCalCore8Calendar18setDefaultNotebookERK7QString@Base 4:4.5.86
 _ZN8KCalCore8Calendar18unregisterObserverEPNS0_16CalendarObserverE@Base 4:4.5.86
 _ZN8KCalCore8Calendar19setObserversEnabledEb@Base 4:4.5.86
 _ZN8KCalCore8Calendar20dissociateOccurrenceERK14QSharedPointerINS_9IncidenceEERK5QDateRKN9KDateTime4SpecEb@Base 4:4.5.86
 _ZN8KCalCore8Calendar20notifyIncidenceAddedERK14QSharedPointerINS_9IncidenceEE@Base 4:4.5.86
 _ZN8KCalCore8Calendar21customPropertyUpdatedEv@Base 4:4.5.86
 _ZN8KCalCore8Calendar22notifyIncidenceChangedERK14QSharedPointerINS_9IncidenceEE@Base 4:4.5.86
 _ZN8KCalCore8Calendar22notifyIncidenceDeletedERK14QSharedPointerINS_9IncidenceEE@Base 4:4.5.86
 _ZN8KCalCore8Calendar25clearNotebookAssociationsEv@Base 4:4.5.86
 _ZN8KCalCore8Calendar31notifyIncidenceAdditionCanceledERK14QSharedPointerINS_9IncidenceEE@Base 4:4.5.86
 _ZN8KCalCore8Calendar4saveEv@Base 4:4.5.86
 _ZN8KCalCore8Calendar6reloadEv@Base 4:4.5.86
 _ZN8KCalCore8Calendar7Private14timeZoneIdSpecERK7QStringb@Base 4:4.5.86
 _ZN8KCalCore8Calendar8setOwnerERK14QSharedPointerINS_6PersonEE@Base 4:4.5.86
 _ZN8KCalCore8Calendar9endChangeERK14QSharedPointerINS_9IncidenceEE@Base 4:4.5.86
 _ZN8KCalCore8Calendar9setFilterEPNS_9CalFilterE@Base 4:4.5.86
 _ZN8KCalCore8Calendar9sortTodosERK7QVectorI14QSharedPointerINS_4TodoEEENS_13TodoSortFieldENS_13SortDirectionE@Base 4:4.5.86
 _ZN8KCalCore8CalendarC1ERK7QString@Base 4:4.5.86
 _ZN8KCalCore8CalendarC1ERKN9KDateTime4SpecE@Base 4:4.5.86
 _ZN8KCalCore8CalendarC2ERK7QString@Base 4:4.5.86
 _ZN8KCalCore8CalendarC2ERKN9KDateTime4SpecE@Base 4:4.5.86
 _ZN8KCalCore8CalendarD0Ev@Base 4:4.5.86
 _ZN8KCalCore8CalendarD1Ev@Base 4:4.5.86
 _ZN8KCalCore8CalendarD2Ev@Base 4:4.5.86
 _ZN8KCalCore8DurationC1ERK9KDateTimeS3_@Base 4:4.5.86
 _ZN8KCalCore8DurationC1ERK9KDateTimeS3_NS0_4TypeE@Base 4:4.5.86
 _ZN8KCalCore8DurationC1ERKS0_@Base 4:4.5.86
 _ZN8KCalCore8DurationC1EiNS0_4TypeE@Base 4:4.5.86
 _ZN8KCalCore8DurationC1Ev@Base 4:4.5.86
 _ZN8KCalCore8DurationC2ERK9KDateTimeS3_@Base 4:4.5.86
 _ZN8KCalCore8DurationC2ERK9KDateTimeS3_NS0_4TypeE@Base 4:4.5.86
 _ZN8KCalCore8DurationC2ERKS0_@Base 4:4.5.86
 _ZN8KCalCore8DurationC2EiNS0_4TypeE@Base 4:4.5.86
 _ZN8KCalCore8DurationC2Ev@Base 4:4.5.86
 _ZN8KCalCore8DurationD1Ev@Base 4:4.5.86
 _ZN8KCalCore8DurationD2Ev@Base 4:4.5.86
 _ZN8KCalCore8DurationaSERKS0_@Base 4:4.5.86
 _ZN8KCalCore8DurationdVEi@Base 4:4.5.86
 _ZN8KCalCore8DurationmIERKS0_@Base 4:4.5.86
 _ZN8KCalCore8DurationmLEi@Base 4:4.5.86
 _ZN8KCalCore8DurationpLERKS0_@Base 4:4.5.86
 _ZN8KCalCore8FreeBusy10addPeriodsERK7QVectorINS_14FreeBusyPeriodEE@Base 4:4.5.86
 _ZN8KCalCore8FreeBusy10addPeriodsERK7QVectorINS_6PeriodEE@Base 4:4.5.86
 _ZN8KCalCore8FreeBusy10setDtStartERK9KDateTime@Base 4:4.5.86
 _ZN8KCalCore8FreeBusy10shiftTimesERKN9KDateTime4SpecES4_@Base 4:4.5.86
 _ZN8KCalCore8FreeBusy11setDateTimeERK9KDateTimeNS_13IncidenceBase12DateTimeRoleE@Base 4:4.5.86
 _ZN8KCalCore8FreeBusy12virtual_hookEiPv@Base 4:4.5.86
 _ZN8KCalCore8FreeBusy16freeBusyMimeTypeEv@Base 4:4.5.86
 _ZN8KCalCore8FreeBusy5mergeE14QSharedPointerIS0_E@Base 4:4.5.86
 _ZN8KCalCore8FreeBusy6acceptERNS_7VisitorE14QSharedPointerINS_13IncidenceBaseEE@Base 4:4.5.86
 _ZN8KCalCore8FreeBusy6assignERKNS_13IncidenceBaseE@Base 4:4.5.86
 _ZN8KCalCore8FreeBusy7Private14addLocalPeriodEPS0_RK9KDateTimeS5_@Base 4:4.5.86
 _ZN8KCalCore8FreeBusy7Private4initERK7QVectorI14QSharedPointerINS_5EventEEERK9KDateTimeSB_@Base 4:4.5.86
 _ZN8KCalCore8FreeBusy7Private4initERKS1_@Base 4:4.5.86
 _ZN8KCalCore8FreeBusy8setDtEndERK9KDateTime@Base 4:4.5.86
 _ZN8KCalCore8FreeBusy8sortListEv@Base 4:4.5.86
 _ZN8KCalCore8FreeBusy9addPeriodERK9KDateTimeRKNS_8DurationE@Base 4:4.5.86
 _ZN8KCalCore8FreeBusy9addPeriodERK9KDateTimeS3_@Base 4:4.5.86
 _ZN8KCalCore8FreeBusyC1ERK7QVectorI14QSharedPointerINS_5EventEEERK9KDateTimeSA_@Base 4:4.5.86
 _ZN8KCalCore8FreeBusyC1ERK7QVectorINS_14FreeBusyPeriodEE@Base 4:4.5.86
 _ZN8KCalCore8FreeBusyC1ERK7QVectorINS_6PeriodEE@Base 4:4.5.86
 _ZN8KCalCore8FreeBusyC1ERK9KDateTimeS3_@Base 4:4.5.86
 _ZN8KCalCore8FreeBusyC1ERKS0_@Base 4:4.5.86
 _ZN8KCalCore8FreeBusyC1Ev@Base 4:4.5.86
 _ZN8KCalCore8FreeBusyC2ERK7QVectorI14QSharedPointerINS_5EventEEERK9KDateTimeSA_@Base 4:4.5.86
 _ZN8KCalCore8FreeBusyC2ERK7QVectorINS_14FreeBusyPeriodEE@Base 4:4.5.86
 _ZN8KCalCore8FreeBusyC2ERK7QVectorINS_6PeriodEE@Base 4:4.5.86
 _ZN8KCalCore8FreeBusyC2ERK9KDateTimeS3_@Base 4:4.5.86
 _ZN8KCalCore8FreeBusyC2ERKS0_@Base 4:4.5.86
 _ZN8KCalCore8FreeBusyC2Ev@Base 4:4.5.86
 _ZN8KCalCore8FreeBusyD0Ev@Base 4:4.5.86
 _ZN8KCalCore8FreeBusyD1Ev@Base 4:4.5.86
 _ZN8KCalCore8FreeBusyD2Ev@Base 4:4.5.86
 _ZN8KCalCore8Journals12dateLessThanERK14QSharedPointerINS_7JournalEES5_@Base 4:4.5.86
 _ZN8KCalCore8Journals12dateMoreThanERK14QSharedPointerINS_7JournalEES5_@Base 4:4.5.86
 _ZN8KCalCore8Journals15summaryLessThanERK14QSharedPointerINS_7JournalEES5_@Base 4:4.5.86
 _ZN8KCalCore8Journals15summaryMoreThanERK14QSharedPointerINS_7JournalEES5_@Base 4:4.5.86
 _ZN8KCalCore9CalFilter10setEnabledEb@Base 4:4.5.86
 _ZN8KCalCore9CalFilter11setCriteriaEi@Base 4:4.5.86
 _ZN8KCalCore9CalFilter12setEmailListERK11QStringList@Base 4:4.5.86
 _ZN8KCalCore9CalFilter15setCategoryListERK11QStringList@Base 4:4.5.86
 _ZN8KCalCore9CalFilter20setCompletedTimeSpanEi@Base 4:4.5.86
 _ZN8KCalCore9CalFilter7setNameERK7QString@Base 4:4.5.86
 _ZN8KCalCore9CalFilterC1ERK7QString@Base 4:4.5.86
 _ZN8KCalCore9CalFilterC1Ev@Base 4:4.5.86
 _ZN8KCalCore9CalFilterC2ERK7QString@Base 4:4.5.86
 _ZN8KCalCore9CalFilterC2Ev@Base 4:4.5.86
 _ZN8KCalCore9CalFilterD1Ev@Base 4:4.5.86
 _ZN8KCalCore9CalFilterD2Ev@Base 4:4.5.86
 _ZN8KCalCore9CalFormat11applicationEv@Base 4:4.5.86
 _ZN8KCalCore9CalFormat12setExceptionEPNS_9ExceptionE@Base 4:4.5.86
 _ZN8KCalCore9CalFormat12virtual_hookEiPv@Base 4:4.5.86
 _ZN8KCalCore9CalFormat14clearExceptionEv@Base 4:4.5.86
 _ZN8KCalCore9CalFormat14createUniqueIdEv@Base 4:4.5.86
 _ZN8KCalCore9CalFormat14setApplicationERK7QStringS3_@Base 4:4.5.86
 _ZN8KCalCore9CalFormat15loadedProductIdEv@Base 4:4.5.86
 _ZN8KCalCore9CalFormat18setLoadedProductIdERK7QString@Base 4:4.5.86
 _ZN8KCalCore9CalFormat7Private10mProductIdE@Base 4:4.5.86
 _ZN8KCalCore9CalFormat7Private12mApplicationE@Base 4:4.5.86
 _ZN8KCalCore9CalFormat9productIdEv@Base 4:4.5.86
 _ZN8KCalCore9CalFormatC1Ev@Base 4:4.5.86
 _ZN8KCalCore9CalFormatC2Ev@Base 4:4.5.86
 _ZN8KCalCore9CalFormatD0Ev@Base 4:4.5.86
 _ZN8KCalCore9CalFormatD1Ev@Base 4:4.5.86
 _ZN8KCalCore9CalFormatD2Ev@Base 4:4.5.86
 _ZN8KCalCore9Incidence10setCreatedERK9KDateTime@Base 4:4.5.86
 _ZN8KCalCore9Incidence10setDtStartERK9KDateTime@Base 4:4.5.86
 _ZN8KCalCore9Incidence10setSecrecyENS0_7SecrecyE@Base 4:4.5.86
 _ZN8KCalCore9Incidence10setSummaryERK7QString@Base 4:4.5.86
 _ZN8KCalCore9Incidence10setSummaryERK7QStringb@Base 4:4.5.86
 _ZN8KCalCore9Incidence10shiftTimesERKN9KDateTime4SpecES4_@Base 4:4.5.86
 _ZN8KCalCore9Incidence11clearAlarmsEv@Base 4:4.5.86
 _ZN8KCalCore9Incidence11removeAlarmERK14QSharedPointerINS_5AlarmEE@Base 4:4.5.86
 _ZN8KCalCore9Incidence11setLocationERK7QString@Base 4:4.5.86
 _ZN8KCalCore9Incidence11setLocationERK7QStringb@Base 4:4.5.86
 _ZN8KCalCore9Incidence11setPriorityEi@Base 4:4.5.86
 _ZN8KCalCore9Incidence11setReadOnlyEb@Base 4:4.5.86
 _ZN8KCalCore9Incidence11setRevisionEi@Base 4:4.5.86
 _ZN8KCalCore9Incidence12setLocalOnlyEb@Base 4:4.5.86
 _ZN8KCalCore9Incidence12setRelatedToERK7QStringNS0_7RelTypeE@Base 4:4.5.86
 _ZN8KCalCore9Incidence12setResourcesERK11QStringList@Base 4:4.5.86
 _ZN8KCalCore9Incidence13addAttachmentERK14QSharedPointerINS_10AttachmentEE@Base 4:4.5.86
 _ZN8KCalCore9Incidence13setCategoriesERK11QStringList@Base 4:4.5.86
 _ZN8KCalCore9Incidence13setCategoriesERK7QString@Base 4:4.5.86
 _ZN8KCalCore9Incidence14clearTempFilesEv@Base 4:4.5.86
 _ZN8KCalCore9Incidence14setDescriptionERK7QString@Base 4:4.5.86
 _ZN8KCalCore9Incidence14setDescriptionERK7QStringb@Base 4:4.5.86
 _ZN8KCalCore9Incidence14setGeoLatitudeEf@Base 4:4.5.86
 _ZN8KCalCore9Incidence15clearRecurrenceEv@Base 4:4.5.86
 _ZN8KCalCore9Incidence15setCustomStatusERK7QString@Base 4:4.5.86
 _ZN8KCalCore9Incidence15setGeoLongitudeEf@Base 4:4.5.86
 _ZN8KCalCore9Incidence15setLastModifiedERK9KDateTime@Base 4:4.5.86
 _ZN8KCalCore9Incidence15setRecurrenceIdERK9KDateTime@Base 4:4.5.86
 _ZN8KCalCore9Incidence15setSchedulingIDERK7QStringS3_@Base 4:4.5.86
 _ZN8KCalCore9Incidence16clearAttachmentsEv@Base 4:4.5.86
 _ZN8KCalCore9Incidence16deleteAttachmentERK14QSharedPointerINS_10AttachmentEE@Base 4:4.5.86
 _ZN8KCalCore9Incidence17deleteAttachmentsERK7QString@Base 4:4.5.86
 _ZN8KCalCore9Incidence17recurrenceUpdatedEPNS_10RecurrenceE@Base 4:4.5.86
 _ZN8KCalCore9Incidence17setAltDescriptionERK7QString@Base 4:4.5.86
 _ZN8KCalCore9Incidence6assignERKNS_13IncidenceBaseE@Base 4:4.5.86
 _ZN8KCalCore9Incidence8addAlarmERK14QSharedPointerINS_5AlarmEE@Base 4:4.5.86
 _ZN8KCalCore9Incidence8newAlarmEv@Base 4:4.5.86
 _ZN8KCalCore9Incidence8recreateEv@Base 4:4.5.86
 _ZN8KCalCore9Incidence9setAllDayEb@Base 4:4.5.86
 _ZN8KCalCore9Incidence9setHasGeoEb@Base 4:4.5.86
 _ZN8KCalCore9Incidence9setStatusENS0_6StatusE@Base 4:4.5.86
 _ZN8KCalCore9IncidenceC1ERKS0_@Base 4:4.5.86
 _ZN8KCalCore9IncidenceC1Ev@Base 4:4.5.86
 _ZN8KCalCore9IncidenceC2ERKS0_@Base 4:4.5.86
 _ZN8KCalCore9IncidenceC2Ev@Base 4:4.5.86
 _ZN8KCalCore9IncidenceD0Ev@Base 4:4.5.86
 _ZN8KCalCore9IncidenceD1Ev@Base 4:4.5.86
 _ZN8KCalCore9IncidenceD2Ev@Base 4:4.5.86
 _ZN8KCalCorelsER11QDataStreamRK14QSharedPointerINS_6PersonEE@Base 4:4.5.86
 _ZN8KCalCorelsER11QDataStreamRK14QSharedPointerINS_8AttendeeEE@Base 4:4.5.86
 _ZN8KCalCorelsER11QDataStreamRK14QSharedPointerINS_8FreeBusyEE@Base 4:4.5.86
 _ZN8KCalCorelsER11QDataStreamRKNS_14FreeBusyPeriodE@Base 4:4.5.86
 _ZN8KCalCorelsER11QDataStreamRKNS_16CustomPropertiesE@Base 4:4.5.86
 _ZN8KCalCorelsER11QDataStreamRKNS_6PeriodE@Base 4:4.5.86
 _ZN8KCalCorersER11QDataStreamR14QSharedPointerINS_6PersonEE@Base 4:4.5.86
 _ZN8KCalCorersER11QDataStreamR14QSharedPointerINS_8AttendeeEE@Base 4:4.5.86
 _ZN8KCalCorersER11QDataStreamR14QSharedPointerINS_8FreeBusyEE@Base 4:4.5.86
 _ZN8KCalCorersER11QDataStreamRNS_14FreeBusyPeriodE@Base 4:4.5.86
 _ZN8KCalCorersER11QDataStreamRNS_16CustomPropertiesE@Base 4:4.5.86
 _ZN8KCalCorersER11QDataStreamRNS_6PeriodE@Base 4:4.5.86
 _ZNK8KCalCore10Attachment10showInlineEv@Base 4:4.5.86
 _ZNK8KCalCore10Attachment11decodedDataEv@Base 4:4.5.86
 _ZNK8KCalCore10Attachment3uriEv@Base 4:4.5.86
 _ZNK8KCalCore10Attachment4dataEv@Base 4:4.5.86
 _ZNK8KCalCore10Attachment4sizeEv@Base 4:4.5.86
 _ZNK8KCalCore10Attachment5isUriEv@Base 4:4.5.86
 _ZNK8KCalCore10Attachment5labelEv@Base 4:4.5.86
 _ZNK8KCalCore10Attachment7isLocalEv@Base 4:4.5.86
 _ZNK8KCalCore10Attachment8isBinaryEv@Base 4:4.5.86
 _ZNK8KCalCore10Attachment8mimeTypeEv@Base 4:4.5.86
 _ZNK8KCalCore10AttachmenteqERKS0_@Base 4:4.5.86
 _ZNK8KCalCore10AttachmentneERKS0_@Base 4:4.5.86
 _ZNK8KCalCore10CalStorage10metaObjectEv@Base 4:4.5.86
 _ZNK8KCalCore10CalStorage8calendarEv@Base 4:4.5.86
 _ZNK8KCalCore10ICalFormat10timeZoneIdEv@Base 4:4.5.86
 _ZNK8KCalCore10ICalFormat8timeSpecEv@Base 4:4.5.86
 _ZNK8KCalCore10Recurrence10durationToERK5QDate@Base 4:4.5.86
 _ZNK8KCalCore10Recurrence10durationToERK9KDateTime@Base 4:4.5.86
 _ZNK8KCalCore10Recurrence10rDateTimesEv@Base 4:4.5.86
 _ZNK8KCalCore10Recurrence10yearMonthsEv@Base 4:4.5.86
 _ZNK8KCalCore10Recurrence11endDateTimeEv@Base 4:4.5.86
 _ZNK8KCalCore10Recurrence11exDateTimesEv@Base 4:4.5.86
 _ZNK8KCalCore10Recurrence12defaultRRuleEb@Base 4:4.5.86
 _ZNK8KCalCore10Recurrence12recurTimesOnERK5QDateRKN9KDateTime4SpecE@Base 4:4.5.86
 _ZNK8KCalCore10Recurrence13recurReadOnlyEv@Base 4:4.5.86
 _ZNK8KCalCore10Recurrence13startDateTimeEv@Base 4:4.5.86
 _ZNK8KCalCore10Recurrence13yearPositionsEv@Base 4:4.5.86
 _ZNK8KCalCore10Recurrence14monthPositionsEv@Base 4:4.5.86
 _ZNK8KCalCore10Recurrence14recurrenceTypeEv@Base 4:4.5.86
 _ZNK8KCalCore10Recurrence15getNextDateTimeERK9KDateTime@Base 4:4.5.86
 _ZNK8KCalCore10Recurrence15timesInIntervalERK9KDateTimeS3_@Base 4:4.5.86
 _ZNK8KCalCore10Recurrence17defaultRRuleConstEv@Base 4:4.5.86
 _ZNK8KCalCore10Recurrence19getPreviousDateTimeERK9KDateTime@Base 4:4.5.86
 _ZNK8KCalCore10Recurrence4daysEv@Base 4:4.5.86
 _ZNK8KCalCore10Recurrence4dumpEv@Base 4:4.5.86
 _ZNK8KCalCore10Recurrence6allDayEv@Base 4:4.5.86
 _ZNK8KCalCore10Recurrence6rDatesEv@Base 4:4.5.86
 _ZNK8KCalCore10Recurrence6rRulesEv@Base 4:4.5.86
 _ZNK8KCalCore10Recurrence6recursEv@Base 4:4.5.86
 _ZNK8KCalCore10Recurrence7PrivateeqERKS1_@Base 4:4.5.86
 _ZNK8KCalCore10Recurrence7endDateEv@Base 4:4.5.86
 _ZNK8KCalCore10Recurrence7exDatesEv@Base 4:4.5.86
 _ZNK8KCalCore10Recurrence7exRulesEv@Base 4:4.5.86
 _ZNK8KCalCore10Recurrence8durationEv@Base 4:4.5.86
 _ZNK8KCalCore10Recurrence8recursAtERK9KDateTime@Base 4:4.5.86
 _ZNK8KCalCore10Recurrence8recursOnERK5QDateRKN9KDateTime4SpecE@Base 4:4.5.86
 _ZNK8KCalCore10Recurrence8yearDaysEv@Base 4:4.5.86
 _ZNK8KCalCore10Recurrence9frequencyEv@Base 4:4.5.86
 _ZNK8KCalCore10Recurrence9monthDaysEv@Base 4:4.5.86
 _ZNK8KCalCore10Recurrence9startDateEv@Base 4:4.5.86
 _ZNK8KCalCore10Recurrence9weekStartEv@Base 4:4.5.86
 _ZNK8KCalCore10Recurrence9yearDatesEv@Base 4:4.5.86
 _ZNK8KCalCore10RecurrenceeqERKS0_@Base 4:4.5.86
 _ZNK8KCalCore10VCalFormat10readStatusEPKc@Base 4:4.5.86
 _ZNK8KCalCore10VCalFormat11writeStatusENS_8Attendee8PartStatE@Base 4:4.5.86
 _ZNK8KCalCore10VCalFormat7parseTZERK10QByteArray@Base 4:4.5.86
 _ZNK8KCalCore10VCalFormat8parseDstER10QByteArray@Base 4:4.5.86
 _ZNK8KCalCore11FileStorage10saveFormatEv@Base 4:4.5.86
 _ZNK8KCalCore11FileStorage8fileNameEv@Base 4:4.5.86
 _ZNK8KCalCore12ICalTimeZone12icalTimezoneEv@Base 4:4.5.86
 _ZNK8KCalCore12ICalTimeZone12lastModifiedEv@Base 4:4.5.86
 _ZNK8KCalCore12ICalTimeZone3urlEv@Base 4:4.5.86
 _ZNK8KCalCore12ICalTimeZone4cityEv@Base 4:4.5.86
 _ZNK8KCalCore12ICalTimeZone9vtimezoneEv@Base 4:4.5.86
 _ZNK8KCalCore13ICalTimeZones4zoneERK7QString@Base 4:4.5.86
 _ZNK8KCalCore13ICalTimeZones4zoneERKNS_12ICalTimeZoneE@Base 4:4.5.86
 _ZNK8KCalCore13ICalTimeZones5zonesEv@Base 4:4.5.86
 _ZNK8KCalCore13IncidenceBase10isReadOnlyEv@Base 4:4.5.86
 _ZNK8KCalCore13IncidenceBase11dirtyFieldsEv@Base 4:4.5.86
 _ZNK8KCalCore13IncidenceBase11hasDurationEv@Base 4:4.5.86
 _ZNK8KCalCore13IncidenceBase12lastModifiedEv@Base 4:4.5.86
 _ZNK8KCalCore13IncidenceBase12recurrenceIdEv@Base 4:4.5.86
 _ZNK8KCalCore13IncidenceBase13attendeeByUidERK7QString@Base 4:4.5.86
 _ZNK8KCalCore13IncidenceBase13attendeeCountEv@Base 4:4.5.86
 _ZNK8KCalCore13IncidenceBase14attendeeByMailERK7QString@Base 4:4.5.86
 _ZNK8KCalCore13IncidenceBase15attendeeByMailsERK11QStringListRK7QString@Base 4:4.5.86
 _ZNK8KCalCore13IncidenceBase3uidEv@Base 4:4.5.86
 _ZNK8KCalCore13IncidenceBase3uriEv@Base 4:4.5.86
 _ZNK8KCalCore13IncidenceBase6allDayEv@Base 4:4.5.86
 _ZNK8KCalCore13IncidenceBase6equalsERKS0_@Base 4:4.5.86
 _ZNK8KCalCore13IncidenceBase7dtStartEv@Base 4:4.5.86
 _ZNK8KCalCore13IncidenceBase8commentsEv@Base 4:4.5.86
 _ZNK8KCalCore13IncidenceBase8contactsEv@Base 4:4.5.86
 _ZNK8KCalCore13IncidenceBase8durationEv@Base 4:4.5.86
 _ZNK8KCalCore13IncidenceBase9attendeesEv@Base 4:4.5.86
 _ZNK8KCalCore13IncidenceBase9organizerEv@Base 4:4.5.86
 _ZNK8KCalCore13IncidenceBaseeqERKS0_@Base 4:4.5.86
 _ZNK8KCalCore13IncidenceBaseneERKS0_@Base 4:4.5.86
 _ZNK8KCalCore14FreeBusyPeriod7summaryEv@Base 4:4.5.86
 _ZNK8KCalCore14FreeBusyPeriod8locationEv@Base 4:4.5.86
 _ZNK8KCalCore14MemoryCalendar11deletedTodoERK7QStringRK9KDateTime@Base 4:4.5.86
 _ZNK8KCalCore14MemoryCalendar11rawJournalsENS_16JournalSortFieldENS_13SortDirectionE@Base 4:4.5.86
 _ZNK8KCalCore14MemoryCalendar12deletedEventERK7QStringRK9KDateTime@Base 4:4.5.86
 _ZNK8KCalCore14MemoryCalendar12deletedTodosENS_13TodoSortFieldENS_13SortDirectionE@Base 4:4.5.86
 _ZNK8KCalCore14MemoryCalendar13deletedEventsENS_14EventSortFieldENS_13SortDirectionE@Base 4:4.5.86
 _ZNK8KCalCore14MemoryCalendar13todoInstancesERK14QSharedPointerINS_9IncidenceEENS_13TodoSortFieldENS_13SortDirectionE@Base 4:4.5.86
 _ZNK8KCalCore14MemoryCalendar14deletedJournalERK7QStringRK9KDateTime@Base 4:4.5.86
 _ZNK8KCalCore14MemoryCalendar14eventInstancesERK14QSharedPointerINS_9IncidenceEENS_14EventSortFieldENS_13SortDirectionE@Base 4:4.5.86
 _ZNK8KCalCore14MemoryCalendar15deletedJournalsENS_16JournalSortFieldENS_13SortDirectionE@Base 4:4.5.86
 _ZNK8KCalCore14MemoryCalendar15rawTodosForDateERK5QDate@Base 4:4.5.86
 _ZNK8KCalCore14MemoryCalendar16journalInstancesERK14QSharedPointerINS_9IncidenceEENS_16JournalSortFieldENS_13SortDirectionE@Base 4:4.5.86
 _ZNK8KCalCore14MemoryCalendar16rawEventsForDateERK5QDateRKN9KDateTime4SpecENS_14EventSortFieldENS_13SortDirectionE@Base 4:4.5.86
 _ZNK8KCalCore14MemoryCalendar16rawEventsForDateERK9KDateTime@Base 4:4.5.86
 _ZNK8KCalCore14MemoryCalendar18rawJournalsForDateERK5QDate@Base 4:4.5.86
 _ZNK8KCalCore14MemoryCalendar4todoERK7QStringRK9KDateTime@Base 4:4.5.86
 _ZNK8KCalCore14MemoryCalendar5eventERK7QStringRK9KDateTime@Base 4:4.5.86
 _ZNK8KCalCore14MemoryCalendar6alarmsERK9KDateTimeS3_@Base 4:4.5.86
 _ZNK8KCalCore14MemoryCalendar7Private16deletedIncidenceERK7QStringRK9KDateTimeNS_13IncidenceBase13IncidenceTypeE@Base 4:4.5.86
 _ZNK8KCalCore14MemoryCalendar7Private9incidenceERK7QStringNS_13IncidenceBase13IncidenceTypeERK9KDateTime@Base 4:4.5.86
 _ZNK8KCalCore14MemoryCalendar7journalERK7QStringRK9KDateTime@Base 4:4.5.86
 _ZNK8KCalCore14MemoryCalendar8alarmsToERK9KDateTime@Base 4:4.5.86
 _ZNK8KCalCore14MemoryCalendar8rawTodosENS_13TodoSortFieldENS_13SortDirectionE@Base 4:4.5.86
 _ZNK8KCalCore14MemoryCalendar8rawTodosERK5QDateS3_RKN9KDateTime4SpecEb@Base 4:4.5.86
 _ZNK8KCalCore14MemoryCalendar9rawEventsENS_14EventSortFieldENS_13SortDirectionE@Base 4:4.5.86
 _ZNK8KCalCore14MemoryCalendar9rawEventsERK5QDateS3_RKN9KDateTime4SpecEb@Base 4:4.5.86
 _ZNK8KCalCore14RecurrenceRule10byYearDaysEv@Base 4:4.5.86
 _ZNK8KCalCore14RecurrenceRule10durationToERK5QDate@Base 4:4.5.86
 _ZNK8KCalCore14RecurrenceRule10durationToERK9KDateTime@Base 4:4.5.86
 _ZNK8KCalCore14RecurrenceRule10isReadOnlyEv@Base 4:4.5.86
 _ZNK8KCalCore14RecurrenceRule11byMonthDaysEv@Base 4:4.5.86
 _ZNK8KCalCore14RecurrenceRule11getNextDateERK9KDateTime@Base 4:4.5.86
 _ZNK8KCalCore14RecurrenceRule12recurTimesOnERK5QDateRKN9KDateTime4SpecE@Base 4:4.5.86
 _ZNK8KCalCore14RecurrenceRule13byWeekNumbersEv@Base 4:4.5.86
 _ZNK8KCalCore14RecurrenceRule14recurrenceTypeEv@Base 4:4.5.86
 _ZNK8KCalCore14RecurrenceRule15getPreviousDateERK9KDateTime@Base 4:4.5.86
 _ZNK8KCalCore14RecurrenceRule15timesInIntervalERK9KDateTimeS3_@Base 4:4.5.86
 _ZNK8KCalCore14RecurrenceRule16dateMatchesRulesERK9KDateTime@Base 4:4.5.86
 _ZNK8KCalCore14RecurrenceRule4dumpEv@Base 4:4.5.86
 _ZNK8KCalCore14RecurrenceRule5endDtEPb@Base 4:4.5.86
 _ZNK8KCalCore14RecurrenceRule5rruleEv@Base 4:4.5.86
 _ZNK8KCalCore14RecurrenceRule6allDayEv@Base 4:4.5.86
 _ZNK8KCalCore14RecurrenceRule6byDaysEv@Base 4:4.5.86
 _ZNK8KCalCore14RecurrenceRule6recursEv@Base 4:4.5.86
 _ZNK8KCalCore14RecurrenceRule7Private10buildCacheEv@Base 4:4.5.86
 _ZNK8KCalCore14RecurrenceRule7Private16datesForIntervalERK10ConstraintNS0_10PeriodTypeE@Base 4:4.5.86
 _ZNK8KCalCore14RecurrenceRule7Private24getNextValidDateIntervalERK9KDateTimeNS0_10PeriodTypeE@Base 4:4.5.86
 _ZNK8KCalCore14RecurrenceRule7Private28getPreviousValidDateIntervalERK9KDateTimeNS0_10PeriodTypeE@Base 4:4.5.86
 _ZNK8KCalCore14RecurrenceRule7PrivateeqERKS1_@Base 4:4.5.86
 _ZNK8KCalCore14RecurrenceRule7WDayPos3dayEv@Base 4:4.5.86
 _ZNK8KCalCore14RecurrenceRule7WDayPos3posEv@Base 4:4.5.86
 _ZNK8KCalCore14RecurrenceRule7WDayPoseqERKS1_@Base 4:4.5.86
 _ZNK8KCalCore14RecurrenceRule7WDayPosneERKS1_@Base 4:4.5.86
 _ZNK8KCalCore14RecurrenceRule7byHoursEv@Base 4:4.5.86
 _ZNK8KCalCore14RecurrenceRule7startDtEv@Base 4:4.5.86
 _ZNK8KCalCore14RecurrenceRule8byMonthsEv@Base 4:4.5.86
 _ZNK8KCalCore14RecurrenceRule8bySetPosEv@Base 4:4.5.86
 _ZNK8KCalCore14RecurrenceRule8durationEv@Base 4:4.5.86
 _ZNK8KCalCore14RecurrenceRule8recursAtERK9KDateTime@Base 4:4.5.86
 _ZNK8KCalCore14RecurrenceRule8recursOnERK5QDateRKN9KDateTime4SpecE@Base 4:4.5.86
 _ZNK8KCalCore14RecurrenceRule9byMinutesEv@Base 4:4.5.86
 _ZNK8KCalCore14RecurrenceRule9bySecondsEv@Base 4:4.5.86
 _ZNK8KCalCore14RecurrenceRule9frequencyEv@Base 4:4.5.86
 _ZNK8KCalCore14RecurrenceRule9weekStartEv@Base 4:4.5.86
 _ZNK8KCalCore14RecurrenceRuleeqERKS0_@Base 4:4.5.86
 _ZNK8KCalCore15ScheduleMessage5errorEv@Base 4:4.5.86
 _ZNK8KCalCore15ScheduleMessage5eventEv@Base 4:4.5.86
 _ZNK8KCalCore15ScheduleMessage6methodEv@Base 4:4.5.86
 _ZNK8KCalCore15ScheduleMessage6statusEv@Base 4:4.5.86
 _ZNK8KCalCore16CustomProperties14customPropertyERK10QByteArrayS3_@Base 4:4.5.86
 _ZNK8KCalCore16CustomProperties16customPropertiesEv@Base 4:4.5.86
 _ZNK8KCalCore16CustomProperties20nonKDECustomPropertyERK10QByteArray@Base 4:4.5.86
 _ZNK8KCalCore16CustomProperties30nonKDECustomPropertyParametersERK10QByteArray@Base 4:4.5.86
 _ZNK8KCalCore16CustomProperties7PrivateeqERKS1_@Base 4:4.5.86
 _ZNK8KCalCore16CustomPropertieseqERKS0_@Base 4:4.5.86
 _ZNK8KCalCore16ICalTimeZoneData12icalTimezoneEv@Base 4:4.5.86
 _ZNK8KCalCore16ICalTimeZoneData12lastModifiedEv@Base 4:4.5.86
 _ZNK8KCalCore16ICalTimeZoneData14hasTransitionsEv@Base 4:4.5.86
 _ZNK8KCalCore16ICalTimeZoneData3urlEv@Base 4:4.5.86
 _ZNK8KCalCore16ICalTimeZoneData4cityEv@Base 4:4.5.86
 _ZNK8KCalCore16ICalTimeZoneData5cloneEv@Base 4:4.5.86
 _ZNK8KCalCore16ICalTimeZoneData9vtimezoneEv@Base 4:4.5.86
 _ZNK8KCalCore19ICalTimeZoneBackend14hasTransitionsEPK9KTimeZone@Base 4:4.5.86
 _ZNK8KCalCore19ICalTimeZoneBackend4typeEv@Base 4:4.5.86
 _ZNK8KCalCore19ICalTimeZoneBackend5cloneEv@Base 4:4.5.86
 _ZNK8KCalCore4Todo10hasDueDateEv@Base 4:4.5.86
 _ZNK8KCalCore4Todo11isCompletedEv@Base 4:4.5.86
 _ZNK8KCalCore4Todo11isOpenEndedEv@Base 4:4.5.86
 _ZNK8KCalCore4Todo12dtRecurrenceEv@Base 4:4.5.86
 _ZNK8KCalCore4Todo12hasStartDateEv@Base 4:4.5.86
 _ZNK8KCalCore4Todo12isInProgressEb@Base 4:4.5.86
 _ZNK8KCalCore4Todo12isNotStartedEb@Base 4:4.5.86
 _ZNK8KCalCore4Todo15percentCompleteEv@Base 4:4.5.86
 _ZNK8KCalCore4Todo16hasCompletedDateEv@Base 4:4.5.86
 _ZNK8KCalCore4Todo4typeEv@Base 4:4.5.86
 _ZNK8KCalCore4Todo5cloneEv@Base 4:4.5.86
 _ZNK8KCalCore4Todo5dtDueEb@Base 4:4.5.86
 _ZNK8KCalCore4Todo6equalsERKNS_13IncidenceBaseE@Base 4:4.5.86
 _ZNK8KCalCore4Todo7dtStartEb@Base 4:4.5.86
 _ZNK8KCalCore4Todo7dtStartEv@Base 4:4.5.86
 _ZNK8KCalCore4Todo7typeStrEv@Base 4:4.5.86
 _ZNK8KCalCore4Todo8dateTimeENS_13IncidenceBase12DateTimeRoleE@Base 4:4.5.86
 _ZNK8KCalCore4Todo8iconNameERK9KDateTime@Base 4:4.5.86
 _ZNK8KCalCore4Todo8mimeTypeEv@Base 4:4.5.86
 _ZNK8KCalCore4Todo8recursOnERK5QDateRKN9KDateTime4SpecE@Base 4:4.5.86
 _ZNK8KCalCore4Todo9completedEv@Base 4:4.5.86
 _ZNK8KCalCore4Todo9isOverdueEv@Base 4:4.5.86
 _ZNK8KCalCore5Alarm10snoozeTimeEv@Base 4:4.5.86
 _ZNK8KCalCore5Alarm11mailSubjectEv@Base 4:4.5.86
 _ZNK8KCalCore5Alarm11programFileEv@Base 4:4.5.86
 _ZNK8KCalCore5Alarm11repeatCountEv@Base 4:4.5.86
 _ZNK8KCalCore5Alarm11startOffsetEv@Base 4:4.5.86
 _ZNK8KCalCore5Alarm12hasEndOffsetEv@Base 4:4.5.86
 _ZNK8KCalCore5Alarm13mailAddressesEv@Base 4:4.5.86
 _ZNK8KCalCore5Alarm14hasStartOffsetEv@Base 4:4.5.86
 _ZNK8KCalCore5Alarm14locationRadiusEv@Base 4:4.5.86
 _ZNK8KCalCore5Alarm14nextRepetitionERK9KDateTime@Base 4:4.5.86
 _ZNK8KCalCore5Alarm15mailAttachmentsEv@Base 4:4.5.86
 _ZNK8KCalCore5Alarm16programArgumentsEv@Base 4:4.5.86
 _ZNK8KCalCore5Alarm17hasLocationRadiusEv@Base 4:4.5.86
 _ZNK8KCalCore5Alarm18previousRepetitionERK9KDateTime@Base 4:4.5.86
 _ZNK8KCalCore5Alarm4textEv@Base 4:4.5.86
 _ZNK8KCalCore5Alarm4timeEv@Base 4:4.5.86
 _ZNK8KCalCore5Alarm4typeEv@Base 4:4.5.86
 _ZNK8KCalCore5Alarm7enabledEv@Base 4:4.5.86
 _ZNK8KCalCore5Alarm7endTimeEv@Base 4:4.5.86
 _ZNK8KCalCore5Alarm7hasTimeEv@Base 4:4.5.86
 _ZNK8KCalCore5Alarm8durationEv@Base 4:4.5.86
 _ZNK8KCalCore5Alarm8mailTextEv@Base 4:4.5.86
 _ZNK8KCalCore5Alarm8nextTimeERK9KDateTimeb@Base 4:4.5.86
 _ZNK8KCalCore5Alarm9audioFileEv@Base 4:4.5.86
 _ZNK8KCalCore5Alarm9endOffsetEv@Base 4:4.5.86
 _ZNK8KCalCore5Alarm9parentUidEv@Base 4:4.5.86
 _ZNK8KCalCore5AlarmeqERKS0_@Base 4:4.5.86
 _ZNK8KCalCore5AlarmneERKS0_@Base 4:4.5.86
 _ZNK8KCalCore5Event10hasEndDateEv@Base 4:4.5.86
 _ZNK8KCalCore5Event10isMultiDayERKN9KDateTime4SpecE@Base 4:4.5.86
 _ZNK8KCalCore5Event12transparencyEv@Base 4:4.5.86
 _ZNK8KCalCore5Event4typeEv@Base 4:4.5.86
 _ZNK8KCalCore5Event5cloneEv@Base 4:4.5.86
 _ZNK8KCalCore5Event5dtEndEv@Base 4:4.5.86
 _ZNK8KCalCore5Event6equalsERKNS_13IncidenceBaseE@Base 4:4.5.86
 _ZNK8KCalCore5Event7dateEndEv@Base 4:4.5.86
 _ZNK8KCalCore5Event7typeStrEv@Base 4:4.5.86
 _ZNK8KCalCore5Event8dateTimeENS_13IncidenceBase12DateTimeRoleE@Base 4:4.5.86
 _ZNK8KCalCore5Event8iconNameERK9KDateTime@Base 4:4.5.86
 _ZNK8KCalCore5Event8mimeTypeEv@Base 4:4.5.86
 _ZNK8KCalCore6Period11hasDurationEv@Base 4:4.5.86
 _ZNK8KCalCore6Period3endEv@Base 4:4.5.86
 _ZNK8KCalCore6Period5startEv@Base 4:4.5.86
 _ZNK8KCalCore6Period8durationENS_8Duration4TypeE@Base 4:4.5.86
 _ZNK8KCalCore6Period8durationEv@Base 4:4.5.86
 _ZNK8KCalCore6PeriodeqERKS0_@Base 4:4.5.86
 _ZNK8KCalCore6PeriodltERKS0_@Base 4:4.5.86
 _ZNK8KCalCore6Person4nameEv@Base 4:4.5.86
 _ZNK8KCalCore6Person5countEv@Base 4:4.5.86
 _ZNK8KCalCore6Person5emailEv@Base 4:4.5.86
 _ZNK8KCalCore6Person7isEmptyEv@Base 4:4.5.86
 _ZNK8KCalCore6Person8fullNameEv@Base 4:4.5.86
 _ZNK8KCalCore6PersoneqERKS0_@Base 4:4.5.86
 _ZNK8KCalCore6PersonneERKS0_@Base 4:4.5.86
 _ZNK8KCalCore7Journal4typeEv@Base 4:4.5.86
 _ZNK8KCalCore7Journal5cloneEv@Base 4:4.5.86
 _ZNK8KCalCore7Journal6equalsERKNS_13IncidenceBaseE@Base 4:4.5.86
 _ZNK8KCalCore7Journal7typeStrEv@Base 4:4.5.86
 _ZNK8KCalCore7Journal8dateTimeENS_13IncidenceBase12DateTimeRoleE@Base 4:4.5.86
 _ZNK8KCalCore7Journal8iconNameERK9KDateTime@Base 4:4.5.86
 _ZNK8KCalCore7Journal8mimeTypeEv@Base 4:4.5.86
 _ZNK8KCalCore8Attendee16customPropertiesEv@Base 4:4.5.86
 _ZNK8KCalCore8Attendee3uidEv@Base 4:4.5.86
 _ZNK8KCalCore8Attendee4RSVPEv@Base 4:4.5.86
 _ZNK8KCalCore8Attendee4roleEv@Base 4:4.5.86
 _ZNK8KCalCore8Attendee6statusEv@Base 4:4.5.86
 _ZNK8KCalCore8Attendee8delegateEv@Base 4:4.5.86
 _ZNK8KCalCore8Attendee9delegatorEv@Base 4:4.5.86
 _ZNK8KCalCore8AttendeeeqERKS0_@Base 4:4.5.86
 _ZNK8KCalCore8AttendeeneERKS0_@Base 4:4.5.86
 _ZNK8KCalCore8Calendar10categoriesEv@Base 4:4.5.86
 _ZNK8KCalCore8Calendar10incidencesERK5QDate@Base 4:4.5.86
 _ZNK8KCalCore8Calendar10incidencesERK7QString@Base 4:4.5.86
 _ZNK8KCalCore8Calendar10incidencesEv@Base 4:4.5.86
 _ZNK8KCalCore8Calendar10isModifiedEv@Base 4:4.5.86
 _ZNK8KCalCore8Calendar10metaObjectEv@Base 4:4.5.86
 _ZNK8KCalCore8Calendar10timeZoneIdEv@Base 4:4.5.86
 _ZNK8KCalCore8Calendar11batchAddingEv@Base 4:4.5.86
 _ZNK8KCalCore8Calendar12appendAlarmsER7QVectorI14QSharedPointerINS_5AlarmEEERKS2_INS_9IncidenceEERK9KDateTimeSD_@Base 4:4.5.86
 _ZNK8KCalCore8Calendar12isAncestorOfERK14QSharedPointerINS_9IncidenceEES5_@Base 4:4.5.86
 _ZNK8KCalCore8Calendar12viewTimeSpecEv@Base 4:4.5.86
 _ZNK8KCalCore8Calendar13rawIncidencesEv@Base 4:4.5.86
 _ZNK8KCalCore8Calendar14viewTimeZoneIdEv@Base 4:4.5.86
 _ZNK8KCalCore8Calendar15defaultNotebookEv@Base 4:4.5.86
 _ZNK8KCalCore8Calendar15setViewTimeSpecERKN9KDateTime4SpecE@Base 4:4.5.86
 _ZNK8KCalCore8Calendar16hasValidNotebookERK7QString@Base 4:4.5.86
 _ZNK8KCalCore8Calendar17setViewTimeZoneIdERK7QString@Base 4:4.5.86
 _ZNK8KCalCore8Calendar21appendRecurringAlarmsER7QVectorI14QSharedPointerINS_5AlarmEEERKS2_INS_9IncidenceEERK9KDateTimeSD_@Base 4:4.5.86
 _ZNK8KCalCore8Calendar25incidenceFromSchedulingIDERK7QString@Base 4:4.5.86
 _ZNK8KCalCore8Calendar26incidencesFromSchedulingIDERK7QString@Base 4:4.5.86
 _ZNK8KCalCore8Calendar5ownerEv@Base 4:4.5.86
 _ZNK8KCalCore8Calendar5todosENS_13TodoSortFieldENS_13SortDirectionE@Base 4:4.5.86
 _ZNK8KCalCore8Calendar5todosERK5QDate@Base 4:4.5.86
 _ZNK8KCalCore8Calendar5todosERK5QDateS3_RKN9KDateTime4SpecEb@Base 4:4.5.86
 _ZNK8KCalCore8Calendar6eventsENS_14EventSortFieldENS_13SortDirectionE@Base 4:4.5.86
 _ZNK8KCalCore8Calendar6eventsERK5QDateRKN9KDateTime4SpecENS_14EventSortFieldENS_13SortDirectionE@Base 4:4.5.86
 _ZNK8KCalCore8Calendar6eventsERK5QDateS3_RKN9KDateTime4SpecEb@Base 4:4.5.86
 _ZNK8KCalCore8Calendar6eventsERK9KDateTime@Base 4:4.5.86
 _ZNK8KCalCore8Calendar6filterEv@Base 4:4.5.86
 _ZNK8KCalCore8Calendar7deletedERK7QStringRK9KDateTime@Base 4:4.5.86
 _ZNK8KCalCore8Calendar8isSavingEv@Base 4:4.5.86
 _ZNK8KCalCore8Calendar8journalsENS_16JournalSortFieldENS_13SortDirectionE@Base 4:4.5.86
 _ZNK8KCalCore8Calendar8journalsERK5QDate@Base 4:4.5.86
 _ZNK8KCalCore8Calendar8notebookERK14QSharedPointerINS_9IncidenceEE@Base 4:4.5.86
 _ZNK8KCalCore8Calendar8notebookERK7QString@Base 4:4.5.86
 _ZNK8KCalCore8Calendar8timeSpecEv@Base 4:4.5.86
 _ZNK8KCalCore8Calendar9incidenceERK7QStringRK9KDateTime@Base 4:4.5.86
 _ZNK8KCalCore8Calendar9instancesERK14QSharedPointerINS_9IncidenceEE@Base 4:4.5.86
 _ZNK8KCalCore8Calendar9isVisibleERK14QSharedPointerINS_9IncidenceEE@Base 4:4.5.86
 _ZNK8KCalCore8Calendar9notebooksEv@Base 4:4.5.86
 _ZNK8KCalCore8Calendar9productIdEv@Base 4:4.5.86
 _ZNK8KCalCore8Calendar9relationsERK7QString@Base 4:4.5.86
 _ZNK8KCalCore8Calendar9timeZonesEv@Base 4:4.5.86
 _ZNK8KCalCore8Duration3endERK9KDateTime@Base 4:4.5.86
 _ZNK8KCalCore8Duration4typeEv@Base 4:4.5.86
 _ZNK8KCalCore8Duration5valueEv@Base 4:4.5.86
 _ZNK8KCalCore8Duration6asDaysEv@Base 4:4.5.86
 _ZNK8KCalCore8Duration7isDailyEv@Base 4:4.5.86
 _ZNK8KCalCore8Duration9asSecondsEv@Base 4:4.5.86
 _ZNK8KCalCore8DurationcvbEv@Base 4:4.5.86
 _ZNK8KCalCore8DurationeqERKS0_@Base 4:4.5.86
 _ZNK8KCalCore8DurationltERKS0_@Base 4:4.5.86
 _ZNK8KCalCore8DurationngEv@Base 4:4.5.86
 _ZNK8KCalCore8FreeBusy11busyPeriodsEv@Base 4:4.5.86
 _ZNK8KCalCore8FreeBusy15fullBusyPeriodsEv@Base 4:4.5.86
 _ZNK8KCalCore8FreeBusy4typeEv@Base 4:4.5.86
 _ZNK8KCalCore8FreeBusy5dtEndEv@Base 4:4.5.86
 _ZNK8KCalCore8FreeBusy6equalsERKNS_13IncidenceBaseE@Base 4:4.5.86
 _ZNK8KCalCore8FreeBusy7typeStrEv@Base 4:4.5.86
 _ZNK8KCalCore8FreeBusy8dateTimeENS_13IncidenceBase12DateTimeRoleE@Base 4:4.5.86
 _ZNK8KCalCore8FreeBusy8mimeTypeEv@Base 4:4.5.86
 _ZNK8KCalCore9CalFilter12categoryListEv@Base 4:4.5.86
 _ZNK8KCalCore9CalFilter15filterIncidenceE14QSharedPointerINS_9IncidenceEE@Base 4:4.5.86
 _ZNK8KCalCore9CalFilter17completedTimeSpanEv@Base 4:4.5.86
 _ZNK8KCalCore9CalFilter4nameEv@Base 4:4.5.86
 _ZNK8KCalCore9CalFilter5applyEP7QVectorI14QSharedPointerINS_4TodoEEE@Base 4:4.5.86
 _ZNK8KCalCore9CalFilter5applyEP7QVectorI14QSharedPointerINS_5EventEEE@Base 4:4.5.86
 _ZNK8KCalCore9CalFilter5applyEP7QVectorI14QSharedPointerINS_7JournalEEE@Base 4:4.5.86
 _ZNK8KCalCore9CalFilter8criteriaEv@Base 4:4.5.86
 _ZNK8KCalCore9CalFilter9emailListEv@Base 4:4.5.86
 _ZNK8KCalCore9CalFilter9isEnabledEv@Base 4:4.5.86
 _ZNK8KCalCore9CalFiltereqERKS0_@Base 4:4.5.86
 _ZNK8KCalCore9CalFormat9exceptionEv@Base 4:4.5.86
 _ZNK8KCalCore9Incidence10categoriesEv@Base 4:4.5.86
 _ZNK8KCalCore9Incidence10recurrenceEv@Base 4:4.5.86
 _ZNK8KCalCore9Incidence11attachmentsERK7QString@Base 4:4.5.86
 _ZNK8KCalCore9Incidence11attachmentsEv@Base 4:4.5.86
 _ZNK8KCalCore9Incidence11descriptionEv@Base 4:4.5.86
 _ZNK8KCalCore9Incidence11geoLatitudeEv@Base 4:4.5.86
 _ZNK8KCalCore9Incidence11richSummaryEv@Base 4:4.5.86
 _ZNK8KCalCore9Incidence12customStatusEv@Base 4:4.5.86
 _ZNK8KCalCore9Incidence12geoLongitudeEv@Base 4:4.5.86
 _ZNK8KCalCore9Incidence12recurrenceIdEv@Base 4:4.5.86
 _ZNK8KCalCore9Incidence12richLocationEv@Base 4:4.5.86
 _ZNK8KCalCore9Incidence12schedulingIDEv@Base 4:4.5.86
 _ZNK8KCalCore9Incidence13categoriesStrEv@Base 4:4.5.86
 _ZNK8KCalCore9Incidence13summaryIsRichEv@Base 4:4.5.86
 _ZNK8KCalCore9Incidence14altDescriptionEv@Base 4:4.5.86
 _ZNK8KCalCore9Incidence14locationIsRichEv@Base 4:4.5.86
 _ZNK8KCalCore9Incidence14recurrenceTypeEv@Base 4:4.5.86
 _ZNK8KCalCore9Incidence15endDateForStartERK9KDateTime@Base 4:4.5.86
 _ZNK8KCalCore9Incidence15hasRecurrenceIdEv@Base 4:4.5.86
 _ZNK8KCalCore9Incidence15richDescriptionEv@Base 4:4.5.86
 _ZNK8KCalCore9Incidence16hasEnabledAlarmsEv@Base 4:4.5.86
 _ZNK8KCalCore9Incidence17descriptionIsRichEv@Base 4:4.5.86
 _ZNK8KCalCore9Incidence17hasAltDescriptionEv@Base 4:4.5.86
 _ZNK8KCalCore9Incidence21startDateTimesForDateERK5QDateRKN9KDateTime4SpecE@Base 4:4.5.86
 _ZNK8KCalCore9Incidence25startDateTimesForDateTimeERK9KDateTime@Base 4:4.5.86
 _ZNK8KCalCore9Incidence25writeAttachmentToTempFileERK14QSharedPointerINS_10AttachmentEE@Base 4:4.5.86
 _ZNK8KCalCore9Incidence30supportsGroupwareCommunicationEv@Base 4:4.10.1
 _ZNK8KCalCore9Incidence6alarmsEv@Base 4:4.5.86
 _ZNK8KCalCore9Incidence6equalsERKNS_13IncidenceBaseE@Base 4:4.5.86
 _ZNK8KCalCore9Incidence6hasGeoEv@Base 4:4.5.86
 _ZNK8KCalCore9Incidence6recursEv@Base 4:4.5.86
 _ZNK8KCalCore9Incidence6statusEv@Base 4:4.5.86
 _ZNK8KCalCore9Incidence7createdEv@Base 4:4.5.86
 _ZNK8KCalCore9Incidence7secrecyEv@Base 4:4.5.86
 _ZNK8KCalCore9Incidence7summaryEv@Base 4:4.5.86
 _ZNK8KCalCore9Incidence8locationEv@Base 4:4.5.86
 _ZNK8KCalCore9Incidence8priorityEv@Base 4:4.5.86
 _ZNK8KCalCore9Incidence8recursAtERK9KDateTime@Base 4:4.5.86
 _ZNK8KCalCore9Incidence8recursOnERK5QDateRKN9KDateTime4SpecE@Base 4:4.5.86
 _ZNK8KCalCore9Incidence8revisionEv@Base 4:4.5.86
 _ZNK8KCalCore9Incidence9localOnlyEv@Base 4:4.5.86
 _ZNK8KCalCore9Incidence9relatedToENS0_7RelTypeE@Base 4:4.5.86
 _ZNK8KCalCore9Incidence9resourcesEv@Base 4:4.5.86
 _ZTIN8KCalCore10CalStorageE@Base 4:4.5.86
 _ZTIN8KCalCore10ICalFormatE@Base 4:4.5.86
 _ZTIN8KCalCore10Recurrence18RecurrenceObserverE@Base 4:4.5.86
 _ZTIN8KCalCore10RecurrenceE@Base 4:4.5.86
 _ZTIN8KCalCore10VCalFormatE@Base 4:4.5.86
 _ZTIN8KCalCore11FileStorageE@Base 4:4.5.86
 _ZTIN8KCalCore12ICalTimeZoneE@Base 4:4.5.86
 _ZTIN8KCalCore13FreeBusyCacheE@Base 4:4.5.86
 _ZTIN8KCalCore13IncidenceBase17IncidenceObserverE@Base 4:4.5.86
 _ZTIN8KCalCore13IncidenceBaseE@Base 4:4.5.86
 _ZTIN8KCalCore14MemoryCalendarE@Base 4:4.5.86
 _ZTIN8KCalCore14RecurrenceRule12RuleObserverE@Base 4:4.5.86
 _ZTIN8KCalCore16CustomPropertiesE@Base 4:4.5.86
 _ZTIN8KCalCore16ICalTimeZoneDataE@Base 4:4.5.86
 _ZTIN8KCalCore18ICalTimeZoneSourceE@Base 4:4.5.86
 _ZTIN8KCalCore19ICalTimeZoneBackendE@Base 4:4.5.86
 _ZTIN8KCalCore4TodoE@Base 4:4.5.86
 _ZTIN8KCalCore5AlarmE@Base 4:4.5.86
 _ZTIN8KCalCore5EventE@Base 4:4.5.86
 _ZTIN8KCalCore6PersonE@Base 4:4.5.86
 _ZTIN8KCalCore7JournalE@Base 4:4.5.86
 _ZTIN8KCalCore7VisitorE@Base 4:4.5.86
 _ZTIN8KCalCore8AttendeeE@Base 4:4.5.86
 _ZTIN8KCalCore8Calendar16CalendarObserverE@Base 4:4.5.86
 _ZTIN8KCalCore8CalendarE@Base 4:4.5.86
 _ZTIN8KCalCore8FreeBusyE@Base 4:4.5.86
 _ZTIN8KCalCore9CalFormatE@Base 4:4.5.86
 _ZTIN8KCalCore9IncidenceE@Base 4:4.5.86
 _ZTSN8KCalCore10CalStorageE@Base 4:4.5.86
 _ZTSN8KCalCore10ICalFormatE@Base 4:4.5.86
 _ZTSN8KCalCore10Recurrence18RecurrenceObserverE@Base 4:4.5.86
 _ZTSN8KCalCore10RecurrenceE@Base 4:4.5.86
 _ZTSN8KCalCore10VCalFormatE@Base 4:4.5.86
 _ZTSN8KCalCore11FileStorageE@Base 4:4.5.86
 _ZTSN8KCalCore12ICalTimeZoneE@Base 4:4.5.86
 _ZTSN8KCalCore13FreeBusyCacheE@Base 4:4.5.86
 _ZTSN8KCalCore13IncidenceBase17IncidenceObserverE@Base 4:4.5.86
 _ZTSN8KCalCore13IncidenceBaseE@Base 4:4.5.86
 _ZTSN8KCalCore14MemoryCalendarE@Base 4:4.5.86
 _ZTSN8KCalCore14RecurrenceRule12RuleObserverE@Base 4:4.5.86
 _ZTSN8KCalCore16CustomPropertiesE@Base 4:4.5.86
 _ZTSN8KCalCore16ICalTimeZoneDataE@Base 4:4.5.86
 _ZTSN8KCalCore18ICalTimeZoneSourceE@Base 4:4.5.86
 _ZTSN8KCalCore19ICalTimeZoneBackendE@Base 4:4.5.86
 _ZTSN8KCalCore4TodoE@Base 4:4.5.86
 _ZTSN8KCalCore5AlarmE@Base 4:4.5.86
 _ZTSN8KCalCore5EventE@Base 4:4.5.86
 _ZTSN8KCalCore6PersonE@Base 4:4.5.86
 _ZTSN8KCalCore7JournalE@Base 4:4.5.86
 _ZTSN8KCalCore7VisitorE@Base 4:4.5.86
 _ZTSN8KCalCore8AttendeeE@Base 4:4.5.86
 _ZTSN8KCalCore8Calendar16CalendarObserverE@Base 4:4.5.86
 _ZTSN8KCalCore8CalendarE@Base 4:4.5.86
 _ZTSN8KCalCore8FreeBusyE@Base 4:4.5.86
 _ZTSN8KCalCore9CalFormatE@Base 4:4.5.86
 _ZTSN8KCalCore9IncidenceE@Base 4:4.5.86
 _ZTVN8KCalCore10CalStorageE@Base 4:4.5.86
 _ZTVN8KCalCore10ICalFormatE@Base 4:4.5.86
 _ZTVN8KCalCore10Recurrence18RecurrenceObserverE@Base 4:4.5.86
 _ZTVN8KCalCore10RecurrenceE@Base 4:4.5.86
 _ZTVN8KCalCore10VCalFormatE@Base 4:4.5.86
 _ZTVN8KCalCore11FileStorageE@Base 4:4.5.86
 _ZTVN8KCalCore12ICalTimeZoneE@Base 4:4.5.86
 _ZTVN8KCalCore13FreeBusyCacheE@Base 4:4.5.86
 _ZTVN8KCalCore13IncidenceBase17IncidenceObserverE@Base 4:4.5.86
 _ZTVN8KCalCore13IncidenceBaseE@Base 4:4.5.86
 _ZTVN8KCalCore14MemoryCalendarE@Base 4:4.5.86
 _ZTVN8KCalCore14RecurrenceRule12RuleObserverE@Base 4:4.5.86
 _ZTVN8KCalCore16CustomPropertiesE@Base 4:4.5.86
 _ZTVN8KCalCore16ICalTimeZoneDataE@Base 4:4.5.86
 _ZTVN8KCalCore18ICalTimeZoneSourceE@Base 4:4.5.86
 _ZTVN8KCalCore19ICalTimeZoneBackendE@Base 4:4.5.86
 _ZTVN8KCalCore4TodoE@Base 4:4.5.86
 _ZTVN8KCalCore5AlarmE@Base 4:4.5.86
 _ZTVN8KCalCore5EventE@Base 4:4.5.86
 _ZTVN8KCalCore6PersonE@Base 4:4.5.86
 _ZTVN8KCalCore7JournalE@Base 4:4.5.86
 _ZTVN8KCalCore7VisitorE@Base 4:4.5.86
 _ZTVN8KCalCore8AttendeeE@Base 4:4.5.86
 _ZTVN8KCalCore8Calendar16CalendarObserverE@Base 4:4.5.86
 _ZTVN8KCalCore8CalendarE@Base 4:4.5.86
 _ZTVN8KCalCore8FreeBusyE@Base 4:4.5.86
 _ZTVN8KCalCore9CalFormatE@Base 4:4.5.86
 _ZTVN8KCalCore9IncidenceE@Base 4:4.5.86
 _ZThn16_N8KCalCore14MemoryCalendar12virtual_hookEiPv@Base 4:4.5.86
 _ZThn16_N8KCalCore14MemoryCalendarD0Ev@Base 4:4.5.86
 _ZThn16_N8KCalCore14MemoryCalendarD1Ev@Base 4:4.5.86
 _ZThn16_N8KCalCore8Calendar12virtual_hookEiPv@Base 4:4.5.86
 _ZThn16_N8KCalCore8Calendar21customPropertyUpdatedEv@Base 4:4.5.86
 _ZThn16_N8KCalCore8CalendarD0Ev@Base 4:4.5.86
 _ZThn16_N8KCalCore8CalendarD1Ev@Base 4:4.5.86
 _ZThn32_N8KCalCore14MemoryCalendar15incidenceUpdateERK7QStringRK9KDateTime@Base 4:4.5.86
 _ZThn32_N8KCalCore14MemoryCalendar16incidenceUpdatedERK7QStringRK9KDateTime@Base 4:4.5.86
 _ZThn32_N8KCalCore14MemoryCalendarD0Ev@Base 4:4.5.86
 _ZThn32_N8KCalCore14MemoryCalendarD1Ev@Base 4:4.5.86
 _ZThn32_N8KCalCore4TodoD0Ev@Base 4:4.5.86
 _ZThn32_N8KCalCore4TodoD1Ev@Base 4:4.5.86
 _ZThn32_N8KCalCore5EventD0Ev@Base 4:4.5.86
 _ZThn32_N8KCalCore5EventD1Ev@Base 4:4.5.86
 _ZThn32_N8KCalCore7JournalD0Ev@Base 4:4.5.86
 _ZThn32_N8KCalCore7JournalD1Ev@Base 4:4.5.86
 _ZThn32_N8KCalCore8Calendar16incidenceUpdatedERK7QStringRK9KDateTime@Base 4:4.5.86
 _ZThn32_N8KCalCore8CalendarD0Ev@Base 4:4.5.86
 _ZThn32_N8KCalCore8CalendarD1Ev@Base 4:4.5.86
 _ZThn32_N8KCalCore9Incidence17recurrenceUpdatedEPNS_10RecurrenceE@Base 4:4.5.86
 _ZThn32_N8KCalCore9IncidenceD0Ev@Base 4:4.5.86
 _ZThn32_N8KCalCore9IncidenceD1Ev@Base 4:4.5.86
 addGroup@Base 4:4.5.86
 addList@Base 4:4.5.86
 addProp@Base 4:4.5.86
 addPropSizedValue@Base 4:4.5.86
 addPropSizedValue_@Base 4:4.5.86
 addPropValue@Base 4:4.5.86
 addProp_@Base 4:4.5.86
 addVObjectProp@Base 4:4.5.86
 cleanStrTbl@Base 4:4.5.86
 cleanVObject@Base 4:4.5.86
 cleanVObjects@Base 4:4.5.86
 deleteStr@Base 4:4.5.86
 deleteVObject@Base 4:4.5.86
 dupStr@Base 4:4.5.86
 fakeCString@Base 4:4.5.86
 fakeUnicode@Base 4:4.5.86
 fieldedProp@Base 4:4.5.86
 initLex@Base 4:4.5.86
 initPropIterator@Base 4:4.5.86
 initVObjectIterator@Base 4:4.5.86
 isAPropertyOf@Base 4:4.5.86
 lexBuf@Base 4:4.5.86
 lexGetStrUntil@Base 4:4.5.86
 lexPushLookahead@Base 4:4.5.86
 lookupProp@Base 4:4.5.86
 lookupProp_@Base 4:4.5.86
 lookupStr@Base 4:4.5.86
 mime_char@Base 4:4.5.86
 mime_lineNum@Base 4:4.5.86
 mime_nerrs@Base 4:4.5.86
 mime_numErrors@Base 4:4.5.86
 mime_parse@Base 4:4.5.86
 mime_yylval@Base 4:4.5.86
 moreIteration@Base 4:4.5.86
 newVObject@Base 4:4.5.86
 newVObject_@Base 4:4.5.86
 nextVObject@Base 4:4.5.86
 nextVObjectInList@Base 4:4.5.86
 printVObject@Base 4:4.5.86
 printVObjectToFile@Base 4:4.5.86
 printVObjectsToFile@Base 4:4.5.86
 registerMimeErrorHandler@Base 4:4.5.86
 setVObjectAnyValue@Base 4:4.5.86
 setVObjectIntegerValue@Base 4:4.5.86
 setVObjectLongValue@Base 4:4.5.86
 setVObjectName@Base 4:4.5.86
 setVObjectStringZValue@Base 4:4.5.86
 setVObjectStringZValue_@Base 4:4.5.86
 setVObjectUStringZValue@Base 4:4.5.86
 setVObjectUStringZValue_@Base 4:4.5.86
 setVObjectVObjectValue@Base 4:4.5.86
 setValueWithSize@Base 4:4.5.86
 setValueWithSize_@Base 4:4.5.86
 uStrLen@Base 4:4.5.86
 unUseStr@Base 4:4.5.86
 vObjectAnyValue@Base 4:4.5.86
 vObjectIntegerValue@Base 4:4.5.86
 vObjectLongValue@Base 4:4.5.86
 vObjectName@Base 4:4.5.86
 vObjectStringZValue@Base 4:4.5.86
 vObjectUStringZValue@Base 4:4.5.86
 vObjectVObjectValue@Base 4:4.5.86
 vObjectValueType@Base 4:4.5.86
 writeMemVObject@Base 4:4.5.86
 writeMemVObjects@Base 4:4.5.86
 writeVObject@Base 4:4.5.86
 writeVObjectToFile@Base 4:4.5.86
 writeVObjectsToFile@Base 4:4.5.86
