libkmime.so.4 libkmime4 #MINVER#
* Build-Depends-Package: kdepimlibs5-dev
 _Z5qHashRKN5KMime12ContentIndexE@Base 4:4.3.4
 _ZN5KMime11NewsArticle10followUpToEb@Base 4:4.3.4
 _ZN5KMime11NewsArticle10newsgroupsEb@Base 4:4.3.4
 _ZN5KMime11NewsArticle10supersedesEb@Base 4:4.3.4
 _ZN5KMime11NewsArticle12headerByTypeEPKc@Base 4:4.3.4
 _ZN5KMime11NewsArticle12mailCopiesToEb@Base 4:4.3.4
 _ZN5KMime11NewsArticle12removeHeaderEPKc@Base 4:4.3.4
 _ZN5KMime11NewsArticle15assembleHeadersEv@Base 4:4.3.4
 _ZN5KMime11NewsArticle15getHeaderByTypeEPKc@Base 4:4.3.4
 _ZN5KMime11NewsArticle5clearEv@Base 4:4.3.4
 _ZN5KMime11NewsArticle5linesEb@Base 4:4.3.4
 _ZN5KMime11NewsArticle5parseEv@Base 4:4.3.4
 _ZN5KMime11NewsArticle7controlEb@Base 4:4.3.4
 _ZN5KMime11NewsArticle9setHeaderEPNS_7Headers4BaseE@Base 4:4.3.4
 _ZN5KMime11NewsArticleC1Ev@Base 4:4.3.4
 _ZN5KMime11NewsArticleC2Ev@Base 4:4.3.4
 _ZN5KMime11NewsArticleD0Ev@Base 4:4.3.4
 _ZN5KMime11NewsArticleD1Ev@Base 4:4.3.4
 _ZN5KMime11NewsArticleD2Ev@Base 4:4.3.4
 _ZN5KMime11isEncryptedEPNS_7MessageE@Base 4:4.5.86
 _ZN5KMime11removeQuotsER10QByteArray@Base 4:4.3.4
 _ZN5KMime11removeQuotsER7QString@Base 4:4.3.4
 _ZN5KMime12ContentIndex3popEv@Base 4:4.3.4
 _ZN5KMime12ContentIndex4pushEj@Base 4:4.3.4
 _ZN5KMime12ContentIndexC1ERK7QString@Base 4:4.3.4
 _ZN5KMime12ContentIndexC1ERKS0_@Base 4:4.3.4
 _ZN5KMime12ContentIndexC1Ev@Base 4:4.3.4
 _ZN5KMime12ContentIndexC2ERK7QString@Base 4:4.3.4
 _ZN5KMime12ContentIndexC2ERKS0_@Base 4:4.3.4
 _ZN5KMime12ContentIndexC2Ev@Base 4:4.3.4
 _ZN5KMime12ContentIndexD1Ev@Base 4:4.3.4
 _ZN5KMime12ContentIndexD2Ev@Base 4:4.3.4
 _ZN5KMime12ContentIndexaSERKS0_@Base 4:4.3.4
 _ZN5KMime12isInvitationEPNS_7ContentE@Base 4:4.5.86
 _ZN5KMime12unfoldHeaderERK10QByteArray@Base 4:4.3.4
 _ZN5KMime12uniqueStringEv@Base 4:4.3.4
 _ZN5KMime13DateFormatter10formatDateENS0_10FormatTypeElRK7QStringbb@Base 4:4.3.4
 _ZN5KMime13DateFormatter10isDaylightEv@Base 4:4.3.4
 _ZN5KMime13DateFormatter15setCustomFormatERK7QString@Base 4:4.3.4
 _ZN5KMime13DateFormatter17formatCurrentDateENS0_10FormatTypeERK7QStringbb@Base 4:4.3.4
 _ZN5KMime13DateFormatter5resetEv@Base 4:4.3.4
 _ZN5KMime13DateFormatter9mDaylightE@Base 4:4.3.4
 _ZN5KMime13DateFormatter9setFormatENS0_10FormatTypeE@Base 4:4.3.4
 _ZN5KMime13DateFormatterC1ENS0_10FormatTypeE@Base 4:4.3.4
 _ZN5KMime13DateFormatterC2ENS0_10FormatTypeE@Base 4:4.3.4
 _ZN5KMime13DateFormatterD1Ev@Base 4:4.3.4
 _ZN5KMime13DateFormatterD2Ev@Base 4:4.3.4
 _ZN5KMime13HeaderParsing10parseGroupERPKcS2_RNS_5Types7AddressEb@Base 4:4.3.4
 _ZN5KMime13HeaderParsing10parseTokenERPKcS2_R5QPairIS2_iEb@Base 4:4.3.4
 _ZN5KMime13HeaderParsing10parseTokenERPKcS2_R7QStringb@Base 4:4.3.4
 _ZN5KMime13HeaderParsing11parseDigitsERPKcS2_Ri@Base 4:4.3.4
 _ZN5KMime13HeaderParsing11parseDomainERPKcS2_R7QStringb@Base 4:4.3.4
 _ZN5KMime13HeaderParsing11parsePhraseERPKcS2_R7QStringb@Base 4:4.3.4
 _ZN5KMime13HeaderParsing12parseAddressERPKcS2_RNS_5Types7AddressEb@Base 4:4.3.4
 _ZN5KMime13HeaderParsing12parseCommentERPKcS2_R7QStringbb@Base 4:4.3.4
 _ZN5KMime13HeaderParsing12parseDotAtomERPKcS2_R7QStringb@Base 4:4.3.4
 _ZN5KMime13HeaderParsing12parseMailboxERPKcS2_RNS_5Types7MailboxEb@Base 4:4.3.4
 _ZN5KMime13HeaderParsing13parseAddrSpecERPKcS2_RNS_5Types8AddrSpecEb@Base 4:4.3.4
 _ZN5KMime13HeaderParsing13parseDateTimeERPKcS2_R9KDateTimeb@Base 4:4.3.4
 _ZN5KMime13HeaderParsing13parseObsRouteERPKcS2_R11QStringListbb@Base 4:4.3.4
 _ZN5KMime13HeaderParsing14parseAngleAddrERPKcS2_RNS_5Types8AddrSpecEb@Base 4:4.3.4
 _ZN5KMime13HeaderParsing14parseParameterERPKcS2_R5QPairI7QStringNS_5Types14QStringOrQPairEEb@Base 4:4.3.4
 _ZN5KMime13HeaderParsing16parseAddressListERPKcS2_R5QListINS_5Types7AddressEEb@Base 4:4.3.4
 _ZN5KMime13HeaderParsing16parseEncodedWordERPKcS2_R7QStringR10QByteArrayS7_RKS6_b@Base 4:4.3.4
 _ZN5KMime13HeaderParsing18extractFirstHeaderER10QByteArray@Base 4:4.4.0
 _ZN5KMime13HeaderParsing18parseParameterListERPKcS2_R4QMapI7QStringS5_Eb@Base 4:4.3.4
 _ZN5KMime13HeaderParsing20extractHeaderAndBodyERK10QByteArrayRS1_S4_@Base 4:4.5.86
 _ZN5KMime13HeaderParsing21parseRawParameterListERPKcS2_R4QMapI7QStringNS_5Types14QStringOrQPairEEb@Base 4:4.3.4
 _ZN5KMime13HeaderParsing24parseGenericQuotedStringERPKcS2_R7QStringbcc@Base 4:4.3.4
 _ZN5KMime13HeaderParsing29parseParameterListWithCharsetERPKcS2_R4QMapI7QStringS5_ER10QByteArrayb@Base 4:4.5.0
 _ZN5KMime13HeaderParsing7eatCFWSERPKcS2_b@Base 4:4.3.4
 _ZN5KMime13HeaderParsing9parseAtomERPKcS2_R5QPairIS2_iEb@Base 4:4.3.4
 _ZN5KMime13HeaderParsing9parseAtomERPKcS2_R7QStringb@Base 4:4.3.4
 _ZN5KMime13HeaderParsing9parseTimeERPKcS2_RiS4_S4_RlRbb@Base 4:4.3.4
 _ZN5KMime13cachedCharsetERK10QByteArray@Base 4:4.3.4
 _ZN5KMime13extractHeaderERK10QByteArrayS2_@Base 4:4.3.4
 _ZN5KMime13hasAttachmentEPNS_7ContentE@Base 4:4.5.86
 _ZN5KMime14cachedLanguageERK10QByteArray@Base 4:4.3.4
 _ZN5KMime14extractHeadersERK10QByteArrayS2_@Base 4:4.3.4
 _ZN5KMime15nameForEncodingENS_7Headers15contentEncodingE@Base 4:4.4.0
 _ZN5KMime16balanceBidiStateERK7QString@Base 4:4.4.0
 _ZN5KMime16encodingsForDataERK10QByteArray@Base 4:4.4.0
 _ZN5KMime17multiPartBoundaryEv@Base 4:4.3.4
 _ZN5KMime19decodeRFC2047StringERK10QByteArray@Base 4:4.3.4
 _ZN5KMime19decodeRFC2047StringERK10QByteArrayRS0_S2_b@Base 4:4.3.4
 _ZN5KMime19decodeRFC2231StringERK10QByteArray@Base 4:4.5.0
 _ZN5KMime19decodeRFC2231StringERK10QByteArrayRS0_S2_b@Base 4:4.5.0
 _ZN5KMime19encodeRFC2047StringERK7QStringRK10QByteArraybb@Base 4:4.3.4
 _ZN5KMime19encodeRFC2231StringERK7QStringRK10QByteArray@Base 4:4.5.0
 _ZN5KMime20fallbackCharEncodingEv@Base 4:4.5.0
 _ZN5KMime22removeBidiControlCharsERK7QString@Base 4:4.4.0
 _ZN5KMime23setFallbackCharEncodingERK7QString@Base 4:4.5.0
 _ZN5KMime28useOutlookAttachmentEncodingEv@Base 4:4.5.0
 _ZN5KMime31setUseOutlookAttachmentEncodingEb@Base 4:4.5.0
 _ZN5KMime3MDN14descriptionForENS0_15DispositionTypeERK5QListINS0_19DispositionModifierEE@Base 4:4.3.4
 _ZN5KMime3MDN34dispositionNotificationBodyContentERK7QStringRK10QByteArrayS6_NS0_15DispositionTypeENS0_10ActionModeENS0_11SendingModeERK5QListINS0_19DispositionModifierEES3_@Base 4:4.3.4
 _ZN5KMime5Codec12cleanupCodecEv@Base 4:4.3.4
 _ZN5KMime5Codec12codecForNameEPKc@Base 4:4.3.4
 _ZN5KMime5Codec12codecForNameERK10QByteArray@Base 4:4.3.4
 _ZN5KMime5Codec14fillDictionaryEv@Base 4:4.3.4
 _ZN5KMime5Codec3allE@Base 4:4.3.4
 _ZN5KMime5Types7AddressD1Ev@Base 4:4.6.5
 _ZN5KMime5Types7AddressD2Ev@Base 4:4.6.5
 _ZN5KMime5Types7Mailbox10setAddressERK10QByteArray@Base 4:4.3.4
 _ZN5KMime5Types7Mailbox10setAddressERKNS0_8AddrSpecE@Base 4:4.3.4
 _ZN5KMime5Types7Mailbox14from7BitStringERK10QByteArray@Base 4:4.3.4
 _ZN5KMime5Types7Mailbox15setNameFrom7BitERK10QByteArrayS4_@Base 4:4.3.4
 _ZN5KMime5Types7Mailbox17fromUnicodeStringERK7QString@Base 4:4.3.4
 _ZN5KMime5Types7Mailbox7setNameERK7QString@Base 4:4.3.4
 _ZN5KMime5Types7MailboxD1Ev@Base 4:4.6.5
 _ZN5KMime5Types7MailboxD2Ev@Base 4:4.6.5
 _ZN5KMime5Types8AddrSpecD1Ev@Base 4:4.6.5
 _ZN5KMime5Types8AddrSpecD2Ev@Base 4:4.6.5
 _ZN5KMime7Content10addContentEPS0_b@Base 4:4.3.4
 _ZN5KMime7Content10decodeTextEv@Base 4:4.3.4
 _ZN5KMime7Content10nextHeaderER10QByteArray@Base 4:4.3.4
 _ZN5KMime7Content10setContentERK10QByteArray@Base 4:4.3.4
 _ZN5KMime7Content10setContentERK5QListI10QByteArrayE@Base 4:4.3.4
 _ZN5KMime7Content11attachmentsEb@Base 4:4.3.4
 _ZN5KMime7Content11contentTypeEb@Base 4:4.3.4
 _ZN5KMime7Content11decodedTextEbb@Base 4:4.3.4
 _ZN5KMime7Content11encodedBodyEv@Base 4:4.5.86
 _ZN5KMime7Content11setEpilogueERK10QByteArray@Base 4:4.10.1
 _ZN5KMime7Content11setPreambleERK10QByteArray@Base 4:4.10.1
 _ZN5KMime7Content11textContentEv@Base 4:4.3.4
 _ZN5KMime7Content12appendHeaderEPNS_7Headers4BaseE@Base 4:4.4.0
 _ZN5KMime7Content12headerByTypeEPKc@Base 4:4.3.4
 _ZN5KMime7Content12removeHeaderEPKc@Base 4:4.3.4
 _ZN5KMime7Content13clearContentsEb@Base 4:4.4.0
 _ZN5KMime7Content13getNextHeaderER10QByteArray@Base 4:4.3.4
 _ZN5KMime7Content13headersByTypeEPKc@Base 4:4.3.4
 _ZN5KMime7Content13prependHeaderEPNS_7Headers4BaseE@Base 4:4.4.0
 _ZN5KMime7Content13removeContentEPS0_b@Base 4:4.3.4
 _ZN5KMime7Content14changeEncodingENS_7Headers15contentEncodingE@Base 4:4.3.4
 _ZN5KMime7Content14decodedContentEv@Base 4:4.3.4
 _ZN5KMime7Content14encodedContentEb@Base 4:4.3.4
 _ZN5KMime7Content15assembleHeadersEv@Base 4:4.3.4
 _ZN5KMime7Content15contentLocationEb@Base 4:4.3.4
 _ZN5KMime7Content15getHeaderByTypeEPKc@Base 4:4.3.4
 _ZN5KMime7Content17fromUnicodeStringERK7QString@Base 4:4.3.4
 _ZN5KMime7Content17setDefaultCharsetERK10QByteArray@Base 4:4.3.4
 _ZN5KMime7Content18contentDescriptionEb@Base 4:4.3.4
 _ZN5KMime7Content18contentDispositionEb@Base 4:4.3.4
 _ZN5KMime7Content22setForceDefaultCharsetEb@Base 4:4.3.4
 _ZN5KMime7Content23contentTransferEncodingEb@Base 4:4.3.4
 _ZN5KMime7Content4sizeEv@Base 4:4.3.4
 _ZN5KMime7Content5clearEv@Base 4:4.3.4
 _ZN5KMime7Content5parseEv@Base 4:4.3.4
 _ZN5KMime7Content6headerINS_7Headers10FollowUpToEEEPT_b@Base 4:4.10.1
 _ZN5KMime7Content6headerINS_7Headers10NewsgroupsEEEPT_b@Base 4:4.10.1
 _ZN5KMime7Content6headerINS_7Headers10ReferencesEEEPT_b@Base 4:4.10.1
 _ZN5KMime7Content6headerINS_7Headers10SupersedesEEEPT_b@Base 4:4.10.1
 _ZN5KMime7Content6headerINS_7Headers11ContentTypeEEEPT_b@Base 4:4.4.0
 _ZN5KMime7Content6headerINS_7Headers12MailCopiesToEEEPT_b@Base 4:4.10.1
 _ZN5KMime7Content6headerINS_7Headers12OrganizationEEEPT_b@Base 4:4.10.1
 _ZN5KMime7Content6headerINS_7Headers15ContentLocationEEEPT_b@Base 4:4.10.1
 _ZN5KMime7Content6headerINS_7Headers18ContentDescriptionEEEPT_b@Base 4:4.10.1
 _ZN5KMime7Content6headerINS_7Headers18ContentDispositionEEEPT_b@Base 4:4.10.1
 _ZN5KMime7Content6headerINS_7Headers23ContentTransferEncodingEEEPT_b@Base 4:4.10.1
 _ZN5KMime7Content6headerINS_7Headers2CcEEEPT_b@Base 4:4.10.1
 _ZN5KMime7Content6headerINS_7Headers2ToEEEPT_b@Base 4:4.10.1
 _ZN5KMime7Content6headerINS_7Headers3BccEEEPT_b@Base 4:4.10.1
 _ZN5KMime7Content6headerINS_7Headers4DateEEEPT_b@Base 4:4.10.1
 _ZN5KMime7Content6headerINS_7Headers4FromEEEPT_b@Base 4:4.10.1
 _ZN5KMime7Content6headerINS_7Headers5LinesEEEPT_b@Base 4:4.10.1
 _ZN5KMime7Content6headerINS_7Headers6SenderEEEPT_b@Base 4:4.10.1
 _ZN5KMime7Content6headerINS_7Headers7ControlEEEPT_b@Base 4:4.10.1
 _ZN5KMime7Content6headerINS_7Headers7ReplyToEEEPT_b@Base 4:4.10.1
 _ZN5KMime7Content6headerINS_7Headers7SubjectEEEPT_b@Base 4:4.10.1
 _ZN5KMime7Content6headerINS_7Headers9ContentIDEEEPT_b@Base 4:4.10.1
 _ZN5KMime7Content6headerINS_7Headers9InReplyToEEEPT_b@Base 4:4.10.1
 _ZN5KMime7Content6headerINS_7Headers9MessageIDEEEPT_b@Base 4:4.10.1
 _ZN5KMime7Content6headerINS_7Headers9UserAgentEEEPT_b@Base 4:4.10.1
 _ZN5KMime7Content7setBodyERK10QByteArray@Base 4:4.3.4
 _ZN5KMime7Content7setHeadERK10QByteArray@Base 4:4.3.4
 _ZN5KMime7Content8assembleEv@Base 4:4.3.4
 _ZN5KMime7Content8toStreamER11QTextStreamb@Base 4:4.3.4
 _ZN5KMime7Content9contentIDEb@Base 4:4.4.0
 _ZN5KMime7Content9hasHeaderEPKc@Base 4:4.3.4
 _ZN5KMime7Content9setFrozenEb@Base 4:4.4.0
 _ZN5KMime7Content9setHeaderEPNS_7Headers4BaseE@Base 4:4.3.4
 _ZN5KMime7Content9setParentEPS0_@Base 4:4.3.4
 _ZN5KMime7ContentC1EPNS_14ContentPrivateE@Base 4:4.3.4
 _ZN5KMime7ContentC1EPS0_@Base 4:4.3.4
 _ZN5KMime7ContentC1ERK10QByteArrayS3_@Base 4:4.3.4
 _ZN5KMime7ContentC1ERK10QByteArrayS3_PS0_@Base 4:4.3.4
 _ZN5KMime7ContentC1Ev@Base 4:4.3.4
 _ZN5KMime7ContentC2EPNS_14ContentPrivateE@Base 4:4.3.4
 _ZN5KMime7ContentC2EPS0_@Base 4:4.3.4
 _ZN5KMime7ContentC2ERK10QByteArrayS3_@Base 4:4.3.4
 _ZN5KMime7ContentC2ERK10QByteArrayS3_PS0_@Base 4:4.3.4
 _ZN5KMime7ContentC2Ev@Base 4:4.3.4
 _ZN5KMime7ContentD0Ev@Base 4:4.3.4
 _ZN5KMime7ContentD1Ev@Base 4:4.3.4
 _ZN5KMime7ContentD2Ev@Base 4:4.3.4
 _ZN5KMime7Headers10FollowUpTo10staticTypeEv@Base 4:4.5.86
 _ZN5KMime7Headers10FollowUpToC1EPNS_7ContentE@Base 4:4.3.4
 _ZN5KMime7Headers10FollowUpToC1EPNS_7ContentERK10QByteArray@Base 4:4.3.4
 _ZN5KMime7Headers10FollowUpToC1EPNS_7ContentERK7QStringRK10QByteArray@Base 4:4.3.4
 _ZN5KMime7Headers10FollowUpToC2EPNS_7ContentE@Base 4:4.3.4
 _ZN5KMime7Headers10FollowUpToC2EPNS_7ContentERK10QByteArray@Base 4:4.3.4
 _ZN5KMime7Headers10FollowUpToC2EPNS_7ContentERK7QStringRK10QByteArray@Base 4:4.3.4
 _ZN5KMime7Headers10FollowUpToD0Ev@Base 4:4.3.4
 _ZN5KMime7Headers10FollowUpToD1Ev@Base 4:4.3.4
 _ZN5KMime7Headers10FollowUpToD2Ev@Base 4:4.3.4
 _ZN5KMime7Headers10Newsgroups10staticTypeEv@Base 4:4.5.86
 _ZN5KMime7Headers10Newsgroups17fromUnicodeStringERK7QStringRK10QByteArray@Base 4:4.3.4
 _ZN5KMime7Headers10Newsgroups5clearEv@Base 4:4.3.4
 _ZN5KMime7Headers10Newsgroups5parseERPKcS3_b@Base 4:4.3.4
 _ZN5KMime7Headers10Newsgroups9setGroupsERK5QListI10QByteArrayE@Base 4:4.3.4
 _ZN5KMime7Headers10NewsgroupsC1EPNS_7ContentE@Base 4:4.3.4
 _ZN5KMime7Headers10NewsgroupsC1EPNS_7ContentERK10QByteArray@Base 4:4.3.4
 _ZN5KMime7Headers10NewsgroupsC1EPNS_7ContentERK7QStringRK10QByteArray@Base 4:4.3.4
 _ZN5KMime7Headers10NewsgroupsC2EPNS_7ContentE@Base 4:4.3.4
 _ZN5KMime7Headers10NewsgroupsC2EPNS_7ContentERK10QByteArray@Base 4:4.3.4
 _ZN5KMime7Headers10NewsgroupsC2EPNS_7ContentERK7QStringRK10QByteArray@Base 4:4.3.4
 _ZN5KMime7Headers10NewsgroupsD0Ev@Base 4:4.3.4
 _ZN5KMime7Headers10NewsgroupsD1Ev@Base 4:4.3.4
 _ZN5KMime7Headers10NewsgroupsD2Ev@Base 4:4.3.4
 _ZN5KMime7Headers10References10staticTypeEv@Base 4:4.5.86
 _ZN5KMime7Headers10ReferencesC1EPNS_7ContentE@Base 4:4.3.4
 _ZN5KMime7Headers10ReferencesC1EPNS_7ContentERK10QByteArray@Base 4:4.3.4
 _ZN5KMime7Headers10ReferencesC1EPNS_7ContentERK7QStringRK10QByteArray@Base 4:4.3.4
 _ZN5KMime7Headers10ReferencesC2EPNS_7ContentE@Base 4:4.3.4
 _ZN5KMime7Headers10ReferencesC2EPNS_7ContentERK10QByteArray@Base 4:4.3.4
 _ZN5KMime7Headers10ReferencesC2EPNS_7ContentERK7QStringRK10QByteArray@Base 4:4.3.4
 _ZN5KMime7Headers10ReferencesD0Ev@Base 4:4.3.4
 _ZN5KMime7Headers10ReferencesD1Ev@Base 4:4.3.4
 _ZN5KMime7Headers10ReferencesD2Ev@Base 4:4.3.4
 _ZN5KMime7Headers10ReturnPath10staticTypeEv@Base 4:4.5.86
 _ZN5KMime7Headers10ReturnPath5clearEv@Base 4:4.3.4
 _ZN5KMime7Headers10ReturnPath5parseERPKcS3_b@Base 4:4.3.4
 _ZN5KMime7Headers10ReturnPathC1EPNS_7ContentE@Base 4:4.3.4
 _ZN5KMime7Headers10ReturnPathC1EPNS_7ContentERK10QByteArray@Base 4:4.3.4
 _ZN5KMime7Headers10ReturnPathC1EPNS_7ContentERK7QStringRK10QByteArray@Base 4:4.3.4
 _ZN5KMime7Headers10ReturnPathC2EPNS_7ContentE@Base 4:4.3.4
 _ZN5KMime7Headers10ReturnPathC2EPNS_7ContentERK10QByteArray@Base 4:4.3.4
 _ZN5KMime7Headers10ReturnPathC2EPNS_7ContentERK7QStringRK10QByteArray@Base 4:4.3.4
 _ZN5KMime7Headers10ReturnPathD0Ev@Base 4:4.3.4
 _ZN5KMime7Headers10ReturnPathD1Ev@Base 4:4.3.4
 _ZN5KMime7Headers10ReturnPathD2Ev@Base 4:4.3.4
 _ZN5KMime7Headers10Supersedes10staticTypeEv@Base 4:4.5.86
 _ZN5KMime7Headers10SupersedesC1EPNS_7ContentE@Base 4:4.3.4
 _ZN5KMime7Headers10SupersedesC1EPNS_7ContentERK10QByteArray@Base 4:4.3.4
 _ZN5KMime7Headers10SupersedesC1EPNS_7ContentERK7QStringRK10QByteArray@Base 4:4.3.4
 _ZN5KMime7Headers10SupersedesC2EPNS_7ContentE@Base 4:4.3.4
 _ZN5KMime7Headers10SupersedesC2EPNS_7ContentERK10QByteArray@Base 4:4.3.4
 _ZN5KMime7Headers10SupersedesC2EPNS_7ContentERK7QStringRK10QByteArray@Base 4:4.3.4
 _ZN5KMime7Headers10SupersedesD0Ev@Base 4:4.3.4
 _ZN5KMime7Headers10SupersedesD1Ev@Base 4:4.3.4
 _ZN5KMime7Headers10SupersedesD2Ev@Base 4:4.3.4
 _ZN5KMime7Headers11ContentType10setCharsetERK10QByteArray@Base 4:4.3.4
 _ZN5KMime7Headers11ContentType10staticTypeEv@Base 4:4.5.86
 _ZN5KMime7Headers11ContentType11setBoundaryERK10QByteArray@Base 4:4.3.4
 _ZN5KMime7Headers11ContentType11setCategoryENS0_15contentCategoryE@Base 4:4.3.4
 _ZN5KMime7Headers11ContentType11setMimeTypeERK10QByteArray@Base 4:4.3.4
 _ZN5KMime7Headers11ContentType16setPartialParamsEii@Base 4:4.3.4
 _ZN5KMime7Headers11ContentType5clearEv@Base 4:4.3.4
 _ZN5KMime7Headers11ContentType5parseERPKcS3_b@Base 4:4.3.4
 _ZN5KMime7Headers11ContentType5setIdERK10QByteArray@Base 4:4.3.4
 _ZN5KMime7Headers11ContentType7setNameERK7QStringRK10QByteArray@Base 4:4.3.4
 _ZN5KMime7Headers11ContentTypeC1EPNS_7ContentE@Base 4:4.3.4
 _ZN5KMime7Headers11ContentTypeC1EPNS_7ContentERK10QByteArray@Base 4:4.3.4
 _ZN5KMime7Headers11ContentTypeC1EPNS_7ContentERK7QStringRK10QByteArray@Base 4:4.3.4
 _ZN5KMime7Headers11ContentTypeC2EPNS_7ContentE@Base 4:4.3.4
 _ZN5KMime7Headers11ContentTypeC2EPNS_7ContentERK10QByteArray@Base 4:4.3.4
 _ZN5KMime7Headers11ContentTypeC2EPNS_7ContentERK7QStringRK10QByteArray@Base 4:4.3.4
 _ZN5KMime7Headers11ContentTypeD0Ev@Base 4:4.3.4
 _ZN5KMime7Headers11ContentTypeD1Ev@Base 4:4.3.4
 _ZN5KMime7Headers11ContentTypeD2Ev@Base 4:4.3.4
 _ZN5KMime7Headers11MIMEVersion10staticTypeEv@Base 4:4.5.86
 _ZN5KMime7Headers11MIMEVersionC1EPNS_7ContentE@Base 4:4.3.4
 _ZN5KMime7Headers11MIMEVersionC1EPNS_7ContentERK10QByteArray@Base 4:4.3.4
 _ZN5KMime7Headers11MIMEVersionC1EPNS_7ContentERK7QStringRK10QByteArray@Base 4:4.3.4
 _ZN5KMime7Headers11MIMEVersionC2EPNS_7ContentE@Base 4:4.3.4
 _ZN5KMime7Headers11MIMEVersionC2EPNS_7ContentERK10QByteArray@Base 4:4.3.4
 _ZN5KMime7Headers11MIMEVersionC2EPNS_7ContentERK7QStringRK10QByteArray@Base 4:4.3.4
 _ZN5KMime7Headers11MIMEVersionD0Ev@Base 4:4.3.4
 _ZN5KMime7Headers11MIMEVersionD1Ev@Base 4:4.3.4
 _ZN5KMime7Headers11MIMEVersionD2Ev@Base 4:4.3.4
 _ZN5KMime7Headers12MailCopiesTo10staticTypeEv@Base 4:4.5.86
 _ZN5KMime7Headers12MailCopiesTo12setNeverCopyEv@Base 4:4.3.4
 _ZN5KMime7Headers12MailCopiesTo13setAlwaysCopyEv@Base 4:4.3.4
 _ZN5KMime7Headers12MailCopiesTo5clearEv@Base 4:4.3.4
 _ZN5KMime7Headers12MailCopiesTo5parseERPKcS3_b@Base 4:4.3.4
 _ZN5KMime7Headers12MailCopiesToC1EPNS_7ContentE@Base 4:4.3.4
 _ZN5KMime7Headers12MailCopiesToC1EPNS_7ContentERK10QByteArray@Base 4:4.3.4
 _ZN5KMime7Headers12MailCopiesToC1EPNS_7ContentERK7QStringRK10QByteArray@Base 4:4.3.4
 _ZN5KMime7Headers12MailCopiesToC2EPNS_7ContentE@Base 4:4.3.4
 _ZN5KMime7Headers12MailCopiesToC2EPNS_7ContentERK10QByteArray@Base 4:4.3.4
 _ZN5KMime7Headers12MailCopiesToC2EPNS_7ContentERK7QStringRK10QByteArray@Base 4:4.3.4
 _ZN5KMime7Headers12MailCopiesToD0Ev@Base 4:4.3.4
 _ZN5KMime7Headers12MailCopiesToD1Ev@Base 4:4.3.4
 _ZN5KMime7Headers12MailCopiesToD2Ev@Base 4:4.3.4
 _ZN5KMime7Headers12Organization10staticTypeEv@Base 4:4.5.86
 _ZN5KMime7Headers12OrganizationC1EPNS_7ContentE@Base 4:4.3.4
 _ZN5KMime7Headers12OrganizationC1EPNS_7ContentERK10QByteArray@Base 4:4.3.4
 _ZN5KMime7Headers12OrganizationC1EPNS_7ContentERK7QStringRK10QByteArray@Base 4:4.3.4
 _ZN5KMime7Headers12OrganizationC2EPNS_7ContentE@Base 4:4.3.4
 _ZN5KMime7Headers12OrganizationC2EPNS_7ContentERK10QByteArray@Base 4:4.3.4
 _ZN5KMime7Headers12OrganizationC2EPNS_7ContentERK7QStringRK10QByteArray@Base 4:4.3.4
 _ZN5KMime7Headers12OrganizationD0Ev@Base 4:4.3.4
 _ZN5KMime7Headers12OrganizationD1Ev@Base 4:4.3.4
 _ZN5KMime7Headers12OrganizationD2Ev@Base 4:4.3.4
 _ZN5KMime7Headers12createHeaderERK10QByteArray@Base 4:4.5.86
 _ZN5KMime7Headers15ContentLocation10staticTypeEv@Base 4:4.5.86
 _ZN5KMime7Headers15ContentLocationC1EPNS_7ContentE@Base 4:4.3.4
 _ZN5KMime7Headers15ContentLocationC1EPNS_7ContentERK10QByteArray@Base 4:4.3.4
 _ZN5KMime7Headers15ContentLocationC1EPNS_7ContentERK7QStringRK10QByteArray@Base 4:4.3.4
 _ZN5KMime7Headers15ContentLocationC2EPNS_7ContentE@Base 4:4.3.4
 _ZN5KMime7Headers15ContentLocationC2EPNS_7ContentERK10QByteArray@Base 4:4.3.4
 _ZN5KMime7Headers15ContentLocationC2EPNS_7ContentERK7QStringRK10QByteArray@Base 4:4.3.4
 _ZN5KMime7Headers15ContentLocationD0Ev@Base 4:4.3.4
 _ZN5KMime7Headers15ContentLocationD1Ev@Base 4:4.3.4
 _ZN5KMime7Headers15ContentLocationD2Ev@Base 4:4.3.4
 _ZN5KMime7Headers18ContentDescription10staticTypeEv@Base 4:4.5.86
 _ZN5KMime7Headers18ContentDescriptionC1EPNS_7ContentE@Base 4:4.3.4
 _ZN5KMime7Headers18ContentDescriptionC1EPNS_7ContentERK10QByteArray@Base 4:4.3.4
 _ZN5KMime7Headers18ContentDescriptionC1EPNS_7ContentERK7QStringRK10QByteArray@Base 4:4.3.4
 _ZN5KMime7Headers18ContentDescriptionC2EPNS_7ContentE@Base 4:4.3.4
 _ZN5KMime7Headers18ContentDescriptionC2EPNS_7ContentERK10QByteArray@Base 4:4.3.4
 _ZN5KMime7Headers18ContentDescriptionC2EPNS_7ContentERK7QStringRK10QByteArray@Base 4:4.3.4
 _ZN5KMime7Headers18ContentDescriptionD0Ev@Base 4:4.3.4
 _ZN5KMime7Headers18ContentDescriptionD1Ev@Base 4:4.3.4
 _ZN5KMime7Headers18ContentDescriptionD2Ev@Base 4:4.3.4
 _ZN5KMime7Headers18ContentDisposition10staticTypeEv@Base 4:4.5.86
 _ZN5KMime7Headers18ContentDisposition11setFilenameERK7QString@Base 4:4.3.4
 _ZN5KMime7Headers18ContentDisposition14setDispositionENS0_18contentDispositionE@Base 4:4.3.4
 _ZN5KMime7Headers18ContentDisposition5clearEv@Base 4:4.3.4
 _ZN5KMime7Headers18ContentDisposition5parseERPKcS3_b@Base 4:4.3.4
 _ZN5KMime7Headers18ContentDispositionC1EPNS_7ContentE@Base 4:4.3.4
 _ZN5KMime7Headers18ContentDispositionC1EPNS_7ContentERK10QByteArray@Base 4:4.3.4
 _ZN5KMime7Headers18ContentDispositionC1EPNS_7ContentERK7QStringRK10QByteArray@Base 4:4.3.4
 _ZN5KMime7Headers18ContentDispositionC2EPNS_7ContentE@Base 4:4.3.4
 _ZN5KMime7Headers18ContentDispositionC2EPNS_7ContentERK10QByteArray@Base 4:4.3.4
 _ZN5KMime7Headers18ContentDispositionC2EPNS_7ContentERK7QStringRK10QByteArray@Base 4:4.3.4
 _ZN5KMime7Headers18ContentDispositionD0Ev@Base 4:4.3.4
 _ZN5KMime7Headers18ContentDispositionD1Ev@Base 4:4.3.4
 _ZN5KMime7Headers18ContentDispositionD2Ev@Base 4:4.3.4
 _ZN5KMime7Headers23ContentTransferEncoding10setDecodedEb@Base 4:4.3.4
 _ZN5KMime7Headers23ContentTransferEncoding10staticTypeEv@Base 4:4.5.86
 _ZN5KMime7Headers23ContentTransferEncoding11setEncodingENS0_15contentEncodingE@Base 4:4.3.4
 _ZN5KMime7Headers23ContentTransferEncoding5clearEv@Base 4:4.3.4
 _ZN5KMime7Headers23ContentTransferEncoding5parseERPKcS3_b@Base 4:4.3.4
 _ZN5KMime7Headers23ContentTransferEncodingC1EPNS_7ContentE@Base 4:4.3.4
 _ZN5KMime7Headers23ContentTransferEncodingC1EPNS_7ContentERK10QByteArray@Base 4:4.3.4
 _ZN5KMime7Headers23ContentTransferEncodingC1EPNS_7ContentERK7QStringRK10QByteArray@Base 4:4.3.4
 _ZN5KMime7Headers23ContentTransferEncodingC2EPNS_7ContentE@Base 4:4.3.4
 _ZN5KMime7Headers23ContentTransferEncodingC2EPNS_7ContentERK10QByteArray@Base 4:4.3.4
 _ZN5KMime7Headers23ContentTransferEncodingC2EPNS_7ContentERK7QStringRK10QByteArray@Base 4:4.3.4
 _ZN5KMime7Headers23ContentTransferEncodingD0Ev@Base 4:4.3.4
 _ZN5KMime7Headers23ContentTransferEncodingD1Ev@Base 4:4.3.4
 _ZN5KMime7Headers23ContentTransferEncodingD2Ev@Base 4:4.3.4
 _ZN5KMime7Headers2Cc10staticTypeEv@Base 4:4.5.86
 _ZN5KMime7Headers2CcC1EPNS_7ContentE@Base 4:4.3.4
 _ZN5KMime7Headers2CcC1EPNS_7ContentERK10QByteArray@Base 4:4.3.4
 _ZN5KMime7Headers2CcC1EPNS_7ContentERK7QStringRK10QByteArray@Base 4:4.3.4
 _ZN5KMime7Headers2CcC2EPNS_7ContentE@Base 4:4.3.4
 _ZN5KMime7Headers2CcC2EPNS_7ContentERK10QByteArray@Base 4:4.3.4
 _ZN5KMime7Headers2CcC2EPNS_7ContentERK7QStringRK10QByteArray@Base 4:4.3.4
 _ZN5KMime7Headers2CcD0Ev@Base 4:4.3.4
 _ZN5KMime7Headers2CcD1Ev@Base 4:4.3.4
 _ZN5KMime7Headers2CcD2Ev@Base 4:4.3.4
 _ZN5KMime7Headers2To10staticTypeEv@Base 4:4.5.86
 _ZN5KMime7Headers2ToC1EPNS_7ContentE@Base 4:4.3.4
 _ZN5KMime7Headers2ToC1EPNS_7ContentERK10QByteArray@Base 4:4.3.4
 _ZN5KMime7Headers2ToC1EPNS_7ContentERK7QStringRK10QByteArray@Base 4:4.3.4
 _ZN5KMime7Headers2ToC2EPNS_7ContentE@Base 4:4.3.4
 _ZN5KMime7Headers2ToC2EPNS_7ContentERK10QByteArray@Base 4:4.3.4
 _ZN5KMime7Headers2ToC2EPNS_7ContentERK7QStringRK10QByteArray@Base 4:4.3.4
 _ZN5KMime7Headers2ToD0Ev@Base 4:4.3.4
 _ZN5KMime7Headers2ToD1Ev@Base 4:4.3.4
 _ZN5KMime7Headers2ToD2Ev@Base 4:4.3.4
 _ZN5KMime7Headers3Bcc10staticTypeEv@Base 4:4.5.86
 _ZN5KMime7Headers3BccC1EPNS_7ContentE@Base 4:4.3.4
 _ZN5KMime7Headers3BccC1EPNS_7ContentERK10QByteArray@Base 4:4.3.4
 _ZN5KMime7Headers3BccC1EPNS_7ContentERK7QStringRK10QByteArray@Base 4:4.3.4
 _ZN5KMime7Headers3BccC2EPNS_7ContentE@Base 4:4.3.4
 _ZN5KMime7Headers3BccC2EPNS_7ContentERK10QByteArray@Base 4:4.3.4
 _ZN5KMime7Headers3BccC2EPNS_7ContentERK7QStringRK10QByteArray@Base 4:4.3.4
 _ZN5KMime7Headers3BccD0Ev@Base 4:4.3.4
 _ZN5KMime7Headers3BccD1Ev@Base 4:4.3.4
 _ZN5KMime7Headers3BccD2Ev@Base 4:4.3.4
 _ZN5KMime7Headers4Base17setRFC2047CharsetERK10QByteArray@Base 4:4.3.4
 _ZN5KMime7Headers4Base9setParentEPNS_7ContentE@Base 4:4.3.4
 _ZN5KMime7Headers4BaseC1EPNS0_11BasePrivateEPNS_7ContentE@Base 4:4.3.4
 _ZN5KMime7Headers4BaseC1EPNS_7ContentE@Base 4:4.3.4
 _ZN5KMime7Headers4BaseC2EPNS0_11BasePrivateEPNS_7ContentE@Base 4:4.3.4
 _ZN5KMime7Headers4BaseC2EPNS_7ContentE@Base 4:4.3.4
 _ZN5KMime7Headers4BaseD0Ev@Base 4:4.3.4
 _ZN5KMime7Headers4BaseD1Ev@Base 4:4.3.4
 _ZN5KMime7Headers4BaseD2Ev@Base 4:4.3.4
 _ZN5KMime7Headers4Date10staticTypeEv@Base 4:4.5.86
 _ZN5KMime7Headers4Date11setDateTimeERK9KDateTime@Base 4:4.3.4
 _ZN5KMime7Headers4Date5clearEv@Base 4:4.3.4
 _ZN5KMime7Headers4Date5parseERPKcS3_b@Base 4:4.3.4
 _ZN5KMime7Headers4DateC1EPNS_7ContentE@Base 4:4.3.4
 _ZN5KMime7Headers4DateC1EPNS_7ContentERK10QByteArray@Base 4:4.3.4
 _ZN5KMime7Headers4DateC1EPNS_7ContentERK7QStringRK10QByteArray@Base 4:4.3.4
 _ZN5KMime7Headers4DateC2EPNS_7ContentE@Base 4:4.3.4
 _ZN5KMime7Headers4DateC2EPNS_7ContentERK10QByteArray@Base 4:4.3.4
 _ZN5KMime7Headers4DateC2EPNS_7ContentERK7QStringRK10QByteArray@Base 4:4.3.4
 _ZN5KMime7Headers4DateD0Ev@Base 4:4.3.4
 _ZN5KMime7Headers4DateD1Ev@Base 4:4.3.4
 _ZN5KMime7Headers4DateD2Ev@Base 4:4.3.4
 _ZN5KMime7Headers4From10staticTypeEv@Base 4:4.5.86
 _ZN5KMime7Headers4FromC1EPNS_7ContentE@Base 4:4.3.4
 _ZN5KMime7Headers4FromC1EPNS_7ContentERK10QByteArray@Base 4:4.3.4
 _ZN5KMime7Headers4FromC1EPNS_7ContentERK7QStringRK10QByteArray@Base 4:4.3.4
 _ZN5KMime7Headers4FromC2EPNS_7ContentE@Base 4:4.3.4
 _ZN5KMime7Headers4FromC2EPNS_7ContentERK10QByteArray@Base 4:4.3.4
 _ZN5KMime7Headers4FromC2EPNS_7ContentERK7QStringRK10QByteArray@Base 4:4.3.4
 _ZN5KMime7Headers4FromD0Ev@Base 4:4.3.4
 _ZN5KMime7Headers4FromD1Ev@Base 4:4.3.4
 _ZN5KMime7Headers4FromD2Ev@Base 4:4.3.4
 _ZN5KMime7Headers5Lines10staticTypeEv@Base 4:4.5.86
 _ZN5KMime7Headers5Lines16setNumberOfLinesEi@Base 4:4.3.4
 _ZN5KMime7Headers5Lines5clearEv@Base 4:4.3.4
 _ZN5KMime7Headers5Lines5parseERPKcS3_b@Base 4:4.3.4
 _ZN5KMime7Headers5LinesC1EPNS_7ContentE@Base 4:4.3.4
 _ZN5KMime7Headers5LinesC1EPNS_7ContentERK10QByteArray@Base 4:4.3.4
 _ZN5KMime7Headers5LinesC1EPNS_7ContentERK7QStringRK10QByteArray@Base 4:4.3.4
 _ZN5KMime7Headers5LinesC2EPNS_7ContentE@Base 4:4.3.4
 _ZN5KMime7Headers5LinesC2EPNS_7ContentERK10QByteArray@Base 4:4.3.4
 _ZN5KMime7Headers5LinesC2EPNS_7ContentERK7QStringRK10QByteArray@Base 4:4.3.4
 _ZN5KMime7Headers5LinesD0Ev@Base 4:4.3.4
 _ZN5KMime7Headers5LinesD1Ev@Base 4:4.3.4
 _ZN5KMime7Headers5LinesD2Ev@Base 4:4.3.4
 _ZN5KMime7Headers6Sender10staticTypeEv@Base 4:4.5.86
 _ZN5KMime7Headers6SenderC1EPNS_7ContentE@Base 4:4.3.4
 _ZN5KMime7Headers6SenderC1EPNS_7ContentERK10QByteArray@Base 4:4.3.4
 _ZN5KMime7Headers6SenderC1EPNS_7ContentERK7QStringRK10QByteArray@Base 4:4.3.4
 _ZN5KMime7Headers6SenderC2EPNS_7ContentE@Base 4:4.3.4
 _ZN5KMime7Headers6SenderC2EPNS_7ContentERK10QByteArray@Base 4:4.3.4
 _ZN5KMime7Headers6SenderC2EPNS_7ContentERK7QStringRK10QByteArray@Base 4:4.3.4
 _ZN5KMime7Headers6SenderD0Ev@Base 4:4.3.4
 _ZN5KMime7Headers6SenderD1Ev@Base 4:4.3.4
 _ZN5KMime7Headers6SenderD2Ev@Base 4:4.3.4
 _ZN5KMime7Headers7Control10staticTypeEv@Base 4:4.5.86
 _ZN5KMime7Headers7Control5clearEv@Base 4:4.3.4
 _ZN5KMime7Headers7Control5parseERPKcS3_b@Base 4:4.3.4
 _ZN5KMime7Headers7Control9setCancelERK10QByteArray@Base 4:4.3.4
 _ZN5KMime7Headers7ControlC1EPNS_7ContentE@Base 4:4.3.4
 _ZN5KMime7Headers7ControlC1EPNS_7ContentERK10QByteArray@Base 4:4.3.4
 _ZN5KMime7Headers7ControlC1EPNS_7ContentERK7QStringRK10QByteArray@Base 4:4.3.4
 _ZN5KMime7Headers7ControlC2EPNS_7ContentE@Base 4:4.3.4
 _ZN5KMime7Headers7ControlC2EPNS_7ContentERK10QByteArray@Base 4:4.3.4
 _ZN5KMime7Headers7ControlC2EPNS_7ContentERK7QStringRK10QByteArray@Base 4:4.3.4
 _ZN5KMime7Headers7ControlD0Ev@Base 4:4.3.4
 _ZN5KMime7Headers7ControlD1Ev@Base 4:4.3.4
 _ZN5KMime7Headers7ControlD2Ev@Base 4:4.3.4
 _ZN5KMime7Headers7Generic5clearEv@Base 4:4.3.4
 _ZN5KMime7Headers7Generic7setTypeEPKc@Base 4:4.3.4
 _ZN5KMime7Headers7GenericC1EPKc@Base 4:4.3.4
 _ZN5KMime7Headers7GenericC1EPKcPNS_7ContentE@Base 4:4.3.4
 _ZN5KMime7Headers7GenericC1EPKcPNS_7ContentERK10QByteArray@Base 4:4.3.4
 _ZN5KMime7Headers7GenericC1EPKcPNS_7ContentERK7QStringRK10QByteArray@Base 4:4.3.4
 _ZN5KMime7Headers7GenericC1Ev@Base 4:4.3.4
 _ZN5KMime7Headers7GenericC2EPKc@Base 4:4.3.4
 _ZN5KMime7Headers7GenericC2EPKcPNS_7ContentE@Base 4:4.3.4
 _ZN5KMime7Headers7GenericC2EPKcPNS_7ContentERK10QByteArray@Base 4:4.3.4
 _ZN5KMime7Headers7GenericC2EPKcPNS_7ContentERK7QStringRK10QByteArray@Base 4:4.3.4
 _ZN5KMime7Headers7GenericC2Ev@Base 4:4.3.4
 _ZN5KMime7Headers7GenericD0Ev@Base 4:4.3.4
 _ZN5KMime7Headers7GenericD1Ev@Base 4:4.3.4
 _ZN5KMime7Headers7GenericD2Ev@Base 4:4.3.4
 _ZN5KMime7Headers7ReplyTo10staticTypeEv@Base 4:4.5.86
 _ZN5KMime7Headers7ReplyToC1EPNS_7ContentE@Base 4:4.3.4
 _ZN5KMime7Headers7ReplyToC1EPNS_7ContentERK10QByteArray@Base 4:4.3.4
 _ZN5KMime7Headers7ReplyToC1EPNS_7ContentERK7QStringRK10QByteArray@Base 4:4.3.4
 _ZN5KMime7Headers7ReplyToC2EPNS_7ContentE@Base 4:4.3.4
 _ZN5KMime7Headers7ReplyToC2EPNS_7ContentERK10QByteArray@Base 4:4.3.4
 _ZN5KMime7Headers7ReplyToC2EPNS_7ContentERK7QStringRK10QByteArray@Base 4:4.3.4
 _ZN5KMime7Headers7ReplyToD0Ev@Base 4:4.3.4
 _ZN5KMime7Headers7ReplyToD1Ev@Base 4:4.3.4
 _ZN5KMime7Headers7ReplyToD2Ev@Base 4:4.3.4
 _ZN5KMime7Headers7Subject10staticTypeEv@Base 4:4.5.86
 _ZN5KMime7Headers7SubjectC1EPNS_7ContentE@Base 4:4.3.4
 _ZN5KMime7Headers7SubjectC1EPNS_7ContentERK10QByteArray@Base 4:4.3.4
 _ZN5KMime7Headers7SubjectC1EPNS_7ContentERK7QStringRK10QByteArray@Base 4:4.3.4
 _ZN5KMime7Headers7SubjectC2EPNS_7ContentE@Base 4:4.3.4
 _ZN5KMime7Headers7SubjectC2EPNS_7ContentERK10QByteArray@Base 4:4.3.4
 _ZN5KMime7Headers7SubjectC2EPNS_7ContentERK7QStringRK10QByteArray@Base 4:4.3.4
 _ZN5KMime7Headers7SubjectD0Ev@Base 4:4.3.4
 _ZN5KMime7Headers7SubjectD1Ev@Base 4:4.3.4
 _ZN5KMime7Headers7SubjectD2Ev@Base 4:4.3.4
 _ZN5KMime7Headers8Generics10PhraseList5clearEv@Base 4:4.3.4
 _ZN5KMime7Headers8Generics10PhraseList5parseERPKcS4_b@Base 4:4.3.4
 _ZN5KMime7Headers8Generics10PhraseListC1EPNS_7ContentE@Base 4:4.3.4
 _ZN5KMime7Headers8Generics10PhraseListC1EPNS_7ContentERK10QByteArray@Base 4:4.3.4
 _ZN5KMime7Headers8Generics10PhraseListC1EPNS_7ContentERK7QStringRK10QByteArray@Base 4:4.3.4
 _ZN5KMime7Headers8Generics10PhraseListC2EPNS_7ContentE@Base 4:4.3.4
 _ZN5KMime7Headers8Generics10PhraseListC2EPNS_7ContentERK10QByteArray@Base 4:4.3.4
 _ZN5KMime7Headers8Generics10PhraseListC2EPNS_7ContentERK7QStringRK10QByteArray@Base 4:4.3.4
 _ZN5KMime7Headers8Generics10PhraseListD0Ev@Base 4:4.3.4
 _ZN5KMime7Headers8Generics10PhraseListD1Ev@Base 4:4.3.4
 _ZN5KMime7Headers8Generics10PhraseListD2Ev@Base 4:4.3.4
 _ZN5KMime7Headers8Generics10Structured14from7BitStringERK10QByteArray@Base 4:4.3.4
 _ZN5KMime7Headers8Generics10Structured17fromUnicodeStringERK7QStringRK10QByteArray@Base 4:4.3.4
 _ZN5KMime7Headers8Generics10StructuredC1EPNS1_17StructuredPrivateEPNS_7ContentE@Base 4:4.3.4
 _ZN5KMime7Headers8Generics10StructuredC1EPNS_7ContentE@Base 4:4.3.4
 _ZN5KMime7Headers8Generics10StructuredC1EPNS_7ContentERK10QByteArray@Base 4:4.3.4
 _ZN5KMime7Headers8Generics10StructuredC1EPNS_7ContentERK7QStringRK10QByteArray@Base 4:4.3.4
 _ZN5KMime7Headers8Generics10StructuredC2EPNS1_17StructuredPrivateEPNS_7ContentE@Base 4:4.3.4
 _ZN5KMime7Headers8Generics10StructuredC2EPNS_7ContentE@Base 4:4.3.4
 _ZN5KMime7Headers8Generics10StructuredC2EPNS_7ContentERK10QByteArray@Base 4:4.3.4
 _ZN5KMime7Headers8Generics10StructuredC2EPNS_7ContentERK7QStringRK10QByteArray@Base 4:4.3.4
 _ZN5KMime7Headers8Generics10StructuredD0Ev@Base 4:4.3.4
 _ZN5KMime7Headers8Generics10StructuredD1Ev@Base 4:4.3.4
 _ZN5KMime7Headers8Generics10StructuredD2Ev@Base 4:4.3.4
 _ZN5KMime7Headers8Generics11AddressList10addAddressERK10QByteArrayRK7QString@Base 4:4.3.4
 _ZN5KMime7Headers8Generics11AddressList10addAddressERKNS_5Types7MailboxE@Base 4:4.3.4
 _ZN5KMime7Headers8Generics11AddressList17fromUnicodeStringERK7QStringRK10QByteArray@Base 4:4.3.4
 _ZN5KMime7Headers8Generics11AddressList5clearEv@Base 4:4.3.4
 _ZN5KMime7Headers8Generics11AddressList5parseERPKcS4_b@Base 4:4.3.4
 _ZN5KMime7Headers8Generics11AddressListC1EPNS1_18AddressListPrivateEPNS_7ContentE@Base 4:4.3.4
 _ZN5KMime7Headers8Generics11AddressListC1EPNS_7ContentE@Base 4:4.3.4
 _ZN5KMime7Headers8Generics11AddressListC1EPNS_7ContentERK10QByteArray@Base 4:4.3.4
 _ZN5KMime7Headers8Generics11AddressListC1EPNS_7ContentERK7QStringRK10QByteArray@Base 4:4.3.4
 _ZN5KMime7Headers8Generics11AddressListC2EPNS1_18AddressListPrivateEPNS_7ContentE@Base 4:4.3.4
 _ZN5KMime7Headers8Generics11AddressListC2EPNS_7ContentE@Base 4:4.3.4
 _ZN5KMime7Headers8Generics11AddressListC2EPNS_7ContentERK10QByteArray@Base 4:4.3.4
 _ZN5KMime7Headers8Generics11AddressListC2EPNS_7ContentERK7QStringRK10QByteArray@Base 4:4.3.4
 _ZN5KMime7Headers8Generics11AddressListD0Ev@Base 4:4.3.4
 _ZN5KMime7Headers8Generics11AddressListD1Ev@Base 4:4.3.4
 _ZN5KMime7Headers8Generics11AddressListD2Ev@Base 4:4.3.4
 _ZN5KMime7Headers8Generics11MailboxList10addAddressERK10QByteArrayRK7QString@Base 4:4.3.4
 _ZN5KMime7Headers8Generics11MailboxList10addAddressERKNS_5Types7MailboxE@Base 4:4.3.4
 _ZN5KMime7Headers8Generics11MailboxList17fromUnicodeStringERK7QStringRK10QByteArray@Base 4:4.3.4
 _ZN5KMime7Headers8Generics11MailboxList5clearEv@Base 4:4.3.4
 _ZN5KMime7Headers8Generics11MailboxList5parseERPKcS4_b@Base 4:4.3.4
 _ZN5KMime7Headers8Generics11MailboxListC1EPNS1_18MailboxListPrivateEPNS_7ContentE@Base 4:4.3.4
 _ZN5KMime7Headers8Generics11MailboxListC1EPNS_7ContentE@Base 4:4.3.4
 _ZN5KMime7Headers8Generics11MailboxListC1EPNS_7ContentERK10QByteArray@Base 4:4.3.4
 _ZN5KMime7Headers8Generics11MailboxListC1EPNS_7ContentERK7QStringRK10QByteArray@Base 4:4.3.4
 _ZN5KMime7Headers8Generics11MailboxListC2EPNS1_18MailboxListPrivateEPNS_7ContentE@Base 4:4.3.4
 _ZN5KMime7Headers8Generics11MailboxListC2EPNS_7ContentE@Base 4:4.3.4
 _ZN5KMime7Headers8Generics11MailboxListC2EPNS_7ContentERK10QByteArray@Base 4:4.3.4
 _ZN5KMime7Headers8Generics11MailboxListC2EPNS_7ContentERK7QStringRK10QByteArray@Base 4:4.3.4
 _ZN5KMime7Headers8Generics11MailboxListD0Ev@Base 4:4.3.4
 _ZN5KMime7Headers8Generics11MailboxListD1Ev@Base 4:4.3.4
 _ZN5KMime7Headers8Generics11MailboxListD2Ev@Base 4:4.3.4
 _ZN5KMime7Headers8Generics11SingleIdent13setIdentifierERK10QByteArray@Base 4:4.3.4
 _ZN5KMime7Headers8Generics11SingleIdent5parseERPKcS4_b@Base 4:4.3.4
 _ZN5KMime7Headers8Generics11SingleIdentC1EPNS1_18SingleIdentPrivateEPNS_7ContentE@Base 4:4.4.0
 _ZN5KMime7Headers8Generics11SingleIdentC1EPNS_7ContentE@Base 4:4.3.4
 _ZN5KMime7Headers8Generics11SingleIdentC1EPNS_7ContentERK10QByteArray@Base 4:4.3.4
 _ZN5KMime7Headers8Generics11SingleIdentC1EPNS_7ContentERK7QStringRK10QByteArray@Base 4:4.3.4
 _ZN5KMime7Headers8Generics11SingleIdentC2EPNS1_18SingleIdentPrivateEPNS_7ContentE@Base 4:4.4.0
 _ZN5KMime7Headers8Generics11SingleIdentC2EPNS_7ContentE@Base 4:4.3.4
 _ZN5KMime7Headers8Generics11SingleIdentC2EPNS_7ContentERK10QByteArray@Base 4:4.3.4
 _ZN5KMime7Headers8Generics11SingleIdentC2EPNS_7ContentERK7QStringRK10QByteArray@Base 4:4.3.4
 _ZN5KMime7Headers8Generics11SingleIdentD0Ev@Base 4:4.3.4
 _ZN5KMime7Headers8Generics11SingleIdentD1Ev@Base 4:4.3.4
 _ZN5KMime7Headers8Generics11SingleIdentD2Ev@Base 4:4.3.4
 _ZN5KMime7Headers8Generics12Parametrized12setParameterERK7QStringS5_@Base 4:4.3.4
 _ZN5KMime7Headers8Generics12Parametrized5clearEv@Base 4:4.3.4
 _ZN5KMime7Headers8Generics12Parametrized5parseERPKcS4_b@Base 4:4.3.4
 _ZN5KMime7Headers8Generics12ParametrizedC1EPNS1_19ParametrizedPrivateEPNS_7ContentE@Base 4:4.3.4
 _ZN5KMime7Headers8Generics12ParametrizedC1EPNS_7ContentE@Base 4:4.3.4
 _ZN5KMime7Headers8Generics12ParametrizedC1EPNS_7ContentERK10QByteArray@Base 4:4.3.4
 _ZN5KMime7Headers8Generics12ParametrizedC1EPNS_7ContentERK7QStringRK10QByteArray@Base 4:4.3.4
 _ZN5KMime7Headers8Generics12ParametrizedC2EPNS1_19ParametrizedPrivateEPNS_7ContentE@Base 4:4.3.4
 _ZN5KMime7Headers8Generics12ParametrizedC2EPNS_7ContentE@Base 4:4.3.4
 _ZN5KMime7Headers8Generics12ParametrizedC2EPNS_7ContentERK10QByteArray@Base 4:4.3.4
 _ZN5KMime7Headers8Generics12ParametrizedC2EPNS_7ContentERK7QStringRK10QByteArray@Base 4:4.3.4
 _ZN5KMime7Headers8Generics12ParametrizedD0Ev@Base 4:4.3.4
 _ZN5KMime7Headers8Generics12ParametrizedD1Ev@Base 4:4.3.4
 _ZN5KMime7Headers8Generics12ParametrizedD2Ev@Base 4:4.3.4
 _ZN5KMime7Headers8Generics12Unstructured14from7BitStringERK10QByteArray@Base 4:4.3.4
 _ZN5KMime7Headers8Generics12Unstructured17fromUnicodeStringERK7QStringRK10QByteArray@Base 4:4.3.4
 _ZN5KMime7Headers8Generics12Unstructured5clearEv@Base 4:4.3.4
 _ZN5KMime7Headers8Generics12UnstructuredC1EPNS1_19UnstructuredPrivateEPNS_7ContentE@Base 4:4.3.4
 _ZN5KMime7Headers8Generics12UnstructuredC1EPNS_7ContentE@Base 4:4.3.4
 _ZN5KMime7Headers8Generics12UnstructuredC1EPNS_7ContentERK10QByteArray@Base 4:4.3.4
 _ZN5KMime7Headers8Generics12UnstructuredC1EPNS_7ContentERK7QStringRK10QByteArray@Base 4:4.3.4
 _ZN5KMime7Headers8Generics12UnstructuredC2EPNS1_19UnstructuredPrivateEPNS_7ContentE@Base 4:4.3.4
 _ZN5KMime7Headers8Generics12UnstructuredC2EPNS_7ContentE@Base 4:4.3.4
 _ZN5KMime7Headers8Generics12UnstructuredC2EPNS_7ContentERK10QByteArray@Base 4:4.3.4
 _ZN5KMime7Headers8Generics12UnstructuredC2EPNS_7ContentERK7QStringRK10QByteArray@Base 4:4.3.4
 _ZN5KMime7Headers8Generics12UnstructuredD0Ev@Base 4:4.3.4
 _ZN5KMime7Headers8Generics12UnstructuredD1Ev@Base 4:4.3.4
 _ZN5KMime7Headers8Generics12UnstructuredD2Ev@Base 4:4.3.4
 _ZN5KMime7Headers8Generics13SingleMailbox5parseERPKcS4_b@Base 4:4.3.4
 _ZN5KMime7Headers8Generics13SingleMailboxC1EPNS_7ContentE@Base 4:4.3.4
 _ZN5KMime7Headers8Generics13SingleMailboxC1EPNS_7ContentERK10QByteArray@Base 4:4.3.4
 _ZN5KMime7Headers8Generics13SingleMailboxC1EPNS_7ContentERK7QStringRK10QByteArray@Base 4:4.3.4
 _ZN5KMime7Headers8Generics13SingleMailboxC2EPNS_7ContentE@Base 4:4.3.4
 _ZN5KMime7Headers8Generics13SingleMailboxC2EPNS_7ContentERK10QByteArray@Base 4:4.3.4
 _ZN5KMime7Headers8Generics13SingleMailboxC2EPNS_7ContentERK7QStringRK10QByteArray@Base 4:4.3.4
 _ZN5KMime7Headers8Generics13SingleMailboxD0Ev@Base 4:4.3.4
 _ZN5KMime7Headers8Generics13SingleMailboxD1Ev@Base 4:4.3.4
 _ZN5KMime7Headers8Generics13SingleMailboxD2Ev@Base 4:4.3.4
 _ZN5KMime7Headers8Generics5Ident16appendIdentifierERK10QByteArray@Base 4:4.3.4
 _ZN5KMime7Headers8Generics5Ident5clearEv@Base 4:4.3.4
 _ZN5KMime7Headers8Generics5Ident5parseERPKcS4_b@Base 4:4.3.4
 _ZN5KMime7Headers8Generics5IdentC1EPNS1_12IdentPrivateEPNS_7ContentE@Base 4:4.3.4
 _ZN5KMime7Headers8Generics5IdentC1EPNS_7ContentE@Base 4:4.3.4
 _ZN5KMime7Headers8Generics5IdentC1EPNS_7ContentERK10QByteArray@Base 4:4.3.4
 _ZN5KMime7Headers8Generics5IdentC1EPNS_7ContentERK7QStringRK10QByteArray@Base 4:4.3.4
 _ZN5KMime7Headers8Generics5IdentC2EPNS1_12IdentPrivateEPNS_7ContentE@Base 4:4.3.4
 _ZN5KMime7Headers8Generics5IdentC2EPNS_7ContentE@Base 4:4.3.4
 _ZN5KMime7Headers8Generics5IdentC2EPNS_7ContentERK10QByteArray@Base 4:4.3.4
 _ZN5KMime7Headers8Generics5IdentC2EPNS_7ContentERK7QStringRK10QByteArray@Base 4:4.3.4
 _ZN5KMime7Headers8Generics5IdentD0Ev@Base 4:4.3.4
 _ZN5KMime7Headers8Generics5IdentD1Ev@Base 4:4.3.4
 _ZN5KMime7Headers8Generics5IdentD2Ev@Base 4:4.3.4
 _ZN5KMime7Headers8Generics5Token5clearEv@Base 4:4.3.4
 _ZN5KMime7Headers8Generics5Token5parseERPKcS4_b@Base 4:4.3.4
 _ZN5KMime7Headers8Generics5Token8setTokenERK10QByteArray@Base 4:4.3.4
 _ZN5KMime7Headers8Generics5TokenC1EPNS1_12TokenPrivateEPNS_7ContentE@Base 4:4.3.4
 _ZN5KMime7Headers8Generics5TokenC1EPNS_7ContentE@Base 4:4.3.4
 _ZN5KMime7Headers8Generics5TokenC1EPNS_7ContentERK10QByteArray@Base 4:4.3.4
 _ZN5KMime7Headers8Generics5TokenC1EPNS_7ContentERK7QStringRK10QByteArray@Base 4:4.3.4
 _ZN5KMime7Headers8Generics5TokenC2EPNS1_12TokenPrivateEPNS_7ContentE@Base 4:4.3.4
 _ZN5KMime7Headers8Generics5TokenC2EPNS_7ContentE@Base 4:4.3.4
 _ZN5KMime7Headers8Generics5TokenC2EPNS_7ContentERK10QByteArray@Base 4:4.3.4
 _ZN5KMime7Headers8Generics5TokenC2EPNS_7ContentERK7QStringRK10QByteArray@Base 4:4.3.4
 _ZN5KMime7Headers8Generics5TokenD0Ev@Base 4:4.3.4
 _ZN5KMime7Headers8Generics5TokenD1Ev@Base 4:4.3.4
 _ZN5KMime7Headers8Generics5TokenD2Ev@Base 4:4.3.4
 _ZN5KMime7Headers8Generics7AddressC1EPNS1_14AddressPrivateEPNS_7ContentE@Base 4:4.3.4
 _ZN5KMime7Headers8Generics7AddressC1EPNS_7ContentE@Base 4:4.3.4
 _ZN5KMime7Headers8Generics7AddressC1EPNS_7ContentERK10QByteArray@Base 4:4.3.4
 _ZN5KMime7Headers8Generics7AddressC1EPNS_7ContentERK7QStringRK10QByteArray@Base 4:4.3.4
 _ZN5KMime7Headers8Generics7AddressC2EPNS1_14AddressPrivateEPNS_7ContentE@Base 4:4.3.4
 _ZN5KMime7Headers8Generics7AddressC2EPNS_7ContentE@Base 4:4.3.4
 _ZN5KMime7Headers8Generics7AddressC2EPNS_7ContentERK10QByteArray@Base 4:4.3.4
 _ZN5KMime7Headers8Generics7AddressC2EPNS_7ContentERK7QStringRK10QByteArray@Base 4:4.3.4
 _ZN5KMime7Headers8Generics7AddressD0Ev@Base 4:4.3.4
 _ZN5KMime7Headers8Generics7AddressD1Ev@Base 4:4.3.4
 _ZN5KMime7Headers8Generics7AddressD2Ev@Base 4:4.3.4
 _ZN5KMime7Headers8Generics7DotAtom5clearEv@Base 4:4.3.4
 _ZN5KMime7Headers8Generics7DotAtom5parseERPKcS4_b@Base 4:4.3.4
 _ZN5KMime7Headers8Generics7DotAtomC1EPNS_7ContentE@Base 4:4.3.4
 _ZN5KMime7Headers8Generics7DotAtomC1EPNS_7ContentERK10QByteArray@Base 4:4.3.4
 _ZN5KMime7Headers8Generics7DotAtomC1EPNS_7ContentERK7QStringRK10QByteArray@Base 4:4.3.4
 _ZN5KMime7Headers8Generics7DotAtomC2EPNS_7ContentE@Base 4:4.3.4
 _ZN5KMime7Headers8Generics7DotAtomC2EPNS_7ContentERK10QByteArray@Base 4:4.3.4
 _ZN5KMime7Headers8Generics7DotAtomC2EPNS_7ContentERK7QStringRK10QByteArray@Base 4:4.3.4
 _ZN5KMime7Headers8Generics7DotAtomD0Ev@Base 4:4.3.4
 _ZN5KMime7Headers8Generics7DotAtomD1Ev@Base 4:4.3.4
 _ZN5KMime7Headers8Generics7DotAtomD2Ev@Base 4:4.3.4
 _ZN5KMime7Headers8Keywords10staticTypeEv@Base 4:4.5.86
 _ZN5KMime7Headers8KeywordsC1EPNS_7ContentE@Base 4:4.3.4
 _ZN5KMime7Headers8KeywordsC1EPNS_7ContentERK10QByteArray@Base 4:4.3.4
 _ZN5KMime7Headers8KeywordsC1EPNS_7ContentERK7QStringRK10QByteArray@Base 4:4.3.4
 _ZN5KMime7Headers8KeywordsC2EPNS_7ContentE@Base 4:4.3.4
 _ZN5KMime7Headers8KeywordsC2EPNS_7ContentERK10QByteArray@Base 4:4.3.4
 _ZN5KMime7Headers8KeywordsC2EPNS_7ContentERK7QStringRK10QByteArray@Base 4:4.3.4
 _ZN5KMime7Headers8KeywordsD0Ev@Base 4:4.3.4
 _ZN5KMime7Headers8KeywordsD1Ev@Base 4:4.3.4
 _ZN5KMime7Headers8KeywordsD2Ev@Base 4:4.3.4
 _ZN5KMime7Headers9ContentID10staticTypeEv@Base 4:4.5.86
 _ZN5KMime7Headers9ContentID5parseERPKcS3_b@Base 4:4.4.0
 _ZN5KMime7Headers9ContentIDC1EPNS0_16ContentIDPrivateEPNS_7ContentE@Base 4:4.4.0
 _ZN5KMime7Headers9ContentIDC1EPNS_7ContentE@Base 4:4.3.4
 _ZN5KMime7Headers9ContentIDC1EPNS_7ContentERK10QByteArray@Base 4:4.3.4
 _ZN5KMime7Headers9ContentIDC1EPNS_7ContentERK7QStringRK10QByteArray@Base 4:4.3.4
 _ZN5KMime7Headers9ContentIDC2EPNS0_16ContentIDPrivateEPNS_7ContentE@Base 4:4.4.0
 _ZN5KMime7Headers9ContentIDC2EPNS_7ContentE@Base 4:4.3.4
 _ZN5KMime7Headers9ContentIDC2EPNS_7ContentERK10QByteArray@Base 4:4.3.4
 _ZN5KMime7Headers9ContentIDC2EPNS_7ContentERK7QStringRK10QByteArray@Base 4:4.3.4
 _ZN5KMime7Headers9ContentIDD0Ev@Base 4:4.3.4
 _ZN5KMime7Headers9ContentIDD1Ev@Base 4:4.3.4
 _ZN5KMime7Headers9ContentIDD2Ev@Base 4:4.3.4
 _ZN5KMime7Headers9InReplyTo10staticTypeEv@Base 4:4.5.86
 _ZN5KMime7Headers9InReplyToC1EPNS_7ContentE@Base 4:4.3.4
 _ZN5KMime7Headers9InReplyToC1EPNS_7ContentERK10QByteArray@Base 4:4.3.4
 _ZN5KMime7Headers9InReplyToC1EPNS_7ContentERK7QStringRK10QByteArray@Base 4:4.3.4
 _ZN5KMime7Headers9InReplyToC2EPNS_7ContentE@Base 4:4.3.4
 _ZN5KMime7Headers9InReplyToC2EPNS_7ContentERK10QByteArray@Base 4:4.3.4
 _ZN5KMime7Headers9InReplyToC2EPNS_7ContentERK7QStringRK10QByteArray@Base 4:4.3.4
 _ZN5KMime7Headers9InReplyToD0Ev@Base 4:4.3.4
 _ZN5KMime7Headers9InReplyToD1Ev@Base 4:4.3.4
 _ZN5KMime7Headers9InReplyToD2Ev@Base 4:4.3.4
 _ZN5KMime7Headers9MessageID10staticTypeEv@Base 4:4.5.86
 _ZN5KMime7Headers9MessageID8generateERK10QByteArray@Base 4:4.3.4
 _ZN5KMime7Headers9MessageIDC1EPNS_7ContentE@Base 4:4.3.4
 _ZN5KMime7Headers9MessageIDC1EPNS_7ContentERK10QByteArray@Base 4:4.3.4
 _ZN5KMime7Headers9MessageIDC1EPNS_7ContentERK7QStringRK10QByteArray@Base 4:4.3.4
 _ZN5KMime7Headers9MessageIDC2EPNS_7ContentE@Base 4:4.3.4
 _ZN5KMime7Headers9MessageIDC2EPNS_7ContentERK10QByteArray@Base 4:4.3.4
 _ZN5KMime7Headers9MessageIDC2EPNS_7ContentERK7QStringRK10QByteArray@Base 4:4.3.4
 _ZN5KMime7Headers9MessageIDD0Ev@Base 4:4.3.4
 _ZN5KMime7Headers9MessageIDD1Ev@Base 4:4.3.4
 _ZN5KMime7Headers9MessageIDD2Ev@Base 4:4.3.4
 _ZN5KMime7Headers9UserAgent10staticTypeEv@Base 4:4.5.86
 _ZN5KMime7Headers9UserAgentC1EPNS_7ContentE@Base 4:4.3.4
 _ZN5KMime7Headers9UserAgentC1EPNS_7ContentERK10QByteArray@Base 4:4.3.4
 _ZN5KMime7Headers9UserAgentC1EPNS_7ContentERK7QStringRK10QByteArray@Base 4:4.3.4
 _ZN5KMime7Headers9UserAgentC2EPNS_7ContentE@Base 4:4.3.4
 _ZN5KMime7Headers9UserAgentC2EPNS_7ContentERK10QByteArray@Base 4:4.3.4
 _ZN5KMime7Headers9UserAgentC2EPNS_7ContentERK7QStringRK10QByteArray@Base 4:4.3.4
 _ZN5KMime7Headers9UserAgentD0Ev@Base 4:4.3.4
 _ZN5KMime7Headers9UserAgentD1Ev@Base 4:4.3.4
 _ZN5KMime7Headers9UserAgentD2Ev@Base 4:4.3.4
 _ZN5KMime7Message10referencesEb@Base 4:4.3.4
 _ZN5KMime7Message12headerByTypeEPKc@Base 4:4.3.4
 _ZN5KMime7Message12mainBodyPartERK10QByteArray@Base 4:4.3.4
 _ZN5KMime7Message12organizationEb@Base 4:4.3.4
 _ZN5KMime7Message12removeHeaderEPKc@Base 4:4.3.4
 _ZN5KMime7Message15assembleHeadersEv@Base 4:4.3.4
 _ZN5KMime7Message15getHeaderByTypeEPKc@Base 4:4.3.4
 _ZN5KMime7Message2ccEb@Base 4:4.3.4
 _ZN5KMime7Message2toEb@Base 4:4.3.4
 _ZN5KMime7Message3bccEb@Base 4:4.3.4
 _ZN5KMime7Message4dateEb@Base 4:4.3.4
 _ZN5KMime7Message4fromEb@Base 4:4.3.4
 _ZN5KMime7Message5clearEv@Base 4:4.3.4
 _ZN5KMime7Message5parseEv@Base 4:4.3.4
 _ZN5KMime7Message6senderEb@Base 4:4.3.4
 _ZN5KMime7Message7replyToEb@Base 4:4.3.4
 _ZN5KMime7Message7subjectEb@Base 4:4.3.4
 _ZN5KMime7Message8mimeTypeEv@Base 4:4.4.0
 _ZN5KMime7Message9inReplyToEb@Base 4:4.3.4
 _ZN5KMime7Message9messageIDEb@Base 4:4.3.4
 _ZN5KMime7Message9setHeaderEPNS_7Headers4BaseE@Base 4:4.3.4
 _ZN5KMime7Message9userAgentEb@Base 4:4.3.4
 _ZN5KMime7MessageC1EPNS_14MessagePrivateE@Base 4:4.3.4
 _ZN5KMime7MessageC1Ev@Base 4:4.3.4
 _ZN5KMime7MessageC2EPNS_14MessagePrivateE@Base 4:4.3.4
 _ZN5KMime7MessageC2Ev@Base 4:4.3.4
 _ZN5KMime7MessageD0Ev@Base 4:4.3.4
 _ZN5KMime7MessageD1Ev@Base 4:4.3.4
 _ZN5KMime7MessageD2Ev@Base 4:4.3.4
 _ZN5KMime8CRLFtoLFEPKc@Base 4:4.5.0
 _ZN5KMime8CRLFtoLFERK10QByteArray@Base 4:4.3.4
 _ZN5KMime8CharFreq5countEPKcm@Base 4:4.3.4
 _ZN5KMime8CharFreqC1EPKcm@Base 4:4.3.4
 _ZN5KMime8CharFreqC1ERK10QByteArray@Base 4:4.3.4
 _ZN5KMime8CharFreqC2EPKcm@Base 4:4.3.4
 _ZN5KMime8CharFreqC2ERK10QByteArray@Base 4:4.3.4
 _ZN5KMime8LFtoCRLFERK10QByteArray@Base 4:4.3.4
 _ZN5KMime8isSignedEPNS_7MessageE@Base 4:4.5.86
 _ZN5KMime9BoolFlags3getEj@Base 4:4.3.4
 _ZN5KMime9BoolFlags3setEjb@Base 4:4.3.4
 _ZN5KMime9addQuotesER10QByteArrayb@Base 4:4.3.4
 _ZN5KMime9addQuotesER7QStringb@Base 4:4.5.0
 _ZN5KMime9isUsAsciiERK7QString@Base 4:4.3.4
 _ZNK5KMime11Base64Codec11makeDecoderEb@Base 4:4.3.4
 _ZNK5KMime11Base64Codec11makeEncoderEb@Base 4:4.3.4
 _ZNK5KMime12ContentIndex7isValidEv@Base 4:4.3.4
 _ZNK5KMime12ContentIndex8toStringEv@Base 4:4.3.4
 _ZNK5KMime12ContentIndexeqERKS0_@Base 4:4.3.4
 _ZNK5KMime12ContentIndexneERKS0_@Base 4:4.3.4
 _ZNK5KMime13DateFormatter10dateStringERK9QDateTimeRK7QStringbb@Base 4:4.3.4
 _ZNK5KMime13DateFormatter10dateStringElRK7QStringbb@Base 4:4.3.4
 _ZNK5KMime13DateFormatter12customFormatEv@Base 4:4.3.4
 _ZNK5KMime13DateFormatter12qdateToTimeTERK9QDateTime@Base 4:4.3.4
 _ZNK5KMime13DateFormatter4zoneEl@Base 4:4.3.4
 _ZNK5KMime13DateFormatter5cTimeEl@Base 4:4.3.4
 _ZNK5KMime13DateFormatter5fancyEl@Base 4:4.3.4
 _ZNK5KMime13DateFormatter6customEl@Base 4:4.3.4
 _ZNK5KMime13DateFormatter6formatEv@Base 4:4.3.4
 _ZNK5KMime13DateFormatter7isoDateEl@Base 4:4.3.4
 _ZNK5KMime13DateFormatter7rfc2822El@Base 4:4.3.4
 _ZNK5KMime13DateFormatter9localizedElbbRK7QString@Base 4:4.3.4
 _ZNK5KMime13IdentityCodec11makeDecoderEb@Base 4:4.3.4
 _ZNK5KMime13IdentityCodec11makeEncoderEb@Base 4:4.3.4
 _ZNK5KMime13IdentityCodec6decodeERK10QByteArrayb@Base 4:4.3.4
 _ZNK5KMime13IdentityCodec6encodeERK10QByteArrayb@Base 4:4.3.4
 _ZNK5KMime20QuotedPrintableCodec11makeDecoderEb@Base 4:4.3.4
 _ZNK5KMime20QuotedPrintableCodec11makeEncoderEb@Base 4:4.3.4
 _ZNK5KMime20QuotedPrintableCodec17maxDecodedSizeForEib@Base 4:4.3.4
 _ZNK5KMime20Rfc2231EncodingCodec11makeDecoderEb@Base 4:4.3.4
 _ZNK5KMime20Rfc2231EncodingCodec11makeEncoderEb@Base 4:4.3.4
 _ZNK5KMime20Rfc2231EncodingCodec17maxDecodedSizeForEib@Base 4:4.3.4
 _ZNK5KMime21Rfc2047BEncodingCodec11makeEncoderEb@Base 4:4.3.4
 _ZNK5KMime21Rfc2047QEncodingCodec11makeDecoderEb@Base 4:4.3.4
 _ZNK5KMime21Rfc2047QEncodingCodec11makeEncoderEb@Base 4:4.3.4
 _ZNK5KMime21Rfc2047QEncodingCodec17maxDecodedSizeForEib@Base 4:4.3.4
 _ZNK5KMime5Codec6decodeERK10QByteArrayb@Base 4:4.3.4
 _ZNK5KMime5Codec6decodeERPKcS2_RPcS2_b@Base 4:4.3.4
 _ZNK5KMime5Codec6encodeERK10QByteArrayb@Base 4:4.3.4
 _ZNK5KMime5Codec6encodeERPKcS2_RPcS2_b@Base 4:4.3.4
 _ZNK5KMime5Types7Mailbox10hasAddressEv@Base 4:4.3.4
 _ZNK5KMime5Types7Mailbox12as7BitStringERK10QByteArray@Base 4:4.3.4
 _ZNK5KMime5Types7Mailbox13prettyAddressENS1_7QuotingE@Base 4:4.5.0
 _ZNK5KMime5Types7Mailbox13prettyAddressEv@Base 4:4.3.4
 _ZNK5KMime5Types7Mailbox4nameEv@Base 4:4.3.4
 _ZNK5KMime5Types7Mailbox7addressEv@Base 4:4.3.4
 _ZNK5KMime5Types7Mailbox7hasNameEv@Base 4:4.3.4
 _ZNK5KMime5Types7Mailbox8addrSpecEv@Base 4:4.3.4
 _ZNK5KMime5Types8AddrSpec14asPrettyStringEv@Base 4:4.3.4
 _ZNK5KMime5Types8AddrSpec7isEmptyEv@Base 4:4.3.4
 _ZNK5KMime5Types8AddrSpec8asStringEv@Base 4:4.3.4
 _ZNK5KMime7Content10hasContentEv@Base 4:4.3.4
 _ZNK5KMime7Content10isTopLevelEv@Base 4:4.3.4
 _ZNK5KMime7Content10rawHeadersEPKc@Base 4:4.3.4
 _ZNK5KMime7Content11storageSizeEv@Base 4:4.3.4
 _ZNK5KMime7Content13bodyAsMessageEv@Base 4:4.5.0
 _ZNK5KMime7Content13bodyIsMessageEv@Base 4:4.5.0
 _ZNK5KMime7Content14defaultCharsetEv@Base 4:4.3.4
 _ZNK5KMime7Content15indexForContentEPS0_@Base 4:4.3.4
 _ZNK5KMime7Content19forceDefaultCharsetEv@Base 4:4.3.4
 _ZNK5KMime7Content4bodyEv@Base 4:4.3.4
 _ZNK5KMime7Content4headEv@Base 4:4.3.4
 _ZNK5KMime7Content5indexEv@Base 4:4.3.4
 _ZNK5KMime7Content6parentEv@Base 4:4.3.4
 _ZNK5KMime7Content7contentERKNS_12ContentIndexE@Base 4:4.3.4
 _ZNK5KMime7Content8contentsEv@Base 4:4.3.4
 _ZNK5KMime7Content8epilogueEv@Base 4:4.10.1
 _ZNK5KMime7Content8isFrozenEv@Base 4:4.4.0
 _ZNK5KMime7Content8preambleEv@Base 4:4.10.1
 _ZNK5KMime7Content8topLevelEv@Base 4:4.3.4
 _ZNK5KMime7Content9lineCountEv@Base 4:4.3.4
 _ZNK5KMime7Content9rawHeaderEPKc@Base 4:4.3.4
 _ZNK5KMime7Headers10FollowUpTo4typeEv@Base 4:4.3.4
 _ZNK5KMime7Headers10Newsgroups12as7BitStringEb@Base 4:4.3.4
 _ZNK5KMime7Headers10Newsgroups13isCrosspostedEv@Base 4:4.3.4
 _ZNK5KMime7Headers10Newsgroups15asUnicodeStringEv@Base 4:4.3.4
 _ZNK5KMime7Headers10Newsgroups4typeEv@Base 4:4.3.4
 _ZNK5KMime7Headers10Newsgroups6groupsEv@Base 4:4.3.4
 _ZNK5KMime7Headers10Newsgroups7isEmptyEv@Base 4:4.3.4
 _ZNK5KMime7Headers10References4typeEv@Base 4:4.3.4
 _ZNK5KMime7Headers10ReturnPath12as7BitStringEb@Base 4:4.3.4
 _ZNK5KMime7Headers10ReturnPath4typeEv@Base 4:4.3.4
 _ZNK5KMime7Headers10ReturnPath7isEmptyEv@Base 4:4.3.4
 _ZNK5KMime7Headers10Supersedes4typeEv@Base 4:4.3.4
 _ZNK5KMime7Headers11ContentType10isHTMLTextEv@Base 4:4.3.4
 _ZNK5KMime7Headers11ContentType11isMediatypeEPKc@Base 4:4.3.4
 _ZNK5KMime7Headers11ContentType11isMultipartEv@Base 4:4.3.4
 _ZNK5KMime7Headers11ContentType11isPlainTextEv@Base 4:4.3.4
 _ZNK5KMime7Headers11ContentType12as7BitStringEb@Base 4:4.3.4
 _ZNK5KMime7Headers11ContentType12partialCountEv@Base 4:4.3.4
 _ZNK5KMime7Headers11ContentType13partialNumberEv@Base 4:4.3.4
 _ZNK5KMime7Headers11ContentType2idEv@Base 4:4.3.4
 _ZNK5KMime7Headers11ContentType4nameEv@Base 4:4.3.4
 _ZNK5KMime7Headers11ContentType4typeEv@Base 4:4.3.4
 _ZNK5KMime7Headers11ContentType6isTextEv@Base 4:4.3.4
 _ZNK5KMime7Headers11ContentType7charsetEv@Base 4:4.3.4
 _ZNK5KMime7Headers11ContentType7isEmptyEv@Base 4:4.3.4
 _ZNK5KMime7Headers11ContentType7isImageEv@Base 4:4.3.4
 _ZNK5KMime7Headers11ContentType7subTypeEv@Base 4:4.3.4
 _ZNK5KMime7Headers11ContentType8boundaryEv@Base 4:4.3.4
 _ZNK5KMime7Headers11ContentType8categoryEv@Base 4:4.3.4
 _ZNK5KMime7Headers11ContentType8mimeTypeEv@Base 4:4.3.4
 _ZNK5KMime7Headers11ContentType9isPartialEv@Base 4:4.3.4
 _ZNK5KMime7Headers11ContentType9isSubtypeEPKc@Base 4:4.3.4
 _ZNK5KMime7Headers11ContentType9mediaTypeEv@Base 4:4.3.4
 _ZNK5KMime7Headers11MIMEVersion4typeEv@Base 4:4.3.4
 _ZNK5KMime7Headers12MailCopiesTo10alwaysCopyEv@Base 4:4.3.4
 _ZNK5KMime7Headers12MailCopiesTo12as7BitStringEb@Base 4:4.3.4
 _ZNK5KMime7Headers12MailCopiesTo15asUnicodeStringEv@Base 4:4.3.4
 _ZNK5KMime7Headers12MailCopiesTo4typeEv@Base 4:4.3.4
 _ZNK5KMime7Headers12MailCopiesTo7isEmptyEv@Base 4:4.3.4
 _ZNK5KMime7Headers12MailCopiesTo9neverCopyEv@Base 4:4.3.4
 _ZNK5KMime7Headers12Organization4typeEv@Base 4:4.3.4
 _ZNK5KMime7Headers15ContentLocation4typeEv@Base 4:4.3.4
 _ZNK5KMime7Headers18ContentDescription4typeEv@Base 4:4.3.4
 _ZNK5KMime7Headers18ContentDisposition11dispositionEv@Base 4:4.3.4
 _ZNK5KMime7Headers18ContentDisposition12as7BitStringEb@Base 4:4.3.4
 _ZNK5KMime7Headers18ContentDisposition4typeEv@Base 4:4.3.4
 _ZNK5KMime7Headers18ContentDisposition7isEmptyEv@Base 4:4.3.4
 _ZNK5KMime7Headers18ContentDisposition8filenameEv@Base 4:4.3.4
 _ZNK5KMime7Headers23ContentTransferEncoding12needToEncodeEv@Base 4:4.3.4
 _ZNK5KMime7Headers23ContentTransferEncoding4typeEv@Base 4:4.3.4
 _ZNK5KMime7Headers23ContentTransferEncoding7decodedEv@Base 4:4.3.4
 _ZNK5KMime7Headers23ContentTransferEncoding8encodingEv@Base 4:4.3.4
 _ZNK5KMime7Headers2Cc4typeEv@Base 4:4.3.4
 _ZNK5KMime7Headers2To4typeEv@Base 4:4.3.4
 _ZNK5KMime7Headers3Bcc4typeEv@Base 4:4.3.4
 _ZNK5KMime7Headers4Base12isMimeHeaderEv@Base 4:4.3.4
 _ZNK5KMime7Headers4Base14defaultCharsetEv@Base 4:4.3.4
 _ZNK5KMime7Headers4Base14rfc2047CharsetEv@Base 4:4.3.4
 _ZNK5KMime7Headers4Base19forceDefaultCharsetEv@Base 4:4.3.4
 _ZNK5KMime7Headers4Base2isEPKc@Base 4:4.3.4
 _ZNK5KMime7Headers4Base4typeEv@Base 4:4.3.4
 _ZNK5KMime7Headers4Base6parentEv@Base 4:4.3.4
 _ZNK5KMime7Headers4Base9isXHeaderEv@Base 4:4.3.4
 _ZNK5KMime7Headers4Base9typeIntroEv@Base 4:4.3.4
 _ZNK5KMime7Headers4Date12as7BitStringEb@Base 4:4.3.4
 _ZNK5KMime7Headers4Date4typeEv@Base 4:4.3.4
 _ZNK5KMime7Headers4Date7isEmptyEv@Base 4:4.3.4
 _ZNK5KMime7Headers4Date8dateTimeEv@Base 4:4.3.4
 _ZNK5KMime7Headers4Date9ageInDaysEv@Base 4:4.3.4
 _ZNK5KMime7Headers4From4typeEv@Base 4:4.3.4
 _ZNK5KMime7Headers5Lines12as7BitStringEb@Base 4:4.3.4
 _ZNK5KMime7Headers5Lines13numberOfLinesEv@Base 4:4.3.4
 _ZNK5KMime7Headers5Lines15asUnicodeStringEv@Base 4:4.3.4
 _ZNK5KMime7Headers5Lines4typeEv@Base 4:4.3.4
 _ZNK5KMime7Headers5Lines7isEmptyEv@Base 4:4.3.4
 _ZNK5KMime7Headers6Sender4typeEv@Base 4:4.3.4
 _ZNK5KMime7Headers7Control11controlTypeEv@Base 4:4.3.4
 _ZNK5KMime7Headers7Control12as7BitStringEb@Base 4:4.3.4
 _ZNK5KMime7Headers7Control4typeEv@Base 4:4.3.4
 _ZNK5KMime7Headers7Control7isEmptyEv@Base 4:4.3.4
 _ZNK5KMime7Headers7Control8isCancelEv@Base 4:4.3.4
 _ZNK5KMime7Headers7Control9parameterEv@Base 4:4.3.4
 _ZNK5KMime7Headers7Generic4typeEv@Base 4:4.3.4
 _ZNK5KMime7Headers7Generic7isEmptyEv@Base 4:4.3.4
 _ZNK5KMime7Headers7ReplyTo4typeEv@Base 4:4.3.4
 _ZNK5KMime7Headers7Subject4typeEv@Base 4:4.3.4
 _ZNK5KMime7Headers7Subject7isReplyEv@Base 4:4.3.4
 _ZNK5KMime7Headers8Generics10PhraseList12as7BitStringEb@Base 4:4.3.4
 _ZNK5KMime7Headers8Generics10PhraseList15asUnicodeStringEv@Base 4:4.3.4
 _ZNK5KMime7Headers8Generics10PhraseList7isEmptyEv@Base 4:4.3.4
 _ZNK5KMime7Headers8Generics10PhraseList7phrasesEv@Base 4:4.3.4
 _ZNK5KMime7Headers8Generics10Structured15asUnicodeStringEv@Base 4:4.3.4
 _ZNK5KMime7Headers8Generics11AddressList12as7BitStringEb@Base 4:4.3.4
 _ZNK5KMime7Headers8Generics11AddressList12displayNamesEv@Base 4:4.3.4
 _ZNK5KMime7Headers8Generics11AddressList15asUnicodeStringEv@Base 4:4.3.4
 _ZNK5KMime7Headers8Generics11AddressList15prettyAddressesEv@Base 4:4.3.4
 _ZNK5KMime7Headers8Generics11AddressList7isEmptyEv@Base 4:4.3.4
 _ZNK5KMime7Headers8Generics11AddressList9addressesEv@Base 4:4.3.4
 _ZNK5KMime7Headers8Generics11AddressList9mailboxesEv@Base 4:4.3.4
 _ZNK5KMime7Headers8Generics11MailboxList12as7BitStringEb@Base 4:4.3.4
 _ZNK5KMime7Headers8Generics11MailboxList12displayNamesEv@Base 4:4.3.4
 _ZNK5KMime7Headers8Generics11MailboxList15asUnicodeStringEv@Base 4:4.3.4
 _ZNK5KMime7Headers8Generics11MailboxList15prettyAddressesEv@Base 4:4.3.4
 _ZNK5KMime7Headers8Generics11MailboxList7isEmptyEv@Base 4:4.3.4
 _ZNK5KMime7Headers8Generics11MailboxList9addressesEv@Base 4:4.3.4
 _ZNK5KMime7Headers8Generics11MailboxList9mailboxesEv@Base 4:4.3.4
 _ZNK5KMime7Headers8Generics11SingleIdent10identifierEv@Base 4:4.3.4
 _ZNK5KMime7Headers8Generics12Parametrized12as7BitStringEb@Base 4:4.3.4
 _ZNK5KMime7Headers8Generics12Parametrized12hasParameterERK7QString@Base 4:4.5.0
 _ZNK5KMime7Headers8Generics12Parametrized7isEmptyEv@Base 4:4.3.4
 _ZNK5KMime7Headers8Generics12Parametrized9parameterERK7QString@Base 4:4.3.4
 _ZNK5KMime7Headers8Generics12Unstructured12as7BitStringEb@Base 4:4.3.4
 _ZNK5KMime7Headers8Generics12Unstructured15asUnicodeStringEv@Base 4:4.3.4
 _ZNK5KMime7Headers8Generics12Unstructured7isEmptyEv@Base 4:4.3.4
 _ZNK5KMime7Headers8Generics5Ident11identifiersEv@Base 4:4.3.4
 _ZNK5KMime7Headers8Generics5Ident12as7BitStringEb@Base 4:4.3.4
 _ZNK5KMime7Headers8Generics5Ident7isEmptyEv@Base 4:4.3.4
 _ZNK5KMime7Headers8Generics5Token12as7BitStringEb@Base 4:4.3.4
 _ZNK5KMime7Headers8Generics5Token5tokenEv@Base 4:4.3.4
 _ZNK5KMime7Headers8Generics5Token7isEmptyEv@Base 4:4.3.4
 _ZNK5KMime7Headers8Generics7DotAtom12as7BitStringEb@Base 4:4.3.4
 _ZNK5KMime7Headers8Generics7DotAtom15asUnicodeStringEv@Base 4:4.3.4
 _ZNK5KMime7Headers8Generics7DotAtom7isEmptyEv@Base 4:4.3.4
 _ZNK5KMime7Headers8Keywords4typeEv@Base 4:4.3.4
 _ZNK5KMime7Headers9ContentID4typeEv@Base 4:4.3.4
 _ZNK5KMime7Headers9InReplyTo4typeEv@Base 4:4.3.4
 _ZNK5KMime7Headers9MessageID4typeEv@Base 4:4.3.4
 _ZNK5KMime7Headers9UserAgent4typeEv@Base 4:4.3.4
 _ZNK5KMime7Message10isTopLevelEv@Base 4:4.3.4
 _ZNK5KMime7UUCodec11makeDecoderEb@Base 4:4.3.4
 _ZNK5KMime7UUCodec11makeEncoderEb@Base 4:4.3.4
 _ZNK5KMime8CharFreq14hasLeadingFromEv@Base 4:4.3.4
 _ZNK5KMime8CharFreq14isEightBitDataEv@Base 4:4.3.4
 _ZNK5KMime8CharFreq14isEightBitTextEv@Base 4:4.3.4
 _ZNK5KMime8CharFreq14isSevenBitDataEv@Base 4:4.3.4
 _ZNK5KMime8CharFreq14isSevenBitTextEv@Base 4:4.3.4
 _ZNK5KMime8CharFreq14printableRatioEv@Base 4:4.3.4
 _ZNK5KMime8CharFreq17controlCodesRatioEv@Base 4:4.3.4
 _ZNK5KMime8CharFreq21hasTrailingWhitespaceEv@Base 4:4.3.4
 _ZNK5KMime8CharFreq4typeEv@Base 4:4.3.4
 _ZTIN5KMime11Base64CodecE@Base 4:4.3.4
 _ZTIN5KMime11NewsArticleE@Base 4:4.3.4
 _ZTIN5KMime13IdentityCodecE@Base 4:4.3.4
 _ZTIN5KMime20QuotedPrintableCodecE@Base 4:4.3.4
 _ZTIN5KMime20Rfc2231EncodingCodecE@Base 4:4.3.4
 _ZTIN5KMime21Rfc2047BEncodingCodecE@Base 4:4.3.4
 _ZTIN5KMime21Rfc2047QEncodingCodecE@Base 4:4.3.4
 _ZTIN5KMime5CodecE@Base 4:4.3.4
 _ZTIN5KMime7ContentE@Base 4:4.3.4
 _ZTIN5KMime7Headers10FollowUpToE@Base 4:4.3.4
 _ZTIN5KMime7Headers10NewsgroupsE@Base 4:4.3.4
 _ZTIN5KMime7Headers10ReferencesE@Base 4:4.3.4
 _ZTIN5KMime7Headers10ReturnPathE@Base 4:4.3.4
 _ZTIN5KMime7Headers10SupersedesE@Base 4:4.3.4
 _ZTIN5KMime7Headers11ContentTypeE@Base 4:4.3.4
 _ZTIN5KMime7Headers11MIMEVersionE@Base 4:4.3.4
 _ZTIN5KMime7Headers12MailCopiesToE@Base 4:4.3.4
 _ZTIN5KMime7Headers12OrganizationE@Base 4:4.3.4
 _ZTIN5KMime7Headers15ContentLocationE@Base 4:4.3.4
 _ZTIN5KMime7Headers18ContentDescriptionE@Base 4:4.3.4
 _ZTIN5KMime7Headers18ContentDispositionE@Base 4:4.3.4
 _ZTIN5KMime7Headers23ContentTransferEncodingE@Base 4:4.3.4
 _ZTIN5KMime7Headers2CcE@Base 4:4.3.4
 _ZTIN5KMime7Headers2ToE@Base 4:4.3.4
 _ZTIN5KMime7Headers3BccE@Base 4:4.3.4
 _ZTIN5KMime7Headers4BaseE@Base 4:4.3.4
 _ZTIN5KMime7Headers4DateE@Base 4:4.3.4
 _ZTIN5KMime7Headers4FromE@Base 4:4.3.4
 _ZTIN5KMime7Headers5LinesE@Base 4:4.3.4
 _ZTIN5KMime7Headers6SenderE@Base 4:4.3.4
 _ZTIN5KMime7Headers7ControlE@Base 4:4.3.4
 _ZTIN5KMime7Headers7GenericE@Base 4:4.3.4
 _ZTIN5KMime7Headers7ReplyToE@Base 4:4.3.4
 _ZTIN5KMime7Headers7SubjectE@Base 4:4.3.4
 _ZTIN5KMime7Headers8Generics10PhraseListE@Base 4:4.3.4
 _ZTIN5KMime7Headers8Generics10StructuredE@Base 4:4.3.4
 _ZTIN5KMime7Headers8Generics11AddressListE@Base 4:4.3.4
 _ZTIN5KMime7Headers8Generics11MailboxListE@Base 4:4.3.4
 _ZTIN5KMime7Headers8Generics11SingleIdentE@Base 4:4.3.4
 _ZTIN5KMime7Headers8Generics12ParametrizedE@Base 4:4.3.4
 _ZTIN5KMime7Headers8Generics12UnstructuredE@Base 4:4.3.4
 _ZTIN5KMime7Headers8Generics13SingleMailboxE@Base 4:4.3.4
 _ZTIN5KMime7Headers8Generics5IdentE@Base 4:4.3.4
 _ZTIN5KMime7Headers8Generics5TokenE@Base 4:4.3.4
 _ZTIN5KMime7Headers8Generics7AddressE@Base 4:4.3.4
 _ZTIN5KMime7Headers8Generics7DotAtomE@Base 4:4.3.4
 _ZTIN5KMime7Headers8KeywordsE@Base 4:4.3.4
 _ZTIN5KMime7Headers9ContentIDE@Base 4:4.3.4
 _ZTIN5KMime7Headers9InReplyToE@Base 4:4.3.4
 _ZTIN5KMime7Headers9MessageIDE@Base 4:4.3.4
 _ZTIN5KMime7Headers9UserAgentE@Base 4:4.3.4
 _ZTIN5KMime7MessageE@Base 4:4.3.4
 _ZTIN5KMime7UUCodecE@Base 4:4.3.4
 _ZTSN5KMime11Base64CodecE@Base 4:4.3.4
 _ZTSN5KMime11NewsArticleE@Base 4:4.3.4
 _ZTSN5KMime13IdentityCodecE@Base 4:4.3.4
 _ZTSN5KMime20QuotedPrintableCodecE@Base 4:4.3.4
 _ZTSN5KMime20Rfc2231EncodingCodecE@Base 4:4.3.4
 _ZTSN5KMime21Rfc2047BEncodingCodecE@Base 4:4.3.4
 _ZTSN5KMime21Rfc2047QEncodingCodecE@Base 4:4.3.4
 _ZTSN5KMime5CodecE@Base 4:4.3.4
 _ZTSN5KMime7ContentE@Base 4:4.3.4
 _ZTSN5KMime7Headers10FollowUpToE@Base 4:4.3.4
 _ZTSN5KMime7Headers10NewsgroupsE@Base 4:4.3.4
 _ZTSN5KMime7Headers10ReferencesE@Base 4:4.3.4
 _ZTSN5KMime7Headers10ReturnPathE@Base 4:4.3.4
 _ZTSN5KMime7Headers10SupersedesE@Base 4:4.3.4
 _ZTSN5KMime7Headers11ContentTypeE@Base 4:4.3.4
 _ZTSN5KMime7Headers11MIMEVersionE@Base 4:4.3.4
 _ZTSN5KMime7Headers12MailCopiesToE@Base 4:4.3.4
 _ZTSN5KMime7Headers12OrganizationE@Base 4:4.3.4
 _ZTSN5KMime7Headers15ContentLocationE@Base 4:4.3.4
 _ZTSN5KMime7Headers18ContentDescriptionE@Base 4:4.3.4
 _ZTSN5KMime7Headers18ContentDispositionE@Base 4:4.3.4
 _ZTSN5KMime7Headers23ContentTransferEncodingE@Base 4:4.3.4
 _ZTSN5KMime7Headers2CcE@Base 4:4.3.4
 _ZTSN5KMime7Headers2ToE@Base 4:4.3.4
 _ZTSN5KMime7Headers3BccE@Base 4:4.3.4
 _ZTSN5KMime7Headers4BaseE@Base 4:4.3.4
 _ZTSN5KMime7Headers4DateE@Base 4:4.3.4
 _ZTSN5KMime7Headers4FromE@Base 4:4.3.4
 _ZTSN5KMime7Headers5LinesE@Base 4:4.3.4
 _ZTSN5KMime7Headers6SenderE@Base 4:4.3.4
 _ZTSN5KMime7Headers7ControlE@Base 4:4.3.4
 _ZTSN5KMime7Headers7GenericE@Base 4:4.3.4
 _ZTSN5KMime7Headers7ReplyToE@Base 4:4.3.4
 _ZTSN5KMime7Headers7SubjectE@Base 4:4.3.4
 _ZTSN5KMime7Headers8Generics10PhraseListE@Base 4:4.3.4
 _ZTSN5KMime7Headers8Generics10StructuredE@Base 4:4.3.4
 _ZTSN5KMime7Headers8Generics11AddressListE@Base 4:4.3.4
 _ZTSN5KMime7Headers8Generics11MailboxListE@Base 4:4.3.4
 _ZTSN5KMime7Headers8Generics11SingleIdentE@Base 4:4.3.4
 _ZTSN5KMime7Headers8Generics12ParametrizedE@Base 4:4.3.4
 _ZTSN5KMime7Headers8Generics12UnstructuredE@Base 4:4.3.4
 _ZTSN5KMime7Headers8Generics13SingleMailboxE@Base 4:4.3.4
 _ZTSN5KMime7Headers8Generics5IdentE@Base 4:4.3.4
 _ZTSN5KMime7Headers8Generics5TokenE@Base 4:4.3.4
 _ZTSN5KMime7Headers8Generics7AddressE@Base 4:4.3.4
 _ZTSN5KMime7Headers8Generics7DotAtomE@Base 4:4.3.4
 _ZTSN5KMime7Headers8KeywordsE@Base 4:4.3.4
 _ZTSN5KMime7Headers9ContentIDE@Base 4:4.3.4
 _ZTSN5KMime7Headers9InReplyToE@Base 4:4.3.4
 _ZTSN5KMime7Headers9MessageIDE@Base 4:4.3.4
 _ZTSN5KMime7Headers9UserAgentE@Base 4:4.3.4
 _ZTSN5KMime7MessageE@Base 4:4.3.4
 _ZTSN5KMime7UUCodecE@Base 4:4.3.4
 _ZTVN5KMime11Base64CodecE@Base 4:4.3.4
 _ZTVN5KMime11NewsArticleE@Base 4:4.3.4
 _ZTVN5KMime13IdentityCodecE@Base 4:4.3.4
 _ZTVN5KMime20QuotedPrintableCodecE@Base 4:4.3.4
 _ZTVN5KMime20Rfc2231EncodingCodecE@Base 4:4.3.4
 _ZTVN5KMime21Rfc2047BEncodingCodecE@Base 4:4.3.4
 _ZTVN5KMime21Rfc2047QEncodingCodecE@Base 4:4.3.4
 _ZTVN5KMime5CodecE@Base 4:4.3.4
 _ZTVN5KMime7ContentE@Base 4:4.3.4
 _ZTVN5KMime7Headers10FollowUpToE@Base 4:4.3.4
 _ZTVN5KMime7Headers10NewsgroupsE@Base 4:4.3.4
 _ZTVN5KMime7Headers10ReferencesE@Base 4:4.3.4
 _ZTVN5KMime7Headers10ReturnPathE@Base 4:4.3.4
 _ZTVN5KMime7Headers10SupersedesE@Base 4:4.3.4
 _ZTVN5KMime7Headers11ContentTypeE@Base 4:4.3.4
 _ZTVN5KMime7Headers11MIMEVersionE@Base 4:4.3.4
 _ZTVN5KMime7Headers12MailCopiesToE@Base 4:4.3.4
 _ZTVN5KMime7Headers12OrganizationE@Base 4:4.3.4
 _ZTVN5KMime7Headers15ContentLocationE@Base 4:4.3.4
 _ZTVN5KMime7Headers18ContentDescriptionE@Base 4:4.3.4
 _ZTVN5KMime7Headers18ContentDispositionE@Base 4:4.3.4
 _ZTVN5KMime7Headers23ContentTransferEncodingE@Base 4:4.3.4
 _ZTVN5KMime7Headers2CcE@Base 4:4.3.4
 _ZTVN5KMime7Headers2ToE@Base 4:4.3.4
 _ZTVN5KMime7Headers3BccE@Base 4:4.3.4
 _ZTVN5KMime7Headers4BaseE@Base 4:4.3.4
 _ZTVN5KMime7Headers4DateE@Base 4:4.3.4
 _ZTVN5KMime7Headers4FromE@Base 4:4.3.4
 _ZTVN5KMime7Headers5LinesE@Base 4:4.3.4
 _ZTVN5KMime7Headers6SenderE@Base 4:4.3.4
 _ZTVN5KMime7Headers7ControlE@Base 4:4.3.4
 _ZTVN5KMime7Headers7GenericE@Base 4:4.3.4
 _ZTVN5KMime7Headers7ReplyToE@Base 4:4.3.4
 _ZTVN5KMime7Headers7SubjectE@Base 4:4.3.4
 _ZTVN5KMime7Headers8Generics10PhraseListE@Base 4:4.3.4
 _ZTVN5KMime7Headers8Generics10StructuredE@Base 4:4.3.4
 _ZTVN5KMime7Headers8Generics11AddressListE@Base 4:4.3.4
 _ZTVN5KMime7Headers8Generics11MailboxListE@Base 4:4.3.4
 _ZTVN5KMime7Headers8Generics11SingleIdentE@Base 4:4.3.4
 _ZTVN5KMime7Headers8Generics12ParametrizedE@Base 4:4.3.4
 _ZTVN5KMime7Headers8Generics12UnstructuredE@Base 4:4.3.4
 _ZTVN5KMime7Headers8Generics13SingleMailboxE@Base 4:4.3.4
 _ZTVN5KMime7Headers8Generics5IdentE@Base 4:4.3.4
 _ZTVN5KMime7Headers8Generics5TokenE@Base 4:4.3.4
 _ZTVN5KMime7Headers8Generics7AddressE@Base 4:4.3.4
 _ZTVN5KMime7Headers8Generics7DotAtomE@Base 4:4.3.4
 _ZTVN5KMime7Headers8KeywordsE@Base 4:4.3.4
 _ZTVN5KMime7Headers9ContentIDE@Base 4:4.3.4
 _ZTVN5KMime7Headers9InReplyToE@Base 4:4.3.4
 _ZTVN5KMime7Headers9MessageIDE@Base 4:4.3.4
 _ZTVN5KMime7Headers9UserAgentE@Base 4:4.3.4
 _ZTVN5KMime7MessageE@Base 4:4.3.4
 _ZTVN5KMime7UUCodecE@Base 4:4.3.4
