# SymbolsHelper-Confirmed: 4:4.4.0 amd64
libkblog.so.4 libkblog4 #MINVER#,, kdepim-runtime
* Build-Depends-Package: kdepimlibs5-dev
 _ZN5KBlog10MetaWeblog11createMediaEPNS_9BlogMediaE@Base 4:4.3.4
 _ZN5KBlog10MetaWeblog11qt_metacallEN11QMetaObject4CallEiPPv@Base 4:4.3.4
 _ZN5KBlog10MetaWeblog11qt_metacastEPKc@Base 4:4.3.4
 _ZN5KBlog10MetaWeblog12createdMediaEPNS_9BlogMediaE@Base 4:4.3.4
 _ZN5KBlog10MetaWeblog14listCategoriesEv@Base 4:4.3.4
 _ZN5KBlog10MetaWeblog16listedCategoriesERK5QListI4QMapI7QStringS3_EE@Base 4:4.3.4
 _ZN5KBlog10MetaWeblog16staticMetaObjectE@Base 4:4.3.4
 _ZN5KBlog10MetaWeblogC1ERK4KUrlP7QObject@Base 4:4.3.4
 _ZN5KBlog10MetaWeblogC1ERK4KUrlRNS_17MetaWeblogPrivateEP7QObject@Base 4:4.3.4
 _ZN5KBlog10MetaWeblogC2ERK4KUrlP7QObject@Base 4:4.3.4
 _ZN5KBlog10MetaWeblogC2ERK4KUrlRNS_17MetaWeblogPrivateEP7QObject@Base 4:4.3.4
 _ZN5KBlog10MetaWeblogD0Ev@Base 4:4.3.4
 _ZN5KBlog10MetaWeblogD1Ev@Base 4:4.3.4
 _ZN5KBlog10MetaWeblogD2Ev@Base 4:4.3.4
 _ZN5KBlog11BlogComment10setContentERK7QString@Base 4:4.3.4
 _ZN5KBlog11BlogComment12setCommentIdERK7QString@Base 4:4.3.4
 _ZN5KBlog11BlogComment19setCreationDateTimeERK9KDateTime@Base 4:4.3.4
 _ZN5KBlog11BlogComment23setModificationDateTimeERK9KDateTime@Base 4:4.3.4
 _ZN5KBlog11BlogComment6setUrlERK4KUrl@Base 4:4.3.4
 _ZN5KBlog11BlogComment7setNameERK7QString@Base 4:4.3.4
 _ZN5KBlog11BlogComment8setEmailERK7QString@Base 4:4.3.4
 _ZN5KBlog11BlogComment8setErrorERK7QString@Base 4:4.3.4
 _ZN5KBlog11BlogComment8setTitleERK7QString@Base 4:4.3.4
 _ZN5KBlog11BlogComment9setStatusENS0_6StatusE@Base 4:4.3.4
 _ZN5KBlog11BlogCommentC1ERK7QString@Base 4:4.3.4
 _ZN5KBlog11BlogCommentC1ERKS0_@Base 4:4.3.4
 _ZN5KBlog11BlogCommentC2ERK7QString@Base 4:4.3.4
 _ZN5KBlog11BlogCommentC2ERKS0_@Base 4:4.3.4
 _ZN5KBlog11BlogCommentD0Ev@Base 4:4.3.4
 _ZN5KBlog11BlogCommentD1Ev@Base 4:4.3.4
 _ZN5KBlog11BlogCommentD2Ev@Base 4:4.3.4
 _ZN5KBlog11BlogCommentaSERKS0_@Base 4:4.3.4
 _ZN5KBlog11MovableType10createPostEPNS_8BlogPostE@Base 4:4.4.0
 _ZN5KBlog11MovableType10modifyPostEPNS_8BlogPostE@Base 4:4.4.0
 _ZN5KBlog11MovableType11qt_metacallEN11QMetaObject4CallEiPPv@Base 4:4.3.4
 _ZN5KBlog11MovableType11qt_metacastEPKc@Base 4:4.3.4
 _ZN5KBlog11MovableType15listRecentPostsEi@Base 4:4.3.4
 _ZN5KBlog11MovableType16staticMetaObjectE@Base 4:4.3.4
 _ZN5KBlog11MovableType18listTrackBackPingsEPNS_8BlogPostE@Base 4:4.3.4
 _ZN5KBlog11MovableType20listedTrackBackPingsEPNS_8BlogPostERK5QListI4QMapI7QStringS5_EE@Base 4:4.3.4
 _ZN5KBlog11MovableType9fetchPostEPNS_8BlogPostE@Base 4:4.4.0
 _ZN5KBlog11MovableTypeC1ERK4KUrlP7QObject@Base 4:4.3.4
 _ZN5KBlog11MovableTypeC1ERK4KUrlRNS_18MovableTypePrivateEP7QObject@Base 4:4.3.4
 _ZN5KBlog11MovableTypeC2ERK4KUrlP7QObject@Base 4:4.3.4
 _ZN5KBlog11MovableTypeC2ERK4KUrlRNS_18MovableTypePrivateEP7QObject@Base 4:4.3.4
 _ZN5KBlog11MovableTypeD0Ev@Base 4:4.3.4
 _ZN5KBlog11MovableTypeD1Ev@Base 4:4.3.4
 _ZN5KBlog11MovableTypeD2Ev@Base 4:4.3.4
 _ZN5KBlog14WordpressBuggy10createPostEPNS_8BlogPostE@Base 4:4.3.4
 _ZN5KBlog14WordpressBuggy10modifyPostEPNS_8BlogPostE@Base 4:4.3.4
 _ZN5KBlog14WordpressBuggy11qt_metacallEN11QMetaObject4CallEiPPv@Base 4:4.3.4
 _ZN5KBlog14WordpressBuggy11qt_metacastEPKc@Base 4:4.3.4
 _ZN5KBlog14WordpressBuggy16staticMetaObjectE@Base 4:4.3.4
 _ZN5KBlog14WordpressBuggyC1ERK4KUrlP7QObject@Base 4:4.3.4
 _ZN5KBlog14WordpressBuggyC1ERK4KUrlRNS_21WordpressBuggyPrivateEP7QObject@Base 4:4.3.4
 _ZN5KBlog14WordpressBuggyC2ERK4KUrlP7QObject@Base 4:4.3.4
 _ZN5KBlog14WordpressBuggyC2ERK4KUrlRNS_21WordpressBuggyPrivateEP7QObject@Base 4:4.3.4
 _ZN5KBlog14WordpressBuggyD0Ev@Base 4:4.3.4
 _ZN5KBlog14WordpressBuggyD1Ev@Base 4:4.3.4
 _ZN5KBlog14WordpressBuggyD2Ev@Base 4:4.3.4
 _ZN5KBlog4Blog10errorMediaENS0_9ErrorTypeERK7QStringPNS_9BlogMediaE@Base 4:4.3.4
 _ZN5KBlog4Blog11createdPostEPNS_8BlogPostE@Base 4:4.3.4
 _ZN5KBlog4Blog11fetchedPostEPNS_8BlogPostE@Base 4:4.3.4
 _ZN5KBlog4Blog11qt_metacallEN11QMetaObject4CallEiPPv@Base 4:4.3.4
 _ZN5KBlog4Blog11qt_metacastEPKc@Base 4:4.3.4
 _ZN5KBlog4Blog11removedPostEPNS_8BlogPostE@Base 4:4.3.4
 _ZN5KBlog4Blog11setPasswordERK7QString@Base 4:4.3.4
 _ZN5KBlog4Blog11setTimeZoneERK9KTimeZone@Base 4:4.3.4
 _ZN5KBlog4Blog11setUsernameERK7QString@Base 4:4.3.4
 _ZN5KBlog4Blog12errorCommentENS0_9ErrorTypeERK7QStringPNS_8BlogPostEPNS_11BlogCommentE@Base 4:4.3.4
 _ZN5KBlog4Blog12modifiedPostEPNS_8BlogPostE@Base 4:4.3.4
 _ZN5KBlog4Blog12setUserAgentERK7QStringS3_@Base 4:4.3.4
 _ZN5KBlog4Blog16staticMetaObjectE@Base 4:4.3.4
 _ZN5KBlog4Blog17listedRecentPostsERK5QListINS_8BlogPostEE@Base 4:4.3.4
 _ZN5KBlog4Blog5errorENS0_9ErrorTypeERK7QString@Base 4:4.3.4
 _ZN5KBlog4Blog6setUrlERK4KUrl@Base 4:4.3.4
 _ZN5KBlog4Blog8timeZoneEv@Base 4:4.3.4
 _ZN5KBlog4Blog9errorPostENS0_9ErrorTypeERK7QStringPNS_8BlogPostE@Base 4:4.3.4
 _ZN5KBlog4Blog9setBlogIdERK7QString@Base 4:4.3.4
 _ZN5KBlog4BlogC1ERK4KUrlP7QObjectRK7QStringS8_@Base 4:4.3.4
 _ZN5KBlog4BlogC1ERK4KUrlRNS_11BlogPrivateEP7QObjectRK7QStringSA_@Base 4:4.3.4
 _ZN5KBlog4BlogC2ERK4KUrlP7QObjectRK7QStringS8_@Base 4:4.3.4
 _ZN5KBlog4BlogC2ERK4KUrlRNS_11BlogPrivateEP7QObjectRK7QStringSA_@Base 4:4.3.4
 _ZN5KBlog4BlogD0Ev@Base 4:4.3.4
 _ZN5KBlog4BlogD1Ev@Base 4:4.3.4
 _ZN5KBlog4BlogD2Ev@Base 4:4.3.4
 _ZN5KBlog5GData10createPostEPNS_8BlogPostE@Base 4:4.3.4
 _ZN5KBlog5GData10modifyPostEPNS_8BlogPostE@Base 4:4.3.4
 _ZN5KBlog5GData10removePostEPNS_8BlogPostE@Base 4:4.3.4
 _ZN5KBlog5GData11listedBlogsERK5QListI4QMapI7QStringS3_EE@Base 4:4.3.4
 _ZN5KBlog5GData11qt_metacallEN11QMetaObject4CallEiPPv@Base 4:4.3.4
 _ZN5KBlog5GData11qt_metacastEPKc@Base 4:4.3.4
 _ZN5KBlog5GData11setFullNameERK7QString@Base 4:4.3.4
 _ZN5KBlog5GData12listCommentsEPNS_8BlogPostE@Base 4:4.3.4
 _ZN5KBlog5GData12setProfileIdERK7QString@Base 4:4.3.4
 _ZN5KBlog5GData13createCommentEPNS_8BlogPostEPNS_11BlogCommentE@Base 4:4.3.4
 _ZN5KBlog5GData13removeCommentEPNS_8BlogPostEPNS_11BlogCommentE@Base 4:4.3.4
 _ZN5KBlog5GData14createdCommentEPKNS_8BlogPostEPKNS_11BlogCommentE@Base 4:4.3.4
 _ZN5KBlog5GData14fetchProfileIdEv@Base 4:4.3.4
 _ZN5KBlog5GData14listedCommentsEPNS_8BlogPostERK5QListINS_11BlogCommentEE@Base 4:4.3.4
 _ZN5KBlog5GData14removedCommentEPKNS_8BlogPostEPKNS_11BlogCommentE@Base 4:4.3.4
 _ZN5KBlog5GData15listAllCommentsEv@Base 4:4.3.4
 _ZN5KBlog5GData15listRecentPostsERK11QStringListiRK9KDateTimeS6_S6_S6_@Base 4:4.3.4
 _ZN5KBlog5GData15listRecentPostsEi@Base 4:4.3.4
 _ZN5KBlog5GData16fetchedProfileIdERK7QString@Base 4:4.3.4
 _ZN5KBlog5GData16staticMetaObjectE@Base 4:4.3.4
 _ZN5KBlog5GData17listedAllCommentsERK5QListINS_11BlogCommentEE@Base 4:4.3.4
 _ZN5KBlog5GData9fetchPostEPNS_8BlogPostE@Base 4:4.3.4
 _ZN5KBlog5GData9listBlogsEv@Base 4:4.3.4
 _ZN5KBlog5GDataC1ERK4KUrlP7QObject@Base 4:4.3.4
 _ZN5KBlog5GDataC2ERK4KUrlP7QObject@Base 4:4.3.4
 _ZN5KBlog5GDataD0Ev@Base 4:4.3.4
 _ZN5KBlog5GDataD1Ev@Base 4:4.3.4
 _ZN5KBlog5GDataD2Ev@Base 4:4.3.4
 _ZN5KBlog8BlogPost10setContentERK7QString@Base 4:4.3.4
 _ZN5KBlog8BlogPost10setPrivateEb@Base 4:4.3.4
 _ZN5KBlog8BlogPost10setSummaryERK7QString@Base 4:4.3.4
 _ZN5KBlog8BlogPost13setCategoriesERK11QStringList@Base 4:4.3.4
 _ZN5KBlog8BlogPost17setCommentAllowedEb@Base 4:4.3.4
 _ZN5KBlog8BlogPost19setCreationDateTimeERK9KDateTime@Base 4:4.3.4
 _ZN5KBlog8BlogPost19setTrackBackAllowedEb@Base 4:4.3.4
 _ZN5KBlog8BlogPost20setAdditionalContentERK7QString@Base 4:4.4.0
 _ZN5KBlog8BlogPost23setModificationDateTimeERK9KDateTime@Base 4:4.3.4
 _ZN5KBlog8BlogPost7setMoodERK7QString@Base 4:4.3.4
 _ZN5KBlog8BlogPost7setSlugERK7QString@Base 4:4.4.0
 _ZN5KBlog8BlogPost7setTagsERK11QStringList@Base 4:4.3.4
 _ZN5KBlog8BlogPost8setErrorERK7QString@Base 4:4.3.4
 _ZN5KBlog8BlogPost8setMusicERK7QString@Base 4:4.3.4
 _ZN5KBlog8BlogPost8setTitleERK7QString@Base 4:4.3.4
 _ZN5KBlog8BlogPost9setPostIdERK7QString@Base 4:4.3.4
 _ZN5KBlog8BlogPost9setStatusENS0_6StatusE@Base 4:4.3.4
 _ZN5KBlog8BlogPostC1ERK7QString@Base 4:4.3.4
 _ZN5KBlog8BlogPostC1ERKN4KCal7JournalE@Base 4:4.3.4
 _ZN5KBlog8BlogPostC1ERKS0_@Base 4:4.3.4
 _ZN5KBlog8BlogPostC2ERK7QString@Base 4:4.3.4
 _ZN5KBlog8BlogPostC2ERKN4KCal7JournalE@Base 4:4.3.4
 _ZN5KBlog8BlogPostC2ERKS0_@Base 4:4.3.4
 _ZN5KBlog8BlogPostD0Ev@Base 4:4.3.4
 _ZN5KBlog8BlogPostD1Ev@Base 4:4.3.4
 _ZN5KBlog8BlogPostD2Ev@Base 4:4.3.4
 _ZN5KBlog8BlogPostaSERKS0_@Base 4:4.3.4
 _ZN5KBlog8Blogger110createPostEPNS_8BlogPostE@Base 4:4.3.4
 _ZN5KBlog8Blogger110modifyPostEPNS_8BlogPostE@Base 4:4.3.4
 _ZN5KBlog8Blogger110removePostEPNS_8BlogPostE@Base 4:4.3.4
 _ZN5KBlog8Blogger111listedBlogsERK5QListI4QMapI7QStringS3_EE@Base 4:4.3.4
 _ZN5KBlog8Blogger111qt_metacallEN11QMetaObject4CallEiPPv@Base 4:4.3.4
 _ZN5KBlog8Blogger111qt_metacastEPKc@Base 4:4.3.4
 _ZN5KBlog8Blogger113fetchUserInfoEv@Base 4:4.3.4
 _ZN5KBlog8Blogger115fetchedUserInfoERK4QMapI7QStringS2_E@Base 4:4.3.4
 _ZN5KBlog8Blogger115listRecentPostsEi@Base 4:4.3.4
 _ZN5KBlog8Blogger116staticMetaObjectE@Base 4:4.3.4
 _ZN5KBlog8Blogger16setUrlERK4KUrl@Base 4:4.3.4
 _ZN5KBlog8Blogger19fetchPostEPNS_8BlogPostE@Base 4:4.3.4
 _ZN5KBlog8Blogger19listBlogsEv@Base 4:4.3.4
 _ZN5KBlog8Blogger1C1ERK4KUrlP7QObject@Base 4:4.3.4
 _ZN5KBlog8Blogger1C1ERK4KUrlRNS_15Blogger1PrivateEP7QObject@Base 4:4.3.4
 _ZN5KBlog8Blogger1C2ERK4KUrlP7QObject@Base 4:4.3.4
 _ZN5KBlog8Blogger1C2ERK4KUrlRNS_15Blogger1PrivateEP7QObject@Base 4:4.3.4
 _ZN5KBlog8Blogger1D0Ev@Base 4:4.3.4
 _ZN5KBlog8Blogger1D1Ev@Base 4:4.3.4
 _ZN5KBlog8Blogger1D2Ev@Base 4:4.3.4
 _ZN5KBlog9BlogMedia11setMimetypeERK7QString@Base 4:4.3.4
 _ZN5KBlog9BlogMedia6setUrlERK4KUrl@Base 4:4.3.4
 _ZN5KBlog9BlogMedia7setDataERK10QByteArray@Base 4:4.3.4
 _ZN5KBlog9BlogMedia7setNameERK7QString@Base 4:4.3.4
 _ZN5KBlog9BlogMedia8setErrorERK7QString@Base 4:4.3.4
 _ZN5KBlog9BlogMedia9setStatusENS0_6StatusE@Base 4:4.3.4
 _ZN5KBlog9BlogMediaC1ERKS0_@Base 4:4.3.4
 _ZN5KBlog9BlogMediaC1Ev@Base 4:4.3.4
 _ZN5KBlog9BlogMediaC2ERKS0_@Base 4:4.3.4
 _ZN5KBlog9BlogMediaC2Ev@Base 4:4.3.4
 _ZN5KBlog9BlogMediaD0Ev@Base 4:4.3.4
 _ZN5KBlog9BlogMediaD1Ev@Base 4:4.3.4
 _ZN5KBlog9BlogMediaD2Ev@Base 4:4.3.4
 _ZN5KBlog9BlogMediaaSERKS0_@Base 4:4.3.4
 _ZNK5KBlog10MetaWeblog10metaObjectEv@Base 4:4.3.4
 _ZNK5KBlog10MetaWeblog13interfaceNameEv@Base 4:4.3.4
 _ZNK5KBlog11BlogComment16creationDateTimeEv@Base 4:4.3.4
 _ZNK5KBlog11BlogComment20modificationDateTimeEv@Base 4:4.3.4
 _ZNK5KBlog11BlogComment3urlEv@Base 4:4.3.4
 _ZNK5KBlog11BlogComment4nameEv@Base 4:4.3.4
 _ZNK5KBlog11BlogComment5emailEv@Base 4:4.3.4
 _ZNK5KBlog11BlogComment5errorEv@Base 4:4.3.4
 _ZNK5KBlog11BlogComment5titleEv@Base 4:4.3.4
 _ZNK5KBlog11BlogComment6statusEv@Base 4:4.3.4
 _ZNK5KBlog11BlogComment7contentEv@Base 4:4.3.4
 _ZNK5KBlog11BlogComment9commentIdEv@Base 4:4.3.4
 _ZNK5KBlog11MovableType10metaObjectEv@Base 4:4.3.4
 _ZNK5KBlog11MovableType13interfaceNameEv@Base 4:4.3.4
 _ZNK5KBlog14WordpressBuggy10metaObjectEv@Base 4:4.3.4
 _ZNK5KBlog14WordpressBuggy13interfaceNameEv@Base 4:4.3.4
 _ZNK5KBlog4Blog10metaObjectEv@Base 4:4.3.4
 _ZNK5KBlog4Blog3urlEv@Base 4:4.3.4
 _ZNK5KBlog4Blog6blogIdEv@Base 4:4.3.4
 _ZNK5KBlog4Blog8passwordEv@Base 4:4.3.4
 _ZNK5KBlog4Blog8usernameEv@Base 4:4.3.4
 _ZNK5KBlog4Blog9userAgentEv@Base 4:4.3.4
 _ZNK5KBlog5GData10metaObjectEv@Base 4:4.3.4
 _ZNK5KBlog5GData13interfaceNameEv@Base 4:4.3.4
 _ZNK5KBlog5GData8fullNameEv@Base 4:4.3.4
 _ZNK5KBlog5GData9profileIdEv@Base 4:4.3.4
 _ZNK5KBlog8BlogPost10categoriesEv@Base 4:4.3.4
 _ZNK5KBlog8BlogPost12setPermaLinkERK4KUrl@Base 4:4.3.4
 _ZNK5KBlog8BlogPost16creationDateTimeEv@Base 4:4.3.4
 _ZNK5KBlog8BlogPost16isCommentAllowedEv@Base 4:4.3.4
 _ZNK5KBlog8BlogPost17additionalContentEv@Base 4:4.4.0
 _ZNK5KBlog8BlogPost18isTrackBackAllowedEv@Base 4:4.3.4
 _ZNK5KBlog8BlogPost20modificationDateTimeEv@Base 4:4.3.4
 _ZNK5KBlog8BlogPost4linkEv@Base 4:4.3.4
 _ZNK5KBlog8BlogPost4moodEv@Base 4:4.3.4
 _ZNK5KBlog8BlogPost4slugEv@Base 4:4.4.0
 _ZNK5KBlog8BlogPost4tagsEv@Base 4:4.3.4
 _ZNK5KBlog8BlogPost5errorEv@Base 4:4.3.4
 _ZNK5KBlog8BlogPost5musicEv@Base 4:4.3.4
 _ZNK5KBlog8BlogPost5titleEv@Base 4:4.3.4
 _ZNK5KBlog8BlogPost6postIdEv@Base 4:4.3.4
 _ZNK5KBlog8BlogPost6statusEv@Base 4:4.3.4
 _ZNK5KBlog8BlogPost7contentEv@Base 4:4.3.4
 _ZNK5KBlog8BlogPost7journalERKNS_4BlogE@Base 4:4.3.4
 _ZNK5KBlog8BlogPost7setLinkERK4KUrl@Base 4:4.3.4
 _ZNK5KBlog8BlogPost7summaryEv@Base 4:4.3.4
 _ZNK5KBlog8BlogPost9isPrivateEv@Base 4:4.3.4
 _ZNK5KBlog8BlogPost9journalIdEv@Base 4:4.3.4
 _ZNK5KBlog8BlogPost9permaLinkEv@Base 4:4.3.4
 _ZNK5KBlog8Blogger110metaObjectEv@Base 4:4.3.4
 _ZNK5KBlog8Blogger113interfaceNameEv@Base 4:4.3.4
 _ZNK5KBlog9BlogMedia3urlEv@Base 4:4.3.4
 _ZNK5KBlog9BlogMedia4dataEv@Base 4:4.3.4
 _ZNK5KBlog9BlogMedia4nameEv@Base 4:4.3.4
 _ZNK5KBlog9BlogMedia5errorEv@Base 4:4.3.4
 _ZNK5KBlog9BlogMedia6statusEv@Base 4:4.3.4
 _ZNK5KBlog9BlogMedia8mimetypeEv@Base 4:4.3.4
 _ZTIN5KBlog10MetaWeblogE@Base 4:4.3.4
 _ZTIN5KBlog11BlogCommentE@Base 4:4.3.4
 _ZTIN5KBlog11MovableTypeE@Base 4:4.3.4
 _ZTIN5KBlog14WordpressBuggyE@Base 4:4.3.4
 _ZTIN5KBlog4BlogE@Base 4:4.3.4
 _ZTIN5KBlog5GDataE@Base 4:4.3.4
 _ZTIN5KBlog8BlogPostE@Base 4:4.3.4
 _ZTIN5KBlog8Blogger1E@Base 4:4.3.4
 _ZTIN5KBlog9BlogMediaE@Base 4:4.3.4
 _ZTSN5KBlog10MetaWeblogE@Base 4:4.3.4
 _ZTSN5KBlog11BlogCommentE@Base 4:4.3.4
 _ZTSN5KBlog11MovableTypeE@Base 4:4.3.4
 _ZTSN5KBlog14WordpressBuggyE@Base 4:4.3.4
 _ZTSN5KBlog4BlogE@Base 4:4.3.4
 _ZTSN5KBlog5GDataE@Base 4:4.3.4
 _ZTSN5KBlog8BlogPostE@Base 4:4.3.4
 _ZTSN5KBlog8Blogger1E@Base 4:4.3.4
 _ZTSN5KBlog9BlogMediaE@Base 4:4.3.4
 _ZTVN5KBlog10MetaWeblogE@Base 4:4.3.4
 _ZTVN5KBlog11BlogCommentE@Base 4:4.3.4
 _ZTVN5KBlog11MovableTypeE@Base 4:4.3.4
 _ZTVN5KBlog14WordpressBuggyE@Base 4:4.3.4
 _ZTVN5KBlog4BlogE@Base 4:4.3.4
 _ZTVN5KBlog5GDataE@Base 4:4.3.4
 _ZTVN5KBlog8BlogPostE@Base 4:4.3.4
 _ZTVN5KBlog8Blogger1E@Base 4:4.3.4
 _ZTVN5KBlog9BlogMediaE@Base 4:4.3.4
