# SymbolsHelper-Confirmed: 4:4.5.86 amd64
libkontactinterface.so.4 libkontactinterface4 #MINVER#
* Build-Depends-Package: kdepimlibs5-dev
 _ZN16KontactInterface16UniqueAppHandler10mainWidgetEv@Base 4:4.5.86
 _ZN16KontactInterface16UniqueAppHandler11newInstanceERK10QByteArrayS3_@Base 4:4.4.0
 _ZN16KontactInterface16UniqueAppHandler11newInstanceEv@Base 4:4.4.0
 _ZN16KontactInterface16UniqueAppHandler11qt_metacallEN11QMetaObject4CallEiPPv@Base 4:4.4.0
 _ZN16KontactInterface16UniqueAppHandler11qt_metacastEPKc@Base 4:4.4.0
 _ZN16KontactInterface16UniqueAppHandler13setMainWidgetEP7QWidget@Base 4:4.4.0
 _ZN16KontactInterface16UniqueAppHandler16staticMetaObjectE@Base 4:4.4.0
 _ZN16KontactInterface16UniqueAppHandler4loadEv@Base 4:4.4.0
 _ZN16KontactInterface16UniqueAppHandlerC1EPNS_6PluginE@Base 4:4.4.0
 _ZN16KontactInterface16UniqueAppHandlerC2EPNS_6PluginE@Base 4:4.4.0
 _ZN16KontactInterface16UniqueAppHandlerD0Ev@Base 4:4.4.0
 _ZN16KontactInterface16UniqueAppHandlerD1Ev@Base 4:4.4.0
 _ZN16KontactInterface16UniqueAppHandlerD2Ev@Base 4:4.4.0
 _ZN16KontactInterface16UniqueAppWatcher11qt_metacallEN11QMetaObject4CallEiPPv@Base 4:4.4.0
 _ZN16KontactInterface16UniqueAppWatcher11qt_metacastEPKc@Base 4:4.4.0
 _ZN16KontactInterface16UniqueAppWatcher16staticMetaObjectE@Base 4:4.4.0
 _ZN16KontactInterface16UniqueAppWatcher22slotApplicationRemovedERK7QStringS3_S3_@Base 4:4.4.0
 _ZN16KontactInterface16UniqueAppWatcherC1EPNS_27UniqueAppHandlerFactoryBaseEPNS_6PluginE@Base 4:4.4.0
 _ZN16KontactInterface16UniqueAppWatcherC2EPNS_27UniqueAppHandlerFactoryBaseEPNS_6PluginE@Base 4:4.4.0
 _ZN16KontactInterface16UniqueAppWatcherD0Ev@Base 4:4.4.0
 _ZN16KontactInterface16UniqueAppWatcherD1Ev@Base 4:4.4.0
 _ZN16KontactInterface16UniqueAppWatcherD2Ev@Base 4:4.4.0
 _ZN16KontactInterface20PimUniqueApplication5startE6QFlagsIN18KUniqueApplication9StartFlagEE@Base 4:4.5.0
 _ZN16KontactInterface20PimUniqueApplication5startEv@Base 4:4.4.0
 _ZN16KontactInterface20PimUniqueApplicationC1Ev@Base 4:4.4.0
 _ZN16KontactInterface20PimUniqueApplicationC2Ev@Base 4:4.4.0
 _ZN16KontactInterface20PimUniqueApplicationD0Ev@Base 4:4.4.0
 _ZN16KontactInterface20PimUniqueApplicationD1Ev@Base 4:4.4.0
 _ZN16KontactInterface20PimUniqueApplicationD2Ev@Base 4:4.4.0
 _ZN16KontactInterface4Core10createPartEPKc@Base 4:4.4.0
 _ZN16KontactInterface4Core10dayChangedERK5QDate@Base 4:4.4.0
 _ZN16KontactInterface4Core11qt_metacallEN11QMetaObject4CallEiPPv@Base 4:4.4.0
 _ZN16KontactInterface4Core11qt_metacastEPKc@Base 4:4.4.0
 _ZN16KontactInterface4Core16staticMetaObjectE@Base 4:4.4.0
 _ZN16KontactInterface4Core7Private11checkNewDayEv@Base 4:4.4.0
 _ZN16KontactInterface4Core7Private17slotPartDestroyedEP7QObject@Base 4:4.4.0
 _ZN16KontactInterface4Core7PrivateC1EPS0_@Base 4:4.4.0
 _ZN16KontactInterface4Core7PrivateC2EPS0_@Base 4:4.4.0
 _ZN16KontactInterface4CoreC1EP7QWidget6QFlagsIN2Qt10WindowTypeEE@Base 4:4.4.0
 _ZN16KontactInterface4CoreC2EP7QWidget6QFlagsIN2Qt10WindowTypeEE@Base 4:4.4.0
 _ZN16KontactInterface4CoreD0Ev@Base 4:4.4.0
 _ZN16KontactInterface4CoreD1Ev@Base 4:4.4.0
 _ZN16KontactInterface4CoreD2Ev@Base 4:4.4.0
 _ZN16KontactInterface6Plugin11qt_metacallEN11QMetaObject4CallEiPPv@Base 4:4.4.0
 _ZN16KontactInterface6Plugin11qt_metacastEPKc@Base 4:4.4.0
 _ZN16KontactInterface6Plugin11setDisabledEb@Base 4:4.4.0
 _ZN16KontactInterface6Plugin12virtual_hookEiPv@Base 4:4.4.0
 _ZN16KontactInterface6Plugin13aboutToSelectEv@Base 4:4.4.0
 _ZN16KontactInterface6Plugin13configUpdatedEv@Base 4:4.4.0
 _ZN16KontactInterface6Plugin13setIdentifierERK7QString@Base 4:4.4.0
 _ZN16KontactInterface6Plugin14readPropertiesERK12KConfigGroup@Base 4:4.4.0
 _ZN16KontactInterface6Plugin14registerClientEv@Base 4:4.4.0
 _ZN16KontactInterface6Plugin14savePropertiesER12KConfigGroup@Base 4:4.4.0
 _ZN16KontactInterface6Plugin15insertNewActionEP7KAction@Base 4:4.4.0
 _ZN16KontactInterface6Plugin16insertSyncActionEP7KAction@Base 4:4.4.0
 _ZN16KontactInterface6Plugin16processDropEventEP10QDropEvent@Base 4:4.4.0
 _ZN16KontactInterface6Plugin16setShowInSideBarEb@Base 4:4.4.0
 _ZN16KontactInterface6Plugin16staticMetaObjectE@Base 4:4.4.0
 _ZN16KontactInterface6Plugin17bringToForegroundEv@Base 4:4.4.0
 _ZN16KontactInterface6Plugin17setExecutableNameERK7QString@Base 4:4.4.0
 _ZN16KontactInterface6Plugin17slotConfigUpdatedEv@Base 4:4.4.0
 _ZN16KontactInterface6Plugin18setPartLibraryNameERK10QByteArray@Base 4:4.4.0
 _ZN16KontactInterface6Plugin19createDBUSInterfaceERK7QString@Base 4:4.4.0
 _ZN16KontactInterface6Plugin19createSummaryWidgetEP7QWidget@Base 4:4.4.0
 _ZN16KontactInterface6Plugin4partEv@Base 4:4.4.0
 _ZN16KontactInterface6Plugin6selectEv@Base 4:4.4.0
 _ZN16KontactInterface6Plugin7Private11setXmlFilesEv@Base 4:4.4.0
 _ZN16KontactInterface6Plugin7Private13partDestroyedEv@Base 4:4.4.0
 _ZN16KontactInterface6Plugin7Private29removeInvisibleToolbarActionsEPS0_@Base 4:4.4.0
 _ZN16KontactInterface6Plugin7setIconERK7QString@Base 4:4.4.0
 _ZN16KontactInterface6Plugin8loadPartEv@Base 4:4.4.0
 _ZN16KontactInterface6Plugin8setTitleERK7QString@Base 4:4.4.0
 _ZN16KontactInterface6PluginC1EPNS_4CoreEP7QObjectPKcS6_@Base 4:4.4.0
 _ZN16KontactInterface6PluginC2EPNS_4CoreEP7QObjectPKcS6_@Base 4:4.4.0
 _ZN16KontactInterface6PluginD0Ev@Base 4:4.4.0
 _ZN16KontactInterface6PluginD1Ev@Base 4:4.4.0
 _ZN16KontactInterface6PluginD2Ev@Base 4:4.4.0
 _ZN16KontactInterface7Summary11qt_metacallEN11QMetaObject4CallEiPPv@Base 4:4.4.0
 _ZN16KontactInterface7Summary11qt_metacastEPKc@Base 4:4.4.0
 _ZN16KontactInterface7Summary12createHeaderEP7QWidgetRK7QStringS5_@Base 4:4.4.0
 _ZN16KontactInterface7Summary13configChangedEv@Base 4:4.4.0
 _ZN16KontactInterface7Summary13updateSummaryEb@Base 4:4.4.0
 _ZN16KontactInterface7Summary14dragEnterEventEP15QDragEnterEvent@Base 4:4.4.0
 _ZN16KontactInterface7Summary14mouseMoveEventEP11QMouseEvent@Base 4:4.4.0
 _ZN16KontactInterface7Summary15mousePressEventEP11QMouseEvent@Base 4:4.4.0
 _ZN16KontactInterface7Summary16staticMetaObjectE@Base 4:4.4.0
 _ZN16KontactInterface7Summary20summaryWidgetDroppedEP7QWidgetS2_i@Base 4:4.4.0
 _ZN16KontactInterface7Summary7messageERK7QString@Base 4:4.4.0
 _ZN16KontactInterface7Summary9dropEventEP10QDropEvent@Base 4:4.4.0
 _ZN16KontactInterface7SummaryC1EP7QWidget@Base 4:4.4.0
 _ZN16KontactInterface7SummaryC2EP7QWidget@Base 4:4.4.0
 _ZN16KontactInterface7SummaryD0Ev@Base 4:4.4.0
 _ZN16KontactInterface7SummaryD1Ev@Base 4:4.4.0
 _ZN16KontactInterface7SummaryD2Ev@Base 4:4.4.0
 _ZNK16KontactInterface16UniqueAppHandler10metaObjectEv@Base 4:4.4.0
 _ZNK16KontactInterface16UniqueAppHandler6pluginEv@Base 4:4.4.0
 _ZNK16KontactInterface16UniqueAppWatcher10metaObjectEv@Base 4:4.4.0
 _ZNK16KontactInterface16UniqueAppWatcher19isRunningStandaloneEv@Base 4:4.4.0
 _ZNK16KontactInterface4Core10metaObjectEv@Base 4:4.4.0
 _ZNK16KontactInterface4Core16lastErrorMessageEv@Base 4:4.4.0
 _ZNK16KontactInterface6Plugin10identifierEv@Base 4:4.4.0
 _ZNK16KontactInterface6Plugin10metaObjectEv@Base 4:4.4.0
 _ZNK16KontactInterface6Plugin10newActionsEv@Base 4:4.4.0
 _ZNK16KontactInterface6Plugin10queryCloseEv@Base 4:4.4.0
 _ZNK16KontactInterface6Plugin11syncActionsEv@Base 4:4.4.0
 _ZNK16KontactInterface6Plugin13showInSideBarEv@Base 4:4.4.0
 _ZNK16KontactInterface6Plugin14executableNameEv@Base 4:4.4.0
 _ZNK16KontactInterface6Plugin17canDecodeMimeDataEPK9QMimeData@Base 4:4.4.0
 _ZNK16KontactInterface6Plugin19isRunningStandaloneEv@Base 4:4.4.0
 _ZNK16KontactInterface6Plugin23invisibleToolbarActionsEv@Base 4:4.4.0
 _ZNK16KontactInterface6Plugin4coreEv@Base 4:4.4.0
 _ZNK16KontactInterface6Plugin4iconEv@Base 4:4.4.0
 _ZNK16KontactInterface6Plugin5titleEv@Base 4:4.4.0
 _ZNK16KontactInterface6Plugin6weightEv@Base 4:4.4.0
 _ZNK16KontactInterface6Plugin7tipFileEv@Base 4:4.4.0
 _ZNK16KontactInterface6Plugin8disabledEv@Base 4:4.4.0
 _ZNK16KontactInterface6Plugin9aboutDataEv@Base 4:4.4.0
 _ZNK16KontactInterface7Summary10metaObjectEv@Base 4:4.4.0
 _ZNK16KontactInterface7Summary13configModulesEv@Base 4:4.4.0
 _ZNK16KontactInterface7Summary13summaryHeightEv@Base 4:4.4.0
 _ZTIN16KontactInterface16UniqueAppHandlerE@Base 4:4.4.0
 _ZTIN16KontactInterface16UniqueAppWatcherE@Base 4:4.4.0
 _ZTIN16KontactInterface20PimUniqueApplicationE@Base 4:4.4.0
 _ZTIN16KontactInterface4CoreE@Base 4:4.4.0
 _ZTIN16KontactInterface6PluginE@Base 4:4.4.0
 _ZTIN16KontactInterface7SummaryE@Base 4:4.4.0
 _ZTSN16KontactInterface16UniqueAppHandlerE@Base 4:4.4.0
 _ZTSN16KontactInterface16UniqueAppWatcherE@Base 4:4.4.0
 _ZTSN16KontactInterface20PimUniqueApplicationE@Base 4:4.4.0
 _ZTSN16KontactInterface4CoreE@Base 4:4.4.0
 _ZTSN16KontactInterface6PluginE@Base 4:4.4.0
 _ZTSN16KontactInterface7SummaryE@Base 4:4.4.0
 _ZTTN16KontactInterface4CoreE@Base 4:4.4.0
 _ZTTN16KontactInterface6PluginE@Base 4:4.4.0
 _ZTVN16KontactInterface16UniqueAppHandlerE@Base 4:4.4.0
 _ZTVN16KontactInterface16UniqueAppWatcherE@Base 4:4.4.0
 _ZTVN16KontactInterface20PimUniqueApplicationE@Base 4:4.4.0
 _ZTVN16KontactInterface4CoreE@Base 4:4.4.0
 _ZTVN16KontactInterface6PluginE@Base 4:4.4.0
 _ZTVN16KontactInterface7SummaryE@Base 4:4.4.0
 (c++)"construction vtable for KParts::MainWindow-in-KontactInterface::Core@Base" 4:4.4.0
 (c++)"construction vtable for KParts::PartBase-in-KontactInterface::Core@Base" 4:4.4.0
 (c++)"construction vtable for KXmlGuiWindow-in-KontactInterface::Core@Base" 4:4.4.0
 (c++)"non-virtual thunk to KontactInterface::Core::~Core()@Base" 4:4.4.0
 (c++)"non-virtual thunk to KontactInterface::Summary::~Summary()@Base" 4:4.4.0
 (c++)"virtual thunk to KontactInterface::Core::~Core()@Base" 4:4.4.0
 (c++)"virtual thunk to KontactInterface::Plugin::virtual_hook(int, void*)@Base" 4:4.4.0
 (c++)"virtual thunk to KontactInterface::Plugin::~Plugin()@Base" 4:4.4.0
