# SymbolsHelper-Confirmed: 4:4.5.86 amd64
libktnef.so.4 libktnef4 #MINVER#
* Build-Depends-Package: kdepimlibs5-dev
 _ZN5KTnef11KTNEFAttach10setMimeTagERK7QString@Base 4:4.3.4
 _ZN5KTnef11KTNEFAttach11setFileNameERK7QString@Base 4:4.3.4
 _ZN5KTnef11KTNEFAttach12setExtensionERK7QString@Base 4:4.3.4
 _ZN5KTnef11KTNEFAttach13setDataParsedEv@Base 4:4.3.4
 _ZN5KTnef11KTNEFAttach13setInfoParsedEv@Base 4:4.3.4
 _ZN5KTnef11KTNEFAttach14setDisplayNameERK7QString@Base 4:4.3.4
 _ZN5KTnef11KTNEFAttach14setDisplaySizeEi@Base 4:4.3.4
 _ZN5KTnef11KTNEFAttach14setTitleParsedEv@Base 4:4.3.4
 _ZN5KTnef11KTNEFAttach15unsetDataParserEv@Base 4:4.3.4
 _ZN5KTnef11KTNEFAttach7setNameERK7QString@Base 4:4.3.4
 _ZN5KTnef11KTNEFAttach7setSizeEi@Base 4:4.3.4
 _ZN5KTnef11KTNEFAttach8setIndexEi@Base 4:4.3.4
 _ZN5KTnef11KTNEFAttach9setOffsetEi@Base 4:4.3.4
 _ZN5KTnef11KTNEFAttachC1Ev@Base 4:4.3.4
 _ZN5KTnef11KTNEFAttachC2Ev@Base 4:4.3.4
 _ZN5KTnef11KTNEFAttachD1Ev@Base 4:4.3.4
 _ZN5KTnef11KTNEFAttachD2Ev@Base 4:4.3.4
 _ZN5KTnef11KTNEFParser10extractAllEv@Base 4:4.3.4
 _ZN5KTnef11KTNEFParser10openDeviceEP9QIODevice@Base 4:4.3.4
 _ZN5KTnef11KTNEFParser13ParserPrivate11parseDeviceEv@Base 4:4.3.4
 _ZN5KTnef11KTNEFParser13ParserPrivate12checkCurrentEi@Base 4:4.3.4
 _ZN5KTnef11KTNEFParser13ParserPrivate12deleteDeviceEv@Base 4:4.3.4
 _ZN5KTnef11KTNEFParser13ParserPrivate13decodeMessageEv@Base 4:4.3.4
 _ZN5KTnef11KTNEFParser13ParserPrivate16decodeAttachmentEv@Base 4:4.3.4
 _ZN5KTnef11KTNEFParser13ParserPrivate18readMAPIPropertiesER4QMapIiPNS_13KTNEFPropertyEEPNS_11KTNEFAttachE@Base 4:4.3.4
 _ZN5KTnef11KTNEFParser13ParserPrivate19extractAttachmentToEPNS_11KTNEFAttachERK7QString@Base 4:4.3.4
 _ZN5KTnef11KTNEFParser20setDefaultExtractDirERK7QString@Base 4:4.3.4
 _ZN5KTnef11KTNEFParserC1Ev@Base 4:4.3.4
 _ZN5KTnef11KTNEFParserC2Ev@Base 4:4.3.4
 _ZN5KTnef11KTNEFParserD1Ev@Base 4:4.3.4
 _ZN5KTnef11KTNEFParserD2Ev@Base 4:4.3.4
 _ZN5KTnef11KTNEFWriter10setDtStampERK9QDateTime@Base 4:4.3.4
 _ZN5KTnef11KTNEFWriter10setDtStartERK9QDateTime@Base 4:4.3.4
 _ZN5KTnef11KTNEFWriter10setSummaryERK7QString@Base 4:4.3.4
 _ZN5KTnef11KTNEFWriter11addAttendeeERK7QStringNS0_4RoleENS0_8PartStatEbS3_@Base 4:4.3.4
 _ZN5KTnef11KTNEFWriter11addPropertyEiiRK8QVariant@Base 4:4.3.4
 _ZN5KTnef11KTNEFWriter11setLocationERK7QString@Base 4:4.3.4
 _ZN5KTnef11KTNEFWriter11setPriorityENS0_8PriorityE@Base 4:4.3.4
 _ZN5KTnef11KTNEFWriter12setOrganizerERK7QString@Base 4:4.3.4
 _ZN5KTnef11KTNEFWriter13setCategoriesERK11QStringList@Base 4:4.3.4
 _ZN5KTnef11KTNEFWriter14clearAttendeesEv@Base 4:4.3.4
 _ZN5KTnef11KTNEFWriter14setDescriptionERK7QString@Base 4:4.3.4
 _ZN5KTnef11KTNEFWriter14setMessageTypeENS0_11MessageTypeE@Base 4:4.3.4
 _ZN5KTnef11KTNEFWriter6setUIDERK7QString@Base 4:4.3.4
 _ZN5KTnef11KTNEFWriter8setAlarmERK7QStringNS0_11AlarmActionERK9QDateTime@Base 4:4.3.4
 _ZN5KTnef11KTNEFWriter8setDtEndERK9QDateTime@Base 4:4.3.4
 _ZN5KTnef11KTNEFWriter9setMethodENS0_6MethodE@Base 4:4.3.4
 _ZN5KTnef11KTNEFWriter9setSenderERK7QStringS3_@Base 4:4.3.4
 _ZN5KTnef11KTNEFWriterC1Ev@Base 4:4.3.4
 _ZN5KTnef11KTNEFWriterC2Ev@Base 4:4.3.4
 _ZN5KTnef11KTNEFWriterD1Ev@Base 4:4.3.4
 _ZN5KTnef11KTNEFWriterD2Ev@Base 4:4.3.4
 _ZN5KTnef12KTNEFMessage13addAttachmentEPNS_11KTNEFAttachE@Base 4:4.3.4
 _ZN5KTnef12KTNEFMessage14MessagePrivate16clearAttachmentsEv@Base 4:4.3.4
 _ZN5KTnef12KTNEFMessage14MessagePrivateD1Ev@Base 4:4.3.4
 _ZN5KTnef12KTNEFMessage14MessagePrivateD2Ev@Base 4:4.3.4
 _ZN5KTnef12KTNEFMessage16clearAttachmentsEv@Base 4:4.3.4
 _ZN5KTnef12KTNEFMessageC1Ev@Base 4:4.3.4
 _ZN5KTnef12KTNEFMessageC2Ev@Base 4:4.3.4
 _ZN5KTnef12KTNEFMessageD1Ev@Base 4:4.3.4
 _ZN5KTnef12KTNEFMessageD2Ev@Base 4:4.3.4
 _ZN5KTnef13KTNEFProperty11formatValueERK8QVariantb@Base 4:4.3.4
 _ZN5KTnef13KTNEFPropertyC1ERKS0_@Base 4:4.3.4
 _ZN5KTnef13KTNEFPropertyC1EiiRK8QVariantS3_@Base 4:4.3.4
 _ZN5KTnef13KTNEFPropertyC1Ev@Base 4:4.3.4
 _ZN5KTnef13KTNEFPropertyC2ERKS0_@Base 4:4.3.4
 _ZN5KTnef13KTNEFPropertyC2EiiRK8QVariantS3_@Base 4:4.3.4
 _ZN5KTnef13KTNEFPropertyC2Ev@Base 4:4.3.4
 _ZN5KTnef13KTNEFPropertyD1Ev@Base 4:4.3.4
 _ZN5KTnef13KTNEFPropertyD2Ev@Base 4:4.3.4
 _ZN5KTnef13KTNEFPropertyaSERKS0_@Base 4:4.3.4
 _ZN5KTnef13msTNEFToVPartERK10QByteArray@Base 4:4.3.4
 _ZN5KTnef16KTNEFPropertySet10attributesEv@Base 4:4.3.4
 _ZN5KTnef16KTNEFPropertySet10propertiesEv@Base 4:4.3.4
 _ZN5KTnef16KTNEFPropertySet11addPropertyEiiRK8QVariantS3_b@Base 4:4.3.4
 _ZN5KTnef16KTNEFPropertySet12addAttributeEiiRK8QVariantb@Base 4:4.3.4
 _ZN5KTnef16KTNEFPropertySet5clearEb@Base 4:4.3.4
 _ZN5KTnef16KTNEFPropertySetC1Ev@Base 4:4.3.4
 _ZN5KTnef16KTNEFPropertySetC2Ev@Base 4:4.3.4
 _ZN5KTnef16KTNEFPropertySetD1Ev@Base 4:4.3.4
 _ZN5KTnef16KTNEFPropertySetD2Ev@Base 4:4.3.4
 _ZN5KTnef20formatTNEFInvitationERK10QByteArrayPN4KCal8CalendarEPNS3_25InvitationFormatterHelperE@Base 4:4.3.4
 _ZN5KTnef20formatTNEFInvitationERK10QByteArrayRK14QSharedPointerIN8KCalCore14MemoryCalendarEEPN9KCalUtils25InvitationFormatterHelperE@Base 4:4.5.86
 _ZNK5KTnef11KTNEFAttach10checkStateEi@Base 4:4.3.4
 _ZNK5KTnef11KTNEFAttach10dataParsedEv@Base 4:4.3.4
 _ZNK5KTnef11KTNEFAttach10infoParsedEv@Base 4:4.3.4
 _ZNK5KTnef11KTNEFAttach11displayNameEv@Base 4:4.3.4
 _ZNK5KTnef11KTNEFAttach11displaySizeEv@Base 4:4.3.4
 _ZNK5KTnef11KTNEFAttach11titleParsedEv@Base 4:4.3.4
 _ZNK5KTnef11KTNEFAttach4nameEv@Base 4:4.3.4
 _ZNK5KTnef11KTNEFAttach4sizeEv@Base 4:4.3.4
 _ZNK5KTnef11KTNEFAttach5indexEv@Base 4:4.3.4
 _ZNK5KTnef11KTNEFAttach6offsetEv@Base 4:4.3.4
 _ZNK5KTnef11KTNEFAttach7mimeTagEv@Base 4:4.3.4
 _ZNK5KTnef11KTNEFAttach8fileNameEv@Base 4:4.3.4
 _ZNK5KTnef11KTNEFAttach9extensionEv@Base 4:4.3.4
 _ZNK5KTnef11KTNEFParser11extractFileERK7QString@Base 4:4.3.4
 _ZNK5KTnef11KTNEFParser13extractFileToERK7QStringS3_@Base 4:4.3.4
 _ZNK5KTnef11KTNEFParser7messageEv@Base 4:4.3.4
 _ZNK5KTnef11KTNEFParser8openFileERK7QString@Base 4:4.3.4
 _ZNK5KTnef11KTNEFWriter13writePropertyER11QDataStreamRii@Base 4:4.3.4
 _ZNK5KTnef11KTNEFWriter9writeFileER11QDataStream@Base 4:4.3.4
 _ZNK5KTnef11KTNEFWriter9writeFileER9QIODevice@Base 4:4.3.4
 _ZNK5KTnef12KTNEFMessage10attachmentERK7QString@Base 4:4.3.4
 _ZNK5KTnef12KTNEFMessage14attachmentListEv@Base 4:4.3.4
 _ZNK5KTnef12KTNEFMessage9rtfStringEv@Base 4:4.3.4
 _ZNK5KTnef13KTNEFProperty11valueStringEv@Base 4:4.3.4
 _ZNK5KTnef13KTNEFProperty3keyEv@Base 4:4.3.4
 _ZNK5KTnef13KTNEFProperty4nameEv@Base 4:4.3.4
 _ZNK5KTnef13KTNEFProperty4typeEv@Base 4:4.3.4
 _ZNK5KTnef13KTNEFProperty5valueEv@Base 4:4.3.4
 _ZNK5KTnef13KTNEFProperty8isVectorEv@Base 4:4.3.4
 _ZNK5KTnef13KTNEFProperty9keyStringEv@Base 4:4.3.4
 _ZNK5KTnef16KTNEFPropertySet10attributesEv@Base 4:4.3.4
 _ZNK5KTnef16KTNEFPropertySet10propertiesEv@Base 4:4.3.4
 _ZNK5KTnef16KTNEFPropertySet13findNamedPropERK7QStringS3_b@Base 4:4.3.4
 _ZNK5KTnef16KTNEFPropertySet8findPropEiRK7QStringb@Base 4:4.3.4
 _ZNK5KTnef16KTNEFPropertySet8propertyEi@Base 4:4.3.4
 _ZNK5KTnef16KTNEFPropertySet9attributeEi@Base 4:4.3.4
