# SymbolsHelper-Confirmed: 4:4.6.5 amd64
libkpimutils.so.4 libkpimutils4 #MINVER#
* Build-Depends-Package: kdepimlibs5-dev
 _ZN9KPIMUtils11LinkLocator12pngToDataUrlERK7QString@Base 4:4.3.4
 _ZN9KPIMUtils11LinkLocator12setMaxUrlLenEi@Base 4:4.3.4
 _ZN9KPIMUtils11LinkLocator13convertToHtmlERK7QStringiii@Base 4:4.3.4
 _ZN9KPIMUtils11LinkLocator15getEmailAddressEv@Base 4:4.3.4
 _ZN9KPIMUtils11LinkLocator15highlightedTextEv@Base 4:4.3.4
 _ZN9KPIMUtils11LinkLocator16setMaxAddressLenEi@Base 4:4.3.4
 _ZN9KPIMUtils11LinkLocator6getUrlEv@Base 4:4.3.4
 _ZN9KPIMUtils11LinkLocatorC1ERK7QStringi@Base 4:4.3.4
 _ZN9KPIMUtils11LinkLocatorC2ERK7QStringi@Base 4:4.3.4
 _ZN9KPIMUtils11LinkLocatorD1Ev@Base 4:4.3.4
 _ZN9KPIMUtils11LinkLocatorD2Ev@Base 4:4.3.4
 _ZN9KPIMUtils12compareEmailERK7QStringS2_b@Base 4:4.3.4
 _ZN9KPIMUtils12splitAddressERK10QByteArrayRS0_S3_S3_@Base 4:4.3.4
 _ZN9KPIMUtils12splitAddressERK7QStringRS0_S3_S3_@Base 4:4.3.4
 _ZN9KPIMUtils14EmailValidatorC1EP7QObject@Base 4:4.5.86
 _ZN9KPIMUtils14EmailValidatorC2EP7QObject@Base 4:4.5.86
 _ZN9KPIMUtils14EmailValidatorD0Ev@Base 4:4.6.5
 _ZN9KPIMUtils14EmailValidatorD1Ev@Base 4:4.6.5
 _ZN9KPIMUtils14EmailValidatorD2Ev@Base 4:4.6.5
 _ZN9KPIMUtils14SpellingFilter10TextCensor10censorUrlsEv@Base 4:4.3.4
 _ZN9KPIMUtils14SpellingFilter10TextCensor12censorStringERK7QString@Base 4:4.3.4
 _ZN9KPIMUtils14SpellingFilter10TextCensor13findQuotationERK7QString@Base 4:4.3.4
 _ZN9KPIMUtils14SpellingFilter10TextCensor13skipQuotationERK7QString@Base 4:4.3.4
 _ZN9KPIMUtils14SpellingFilter10TextCensor16censorQuotationsERK7QString@Base 4:4.3.4
 _ZN9KPIMUtils14SpellingFilter10TextCensor16findEmailAddressEv@Base 4:4.3.4
 _ZN9KPIMUtils14SpellingFilter10TextCensor20censorEmailAddressesEv@Base 4:4.3.4
 _ZN9KPIMUtils14SpellingFilter10TextCensor8skipLineEv@Base 4:4.3.4
 _ZN9KPIMUtils14SpellingFilter10TextCensorC1ERK7QString@Base 4:4.3.4
 _ZN9KPIMUtils14SpellingFilter10TextCensorC2ERK7QString@Base 4:4.3.4
 _ZN9KPIMUtils14SpellingFilterC1ERK7QStringS3_NS0_12UrlFilteringENS0_21EmailAddressFilteringERK11QStringList@Base 4:4.3.4
 _ZN9KPIMUtils14SpellingFilterC2ERK7QStringS3_NS0_12UrlFilteringENS0_21EmailAddressFilteringERK11QStringList@Base 4:4.3.4
 _ZN9KPIMUtils14SpellingFilterD1Ev@Base 4:4.3.4
 _ZN9KPIMUtils14SpellingFilterD2Ev@Base 4:4.3.4
 _ZN9KPIMUtils14isValidAddressERK7QString@Base 4:4.3.4
 _ZN9KPIMUtils15decodeMailtoUrlERK4KUrl@Base 4:4.4.3
 _ZN9KPIMUtils15encodeMailtoUrlERK7QString@Base 4:4.4.3
 _ZN9KPIMUtils16kByteArrayToFileERK10QByteArrayRK7QStringbbb@Base 4:4.3.4
 _ZN9KPIMUtils16kFileToByteArrayERK7QStringbb@Base 4:4.3.4
 _ZN9KPIMUtils16splitAddressListERK7QString@Base 4:4.3.4
 _ZN9KPIMUtils17firstEmailAddressERK10QByteArray@Base 4:4.3.4
 _ZN9KPIMUtils17firstEmailAddressERK7QString@Base 4:4.3.4
 _ZN9KPIMUtils17normalizedAddressERK7QStringS2_S2_@Base 4:4.3.4
 _ZN9KPIMUtils18isValidAddressListERK7QStringRS0_@Base 4:4.3.4
 _ZN9KPIMUtils19NetworkAccessHelper11qt_metacallEN11QMetaObject4CallEiPPv@Base 4:4.5.86
 _ZN9KPIMUtils19NetworkAccessHelper11qt_metacastEPKc@Base 4:4.5.86
 _ZN9KPIMUtils19NetworkAccessHelper16staticMetaObjectE@Base 4:4.5.86
 _ZN9KPIMUtils19NetworkAccessHelper17releaseConnectionEv@Base 4:4.5.86
 _ZN9KPIMUtils19NetworkAccessHelper19establishConnectionEv@Base 4:4.5.86
 _ZN9KPIMUtils19NetworkAccessHelperC1EP7QObject@Base 4:4.5.86
 _ZN9KPIMUtils19NetworkAccessHelperC2EP7QObject@Base 4:4.5.86
 _ZN9KPIMUtils19NetworkAccessHelperD0Ev@Base 4:4.5.86
 _ZN9KPIMUtils19NetworkAccessHelperD1Ev@Base 4:4.5.86
 _ZN9KPIMUtils19NetworkAccessHelperD2Ev@Base 4:4.5.86
 _ZN9KPIMUtils19extractEmailAddressERK10QByteArray@Base 4:4.3.4
 _ZN9KPIMUtils19extractEmailAddressERK7QString@Base 4:4.3.4
 _ZN9KPIMUtils20isValidSimpleAddressERK7QString@Base 4:4.3.4
 _ZN9KPIMUtils20quoteNameIfNecessaryERK7QString@Base 4:4.3.4
 _ZN9KPIMUtils24emailParseResultToStringENS_16EmailParseResultE@Base 4:4.3.4
 _ZN9KPIMUtils26extractEmailAddressAndNameERK7QStringRS0_S3_@Base 4:4.3.4
 _ZN9KPIMUtils26simpleEmailAddressErrorMsgEv@Base 4:4.3.4
 _ZN9KPIMUtils30normalizeAddressesAndDecodeIdnERK7QString@Base 4:4.3.4
 _ZN9KPIMUtils30normalizeAddressesAndEncodeIdnERK7QString@Base 4:4.3.4
 _ZN9KPIMUtils31removeDirAndContentsRecursivelyERK7QString@Base 4:4.3.4
 _ZN9KPIMUtils36checkAndCorrectPermissionsIfPossibleERK7QStringbbb@Base 4:4.3.4
 _ZN9KPIMUtils53checkAndCorrectPermissionsIfPossibleWithErrorHandlingEP7QWidgetRK7QStringbbb@Base 4:4.3.4
 _ZN9KPIMUtils5toIdnERK7QString@Base 4:4.3.4
 _ZN9KPIMUtils7fromIdnERK7QString@Base 4:4.3.4
 _ZNK9KPIMUtils11LinkLocator10isEmptyUrlERK7QString@Base 4:4.3.4
 _ZNK9KPIMUtils11LinkLocator13maxAddressLenEv@Base 4:4.3.4
 _ZNK9KPIMUtils11LinkLocator5atUrlEv@Base 4:4.3.4
 _ZNK9KPIMUtils11LinkLocator9maxUrlLenEv@Base 4:4.3.4
 _ZNK9KPIMUtils14EmailValidator5fixupER7QString@Base 4:4.5.86
 _ZNK9KPIMUtils14EmailValidator8validateER7QStringRi@Base 4:4.5.86
 _ZNK9KPIMUtils14SpellingFilter10TextCensor11atLineStartEv@Base 4:4.3.4
 _ZNK9KPIMUtils14SpellingFilter10TextCensor11atQuotationERK7QString@Base 4:4.3.4
 _ZNK9KPIMUtils14SpellingFilter10TextCensor12censoredTextEv@Base 4:4.3.4
 _ZNK9KPIMUtils14SpellingFilter12filteredTextEv@Base 4:4.3.4
 _ZNK9KPIMUtils14SpellingFilter12originalTextEv@Base 4:4.3.4
 _ZNK9KPIMUtils19NetworkAccessHelper10metaObjectEv@Base 4:4.5.86
 _ZTIN9KPIMUtils14EmailValidatorE@Base 4:4.5.86
 _ZTIN9KPIMUtils19NetworkAccessHelperE@Base 4:4.5.86
 _ZTSN9KPIMUtils14EmailValidatorE@Base 4:4.5.86
 _ZTSN9KPIMUtils19NetworkAccessHelperE@Base 4:4.5.86
 _ZTVN9KPIMUtils14EmailValidatorE@Base 4:4.5.86
 _ZTVN9KPIMUtils19NetworkAccessHelperE@Base 4:4.5.86
