libmailtransport.so.4 libmailtransport4 #MINVER#, kdepim-runtime, kdepimlibs-kio-plugins
* Build-Depends-Package: kdepimlibs5-dev
 _ZN13MailTransport10ServerTest11progressBarEv@Base 4:4.3.4
 _ZN13MailTransport10ServerTest11qt_metacallEN11QMetaObject4CallEiPPv@Base 4:4.3.4
 _ZN13MailTransport10ServerTest11qt_metacastEPKc@Base 4:4.3.4
 _ZN13MailTransport10ServerTest11setProtocolERK7QString@Base 4:4.3.4
 _ZN13MailTransport10ServerTest12fakeHostnameEv@Base 4:4.3.4
 _ZN13MailTransport10ServerTest12tlsProtocolsEv@Base 4:4.3.4
 _ZN13MailTransport10ServerTest14setProgressBarEP12QProgressBar@Base 4:4.3.4
 _ZN13MailTransport10ServerTest15normalProtocolsEv@Base 4:4.3.4
 _ZN13MailTransport10ServerTest15secureProtocolsEv@Base 4:4.3.4
 _ZN13MailTransport10ServerTest15setFakeHostnameERK7QString@Base 4:4.3.4
 _ZN13MailTransport10ServerTest16isNormalPossibleEv@Base 4:4.5.0
 _ZN13MailTransport10ServerTest16isSecurePossibleEv@Base 4:4.5.0
 _ZN13MailTransport10ServerTest16staticMetaObjectE@Base 4:4.3.4
 _ZN13MailTransport10ServerTest4portENS_13TransportBase14EnumEncryption4typeE@Base 4:4.3.4
 _ZN13MailTransport10ServerTest5startEv@Base 4:4.3.4
 _ZN13MailTransport10ServerTest6serverEv@Base 4:4.3.4
 _ZN13MailTransport10ServerTest7setPortENS_13TransportBase14EnumEncryption4typeEj@Base 4:4.3.4
 _ZN13MailTransport10ServerTest8finishedE5QListIiE@Base 4:4.3.4
 _ZN13MailTransport10ServerTest8protocolEv@Base 4:4.3.4
 _ZN13MailTransport10ServerTest9setServerERK7QString@Base 4:4.3.4
 _ZN13MailTransport10ServerTestC1EP7QWidget@Base 4:4.3.4
 _ZN13MailTransport10ServerTestC2EP7QWidget@Base 4:4.3.4
 _ZN13MailTransport10ServerTestD0Ev@Base 4:4.3.4
 _ZN13MailTransport10ServerTestD1Ev@Base 4:4.3.4
 _ZN13MailTransport10ServerTestD2Ev@Base 4:4.3.4
 _ZN13MailTransport11SendmailJob11qt_metacallEN11QMetaObject4CallEiPPv@Base 4:4.3.4
 _ZN13MailTransport11SendmailJob11qt_metacastEPKc@Base 4:4.3.4
 _ZN13MailTransport11SendmailJob13receivedErrorEv@Base 4:4.3.4
 _ZN13MailTransport11SendmailJob14receivedStdErrEv@Base 4:4.3.4
 _ZN13MailTransport11SendmailJob14sendmailExitedEiN8QProcess10ExitStatusE@Base 4:4.3.4
 _ZN13MailTransport11SendmailJob16staticMetaObjectE@Base 4:4.3.4
 _ZN13MailTransport11SendmailJob6doKillEv@Base 4:4.3.4
 _ZN13MailTransport11SendmailJob7doStartEv@Base 4:4.3.4
 _ZN13MailTransport11SendmailJobC1EPNS_9TransportEP7QObject@Base 4:4.3.4
 _ZN13MailTransport11SendmailJobC2EPNS_9TransportEP7QObject@Base 4:4.3.4
 _ZN13MailTransport11SendmailJobD0Ev@Base 4:4.3.4
 _ZN13MailTransport11SendmailJobD1Ev@Base 4:4.3.4
 _ZN13MailTransport11SendmailJobD2Ev@Base 4:4.3.4
 _ZN13MailTransport12TransportJob5setCcERK11QStringList@Base 4:4.3.4
 _ZN13MailTransport12TransportJob5setToERK11QStringList@Base 4:4.3.4
 _ZN13MailTransport12TransportJob5startEv@Base 4:4.3.4
 _ZN13MailTransport12TransportJob6bufferEv@Base 4:4.3.4
 _ZN13MailTransport12TransportJob6setBccERK11QStringList@Base 4:4.3.4
 _ZN13MailTransport12TransportJob7setDataERK10QByteArray@Base 4:4.3.4
 _ZN13MailTransport12TransportJob9setSenderERK7QString@Base 4:4.3.4
 _ZN13MailTransport12TransportJobC1EPNS_9TransportEP7QObject@Base 4:4.3.4
 _ZN13MailTransport12TransportJobC2EPNS_9TransportEP7QObject@Base 4:4.3.4
 _ZN13MailTransport12TransportJobD0Ev@Base 4:4.3.4
 _ZN13MailTransport12TransportJobD1Ev@Base 4:4.3.4
 _ZN13MailTransport12TransportJobD2Ev@Base 4:4.3.4
 _ZN13MailTransport13PrecommandJob11qt_metacallEN11QMetaObject4CallEiPPv@Base 4:4.4.0
 _ZN13MailTransport13PrecommandJob11qt_metacastEPKc@Base 4:4.4.0
 _ZN13MailTransport13PrecommandJob16staticMetaObjectE@Base 4:4.4.0
 _ZN13MailTransport13PrecommandJob5startEv@Base 4:4.4.0
 _ZN13MailTransport13PrecommandJob6doKillEv@Base 4:4.4.0
 _ZN13MailTransport13PrecommandJobC1ERK7QStringP7QObject@Base 4:4.4.0
 _ZN13MailTransport13PrecommandJobC2ERK7QStringP7QObject@Base 4:4.4.0
 _ZN13MailTransport13PrecommandJobD0Ev@Base 4:4.4.0
 _ZN13MailTransport13PrecommandJobD1Ev@Base 4:4.4.0
 _ZN13MailTransport13PrecommandJobD2Ev@Base 4:4.4.0
 _ZN13MailTransport13TransportBaseC1ERK7QString@Base 4:4.3.4
 _ZN13MailTransport13TransportBaseC2ERK7QString@Base 4:4.3.4
 _ZN13MailTransport13TransportBaseD0Ev@Base 4:4.3.4
 _ZN13MailTransport13TransportBaseD1Ev@Base 4:4.3.4
 _ZN13MailTransport13TransportBaseD2Ev@Base 4:4.3.4
 _ZN13MailTransport13TransportTypeC1ERKS0_@Base 4:4.4.0
 _ZN13MailTransport13TransportTypeC1Ev@Base 4:4.4.0
 _ZN13MailTransport13TransportTypeC2ERKS0_@Base 4:4.4.0
 _ZN13MailTransport13TransportTypeC2Ev@Base 4:4.4.0
 _ZN13MailTransport13TransportTypeD1Ev@Base 4:4.4.0
 _ZN13MailTransport13TransportTypeD2Ev@Base 4:4.4.0
 _ZN13MailTransport13TransportTypeaSERKS0_@Base 4:4.4.0
 _ZN13MailTransport14ErrorAttribute10setMessageERK7QString@Base 4:4.4.0
 _ZN13MailTransport14ErrorAttribute11deserializeERK10QByteArray@Base 4:4.4.0
 _ZN13MailTransport14ErrorAttributeC1ERK7QString@Base 4:4.4.0
 _ZN13MailTransport14ErrorAttributeC2ERK7QString@Base 4:4.4.0
 _ZN13MailTransport14ErrorAttributeD0Ev@Base 4:4.4.0
 _ZN13MailTransport14ErrorAttributeD1Ev@Base 4:4.4.0
 _ZN13MailTransport14ErrorAttributeD2Ev@Base 4:4.4.0
 _ZN13MailTransport15MessageQueueJob10setMessageEN5boost10shared_ptrIN5KMime7MessageEEE@Base 4:4.4.0
 _ZN13MailTransport15MessageQueueJob10slotResultEP4KJob@Base 4:4.4.0
 _ZN13MailTransport15MessageQueueJob11qt_metacallEN11QMetaObject4CallEiPPv@Base 4:4.4.0
 _ZN13MailTransport15MessageQueueJob11qt_metacastEPKc@Base 4:4.4.0
 _ZN13MailTransport15MessageQueueJob16addressAttributeEv@Base 4:4.4.0
 _ZN13MailTransport15MessageQueueJob16staticMetaObjectE@Base 4:4.4.0
 _ZN13MailTransport15MessageQueueJob18transportAttributeEv@Base 4:4.4.0
 _ZN13MailTransport15MessageQueueJob19sentActionAttributeEv@Base 4:4.5.86
 _ZN13MailTransport15MessageQueueJob21dispatchModeAttributeEv@Base 4:4.4.0
 _ZN13MailTransport15MessageQueueJob22sentBehaviourAttributeEv@Base 4:4.4.0
 _ZN13MailTransport15MessageQueueJob5startEv@Base 4:4.4.0
 _ZN13MailTransport15MessageQueueJob7Private19outboxRequestResultEP4KJob@Base 4:4.4.0
 _ZN13MailTransport15MessageQueueJob7Private8validateEv@Base 4:4.4.0
 _ZN13MailTransport15MessageQueueJobC1EP7QObject@Base 4:4.4.0
 _ZN13MailTransport15MessageQueueJobC2EP7QObject@Base 4:4.4.0
 _ZN13MailTransport15MessageQueueJobD0Ev@Base 4:4.4.0
 _ZN13MailTransport15MessageQueueJobD1Ev@Base 4:4.4.0
 _ZN13MailTransport15MessageQueueJobD2Ev@Base 4:4.4.0
 _ZN13MailTransport16TransportManager11qt_metacallEN11QMetaObject4CallEiPPv@Base 4:4.3.4
 _ZN13MailTransport16TransportManager11qt_metacastEPKc@Base 4:4.3.4
 _ZN13MailTransport16TransportManager12addTransportEPNS_9TransportE@Base 4:4.3.4
 _ZN13MailTransport16TransportManager13loadPasswordsEv@Base 4:4.3.4
 _ZN13MailTransport16TransportManager15removeTransportEi@Base 4:4.3.4
 _ZN13MailTransport16TransportManager16changesCommittedEv@Base 4:4.3.4
 _ZN13MailTransport16TransportManager16passwordsChangedEv@Base 4:4.3.4
 _ZN13MailTransport16TransportManager16staticMetaObjectE@Base 4:4.3.4
 _ZN13MailTransport16TransportManager16transportRemovedEiRK7QString@Base 4:4.3.4
 _ZN13MailTransport16TransportManager16transportRenamedEiRK7QStringS3_@Base 4:4.3.4
 _ZN13MailTransport16TransportManager17transportsChangedEv@Base 4:4.3.4
 _ZN13MailTransport16TransportManager18configureTransportEPNS_9TransportEP7QWidget@Base 4:4.4.0
 _ZN13MailTransport16TransportManager18createTransportJobERK7QString@Base 4:4.3.4
 _ZN13MailTransport16TransportManager18createTransportJobEi@Base 4:4.3.4
 _ZN13MailTransport16TransportManager18loadPasswordsAsyncEv@Base 4:4.3.4
 _ZN13MailTransport16TransportManager19setDefaultTransportEi@Base 4:4.3.4
 _ZN13MailTransport16TransportManager20emitChangesCommittedEv@Base 4:4.3.4
 _ZN13MailTransport16TransportManager22createDefaultTransportEv@Base 4:4.3.4
 _ZN13MailTransport16TransportManager27showTransportCreationDialogEP7QWidgetNS0_13ShowConditionE@Base 4:4.4.0
 _ZN13MailTransport16TransportManager4selfEv@Base 4:4.3.4
 _ZN13MailTransport16TransportManager6walletEv@Base 4:4.3.4
 _ZN13MailTransport16TransportManager8scheduleEPNS_12TransportJobE@Base 4:4.3.4
 _ZN13MailTransport16TransportManagerC1Ev@Base 4:4.3.4
 _ZN13MailTransport16TransportManagerC2Ev@Base 4:4.3.4
 _ZN13MailTransport16TransportManagerD0Ev@Base 4:4.3.4
 _ZN13MailTransport16TransportManagerD1Ev@Base 4:4.3.4
 _ZN13MailTransport16TransportManagerD2Ev@Base 4:4.3.4
 _ZN13MailTransport17TransportComboBox11qt_metacallEN11QMetaObject4CallEiPPv@Base 4:4.3.4
 _ZN13MailTransport17TransportComboBox11qt_metacastEPKc@Base 4:4.3.4
 _ZN13MailTransport17TransportComboBox12fillComboBoxEv@Base 4:4.3.4
 _ZN13MailTransport17TransportComboBox16staticMetaObjectE@Base 4:4.3.4
 _ZN13MailTransport17TransportComboBox19setCurrentTransportEi@Base 4:4.3.4
 _ZN13MailTransport17TransportComboBoxC1EP7QWidget@Base 4:4.3.4
 _ZN13MailTransport17TransportComboBoxC2EP7QWidget@Base 4:4.3.4
 _ZN13MailTransport17TransportComboBoxD0Ev@Base 4:4.3.4
 _ZN13MailTransport17TransportComboBoxD1Ev@Base 4:4.3.4
 _ZN13MailTransport17TransportComboBoxD2Ev@Base 4:4.3.4
 _ZN13MailTransport18TransportAttribute11deserializeERK10QByteArray@Base 4:4.4.0
 _ZN13MailTransport18TransportAttribute14setTransportIdEi@Base 4:4.4.0
 _ZN13MailTransport18TransportAttributeC1Ei@Base 4:4.4.0
 _ZN13MailTransport18TransportAttributeC2Ei@Base 4:4.4.0
 _ZN13MailTransport18TransportAttributeD0Ev@Base 4:4.4.0
 _ZN13MailTransport18TransportAttributeD1Ev@Base 4:4.4.0
 _ZN13MailTransport18TransportAttributeD2Ev@Base 4:4.4.0
 _ZN13MailTransport19DispatcherInterface16dispatchManuallyEv@Base 4:4.4.0
 _ZN13MailTransport19DispatcherInterface16retryDispatchingEv@Base 4:4.4.0
 _ZN13MailTransport19DispatcherInterface23dispatchManualTransportEi@Base 4:4.5.0
 _ZN13MailTransport19DispatcherInterfaceC1Ev@Base 4:4.4.0
 _ZN13MailTransport19DispatcherInterfaceC2Ev@Base 4:4.4.0
 _ZN13MailTransport19SentActionAttribute11deserializeERK10QByteArray@Base 4:4.5.86
 _ZN13MailTransport19SentActionAttribute6ActionC1ENS1_4TypeERK8QVariant@Base 4:4.5.86
 _ZN13MailTransport19SentActionAttribute6ActionC1ERKS1_@Base 4:4.5.86
 _ZN13MailTransport19SentActionAttribute6ActionC1Ev@Base 4:4.5.86
 _ZN13MailTransport19SentActionAttribute6ActionC2ENS1_4TypeERK8QVariant@Base 4:4.5.86
 _ZN13MailTransport19SentActionAttribute6ActionC2ERKS1_@Base 4:4.5.86
 _ZN13MailTransport19SentActionAttribute6ActionC2Ev@Base 4:4.5.86
 _ZN13MailTransport19SentActionAttribute6ActionD1Ev@Base 4:4.5.86
 _ZN13MailTransport19SentActionAttribute6ActionD2Ev@Base 4:4.5.86
 _ZN13MailTransport19SentActionAttribute6ActionaSERKS1_@Base 4:4.5.86
 _ZN13MailTransport19SentActionAttribute9addActionENS0_6Action4TypeERK8QVariant@Base 4:4.5.86
 _ZN13MailTransport19SentActionAttributeC1Ev@Base 4:4.5.86
 _ZN13MailTransport19SentActionAttributeC2Ev@Base 4:4.5.86
 _ZN13MailTransport19SentActionAttributeD0Ev@Base 4:4.5.86
 _ZN13MailTransport19SentActionAttributeD1Ev@Base 4:4.5.86
 _ZN13MailTransport19SentActionAttributeD2Ev@Base 4:4.5.86
 _ZN13MailTransport21DispatchModeAttribute11deserializeERK10QByteArray@Base 4:4.4.0
 _ZN13MailTransport21DispatchModeAttribute12setSendAfterERK9QDateTime@Base 4:4.4.0
 _ZN13MailTransport21DispatchModeAttribute15setDispatchModeENS0_12DispatchModeE@Base 4:4.4.0
 _ZN13MailTransport21DispatchModeAttributeC1ENS0_12DispatchModeE@Base 4:4.4.0
 _ZN13MailTransport21DispatchModeAttributeC2ENS0_12DispatchModeE@Base 4:4.4.0
 _ZN13MailTransport21DispatchModeAttributeD0Ev@Base 4:4.4.0
 _ZN13MailTransport21DispatchModeAttributeD1Ev@Base 4:4.4.0
 _ZN13MailTransport21DispatchModeAttributeD2Ev@Base 4:4.4.0
 _ZN13MailTransport21TransportConfigDialog11qt_metacallEN11QMetaObject4CallEiPPv@Base 4:4.3.4
 _ZN13MailTransport21TransportConfigDialog11qt_metacastEPKc@Base 4:4.3.4
 _ZN13MailTransport21TransportConfigDialog16staticMetaObjectE@Base 4:4.3.4
 _ZN13MailTransport21TransportConfigDialog7Private15slotTextChangedERK7QString@Base 4:4.10.1
 _ZN13MailTransport21TransportConfigDialog7Private9okClickedEv@Base 4:4.4.0
 _ZN13MailTransport21TransportConfigDialogC1EPNS_9TransportEP7QWidget@Base 4:4.3.4
 _ZN13MailTransport21TransportConfigDialogC2EPNS_9TransportEP7QWidget@Base 4:4.3.4
 _ZN13MailTransport21TransportConfigDialogD0Ev@Base 4:4.3.4
 _ZN13MailTransport21TransportConfigDialogD1Ev@Base 4:4.3.4
 _ZN13MailTransport21TransportConfigDialogD2Ev@Base 4:4.3.4
 _ZN13MailTransport22SentBehaviourAttribute11deserializeERK10QByteArray@Base 4:4.4.0
 _ZN13MailTransport22SentBehaviourAttribute16setSentBehaviourENS0_13SentBehaviourE@Base 4:4.4.0
 _ZN13MailTransport22SentBehaviourAttribute19setMoveToCollectionEN7Akonadi10CollectionE@Base 4:4.4.0
 _ZN13MailTransport22SentBehaviourAttributeC1ENS0_13SentBehaviourEN7Akonadi10CollectionE@Base 4:4.4.0
 _ZN13MailTransport22SentBehaviourAttributeC2ENS0_13SentBehaviourEN7Akonadi10CollectionE@Base 4:4.4.0
 _ZN13MailTransport22SentBehaviourAttributeD0Ev@Base 4:4.4.0
 _ZN13MailTransport22SentBehaviourAttributeD1Ev@Base 4:4.4.0
 _ZN13MailTransport22SentBehaviourAttributeD2Ev@Base 4:4.4.0
 _ZN13MailTransport25TransportManagementWidget11qt_metacallEN11QMetaObject4CallEiPPv@Base 4:4.3.4
 _ZN13MailTransport25TransportManagementWidget11qt_metacastEPKc@Base 4:4.3.4
 _ZN13MailTransport25TransportManagementWidget16staticMetaObjectE@Base 4:4.3.4
 _ZN13MailTransport25TransportManagementWidget7Private10addClickedEv@Base 4:4.4.0
 _ZN13MailTransport25TransportManagementWidget7Private11editClickedEv@Base 4:4.4.0
 _ZN13MailTransport25TransportManagementWidget7Private13removeClickedEv@Base 4:4.4.0
 _ZN13MailTransport25TransportManagementWidget7Private13renameClickedEv@Base 4:4.4.0
 _ZN13MailTransport25TransportManagementWidget7Private14defaultClickedEv@Base 4:4.4.0
 _ZN13MailTransport25TransportManagementWidget7Private17updateButtonStateEv@Base 4:4.4.0
 _ZN13MailTransport25TransportManagementWidget7Private30slotCustomContextMenuRequestedERK6QPoint@Base 4:4.10.1
 _ZN13MailTransport25TransportManagementWidget7PrivateC1EPS0_@Base 4:4.4.0
 _ZN13MailTransport25TransportManagementWidget7PrivateC2EPS0_@Base 4:4.4.0
 _ZN13MailTransport25TransportManagementWidgetC1EP7QWidget@Base 4:4.3.4
 _ZN13MailTransport25TransportManagementWidgetC2EP7QWidget@Base 4:4.3.4
 _ZN13MailTransport25TransportManagementWidgetD0Ev@Base 4:4.3.4
 _ZN13MailTransport25TransportManagementWidgetD1Ev@Base 4:4.3.4
 _ZN13MailTransport25TransportManagementWidgetD2Ev@Base 4:4.3.4
 _ZN13MailTransport6Socket11qt_metacallEN11QMetaObject4CallEiPPv@Base 4:4.3.4
 _ZN13MailTransport6Socket11qt_metacastEPKc@Base 4:4.3.4
 _ZN13MailTransport6Socket11setProtocolERK7QString@Base 4:4.3.4
 _ZN13MailTransport6Socket16staticMetaObjectE@Base 4:4.3.4
 _ZN13MailTransport6Socket4dataERK7QString@Base 4:4.3.4
 _ZN13MailTransport6Socket5writeERK7QString@Base 4:4.3.4
 _ZN13MailTransport6Socket6failedEv@Base 4:4.3.4
 _ZN13MailTransport6Socket7setPortEi@Base 4:4.3.4
 _ZN13MailTransport6Socket7tlsDoneEv@Base 4:4.3.4
 _ZN13MailTransport6Socket8startTLSEv@Base 4:4.3.4
 _ZN13MailTransport6Socket9availableEv@Base 4:4.3.4
 _ZN13MailTransport6Socket9connectedEv@Base 4:4.3.4
 _ZN13MailTransport6Socket9reconnectEv@Base 4:4.3.4
 _ZN13MailTransport6Socket9setSecureEb@Base 4:4.3.4
 _ZN13MailTransport6Socket9setServerERK7QString@Base 4:4.3.4
 _ZN13MailTransport6SocketC1EP7QObject@Base 4:4.3.4
 _ZN13MailTransport6SocketC2EP7QObject@Base 4:4.3.4
 _ZN13MailTransport6SocketD0Ev@Base 4:4.3.4
 _ZN13MailTransport6SocketD1Ev@Base 4:4.3.4
 _ZN13MailTransport6SocketD2Ev@Base 4:4.3.4
 _ZN13MailTransport7SmtpJob10slaveErrorEPN3KIO5SlaveEiRK7QString@Base 4:4.3.4
 _ZN13MailTransport7SmtpJob10slotResultEP4KJob@Base 4:4.3.4
 _ZN13MailTransport7SmtpJob11dataRequestEPN3KIO3JobER10QByteArray@Base 4:4.3.4
 _ZN13MailTransport7SmtpJob11qt_metacallEN11QMetaObject4CallEiPPv@Base 4:4.3.4
 _ZN13MailTransport7SmtpJob11qt_metacastEPKc@Base 4:4.3.4
 _ZN13MailTransport7SmtpJob12startSmtpJobEv@Base 4:4.3.4
 _ZN13MailTransport7SmtpJob16staticMetaObjectE@Base 4:4.3.4
 _ZN13MailTransport7SmtpJob6doKillEv@Base 4:4.3.4
 _ZN13MailTransport7SmtpJob7doStartEv@Base 4:4.3.4
 _ZN13MailTransport7SmtpJobC1EPNS_9TransportEP7QObject@Base 4:4.3.4
 _ZN13MailTransport7SmtpJobC2EPNS_9TransportEP7QObject@Base 4:4.3.4
 _ZN13MailTransport7SmtpJobD0Ev@Base 4:4.3.4
 _ZN13MailTransport7SmtpJobD1Ev@Base 4:4.3.4
 _ZN13MailTransport7SmtpJobD2Ev@Base 4:4.3.4
 _ZN13MailTransport9Transport11qt_metacallEN11QMetaObject4CallEiPPv@Base 4:4.3.4
 _ZN13MailTransport9Transport11qt_metacastEPKc@Base 4:4.3.4
 _ZN13MailTransport9Transport11setPasswordERK7QString@Base 4:4.3.4
 _ZN13MailTransport9Transport12readPasswordEv@Base 4:4.3.4
 _ZN13MailTransport9Transport13usrReadConfigEv@Base 4:4.3.4
 _ZN13MailTransport9Transport14usrWriteConfigEv@Base 4:4.3.4
 _ZN13MailTransport9Transport15forceUniqueNameEv@Base 4:4.4.0
 _ZN13MailTransport9Transport15migrateToWalletEv@Base 4:4.3.4
 _ZN13MailTransport9Transport16setTransportTypeERKNS_13TransportTypeE@Base 4:4.4.0
 _ZN13MailTransport9Transport16staticMetaObjectE@Base 4:4.3.4
 _ZN13MailTransport9Transport19updatePasswordStateEv@Base 4:4.3.4
 _ZN13MailTransport9Transport24authenticationTypeStringEi@Base 4:4.5.0
 _ZN13MailTransport9Transport8passwordEv@Base 4:4.3.4
 _ZN13MailTransport9TransportC1ERK7QString@Base 4:4.3.4
 _ZN13MailTransport9TransportC2ERK7QString@Base 4:4.3.4
 _ZN13MailTransport9TransportD0Ev@Base 4:4.3.4
 _ZN13MailTransport9TransportD1Ev@Base 4:4.3.4
 _ZN13MailTransport9TransportD2Ev@Base 4:4.3.4
 _ZN19KCoreConfigSkeleton8ItemEnum7Choice2D1Ev@Base 4:4.6.5
 _ZN19KCoreConfigSkeleton8ItemEnum7Choice2D2Ev@Base 4:4.6.5
 _ZN7Akonadi12FilterActionD0Ev@Base 4:4.4.0
 _ZN7Akonadi12FilterActionD1Ev@Base 4:4.4.0
 _ZN7Akonadi12FilterActionD2Ev@Base 4:4.4.0
 _ZN7Akonadi15FilterActionJob11qt_metacallEN11QMetaObject4CallEiPPv@Base 4:4.4.0
 _ZN7Akonadi15FilterActionJob11qt_metacastEPKc@Base 4:4.4.0
 _ZN7Akonadi15FilterActionJob16staticMetaObjectE@Base 4:4.4.0
 _ZN7Akonadi15FilterActionJob7Private11fetchResultEP4KJob@Base 4:4.4.0
 _ZN7Akonadi15FilterActionJob7Private13traverseItemsEv@Base 4:4.4.0
 _ZN7Akonadi15FilterActionJob7doStartEv@Base 4:4.4.0
 _ZN7Akonadi15FilterActionJobC1ERK5QListINS_4ItemEEPNS_12FilterActionEP7QObject@Base 4:4.4.0
 _ZN7Akonadi15FilterActionJobC1ERKNS_10CollectionEPNS_12FilterActionEP7QObject@Base 4:4.4.0
 _ZN7Akonadi15FilterActionJobC1ERKNS_4ItemEPNS_12FilterActionEP7QObject@Base 4:4.4.0
 _ZN7Akonadi15FilterActionJobC2ERK5QListINS_4ItemEEPNS_12FilterActionEP7QObject@Base 4:4.4.0
 _ZN7Akonadi15FilterActionJobC2ERKNS_10CollectionEPNS_12FilterActionEP7QObject@Base 4:4.4.0
 _ZN7Akonadi15FilterActionJobC2ERKNS_4ItemEPNS_12FilterActionEP7QObject@Base 4:4.4.0
 _ZN7Akonadi15FilterActionJobD0Ev@Base 4:4.4.0
 _ZN7Akonadi15FilterActionJobD1Ev@Base 4:4.4.0
 _ZN7Akonadi15FilterActionJobD2Ev@Base 4:4.4.0
 _ZN7Akonadi16AttributeFactory17registerAttributeIN13MailTransport14ErrorAttributeEEEvv@Base 4:4.6.3
 _ZN7Akonadi16AttributeFactory17registerAttributeIN13MailTransport22SentBehaviourAttributeEEEvv@Base 4:4.6.3
 _ZN7Akonadi4Item14setPayloadImplIN5boost10shared_ptrIN5KMime7MessageEEEEENS2_12disable_if_cIXsrNS_8Internal12PayloadTraitIT_EE13isPolymorphicEvE4typeERKSA_@Base 4:4.5.86
 _ZNK13MailTransport10ServerTest10metaObjectEv@Base 4:4.3.4
 _ZNK13MailTransport10ServerTest12capabilitiesEv@Base 4:4.3.4
 _ZNK13MailTransport11SendmailJob10metaObjectEv@Base 4:4.3.4
 _ZNK13MailTransport12TransportJob2ccEv@Base 4:4.3.4
 _ZNK13MailTransport12TransportJob2toEv@Base 4:4.3.4
 _ZNK13MailTransport12TransportJob3bccEv@Base 4:4.3.4
 _ZNK13MailTransport12TransportJob4dataEv@Base 4:4.3.4
 _ZNK13MailTransport12TransportJob6senderEv@Base 4:4.3.4
 _ZNK13MailTransport12TransportJob9transportEv@Base 4:4.3.4
 _ZNK13MailTransport13PrecommandJob10metaObjectEv@Base 4:4.4.0
 _ZNK13MailTransport13TransportType11descriptionEv@Base 4:4.4.0
 _ZNK13MailTransport13TransportType4nameEv@Base 4:4.4.0
 _ZNK13MailTransport13TransportType4typeEv@Base 4:4.4.0
 _ZNK13MailTransport13TransportType7isValidEv@Base 4:4.4.0
 _ZNK13MailTransport13TransportType9agentTypeEv@Base 4:4.4.0
 _ZNK13MailTransport13TransportTypeeqERKS0_@Base 4:4.4.0
 _ZNK13MailTransport14ErrorAttribute10serializedEv@Base 4:4.4.0
 _ZNK13MailTransport14ErrorAttribute4typeEv@Base 4:4.4.0
 _ZNK13MailTransport14ErrorAttribute5cloneEv@Base 4:4.4.0
 _ZNK13MailTransport14ErrorAttribute7messageEv@Base 4:4.4.0
 _ZNK13MailTransport15MessageQueueJob10metaObjectEv@Base 4:4.4.0
 _ZNK13MailTransport15MessageQueueJob7messageEv@Base 4:4.4.0
 _ZNK13MailTransport16TransportManager10metaObjectEv@Base 4:4.3.4
 _ZNK13MailTransport16TransportManager10transportsEv@Base 4:4.3.4
 _ZNK13MailTransport16TransportManager12transportIdsEv@Base 4:4.3.4
 _ZNK13MailTransport16TransportManager13transportByIdEib@Base 4:4.3.4
 _ZNK13MailTransport16TransportManager14transportNamesEv@Base 4:4.3.4
 _ZNK13MailTransport16TransportManager15createTransportEv@Base 4:4.3.4
 _ZNK13MailTransport16TransportManager15transportByNameERK7QStringb@Base 4:4.3.4
 _ZNK13MailTransport16TransportManager18defaultTransportIdEv@Base 4:4.3.4
 _ZNK13MailTransport16TransportManager20defaultTransportNameEv@Base 4:4.3.4
 _ZNK13MailTransport16TransportManager5typesEv@Base 4:4.4.0
 _ZNK13MailTransport16TransportManager7isEmptyEv@Base 4:4.3.4
 _ZNK13MailTransport17TransportComboBox10metaObjectEv@Base 4:4.3.4
 _ZNK13MailTransport17TransportComboBox13transportTypeEv@Base 4:4.3.4
 _ZNK13MailTransport17TransportComboBox18currentTransportIdEv@Base 4:4.3.4
 _ZNK13MailTransport18TransportAttribute10serializedEv@Base 4:4.4.0
 _ZNK13MailTransport18TransportAttribute11transportIdEv@Base 4:4.4.0
 _ZNK13MailTransport18TransportAttribute4typeEv@Base 4:4.4.0
 _ZNK13MailTransport18TransportAttribute5cloneEv@Base 4:4.4.0
 _ZNK13MailTransport18TransportAttribute9transportEv@Base 4:4.4.0
 _ZNK13MailTransport19DispatcherInterface18dispatcherInstanceEv@Base 4:4.4.0
 _ZNK13MailTransport19SentActionAttribute10serializedEv@Base 4:4.5.86
 _ZNK13MailTransport19SentActionAttribute4typeEv@Base 4:4.5.86
 _ZNK13MailTransport19SentActionAttribute5cloneEv@Base 4:4.5.86
 _ZNK13MailTransport19SentActionAttribute6Action4typeEv@Base 4:4.5.86
 _ZNK13MailTransport19SentActionAttribute6Action5valueEv@Base 4:4.5.86
 _ZNK13MailTransport19SentActionAttribute6ActioneqERKS1_@Base 4:4.5.86
 _ZNK13MailTransport19SentActionAttribute7actionsEv@Base 4:4.5.86
 _ZNK13MailTransport21DispatchModeAttribute10serializedEv@Base 4:4.4.0
 _ZNK13MailTransport21DispatchModeAttribute12dispatchModeEv@Base 4:4.4.0
 _ZNK13MailTransport21DispatchModeAttribute4typeEv@Base 4:4.4.0
 _ZNK13MailTransport21DispatchModeAttribute5cloneEv@Base 4:4.4.0
 _ZNK13MailTransport21DispatchModeAttribute9sendAfterEv@Base 4:4.4.0
 _ZNK13MailTransport21TransportConfigDialog10metaObjectEv@Base 4:4.3.4
 _ZNK13MailTransport22SentBehaviourAttribute10serializedEv@Base 4:4.4.0
 _ZNK13MailTransport22SentBehaviourAttribute13sentBehaviourEv@Base 4:4.4.0
 _ZNK13MailTransport22SentBehaviourAttribute16moveToCollectionEv@Base 4:4.4.0
 _ZNK13MailTransport22SentBehaviourAttribute4typeEv@Base 4:4.4.0
 _ZNK13MailTransport22SentBehaviourAttribute5cloneEv@Base 4:4.4.0
 _ZNK13MailTransport25TransportManagementWidget10metaObjectEv@Base 4:4.3.4
 _ZNK13MailTransport6Socket10metaObjectEv@Base 4:4.3.4
 _ZNK13MailTransport7SmtpJob10metaObjectEv@Base 4:4.3.4
 _ZNK13MailTransport9Transport10isCompleteEv@Base 4:4.3.4
 _ZNK13MailTransport9Transport10metaObjectEv@Base 4:4.3.4
 _ZNK13MailTransport9Transport13transportTypeEv@Base 4:4.4.0
 _ZNK13MailTransport9Transport20needsWalletMigrationEv@Base 4:4.3.4
 _ZNK13MailTransport9Transport24authenticationTypeStringEv@Base 4:4.3.4
 _ZNK13MailTransport9Transport5cloneEv@Base 4:4.3.4
 _ZNK13MailTransport9Transport7isValidEv@Base 4:4.3.4
 _ZNK7Akonadi15FilterActionJob10metaObjectEv@Base 4:4.4.0
 _ZTIN13MailTransport10ServerTestE@Base 4:4.3.4
 _ZTIN13MailTransport11SendmailJobE@Base 4:4.3.4
 _ZTIN13MailTransport12TransportJobE@Base 4:4.3.4
 _ZTIN13MailTransport13PrecommandJobE@Base 4:4.4.0
 _ZTIN13MailTransport13TransportBaseE@Base 4:4.3.4
 _ZTIN13MailTransport14ErrorAttributeE@Base 4:4.4.0
 _ZTIN13MailTransport15MessageQueueJobE@Base 4:4.4.0
 _ZTIN13MailTransport16TransportManagerE@Base 4:4.3.4
 _ZTIN13MailTransport17TransportComboBoxE@Base 4:4.3.4
 _ZTIN13MailTransport18TransportAttributeE@Base 4:4.4.0
 _ZTIN13MailTransport19SentActionAttributeE@Base 4:4.5.86
 _ZTIN13MailTransport21DispatchModeAttributeE@Base 4:4.4.0
 _ZTIN13MailTransport21TransportConfigDialogE@Base 4:4.3.4
 _ZTIN13MailTransport22SentBehaviourAttributeE@Base 4:4.4.0
 _ZTIN13MailTransport25TransportManagementWidgetE@Base 4:4.3.4
 _ZTIN13MailTransport6SocketE@Base 4:4.3.4
 _ZTIN13MailTransport7SmtpJobE@Base 4:4.3.4
 _ZTIN13MailTransport9TransportE@Base 4:4.3.4
 _ZTIN7Akonadi12FilterActionE@Base 4:4.4.0
 _ZTIN7Akonadi15FilterActionJobE@Base 4:4.4.0
 _ZTSN13MailTransport10ServerTestE@Base 4:4.3.4
 _ZTSN13MailTransport11SendmailJobE@Base 4:4.3.4
 _ZTSN13MailTransport12TransportJobE@Base 4:4.3.4
 _ZTSN13MailTransport13PrecommandJobE@Base 4:4.4.0
 _ZTSN13MailTransport13TransportBaseE@Base 4:4.3.4
 _ZTSN13MailTransport14ErrorAttributeE@Base 4:4.4.0
 _ZTSN13MailTransport15MessageQueueJobE@Base 4:4.4.0
 _ZTSN13MailTransport16TransportManagerE@Base 4:4.3.4
 _ZTSN13MailTransport17TransportComboBoxE@Base 4:4.3.4
 _ZTSN13MailTransport18TransportAttributeE@Base 4:4.4.0
 _ZTSN13MailTransport19SentActionAttributeE@Base 4:4.5.86
 _ZTSN13MailTransport21DispatchModeAttributeE@Base 4:4.4.0
 _ZTSN13MailTransport21TransportConfigDialogE@Base 4:4.3.4
 _ZTSN13MailTransport22SentBehaviourAttributeE@Base 4:4.4.0
 _ZTSN13MailTransport25TransportManagementWidgetE@Base 4:4.3.4
 _ZTSN13MailTransport6SocketE@Base 4:4.3.4
 _ZTSN13MailTransport7SmtpJobE@Base 4:4.3.4
 _ZTSN13MailTransport9TransportE@Base 4:4.3.4
 _ZTSN7Akonadi12FilterActionE@Base 4:4.4.0
 _ZTSN7Akonadi15FilterActionJobE@Base 4:4.4.0
 _ZTVN13MailTransport10ServerTestE@Base 4:4.3.4
 _ZTVN13MailTransport11SendmailJobE@Base 4:4.3.4
 _ZTVN13MailTransport12TransportJobE@Base 4:4.3.4
 _ZTVN13MailTransport13PrecommandJobE@Base 4:4.4.0
 _ZTVN13MailTransport13TransportBaseE@Base 4:4.3.4
 _ZTVN13MailTransport14ErrorAttributeE@Base 4:4.4.0
 _ZTVN13MailTransport15MessageQueueJobE@Base 4:4.4.0
 _ZTVN13MailTransport16TransportManagerE@Base 4:4.3.4
 _ZTVN13MailTransport17TransportComboBoxE@Base 4:4.3.4
 _ZTVN13MailTransport18TransportAttributeE@Base 4:4.4.0
 _ZTVN13MailTransport19SentActionAttributeE@Base 4:4.5.86
 _ZTVN13MailTransport21DispatchModeAttributeE@Base 4:4.4.0
 _ZTVN13MailTransport21TransportConfigDialogE@Base 4:4.3.4
 _ZTVN13MailTransport22SentBehaviourAttributeE@Base 4:4.4.0
 _ZTVN13MailTransport25TransportManagementWidgetE@Base 4:4.3.4
 _ZTVN13MailTransport6SocketE@Base 4:4.3.4
 _ZTVN13MailTransport7SmtpJobE@Base 4:4.3.4
 _ZTVN13MailTransport9TransportE@Base 4:4.3.4
 _ZTVN7Akonadi12FilterActionE@Base 4:4.4.0
 _ZTVN7Akonadi15FilterActionJobE@Base 4:4.4.0
 _ZThn16_N13MailTransport10ServerTestD0Ev@Base 4:4.3.4
 _ZThn16_N13MailTransport10ServerTestD1Ev@Base 4:4.3.4
 _ZThn16_N13MailTransport17TransportComboBoxD0Ev@Base 4:4.3.4
 _ZThn16_N13MailTransport17TransportComboBoxD1Ev@Base 4:4.3.4
 _ZThn16_N13MailTransport21TransportConfigDialogD0Ev@Base 4:4.3.4
 _ZThn16_N13MailTransport21TransportConfigDialogD1Ev@Base 4:4.3.4
 _ZThn16_N13MailTransport25TransportManagementWidgetD0Ev@Base 4:4.3.4
 _ZThn16_N13MailTransport25TransportManagementWidgetD1Ev@Base 4:4.3.4
 _ZThn40_N13MailTransport17TransportComboBoxD0Ev@Base 4:4.3.4
 _ZThn40_N13MailTransport17TransportComboBoxD1Ev@Base 4:4.3.4
