# SymbolsHelper-Confirmed: 4:4.3.4 amd64 armel hppa i386 ia64 kfreebsd-amd64 kfreebsd-i386 mips mipsel powerpc s390 sparc
libqgpgme.so.1 libqgpgme1 #MINVER#
* Build-Depends-Package: kdepimlibs5-dev
 _ZN6QGpgME19EventLoopInteractor11qt_metacallEN11QMetaObject4CallEiPPv@Base 4:4.3.4
 _ZN6QGpgME19EventLoopInteractor11qt_metacastEPKc@Base 4:4.3.4
 _ZN6QGpgME19EventLoopInteractor12nextKeyEventEPN5GpgME7ContextERKNS1_3KeyE@Base 4:4.3.4
 _ZN6QGpgME19EventLoopInteractor14aboutToDestroyEv@Base 4:4.3.4
 _ZN6QGpgME19EventLoopInteractor15registerWatcherEiN5GpgME19EventLoopInteractor9DirectionERb@Base 4:4.3.4
 _ZN6QGpgME19EventLoopInteractor16slotReadActivityEi@Base 4:4.3.4
 _ZN6QGpgME19EventLoopInteractor16staticMetaObjectE@Base 4:4.3.4
 _ZN6QGpgME19EventLoopInteractor17slotWriteActivityEi@Base 4:4.3.4
 _ZN6QGpgME19EventLoopInteractor17unregisterWatcherEPv@Base 4:4.3.4
 _ZN6QGpgME19EventLoopInteractor18nextKeyEventSignalEPN5GpgME7ContextERKNS1_3KeyE@Base 4:4.3.4
 _ZN6QGpgME19EventLoopInteractor18nextTrustItemEventEPN5GpgME7ContextERKNS1_9TrustItemE@Base 4:4.3.4
 _ZN6QGpgME19EventLoopInteractor18operationDoneEventEPN5GpgME7ContextERKNS1_5ErrorE@Base 4:4.3.4
 _ZN6QGpgME19EventLoopInteractor19operationStartEventEPN5GpgME7ContextE@Base 4:4.3.4
 _ZN6QGpgME19EventLoopInteractor24nextTrustItemEventSignalEPN5GpgME7ContextERKNS1_9TrustItemE@Base 4:4.3.4
 _ZN6QGpgME19EventLoopInteractor24operationDoneEventSignalEPN5GpgME7ContextERKNS1_5ErrorE@Base 4:4.3.4
 _ZN6QGpgME19EventLoopInteractor25operationStartEventSignalEPN5GpgME7ContextE@Base 4:4.3.4
 _ZN6QGpgME19EventLoopInteractor5mSelfE@Base 4:4.3.4
 _ZN6QGpgME19EventLoopInteractor8instanceEv@Base 4:4.3.4
 _ZN6QGpgME19EventLoopInteractorC1EP7QObject@Base 4:4.3.4
 _ZN6QGpgME19EventLoopInteractorC2EP7QObject@Base 4:4.3.4
 _ZN6QGpgME19EventLoopInteractorD0Ev@Base 4:4.3.4
 _ZN6QGpgME19EventLoopInteractorD1Ev@Base 4:4.3.4
 _ZN6QGpgME19EventLoopInteractorD2Ev@Base 4:4.3.4
 (subst)_ZN6QGpgME21QIODeviceDataProvider4readEPv{size_t}@Base 4:4.3.4
 (subst)_ZN6QGpgME21QIODeviceDataProvider4seekE{int64_t}i@Base 4:4.3.4
 (subst)_ZN6QGpgME21QIODeviceDataProvider5writeEPKv{size_t}@Base 4:4.3.4
 _ZN6QGpgME21QIODeviceDataProvider7releaseEv@Base 4:4.3.4
 _ZN6QGpgME21QIODeviceDataProviderC1ERKN5boost10shared_ptrI9QIODeviceEE@Base 4:4.3.4
 _ZN6QGpgME21QIODeviceDataProviderC2ERKN5boost10shared_ptrI9QIODeviceEE@Base 4:4.3.4
 _ZN6QGpgME21QIODeviceDataProviderD0Ev@Base 4:4.3.4
 _ZN6QGpgME21QIODeviceDataProviderD1Ev@Base 4:4.3.4
 _ZN6QGpgME21QIODeviceDataProviderD2Ev@Base 4:4.3.4
 (subst)_ZN6QGpgME22QByteArrayDataProvider4readEPv{size_t}@Base 4:4.3.4
 (subst)_ZN6QGpgME22QByteArrayDataProvider4seekE{int64_t}i@Base 4:4.3.4
 (subst)_ZN6QGpgME22QByteArrayDataProvider5writeEPKv{size_t}@Base 4:4.3.4
 _ZN6QGpgME22QByteArrayDataProvider7releaseEv@Base 4:4.3.4
 _ZN6QGpgME22QByteArrayDataProviderC1ERK10QByteArray@Base 4:4.3.4
 _ZN6QGpgME22QByteArrayDataProviderC1Ev@Base 4:4.3.4
 _ZN6QGpgME22QByteArrayDataProviderC2ERK10QByteArray@Base 4:4.3.4
 _ZN6QGpgME22QByteArrayDataProviderC2Ev@Base 4:4.3.4
 _ZN6QGpgME22QByteArrayDataProviderD0Ev@Base 4:4.3.4
 _ZN6QGpgME22QByteArrayDataProviderD1Ev@Base 4:4.3.4
 _ZN6QGpgME22QByteArrayDataProviderD2Ev@Base 4:4.3.4
 _ZNK6QGpgME19EventLoopInteractor10metaObjectEv@Base 4:4.3.4
 _ZNK6QGpgME21QIODeviceDataProvider11isSupportedEN5GpgME12DataProvider9OperationE@Base 4:4.3.4
 _ZTIN5GpgME12DataProviderE@Base 4:4.3.4
 _ZTIN6QGpgME19EventLoopInteractorE@Base 4:4.3.4
 _ZTIN6QGpgME21QIODeviceDataProviderE@Base 4:4.3.4
 _ZTIN6QGpgME22QByteArrayDataProviderE@Base 4:4.3.4
 _ZTSN5GpgME12DataProviderE@Base 4:4.3.4
 _ZTSN6QGpgME19EventLoopInteractorE@Base 4:4.3.4
 _ZTSN6QGpgME21QIODeviceDataProviderE@Base 4:4.3.4
 _ZTSN6QGpgME22QByteArrayDataProviderE@Base 4:4.3.4
 _ZTVN5GpgME12DataProviderE@Base 4:4.3.4
 _ZTVN6QGpgME19EventLoopInteractorE@Base 4:4.3.4
 _ZTVN6QGpgME21QIODeviceDataProviderE@Base 4:4.3.4
 _ZTVN6QGpgME22QByteArrayDataProviderE@Base 4:4.3.4
 (c++)"non-virtual thunk to QGpgME::EventLoopInteractor::nextKeyEvent(GpgME::Context*, GpgME::Key const&)@Base" 4:4.3.4
 (c++)"non-virtual thunk to QGpgME::EventLoopInteractor::nextTrustItemEvent(GpgME::Context*, GpgME::TrustItem const&)@Base" 4:4.3.4
 (c++)"non-virtual thunk to QGpgME::EventLoopInteractor::operationDoneEvent(GpgME::Context*, GpgME::Error const&)@Base" 4:4.3.4
 (c++)"non-virtual thunk to QGpgME::EventLoopInteractor::operationStartEvent(GpgME::Context*)@Base" 4:4.3.4
 (c++)"non-virtual thunk to QGpgME::EventLoopInteractor::registerWatcher(int, GpgME::EventLoopInteractor::Direction, bool&)@Base" 4:4.3.4
 (c++)"non-virtual thunk to QGpgME::EventLoopInteractor::unregisterWatcher(void*)@Base" 4:4.3.4
 (c++)"non-virtual thunk to QGpgME::EventLoopInteractor::~EventLoopInteractor()@Base" 4:4.3.4
