libsyndication.so.4 libsyndication4 #MINVER#
* Build-Depends-Package: kdepimlibs5-dev
 _ZN11Syndication10PersonImplC1ERK7QStringS3_S3_@Base 4:4.3.4
 _ZN11Syndication10PersonImplC1Ev@Base 4:4.3.4
 _ZN11Syndication10PersonImplC2ERK7QStringS3_S3_@Base 4:4.3.4
 _ZN11Syndication10PersonImplC2Ev@Base 4:4.3.4
 _ZN11Syndication10PersonImplD0Ev@Base 4:4.6.5
 _ZN11Syndication10PersonImplD1Ev@Base 4:4.6.5
 _ZN11Syndication10PersonImplD2Ev@Base 4:4.6.5
 _ZN11Syndication12SpecificItemD0Ev@Base 4:4.3.4
 _ZN11Syndication12SpecificItemD1Ev@Base 4:4.3.4
 _ZN11Syndication12SpecificItemD2Ev@Base 4:4.3.4
 _ZN11Syndication12parseISODateERK7QString@Base 4:4.3.4
 _ZN11Syndication12parseRFCDateERK7QString@Base 4:4.3.4
 _ZN11Syndication12xmlNamespaceEv@Base 4:4.3.4
 _ZN11Syndication13DataRetriever11qt_metacallEN11QMetaObject4CallEiPPv@Base 4:4.3.4
 _ZN11Syndication13DataRetriever11qt_metacastEPKc@Base 4:4.3.4
 _ZN11Syndication13DataRetriever13dataRetrievedERK10QByteArrayb@Base 4:4.3.4
 _ZN11Syndication13DataRetriever16staticMetaObjectE@Base 4:4.3.4
 _ZN11Syndication13DataRetrieverC1Ev@Base 4:4.3.4
 _ZN11Syndication13DataRetrieverC2Ev@Base 4:4.3.4
 _ZN11Syndication13DataRetrieverD0Ev@Base 4:4.3.4
 _ZN11Syndication13DataRetrieverD1Ev@Base 4:4.3.4
 _ZN11Syndication13DataRetrieverD2Ev@Base 4:4.3.4
 _ZN11Syndication13FileRetriever10m_useCacheE@Base 4:4.3.4
 _ZN11Syndication13FileRetriever10slotResultEP4KJob@Base 4:4.3.4
 _ZN11Syndication13FileRetriever11m_userAgentE@Base 4:4.3.4
 _ZN11Syndication13FileRetriever11qt_metacallEN11QMetaObject4CallEiPPv@Base 4:4.3.4
 _ZN11Syndication13FileRetriever11qt_metacastEPKc@Base 4:4.3.4
 _ZN11Syndication13FileRetriever11setUseCacheEb@Base 4:4.3.4
 _ZN11Syndication13FileRetriever11slotTimeoutEv@Base 4:4.3.4
 _ZN11Syndication13FileRetriever12retrieveDataERK4KUrl@Base 4:4.3.4
 _ZN11Syndication13FileRetriever12setUserAgentERK7QString@Base 4:4.3.4
 _ZN11Syndication13FileRetriever16staticMetaObjectE@Base 4:4.3.4
 _ZN11Syndication13FileRetriever20permanentRedirectionERK4KUrl@Base 4:4.3.4
 _ZN11Syndication13FileRetriever24slotPermanentRedirectionEPN3KIO3JobERK4KUrlS6_@Base 4:4.3.4
 _ZN11Syndication13FileRetriever5abortEv@Base 4:4.3.4
 _ZN11Syndication13FileRetriever8slotDataEPN3KIO3JobERK10QByteArray@Base 4:4.3.4
 _ZN11Syndication13FileRetrieverC1Ev@Base 4:4.3.4
 _ZN11Syndication13FileRetrieverC2Ev@Base 4:4.3.4
 _ZN11Syndication13FileRetrieverD0Ev@Base 4:4.3.4
 _ZN11Syndication13FileRetrieverD1Ev@Base 4:4.3.4
 _ZN11Syndication13FileRetrieverD2Ev@Base 4:4.3.4
 _ZN11Syndication14AbstractParserD0Ev@Base 4:4.3.4
 _ZN11Syndication14AbstractParserD1Ev@Base 4:4.3.4
 _ZN11Syndication14AbstractParserD2Ev@Base 4:4.3.4
 _ZN11Syndication14DocumentSourceC1ERK10QByteArrayRK7QString@Base 4:4.3.4
 _ZN11Syndication14DocumentSourceC1ERKS0_@Base 4:4.3.4
 _ZN11Syndication14DocumentSourceC1Ev@Base 4:4.3.4
 _ZN11Syndication14DocumentSourceC2ERK10QByteArrayRK7QString@Base 4:4.3.4
 _ZN11Syndication14DocumentSourceC2ERKS0_@Base 4:4.3.4
 _ZN11Syndication14DocumentSourceC2Ev@Base 4:4.3.4
 _ZN11Syndication14DocumentSourceD1Ev@Base 4:4.3.4
 _ZN11Syndication14DocumentSourceD2Ev@Base 4:4.3.4
 _ZN11Syndication14DocumentSourceaSERKS0_@Base 4:4.3.4
 _ZN11Syndication14ElementWrapper15childNodesAsXMLERK11QDomElement@Base 4:4.3.4
 _ZN11Syndication14ElementWrapperC1ERK11QDomElement@Base 4:4.3.4
 _ZN11Syndication14ElementWrapperC1ERKS0_@Base 4:4.3.4
 _ZN11Syndication14ElementWrapperC1Ev@Base 4:4.3.4
 _ZN11Syndication14ElementWrapperC2ERK11QDomElement@Base 4:4.3.4
 _ZN11Syndication14ElementWrapperC2ERKS0_@Base 4:4.3.4
 _ZN11Syndication14ElementWrapperC2Ev@Base 4:4.3.4
 _ZN11Syndication14ElementWrapperD0Ev@Base 4:4.3.4
 _ZN11Syndication14ElementWrapperD1Ev@Base 4:4.3.4
 _ZN11Syndication14ElementWrapperD2Ev@Base 4:4.3.4
 _ZN11Syndication14ElementWrapperaSERKS0_@Base 4:4.3.4
 _ZN11Syndication14slashNamespaceEv@Base 4:4.3.4
 _ZN11Syndication14xhtmlNamespaceEv@Base 4:4.3.4
 _ZN11Syndication15DocumentVisitor16visitRDFDocumentEPNS_3RDF8DocumentE@Base 4:4.3.4
 _ZN11Syndication15DocumentVisitor17visitRSS2DocumentEPNS_4RSS28DocumentE@Base 4:4.3.4
 _ZN11Syndication15DocumentVisitor21visitAtomFeedDocumentEPNS_4Atom12FeedDocumentE@Base 4:4.3.4
 _ZN11Syndication15DocumentVisitor22visitAtomEntryDocumentEPNS_4Atom13EntryDocumentE@Base 4:4.3.4
 _ZN11Syndication15DocumentVisitor5visitEPNS_16SpecificDocumentE@Base 4:4.3.4
 _ZN11Syndication15DocumentVisitorD0Ev@Base 4:4.3.4
 _ZN11Syndication15DocumentVisitorD1Ev@Base 4:4.3.4
 _ZN11Syndication15DocumentVisitorD2Ev@Base 4:4.3.4
 _ZN11Syndication15OutputRetriever11qt_metacallEN11QMetaObject4CallEiPPv@Base 4:4.3.4
 _ZN11Syndication15OutputRetriever11qt_metacastEPKc@Base 4:4.3.4
 _ZN11Syndication15OutputRetriever12retrieveDataERK4KUrl@Base 4:4.3.4
 _ZN11Syndication15OutputRetriever12slotFinishedEiN8QProcess10ExitStatusE@Base 4:4.3.4
 _ZN11Syndication15OutputRetriever16staticMetaObjectE@Base 4:4.3.4
 _ZN11Syndication15OutputRetrieverC1Ev@Base 4:4.3.4
 _ZN11Syndication15OutputRetrieverC2Ev@Base 4:4.3.4
 _ZN11Syndication15OutputRetrieverD0Ev@Base 4:4.3.4
 _ZN11Syndication15OutputRetrieverD1Ev@Base 4:4.3.4
 _ZN11Syndication15OutputRetrieverD2Ev@Base 4:4.3.4
 _ZN11Syndication15convertNewlinesERK7QString@Base 4:4.3.4
 _ZN11Syndication15htmlToPlainTextERK7QString@Base 4:4.3.4
 _ZN11Syndication15itunesNamespaceEv@Base 4:4.3.4
 _ZN11Syndication15plainTextToHtmlERK7QString@Base 4:4.3.4
 _ZN11Syndication15resolveEntitiesERK7QString@Base 4:4.3.4
 _ZN11Syndication16ParserCollectionINS_4FeedEED0Ev@Base 4:4.3.4
 _ZN11Syndication16ParserCollectionINS_4FeedEED1Ev@Base 4:4.3.4
 _ZN11Syndication16ParserCollectionINS_4FeedEED2Ev@Base 4:4.6.1
 _ZN11Syndication16SpecificDocumentD0Ev@Base 4:4.3.4
 _ZN11Syndication16SpecificDocumentD1Ev@Base 4:4.3.4
 _ZN11Syndication16SpecificDocumentD2Ev@Base 4:4.3.4
 _ZN11Syndication16contentNameSpaceEv@Base 4:4.3.4
 _ZN11Syndication16dateTimeToStringEl@Base 4:4.3.4
 _ZN11Syndication16parserCollectionEv@Base 4:4.3.4
 _ZN11Syndication16personFromStringERK7QString@Base 4:4.3.4
 _ZN11Syndication19SpecificItemVisitor12visitRDFItemEPNS_3RDF4ItemE@Base 4:4.3.4
 _ZN11Syndication19SpecificItemVisitor13visitRSS2ItemEPNS_4RSS24ItemE@Base 4:4.3.4
 _ZN11Syndication19SpecificItemVisitor14visitAtomEntryEPNS_4Atom5EntryE@Base 4:4.3.4
 _ZN11Syndication19SpecificItemVisitor5visitEPNS_12SpecificItemE@Base 4:4.3.4
 _ZN11Syndication19SpecificItemVisitorD0Ev@Base 4:4.3.4
 _ZN11Syndication19SpecificItemVisitorD1Ev@Base 4:4.3.4
 _ZN11Syndication19SpecificItemVisitorD2Ev@Base 4:4.3.4
 _ZN11Syndication19commentApiNamespaceEv@Base 4:4.3.4
 _ZN11Syndication19dublinCoreNamespaceEv@Base 4:4.3.4
 _ZN11Syndication20ParserCollectionImplINS_4FeedEE12changeMapperERK7QStringPNS_6MapperIS1_EE@Base 4:4.3.4
 _ZN11Syndication20ParserCollectionImplINS_4FeedEE14registerParserEPNS_14AbstractParserEPNS_6MapperIS1_EE@Base 4:4.3.4
 _ZN11Syndication20ParserCollectionImplINS_4FeedEE5parseERKNS_14DocumentSourceERK7QString@Base 4:4.3.4
 _ZN11Syndication20ParserCollectionImplINS_4FeedEED0Ev@Base 4:4.3.4
 _ZN11Syndication20ParserCollectionImplINS_4FeedEED1Ev@Base 4:4.3.4
 _ZN11Syndication20ParserCollectionImplINS_4FeedEED2Ev@Base 4:4.6.1
 _ZN11Syndication20stringContainsMarkupERK7QString@Base 4:4.3.4
 _ZN11Syndication23escapeSpecialCharactersERK7QString@Base 4:4.3.4
 _ZN11Syndication3RDF10DublinCoreC1EN5boost10shared_ptrINS0_8ResourceEEE@Base 4:4.3.4
 _ZN11Syndication3RDF10DublinCoreC2EN5boost10shared_ptrINS0_8ResourceEEE@Base 4:4.3.4
 _ZN11Syndication3RDF10DublinCoreD0Ev@Base 4:4.3.4
 _ZN11Syndication3RDF10DublinCoreD1Ev@Base 4:4.3.4
 _ZN11Syndication3RDF10DublinCoreD2Ev@Base 4:4.3.4
 _ZN11Syndication3RDF10ModelMaker12readResourceERNS0_5ModelERK11QDomElement@Base 4:4.3.4
 _ZN11Syndication3RDF10ModelMaker13createFromXMLERK12QDomDocument@Base 4:4.3.4
 _ZN11Syndication3RDF10RSS09Vocab17RSS09VocabPrivate5sSelfE@Base 4:4.3.4
 _ZN11Syndication3RDF10RSS09Vocab4selfEv@Base 4:4.3.4
 _ZN11Syndication3RDF10RSS09VocabC1Ev@Base 4:4.3.4
 _ZN11Syndication3RDF10RSS09VocabC2Ev@Base 4:4.3.4
 _ZN11Syndication3RDF10RSS09VocabD1Ev@Base 4:4.3.4
 _ZN11Syndication3RDF10RSS09VocabD2Ev@Base 4:4.3.4
 _ZN11Syndication3RDF11NodeVisitor12visitLiteralEN5boost10shared_ptrINS0_7LiteralEEE@Base 4:4.3.4
 _ZN11Syndication3RDF11NodeVisitor13visitPropertyEN5boost10shared_ptrINS0_8PropertyEEE@Base 4:4.3.4
 _ZN11Syndication3RDF11NodeVisitor13visitResourceEN5boost10shared_ptrINS0_8ResourceEEE@Base 4:4.3.4
 _ZN11Syndication3RDF11NodeVisitor13visitSequenceEN5boost10shared_ptrINS0_8SequenceEEE@Base 4:4.3.4
 _ZN11Syndication3RDF11NodeVisitor5visitEN5boost10shared_ptrINS0_4NodeEEE@Base 4:4.3.4
 _ZN11Syndication3RDF11NodeVisitor9visitNodeEN5boost10shared_ptrINS0_4NodeEEE@Base 4:4.3.4
 _ZN11Syndication3RDF11NodeVisitorD0Ev@Base 4:4.3.4
 _ZN11Syndication3RDF11NodeVisitorD1Ev@Base 4:4.3.4
 _ZN11Syndication3RDF11NodeVisitorD2Ev@Base 4:4.3.4
 _ZN11Syndication3RDF12ContentVocab19ContentVocabPrivate5sSelfE@Base 4:4.3.4
 _ZN11Syndication3RDF12ContentVocab19ContentVocabPrivateD1Ev@Base 4:4.6.5
 _ZN11Syndication3RDF12ContentVocab19ContentVocabPrivateD2Ev@Base 4:4.6.5
 _ZN11Syndication3RDF12ContentVocab4selfEv@Base 4:4.3.4
 _ZN11Syndication3RDF12ContentVocabC1Ev@Base 4:4.3.4
 _ZN11Syndication3RDF12ContentVocabC2Ev@Base 4:4.3.4
 _ZN11Syndication3RDF12ContentVocabD1Ev@Base 4:4.3.4
 _ZN11Syndication3RDF12ContentVocabD2Ev@Base 4:4.3.4
 _ZN11Syndication3RDF15DublinCoreVocab22DublinCoreVocabPrivate5sSelfE@Base 4:4.3.4
 _ZN11Syndication3RDF15DublinCoreVocab22DublinCoreVocabPrivateD1Ev@Base 4:4.6.5
 _ZN11Syndication3RDF15DublinCoreVocab22DublinCoreVocabPrivateD2Ev@Base 4:4.6.5
 _ZN11Syndication3RDF15DublinCoreVocab4selfEv@Base 4:4.3.4
 _ZN11Syndication3RDF15DublinCoreVocabC1Ev@Base 4:4.3.4
 _ZN11Syndication3RDF15DublinCoreVocabC2Ev@Base 4:4.3.4
 _ZN11Syndication3RDF15DublinCoreVocabD1Ev@Base 4:4.3.4
 _ZN11Syndication3RDF15DublinCoreVocabD2Ev@Base 4:4.3.4
 _ZN11Syndication3RDF15ResourceWrapperC1EN5boost10shared_ptrINS0_8ResourceEEE@Base 4:4.3.4
 _ZN11Syndication3RDF15ResourceWrapperC1ERKS1_@Base 4:4.3.4
 _ZN11Syndication3RDF15ResourceWrapperC1Ev@Base 4:4.3.4
 _ZN11Syndication3RDF15ResourceWrapperC2EN5boost10shared_ptrINS0_8ResourceEEE@Base 4:4.3.4
 _ZN11Syndication3RDF15ResourceWrapperC2ERKS1_@Base 4:4.3.4
 _ZN11Syndication3RDF15ResourceWrapperC2Ev@Base 4:4.3.4
 _ZN11Syndication3RDF15ResourceWrapperD0Ev@Base 4:4.3.4
 _ZN11Syndication3RDF15ResourceWrapperD1Ev@Base 4:4.3.4
 _ZN11Syndication3RDF15ResourceWrapperD2Ev@Base 4:4.3.4
 _ZN11Syndication3RDF15ResourceWrapperaSERKS1_@Base 4:4.3.4
 _ZN11Syndication3RDF15SyndicationInfo14periodToStringENS1_6PeriodE@Base 4:4.3.4
 _ZN11Syndication3RDF15SyndicationInfo14stringToPeriodERK7QString@Base 4:4.3.4
 _ZN11Syndication3RDF15SyndicationInfoC1EN5boost10shared_ptrINS0_8ResourceEEE@Base 4:4.3.4
 _ZN11Syndication3RDF15SyndicationInfoC2EN5boost10shared_ptrINS0_8ResourceEEE@Base 4:4.3.4
 _ZN11Syndication3RDF15SyndicationInfoD0Ev@Base 4:4.3.4
 _ZN11Syndication3RDF15SyndicationInfoD1Ev@Base 4:4.3.4
 _ZN11Syndication3RDF15SyndicationInfoD2Ev@Base 4:4.3.4
 _ZN11Syndication3RDF16SyndicationVocab23SyndicationVocabPrivate5sSelfE@Base 4:4.3.4
 _ZN11Syndication3RDF16SyndicationVocab23SyndicationVocabPrivateD1Ev@Base 4:4.6.5
 _ZN11Syndication3RDF16SyndicationVocab23SyndicationVocabPrivateD2Ev@Base 4:4.6.5
 _ZN11Syndication3RDF16SyndicationVocab4selfEv@Base 4:4.3.4
 _ZN11Syndication3RDF16SyndicationVocabC1Ev@Base 4:4.3.4
 _ZN11Syndication3RDF16SyndicationVocabC2Ev@Base 4:4.3.4
 _ZN11Syndication3RDF16SyndicationVocabD1Ev@Base 4:4.3.4
 _ZN11Syndication3RDF16SyndicationVocabD2Ev@Base 4:4.3.4
 _ZN11Syndication3RDF4Item6acceptEPNS_19SpecificItemVisitorE@Base 4:4.3.4
 _ZN11Syndication3RDF4ItemC1EN5boost10shared_ptrINS0_8ResourceEEENS3_INS0_8DocumentEEE@Base 4:4.3.4
 _ZN11Syndication3RDF4ItemC1ERKS1_@Base 4:4.3.4
 _ZN11Syndication3RDF4ItemC1Ev@Base 4:4.3.4
 _ZN11Syndication3RDF4ItemC2EN5boost10shared_ptrINS0_8ResourceEEENS3_INS0_8DocumentEEE@Base 4:4.3.4
 _ZN11Syndication3RDF4ItemC2ERKS1_@Base 4:4.3.4
 _ZN11Syndication3RDF4ItemC2Ev@Base 4:4.3.4
 _ZN11Syndication3RDF4ItemD0Ev@Base 4:4.3.4
 _ZN11Syndication3RDF4ItemD1Ev@Base 4:4.3.4
 _ZN11Syndication3RDF4ItemD2Ev@Base 4:4.3.4
 _ZN11Syndication3RDF4ItemaSERKS1_@Base 4:4.3.4
 _ZN11Syndication3RDF4Node6acceptEPNS0_11NodeVisitorEN5boost10shared_ptrIS1_EE@Base 4:4.3.4
 _ZN11Syndication3RDF4Node9idCounterE@Base 4:4.3.4
 _ZN11Syndication3RDF4NodeD0Ev@Base 4:4.3.4
 _ZN11Syndication3RDF4NodeD1Ev@Base 4:4.3.4
 _ZN11Syndication3RDF4NodeD2Ev@Base 4:4.3.4
 _ZN11Syndication3RDF5ImageC1EN5boost10shared_ptrINS0_8ResourceEEE@Base 4:4.3.4
 _ZN11Syndication3RDF5ImageC1Ev@Base 4:4.3.4
 _ZN11Syndication3RDF5ImageC2EN5boost10shared_ptrINS0_8ResourceEEE@Base 4:4.3.4
 _ZN11Syndication3RDF5ImageC2Ev@Base 4:4.3.4
 _ZN11Syndication3RDF5ImageD0Ev@Base 4:4.3.4
 _ZN11Syndication3RDF5ImageD1Ev@Base 4:4.3.4
 _ZN11Syndication3RDF5ImageD2Ev@Base 4:4.3.4
 _ZN11Syndication3RDF5Model12ModelPrivate18AddToHashesVisitorD0Ev@Base 4:4.6.5
 _ZN11Syndication3RDF5Model12ModelPrivate18AddToHashesVisitorD1Ev@Base 4:4.6.5
 _ZN11Syndication3RDF5Model12ModelPrivate18AddToHashesVisitorD2Ev@Base 4:4.6.5
 _ZN11Syndication3RDF5Model12ModelPrivate9idCounterE@Base 4:4.3.4
 _ZN11Syndication3RDF5Model12addStatementEN5boost10shared_ptrINS0_8ResourceEEENS3_INS0_8PropertyEEENS3_INS0_4NodeEEE@Base 4:4.3.4
 _ZN11Syndication3RDF5Model13createLiteralERK7QString@Base 4:4.3.4
 _ZN11Syndication3RDF5Model14createPropertyERK7QString@Base 4:4.3.4
 _ZN11Syndication3RDF5Model14createResourceERK7QString@Base 4:4.3.4
 _ZN11Syndication3RDF5Model14createSequenceERK7QString@Base 4:4.3.4
 _ZN11Syndication3RDF5Model15removeStatementEN5boost10shared_ptrINS0_8ResourceEEENS3_INS0_8PropertyEEENS3_INS0_4NodeEEE@Base 4:4.3.4
 _ZN11Syndication3RDF5Model15removeStatementEN5boost10shared_ptrINS0_9StatementEEE@Base 4:4.3.4
 _ZN11Syndication3RDF5ModelC1ERKS1_@Base 4:4.3.4
 _ZN11Syndication3RDF5ModelC1Ev@Base 4:4.3.4
 _ZN11Syndication3RDF5ModelC2ERKS1_@Base 4:4.3.4
 _ZN11Syndication3RDF5ModelC2Ev@Base 4:4.3.4
 _ZN11Syndication3RDF5ModelD0Ev@Base 4:4.3.4
 _ZN11Syndication3RDF5ModelD1Ev@Base 4:4.3.4
 _ZN11Syndication3RDF5ModelD2Ev@Base 4:4.3.4
 _ZN11Syndication3RDF5ModelaSERKS1_@Base 4:4.3.4
 _ZN11Syndication3RDF6Parser13ParserPrivate14addEnumerationERK12QDomDocument@Base 4:4.3.4
 _ZN11Syndication3RDF6Parser13ParserPrivate16addSequenceFor09ENS0_5ModelE@Base 4:4.3.4
 _ZN11Syndication3RDF6Parser13ParserPrivate9map09to10ENS0_5ModelE@Base 4:4.3.4
 _ZN11Syndication3RDF6ParserC1ERKS1_@Base 4:4.3.4
 _ZN11Syndication3RDF6ParserC1Ev@Base 4:4.3.4
 _ZN11Syndication3RDF6ParserC2ERKS1_@Base 4:4.3.4
 _ZN11Syndication3RDF6ParserC2Ev@Base 4:4.3.4
 _ZN11Syndication3RDF6ParserD0Ev@Base 4:4.3.4
 _ZN11Syndication3RDF6ParserD1Ev@Base 4:4.3.4
 _ZN11Syndication3RDF6ParserD2Ev@Base 4:4.3.4
 _ZN11Syndication3RDF6ParseraSERKS1_@Base 4:4.3.4
 _ZN11Syndication3RDF7Literal5setIdEj@Base 4:4.3.4
 _ZN11Syndication3RDF7Literal6acceptEPNS0_11NodeVisitorEN5boost10shared_ptrINS0_4NodeEEE@Base 4:4.3.4
 _ZN11Syndication3RDF7Literal8setModelERKNS0_5ModelE@Base 4:4.3.4
 _ZN11Syndication3RDF7LiteralC1ERK7QString@Base 4:4.3.4
 _ZN11Syndication3RDF7LiteralC1ERKS1_@Base 4:4.3.4
 _ZN11Syndication3RDF7LiteralC1Ev@Base 4:4.3.4
 _ZN11Syndication3RDF7LiteralC2ERK7QString@Base 4:4.3.4
 _ZN11Syndication3RDF7LiteralC2ERKS1_@Base 4:4.3.4
 _ZN11Syndication3RDF7LiteralC2Ev@Base 4:4.3.4
 _ZN11Syndication3RDF7LiteralD0Ev@Base 4:4.3.4
 _ZN11Syndication3RDF7LiteralD1Ev@Base 4:4.3.4
 _ZN11Syndication3RDF7LiteralD2Ev@Base 4:4.3.4
 _ZN11Syndication3RDF7LiteralaSERKS1_@Base 4:4.3.4
 _ZN11Syndication3RDF8Document6acceptEPNS_15DocumentVisitorE@Base 4:4.3.4
 _ZN11Syndication3RDF8DocumentC1EN5boost10shared_ptrINS0_8ResourceEEE@Base 4:4.3.4
 _ZN11Syndication3RDF8DocumentC1ERKS1_@Base 4:4.3.4
 _ZN11Syndication3RDF8DocumentC1Ev@Base 4:4.3.4
 _ZN11Syndication3RDF8DocumentC2EN5boost10shared_ptrINS0_8ResourceEEE@Base 4:4.3.4
 _ZN11Syndication3RDF8DocumentC2ERKS1_@Base 4:4.3.4
 _ZN11Syndication3RDF8DocumentC2Ev@Base 4:4.3.4
 _ZN11Syndication3RDF8DocumentD0Ev@Base 4:4.3.4
 _ZN11Syndication3RDF8DocumentD1Ev@Base 4:4.3.4
 _ZN11Syndication3RDF8DocumentD2Ev@Base 4:4.3.4
 _ZN11Syndication3RDF8DocumentaSERKS1_@Base 4:4.3.4
 _ZN11Syndication3RDF8Property6acceptEPNS0_11NodeVisitorEN5boost10shared_ptrINS0_4NodeEEE@Base 4:4.3.4
 _ZN11Syndication3RDF8PropertyC1ERK7QString@Base 4:4.3.4
 _ZN11Syndication3RDF8PropertyC1Ev@Base 4:4.3.4
 _ZN11Syndication3RDF8PropertyC2ERK7QString@Base 4:4.3.4
 _ZN11Syndication3RDF8PropertyC2Ev@Base 4:4.3.4
 _ZN11Syndication3RDF8PropertyD0Ev@Base 4:4.3.4
 _ZN11Syndication3RDF8PropertyD1Ev@Base 4:4.3.4
 _ZN11Syndication3RDF8PropertyD2Ev@Base 4:4.3.4
 _ZN11Syndication3RDF8RDFVocab12namespaceURIEv@Base 4:4.3.4
 _ZN11Syndication3RDF8RDFVocab15RDFVocabPrivate5sSelfE@Base 4:4.3.4
 _ZN11Syndication3RDF8RDFVocab15RDFVocabPrivateD1Ev@Base 4:4.6.5
 _ZN11Syndication3RDF8RDFVocab15RDFVocabPrivateD2Ev@Base 4:4.6.5
 _ZN11Syndication3RDF8RDFVocab2liEv@Base 4:4.3.4
 _ZN11Syndication3RDF8RDFVocab3seqEv@Base 4:4.3.4
 _ZN11Syndication3RDF8RDFVocab4selfEv@Base 4:4.3.4
 _ZN11Syndication3RDF8RDFVocab4typeEv@Base 4:4.3.4
 _ZN11Syndication3RDF8RDFVocabC1Ev@Base 4:4.3.4
 _ZN11Syndication3RDF8RDFVocabC2Ev@Base 4:4.3.4
 _ZN11Syndication3RDF8RDFVocabD1Ev@Base 4:4.3.4
 _ZN11Syndication3RDF8RDFVocabD2Ev@Base 4:4.3.4
 _ZN11Syndication3RDF8RSSVocab15RSSVocabPrivate5sSelfE@Base 4:4.3.4
 _ZN11Syndication3RDF8RSSVocab15RSSVocabPrivateD1Ev@Base 4:4.6.5
 _ZN11Syndication3RDF8RSSVocab15RSSVocabPrivateD2Ev@Base 4:4.6.5
 _ZN11Syndication3RDF8RSSVocab4selfEv@Base 4:4.3.4
 _ZN11Syndication3RDF8RSSVocabC1Ev@Base 4:4.3.4
 _ZN11Syndication3RDF8RSSVocabC2Ev@Base 4:4.3.4
 _ZN11Syndication3RDF8RSSVocabD1Ev@Base 4:4.3.4
 _ZN11Syndication3RDF8RSSVocabD2Ev@Base 4:4.3.4
 _ZN11Syndication3RDF8Resource5setIdEj@Base 4:4.3.4
 _ZN11Syndication3RDF8Resource6acceptEPNS0_11NodeVisitorEN5boost10shared_ptrINS0_4NodeEEE@Base 4:4.3.4
 _ZN11Syndication3RDF8Resource8setModelERKNS0_5ModelE@Base 4:4.3.4
 _ZN11Syndication3RDF8ResourceC1ERK7QString@Base 4:4.3.4
 _ZN11Syndication3RDF8ResourceC1ERKS1_@Base 4:4.3.4
 _ZN11Syndication3RDF8ResourceC1Ev@Base 4:4.3.4
 _ZN11Syndication3RDF8ResourceC2ERK7QString@Base 4:4.3.4
 _ZN11Syndication3RDF8ResourceC2ERKS1_@Base 4:4.3.4
 _ZN11Syndication3RDF8ResourceC2Ev@Base 4:4.3.4
 _ZN11Syndication3RDF8ResourceD0Ev@Base 4:4.3.4
 _ZN11Syndication3RDF8ResourceD1Ev@Base 4:4.3.4
 _ZN11Syndication3RDF8ResourceD2Ev@Base 4:4.3.4
 _ZN11Syndication3RDF8ResourceaSERKS1_@Base 4:4.3.4
 _ZN11Syndication3RDF8Sequence6acceptEPNS0_11NodeVisitorEN5boost10shared_ptrINS0_4NodeEEE@Base 4:4.3.4
 _ZN11Syndication3RDF8Sequence6appendEN5boost10shared_ptrINS0_4NodeEEE@Base 4:4.3.4
 _ZN11Syndication3RDF8SequenceC1ERK7QString@Base 4:4.3.4
 _ZN11Syndication3RDF8SequenceC1ERKS1_@Base 4:4.3.4
 _ZN11Syndication3RDF8SequenceC1Ev@Base 4:4.3.4
 _ZN11Syndication3RDF8SequenceC2ERK7QString@Base 4:4.3.4
 _ZN11Syndication3RDF8SequenceC2ERKS1_@Base 4:4.3.4
 _ZN11Syndication3RDF8SequenceC2Ev@Base 4:4.3.4
 _ZN11Syndication3RDF8SequenceD0Ev@Base 4:4.3.4
 _ZN11Syndication3RDF8SequenceD1Ev@Base 4:4.3.4
 _ZN11Syndication3RDF8SequenceD2Ev@Base 4:4.3.4
 _ZN11Syndication3RDF8SequenceaSERKS1_@Base 4:4.3.4
 _ZN11Syndication3RDF9StatementC1EN5boost10shared_ptrINS0_8ResourceEEENS3_INS0_8PropertyEEENS3_INS0_4NodeEEE@Base 4:4.3.4
 _ZN11Syndication3RDF9StatementC1ERKS1_@Base 4:4.3.4
 _ZN11Syndication3RDF9StatementC1Ev@Base 4:4.3.4
 _ZN11Syndication3RDF9StatementC2EN5boost10shared_ptrINS0_8ResourceEEENS3_INS0_8PropertyEEENS3_INS0_4NodeEEE@Base 4:4.3.4
 _ZN11Syndication3RDF9StatementC2ERKS1_@Base 4:4.3.4
 _ZN11Syndication3RDF9StatementC2Ev@Base 4:4.3.4
 _ZN11Syndication3RDF9StatementD0Ev@Base 4:4.3.4
 _ZN11Syndication3RDF9StatementD1Ev@Base 4:4.3.4
 _ZN11Syndication3RDF9StatementD2Ev@Base 4:4.3.4
 _ZN11Syndication3RDF9StatementaSERKS1_@Base 4:4.3.4
 _ZN11Syndication3RDF9TextInputC1EN5boost10shared_ptrINS0_8ResourceEEE@Base 4:4.3.4
 _ZN11Syndication3RDF9TextInputC1Ev@Base 4:4.3.4
 _ZN11Syndication3RDF9TextInputC2EN5boost10shared_ptrINS0_8ResourceEEE@Base 4:4.3.4
 _ZN11Syndication3RDF9TextInputC2Ev@Base 4:4.3.4
 _ZN11Syndication3RDF9TextInputD0Ev@Base 4:4.3.4
 _ZN11Syndication3RDF9TextInputD1Ev@Base 4:4.3.4
 _ZN11Syndication3RDF9TextInputD2Ev@Base 4:4.3.4
 _ZN11Syndication4Atom12FeedDocument6acceptEPNS_15DocumentVisitorE@Base 4:4.3.4
 _ZN11Syndication4Atom12FeedDocumentC1ERK11QDomElement@Base 4:4.3.4
 _ZN11Syndication4Atom12FeedDocumentC1Ev@Base 4:4.3.4
 _ZN11Syndication4Atom12FeedDocumentC2ERK11QDomElement@Base 4:4.3.4
 _ZN11Syndication4Atom12FeedDocumentC2Ev@Base 4:4.3.4
 _ZN11Syndication4Atom12FeedDocumentD0Ev@Base 4:4.6.5
 _ZN11Syndication4Atom12FeedDocumentD1Ev@Base 4:4.6.5
 _ZN11Syndication4Atom12FeedDocumentD2Ev@Base 4:4.6.5
 _ZN11Syndication4Atom13EntryDocument6acceptEPNS_15DocumentVisitorE@Base 4:4.3.4
 _ZN11Syndication4Atom13EntryDocumentC1ERK11QDomElement@Base 4:4.3.4
 _ZN11Syndication4Atom13EntryDocumentC1Ev@Base 4:4.3.4
 _ZN11Syndication4Atom13EntryDocumentC2ERK11QDomElement@Base 4:4.3.4
 _ZN11Syndication4Atom13EntryDocumentC2Ev@Base 4:4.3.4
 _ZN11Syndication4Atom13EntryDocumentD0Ev@Base 4:4.6.5
 _ZN11Syndication4Atom13EntryDocumentD1Ev@Base 4:4.6.5
 _ZN11Syndication4Atom13EntryDocumentD2Ev@Base 4:4.6.5
 _ZN11Syndication4Atom14atom1NamespaceEv@Base 4:4.3.4
 _ZN11Syndication4Atom16atom0_3NamespaceEv@Base 4:4.3.4
 _ZN11Syndication4Atom4LinkC1ERK11QDomElement@Base 4:4.3.4
 _ZN11Syndication4Atom4LinkC1Ev@Base 4:4.3.4
 _ZN11Syndication4Atom4LinkC2ERK11QDomElement@Base 4:4.3.4
 _ZN11Syndication4Atom4LinkC2Ev@Base 4:4.3.4
 _ZN11Syndication4Atom4LinkD0Ev@Base 4:4.6.5
 _ZN11Syndication4Atom4LinkD1Ev@Base 4:4.6.5
 _ZN11Syndication4Atom4LinkD2Ev@Base 4:4.6.5
 _ZN11Syndication4Atom5Entry6acceptEPNS_19SpecificItemVisitorE@Base 4:4.3.4
 _ZN11Syndication4Atom5EntryC1ERK11QDomElement@Base 4:4.3.4
 _ZN11Syndication4Atom5EntryC1Ev@Base 4:4.3.4
 _ZN11Syndication4Atom5EntryC2ERK11QDomElement@Base 4:4.3.4
 _ZN11Syndication4Atom5EntryC2Ev@Base 4:4.3.4
 _ZN11Syndication4Atom5EntryD0Ev@Base 4:4.6.5
 _ZN11Syndication4Atom5EntryD1Ev@Base 4:4.6.5
 _ZN11Syndication4Atom5EntryD2Ev@Base 4:4.6.5
 _ZN11Syndication4Atom6Parser13ParserPrivate11convertNodeER12QDomDocumentRK8QDomNodeRK5QHashI7QStringS9_E@Base 4:4.3.4
 _ZN11Syndication4Atom6Parser13ParserPrivate14convertAtom0_3ERK12QDomDocument@Base 4:4.3.4
 _ZN11Syndication4Atom6ParserC1ERKS1_@Base 4:4.3.4
 _ZN11Syndication4Atom6ParserC1Ev@Base 4:4.3.4
 _ZN11Syndication4Atom6ParserC2ERKS1_@Base 4:4.3.4
 _ZN11Syndication4Atom6ParserC2Ev@Base 4:4.3.4
 _ZN11Syndication4Atom6ParserD0Ev@Base 4:4.3.4
 _ZN11Syndication4Atom6ParserD1Ev@Base 4:4.3.4
 _ZN11Syndication4Atom6ParserD2Ev@Base 4:4.3.4
 _ZN11Syndication4Atom6ParseraSERKS1_@Base 4:4.3.4
 _ZN11Syndication4Atom6PersonC1ERK11QDomElement@Base 4:4.3.4
 _ZN11Syndication4Atom6PersonC1Ev@Base 4:4.3.4
 _ZN11Syndication4Atom6PersonC2ERK11QDomElement@Base 4:4.3.4
 _ZN11Syndication4Atom6PersonC2Ev@Base 4:4.3.4
 _ZN11Syndication4Atom6PersonD0Ev@Base 4:4.6.5
 _ZN11Syndication4Atom6PersonD1Ev@Base 4:4.6.5
 _ZN11Syndication4Atom6PersonD2Ev@Base 4:4.6.5
 _ZN11Syndication4Atom6SourceC1ERK11QDomElement@Base 4:4.3.4
 _ZN11Syndication4Atom6SourceC1Ev@Base 4:4.3.4
 _ZN11Syndication4Atom6SourceC2ERK11QDomElement@Base 4:4.3.4
 _ZN11Syndication4Atom6SourceC2Ev@Base 4:4.3.4
 _ZN11Syndication4Atom6SourceD0Ev@Base 4:4.6.5
 _ZN11Syndication4Atom6SourceD1Ev@Base 4:4.6.5
 _ZN11Syndication4Atom6SourceD2Ev@Base 4:4.6.5
 _ZN11Syndication4Atom7Content15mapTypeToFormatERK7QStringS4_@Base 4:4.3.4
 _ZN11Syndication4Atom7ContentC1ERK11QDomElement@Base 4:4.3.4
 _ZN11Syndication4Atom7ContentC1ERKS1_@Base 4:4.3.4
 _ZN11Syndication4Atom7ContentC1Ev@Base 4:4.3.4
 _ZN11Syndication4Atom7ContentC2ERK11QDomElement@Base 4:4.3.4
 _ZN11Syndication4Atom7ContentC2ERKS1_@Base 4:4.3.4
 _ZN11Syndication4Atom7ContentC2Ev@Base 4:4.3.4
 _ZN11Syndication4Atom7ContentD0Ev@Base 4:4.3.4
 _ZN11Syndication4Atom7ContentD1Ev@Base 4:4.3.4
 _ZN11Syndication4Atom7ContentD2Ev@Base 4:4.3.4
 _ZN11Syndication4Atom7ContentaSERKS1_@Base 4:4.3.4
 _ZN11Syndication4Atom8CategoryC1ERK11QDomElement@Base 4:4.3.4
 _ZN11Syndication4Atom8CategoryC1Ev@Base 4:4.3.4
 _ZN11Syndication4Atom8CategoryC2ERK11QDomElement@Base 4:4.3.4
 _ZN11Syndication4Atom8CategoryC2Ev@Base 4:4.3.4
 _ZN11Syndication4Atom8CategoryD0Ev@Base 4:4.6.5
 _ZN11Syndication4Atom8CategoryD1Ev@Base 4:4.6.5
 _ZN11Syndication4Atom8CategoryD2Ev@Base 4:4.6.5
 _ZN11Syndication4Atom9GeneratorC1ERK11QDomElement@Base 4:4.3.4
 _ZN11Syndication4Atom9GeneratorC1Ev@Base 4:4.3.4
 _ZN11Syndication4Atom9GeneratorC2ERK11QDomElement@Base 4:4.3.4
 _ZN11Syndication4Atom9GeneratorC2Ev@Base 4:4.3.4
 _ZN11Syndication4Atom9GeneratorD0Ev@Base 4:4.6.5
 _ZN11Syndication4Atom9GeneratorD1Ev@Base 4:4.6.5
 _ZN11Syndication4Atom9GeneratorD2Ev@Base 4:4.6.5
 _ZN11Syndication4FeedD0Ev@Base 4:4.3.4
 _ZN11Syndication4FeedD1Ev@Base 4:4.3.4
 _ZN11Syndication4FeedD2Ev@Base 4:4.3.4
 _ZN11Syndication4ItemD0Ev@Base 4:4.3.4
 _ZN11Syndication4ItemD1Ev@Base 4:4.3.4
 _ZN11Syndication4ItemD2Ev@Base 4:4.3.4
 _ZN11Syndication4RSS24Item6acceptEPNS_19SpecificItemVisitorE@Base 4:4.3.4
 _ZN11Syndication4RSS24ItemC1EN5boost10shared_ptrINS0_8DocumentEEE@Base 4:4.3.4
 _ZN11Syndication4RSS24ItemC1ERK11QDomElementN5boost10shared_ptrINS0_8DocumentEEE@Base 4:4.3.4
 _ZN11Syndication4RSS24ItemC1ERKS1_@Base 4:4.3.4
 _ZN11Syndication4RSS24ItemC2EN5boost10shared_ptrINS0_8DocumentEEE@Base 4:4.3.4
 _ZN11Syndication4RSS24ItemC2ERK11QDomElementN5boost10shared_ptrINS0_8DocumentEEE@Base 4:4.3.4
 _ZN11Syndication4RSS24ItemC2ERKS1_@Base 4:4.3.4
 _ZN11Syndication4RSS24ItemD0Ev@Base 4:4.3.4
 _ZN11Syndication4RSS24ItemD1Ev@Base 4:4.3.4
 _ZN11Syndication4RSS24ItemD2Ev@Base 4:4.3.4
 _ZN11Syndication4RSS24ItemaSERKS1_@Base 4:4.3.4
 _ZN11Syndication4RSS25CloudC1ERK11QDomElement@Base 4:4.3.4
 _ZN11Syndication4RSS25CloudC1Ev@Base 4:4.3.4
 _ZN11Syndication4RSS25CloudC2ERK11QDomElement@Base 4:4.3.4
 _ZN11Syndication4RSS25CloudC2Ev@Base 4:4.3.4
 _ZN11Syndication4RSS25CloudD0Ev@Base 4:4.6.5
 _ZN11Syndication4RSS25CloudD1Ev@Base 4:4.6.5
 _ZN11Syndication4RSS25CloudD2Ev@Base 4:4.6.5
 _ZN11Syndication4RSS25ImageC1ERK11QDomElement@Base 4:4.3.4
 _ZN11Syndication4RSS25ImageC1Ev@Base 4:4.3.4
 _ZN11Syndication4RSS25ImageC2ERK11QDomElement@Base 4:4.3.4
 _ZN11Syndication4RSS25ImageC2Ev@Base 4:4.3.4
 _ZN11Syndication4RSS25ImageD0Ev@Base 4:4.6.5
 _ZN11Syndication4RSS25ImageD1Ev@Base 4:4.6.5
 _ZN11Syndication4RSS25ImageD2Ev@Base 4:4.6.5
 _ZN11Syndication4RSS26ParserC1ERKS1_@Base 4:4.3.4
 _ZN11Syndication4RSS26ParserC1Ev@Base 4:4.3.4
 _ZN11Syndication4RSS26ParserC2ERKS1_@Base 4:4.3.4
 _ZN11Syndication4RSS26ParserC2Ev@Base 4:4.3.4
 _ZN11Syndication4RSS26ParserD0Ev@Base 4:4.3.4
 _ZN11Syndication4RSS26ParserD1Ev@Base 4:4.3.4
 _ZN11Syndication4RSS26ParserD2Ev@Base 4:4.3.4
 _ZN11Syndication4RSS26ParseraSERKS1_@Base 4:4.3.4
 _ZN11Syndication4RSS26SourceC1ERK11QDomElement@Base 4:4.3.4
 _ZN11Syndication4RSS26SourceC1Ev@Base 4:4.3.4
 _ZN11Syndication4RSS26SourceC2ERK11QDomElement@Base 4:4.3.4
 _ZN11Syndication4RSS26SourceC2Ev@Base 4:4.3.4
 _ZN11Syndication4RSS26SourceD0Ev@Base 4:4.6.5
 _ZN11Syndication4RSS26SourceD1Ev@Base 4:4.6.5
 _ZN11Syndication4RSS26SourceD2Ev@Base 4:4.6.5
 _ZN11Syndication4RSS28CategoryC1ERK11QDomElement@Base 4:4.3.4
 _ZN11Syndication4RSS28CategoryC1Ev@Base 4:4.3.4
 _ZN11Syndication4RSS28CategoryC2ERK11QDomElement@Base 4:4.3.4
 _ZN11Syndication4RSS28CategoryC2Ev@Base 4:4.3.4
 _ZN11Syndication4RSS28CategoryD0Ev@Base 4:4.6.5
 _ZN11Syndication4RSS28CategoryD1Ev@Base 4:4.6.5
 _ZN11Syndication4RSS28CategoryD2Ev@Base 4:4.6.5
 _ZN11Syndication4RSS28Document6acceptEPNS_15DocumentVisitorE@Base 4:4.3.4
 _ZN11Syndication4RSS28Document7fromXMLERK12QDomDocument@Base 4:4.3.4
 _ZN11Syndication4RSS28DocumentC1ERK11QDomElement@Base 4:4.3.4
 _ZN11Syndication4RSS28DocumentC1ERKS1_@Base 4:4.3.4
 _ZN11Syndication4RSS28DocumentC1Ev@Base 4:4.3.4
 _ZN11Syndication4RSS28DocumentC2ERK11QDomElement@Base 4:4.3.4
 _ZN11Syndication4RSS28DocumentC2ERKS1_@Base 4:4.3.4
 _ZN11Syndication4RSS28DocumentC2Ev@Base 4:4.3.4
 _ZN11Syndication4RSS28DocumentD0Ev@Base 4:4.3.4
 _ZN11Syndication4RSS28DocumentD1Ev@Base 4:4.3.4
 _ZN11Syndication4RSS28DocumentD2Ev@Base 4:4.3.4
 _ZN11Syndication4RSS28DocumentaSERKS1_@Base 4:4.3.4
 _ZN11Syndication4RSS29EnclosureC1ERK11QDomElement@Base 4:4.3.4
 _ZN11Syndication4RSS29EnclosureC1Ev@Base 4:4.3.4
 _ZN11Syndication4RSS29EnclosureC2ERK11QDomElement@Base 4:4.3.4
 _ZN11Syndication4RSS29EnclosureC2Ev@Base 4:4.3.4
 _ZN11Syndication4RSS29EnclosureD0Ev@Base 4:4.6.5
 _ZN11Syndication4RSS29EnclosureD1Ev@Base 4:4.6.5
 _ZN11Syndication4RSS29EnclosureD2Ev@Base 4:4.6.5
 _ZN11Syndication4RSS29TextInputC1ERK11QDomElement@Base 4:4.3.4
 _ZN11Syndication4RSS29TextInputC1Ev@Base 4:4.3.4
 _ZN11Syndication4RSS29TextInputC2ERK11QDomElement@Base 4:4.3.4
 _ZN11Syndication4RSS29TextInputC2Ev@Base 4:4.3.4
 _ZN11Syndication4RSS29TextInputD0Ev@Base 4:4.6.5
 _ZN11Syndication4RSS29TextInputD1Ev@Base 4:4.6.5
 _ZN11Syndication4RSS29TextInputD2Ev@Base 4:4.6.5
 _ZN11Syndication5ImageD0Ev@Base 4:4.3.4
 _ZN11Syndication5ImageD1Ev@Base 4:4.3.4
 _ZN11Syndication5ImageD2Ev@Base 4:4.3.4
 _ZN11Syndication5parseERKNS_14DocumentSourceERK7QString@Base 4:4.3.4
 _ZN11Syndication6Loader11qt_metacallEN11QMetaObject4CallEiPPv@Base 4:4.3.4
 _ZN11Syndication6Loader11qt_metacastEPKc@Base 4:4.3.4
 _ZN11Syndication6Loader13discoverFeedsERK10QByteArray@Base 4:4.3.4
 _ZN11Syndication6Loader15loadingCompleteEPS0_N5boost10shared_ptrINS_4FeedEEENS_9ErrorCodeE@Base 4:4.3.4
 _ZN11Syndication6Loader16staticMetaObjectE@Base 4:4.3.4
 _ZN11Syndication6Loader17slotRetrieverDoneERK10QByteArrayb@Base 4:4.3.4
 _ZN11Syndication6Loader5abortEv@Base 4:4.3.4
 _ZN11Syndication6Loader6createEP7QObjectPKc@Base 4:4.3.4
 _ZN11Syndication6Loader6createEv@Base 4:4.3.4
 _ZN11Syndication6Loader8loadFromERK4KUrl@Base 4:4.3.4
 _ZN11Syndication6Loader8loadFromERK4KUrlPNS_13DataRetrieverE@Base 4:4.3.4
 _ZN11Syndication6LoaderC1Ev@Base 4:4.3.4
 _ZN11Syndication6LoaderC2Ev@Base 4:4.3.4
 _ZN11Syndication6LoaderD0Ev@Base 4:4.3.4
 _ZN11Syndication6LoaderD1Ev@Base 4:4.3.4
 _ZN11Syndication6LoaderD2Ev@Base 4:4.3.4
 _ZN11Syndication6MapperINS_4FeedEED0Ev@Base 4:4.3.4
 _ZN11Syndication6MapperINS_4FeedEED1Ev@Base 4:4.3.4
 _ZN11Syndication6MapperINS_4FeedEED2Ev@Base 4:4.6.1
 _ZN11Syndication6PersonD0Ev@Base 4:4.3.4
 _ZN11Syndication6PersonD1Ev@Base 4:4.3.4
 _ZN11Syndication6PersonD2Ev@Base 4:4.3.4
 _ZN11Syndication6isHtmlERK7QString@Base 4:4.3.4
 _ZN11Syndication8CategoryD0Ev@Base 4:4.3.4
 _ZN11Syndication8CategoryD1Ev@Base 4:4.3.4
 _ZN11Syndication8CategoryD2Ev@Base 4:4.3.4
 _ZN11Syndication9EnclosureD0Ev@Base 4:4.3.4
 _ZN11Syndication9EnclosureD1Ev@Base 4:4.3.4
 _ZN11Syndication9EnclosureD2Ev@Base 4:4.3.4
 _ZN11Syndication9normalizeERK7QString@Base 4:4.3.4
 _ZN11Syndication9normalizeERK7QStringbb@Base 4:4.3.4
 _ZN11Syndication9parseDateERK7QStringNS_10DateFormatE@Base 4:4.3.4
 _ZNK11Syndication13DataRetriever10metaObjectEv@Base 4:4.3.4
 _ZNK11Syndication13FileRetriever10metaObjectEv@Base 4:4.3.4
 _ZNK11Syndication13FileRetriever9errorCodeEv@Base 4:4.3.4
 _ZNK11Syndication14DocumentSource11asByteArrayEv@Base 4:4.3.4
 _ZNK11Syndication14DocumentSource13asDomDocumentEv@Base 4:4.3.4
 _ZNK11Syndication14DocumentSource3urlEv@Base 4:4.3.4
 _ZNK11Syndication14DocumentSource4hashEv@Base 4:4.3.4
 _ZNK11Syndication14DocumentSource4sizeEv@Base 4:4.3.4
 _ZNK11Syndication14ElementWrapper11attributeNSERK7QStringS3_S3_@Base 4:4.3.4
 _ZNK11Syndication14ElementWrapper11completeURIERK7QString@Base 4:4.3.4
 _ZNK11Syndication14ElementWrapper12hasAttributeERK7QString@Base 4:4.3.4
 _ZNK11Syndication14ElementWrapper14hasAttributeNSERK7QStringS3_@Base 4:4.3.4
 _ZNK11Syndication14ElementWrapper15childNodesAsXMLEv@Base 4:4.3.4
 _ZNK11Syndication14ElementWrapper17elementsByTagNameERK7QString@Base 4:4.3.4
 _ZNK11Syndication14ElementWrapper18extractElementTextERK7QString@Base 4:4.3.4
 _ZNK11Syndication14ElementWrapper19elementsByTagNameNSERK7QStringS3_@Base 4:4.3.4
 _ZNK11Syndication14ElementWrapper20extractElementTextNSERK7QStringS3_@Base 4:4.3.4
 _ZNK11Syndication14ElementWrapper23firstElementByTagNameNSERK7QStringS3_@Base 4:4.3.4
 _ZNK11Syndication14ElementWrapper4textEv@Base 4:4.3.4
 _ZNK11Syndication14ElementWrapper6isNullEv@Base 4:4.3.4
 _ZNK11Syndication14ElementWrapper7elementEv@Base 4:4.3.4
 _ZNK11Syndication14ElementWrapper7xmlBaseEv@Base 4:4.3.4
 _ZNK11Syndication14ElementWrapper7xmlLangEv@Base 4:4.3.4
 _ZNK11Syndication14ElementWrapper9attributeERK7QStringS3_@Base 4:4.3.4
 _ZNK11Syndication14ElementWrappereqERKS0_@Base 4:4.3.4
 _ZNK11Syndication15OutputRetriever10metaObjectEv@Base 4:4.3.4
 _ZNK11Syndication15OutputRetriever9errorCodeEv@Base 4:4.3.4
 _ZNK11Syndication20ParserCollectionImplINS_4FeedEE9lastErrorEv@Base 4:4.3.4
 _ZNK11Syndication3RDF10DublinCore10identifierEv@Base 4:4.3.4
 _ZNK11Syndication3RDF10DublinCore11contributorEv@Base 4:4.3.4
 _ZNK11Syndication3RDF10DublinCore11descriptionEv@Base 4:4.3.4
 _ZNK11Syndication3RDF10DublinCore12contributorsEv@Base 4:4.3.4
 _ZNK11Syndication3RDF10DublinCore4dateEv@Base 4:4.3.4
 _ZNK11Syndication3RDF10DublinCore4typeEv@Base 4:4.3.4
 _ZNK11Syndication3RDF10DublinCore5titleEv@Base 4:4.3.4
 _ZNK11Syndication3RDF10DublinCore6formatEv@Base 4:4.3.4
 _ZNK11Syndication3RDF10DublinCore6rightsEv@Base 4:4.3.4
 _ZNK11Syndication3RDF10DublinCore6sourceEv@Base 4:4.3.4
 _ZNK11Syndication3RDF10DublinCore7creatorEv@Base 4:4.3.4
 _ZNK11Syndication3RDF10DublinCore7subjectEv@Base 4:4.3.4
 _ZNK11Syndication3RDF10DublinCore8coverageEv@Base 4:4.3.4
 _ZNK11Syndication3RDF10DublinCore8creatorsEv@Base 4:4.3.4
 _ZNK11Syndication3RDF10DublinCore8languageEv@Base 4:4.3.4
 _ZNK11Syndication3RDF10DublinCore8relationEv@Base 4:4.3.4
 _ZNK11Syndication3RDF10DublinCore8subjectsEv@Base 4:4.3.4
 _ZNK11Syndication3RDF10DublinCore9debugInfoEv@Base 4:4.3.4
 _ZNK11Syndication3RDF10DublinCore9publisherEv@Base 4:4.3.4
 _ZNK11Syndication3RDF10RSS09Vocab10propertiesEv@Base 4:4.3.4
 _ZNK11Syndication3RDF10RSS09Vocab11descriptionEv@Base 4:4.3.4
 _ZNK11Syndication3RDF10RSS09Vocab12namespaceURIEv@Base 4:4.3.4
 _ZNK11Syndication3RDF10RSS09Vocab3urlEv@Base 4:4.3.4
 _ZNK11Syndication3RDF10RSS09Vocab4itemEv@Base 4:4.3.4
 _ZNK11Syndication3RDF10RSS09Vocab4linkEv@Base 4:4.3.4
 _ZNK11Syndication3RDF10RSS09Vocab4nameEv@Base 4:4.3.4
 _ZNK11Syndication3RDF10RSS09Vocab5imageEv@Base 4:4.3.4
 _ZNK11Syndication3RDF10RSS09Vocab5titleEv@Base 4:4.3.4
 _ZNK11Syndication3RDF10RSS09Vocab7channelEv@Base 4:4.3.4
 _ZNK11Syndication3RDF10RSS09Vocab7classesEv@Base 4:4.3.4
 _ZNK11Syndication3RDF10RSS09Vocab9textinputEv@Base 4:4.3.4
 _ZNK11Syndication3RDF12ContentVocab12namespaceURIEv@Base 4:4.3.4
 _ZNK11Syndication3RDF12ContentVocab7encodedEv@Base 4:4.3.4
 _ZNK11Syndication3RDF15DublinCoreVocab10identifierEv@Base 4:4.3.4
 _ZNK11Syndication3RDF15DublinCoreVocab11contributorEv@Base 4:4.3.4
 _ZNK11Syndication3RDF15DublinCoreVocab11descriptionEv@Base 4:4.3.4
 _ZNK11Syndication3RDF15DublinCoreVocab12namespaceURIEv@Base 4:4.3.4
 _ZNK11Syndication3RDF15DublinCoreVocab4dateEv@Base 4:4.3.4
 _ZNK11Syndication3RDF15DublinCoreVocab4typeEv@Base 4:4.3.4
 _ZNK11Syndication3RDF15DublinCoreVocab5titleEv@Base 4:4.3.4
 _ZNK11Syndication3RDF15DublinCoreVocab6formatEv@Base 4:4.3.4
 _ZNK11Syndication3RDF15DublinCoreVocab6rightsEv@Base 4:4.3.4
 _ZNK11Syndication3RDF15DublinCoreVocab6sourceEv@Base 4:4.3.4
 _ZNK11Syndication3RDF15DublinCoreVocab7creatorEv@Base 4:4.3.4
 _ZNK11Syndication3RDF15DublinCoreVocab7subjectEv@Base 4:4.3.4
 _ZNK11Syndication3RDF15DublinCoreVocab8coverageEv@Base 4:4.3.4
 _ZNK11Syndication3RDF15DublinCoreVocab8languageEv@Base 4:4.3.4
 _ZNK11Syndication3RDF15DublinCoreVocab8relationEv@Base 4:4.3.4
 _ZNK11Syndication3RDF15DublinCoreVocab9publisherEv@Base 4:4.3.4
 _ZNK11Syndication3RDF15ResourceWrapper6isNullEv@Base 4:4.3.4
 _ZNK11Syndication3RDF15ResourceWrapper8resourceEv@Base 4:4.3.4
 _ZNK11Syndication3RDF15ResourceWrappereqERKS1_@Base 4:4.3.4
 _ZNK11Syndication3RDF15SyndicationInfo10updateBaseEv@Base 4:4.3.4
 _ZNK11Syndication3RDF15SyndicationInfo12updatePeriodEv@Base 4:4.3.4
 _ZNK11Syndication3RDF15SyndicationInfo15updateFrequencyEv@Base 4:4.3.4
 _ZNK11Syndication3RDF15SyndicationInfo9debugInfoEv@Base 4:4.3.4
 _ZNK11Syndication3RDF16SyndicationVocab10updateBaseEv@Base 4:4.3.4
 _ZNK11Syndication3RDF16SyndicationVocab12namespaceURIEv@Base 4:4.3.4
 _ZNK11Syndication3RDF16SyndicationVocab12updatePeriodEv@Base 4:4.3.4
 _ZNK11Syndication3RDF16SyndicationVocab15updateFrequencyEv@Base 4:4.3.4
 _ZNK11Syndication3RDF4Item11descriptionEv@Base 4:4.3.4
 _ZNK11Syndication3RDF4Item13originalTitleEv@Base 4:4.3.4
 _ZNK11Syndication3RDF4Item14encodedContentEv@Base 4:4.3.4
 _ZNK11Syndication3RDF4Item19originalDescriptionEv@Base 4:4.3.4
 _ZNK11Syndication3RDF4Item2dcEv@Base 4:4.3.4
 _ZNK11Syndication3RDF4Item4linkEv@Base 4:4.3.4
 _ZNK11Syndication3RDF4Item5titleEv@Base 4:4.3.4
 _ZNK11Syndication3RDF4Item9debugInfoEv@Base 4:4.3.4
 _ZNK11Syndication3RDF4ItemeqERKS1_@Base 4:4.3.4
 _ZNK11Syndication3RDF5Image3urlEv@Base 4:4.3.4
 _ZNK11Syndication3RDF5Image4linkEv@Base 4:4.3.4
 _ZNK11Syndication3RDF5Image5titleEv@Base 4:4.3.4
 _ZNK11Syndication3RDF5Image9debugInfoEv@Base 4:4.3.4
 _ZNK11Syndication3RDF5Model10statementsEv@Base 4:4.3.4
 _ZNK11Syndication3RDF5Model11literalByIDEj@Base 4:4.3.4
 _ZNK11Syndication3RDF5Model12ModelPrivate11literalByIDEj@Base 4:4.3.4
 _ZNK11Syndication3RDF5Model12ModelPrivate12propertyByIDEj@Base 4:4.3.4
 _ZNK11Syndication3RDF5Model12ModelPrivate12resourceByIDEj@Base 4:4.3.4
 _ZNK11Syndication3RDF5Model12ModelPrivate16resourcePropertyEPKNS0_8ResourceEN5boost10shared_ptrINS0_8PropertyEEE@Base 4:4.3.4
 _ZNK11Syndication3RDF5Model12ModelPrivate18resourcePropertiesEPKNS0_8ResourceEN5boost10shared_ptrINS0_8PropertyEEE@Base 4:4.3.4
 _ZNK11Syndication3RDF5Model12ModelPrivate19resourceHasPropertyEPKNS0_8ResourceEN5boost10shared_ptrINS0_8PropertyEEE@Base 4:4.3.4
 _ZNK11Syndication3RDF5Model12ModelPrivate8nodeByIDEj@Base 4:4.3.4
 _ZNK11Syndication3RDF5Model12propertyByIDEj@Base 4:4.3.4
 _ZNK11Syndication3RDF5Model12resourceByIDEj@Base 4:4.3.4
 _ZNK11Syndication3RDF5Model16resourcePropertyEPKNS0_8ResourceEN5boost10shared_ptrINS0_8PropertyEEE@Base 4:4.3.4
 _ZNK11Syndication3RDF5Model17resourcesWithTypeEN5boost10shared_ptrINS0_8ResourceEEE@Base 4:4.3.4
 _ZNK11Syndication3RDF5Model18resourcePropertiesEPKNS0_8ResourceEN5boost10shared_ptrINS0_8PropertyEEE@Base 4:4.3.4
 _ZNK11Syndication3RDF5Model19resourceHasPropertyEPKNS0_8ResourceEN5boost10shared_ptrINS0_8PropertyEEE@Base 4:4.3.4
 _ZNK11Syndication3RDF5Model7isEmptyEv@Base 4:4.3.4
 _ZNK11Syndication3RDF5Model8nodeByIDEj@Base 4:4.3.4
 _ZNK11Syndication3RDF5Model9debugInfoEv@Base 4:4.3.4
 _ZNK11Syndication3RDF5ModeleqERKS1_@Base 4:4.3.4
 _ZNK11Syndication3RDF6Parser5parseERKNS_14DocumentSourceE@Base 4:4.3.4
 _ZNK11Syndication3RDF6Parser6acceptERKNS_14DocumentSourceE@Base 4:4.3.4
 _ZNK11Syndication3RDF6Parser6formatEv@Base 4:4.3.4
 _ZNK11Syndication3RDF7Literal10isPropertyEv@Base 4:4.3.4
 _ZNK11Syndication3RDF7Literal10isResourceEv@Base 4:4.3.4
 _ZNK11Syndication3RDF7Literal10isSequenceEv@Base 4:4.3.4
 _ZNK11Syndication3RDF7Literal2idEv@Base 4:4.3.4
 _ZNK11Syndication3RDF7Literal4textEv@Base 4:4.3.4
 _ZNK11Syndication3RDF7Literal5cloneEv@Base 4:4.3.4
 _ZNK11Syndication3RDF7Literal6isAnonEv@Base 4:4.3.4
 _ZNK11Syndication3RDF7Literal6isNullEv@Base 4:4.3.4
 _ZNK11Syndication3RDF7Literal9isLiteralEv@Base 4:4.3.4
 _ZNK11Syndication3RDF7Literalcv7QStringEv@Base 4:4.3.4
 _ZNK11Syndication3RDF7LiteraleqERKNS0_4NodeE@Base 4:4.3.4
 _ZNK11Syndication3RDF8Document11descriptionEv@Base 4:4.3.4
 _ZNK11Syndication3RDF8Document22getItemTitleFormatInfoEPb@Base 4:4.3.4
 _ZNK11Syndication3RDF8Document28getItemDescriptionFormatInfoEPb@Base 4:4.3.4
 _ZNK11Syndication3RDF8Document2dcEv@Base 4:4.3.4
 _ZNK11Syndication3RDF8Document3synEv@Base 4:4.3.4
 _ZNK11Syndication3RDF8Document4linkEv@Base 4:4.3.4
 _ZNK11Syndication3RDF8Document5imageEv@Base 4:4.3.4
 _ZNK11Syndication3RDF8Document5itemsEv@Base 4:4.3.4
 _ZNK11Syndication3RDF8Document5titleEv@Base 4:4.3.4
 _ZNK11Syndication3RDF8Document7isValidEv@Base 4:4.3.4
 _ZNK11Syndication3RDF8Document9debugInfoEv@Base 4:4.3.4
 _ZNK11Syndication3RDF8Document9textInputEv@Base 4:4.3.4
 _ZNK11Syndication3RDF8DocumenteqERKS1_@Base 4:4.3.4
 _ZNK11Syndication3RDF8Property10isPropertyEv@Base 4:4.3.4
 _ZNK11Syndication3RDF8Property5cloneEv@Base 4:4.3.4
 _ZNK11Syndication3RDF8RSSVocab11descriptionEv@Base 4:4.3.4
 _ZNK11Syndication3RDF8RSSVocab12namespaceURIEv@Base 4:4.3.4
 _ZNK11Syndication3RDF8RSSVocab3urlEv@Base 4:4.3.4
 _ZNK11Syndication3RDF8RSSVocab4itemEv@Base 4:4.3.4
 _ZNK11Syndication3RDF8RSSVocab4linkEv@Base 4:4.3.4
 _ZNK11Syndication3RDF8RSSVocab4nameEv@Base 4:4.3.4
 _ZNK11Syndication3RDF8RSSVocab5imageEv@Base 4:4.3.4
 _ZNK11Syndication3RDF8RSSVocab5itemsEv@Base 4:4.3.4
 _ZNK11Syndication3RDF8RSSVocab5titleEv@Base 4:4.3.4
 _ZNK11Syndication3RDF8RSSVocab7channelEv@Base 4:4.3.4
 _ZNK11Syndication3RDF8RSSVocab9textinputEv@Base 4:4.3.4
 _ZNK11Syndication3RDF8Resource10isPropertyEv@Base 4:4.3.4
 _ZNK11Syndication3RDF8Resource10isResourceEv@Base 4:4.3.4
 _ZNK11Syndication3RDF8Resource10isSequenceEv@Base 4:4.3.4
 _ZNK11Syndication3RDF8Resource10propertiesEN5boost10shared_ptrINS0_8PropertyEEE@Base 4:4.3.4
 _ZNK11Syndication3RDF8Resource11hasPropertyEN5boost10shared_ptrINS0_8PropertyEEE@Base 4:4.3.4
 _ZNK11Syndication3RDF8Resource2idEv@Base 4:4.3.4
 _ZNK11Syndication3RDF8Resource3uriEv@Base 4:4.3.4
 _ZNK11Syndication3RDF8Resource4textEv@Base 4:4.3.4
 _ZNK11Syndication3RDF8Resource5cloneEv@Base 4:4.3.4
 _ZNK11Syndication3RDF8Resource5modelEv@Base 4:4.3.4
 _ZNK11Syndication3RDF8Resource6isAnonEv@Base 4:4.3.4
 _ZNK11Syndication3RDF8Resource6isNullEv@Base 4:4.3.4
 _ZNK11Syndication3RDF8Resource8propertyEN5boost10shared_ptrINS0_8PropertyEEE@Base 4:4.3.4
 _ZNK11Syndication3RDF8Resource9isLiteralEv@Base 4:4.3.4
 _ZNK11Syndication3RDF8ResourceeqERKNS0_4NodeE@Base 4:4.3.4
 _ZNK11Syndication3RDF8Sequence10isSequenceEv@Base 4:4.3.4
 _ZNK11Syndication3RDF8Sequence5cloneEv@Base 4:4.3.4
 _ZNK11Syndication3RDF8Sequence5itemsEv@Base 4:4.3.4
 _ZNK11Syndication3RDF9Statement10asResourceEv@Base 4:4.3.4
 _ZNK11Syndication3RDF9Statement6isNullEv@Base 4:4.3.4
 _ZNK11Syndication3RDF9Statement6objectEv@Base 4:4.3.4
 _ZNK11Syndication3RDF9Statement7subjectEv@Base 4:4.3.4
 _ZNK11Syndication3RDF9Statement8asStringEv@Base 4:4.3.4
 _ZNK11Syndication3RDF9Statement9predicateEv@Base 4:4.3.4
 _ZNK11Syndication3RDF9StatementeqERKS1_@Base 4:4.3.4
 _ZNK11Syndication3RDF9TextInput11descriptionEv@Base 4:4.3.4
 _ZNK11Syndication3RDF9TextInput4linkEv@Base 4:4.3.4
 _ZNK11Syndication3RDF9TextInput4nameEv@Base 4:4.3.4
 _ZNK11Syndication3RDF9TextInput5titleEv@Base 4:4.3.4
 _ZNK11Syndication3RDF9TextInput9debugInfoEv@Base 4:4.3.4
 _ZNK11Syndication4Atom12FeedDocument10categoriesEv@Base 4:4.3.4
 _ZNK11Syndication4Atom12FeedDocument12contributorsEv@Base 4:4.3.4
 _ZNK11Syndication4Atom12FeedDocument17unhandledElementsEv@Base 4:4.3.4
 _ZNK11Syndication4Atom12FeedDocument2idEv@Base 4:4.3.4
 _ZNK11Syndication4Atom12FeedDocument4iconEv@Base 4:4.3.4
 _ZNK11Syndication4Atom12FeedDocument4logoEv@Base 4:4.3.4
 _ZNK11Syndication4Atom12FeedDocument5linksEv@Base 4:4.3.4
 _ZNK11Syndication4Atom12FeedDocument5titleEv@Base 4:4.3.4
 _ZNK11Syndication4Atom12FeedDocument6rightsEv@Base 4:4.3.4
 _ZNK11Syndication4Atom12FeedDocument7authorsEv@Base 4:4.3.4
 _ZNK11Syndication4Atom12FeedDocument7entriesEv@Base 4:4.3.4
 _ZNK11Syndication4Atom12FeedDocument7isValidEv@Base 4:4.3.4
 _ZNK11Syndication4Atom12FeedDocument7updatedEv@Base 4:4.3.4
 _ZNK11Syndication4Atom12FeedDocument8subtitleEv@Base 4:4.3.4
 _ZNK11Syndication4Atom12FeedDocument9debugInfoEv@Base 4:4.3.4
 _ZNK11Syndication4Atom12FeedDocument9generatorEv@Base 4:4.3.4
 _ZNK11Syndication4Atom13EntryDocument5entryEv@Base 4:4.3.4
 _ZNK11Syndication4Atom13EntryDocument7isValidEv@Base 4:4.3.4
 _ZNK11Syndication4Atom13EntryDocument9debugInfoEv@Base 4:4.3.4
 _ZNK11Syndication4Atom4Link12hrefLanguageEv@Base 4:4.3.4
 _ZNK11Syndication4Atom4Link3relEv@Base 4:4.3.4
 _ZNK11Syndication4Atom4Link4hrefEv@Base 4:4.3.4
 _ZNK11Syndication4Atom4Link4typeEv@Base 4:4.3.4
 _ZNK11Syndication4Atom4Link5titleEv@Base 4:4.3.4
 _ZNK11Syndication4Atom4Link6lengthEv@Base 4:4.3.4
 _ZNK11Syndication4Atom4Link9debugInfoEv@Base 4:4.3.4
 _ZNK11Syndication4Atom5Entry10categoriesEv@Base 4:4.3.4
 _ZNK11Syndication4Atom5Entry12contributorsEv@Base 4:4.3.4
 _ZNK11Syndication4Atom5Entry17unhandledElementsEv@Base 4:4.3.4
 _ZNK11Syndication4Atom5Entry2idEv@Base 4:4.3.4
 _ZNK11Syndication4Atom5Entry5linksEv@Base 4:4.3.4
 _ZNK11Syndication4Atom5Entry5titleEv@Base 4:4.3.4
 _ZNK11Syndication4Atom5Entry6rightsEv@Base 4:4.3.4
 _ZNK11Syndication4Atom5Entry6sourceEv@Base 4:4.3.4
 _ZNK11Syndication4Atom5Entry7authorsEv@Base 4:4.3.4
 _ZNK11Syndication4Atom5Entry7contentEv@Base 4:4.3.4
 _ZNK11Syndication4Atom5Entry7summaryEv@Base 4:4.3.4
 _ZNK11Syndication4Atom5Entry7updatedEv@Base 4:4.3.4
 _ZNK11Syndication4Atom5Entry9debugInfoEv@Base 4:4.3.4
 _ZNK11Syndication4Atom5Entry9publishedEv@Base 4:4.3.4
 _ZNK11Syndication4Atom6Parser5parseERKNS_14DocumentSourceE@Base 4:4.3.4
 _ZNK11Syndication4Atom6Parser6acceptERKNS_14DocumentSourceE@Base 4:4.3.4
 _ZNK11Syndication4Atom6Parser6formatEv@Base 4:4.3.4
 _ZNK11Syndication4Atom6Person3uriEv@Base 4:4.3.4
 _ZNK11Syndication4Atom6Person4nameEv@Base 4:4.3.4
 _ZNK11Syndication4Atom6Person5emailEv@Base 4:4.3.4
 _ZNK11Syndication4Atom6Person9debugInfoEv@Base 4:4.3.4
 _ZNK11Syndication4Atom6Source10categoriesEv@Base 4:4.3.4
 _ZNK11Syndication4Atom6Source12contributorsEv@Base 4:4.3.4
 _ZNK11Syndication4Atom6Source2idEv@Base 4:4.3.4
 _ZNK11Syndication4Atom6Source4iconEv@Base 4:4.3.4
 _ZNK11Syndication4Atom6Source4logoEv@Base 4:4.3.4
 _ZNK11Syndication4Atom6Source5linksEv@Base 4:4.3.4
 _ZNK11Syndication4Atom6Source5titleEv@Base 4:4.3.4
 _ZNK11Syndication4Atom6Source6rightsEv@Base 4:4.3.4
 _ZNK11Syndication4Atom6Source7authorsEv@Base 4:4.3.4
 _ZNK11Syndication4Atom6Source7updatedEv@Base 4:4.3.4
 _ZNK11Syndication4Atom6Source8subtitleEv@Base 4:4.3.4
 _ZNK11Syndication4Atom6Source9debugInfoEv@Base 4:4.3.4
 _ZNK11Syndication4Atom6Source9generatorEv@Base 4:4.3.4
 _ZNK11Syndication4Atom7Content11asByteArrayEv@Base 4:4.3.4
 _ZNK11Syndication4Atom7Content11isContainedEv@Base 4:4.3.4
 _ZNK11Syndication4Atom7Content11isPlainTextEv@Base 4:4.3.4
 _ZNK11Syndication4Atom7Content13isEscapedHTMLEv@Base 4:4.3.4
 _ZNK11Syndication4Atom7Content3srcEv@Base 4:4.3.4
 _ZNK11Syndication4Atom7Content4typeEv@Base 4:4.3.4
 _ZNK11Syndication4Atom7Content5isXMLEv@Base 4:4.3.4
 _ZNK11Syndication4Atom7Content6formatEv@Base 4:4.3.4
 _ZNK11Syndication4Atom7Content8asStringEv@Base 4:4.3.4
 _ZNK11Syndication4Atom7Content8isBinaryEv@Base 4:4.3.4
 _ZNK11Syndication4Atom7Content9debugInfoEv@Base 4:4.3.4
 _ZNK11Syndication4Atom8Category4termEv@Base 4:4.3.4
 _ZNK11Syndication4Atom8Category5labelEv@Base 4:4.3.4
 _ZNK11Syndication4Atom8Category6schemeEv@Base 4:4.3.4
 _ZNK11Syndication4Atom8Category9debugInfoEv@Base 4:4.3.4
 _ZNK11Syndication4Atom9Generator3uriEv@Base 4:4.3.4
 _ZNK11Syndication4Atom9Generator4nameEv@Base 4:4.3.4
 _ZNK11Syndication4Atom9Generator7versionEv@Base 4:4.3.4
 _ZNK11Syndication4Atom9Generator9debugInfoEv@Base 4:4.3.4
 _ZNK11Syndication4Feed9debugInfoEv@Base 4:4.3.4
 _ZNK11Syndication4Item9debugInfoEv@Base 4:4.3.4
 _ZNK11Syndication4RSS24Item10categoriesEv@Base 4:4.3.4
 _ZNK11Syndication4RSS24Item10enclosuresEv@Base 4:4.3.4
 _ZNK11Syndication4RSS24Item11descriptionEv@Base 4:4.3.4
 _ZNK11Syndication4RSS24Item13originalTitleEv@Base 4:4.3.4
 _ZNK11Syndication4RSS24Item14expirationDateEv@Base 4:4.3.4
 _ZNK11Syndication4RSS24Item15guidIsPermaLinkEv@Base 4:4.3.4
 _ZNK11Syndication4RSS24Item17unhandledElementsEv@Base 4:4.3.4
 _ZNK11Syndication4RSS24Item19originalDescriptionEv@Base 4:4.3.4
 _ZNK11Syndication4RSS24Item4guidEv@Base 4:4.3.4
 _ZNK11Syndication4RSS24Item4linkEv@Base 4:4.3.4
 _ZNK11Syndication4RSS24Item5titleEv@Base 4:4.3.4
 _ZNK11Syndication4RSS24Item6authorEv@Base 4:4.3.4
 _ZNK11Syndication4RSS24Item6ratingEv@Base 4:4.3.4
 _ZNK11Syndication4RSS24Item6sourceEv@Base 4:4.3.4
 _ZNK11Syndication4RSS24Item7contentEv@Base 4:4.3.4
 _ZNK11Syndication4RSS24Item7pubDateEv@Base 4:4.3.4
 _ZNK11Syndication4RSS24Item8commentsEv@Base 4:4.3.4
 _ZNK11Syndication4RSS24Item9debugInfoEv@Base 4:4.3.4
 _ZNK11Syndication4RSS25Cloud17registerProcedureEv@Base 4:4.3.4
 _ZNK11Syndication4RSS25Cloud4pathEv@Base 4:4.3.4
 _ZNK11Syndication4RSS25Cloud4portEv@Base 4:4.3.4
 _ZNK11Syndication4RSS25Cloud6domainEv@Base 4:4.3.4
 _ZNK11Syndication4RSS25Cloud8protocolEv@Base 4:4.3.4
 _ZNK11Syndication4RSS25Cloud9debugInfoEv@Base 4:4.3.4
 _ZNK11Syndication4RSS25Image11descriptionEv@Base 4:4.3.4
 _ZNK11Syndication4RSS25Image3urlEv@Base 4:4.3.4
 _ZNK11Syndication4RSS25Image4linkEv@Base 4:4.3.4
 _ZNK11Syndication4RSS25Image5titleEv@Base 4:4.3.4
 _ZNK11Syndication4RSS25Image5widthEv@Base 4:4.3.4
 _ZNK11Syndication4RSS25Image6heightEv@Base 4:4.3.4
 _ZNK11Syndication4RSS25Image9debugInfoEv@Base 4:4.3.4
 _ZNK11Syndication4RSS26Parser5parseERKNS_14DocumentSourceE@Base 4:4.3.4
 _ZNK11Syndication4RSS26Parser6acceptERKNS_14DocumentSourceE@Base 4:4.3.4
 _ZNK11Syndication4RSS26Parser6formatEv@Base 4:4.3.4
 _ZNK11Syndication4RSS26Source3urlEv@Base 4:4.3.4
 _ZNK11Syndication4RSS26Source6sourceEv@Base 4:4.3.4
 _ZNK11Syndication4RSS26Source9debugInfoEv@Base 4:4.3.4
 _ZNK11Syndication4RSS28Category6domainEv@Base 4:4.3.4
 _ZNK11Syndication4RSS28Category8categoryEv@Base 4:4.3.4
 _ZNK11Syndication4RSS28Category9debugInfoEv@Base 4:4.3.4
 _ZNK11Syndication4RSS28Document10categoriesEv@Base 4:4.3.4
 _ZNK11Syndication4RSS28Document11descriptionEv@Base 4:4.3.4
 _ZNK11Syndication4RSS28Document13lastBuildDateEv@Base 4:4.3.4
 _ZNK11Syndication4RSS28Document14managingEditorEv@Base 4:4.3.4
 _ZNK11Syndication4RSS28Document17unhandledElementsEv@Base 4:4.3.4
 _ZNK11Syndication4RSS28Document22getItemTitleFormatInfoEPbS2_@Base 4:4.3.4
 _ZNK11Syndication4RSS28Document28getItemDescriptionFormatInfoEPbS2_@Base 4:4.3.4
 _ZNK11Syndication4RSS28Document3ttlEv@Base 4:4.3.4
 _ZNK11Syndication4RSS28Document4docsEv@Base 4:4.3.4
 _ZNK11Syndication4RSS28Document4linkEv@Base 4:4.3.4
 _ZNK11Syndication4RSS28Document5cloudEv@Base 4:4.3.4
 _ZNK11Syndication4RSS28Document5imageEv@Base 4:4.3.4
 _ZNK11Syndication4RSS28Document5itemsEv@Base 4:4.3.4
 _ZNK11Syndication4RSS28Document5titleEv@Base 4:4.3.4
 _ZNK11Syndication4RSS28Document7isValidEv@Base 4:4.3.4
 _ZNK11Syndication4RSS28Document7pubDateEv@Base 4:4.3.4
 _ZNK11Syndication4RSS28Document8languageEv@Base 4:4.3.4
 _ZNK11Syndication4RSS28Document8skipDaysEv@Base 4:4.3.4
 _ZNK11Syndication4RSS28Document9copyrightEv@Base 4:4.3.4
 _ZNK11Syndication4RSS28Document9debugInfoEv@Base 4:4.3.4
 _ZNK11Syndication4RSS28Document9generatorEv@Base 4:4.3.4
 _ZNK11Syndication4RSS28Document9skipHoursEv@Base 4:4.3.4
 _ZNK11Syndication4RSS28Document9textInputEv@Base 4:4.3.4
 _ZNK11Syndication4RSS28Document9webMasterEv@Base 4:4.3.4
 _ZNK11Syndication4RSS29Enclosure3urlEv@Base 4:4.3.4
 _ZNK11Syndication4RSS29Enclosure4typeEv@Base 4:4.3.4
 _ZNK11Syndication4RSS29Enclosure6lengthEv@Base 4:4.3.4
 _ZNK11Syndication4RSS29Enclosure9debugInfoEv@Base 4:4.3.4
 _ZNK11Syndication4RSS29TextInput11descriptionEv@Base 4:4.3.4
 _ZNK11Syndication4RSS29TextInput4linkEv@Base 4:4.3.4
 _ZNK11Syndication4RSS29TextInput4nameEv@Base 4:4.3.4
 _ZNK11Syndication4RSS29TextInput5titleEv@Base 4:4.3.4
 _ZNK11Syndication4RSS29TextInput9debugInfoEv@Base 4:4.3.4
 _ZNK11Syndication5Image9debugInfoEv@Base 4:4.3.4
 _ZNK11Syndication6Loader10metaObjectEv@Base 4:4.3.4
 _ZNK11Syndication6Loader14retrieverErrorEv@Base 4:4.3.4
 _ZNK11Syndication6Loader17discoveredFeedURLEv@Base 4:4.3.4
 _ZNK11Syndication6Loader9errorCodeEv@Base 4:4.3.4
 _ZNK11Syndication6Person9debugInfoEv@Base 4:4.3.4
 _ZNK11Syndication6PersoneqERKS0_@Base 4:4.3.4
 _ZNK11Syndication8Category9debugInfoEv@Base 4:4.3.4
 _ZNK11Syndication9Enclosure9debugInfoEv@Base 4:4.3.4
 _ZTIN11Syndication10PersonImplE@Base 4:4.3.4
 _ZTIN11Syndication12SpecificItemE@Base 4:4.3.4
 _ZTIN11Syndication13DataRetrieverE@Base 4:4.3.4
 _ZTIN11Syndication13FileRetrieverE@Base 4:4.3.4
 _ZTIN11Syndication14AbstractParserE@Base 4:4.3.4
 _ZTIN11Syndication14ElementWrapperE@Base 4:4.3.4
 _ZTIN11Syndication15DocumentVisitorE@Base 4:4.3.4
 _ZTIN11Syndication15OutputRetrieverE@Base 4:4.3.4
 _ZTIN11Syndication16ParserCollectionINS_4FeedEEE@Base 4:4.3.4
 _ZTIN11Syndication16SpecificDocumentE@Base 4:4.3.4
 _ZTIN11Syndication19SpecificItemVisitorE@Base 4:4.3.4
 _ZTIN11Syndication20ParserCollectionImplINS_4FeedEEE@Base 4:4.3.4
 _ZTIN11Syndication3RDF10DublinCoreE@Base 4:4.3.4
 _ZTIN11Syndication3RDF11NodeVisitorE@Base 4:4.3.4
 _ZTIN11Syndication3RDF15ResourceWrapperE@Base 4:4.3.4
 _ZTIN11Syndication3RDF15SyndicationInfoE@Base 4:4.3.4
 _ZTIN11Syndication3RDF4ItemE@Base 4:4.3.4
 _ZTIN11Syndication3RDF4NodeE@Base 4:4.3.4
 _ZTIN11Syndication3RDF5ImageE@Base 4:4.3.4
 _ZTIN11Syndication3RDF5Model12ModelPrivate18AddToHashesVisitorE@Base 4:4.3.4
 _ZTIN11Syndication3RDF5ModelE@Base 4:4.3.4
 _ZTIN11Syndication3RDF6ParserE@Base 4:4.3.4
 _ZTIN11Syndication3RDF7LiteralE@Base 4:4.3.4
 _ZTIN11Syndication3RDF8DocumentE@Base 4:4.3.4
 _ZTIN11Syndication3RDF8PropertyE@Base 4:4.3.4
 _ZTIN11Syndication3RDF8ResourceE@Base 4:4.3.4
 _ZTIN11Syndication3RDF8SequenceE@Base 4:4.3.4
 _ZTIN11Syndication3RDF9StatementE@Base 4:4.3.4
 _ZTIN11Syndication3RDF9TextInputE@Base 4:4.3.4
 _ZTIN11Syndication4Atom12FeedDocumentE@Base 4:4.3.4
 _ZTIN11Syndication4Atom13EntryDocumentE@Base 4:4.3.4
 _ZTIN11Syndication4Atom4LinkE@Base 4:4.3.4
 _ZTIN11Syndication4Atom5EntryE@Base 4:4.3.4
 _ZTIN11Syndication4Atom6ParserE@Base 4:4.3.4
 _ZTIN11Syndication4Atom6PersonE@Base 4:4.3.4
 _ZTIN11Syndication4Atom6SourceE@Base 4:4.3.4
 _ZTIN11Syndication4Atom7ContentE@Base 4:4.3.4
 _ZTIN11Syndication4Atom8CategoryE@Base 4:4.3.4
 _ZTIN11Syndication4Atom9GeneratorE@Base 4:4.3.4
 _ZTIN11Syndication4FeedE@Base 4:4.3.4
 _ZTIN11Syndication4ItemE@Base 4:4.3.4
 _ZTIN11Syndication4RSS24ItemE@Base 4:4.3.4
 _ZTIN11Syndication4RSS25CloudE@Base 4:4.3.4
 _ZTIN11Syndication4RSS25ImageE@Base 4:4.3.4
 _ZTIN11Syndication4RSS26ParserE@Base 4:4.3.4
 _ZTIN11Syndication4RSS26SourceE@Base 4:4.3.4
 _ZTIN11Syndication4RSS28CategoryE@Base 4:4.3.4
 _ZTIN11Syndication4RSS28DocumentE@Base 4:4.3.4
 _ZTIN11Syndication4RSS29EnclosureE@Base 4:4.3.4
 _ZTIN11Syndication4RSS29TextInputE@Base 4:4.3.4
 _ZTIN11Syndication5ImageE@Base 4:4.3.4
 _ZTIN11Syndication6LoaderE@Base 4:4.3.4
 _ZTIN11Syndication6MapperINS_4FeedEEE@Base 4:4.3.4
 _ZTIN11Syndication6PersonE@Base 4:4.3.4
 _ZTIN11Syndication8CategoryE@Base 4:4.3.4
 _ZTIN11Syndication9EnclosureE@Base 4:4.3.4
 _ZTIN5boost16exception_detail10clone_baseE@Base 4:4.10.1
 _ZTIN5boost9exceptionE@Base 4:4.7.4
 _ZTSN11Syndication10PersonImplE@Base 4:4.3.4
 _ZTSN11Syndication12SpecificItemE@Base 4:4.3.4
 _ZTSN11Syndication13DataRetrieverE@Base 4:4.3.4
 _ZTSN11Syndication13FileRetrieverE@Base 4:4.3.4
 _ZTSN11Syndication14AbstractParserE@Base 4:4.3.4
 _ZTSN11Syndication14ElementWrapperE@Base 4:4.3.4
 _ZTSN11Syndication15DocumentVisitorE@Base 4:4.3.4
 _ZTSN11Syndication15OutputRetrieverE@Base 4:4.3.4
 _ZTSN11Syndication16ParserCollectionINS_4FeedEEE@Base 4:4.3.4
 _ZTSN11Syndication16SpecificDocumentE@Base 4:4.3.4
 _ZTSN11Syndication19SpecificItemVisitorE@Base 4:4.3.4
 _ZTSN11Syndication20ParserCollectionImplINS_4FeedEEE@Base 4:4.3.4
 _ZTSN11Syndication3RDF10DublinCoreE@Base 4:4.3.4
 _ZTSN11Syndication3RDF11NodeVisitorE@Base 4:4.3.4
 _ZTSN11Syndication3RDF15ResourceWrapperE@Base 4:4.3.4
 _ZTSN11Syndication3RDF15SyndicationInfoE@Base 4:4.3.4
 _ZTSN11Syndication3RDF4ItemE@Base 4:4.3.4
 _ZTSN11Syndication3RDF4NodeE@Base 4:4.3.4
 _ZTSN11Syndication3RDF5ImageE@Base 4:4.3.4
 _ZTSN11Syndication3RDF5Model12ModelPrivate18AddToHashesVisitorE@Base 4:4.3.4
 _ZTSN11Syndication3RDF5ModelE@Base 4:4.3.4
 _ZTSN11Syndication3RDF6ParserE@Base 4:4.3.4
 _ZTSN11Syndication3RDF7LiteralE@Base 4:4.3.4
 _ZTSN11Syndication3RDF8DocumentE@Base 4:4.3.4
 _ZTSN11Syndication3RDF8PropertyE@Base 4:4.3.4
 _ZTSN11Syndication3RDF8ResourceE@Base 4:4.3.4
 _ZTSN11Syndication3RDF8SequenceE@Base 4:4.3.4
 _ZTSN11Syndication3RDF9StatementE@Base 4:4.3.4
 _ZTSN11Syndication3RDF9TextInputE@Base 4:4.3.4
 _ZTSN11Syndication4Atom12FeedDocumentE@Base 4:4.3.4
 _ZTSN11Syndication4Atom13EntryDocumentE@Base 4:4.3.4
 _ZTSN11Syndication4Atom4LinkE@Base 4:4.3.4
 _ZTSN11Syndication4Atom5EntryE@Base 4:4.3.4
 _ZTSN11Syndication4Atom6ParserE@Base 4:4.3.4
 _ZTSN11Syndication4Atom6PersonE@Base 4:4.3.4
 _ZTSN11Syndication4Atom6SourceE@Base 4:4.3.4
 _ZTSN11Syndication4Atom7ContentE@Base 4:4.3.4
 _ZTSN11Syndication4Atom8CategoryE@Base 4:4.3.4
 _ZTSN11Syndication4Atom9GeneratorE@Base 4:4.3.4
 _ZTSN11Syndication4FeedE@Base 4:4.3.4
 _ZTSN11Syndication4ItemE@Base 4:4.3.4
 _ZTSN11Syndication4RSS24ItemE@Base 4:4.3.4
 _ZTSN11Syndication4RSS25CloudE@Base 4:4.3.4
 _ZTSN11Syndication4RSS25ImageE@Base 4:4.3.4
 _ZTSN11Syndication4RSS26ParserE@Base 4:4.3.4
 _ZTSN11Syndication4RSS26SourceE@Base 4:4.3.4
 _ZTSN11Syndication4RSS28CategoryE@Base 4:4.3.4
 _ZTSN11Syndication4RSS28DocumentE@Base 4:4.3.4
 _ZTSN11Syndication4RSS29EnclosureE@Base 4:4.3.4
 _ZTSN11Syndication4RSS29TextInputE@Base 4:4.3.4
 _ZTSN11Syndication5ImageE@Base 4:4.3.4
 _ZTSN11Syndication6LoaderE@Base 4:4.3.4
 _ZTSN11Syndication6MapperINS_4FeedEEE@Base 4:4.3.4
 _ZTSN11Syndication6PersonE@Base 4:4.3.4
 _ZTSN11Syndication8CategoryE@Base 4:4.3.4
 _ZTSN11Syndication9EnclosureE@Base 4:4.3.4
 _ZTSN5boost16exception_detail10clone_baseE@Base 4:4.10.1
 _ZTSN5boost9exceptionE@Base 4:4.7.4
 _ZTVN11Syndication10PersonImplE@Base 4:4.3.4
 _ZTVN11Syndication12SpecificItemE@Base 4:4.3.4
 _ZTVN11Syndication13DataRetrieverE@Base 4:4.3.4
 _ZTVN11Syndication13FileRetrieverE@Base 4:4.3.4
 _ZTVN11Syndication14AbstractParserE@Base 4:4.3.4
 _ZTVN11Syndication14ElementWrapperE@Base 4:4.3.4
 _ZTVN11Syndication15DocumentVisitorE@Base 4:4.3.4
 _ZTVN11Syndication15OutputRetrieverE@Base 4:4.3.4
 _ZTVN11Syndication16ParserCollectionINS_4FeedEEE@Base 4:4.3.4
 _ZTVN11Syndication16SpecificDocumentE@Base 4:4.3.4
 _ZTVN11Syndication19SpecificItemVisitorE@Base 4:4.3.4
 _ZTVN11Syndication20ParserCollectionImplINS_4FeedEEE@Base 4:4.3.4
 _ZTVN11Syndication3RDF10DublinCoreE@Base 4:4.3.4
 _ZTVN11Syndication3RDF11NodeVisitorE@Base 4:4.3.4
 _ZTVN11Syndication3RDF15ResourceWrapperE@Base 4:4.3.4
 _ZTVN11Syndication3RDF15SyndicationInfoE@Base 4:4.3.4
 _ZTVN11Syndication3RDF4ItemE@Base 4:4.3.4
 _ZTVN11Syndication3RDF4NodeE@Base 4:4.3.4
 _ZTVN11Syndication3RDF5ImageE@Base 4:4.3.4
 _ZTVN11Syndication3RDF5Model12ModelPrivate18AddToHashesVisitorE@Base 4:4.3.4
 _ZTVN11Syndication3RDF5ModelE@Base 4:4.3.4
 _ZTVN11Syndication3RDF6ParserE@Base 4:4.3.4
 _ZTVN11Syndication3RDF7LiteralE@Base 4:4.3.4
 _ZTVN11Syndication3RDF8DocumentE@Base 4:4.3.4
 _ZTVN11Syndication3RDF8PropertyE@Base 4:4.3.4
 _ZTVN11Syndication3RDF8ResourceE@Base 4:4.3.4
 _ZTVN11Syndication3RDF8SequenceE@Base 4:4.3.4
 _ZTVN11Syndication3RDF9StatementE@Base 4:4.3.4
 _ZTVN11Syndication3RDF9TextInputE@Base 4:4.3.4
 _ZTVN11Syndication4Atom12FeedDocumentE@Base 4:4.3.4
 _ZTVN11Syndication4Atom13EntryDocumentE@Base 4:4.3.4
 _ZTVN11Syndication4Atom4LinkE@Base 4:4.3.4
 _ZTVN11Syndication4Atom5EntryE@Base 4:4.3.4
 _ZTVN11Syndication4Atom6ParserE@Base 4:4.3.4
 _ZTVN11Syndication4Atom6PersonE@Base 4:4.3.4
 _ZTVN11Syndication4Atom6SourceE@Base 4:4.3.4
 _ZTVN11Syndication4Atom7ContentE@Base 4:4.3.4
 _ZTVN11Syndication4Atom8CategoryE@Base 4:4.3.4
 _ZTVN11Syndication4Atom9GeneratorE@Base 4:4.3.4
 _ZTVN11Syndication4FeedE@Base 4:4.3.4
 _ZTVN11Syndication4ItemE@Base 4:4.3.4
 _ZTVN11Syndication4RSS24ItemE@Base 4:4.3.4
 _ZTVN11Syndication4RSS25CloudE@Base 4:4.3.4
 _ZTVN11Syndication4RSS25ImageE@Base 4:4.3.4
 _ZTVN11Syndication4RSS26ParserE@Base 4:4.3.4
 _ZTVN11Syndication4RSS26SourceE@Base 4:4.3.4
 _ZTVN11Syndication4RSS28CategoryE@Base 4:4.3.4
 _ZTVN11Syndication4RSS28DocumentE@Base 4:4.3.4
 _ZTVN11Syndication4RSS29EnclosureE@Base 4:4.3.4
 _ZTVN11Syndication4RSS29TextInputE@Base 4:4.3.4
 _ZTVN11Syndication5ImageE@Base 4:4.3.4
 _ZTVN11Syndication6LoaderE@Base 4:4.3.4
 _ZTVN11Syndication6MapperINS_4FeedEEE@Base 4:4.3.4
 _ZTVN11Syndication6PersonE@Base 4:4.3.4
 _ZTVN11Syndication8CategoryE@Base 4:4.3.4
 _ZTVN11Syndication9EnclosureE@Base 4:4.3.4
 _ZTVN5boost16exception_detail10clone_baseE@Base 4:4.10.1
 _ZTVN5boost9exceptionE@Base 4:4.7.4
 _ZThn24_N11Syndication3RDF4Item6acceptEPNS_19SpecificItemVisitorE@Base 4:4.3.4
 _ZThn24_N11Syndication3RDF4ItemD0Ev@Base 4:4.3.4
 _ZThn24_N11Syndication3RDF4ItemD1Ev@Base 4:4.3.4
 _ZThn24_N11Syndication4Atom5Entry6acceptEPNS_19SpecificItemVisitorE@Base 4:4.3.4
 _ZThn24_N11Syndication4Atom5EntryD0Ev@Base 4:4.6.5
 _ZThn24_N11Syndication4Atom5EntryD1Ev@Base 4:4.6.5
 _ZThn24_N11Syndication4RSS24Item6acceptEPNS_19SpecificItemVisitorE@Base 4:4.3.4
 _ZThn24_N11Syndication4RSS24ItemD0Ev@Base 4:4.3.4
 _ZThn24_N11Syndication4RSS24ItemD1Ev@Base 4:4.3.4
 _ZThn8_N11Syndication3RDF8DocumentD0Ev@Base 4:4.3.4
 _ZThn8_N11Syndication3RDF8DocumentD1Ev@Base 4:4.3.4
 _ZThn8_N11Syndication4Atom12FeedDocumentD0Ev@Base 4:4.6.5
 _ZThn8_N11Syndication4Atom12FeedDocumentD1Ev@Base 4:4.6.5
 _ZThn8_N11Syndication4Atom13EntryDocumentD0Ev@Base 4:4.6.5
 _ZThn8_N11Syndication4Atom13EntryDocumentD1Ev@Base 4:4.6.5
 _ZThn8_N11Syndication4RSS28DocumentD0Ev@Base 4:4.3.4
 _ZThn8_N11Syndication4RSS28DocumentD1Ev@Base 4:4.3.4
