# SymbolsHelper-Confirmed: 0.9.1 amd64 armhf i386 ia64 mips mipsel powerpc s390 s390x sparc
libtelepathy-qt4.so.2 libtelepathy-qt4-2 #MINVER#
* Build-Depends-Package: libtelepathy-qt4-dev
 _ZN2Tp10AccountSet11qt_metacallEN11QMetaObject4CallEiPPv@Base 0.9.1
 _ZN2Tp10AccountSet11qt_metacastEPKc@Base 0.9.1
 _ZN2Tp10AccountSet12accountAddedERKNS_9SharedPtrINS_7AccountEEE@Base 0.9.1
 _ZN2Tp10AccountSet14accountRemovedERKNS_9SharedPtrINS_7AccountEEE@Base 0.9.1
 _ZN2Tp10AccountSet16staticMetaObjectE@Base 0.9.1
 _ZN2Tp10AccountSetC1ERKNS_9SharedPtrINS_14AccountManagerEEERK4QMapI7QString8QVariantE@Base 0.9.1
 _ZN2Tp10AccountSetC1ERKNS_9SharedPtrINS_14AccountManagerEEERKNS1_IKNS_6FilterINS_7AccountEEEEE@Base 0.9.1
 _ZN2Tp10AccountSetC2ERKNS_9SharedPtrINS_14AccountManagerEEERK4QMapI7QString8QVariantE@Base 0.9.1
 _ZN2Tp10AccountSetC2ERKNS_9SharedPtrINS_14AccountManagerEEERKNS1_IKNS_6FilterINS_7AccountEEEEE@Base 0.9.1
 _ZN2Tp10AccountSetD0Ev@Base 0.9.1
 _ZN2Tp10AccountSetD1Ev@Base 0.9.1
 _ZN2Tp10AccountSetD2Ev@Base 0.9.1
 (optional=inline|arch=amd64 i386)_ZN2Tp10AvatarDataC1ERKS0_@Base 0.9.1
 (optional=inline|arch=amd64 i386)_ZN2Tp10AvatarDataC2ERKS0_@Base 0.9.1
 (optional=inline)_ZN2Tp10AvatarDataD1Ev@Base 0.9.1
 (optional=inline)_ZN2Tp10AvatarDataD2Ev@Base 0.9.1
 (optional=inline|arch=amd64 i386)_ZN2Tp10AvatarDataaSERKS0_@Base 0.9.1
 _ZN2Tp10AvatarSpecC1ERK11QStringListjjjjjjj@Base 0.9.1
 _ZN2Tp10AvatarSpecC1ERKS0_@Base 0.9.1
 _ZN2Tp10AvatarSpecC1Ev@Base 0.9.1
 _ZN2Tp10AvatarSpecC2ERK11QStringListjjjjjjj@Base 0.9.1
 _ZN2Tp10AvatarSpecC2ERKS0_@Base 0.9.1
 _ZN2Tp10AvatarSpecC2Ev@Base 0.9.1
 _ZN2Tp10AvatarSpecD1Ev@Base 0.9.1
 _ZN2Tp10AvatarSpecD2Ev@Base 0.9.1
 _ZN2Tp10AvatarSpecaSERKS0_@Base 0.9.1
 _ZN2Tp10CallStream11qt_metacallEN11QMetaObject4CallEiPPv@Base 0.9.1
 _ZN2Tp10CallStream11qt_metacastEPKc@Base 0.9.1
 _ZN2Tp10CallStream14requestSendingEb@Base 0.9.1
 _ZN2Tp10CallStream16requestReceivingERKNS_9SharedPtrINS_7ContactEEEb@Base 0.9.1
 _ZN2Tp10CallStream16staticMetaObjectE@Base 0.9.1
 _ZN2Tp10CallStream20remoteMembersRemovedERK4QSetINS_9SharedPtrINS_7ContactEEEERKNS_15CallStateReasonE@Base 0.9.1
 _ZN2Tp10CallStream24localSendingStateChangedENS_12SendingStateERKNS_15CallStateReasonE@Base 0.9.1
 _ZN2Tp10CallStream25remoteSendingStateChangedERK5QHashINS_9SharedPtrINS_7ContactEEENS_12SendingStateEERKNS_15CallStateReasonE@Base 0.9.1
 _ZN2Tp10CallStreamD0Ev@Base 0.9.1
 _ZN2Tp10CallStreamD1Ev@Base 0.9.1
 _ZN2Tp10CallStreamD2Ev@Base 0.9.1
 _ZN2Tp10Connection11FeatureCoreE@Base 0.9.1
 _ZN2Tp10Connection11qt_metacallEN11QMetaObject4CallEiPPv@Base 0.9.1
 _ZN2Tp10Connection11qt_metacastEPKc@Base 0.9.1
 _ZN2Tp10Connection12ErrorDetailsC1ERK4QMapI7QString8QVariantE@Base 0.9.1
 _ZN2Tp10Connection12ErrorDetailsC1ERKS1_@Base 0.9.1
 _ZN2Tp10Connection12ErrorDetailsC1Ev@Base 0.9.1
 _ZN2Tp10Connection12ErrorDetailsC2ERK4QMapI7QString8QVariantE@Base 0.9.1
 _ZN2Tp10Connection12ErrorDetailsC2ERKS1_@Base 0.9.1
 _ZN2Tp10Connection12ErrorDetailsC2Ev@Base 0.9.1
 _ZN2Tp10Connection12ErrorDetailsD1Ev@Base 0.9.1
 _ZN2Tp10Connection12ErrorDetailsD2Ev@Base 0.9.1
 _ZN2Tp10Connection12ErrorDetailsaSERKS1_@Base 0.9.1
 _ZN2Tp10Connection13FeatureRosterE@Base 0.9.1
 _ZN2Tp10Connection13statusChangedENS_16ConnectionStatusE@Base 0.9.1
 _ZN2Tp10Connection16FeatureConnectedE@Base 0.9.1
 _ZN2Tp10Connection16staticMetaObjectE@Base 0.9.1
 _ZN2Tp10Connection17selfHandleChangedEj@Base 0.9.1
 _ZN2Tp10Connection18FeatureSelfContactE@Base 0.9.1
 _ZN2Tp10Connection18selfContactChangedEv@Base 0.9.1
 _ZN2Tp10Connection19FeatureRosterGroupsE@Base 0.9.1
 _ZN2Tp10Connection21FeatureAccountBalanceE@Base 0.9.1
 _ZN2Tp10Connection21FeatureSimplePresenceE@Base 0.9.1
 _ZN2Tp10Connection21accountBalanceChangedERKNS_14CurrencyAmountE@Base 0.9.1
 _ZN2Tp10Connection6createERK15QDBusConnectionRK7QStringS6_RKNS_9SharedPtrIKNS_14ChannelFactoryEEERKNS7_IKNS_14ContactFactoryEEE@Base 0.9.1
 _ZN2Tp10Connection6createERK7QStringS3_RKNS_9SharedPtrIKNS_14ChannelFactoryEEERKNS4_IKNS_14ContactFactoryEEE@Base 0.9.1
 _ZN2Tp10Connection8lowlevelEv@Base 0.9.1
 _ZN2Tp10ConnectionC1ERK15QDBusConnectionRK7QStringS6_RKNS_9SharedPtrIKNS_14ChannelFactoryEEERKNS7_IKNS_14ContactFactoryEEERKNS_7FeatureE@Base 0.9.1
 _ZN2Tp10ConnectionC2ERK15QDBusConnectionRK7QStringS6_RKNS_9SharedPtrIKNS_14ChannelFactoryEEERKNS7_IKNS_14ContactFactoryEEERKNS_7FeatureE@Base 0.9.1
 _ZN2Tp10ConnectionD0Ev@Base 0.9.1
 _ZN2Tp10ConnectionD1Ev@Base 0.9.1
 _ZN2Tp10ConnectionD2Ev@Base 0.9.1
 _ZN2Tp11CallChannel10setRingingEv@Base 0.9.1
 _ZN2Tp11CallChannel11FeatureCoreE@Base 0.9.1
 _ZN2Tp11CallChannel11qt_metacallEN11QMetaObject4CallEiPPv@Base 0.9.1
 _ZN2Tp11CallChannel11qt_metacastEPKc@Base 0.9.1
 _ZN2Tp11CallChannel11requestHoldEb@Base 0.9.1
 _ZN2Tp11CallChannel12contentAddedERKNS_9SharedPtrINS_11CallContentEEE@Base 0.9.1
 _ZN2Tp11CallChannel14contentRemovedERKNS_9SharedPtrINS_11CallContentEEERKNS_15CallStateReasonE@Base 0.9.1
 _ZN2Tp11CallChannel14requestContentERK7QStringNS_15MediaStreamTypeENS_20MediaStreamDirectionE@Base 0.9.1
 _ZN2Tp11CallChannel15FeatureContentsE@Base 0.9.1
 _ZN2Tp11CallChannel16FeatureCallStateE@Base 0.9.1
 _ZN2Tp11CallChannel16callFlagsChangedE6QFlagsINS_8CallFlagEE@Base 0.9.1
 _ZN2Tp11CallChannel16callStateChangedENS_9CallStateE@Base 0.9.1
 _ZN2Tp11CallChannel16staticMetaObjectE@Base 0.9.1
 _ZN2Tp11CallChannel18FeatureCallMembersE@Base 0.9.1
 _ZN2Tp11CallChannel20remoteMembersRemovedERK4QSetINS_9SharedPtrINS_7ContactEEEERKNS_15CallStateReasonE@Base 0.9.1
 _ZN2Tp11CallChannel21FeatureLocalHoldStateE@Base 0.9.1
 _ZN2Tp11CallChannel21localHoldStateChangedENS_14LocalHoldStateENS_20LocalHoldStateReasonE@Base 0.9.1
 _ZN2Tp11CallChannel24remoteMemberFlagsChangedERK5QHashINS_9SharedPtrINS_7ContactEEE6QFlagsINS_14CallMemberFlagEEERKNS_15CallStateReasonE@Base 0.9.1
 _ZN2Tp11CallChannel6acceptEv@Base 0.9.1
 _ZN2Tp11CallChannel6createERKNS_9SharedPtrINS_10ConnectionEEERK7QStringRK4QMapIS6_8QVariantE@Base 0.9.1
 _ZN2Tp11CallChannel6hangupENS_21CallStateChangeReasonERK7QStringS4_@Base 0.9.1
 _ZN2Tp11CallChannel9setQueuedEv@Base 0.9.1
 _ZN2Tp11CallChannelC1ERKNS_9SharedPtrINS_10ConnectionEEERK7QStringRK4QMapIS6_8QVariantERKNS_7FeatureE@Base 0.9.1
 _ZN2Tp11CallChannelC2ERKNS_9SharedPtrINS_10ConnectionEEERK7QStringRK4QMapIS6_8QVariantERKNS_7FeatureE@Base 0.9.1
 _ZN2Tp11CallChannelD0Ev@Base 0.9.1
 _ZN2Tp11CallChannelD1Ev@Base 0.9.1
 _ZN2Tp11CallChannelD2Ev@Base 0.9.1
 _ZN2Tp11CallContent11qt_metacallEN11QMetaObject4CallEiPPv@Base 0.9.1
 _ZN2Tp11CallContent11qt_metacastEPKc@Base 0.9.1
 _ZN2Tp11CallContent11streamAddedERKNS_9SharedPtrINS_10CallStreamEEE@Base 0.9.1
 _ZN2Tp11CallContent12stopDTMFToneEv@Base 0.9.1
 _ZN2Tp11CallContent13startDTMFToneENS_9DTMFEventE@Base 0.9.1
 _ZN2Tp11CallContent13streamRemovedERKNS_9SharedPtrINS_10CallStreamEEERKNS_15CallStateReasonE@Base 0.9.1
 _ZN2Tp11CallContent16staticMetaObjectE@Base 0.9.1
 _ZN2Tp11CallContent6removeEv@Base 0.9.1
 _ZN2Tp11CallContentD0Ev@Base 0.9.1
 _ZN2Tp11CallContentD1Ev@Base 0.9.1
 _ZN2Tp11CallContentD2Ev@Base 0.9.1
 (optional=inline|arch=amd64 i386)_ZN2Tp11CaptchaInfoC1ERKS0_@Base 0.9.1
 (optional=inline|arch=amd64 i386)_ZN2Tp11CaptchaInfoC2ERKS0_@Base 0.9.1
 (optional=inline)_ZN2Tp11CaptchaInfoD1Ev@Base 0.9.1
 (optional=inline)_ZN2Tp11CaptchaInfoD2Ev@Base 0.9.1
 (optional=inline|arch=amd64 i386)_ZN2Tp11ChannelInfoC1ERKS0_@Base 0.9.1
 (optional=inline|arch=amd64 i386)_ZN2Tp11ChannelInfoC2ERKS0_@Base 0.9.1
 (optional=inline)_ZN2Tp11ChannelInfoD1Ev@Base 0.9.1
 (optional=inline)_ZN2Tp11ChannelInfoD2Ev@Base 0.9.1
 (optional=inline|arch=amd64 i386)_ZN2Tp11MailAddressC1ERKS0_@Base 0.9.1
 (optional=inline|arch=amd64 i386)_ZN2Tp11MailAddressC2ERKS0_@Base 0.9.1
 (optional=inline)_ZN2Tp11MailAddressD1Ev@Base 0.9.1
 (optional=inline)_ZN2Tp11MailAddressD2Ev@Base 0.9.1
 (optional=inline|arch=!ia64)_ZN2Tp11MessagePartD1Ev@Base 0.9.1
 (optional=inline|arch=!ia64)_ZN2Tp11MessagePartD2Ev@Base 0.9.1
 _ZN2Tp11PendingVoid11qt_metacallEN11QMetaObject4CallEiPPv@Base 0.9.1
 _ZN2Tp11PendingVoid11qt_metacastEPKc@Base 0.9.1
 _ZN2Tp11PendingVoid16staticMetaObjectE@Base 0.9.1
 _ZN2Tp11PendingVoidC1E16QDBusPendingCallRKNS_9SharedPtrINS_10RefCountedEEE@Base 0.9.1
 _ZN2Tp11PendingVoidC2E16QDBusPendingCallRKNS_9SharedPtrINS_10RefCountedEEE@Base 0.9.1
 _ZN2Tp11PendingVoidD0Ev@Base 0.9.1
 _ZN2Tp11PendingVoidD1Ev@Base 0.9.1
 _ZN2Tp11PendingVoidD2Ev@Base 0.9.1
 _ZN2Tp11ReadyObject11becomeReadyERKNS_8FeaturesE@Base 0.9.1
 _ZN2Tp11ReadyObjectC1EPNS_10RefCountedERKNS_7FeatureE@Base 0.9.1
 _ZN2Tp11ReadyObjectC1EPNS_9DBusProxyERKNS_7FeatureE@Base 0.9.1
 _ZN2Tp11ReadyObjectC2EPNS_10RefCountedERKNS_7FeatureE@Base 0.9.1
 _ZN2Tp11ReadyObjectC2EPNS_9DBusProxyERKNS_7FeatureE@Base 0.9.1
 _ZN2Tp11ReadyObjectD0Ev@Base 0.9.1
 _ZN2Tp11ReadyObjectD1Ev@Base 0.9.1
 _ZN2Tp11ReadyObjectD2Ev@Base 0.9.1
 _ZN2Tp11TextChannel11FeatureCoreE@Base 0.9.1
 _ZN2Tp11TextChannel11acknowledgeERK5QListINS_15ReceivedMessageEE@Base 0.9.1
 _ZN2Tp11TextChannel11messageSentERKNS_7MessageE6QFlagsINS_18MessageSendingFlagEERK7QString@Base 0.9.1
 _ZN2Tp11TextChannel11qt_metacallEN11QMetaObject4CallEiPPv@Base 0.9.1
 _ZN2Tp11TextChannel11qt_metacastEPKc@Base 0.9.1
 _ZN2Tp11TextChannel15messageReceivedERKNS_15ReceivedMessageE@Base 0.9.1
 _ZN2Tp11TextChannel16FeatureChatStateE@Base 0.9.1
 _ZN2Tp11TextChannel16chatStateChangedERKNS_9SharedPtrINS_7ContactEEENS_16ChannelChatStateE@Base 0.9.1
 _ZN2Tp11TextChannel16requestChatStateENS_16ChannelChatStateE@Base 0.9.1
 _ZN2Tp11TextChannel16staticMetaObjectE@Base 0.9.1
 _ZN2Tp11TextChannel19FeatureMessageQueueE@Base 0.9.1
 _ZN2Tp11TextChannel21pendingMessageRemovedERKNS_15ReceivedMessageE@Base 0.9.1
 _ZN2Tp11TextChannel24FeatureMessageSentSignalE@Base 0.9.1
 _ZN2Tp11TextChannel26FeatureMessageCapabilitiesE@Base 0.9.1
 _ZN2Tp11TextChannel4sendERK5QListINS_11MessagePartEE6QFlagsINS_18MessageSendingFlagEE@Base 0.9.1
 _ZN2Tp11TextChannel4sendERK7QStringNS_22ChannelTextMessageTypeE6QFlagsINS_18MessageSendingFlagEE@Base 0.9.1
 _ZN2Tp11TextChannel6createERKNS_9SharedPtrINS_10ConnectionEEERK7QStringRK4QMapIS6_8QVariantE@Base 0.9.1
 _ZN2Tp11TextChannel6forgetERK5QListINS_15ReceivedMessageEE@Base 0.9.1
 _ZN2Tp11TextChannelC1ERKNS_9SharedPtrINS_10ConnectionEEERK7QStringRK4QMapIS6_8QVariantERKNS_7FeatureE@Base 0.9.1
 _ZN2Tp11TextChannelC2ERKNS_9SharedPtrINS_10ConnectionEEERK7QStringRK4QMapIS6_8QVariantERKNS_7FeatureE@Base 0.9.1
 _ZN2Tp11TextChannelD0Ev@Base 0.9.1
 _ZN2Tp11TextChannelD1Ev@Base 0.9.1
 _ZN2Tp11TextChannelD2Ev@Base 0.9.1
 _ZN2Tp11TubeChannel11FeatureCoreE@Base 0.9.1
 _ZN2Tp11TubeChannel11qt_metacallEN11QMetaObject4CallEiPPv@Base 0.9.1
 _ZN2Tp11TubeChannel11qt_metacastEPKc@Base 0.9.1
 _ZN2Tp11TubeChannel12stateChangedENS_16TubeChannelStateE@Base 0.9.1
 _ZN2Tp11TubeChannel13setParametersERK4QMapI7QString8QVariantE@Base 0.9.1
 _ZN2Tp11TubeChannel16staticMetaObjectE@Base 0.9.1
 _ZN2Tp11TubeChannel6createERKNS_9SharedPtrINS_10ConnectionEEERK7QStringRK4QMapIS6_8QVariantE@Base 0.9.1
 _ZN2Tp11TubeChannelC1ERKNS_9SharedPtrINS_10ConnectionEEERK7QStringRK4QMapIS6_8QVariantERKNS_7FeatureE@Base 0.9.1
 _ZN2Tp11TubeChannelC2ERKNS_9SharedPtrINS_10ConnectionEEERK7QStringRK4QMapIS6_8QVariantERKNS_7FeatureE@Base 0.9.1
 _ZN2Tp11TubeChannelD0Ev@Base 0.9.1
 _ZN2Tp11TubeChannelD1Ev@Base 0.9.1
 _ZN2Tp11TubeChannelD2Ev@Base 0.9.1
 _ZN2Tp11enableDebugEb@Base 0.9.1
 (optional=inline)_ZN2Tp12ChannelClassD1Ev@Base 0.9.1
 (optional=inline)_ZN2Tp12ChannelClassD2Ev@Base 0.9.1
 (optional=inline|arch=amd64 i386)_ZN2Tp12HTTPPostDataC1ERKS0_@Base 0.9.1
 (optional=inline|arch=amd64 i386)_ZN2Tp12HTTPPostDataC2ERKS0_@Base 0.9.1
 (optional=inline)_ZN2Tp12HTTPPostDataD1Ev@Base 0.9.1
 (optional=inline)_ZN2Tp12HTTPPostDataD2Ev@Base 0.9.1
 _ZN2Tp12LocationInfoC1ERK4QMapI7QString8QVariantE@Base 0.9.1
 _ZN2Tp12LocationInfoC1ERKS0_@Base 0.9.1
 _ZN2Tp12LocationInfoC1Ev@Base 0.9.1
 _ZN2Tp12LocationInfoC2ERK4QMapI7QString8QVariantE@Base 0.9.1
 _ZN2Tp12LocationInfoC2ERKS0_@Base 0.9.1
 _ZN2Tp12LocationInfoC2Ev@Base 0.9.1
 _ZN2Tp12LocationInfoD0Ev@Base 0.9.1
 _ZN2Tp12LocationInfoD1Ev@Base 0.9.1
 _ZN2Tp12LocationInfoD2Ev@Base 0.9.1
 _ZN2Tp12LocationInfoaSERKS0_@Base 0.9.1
 _ZN2Tp12PendingReady11qt_metacallEN11QMetaObject4CallEiPPv@Base 0.9.1
 _ZN2Tp12PendingReady11qt_metacastEPKc@Base 0.9.1
 _ZN2Tp12PendingReady16staticMetaObjectE@Base 0.9.1
 _ZN2Tp12PendingReadyD0Ev@Base 0.9.1
 _ZN2Tp12PendingReadyD1Ev@Base 0.9.1
 _ZN2Tp12PendingReadyD2Ev@Base 0.9.1
 _ZN2Tp12PresenceSpecC1ERK7QStringRKNS_16SimpleStatusSpecE@Base 0.9.1
 _ZN2Tp12PresenceSpecC1ERKS0_@Base 0.9.1
 _ZN2Tp12PresenceSpecC1Ev@Base 0.9.1
 _ZN2Tp12PresenceSpecC2ERK7QStringRKNS_16SimpleStatusSpecE@Base 0.9.1
 _ZN2Tp12PresenceSpecC2ERKS0_@Base 0.9.1
 _ZN2Tp12PresenceSpecC2Ev@Base 0.9.1
 _ZN2Tp12PresenceSpecD1Ev@Base 0.9.1
 _ZN2Tp12PresenceSpecD2Ev@Base 0.9.1
 _ZN2Tp12PresenceSpecaSERKS0_@Base 0.9.1
 (optional=inline|arch=amd64 i386)_ZN2Tp12PropertySpecC1ERKS0_@Base 0.9.1
 (optional=inline|arch=amd64 i386)_ZN2Tp12PropertySpecC2ERKS0_@Base 0.9.1
 (optional=inline)_ZN2Tp12PropertySpecD1Ev@Base 0.9.1
 (optional=inline)_ZN2Tp12PropertySpecD2Ev@Base 0.9.1
 _ZN2Tp12ProtocolInfo19normalizeContactUriERK7QString@Base 0.9.1
 _ZN2Tp12ProtocolInfo21normalizeVCardAddressERK7QStringS3_@Base 0.9.1
 _ZN2Tp12ProtocolInfoC1ERKS0_@Base 0.9.1
 _ZN2Tp12ProtocolInfoC1Ev@Base 0.9.1
 _ZN2Tp12ProtocolInfoC2ERKS0_@Base 0.9.1
 _ZN2Tp12ProtocolInfoC2Ev@Base 0.9.1
 _ZN2Tp12ProtocolInfoD1Ev@Base 0.9.1
 _ZN2Tp12ProtocolInfoD2Ev@Base 0.9.1
 _ZN2Tp12ProtocolInfoaSERKS0_@Base 0.9.1
 (optional=inline|arch=amd64 i386)_ZN2Tp12ServicePointD1Ev@Base 0.9.1
 (optional=inline|arch=amd64 i386)_ZN2Tp12ServicePointD2Ev@Base 0.9.1
 _ZN2Tp12enabledDebugEv@Base 0.9.1
 (optional=inline|arch=amd64 i386)_ZN2Tp13CallMemberMapC1ERKS0_@Base 0.9.1
 (optional=inline|arch=amd64 i386)_ZN2Tp13CallMemberMapC2ERKS0_@Base 0.9.1
 (optional=inline|arch=amd64 i386)_ZN2Tp13CallMemberMapD1Ev@Base 0.9.1
 (optional=inline|arch=amd64 i386)_ZN2Tp13CallMemberMapD2Ev@Base 0.9.1
 (optional=inline)_ZN2Tp13CandidatePairD1Ev@Base 0.9.1
 (optional=inline)_ZN2Tp13CandidatePairD2Ev@Base 0.9.1
 _ZN2Tp13PendingString11qt_metacallEN11QMetaObject4CallEiPPv@Base 0.9.1
 _ZN2Tp13PendingString11qt_metacastEPKc@Base 0.9.1
 _ZN2Tp13PendingString16staticMetaObjectE@Base 0.9.1
 _ZN2Tp13PendingString9setResultERK7QString@Base 0.9.1
 _ZN2Tp13PendingStringC1E16QDBusPendingCallRKNS_9SharedPtrINS_10RefCountedEEE@Base 0.9.1
 _ZN2Tp13PendingStringC2E16QDBusPendingCallRKNS_9SharedPtrINS_10RefCountedEEE@Base 0.9.1
 _ZN2Tp13PendingStringD0Ev@Base 0.9.1
 _ZN2Tp13PendingStringD1Ev@Base 0.9.1
 _ZN2Tp13PendingStringD2Ev@Base 0.9.1
 _ZN2Tp13registerTypesEv@Base 0.9.1
 _ZN2Tp14AbstractClient13setRegisteredEb@Base 0.9.1
 _ZN2Tp14AbstractClientC1Ev@Base 0.9.1
 _ZN2Tp14AbstractClientC2Ev@Base 0.9.1
 _ZN2Tp14AbstractClientD0Ev@Base 0.9.1
 _ZN2Tp14AbstractClientD1Ev@Base 0.9.1
 _ZN2Tp14AbstractClientD2Ev@Base 0.9.1
 _ZN2Tp14AccountFactory11qt_metacallEN11QMetaObject4CallEiPPv@Base 0.9.1
 _ZN2Tp14AccountFactory11qt_metacastEPKc@Base 0.9.1
 _ZN2Tp14AccountFactory16staticMetaObjectE@Base 0.9.1
 _ZN2Tp14AccountFactory6createERK15QDBusConnectionRKNS_8FeaturesE@Base 0.9.1
 _ZN2Tp14AccountFactoryC1ERK15QDBusConnectionRKNS_8FeaturesE@Base 0.9.1
 _ZN2Tp14AccountFactoryC2ERK15QDBusConnectionRKNS_8FeaturesE@Base 0.9.1
 _ZN2Tp14AccountFactoryD0Ev@Base 0.9.1
 _ZN2Tp14AccountFactoryD1Ev@Base 0.9.1
 _ZN2Tp14AccountFactoryD2Ev@Base 0.9.1
 _ZN2Tp14AccountManager10newAccountERKNS_9SharedPtrINS_7AccountEEE@Base 0.9.1
 _ZN2Tp14AccountManager11FeatureCoreE@Base 0.9.1
 _ZN2Tp14AccountManager11qt_metacallEN11QMetaObject4CallEiPPv@Base 0.9.1
 _ZN2Tp14AccountManager11qt_metacastEPKc@Base 0.9.1
 _ZN2Tp14AccountManager13createAccountERK7QStringS3_S3_RK4QMapIS1_8QVariantES8_@Base 0.9.1
 _ZN2Tp14AccountManager16staticMetaObjectE@Base 0.9.1
 _ZN2Tp14AccountManager6createERK15QDBusConnection@Base 0.9.1
 _ZN2Tp14AccountManager6createERK15QDBusConnectionRKNS_9SharedPtrIKNS_14AccountFactoryEEERKNS4_IKNS_17ConnectionFactoryEEERKNS4_IKNS_14ChannelFactoryEEERKNS4_IKNS_14ContactFactoryEEE@Base 0.9.1
 _ZN2Tp14AccountManager6createERKNS_9SharedPtrIKNS_14AccountFactoryEEERKNS1_IKNS_17ConnectionFactoryEEERKNS1_IKNS_14ChannelFactoryEEERKNS1_IKNS_14ContactFactoryEEE@Base 0.9.1
 _ZN2Tp14AccountManagerC1ERK15QDBusConnectionRKNS_9SharedPtrIKNS_14AccountFactoryEEERKNS4_IKNS_17ConnectionFactoryEEERKNS4_IKNS_14ChannelFactoryEEERKNS4_IKNS_14ContactFactoryEEERKNS_7FeatureE@Base 0.9.1
 _ZN2Tp14AccountManagerC2ERK15QDBusConnectionRKNS_9SharedPtrIKNS_14AccountFactoryEEERKNS4_IKNS_17ConnectionFactoryEEERKNS4_IKNS_14ChannelFactoryEEERKNS4_IKNS_14ContactFactoryEEERKNS_7FeatureE@Base 0.9.1
 _ZN2Tp14AccountManagerD0Ev@Base 0.9.1
 _ZN2Tp14AccountManagerD1Ev@Base 0.9.1
 _ZN2Tp14AccountManagerD2Ev@Base 0.9.1
 (optional=inline|arch=amd64 i386)_ZN2Tp14CapabilityPairD1Ev@Base 0.9.1
 (optional=inline|arch=amd64 i386)_ZN2Tp14CapabilityPairD2Ev@Base 0.9.1
 (optional=inline|arch=amd64 i386)_ZN2Tp14ChannelDetailsC1ERKS0_@Base 0.9.1
 (optional=inline|arch=amd64 i386)_ZN2Tp14ChannelDetailsC2ERKS0_@Base 0.9.1
 (optional=inline)_ZN2Tp14ChannelDetailsD1Ev@Base 0.9.1
 (optional=inline)_ZN2Tp14ChannelDetailsD2Ev@Base 0.9.1
 _ZN2Tp14ChannelFactory11qt_metacallEN11QMetaObject4CallEiPPv@Base 0.9.1
 _ZN2Tp14ChannelFactory11qt_metacastEPKc@Base 0.9.1
 (optional=templinst)_ZN2Tp14ChannelFactory12SubclassCtorINS_11CallChannelEED0Ev@Base 0.9.1
 (optional=templinst)_ZN2Tp14ChannelFactory12SubclassCtorINS_11CallChannelEED1Ev@Base 0.9.1
 (optional=templinst)_ZN2Tp14ChannelFactory12SubclassCtorINS_11CallChannelEED2Ev@Base 0.9.1
 (optional=templinst)_ZN2Tp14ChannelFactory12SubclassCtorINS_11TextChannelEED0Ev@Base 0.9.1
 (optional=templinst)_ZN2Tp14ChannelFactory12SubclassCtorINS_11TextChannelEED1Ev@Base 0.9.1
 (optional=templinst)_ZN2Tp14ChannelFactory12SubclassCtorINS_11TextChannelEED2Ev@Base 0.9.1
 (optional=templinst)_ZN2Tp14ChannelFactory12SubclassCtorINS_15RoomListChannelEED0Ev@Base 0.9.1
 (optional=templinst)_ZN2Tp14ChannelFactory12SubclassCtorINS_15RoomListChannelEED1Ev@Base 0.9.1
 (optional=templinst)_ZN2Tp14ChannelFactory12SubclassCtorINS_15RoomListChannelEED2Ev@Base 0.9.1
 (optional=templinst)_ZN2Tp14ChannelFactory12SubclassCtorINS_20ContactSearchChannelEED0Ev@Base 0.9.1
 (optional=templinst)_ZN2Tp14ChannelFactory12SubclassCtorINS_20ContactSearchChannelEED1Ev@Base 0.9.1
 (optional=templinst)_ZN2Tp14ChannelFactory12SubclassCtorINS_20ContactSearchChannelEED2Ev@Base 0.9.1
 (optional=templinst)_ZN2Tp14ChannelFactory12SubclassCtorINS_20StreamedMediaChannelEED0Ev@Base 0.9.1
 (optional=templinst)_ZN2Tp14ChannelFactory12SubclassCtorINS_20StreamedMediaChannelEED1Ev@Base 0.9.1
 (optional=templinst)_ZN2Tp14ChannelFactory12SubclassCtorINS_20StreamedMediaChannelEED2Ev@Base 0.9.1
 (optional=templinst)_ZN2Tp14ChannelFactory12SubclassCtorINS_25IncomingStreamTubeChannelEED0Ev@Base 0.9.1
 (optional=templinst)_ZN2Tp14ChannelFactory12SubclassCtorINS_25IncomingStreamTubeChannelEED1Ev@Base 0.9.1
 (optional=templinst)_ZN2Tp14ChannelFactory12SubclassCtorINS_25IncomingStreamTubeChannelEED2Ev@Base 0.9.1
 (optional=templinst)_ZN2Tp14ChannelFactory12SubclassCtorINS_25OutgoingStreamTubeChannelEED0Ev@Base 0.9.1
 (optional=templinst)_ZN2Tp14ChannelFactory12SubclassCtorINS_25OutgoingStreamTubeChannelEED1Ev@Base 0.9.1
 (optional=templinst)_ZN2Tp14ChannelFactory12SubclassCtorINS_25OutgoingStreamTubeChannelEED2Ev@Base 0.9.1
 (optional=templinst)_ZN2Tp14ChannelFactory12SubclassCtorINS_27IncomingFileTransferChannelEED0Ev@Base 0.9.1
 (optional=templinst)_ZN2Tp14ChannelFactory12SubclassCtorINS_27IncomingFileTransferChannelEED1Ev@Base 0.9.1
 (optional=templinst)_ZN2Tp14ChannelFactory12SubclassCtorINS_27IncomingFileTransferChannelEED2Ev@Base 0.9.1
 (optional=templinst)_ZN2Tp14ChannelFactory12SubclassCtorINS_27OutgoingFileTransferChannelEED0Ev@Base 0.9.1
 (optional=templinst)_ZN2Tp14ChannelFactory12SubclassCtorINS_27OutgoingFileTransferChannelEED1Ev@Base 0.9.1
 (optional=templinst)_ZN2Tp14ChannelFactory12SubclassCtorINS_27OutgoingFileTransferChannelEED2Ev@Base 0.9.1
 (optional=templinst)_ZN2Tp14ChannelFactory12SubclassCtorINS_27ServerAuthenticationChannelEED0Ev@Base 0.9.1
 (optional=templinst)_ZN2Tp14ChannelFactory12SubclassCtorINS_27ServerAuthenticationChannelEED1Ev@Base 0.9.1
 (optional=templinst)_ZN2Tp14ChannelFactory12SubclassCtorINS_27ServerAuthenticationChannelEED2Ev@Base 0.9.1
 (optional=templinst)_ZN2Tp14ChannelFactory12SubclassCtorINS_7ChannelEED0Ev@Base 0.9.1
 (optional=templinst)_ZN2Tp14ChannelFactory12SubclassCtorINS_7ChannelEED1Ev@Base 0.9.1
 (optional=templinst)_ZN2Tp14ChannelFactory12SubclassCtorINS_7ChannelEED2Ev@Base 0.9.1
 _ZN2Tp14ChannelFactory14addFeaturesForERKNS_16ChannelClassSpecERKNS_8FeaturesE@Base 0.9.1
 _ZN2Tp14ChannelFactory16staticMetaObjectE@Base 0.9.1
 _ZN2Tp14ChannelFactory17addCommonFeaturesERKNS_8FeaturesE@Base 0.9.1
 _ZN2Tp14ChannelFactory17setConstructorForERKNS_16ChannelClassSpecERKNS_9SharedPtrIKNS0_11ConstructorEEE@Base 0.9.1
 _ZN2Tp14ChannelFactory19addFeaturesForCallsERKNS_8FeaturesERK4QMapI7QString8QVariantE@Base 0.9.1
 _ZN2Tp14ChannelFactory22setConstructorForCallsERKNS_9SharedPtrIKNS0_11ConstructorEEERK4QMapI7QString8QVariantE@Base 0.9.1
 _ZN2Tp14ChannelFactory22setFallbackConstructorERKNS_9SharedPtrIKNS0_11ConstructorEEE@Base 0.9.1
 _ZN2Tp14ChannelFactory23addFeaturesForRoomListsERKNS_8FeaturesERK4QMapI7QString8QVariantE@Base 0.9.1
 _ZN2Tp14ChannelFactory23addFeaturesForTextChatsERKNS_8FeaturesERK4QMapI7QString8QVariantE@Base 0.9.1
 _ZN2Tp14ChannelFactory26setConstructorForRoomListsERKNS_9SharedPtrIKNS0_11ConstructorEEERK4QMapI7QString8QVariantE@Base 0.9.1
 _ZN2Tp14ChannelFactory26setConstructorForTextChatsERKNS_9SharedPtrIKNS0_11ConstructorEEERK4QMapI7QString8QVariantE@Base 0.9.1
 _ZN2Tp14ChannelFactory27addFeaturesForTextChatroomsERKNS_8FeaturesERK4QMapI7QString8QVariantE@Base 0.9.1
 _ZN2Tp14ChannelFactory29addFeaturesForContactSearchesERKNS_8FeaturesERK4QMapI7QString8QVariantE@Base 0.9.1
 _ZN2Tp14ChannelFactory30setConstructorForTextChatroomsERKNS_9SharedPtrIKNS0_11ConstructorEEERK4QMapI7QString8QVariantE@Base 0.9.1
 _ZN2Tp14ChannelFactory32addFeaturesForStreamedMediaCallsERKNS_8FeaturesERK4QMapI7QString8QVariantE@Base 0.9.1
 _ZN2Tp14ChannelFactory32setConstructorForContactSearchesERKNS_9SharedPtrIKNS0_11ConstructorEEERK4QMapI7QString8QVariantE@Base 0.9.1
 _ZN2Tp14ChannelFactory33addFeaturesForIncomingStreamTubesERKNS_8FeaturesERK4QMapI7QString8QVariantE@Base 0.9.1
 _ZN2Tp14ChannelFactory33addFeaturesForOutgoingStreamTubesERKNS_8FeaturesERK4QMapI7QString8QVariantE@Base 0.9.1
 _ZN2Tp14ChannelFactory34addFeaturesForServerAuthenticationERKNS_8FeaturesERK4QMapI7QString8QVariantE@Base 0.9.1
 _ZN2Tp14ChannelFactory35addFeaturesForIncomingFileTransfersERKNS_8FeaturesERK4QMapI7QString8QVariantE@Base 0.9.1
 _ZN2Tp14ChannelFactory35addFeaturesForOutgoingFileTransfersERKNS_8FeaturesERK4QMapI7QString8QVariantE@Base 0.9.1
 _ZN2Tp14ChannelFactory35setConstructorForStreamedMediaCallsERKNS_9SharedPtrIKNS0_11ConstructorEEERK4QMapI7QString8QVariantE@Base 0.9.1
 _ZN2Tp14ChannelFactory36setConstructorForIncomingStreamTubesERKNS_9SharedPtrIKNS0_11ConstructorEEERK4QMapI7QString8QVariantE@Base 0.9.1
 _ZN2Tp14ChannelFactory36setConstructorForOutgoingStreamTubesERKNS_9SharedPtrIKNS0_11ConstructorEEERK4QMapI7QString8QVariantE@Base 0.9.1
 _ZN2Tp14ChannelFactory37addFeaturesForIncomingRoomStreamTubesERKNS_8FeaturesERK4QMapI7QString8QVariantE@Base 0.9.1
 _ZN2Tp14ChannelFactory37addFeaturesForOutgoingRoomStreamTubesERKNS_8FeaturesERK4QMapI7QString8QVariantE@Base 0.9.1
 _ZN2Tp14ChannelFactory37setConstructorForServerAuthenticationERKNS_9SharedPtrIKNS0_11ConstructorEEERK4QMapI7QString8QVariantE@Base 0.9.1
 _ZN2Tp14ChannelFactory38setConstructorForIncomingFileTransfersERKNS_9SharedPtrIKNS0_11ConstructorEEERK4QMapI7QString8QVariantE@Base 0.9.1
 _ZN2Tp14ChannelFactory38setConstructorForOutgoingFileTransfersERKNS_9SharedPtrIKNS0_11ConstructorEEERK4QMapI7QString8QVariantE@Base 0.9.1
 _ZN2Tp14ChannelFactory40setConstructorForIncomingRoomStreamTubesERKNS_9SharedPtrIKNS0_11ConstructorEEERK4QMapI7QString8QVariantE@Base 0.9.1
 _ZN2Tp14ChannelFactory40setConstructorForOutgoingRoomStreamTubesERKNS_9SharedPtrIKNS0_11ConstructorEEERK4QMapI7QString8QVariantE@Base 0.9.1
 _ZN2Tp14ChannelFactory6createERK15QDBusConnection@Base 0.9.1
 _ZN2Tp14ChannelFactoryC1ERK15QDBusConnection@Base 0.9.1
 _ZN2Tp14ChannelFactoryC2ERK15QDBusConnection@Base 0.9.1
 _ZN2Tp14ChannelFactoryD0Ev@Base 0.9.1
 _ZN2Tp14ChannelFactoryD1Ev@Base 0.9.1
 _ZN2Tp14ChannelFactoryD2Ev@Base 0.9.1
 _ZN2Tp14ChannelRequest11FeatureCoreE@Base 0.9.1
 _ZN2Tp14ChannelRequest11qt_metacallEN11QMetaObject4CallEiPPv@Base 0.9.1
 _ZN2Tp14ChannelRequest11qt_metacastEPKc@Base 0.9.1
 _ZN2Tp14ChannelRequest16staticMetaObjectE@Base 0.9.1
 _ZN2Tp14ChannelRequest6cancelEv@Base 0.9.1
 _ZN2Tp14ChannelRequest6createERK15QDBusConnectionRK7QStringRK4QMapIS4_8QVariantERKNS_9SharedPtrIKNS_14AccountFactoryEEERKNSC_IKNS_17ConnectionFactoryEEERKNSC_IKNS_14ChannelFactoryEEERKNSC_IKNS_14ContactFactoryEEE@Base 0.9.1
 _ZN2Tp14ChannelRequest6createERKNS_9SharedPtrINS_7AccountEEERK7QStringRK4QMapIS6_8QVariantE@Base 0.9.1
 _ZN2Tp14ChannelRequest6failedERK7QStringS3_@Base 0.9.1
 _ZN2Tp14ChannelRequest7proceedEv@Base 0.9.1
 _ZN2Tp14ChannelRequest9succeededERKNS_9SharedPtrINS_7ChannelEEE@Base 0.9.1
 _ZN2Tp14ChannelRequestC1ERK15QDBusConnectionRK7QStringRK4QMapIS4_8QVariantERKNS_9SharedPtrIKNS_14AccountFactoryEEERKNSC_IKNS_17ConnectionFactoryEEERKNSC_IKNS_14ChannelFactoryEEERKNSC_IKNS_14ContactFactoryEEE@Base 0.9.1
 _ZN2Tp14ChannelRequestC1ERKNS_9SharedPtrINS_7AccountEEERK7QStringRK4QMapIS6_8QVariantE@Base 0.9.1
 _ZN2Tp14ChannelRequestC2ERK15QDBusConnectionRK7QStringRK4QMapIS4_8QVariantERKNS_9SharedPtrIKNS_14AccountFactoryEEERKNSC_IKNS_17ConnectionFactoryEEERKNSC_IKNS_14ChannelFactoryEEERKNSC_IKNS_14ContactFactoryEEE@Base 0.9.1
 _ZN2Tp14ChannelRequestC2ERKNS_9SharedPtrINS_7AccountEEERK7QStringRK4QMapIS6_8QVariantE@Base 0.9.1
 _ZN2Tp14ChannelRequestD0Ev@Base 0.9.1
 _ZN2Tp14ChannelRequestD1Ev@Base 0.9.1
 _ZN2Tp14ChannelRequestD2Ev@Base 0.9.1
 _ZN2Tp14ContactFactory10addFeatureERKNS_7FeatureE@Base 0.9.1
 _ZN2Tp14ContactFactory11addFeaturesERKNS_8FeaturesE@Base 0.9.1
 _ZN2Tp14ContactFactory6createERKNS_8FeaturesE@Base 0.9.1
 _ZN2Tp14ContactFactoryC1ERKNS_8FeaturesE@Base 0.9.1
 _ZN2Tp14ContactFactoryC2ERKNS_8FeaturesE@Base 0.9.1
 _ZN2Tp14ContactFactoryD0Ev@Base 0.9.1
 _ZN2Tp14ContactFactoryD1Ev@Base 0.9.1
 _ZN2Tp14ContactFactoryD2Ev@Base 0.9.1
 _ZN2Tp14ContactManager10groupAddedERK7QString@Base 0.9.1
 _ZN2Tp14ContactManager11qt_metacallEN11QMetaObject4CallEiPPv@Base 0.9.1
 _ZN2Tp14ContactManager11qt_metacastEPKc@Base 0.9.1
 _ZN2Tp14ContactManager11removeGroupERK7QString@Base 0.9.1
 _ZN2Tp14ContactManager12groupRemovedERK7QString@Base 0.9.1
 _ZN2Tp14ContactManager12groupRenamedERK7QStringS3_@Base 0.9.1
 _ZN2Tp14ContactManager12stateChangedENS_16ContactListStateE@Base 0.9.1
 _ZN2Tp14ContactManager13blockContactsERK5QListINS_9SharedPtrINS_7ContactEEEE@Base 0.9.1
 _ZN2Tp14ContactManager14removeContactsERK5QListINS_9SharedPtrINS_7ContactEEEERK7QString@Base 0.9.1
 _ZN2Tp14ContactManager15contactsForUrisERK11QStringListRKNS_8FeaturesE@Base 0.9.1
 _ZN2Tp14ContactManager15unblockContactsERK5QListINS_9SharedPtrINS_7ContactEEEE@Base 0.9.1
 _ZN2Tp14ContactManager15upgradeContactsERK5QListINS_9SharedPtrINS_7ContactEEEERKNS_8FeaturesE@Base 0.9.1
 _ZN2Tp14ContactManager16staticMetaObjectE@Base 0.9.1
 _ZN2Tp14ContactManager18addContactsToGroupERK7QStringRK5QListINS_9SharedPtrINS_7ContactEEEE@Base 0.9.1
 _ZN2Tp14ContactManager18contactsForHandlesERKNS_17ReferencedHandlesERKNS_8FeaturesE@Base 0.9.1
 _ZN2Tp14ContactManager18contactsForHandlesERKNS_19HandleIdentifierMapERKNS_8FeaturesE@Base 0.9.1
 _ZN2Tp14ContactManager18contactsForHandlesERKNS_8UIntListERKNS_8FeaturesE@Base 0.9.1
 _ZN2Tp14ContactManager18refreshContactInfoERK5QListINS_9SharedPtrINS_7ContactEEEE@Base 0.9.1
 _ZN2Tp14ContactManager19groupMembersChangedERK7QStringRK4QSetINS_9SharedPtrINS_7ContactEEEESA_RKNS_7Channel24GroupMemberChangeDetailsE@Base 0.9.1
 _ZN2Tp14ContactManager21requestContactAvatarsERK5QListINS_9SharedPtrINS_7ContactEEEE@Base 0.9.1
 _ZN2Tp14ContactManager22contactsForIdentifiersERK11QStringListRKNS_8FeaturesE@Base 0.9.1
 _ZN2Tp14ContactManager23allKnownContactsChangedERK4QSetINS_9SharedPtrINS_7ContactEEEES7_RKNS_7Channel24GroupMemberChangeDetailsE@Base 0.9.1
 _ZN2Tp14ContactManager23removeContactsFromGroupERK7QStringRK5QListINS_9SharedPtrINS_7ContactEEEE@Base 0.9.1
 _ZN2Tp14ContactManager25contactsForVCardAddressesERK7QStringRK11QStringListRKNS_8FeaturesE@Base 0.9.1
 _ZN2Tp14ContactManager25removePresencePublicationERK5QListINS_9SharedPtrINS_7ContactEEEERK7QString@Base 0.9.1
 _ZN2Tp14ContactManager26removePresenceSubscriptionERK5QListINS_9SharedPtrINS_7ContactEEEERK7QString@Base 0.9.1
 _ZN2Tp14ContactManager27blockContactsAndReportAbuseERK5QListINS_9SharedPtrINS_7ContactEEEE@Base 0.9.1
 _ZN2Tp14ContactManager27requestPresenceSubscriptionERK5QListINS_9SharedPtrINS_7ContactEEEERK7QString@Base 0.9.1
 _ZN2Tp14ContactManager28authorizePresencePublicationERK5QListINS_9SharedPtrINS_7ContactEEEERK7QString@Base 0.9.1
 _ZN2Tp14ContactManager28presencePublicationRequestedERK4QSetINS_9SharedPtrINS_7ContactEEEE@Base 0.9.1
 _ZN2Tp14ContactManager8addGroupERK7QString@Base 0.9.1
 _ZN2Tp14ContactManagerD0Ev@Base 0.9.1
 _ZN2Tp14ContactManagerD1Ev@Base 0.9.1
 _ZN2Tp14ContactManagerD2Ev@Base 0.9.1
 (optional=inline|arch=amd64 i386)_ZN2Tp14CurrencyAmountC1ERKS0_@Base 0.9.1
 (optional=inline|arch=amd64 i386)_ZN2Tp14CurrencyAmountC2ERKS0_@Base 0.9.1
 (optional=inline|arch=amd64 i386)_ZN2Tp14CurrencyAmountD1Ev@Base 0.9.1
 (optional=inline|arch=amd64 i386)_ZN2Tp14CurrencyAmountD2Ev@Base 0.9.1
 (optional=inline|arch=amd64 i386)_ZN2Tp14DBusTubeMemberD1Ev@Base 0.9.1
 (optional=inline|arch=amd64 i386)_ZN2Tp14DBusTubeMemberD2Ev@Base 0.9.1
 (optional=inline|arch=amd64 i386)_ZN2Tp14HandleOwnerMapC1ERKS0_@Base 0.9.1
 (optional=inline|arch=amd64 i386)_ZN2Tp14HandleOwnerMapC2ERKS0_@Base 0.9.1
 (optional=inline|arch=amd64 i386)_ZN2Tp14ObjectPathListC1ERKS0_@Base 0.9.1
 (optional=inline|arch=amd64 i386)_ZN2Tp14ObjectPathListC2ERKS0_@Base 0.9.1
 (optional=inline|arch=!amd64 !i386)_ZN2Tp14ObjectPathListD1Ev@Base 0.9.1
 (optional=inline|arch=!amd64 !i386)_ZN2Tp14ObjectPathListD2Ev@Base 0.9.1
 _ZN2Tp14PendingAccount11qt_metacallEN11QMetaObject4CallEiPPv@Base 0.9.1
 _ZN2Tp14PendingAccount11qt_metacastEPKc@Base 0.9.1
 _ZN2Tp14PendingAccount16staticMetaObjectE@Base 0.9.1
 _ZN2Tp14PendingAccountD0Ev@Base 0.9.1
 _ZN2Tp14PendingAccountD1Ev@Base 0.9.1
 _ZN2Tp14PendingAccountD2Ev@Base 0.9.1
 _ZN2Tp14PendingChannel11qt_metacallEN11QMetaObject4CallEiPPv@Base 0.9.1
 _ZN2Tp14PendingChannel11qt_metacastEPKc@Base 0.9.1
 _ZN2Tp14PendingChannel16staticMetaObjectE@Base 0.9.1
 _ZN2Tp14PendingChannelD0Ev@Base 0.9.1
 _ZN2Tp14PendingChannelD1Ev@Base 0.9.1
 _ZN2Tp14PendingChannelD2Ev@Base 0.9.1
 _ZN2Tp14PendingFailure11qt_metacallEN11QMetaObject4CallEiPPv@Base 0.9.1
 _ZN2Tp14PendingFailure11qt_metacastEPKc@Base 0.9.1
 _ZN2Tp14PendingFailure16staticMetaObjectE@Base 0.9.1
 _ZN2Tp14PendingFailureD0Ev@Base 0.9.1
 _ZN2Tp14PendingFailureD1Ev@Base 0.9.1
 _ZN2Tp14PendingFailureD2Ev@Base 0.9.1
 _ZN2Tp14PendingHandles11qt_metacallEN11QMetaObject4CallEiPPv@Base 0.9.1
 _ZN2Tp14PendingHandles11qt_metacastEPKc@Base 0.9.1
 _ZN2Tp14PendingHandles16staticMetaObjectE@Base 0.9.1
 _ZN2Tp14PendingHandlesD0Ev@Base 0.9.1
 _ZN2Tp14PendingHandlesD1Ev@Base 0.9.1
 _ZN2Tp14PendingHandlesD2Ev@Base 0.9.1
 _ZN2Tp14PendingSuccess11qt_metacallEN11QMetaObject4CallEiPPv@Base 0.9.1
 _ZN2Tp14PendingSuccess11qt_metacastEPKc@Base 0.9.1
 _ZN2Tp14PendingSuccess16staticMetaObjectE@Base 0.9.1
 _ZN2Tp14PendingSuccessD0Ev@Base 0.9.1
 _ZN2Tp14PendingSuccessD1Ev@Base 0.9.1
 _ZN2Tp14PendingSuccessD2Ev@Base 0.9.1
 _ZN2Tp14PendingVariant11qt_metacallEN11QMetaObject4CallEiPPv@Base 0.9.1
 _ZN2Tp14PendingVariant11qt_metacastEPKc@Base 0.9.1
 _ZN2Tp14PendingVariant16staticMetaObjectE@Base 0.9.1
 _ZN2Tp14PendingVariantC1E16QDBusPendingCallRKNS_9SharedPtrINS_10RefCountedEEE@Base 0.9.1
 _ZN2Tp14PendingVariantC2E16QDBusPendingCallRKNS_9SharedPtrINS_10RefCountedEEE@Base 0.9.1
 _ZN2Tp14PendingVariantD0Ev@Base 0.9.1
 _ZN2Tp14PendingVariantD1Ev@Base 0.9.1
 _ZN2Tp14PendingVariantD2Ev@Base 0.9.1
 _ZN2Tp14ProfileManager11FeatureCoreE@Base 0.9.1
 _ZN2Tp14ProfileManager11qt_metacallEN11QMetaObject4CallEiPPv@Base 0.9.1
 _ZN2Tp14ProfileManager11qt_metacastEPKc@Base 0.9.1
 _ZN2Tp14ProfileManager16staticMetaObjectE@Base 0.9.1
 _ZN2Tp14ProfileManager19FeatureFakeProfilesE@Base 0.9.1
 _ZN2Tp14ProfileManager6createERK15QDBusConnection@Base 0.9.1
 _ZN2Tp14ProfileManagerC1ERK15QDBusConnection@Base 0.9.1
 _ZN2Tp14ProfileManagerC2ERK15QDBusConnection@Base 0.9.1
 _ZN2Tp14ProfileManagerD0Ev@Base 0.9.1
 _ZN2Tp14ProfileManagerD1Ev@Base 0.9.1
 _ZN2Tp14ProfileManagerD2Ev@Base 0.9.1
 _ZN2Tp14SimpleObserver11newChannelsERK5QListINS_9SharedPtrINS_7ChannelEEEE@Base 0.9.1
 _ZN2Tp14SimpleObserver11qt_metacallEN11QMetaObject4CallEiPPv@Base 0.9.1
 _ZN2Tp14SimpleObserver11qt_metacastEPKc@Base 0.9.1
 _ZN2Tp14SimpleObserver16staticMetaObjectE@Base 0.9.1
 _ZN2Tp14SimpleObserver18channelInvalidatedERKNS_9SharedPtrINS_7ChannelEEERK7QStringS8_@Base 0.9.1
 _ZN2Tp14SimpleObserver6createERKNS_9SharedPtrINS_7AccountEEERKNS_20ChannelClassSpecListERK5QListI5QPairINS_16ChannelClassSpecENS_8FeaturesEEE@Base 0.9.1
 _ZN2Tp14SimpleObserver6createERKNS_9SharedPtrINS_7AccountEEERKNS_20ChannelClassSpecListERK7QStringRK5QListI5QPairINS_16ChannelClassSpecENS_8FeaturesEEE@Base 0.9.1
 _ZN2Tp14SimpleObserver6createERKNS_9SharedPtrINS_7AccountEEERKNS_20ChannelClassSpecListERKNS1_INS_7ContactEEERK5QListI5QPairINS_16ChannelClassSpecENS_8FeaturesEEE@Base 0.9.1
 _ZN2Tp14SimpleObserverD0Ev@Base 0.9.1
 _ZN2Tp14SimpleObserverD1Ev@Base 0.9.1
 _ZN2Tp14SimpleObserverD2Ev@Base 0.9.1
 (optional=inline|arch=amd64 i386)_ZN2Tp14SimplePresenceC1ERKS0_@Base 0.9.1
 (optional=inline|arch=armhf mips mipsel)_ZN2Tp14SimplePresenceC1Ev@Base 0.9.1
 (optional=inline|arch=amd64 i386)_ZN2Tp14SimplePresenceC2ERKS0_@Base 0.9.1
 (optional=inline|arch=armhf mips mipsel)_ZN2Tp14SimplePresenceC2Ev@Base 0.9.1
 (optional=inline)_ZN2Tp14SimplePresenceD1Ev@Base 0.9.1
 (optional=inline)_ZN2Tp14SimplePresenceD2Ev@Base 0.9.1
 _ZN2Tp14enableWarningsEb@Base 0.9.1
 _ZN2Tp14enabledWarningEv@Base 0.9.1
 (optional=inline|arch=amd64 i386)_ZN2Tp15CallStateReasonC1ERKS0_@Base 0.9.1
 (optional=inline|arch=amd64 i386)_ZN2Tp15CallStateReasonC2ERKS0_@Base 0.9.1
 (optional=inline)_ZN2Tp15CallStateReasonD1Ev@Base 0.9.1
 (optional=inline)_ZN2Tp15CallStateReasonD2Ev@Base 0.9.1
 (optional=inline|arch=amd64 i386)_ZN2Tp15CallStateReasonaSERKS0_@Base 0.9.1
 _ZN2Tp15ClientRegistrar11qt_metacallEN11QMetaObject4CallEiPPv@Base 0.9.1
 _ZN2Tp15ClientRegistrar11qt_metacastEPKc@Base 0.9.1
 _ZN2Tp15ClientRegistrar14registerClientERKNS_9SharedPtrINS_14AbstractClientEEERK7QStringb@Base 0.9.1
 _ZN2Tp15ClientRegistrar16staticMetaObjectE@Base 0.9.1
 _ZN2Tp15ClientRegistrar16unregisterClientERKNS_9SharedPtrINS_14AbstractClientEEE@Base 0.9.1
 _ZN2Tp15ClientRegistrar17unregisterClientsEv@Base 0.9.1
 _ZN2Tp15ClientRegistrar6createERK15QDBusConnection@Base 0.9.1
 _ZN2Tp15ClientRegistrar6createERK15QDBusConnectionRKNS_9SharedPtrIKNS_14AccountFactoryEEERKNS4_IKNS_17ConnectionFactoryEEERKNS4_IKNS_14ChannelFactoryEEERKNS4_IKNS_14ContactFactoryEEE@Base 0.9.1
 _ZN2Tp15ClientRegistrar6createERKNS_9SharedPtrIKNS_14AccountFactoryEEERKNS1_IKNS_17ConnectionFactoryEEERKNS1_IKNS_14ChannelFactoryEEERKNS1_IKNS_14ContactFactoryEEE@Base 0.9.1
 _ZN2Tp15ClientRegistrar6createERKNS_9SharedPtrINS_14AccountManagerEEE@Base 0.9.1
 _ZN2Tp15ClientRegistrarC1ERK15QDBusConnectionRKNS_9SharedPtrIKNS_14AccountFactoryEEERKNS4_IKNS_17ConnectionFactoryEEERKNS4_IKNS_14ChannelFactoryEEERKNS4_IKNS_14ContactFactoryEEE@Base 0.9.1
 _ZN2Tp15ClientRegistrarC2ERK15QDBusConnectionRKNS_9SharedPtrIKNS_14AccountFactoryEEERKNS4_IKNS_17ConnectionFactoryEEERKNS4_IKNS_14ChannelFactoryEEERKNS4_IKNS_14ContactFactoryEEE@Base 0.9.1
 _ZN2Tp15ClientRegistrarD0Ev@Base 0.9.1
 _ZN2Tp15ClientRegistrarD1Ev@Base 0.9.1
 _ZN2Tp15ClientRegistrarD2Ev@Base 0.9.1
 _ZN2Tp15PendingCaptchas11qt_metacallEN11QMetaObject4CallEiPPv@Base 0.9.1
 _ZN2Tp15PendingCaptchas11qt_metacastEPKc@Base 0.9.1
 _ZN2Tp15PendingCaptchas16staticMetaObjectE@Base 0.9.1
 _ZN2Tp15PendingCaptchasD0Ev@Base 0.9.1
 _ZN2Tp15PendingCaptchasD1Ev@Base 0.9.1
 _ZN2Tp15PendingCaptchasD2Ev@Base 0.9.1
 _ZN2Tp15PendingContacts11qt_metacallEN11QMetaObject4CallEiPPv@Base 0.9.1
 _ZN2Tp15PendingContacts11qt_metacastEPKc@Base 0.9.1
 _ZN2Tp15PendingContacts16staticMetaObjectE@Base 0.9.1
 _ZN2Tp15PendingContactsD0Ev@Base 0.9.1
 _ZN2Tp15PendingContactsD1Ev@Base 0.9.1
 _ZN2Tp15PendingContactsD2Ev@Base 0.9.1
 _ZN2Tp15ReadinessHelper11becomeReadyERKNS_8FeaturesE@Base 0.9.1
 _ZN2Tp15ReadinessHelper11qt_metacallEN11QMetaObject4CallEiPPv@Base 0.9.1
 _ZN2Tp15ReadinessHelper11qt_metacastEPKc@Base 0.9.1
 _ZN2Tp15ReadinessHelper11statusReadyEj@Base 0.9.1
 _ZN2Tp15ReadinessHelper13setInterfacesERK11QStringList@Base 0.9.1
 (optional=templinst)_ZN2Tp15ReadinessHelper14IntrospectableC1ERK4QSetIjERKNS_8FeaturesERK11QStringListPFvPvESC_b@Base 0.9.1
 _ZN2Tp15ReadinessHelper14IntrospectableC1ERKS1_@Base 0.9.1
 _ZN2Tp15ReadinessHelper14IntrospectableC1Ev@Base 0.9.1
 (optional=templinst)_ZN2Tp15ReadinessHelper14IntrospectableC2ERK4QSetIjERKNS_8FeaturesERK11QStringListPFvPvESC_b@Base 0.9.1
 _ZN2Tp15ReadinessHelper14IntrospectableC2ERKS1_@Base 0.9.1
 _ZN2Tp15ReadinessHelper14IntrospectableC2Ev@Base 0.9.1
 _ZN2Tp15ReadinessHelper14IntrospectableD1Ev@Base 0.9.1
 _ZN2Tp15ReadinessHelper14IntrospectableD2Ev@Base 0.9.1
 _ZN2Tp15ReadinessHelper14IntrospectableaSERKS1_@Base 0.9.1
 _ZN2Tp15ReadinessHelper16setCurrentStatusEj@Base 0.9.1
 _ZN2Tp15ReadinessHelper16staticMetaObjectE@Base 0.9.1
 _ZN2Tp15ReadinessHelper18addIntrospectablesERK4QMapINS_7FeatureENS0_14IntrospectableEE@Base 0.9.1
 _ZN2Tp15ReadinessHelper18forceCurrentStatusEj@Base 0.9.1
 _ZN2Tp15ReadinessHelper22setIntrospectCompletedERKNS_7FeatureEbRK10QDBusError@Base 0.9.1
 _ZN2Tp15ReadinessHelper22setIntrospectCompletedERKNS_7FeatureEbRK7QStringS6_@Base 0.9.1
 _ZN2Tp15ReadinessHelperC1EPNS_10RefCountedEjRK4QMapINS_7FeatureENS0_14IntrospectableEEP7QObject@Base 0.9.1
 _ZN2Tp15ReadinessHelperC1EPNS_9DBusProxyEjRK4QMapINS_7FeatureENS0_14IntrospectableEEP7QObject@Base 0.9.1
 _ZN2Tp15ReadinessHelperC2EPNS_10RefCountedEjRK4QMapINS_7FeatureENS0_14IntrospectableEEP7QObject@Base 0.9.1
 _ZN2Tp15ReadinessHelperC2EPNS_9DBusProxyEjRK4QMapINS_7FeatureENS0_14IntrospectableEEP7QObject@Base 0.9.1
 _ZN2Tp15ReadinessHelperD0Ev@Base 0.9.1
 _ZN2Tp15ReadinessHelperD1Ev@Base 0.9.1
 _ZN2Tp15ReadinessHelperD2Ev@Base 0.9.1
 _ZN2Tp15ReceivedMessage15DeliveryDetailsC1ERKS1_@Base 0.9.1
 _ZN2Tp15ReceivedMessage15DeliveryDetailsC1Ev@Base 0.9.1
 _ZN2Tp15ReceivedMessage15DeliveryDetailsC2ERKS1_@Base 0.9.1
 _ZN2Tp15ReceivedMessage15DeliveryDetailsC2Ev@Base 0.9.1
 _ZN2Tp15ReceivedMessage15DeliveryDetailsD1Ev@Base 0.9.1
 _ZN2Tp15ReceivedMessage15DeliveryDetailsD2Ev@Base 0.9.1
 _ZN2Tp15ReceivedMessage15DeliveryDetailsaSERKS1_@Base 0.9.1
 _ZN2Tp15ReceivedMessageC1ERKS0_@Base 0.9.1
 _ZN2Tp15ReceivedMessageC2ERKS0_@Base 0.9.1
 _ZN2Tp15ReceivedMessageD1Ev@Base 0.9.1
 _ZN2Tp15ReceivedMessageD2Ev@Base 0.9.1
 _ZN2Tp15ReceivedMessageaSERKS0_@Base 0.9.1
 _ZN2Tp15RoomListChannel11qt_metacallEN11QMetaObject4CallEiPPv@Base 0.9.1
 _ZN2Tp15RoomListChannel11qt_metacastEPKc@Base 0.9.1
 _ZN2Tp15RoomListChannel16staticMetaObjectE@Base 0.9.1
 _ZN2Tp15RoomListChannel6createERKNS_9SharedPtrINS_10ConnectionEEERK7QStringRK4QMapIS6_8QVariantE@Base 0.9.1
 _ZN2Tp15RoomListChannelC1ERKNS_9SharedPtrINS_10ConnectionEEERK7QStringRK4QMapIS6_8QVariantERKNS_7FeatureE@Base 0.9.1
 _ZN2Tp15RoomListChannelC2ERKNS_9SharedPtrINS_10ConnectionEEERK7QStringRK4QMapIS6_8QVariantERKNS_7FeatureE@Base 0.9.1
 _ZN2Tp15RoomListChannelD0Ev@Base 0.9.1
 _ZN2Tp15RoomListChannelD1Ev@Base 0.9.1
 _ZN2Tp15RoomListChannelD2Ev@Base 0.9.1
 (optional=inline|arch=amd64 i386)_ZN2Tp15SUSocketAddressD1Ev@Base 0.9.1
 (optional=inline|arch=amd64 i386)_ZN2Tp15SUSocketAddressD2Ev@Base 0.9.1
 (optional=inline|arch=amd64 i386)_ZN2Tp15SocketAddressIPD1Ev@Base 0.9.1
 (optional=inline|arch=amd64 i386)_ZN2Tp15SocketAddressIPD2Ev@Base 0.9.1
 (optional=inline|arch=amd64 i386)_ZN2Tp15StringStringMapD1Ev@Base 0.9.1
 (optional=inline|arch=amd64 i386)_ZN2Tp15StringStringMapD2Ev@Base 0.9.1
 _ZN2Tp16CapabilitiesBase31updateRequestableChannelClassesERK5QListINS_23RequestableChannelClassEE@Base 0.9.1
 _ZN2Tp16CapabilitiesBaseC1ERK5QListINS_23RequestableChannelClassEEb@Base 0.9.1
 _ZN2Tp16CapabilitiesBaseC1ERKNS_31RequestableChannelClassSpecListEb@Base 0.9.1
 _ZN2Tp16CapabilitiesBaseC1ERKS0_@Base 0.9.1
 _ZN2Tp16CapabilitiesBaseC1Eb@Base 0.9.1
 _ZN2Tp16CapabilitiesBaseC1Ev@Base 0.9.1
 _ZN2Tp16CapabilitiesBaseC2ERK5QListINS_23RequestableChannelClassEEb@Base 0.9.1
 _ZN2Tp16CapabilitiesBaseC2ERKNS_31RequestableChannelClassSpecListEb@Base 0.9.1
 _ZN2Tp16CapabilitiesBaseC2ERKS0_@Base 0.9.1
 _ZN2Tp16CapabilitiesBaseC2Eb@Base 0.9.1
 _ZN2Tp16CapabilitiesBaseC2Ev@Base 0.9.1
 _ZN2Tp16CapabilitiesBaseD0Ev@Base 0.9.1
 _ZN2Tp16CapabilitiesBaseD1Ev@Base 0.9.1
 _ZN2Tp16CapabilitiesBaseD2Ev@Base 0.9.1
 _ZN2Tp16CapabilitiesBaseaSERKS0_@Base 0.9.1
 (optional=inline|arch=amd64 i386)_ZN2Tp16CapabilityChangeD1Ev@Base 0.9.1
 (optional=inline|arch=amd64 i386)_ZN2Tp16CapabilityChangeD2Ev@Base 0.9.1
 _ZN2Tp16ChannelClassSpec11setPropertyERK7QStringRK8QVariant@Base 0.9.1
 _ZN2Tp16ChannelClassSpec12textChatroomERK4QMapI7QString8QVariantE@Base 0.9.1
 _ZN2Tp16ChannelClassSpec13contactSearchERK4QMapI7QString8QVariantE@Base 0.9.1
 _ZN2Tp16ChannelClassSpec13unsetPropertyERK7QString@Base 0.9.1
 _ZN2Tp16ChannelClassSpec15unnamedTextChatERK4QMapI7QString8QVariantE@Base 0.9.1
 _ZN2Tp16ChannelClassSpec17streamedMediaCallERK4QMapI7QString8QVariantE@Base 0.9.1
 _ZN2Tp16ChannelClassSpec18incomingStreamTubeERK7QStringRK4QMapIS1_8QVariantE@Base 0.9.1
 _ZN2Tp16ChannelClassSpec18outgoingStreamTubeERK7QStringRK4QMapIS1_8QVariantE@Base 0.9.1
 _ZN2Tp16ChannelClassSpec18videoCallWithAudioERK4QMapI7QString8QVariantE@Base 0.9.1
 _ZN2Tp16ChannelClassSpec20incomingFileTransferERK4QMapI7QString8QVariantE@Base 0.9.1
 _ZN2Tp16ChannelClassSpec20outgoingFileTransferERK4QMapI7QString8QVariantE@Base 0.9.1
 _ZN2Tp16ChannelClassSpec20serverAuthenticationERK4QMapI7QString8QVariantE@Base 0.9.1
 _ZN2Tp16ChannelClassSpec22incomingRoomStreamTubeERK7QStringRK4QMapIS1_8QVariantE@Base 0.9.1
 _ZN2Tp16ChannelClassSpec22outgoingRoomStreamTubeERK7QStringRK4QMapIS1_8QVariantE@Base 0.9.1
 _ZN2Tp16ChannelClassSpec22streamedMediaAudioCallERK4QMapI7QString8QVariantE@Base 0.9.1
 _ZN2Tp16ChannelClassSpec22streamedMediaVideoCallERK4QMapI7QString8QVariantE@Base 0.9.1
 _ZN2Tp16ChannelClassSpec24unnamedStreamedMediaCallERK4QMapI7QString8QVariantE@Base 0.9.1
 _ZN2Tp16ChannelClassSpec29unnamedStreamedMediaAudioCallERK4QMapI7QString8QVariantE@Base 0.9.1
 _ZN2Tp16ChannelClassSpec29unnamedStreamedMediaVideoCallERK4QMapI7QString8QVariantE@Base 0.9.1
 _ZN2Tp16ChannelClassSpec31streamedMediaVideoCallWithAudioERK4QMapI7QString8QVariantE@Base 0.9.1
 _ZN2Tp16ChannelClassSpec38unnamedStreamedMediaVideoCallWithAudioERK4QMapI7QString8QVariantE@Base 0.9.1
 _ZN2Tp16ChannelClassSpec8roomListERK4QMapI7QString8QVariantE@Base 0.9.1
 _ZN2Tp16ChannelClassSpec8textChatERK4QMapI7QString8QVariantE@Base 0.9.1
 _ZN2Tp16ChannelClassSpec9audioCallERK4QMapI7QString8QVariantE@Base 0.9.1
 _ZN2Tp16ChannelClassSpec9videoCallERK4QMapI7QString8QVariantE@Base 0.9.1
 _ZN2Tp16ChannelClassSpecC1ERK4QMapI7QString8QVariantE@Base 0.9.1
 _ZN2Tp16ChannelClassSpecC1ERK7QStringNS_10HandleTypeERK4QMapIS1_8QVariantE@Base 0.9.1
 _ZN2Tp16ChannelClassSpecC1ERK7QStringNS_10HandleTypeEbRK4QMapIS1_8QVariantE@Base 0.9.1
 _ZN2Tp16ChannelClassSpecC1ERKNS_12ChannelClassE@Base 0.9.1
 _ZN2Tp16ChannelClassSpecC1ERKS0_RK4QMapI7QString8QVariantE@Base 0.9.1
 _ZN2Tp16ChannelClassSpecC1Ev@Base 0.9.1
 _ZN2Tp16ChannelClassSpecC2ERK4QMapI7QString8QVariantE@Base 0.9.1
 _ZN2Tp16ChannelClassSpecC2ERK7QStringNS_10HandleTypeERK4QMapIS1_8QVariantE@Base 0.9.1
 _ZN2Tp16ChannelClassSpecC2ERK7QStringNS_10HandleTypeEbRK4QMapIS1_8QVariantE@Base 0.9.1
 _ZN2Tp16ChannelClassSpecC2ERKNS_12ChannelClassE@Base 0.9.1
 _ZN2Tp16ChannelClassSpecC2ERKS0_RK4QMapI7QString8QVariantE@Base 0.9.1
 _ZN2Tp16ChannelClassSpecC2Ev@Base 0.9.1
 _ZN2Tp16ChannelClassSpecD1Ev@Base 0.9.1
 _ZN2Tp16ChannelClassSpecD2Ev@Base 0.9.1
 _ZN2Tp16ChannelClassSpecaSERKS0_@Base 0.9.1
 (optional=inline|arch=amd64 i386 sparc)_ZN2Tp16ContactInfoFieldC1ERKS0_@Base 0.9.1
 (optional=inline|arch=amd64 i386 sparc)_ZN2Tp16ContactInfoFieldC2ERKS0_@Base 0.9.1
 (optional=inline)_ZN2Tp16ContactInfoFieldD1Ev@Base 0.9.1
 (optional=inline)_ZN2Tp16ContactInfoFieldD2Ev@Base 0.9.1
 _ZN2Tp16ContactMessenger11messageSentERKNS_7MessageE6QFlagsINS_18MessageSendingFlagEERK7QStringRKNS_9SharedPtrINS_11TextChannelEEE@Base 0.9.1
 _ZN2Tp16ContactMessenger11qt_metacallEN11QMetaObject4CallEiPPv@Base 0.9.1
 _ZN2Tp16ContactMessenger11qt_metacastEPKc@Base 0.9.1
 _ZN2Tp16ContactMessenger11sendMessageERK7QStringNS_22ChannelTextMessageTypeE6QFlagsINS_18MessageSendingFlagEE@Base 0.9.1
 _ZN2Tp16ContactMessenger11sendMessageERKNS_22MessageContentPartListE6QFlagsINS_18MessageSendingFlagEE@Base 0.9.1
 _ZN2Tp16ContactMessenger15messageReceivedERKNS_15ReceivedMessageERKNS_9SharedPtrINS_11TextChannelEEE@Base 0.9.1
 _ZN2Tp16ContactMessenger16staticMetaObjectE@Base 0.9.1
 _ZN2Tp16ContactMessenger6createERKNS_9SharedPtrINS_7AccountEEERK7QString@Base 0.9.1
 _ZN2Tp16ContactMessenger6createERKNS_9SharedPtrINS_7AccountEEERKNS1_INS_7ContactEEE@Base 0.9.1
 _ZN2Tp16ContactMessengerD0Ev@Base 0.9.1
 _ZN2Tp16ContactMessengerD1Ev@Base 0.9.1
 _ZN2Tp16ContactMessengerD2Ev@Base 0.9.1
 (optional=inline|arch=sparc)_ZN2Tp16ContactSearchMapD1Ev@Base 0.9.1
 (optional=inline|arch=sparc)_ZN2Tp16ContactSearchMapD2Ev@Base 0.9.1
 _ZN2Tp16DBusProxyFactory11qt_metacallEN11QMetaObject4CallEiPPv@Base 0.9.1
 _ZN2Tp16DBusProxyFactory11qt_metacastEPKc@Base 0.9.1
 _ZN2Tp16DBusProxyFactory16staticMetaObjectE@Base 0.9.1
 _ZN2Tp16DBusProxyFactoryC1ERK15QDBusConnection@Base 0.9.1
 _ZN2Tp16DBusProxyFactoryC2ERK15QDBusConnection@Base 0.9.1
 _ZN2Tp16DBusProxyFactoryD0Ev@Base 0.9.1
 _ZN2Tp16DBusProxyFactoryD1Ev@Base 0.9.1
 _ZN2Tp16DBusProxyFactoryD2Ev@Base 0.9.1
 (optional=inline|arch=amd64 i386)_ZN2Tp16LocalPendingInfoD1Ev@Base 0.9.1
 (optional=inline|arch=amd64 i386)_ZN2Tp16LocalPendingInfoD2Ev@Base 0.9.1
 _ZN2Tp16PendingComposite11qt_metacallEN11QMetaObject4CallEiPPv@Base 0.9.1
 _ZN2Tp16PendingComposite11qt_metacastEPKc@Base 0.9.1
 _ZN2Tp16PendingComposite16staticMetaObjectE@Base 0.9.1
 _ZN2Tp16PendingCompositeC1ERK5QListIPNS_16PendingOperationEERKNS_9SharedPtrINS_10RefCountedEEE@Base 0.9.1
 _ZN2Tp16PendingCompositeC1ERK5QListIPNS_16PendingOperationEEbRKNS_9SharedPtrINS_10RefCountedEEE@Base 0.9.1
 _ZN2Tp16PendingCompositeC2ERK5QListIPNS_16PendingOperationEERKNS_9SharedPtrINS_10RefCountedEEE@Base 0.9.1
 _ZN2Tp16PendingCompositeC2ERK5QListIPNS_16PendingOperationEEbRKNS_9SharedPtrINS_10RefCountedEEE@Base 0.9.1
 _ZN2Tp16PendingCompositeD0Ev@Base 0.9.1
 _ZN2Tp16PendingCompositeD1Ev@Base 0.9.1
 _ZN2Tp16PendingCompositeD2Ev@Base 0.9.1
 _ZN2Tp16PendingOperation11qt_metacallEN11QMetaObject4CallEiPPv@Base 0.9.1
 _ZN2Tp16PendingOperation11qt_metacastEPKc@Base 0.9.1
 _ZN2Tp16PendingOperation11setFinishedEv@Base 0.9.1
 _ZN2Tp16PendingOperation16staticMetaObjectE@Base 0.9.1
 _ZN2Tp16PendingOperation20setFinishedWithErrorERK10QDBusError@Base 0.9.1
 _ZN2Tp16PendingOperation20setFinishedWithErrorERK7QStringS3_@Base 0.9.1
 _ZN2Tp16PendingOperation8finishedEPS0_@Base 0.9.1
 _ZN2Tp16PendingOperationC1ERKNS_9SharedPtrINS_10RefCountedEEE@Base 0.9.1
 _ZN2Tp16PendingOperationC2ERKNS_9SharedPtrINS_10RefCountedEEE@Base 0.9.1
 _ZN2Tp16PendingOperationD0Ev@Base 0.9.1
 _ZN2Tp16PendingOperationD1Ev@Base 0.9.1
 _ZN2Tp16PendingOperationD2Ev@Base 0.9.1
 (optional=inline|arch=!amd64 !i386)_ZN2Tp16PresenceSpecListD1Ev@Base 0.9.1
 (optional=inline|arch=!amd64 !i386)_ZN2Tp16PresenceSpecListD2Ev@Base 0.9.1
 (optional=inline|arch=amd64 i386)_ZN2Tp16ServicePointInfoC1ERKS0_@Base 0.9.1
 (optional=inline|arch=amd64 i386)_ZN2Tp16ServicePointInfoC2ERKS0_@Base 0.9.1
 (optional=inline)_ZN2Tp16ServicePointInfoD1Ev@Base 0.9.1
 (optional=inline)_ZN2Tp16ServicePointInfoD2Ev@Base 0.9.1
 _ZN2Tp16StreamTubeClient10tubeClosedERKNS_9SharedPtrINS_7AccountEEERKNS1_INS_25IncomingStreamTubeChannelEEERK7QStringSC_@Base 0.9.1
 _ZN2Tp16StreamTubeClient11qt_metacallEN11QMetaObject4CallEiPPv@Base 0.9.1
 _ZN2Tp16StreamTubeClient11qt_metacastEPKc@Base 0.9.1
 _ZN2Tp16StreamTubeClient11tubeOfferedERKNS_9SharedPtrINS_7AccountEEERKNS1_INS_25IncomingStreamTubeChannelEEE@Base 0.9.1
 _ZN2Tp16StreamTubeClient13newConnectionERKNS_9SharedPtrINS_7AccountEEERKNS1_INS_25IncomingStreamTubeChannelEEEj@Base 0.9.1
 _ZN2Tp16StreamTubeClient16connectionClosedERKNS_9SharedPtrINS_7AccountEEERKNS1_INS_25IncomingStreamTubeChannelEEEjRK7QStringSC_@Base 0.9.1
 _ZN2Tp16StreamTubeClient16setToAcceptAsTcpEPNS0_25TcpSourceAddressGeneratorE@Base 0.9.1
 _ZN2Tp16StreamTubeClient16staticMetaObjectE@Base 0.9.1
 _ZN2Tp16StreamTubeClient17setToAcceptAsUnixEb@Base 0.9.1
 _ZN2Tp16StreamTubeClient17tubeAcceptedAsTcpERK12QHostAddresstS3_tRKNS_9SharedPtrINS_7AccountEEERKNS4_INS_25IncomingStreamTubeChannelEEE@Base 0.9.1
 _ZN2Tp16StreamTubeClient18tubeAcceptedAsUnixERK7QStringbhRKNS_9SharedPtrINS_7AccountEEERKNS4_INS_25IncomingStreamTubeChannelEEE@Base 0.9.1
 _ZN2Tp16StreamTubeClient4TubeC1ERKNS_9SharedPtrINS_7AccountEEERKNS2_INS_25IncomingStreamTubeChannelEEE@Base 0.9.1
 _ZN2Tp16StreamTubeClient4TubeC1ERKS1_@Base 0.9.1
 _ZN2Tp16StreamTubeClient4TubeC1Ev@Base 0.9.1
 _ZN2Tp16StreamTubeClient4TubeC2ERKNS_9SharedPtrINS_7AccountEEERKNS2_INS_25IncomingStreamTubeChannelEEE@Base 0.9.1
 _ZN2Tp16StreamTubeClient4TubeC2ERKS1_@Base 0.9.1
 _ZN2Tp16StreamTubeClient4TubeC2Ev@Base 0.9.1
 _ZN2Tp16StreamTubeClient4TubeD1Ev@Base 0.9.1
 _ZN2Tp16StreamTubeClient4TubeD2Ev@Base 0.9.1
 _ZN2Tp16StreamTubeClient4TubeaSERKS1_@Base 0.9.1
 _ZN2Tp16StreamTubeClient6createERK11QStringListS3_RK7QStringbbRKNS_9SharedPtrIKNS_14AccountFactoryEEERKNS7_IKNS_17ConnectionFactoryEEERKNS7_IKNS_14ChannelFactoryEEERKNS7_IKNS_14ContactFactoryEEE@Base 0.9.1
 _ZN2Tp16StreamTubeClient6createERK15QDBusConnectionRKNS_9SharedPtrIKNS_14AccountFactoryEEERKNS4_IKNS_17ConnectionFactoryEEERKNS4_IKNS_14ChannelFactoryEEERKNS4_IKNS_14ContactFactoryEEERK11QStringListSR_RK7QStringbb@Base 0.9.1
 _ZN2Tp16StreamTubeClient6createERKNS_9SharedPtrINS_14AccountManagerEEERK11QStringListS8_RK7QStringbb@Base 0.9.1
 _ZN2Tp16StreamTubeClient6createERKNS_9SharedPtrINS_15ClientRegistrarEEERK11QStringListS8_RK7QStringbb@Base 0.9.1
 _ZN2Tp16StreamTubeClientD0Ev@Base 0.9.1
 _ZN2Tp16StreamTubeClientD1Ev@Base 0.9.1
 _ZN2Tp16StreamTubeClientD2Ev@Base 0.9.1
 _ZN2Tp16StreamTubeServer10tubeClosedERKNS_9SharedPtrINS_7AccountEEERKNS1_INS_25OutgoingStreamTubeChannelEEERK7QStringSC_@Base 0.9.1
 _ZN2Tp16StreamTubeServer11qt_metacallEN11QMetaObject4CallEiPPv@Base 0.9.1
 _ZN2Tp16StreamTubeServer11qt_metacastEPKc@Base 0.9.1
 _ZN2Tp16StreamTubeServer13RemoteContactC1ERKNS_9SharedPtrINS_7AccountEEERKNS2_INS_7ContactEEE@Base 0.9.1
 _ZN2Tp16StreamTubeServer13RemoteContactC1ERKS1_@Base 0.9.1
 _ZN2Tp16StreamTubeServer13RemoteContactC1Ev@Base 0.9.1
 _ZN2Tp16StreamTubeServer13RemoteContactC2ERKNS_9SharedPtrINS_7AccountEEERKNS2_INS_7ContactEEE@Base 0.9.1
 _ZN2Tp16StreamTubeServer13RemoteContactC2ERKS1_@Base 0.9.1
 _ZN2Tp16StreamTubeServer13RemoteContactC2Ev@Base 0.9.1
 _ZN2Tp16StreamTubeServer13RemoteContactD1Ev@Base 0.9.1
 _ZN2Tp16StreamTubeServer13RemoteContactD2Ev@Base 0.9.1
 _ZN2Tp16StreamTubeServer13RemoteContactaSERKS1_@Base 0.9.1
 _ZN2Tp16StreamTubeServer13tubeRequestedERKNS_9SharedPtrINS_7AccountEEERKNS1_INS_25OutgoingStreamTubeChannelEEERK9QDateTimeRKNS_19ChannelRequestHintsE@Base 0.9.1
 _ZN2Tp16StreamTubeServer15exportTcpSocketEPK10QTcpServerPNS0_19ParametersGeneratorE@Base 0.9.1
 _ZN2Tp16StreamTubeServer15exportTcpSocketEPK10QTcpServerRK4QMapI7QString8QVariantE@Base 0.9.1
 _ZN2Tp16StreamTubeServer15exportTcpSocketERK12QHostAddresstPNS0_19ParametersGeneratorE@Base 0.9.1
 _ZN2Tp16StreamTubeServer15exportTcpSocketERK12QHostAddresstRK4QMapI7QString8QVariantE@Base 0.9.1
 _ZN2Tp16StreamTubeServer16newTcpConnectionERK12QHostAddresstRKNS_9SharedPtrINS_7AccountEEERKNS4_INS_7ContactEEERKNS4_INS_25OutgoingStreamTubeChannelEEE@Base 0.9.1
 _ZN2Tp16StreamTubeServer16staticMetaObjectE@Base 0.9.1
 _ZN2Tp16StreamTubeServer19tcpConnectionClosedERK12QHostAddresstRKNS_9SharedPtrINS_7AccountEEERKNS4_INS_7ContactEEERK7QStringSF_RKNS4_INS_25OutgoingStreamTubeChannelEEE@Base 0.9.1
 _ZN2Tp16StreamTubeServer4TubeC1ERKNS_9SharedPtrINS_7AccountEEERKNS2_INS_25OutgoingStreamTubeChannelEEE@Base 0.9.1
 _ZN2Tp16StreamTubeServer4TubeC1ERKS1_@Base 0.9.1
 _ZN2Tp16StreamTubeServer4TubeC1Ev@Base 0.9.1
 _ZN2Tp16StreamTubeServer4TubeC2ERKNS_9SharedPtrINS_7AccountEEERKNS2_INS_25OutgoingStreamTubeChannelEEE@Base 0.9.1
 _ZN2Tp16StreamTubeServer4TubeC2ERKS1_@Base 0.9.1
 _ZN2Tp16StreamTubeServer4TubeC2Ev@Base 0.9.1
 _ZN2Tp16StreamTubeServer4TubeD1Ev@Base 0.9.1
 _ZN2Tp16StreamTubeServer4TubeD2Ev@Base 0.9.1
 _ZN2Tp16StreamTubeServer4TubeaSERKS1_@Base 0.9.1
 _ZN2Tp16StreamTubeServer6createERK11QStringListS3_RK7QStringbRKNS_9SharedPtrIKNS_14AccountFactoryEEERKNS7_IKNS_17ConnectionFactoryEEERKNS7_IKNS_14ChannelFactoryEEERKNS7_IKNS_14ContactFactoryEEE@Base 0.9.1
 _ZN2Tp16StreamTubeServer6createERK15QDBusConnectionRKNS_9SharedPtrIKNS_14AccountFactoryEEERKNS4_IKNS_17ConnectionFactoryEEERKNS4_IKNS_14ChannelFactoryEEERKNS4_IKNS_14ContactFactoryEEERK11QStringListSR_RK7QStringb@Base 0.9.1
 _ZN2Tp16StreamTubeServer6createERKNS_9SharedPtrINS_14AccountManagerEEERK11QStringListS8_RK7QStringb@Base 0.9.1
 _ZN2Tp16StreamTubeServer6createERKNS_9SharedPtrINS_15ClientRegistrarEEERK11QStringListS8_RK7QStringb@Base 0.9.1
 _ZN2Tp16StreamTubeServerD0Ev@Base 0.9.1
 _ZN2Tp16StreamTubeServerD1Ev@Base 0.9.1
 _ZN2Tp16StreamTubeServerD2Ev@Base 0.9.1
 (optional=inline|arch=!armhf !ia64 !sparc)_ZN2Tp16StringVariantMapD1Ev@Base 0.9.1
 (optional=inline|arch=!armhf !ia64 !sparc)_ZN2Tp16StringVariantMapD2Ev@Base 0.9.1
 _ZN2Tp16setDebugCallbackEPFvRK7QStringS2_9QtMsgTypeS2_E@Base 0.9.1
 _ZN2Tp17AbstractInterface10invalidateEPNS_9DBusProxyERK7QStringS5_@Base 0.9.1
 _ZN2Tp17AbstractInterface11qt_metacallEN11QMetaObject4CallEiPPv@Base 0.9.1
 _ZN2Tp17AbstractInterface11qt_metacastEPKc@Base 0.9.1
 _ZN2Tp17AbstractInterface16staticMetaObjectE@Base 0.9.1
 _ZN2Tp17AbstractInterface17propertiesChangedERK4QMapI7QString8QVariantERK11QStringList@Base 0.9.1
 _ZN2Tp17AbstractInterface19internalSetPropertyERK7QStringRK8QVariant@Base 0.9.1
 _ZN2Tp17AbstractInterface20setMonitorPropertiesEb@Base 0.9.1
 _ZN2Tp17AbstractInterfaceC1EPNS_9DBusProxyERK13QLatin1String@Base 0.9.1
 _ZN2Tp17AbstractInterfaceC1ERK7QStringS3_RK13QLatin1StringRK15QDBusConnectionP7QObject@Base 0.9.1
 _ZN2Tp17AbstractInterfaceC2EPNS_9DBusProxyERK13QLatin1String@Base 0.9.1
 _ZN2Tp17AbstractInterfaceC2ERK7QStringS3_RK13QLatin1StringRK15QDBusConnectionP7QObject@Base 0.9.1
 _ZN2Tp17AbstractInterfaceD0Ev@Base 0.9.1
 _ZN2Tp17AbstractInterfaceD1Ev@Base 0.9.1
 _ZN2Tp17AbstractInterfaceD2Ev@Base 0.9.1
 _ZN2Tp17ConnectionFactory6createERK15QDBusConnectionRKNS_8FeaturesE@Base 0.9.1
 _ZN2Tp17ConnectionFactoryC1ERK15QDBusConnectionRKNS_8FeaturesE@Base 0.9.1
 _ZN2Tp17ConnectionFactoryC2ERK15QDBusConnectionRKNS_8FeaturesE@Base 0.9.1
 _ZN2Tp17ConnectionFactoryD0Ev@Base 0.9.1
 _ZN2Tp17ConnectionFactoryD1Ev@Base 0.9.1
 _ZN2Tp17ConnectionFactoryD2Ev@Base 0.9.1
 _ZN2Tp17ConnectionManager11FeatureCoreE@Base 0.9.1
 _ZN2Tp17ConnectionManager11qt_metacallEN11QMetaObject4CallEiPPv@Base 0.9.1
 _ZN2Tp17ConnectionManager11qt_metacastEPKc@Base 0.9.1
 _ZN2Tp17ConnectionManager16staticMetaObjectE@Base 0.9.1
 _ZN2Tp17ConnectionManager6createERK15QDBusConnectionRK7QString@Base 0.9.1
 _ZN2Tp17ConnectionManager6createERK15QDBusConnectionRK7QStringRKNS_9SharedPtrIKNS_17ConnectionFactoryEEERKNS7_IKNS_14ChannelFactoryEEERKNS7_IKNS_14ContactFactoryEEE@Base 0.9.1
 _ZN2Tp17ConnectionManager6createERK7QStringRKNS_9SharedPtrIKNS_17ConnectionFactoryEEERKNS4_IKNS_14ChannelFactoryEEERKNS4_IKNS_14ContactFactoryEEE@Base 0.9.1
 _ZN2Tp17ConnectionManager8lowlevelEv@Base 0.9.1
 _ZN2Tp17ConnectionManager9listNamesERK15QDBusConnection@Base 0.9.1
 _ZN2Tp17ConnectionManagerC1ERK15QDBusConnectionRK7QStringRKNS_9SharedPtrIKNS_17ConnectionFactoryEEERKNS7_IKNS_14ChannelFactoryEEERKNS7_IKNS_14ContactFactoryEEE@Base 0.9.1
 _ZN2Tp17ConnectionManagerC2ERK15QDBusConnectionRK7QStringRKNS_9SharedPtrIKNS_17ConnectionFactoryEEERKNS7_IKNS_14ChannelFactoryEEERKNS7_IKNS_14ContactFactoryEEE@Base 0.9.1
 _ZN2Tp17ConnectionManagerD0Ev@Base 0.9.1
 _ZN2Tp17ConnectionManagerD1Ev@Base 0.9.1
 _ZN2Tp17ConnectionManagerD2Ev@Base 0.9.1
 (optional=inline|arch=amd64 i386)_ZN2Tp17ContactCapabilityD1Ev@Base 0.9.1
 (optional=inline|arch=amd64 i386)_ZN2Tp17ContactCapabilityD2Ev@Base 0.9.1
 (optional=inline|arch=amd64 i386)_ZN2Tp17MultipleStatusMapD1Ev@Base 0.9.1
 (optional=inline|arch=amd64 i386)_ZN2Tp17MultipleStatusMapD2Ev@Base 0.9.1
 (optional=inline|arch=amd64 i386)_ZN2Tp17NotDelegatedErrorD1Ev@Base 0.9.1
 (optional=inline|arch=amd64 i386)_ZN2Tp17NotDelegatedErrorD2Ev@Base 0.9.1
 _ZN2Tp17PendingConnection11qt_metacallEN11QMetaObject4CallEiPPv@Base 0.9.1
 _ZN2Tp17PendingConnection11qt_metacastEPKc@Base 0.9.1
 _ZN2Tp17PendingConnection16staticMetaObjectE@Base 0.9.1
 _ZN2Tp17PendingConnectionD0Ev@Base 0.9.1
 _ZN2Tp17PendingConnectionD1Ev@Base 0.9.1
 _ZN2Tp17PendingConnectionD2Ev@Base 0.9.1
 _ZN2Tp17PendingStringList11qt_metacallEN11QMetaObject4CallEiPPv@Base 0.9.1
 _ZN2Tp17PendingStringList11qt_metacastEPKc@Base 0.9.1
 _ZN2Tp17PendingStringList16staticMetaObjectE@Base 0.9.1
 _ZN2Tp17PendingStringList9setResultERK11QStringList@Base 0.9.1
 _ZN2Tp17PendingStringListC1E16QDBusPendingCallRKNS_9SharedPtrINS_10RefCountedEEE@Base 0.9.1
 _ZN2Tp17PendingStringListC1ERKNS_9SharedPtrINS_10RefCountedEEE@Base 0.9.1
 _ZN2Tp17PendingStringListC2E16QDBusPendingCallRKNS_9SharedPtrINS_10RefCountedEEE@Base 0.9.1
 _ZN2Tp17PendingStringListC2ERKNS_9SharedPtrINS_10RefCountedEEE@Base 0.9.1
 _ZN2Tp17PendingStringListD0Ev@Base 0.9.1
 _ZN2Tp17PendingStringListD1Ev@Base 0.9.1
 _ZN2Tp17PendingStringListD2Ev@Base 0.9.1
 _ZN2Tp17PendingVariantMap11qt_metacallEN11QMetaObject4CallEiPPv@Base 0.9.1
 _ZN2Tp17PendingVariantMap11qt_metacastEPKc@Base 0.9.1
 _ZN2Tp17PendingVariantMap16staticMetaObjectE@Base 0.9.1
 _ZN2Tp17PendingVariantMapC1E16QDBusPendingCallRKNS_9SharedPtrINS_10RefCountedEEE@Base 0.9.1
 _ZN2Tp17PendingVariantMapC2E16QDBusPendingCallRKNS_9SharedPtrINS_10RefCountedEEE@Base 0.9.1
 _ZN2Tp17PendingVariantMapD0Ev@Base 0.9.1
 _ZN2Tp17PendingVariantMapD1Ev@Base 0.9.1
 _ZN2Tp17PendingVariantMapD2Ev@Base 0.9.1
 _ZN2Tp17ProtocolParameterC1ERKS0_@Base 0.9.1
 _ZN2Tp17ProtocolParameterC1Ev@Base 0.9.1
 _ZN2Tp17ProtocolParameterC2ERKS0_@Base 0.9.1
 _ZN2Tp17ProtocolParameterC2Ev@Base 0.9.1
 _ZN2Tp17ProtocolParameterD1Ev@Base 0.9.1
 _ZN2Tp17ProtocolParameterD2Ev@Base 0.9.1
 _ZN2Tp17ProtocolParameteraSERKS0_@Base 0.9.1
 _ZN2Tp17ReferencedHandles4moveEii@Base 0.9.1
 _ZN2Tp17ReferencedHandles4swapEii@Base 0.9.1
 _ZN2Tp17ReferencedHandles5clearEv@Base 0.9.1
 _ZN2Tp17ReferencedHandles6takeAtEi@Base 0.9.1
 _ZN2Tp17ReferencedHandles8removeAtEi@Base 0.9.1
 _ZN2Tp17ReferencedHandles9removeAllEj@Base 0.9.1
 _ZN2Tp17ReferencedHandles9removeOneEj@Base 0.9.1
 _ZN2Tp17ReferencedHandlesC1ERKS0_@Base 0.9.1
 _ZN2Tp17ReferencedHandlesC1Ev@Base 0.9.1
 _ZN2Tp17ReferencedHandlesC2ERKS0_@Base 0.9.1
 _ZN2Tp17ReferencedHandlesC2Ev@Base 0.9.1
 _ZN2Tp17ReferencedHandlesD1Ev@Base 0.9.1
 _ZN2Tp17ReferencedHandlesD2Ev@Base 0.9.1
 _ZN2Tp17ReferencedHandlesaSERKS0_@Base 0.9.1
 (optional=inline|arch=amd64 i386)_ZN2Tp17SocketAddressIPv4D1Ev@Base 0.9.1
 (optional=inline|arch=amd64 i386)_ZN2Tp17SocketAddressIPv4D2Ev@Base 0.9.1
 (optional=inline|arch=amd64 i386)_ZN2Tp17SocketAddressIPv6D1Ev@Base 0.9.1
 (optional=inline|arch=amd64 i386)_ZN2Tp17SocketAddressIPv6D2Ev@Base 0.9.1
 _ZN2Tp17StatefulDBusProxy11qt_metacallEN11QMetaObject4CallEiPPv@Base 0.9.1
 _ZN2Tp17StatefulDBusProxy11qt_metacastEPKc@Base 0.9.1
 _ZN2Tp17StatefulDBusProxy14uniqueNameFromERK15QDBusConnectionRK7QString@Base 0.9.1
 _ZN2Tp17StatefulDBusProxy14uniqueNameFromERK15QDBusConnectionRK7QStringRS4_S7_@Base 0.9.1
 _ZN2Tp17StatefulDBusProxy16staticMetaObjectE@Base 0.9.1
 _ZN2Tp17StatefulDBusProxyC1ERK15QDBusConnectionRK7QStringS6_RKNS_7FeatureE@Base 0.9.1
 _ZN2Tp17StatefulDBusProxyC2ERK15QDBusConnectionRK7QStringS6_RKNS_7FeatureE@Base 0.9.1
 _ZN2Tp17StatefulDBusProxyD0Ev@Base 0.9.1
 _ZN2Tp17StatefulDBusProxyD1Ev@Base 0.9.1
 _ZN2Tp17StatefulDBusProxyD2Ev@Base 0.9.1
 _ZN2Tp17StreamTubeChannel11FeatureCoreE@Base 0.9.1
 _ZN2Tp17StreamTubeChannel11qt_metacallEN11QMetaObject4CallEiPPv@Base 0.9.1
 _ZN2Tp17StreamTubeChannel11qt_metacastEPKc@Base 0.9.1
 _ZN2Tp17StreamTubeChannel12setIpAddressERK5QPairI12QHostAddresstE@Base 0.9.1
 _ZN2Tp17StreamTubeChannel13addConnectionEj@Base 0.9.1
 _ZN2Tp17StreamTubeChannel13newConnectionEj@Base 0.9.1
 _ZN2Tp17StreamTubeChannel14setAddressTypeENS_17SocketAddressTypeE@Base 0.9.1
 _ZN2Tp17StreamTubeChannel15setLocalAddressERK7QString@Base 0.9.1
 _ZN2Tp17StreamTubeChannel16connectionClosedEjRK7QStringS3_@Base 0.9.1
 _ZN2Tp17StreamTubeChannel16removeConnectionEjRK7QStringS3_@Base 0.9.1
 _ZN2Tp17StreamTubeChannel16setAccessControlENS_19SocketAccessControlE@Base 0.9.1
 _ZN2Tp17StreamTubeChannel16staticMetaObjectE@Base 0.9.1
 _ZN2Tp17StreamTubeChannel27FeatureConnectionMonitoringE@Base 0.9.1
 _ZN2Tp17StreamTubeChannel6createERKNS_9SharedPtrINS_10ConnectionEEERK7QStringRK4QMapIS6_8QVariantE@Base 0.9.1
 _ZN2Tp17StreamTubeChannelC1ERKNS_9SharedPtrINS_10ConnectionEEERK7QStringRK4QMapIS6_8QVariantERKNS_7FeatureE@Base 0.9.1
 _ZN2Tp17StreamTubeChannelC2ERKNS_9SharedPtrINS_10ConnectionEEERK7QStringRK4QMapIS6_8QVariantERKNS_7FeatureE@Base 0.9.1
 _ZN2Tp17StreamTubeChannelD0Ev@Base 0.9.1
 _ZN2Tp17StreamTubeChannelD1Ev@Base 0.9.1
 _ZN2Tp17StreamTubeChannelD2Ev@Base 0.9.1
 _ZN2Tp18ConnectionLowlevel11qt_metacallEN11QMetaObject4CallEiPPv@Base 0.9.1
 _ZN2Tp18ConnectionLowlevel11qt_metacastEPKc@Base 0.9.1
 _ZN2Tp18ConnectionLowlevel13createChannelERK4QMapI7QString8QVariantE@Base 0.9.1
 _ZN2Tp18ConnectionLowlevel13createChannelERK4QMapI7QString8QVariantEi@Base 0.9.1
 _ZN2Tp18ConnectionLowlevel13ensureChannelERK4QMapI7QString8QVariantE@Base 0.9.1
 _ZN2Tp18ConnectionLowlevel13ensureChannelERK4QMapI7QString8QVariantEi@Base 0.9.1
 _ZN2Tp18ConnectionLowlevel14requestConnectERKNS_8FeaturesE@Base 0.9.1
 _ZN2Tp18ConnectionLowlevel14requestHandlesENS_10HandleTypeERK11QStringList@Base 0.9.1
 _ZN2Tp18ConnectionLowlevel15injectContactIdEjRK7QString@Base 0.9.1
 _ZN2Tp18ConnectionLowlevel15setSelfPresenceERK7QStringS3_@Base 0.9.1
 _ZN2Tp18ConnectionLowlevel16injectContactIdsERKNS_19HandleIdentifierMapE@Base 0.9.1
 _ZN2Tp18ConnectionLowlevel16referenceHandlesENS_10HandleTypeERKNS_8UIntListE@Base 0.9.1
 _ZN2Tp18ConnectionLowlevel16staticMetaObjectE@Base 0.9.1
 _ZN2Tp18ConnectionLowlevel17contactAttributesERKNS_8UIntListERK11QStringListb@Base 0.9.1
 _ZN2Tp18ConnectionLowlevel17requestDisconnectEv@Base 0.9.1
 _ZN2Tp18ConnectionLowlevelD0Ev@Base 0.9.1
 _ZN2Tp18ConnectionLowlevelD1Ev@Base 0.9.1
 _ZN2Tp18ConnectionLowlevelD2Ev@Base 0.9.1
 _ZN2Tp18MessageContentPartC1ERKNS_11MessagePartE@Base 0.9.1
 _ZN2Tp18MessageContentPartC1ERKS0_@Base 0.9.1
 _ZN2Tp18MessageContentPartC1Ev@Base 0.9.1
 _ZN2Tp18MessageContentPartC2ERKNS_11MessagePartE@Base 0.9.1
 _ZN2Tp18MessageContentPartC2ERKS0_@Base 0.9.1
 _ZN2Tp18MessageContentPartC2Ev@Base 0.9.1
 _ZN2Tp18MessageContentPartD1Ev@Base 0.9.1
 _ZN2Tp18MessageContentPartD2Ev@Base 0.9.1
 _ZN2Tp18MessageContentPartaSERKS0_@Base 0.9.1
 _ZN2Tp18PendingCallContent11qt_metacallEN11QMetaObject4CallEiPPv@Base 0.9.1
 _ZN2Tp18PendingCallContent11qt_metacastEPKc@Base 0.9.1
 _ZN2Tp18PendingCallContent16staticMetaObjectE@Base 0.9.1
 _ZN2Tp18PendingCallContentD0Ev@Base 0.9.1
 _ZN2Tp18PendingCallContentD1Ev@Base 0.9.1
 _ZN2Tp18PendingCallContentD2Ev@Base 0.9.1
 _ZN2Tp18PendingContactInfo11qt_metacallEN11QMetaObject4CallEiPPv@Base 0.9.1
 _ZN2Tp18PendingContactInfo11qt_metacastEPKc@Base 0.9.1
 _ZN2Tp18PendingContactInfo16staticMetaObjectE@Base 0.9.1
 _ZN2Tp18PendingContactInfoD0Ev@Base 0.9.1
 _ZN2Tp18PendingContactInfoD1Ev@Base 0.9.1
 _ZN2Tp18PendingContactInfoD2Ev@Base 0.9.1
 _ZN2Tp18PendingSendMessage11qt_metacallEN11QMetaObject4CallEiPPv@Base 0.9.1
 _ZN2Tp18PendingSendMessage11qt_metacastEPKc@Base 0.9.1
 _ZN2Tp18PendingSendMessage16staticMetaObjectE@Base 0.9.1
 _ZN2Tp18PendingSendMessageD0Ev@Base 0.9.1
 _ZN2Tp18PendingSendMessageD1Ev@Base 0.9.1
 _ZN2Tp18PendingSendMessageD2Ev@Base 0.9.1
 (optional=inline|arch=amd64 i386)_ZN2Tp18PendingTextMessageD1Ev@Base 0.9.1
 (optional=inline|arch=amd64 i386)_ZN2Tp18PendingTextMessageD2Ev@Base 0.9.1
 (optional=inline|arch=amd64 i386)_ZN2Tp18RTPHeaderExtensionC1ERKS0_@Base 0.9.1
 (optional=inline|arch=amd64 i386)_ZN2Tp18RTPHeaderExtensionC2ERKS0_@Base 0.9.1
 (optional=inline)_ZN2Tp18RTPHeaderExtensionD1Ev@Base 0.9.1
 (optional=inline)_ZN2Tp18RTPHeaderExtensionD2Ev@Base 0.9.1
 _ZN2Tp18SimpleCallObserver11qt_metacallEN11QMetaObject4CallEiPPv@Base 0.9.1
 _ZN2Tp18SimpleCallObserver11qt_metacastEPKc@Base 0.9.1
 _ZN2Tp18SimpleCallObserver16staticMetaObjectE@Base 0.9.1
 _ZN2Tp18SimpleCallObserver22streamedMediaCallEndedERKNS_9SharedPtrINS_20StreamedMediaChannelEEERK7QStringS8_@Base 0.9.1
 _ZN2Tp18SimpleCallObserver24streamedMediaCallStartedERKNS_9SharedPtrINS_20StreamedMediaChannelEEE@Base 0.9.1
 _ZN2Tp18SimpleCallObserver6createERKNS_9SharedPtrINS_7AccountEEENS0_13CallDirectionE@Base 0.9.1
 _ZN2Tp18SimpleCallObserver6createERKNS_9SharedPtrINS_7AccountEEERK7QStringNS0_13CallDirectionE@Base 0.9.1
 _ZN2Tp18SimpleCallObserver6createERKNS_9SharedPtrINS_7AccountEEERKNS1_INS_7ContactEEENS0_13CallDirectionE@Base 0.9.1
 _ZN2Tp18SimpleCallObserverD0Ev@Base 0.9.1
 _ZN2Tp18SimpleCallObserverD1Ev@Base 0.9.1
 _ZN2Tp18SimpleCallObserverD2Ev@Base 0.9.1
 _ZN2Tp18SimpleTextObserver11messageSentERKNS_7MessageE6QFlagsINS_18MessageSendingFlagEERK7QStringRKNS_9SharedPtrINS_11TextChannelEEE@Base 0.9.1
 _ZN2Tp18SimpleTextObserver11qt_metacallEN11QMetaObject4CallEiPPv@Base 0.9.1
 _ZN2Tp18SimpleTextObserver11qt_metacastEPKc@Base 0.9.1
 _ZN2Tp18SimpleTextObserver15messageReceivedERKNS_15ReceivedMessageERKNS_9SharedPtrINS_11TextChannelEEE@Base 0.9.1
 _ZN2Tp18SimpleTextObserver16staticMetaObjectE@Base 0.9.1
 _ZN2Tp18SimpleTextObserver6createERKNS_9SharedPtrINS_7AccountEEE@Base 0.9.1
 _ZN2Tp18SimpleTextObserver6createERKNS_9SharedPtrINS_7AccountEEERK7QString@Base 0.9.1
 _ZN2Tp18SimpleTextObserver6createERKNS_9SharedPtrINS_7AccountEEERKNS1_INS_7ContactEEE@Base 0.9.1
 _ZN2Tp18SimpleTextObserverD0Ev@Base 0.9.1
 _ZN2Tp18SimpleTextObserverD1Ev@Base 0.9.1
 _ZN2Tp18SimpleTextObserverD2Ev@Base 0.9.1
 _ZN2Tp18StatelessDBusProxy11qt_metacallEN11QMetaObject4CallEiPPv@Base 0.9.1
 _ZN2Tp18StatelessDBusProxy11qt_metacastEPKc@Base 0.9.1
 _ZN2Tp18StatelessDBusProxy16staticMetaObjectE@Base 0.9.1
 _ZN2Tp18StatelessDBusProxyC1ERK15QDBusConnectionRK7QStringS6_RKNS_7FeatureE@Base 0.9.1
 _ZN2Tp18StatelessDBusProxyC2ERK15QDBusConnectionRK7QStringS6_RKNS_7FeatureE@Base 0.9.1
 _ZN2Tp18StatelessDBusProxyD0Ev@Base 0.9.1
 _ZN2Tp18StatelessDBusProxyD1Ev@Base 0.9.1
 _ZN2Tp18StatelessDBusProxyD2Ev@Base 0.9.1
 (optional=inline|arch=amd64 i386)_ZN2Tp18SupportedSocketMapD1Ev@Base 0.9.1
 (optional=inline|arch=amd64 i386)_ZN2Tp18SupportedSocketMapD2Ev@Base 0.9.1
 _ZN2Tp18escapeAsIdentifierERK7QString@Base 0.9.1
 _ZN2Tp19ChannelRequestHints7setHintERK7QStringS3_RK8QVariant@Base 0.9.1
 _ZN2Tp19ChannelRequestHintsC1ERK4QMapI7QString8QVariantE@Base 0.9.1
 _ZN2Tp19ChannelRequestHintsC1ERKS0_@Base 0.9.1
 _ZN2Tp19ChannelRequestHintsC1Ev@Base 0.9.1
 _ZN2Tp19ChannelRequestHintsC2ERK4QMapI7QString8QVariantE@Base 0.9.1
 _ZN2Tp19ChannelRequestHintsC2ERKS0_@Base 0.9.1
 _ZN2Tp19ChannelRequestHintsC2Ev@Base 0.9.1
 _ZN2Tp19ChannelRequestHintsD1Ev@Base 0.9.1
 _ZN2Tp19ChannelRequestHintsD2Ev@Base 0.9.1
 _ZN2Tp19ChannelRequestHintsaSERKS0_@Base 0.9.1
 _ZN2Tp19ContactCapabilitiesC1ERK5QListINS_23RequestableChannelClassEEb@Base 0.9.1
 _ZN2Tp19ContactCapabilitiesC1ERKNS_31RequestableChannelClassSpecListEb@Base 0.9.1
 _ZN2Tp19ContactCapabilitiesC1Eb@Base 0.9.1
 _ZN2Tp19ContactCapabilitiesC1Ev@Base 0.9.1
 _ZN2Tp19ContactCapabilitiesC2ERK5QListINS_23RequestableChannelClassEEb@Base 0.9.1
 _ZN2Tp19ContactCapabilitiesC2ERKNS_31RequestableChannelClassSpecListEb@Base 0.9.1
 _ZN2Tp19ContactCapabilitiesC2Eb@Base 0.9.1
 _ZN2Tp19ContactCapabilitiesC2Ev@Base 0.9.1
 _ZN2Tp19ContactCapabilitiesD0Ev@Base 0.9.1
 _ZN2Tp19ContactCapabilitiesD1Ev@Base 0.9.1
 _ZN2Tp19ContactCapabilitiesD2Ev@Base 0.9.1
 _ZN2Tp19FileTransferChannel11FeatureCoreE@Base 0.9.1
 _ZN2Tp19FileTransferChannel11qt_metacallEN11QMetaObject4CallEiPPv@Base 0.9.1
 _ZN2Tp19FileTransferChannel11qt_metacastEPKc@Base 0.9.1
 _ZN2Tp19FileTransferChannel11setFinishedEv@Base 0.9.1
 _ZN2Tp19FileTransferChannel12setConnectedEv@Base 0.9.1
 _ZN2Tp19FileTransferChannel12stateChangedENS_17FileTransferStateENS_29FileTransferStateChangeReasonE@Base 0.9.1
 _ZN2Tp19FileTransferChannel13connectToHostEv@Base 0.9.1
 _ZN2Tp19FileTransferChannel16staticMetaObjectE@Base 0.9.1
 _ZN2Tp19FileTransferChannel20initialOffsetDefinedEy@Base 0.9.1
 _ZN2Tp19FileTransferChannel23transferredBytesChangedEy@Base 0.9.1
 _ZN2Tp19FileTransferChannel6cancelEv@Base 0.9.1
 _ZN2Tp19FileTransferChannel6createERKNS_9SharedPtrINS_10ConnectionEEERK7QStringRK4QMapIS6_8QVariantE@Base 0.9.1
 _ZN2Tp19FileTransferChannelC1ERKNS_9SharedPtrINS_10ConnectionEEERK7QStringRK4QMapIS6_8QVariantERKNS_7FeatureE@Base 0.9.1
 _ZN2Tp19FileTransferChannelC2ERKNS_9SharedPtrINS_10ConnectionEEERK7QStringRK4QMapIS6_8QVariantERKNS_7FeatureE@Base 0.9.1
 _ZN2Tp19FileTransferChannelD0Ev@Base 0.9.1
 _ZN2Tp19FileTransferChannelD1Ev@Base 0.9.1
 _ZN2Tp19FileTransferChannelD2Ev@Base 0.9.1
 _ZN2Tp19FixedFeatureFactory10addFeatureERKNS_7FeatureE@Base 0.9.1
 _ZN2Tp19FixedFeatureFactory11addFeaturesERKNS_8FeaturesE@Base 0.9.1
 _ZN2Tp19FixedFeatureFactory11qt_metacallEN11QMetaObject4CallEiPPv@Base 0.9.1
 _ZN2Tp19FixedFeatureFactory11qt_metacastEPKc@Base 0.9.1
 _ZN2Tp19FixedFeatureFactory16staticMetaObjectE@Base 0.9.1
 _ZN2Tp19FixedFeatureFactoryC1ERK15QDBusConnection@Base 0.9.1
 _ZN2Tp19FixedFeatureFactoryC2ERK15QDBusConnection@Base 0.9.1
 _ZN2Tp19FixedFeatureFactoryD0Ev@Base 0.9.1
 _ZN2Tp19FixedFeatureFactoryD1Ev@Base 0.9.1
 _ZN2Tp19FixedFeatureFactoryD2Ev@Base 0.9.1
 (optional=inline|arch=amd64 i386 mips mipsel)_ZN2Tp19HandleIdentifierMapC1ERKS0_@Base 0.9.1
 (optional=inline|arch=amd64 i386 mips mipsel)_ZN2Tp19HandleIdentifierMapC2ERKS0_@Base 0.9.1
 (optional=inline)_ZN2Tp19HandleIdentifierMapD1Ev@Base 0.9.1
 (optional=inline)_ZN2Tp19HandleIdentifierMapD2Ev@Base 0.9.1
 (optional=inline|arch=amd64 i386)_ZN2Tp19HandlerCapabilitiesC1ERKS0_@Base 0.9.1
 (optional=inline|arch=amd64 i386)_ZN2Tp19HandlerCapabilitiesC2ERKS0_@Base 0.9.1
 (optional=inline)_ZN2Tp19HandlerCapabilitiesD1Ev@Base 0.9.1
 (optional=inline)_ZN2Tp19HandlerCapabilitiesD2Ev@Base 0.9.1
 (optional=inline|arch=amd64 i386)_ZN2Tp19RTCPFeedbackMessageC1ERKS0_@Base 0.9.1
 (optional=inline|arch=amd64 i386)_ZN2Tp19RTCPFeedbackMessageC2ERKS0_@Base 0.9.1
 (optional=inline)_ZN2Tp19RTCPFeedbackMessageD1Ev@Base 0.9.1
 (optional=inline)_ZN2Tp19RTCPFeedbackMessageD2Ev@Base 0.9.1
 (optional=inline|arch=amd64 i386)_ZN2Tp19SimpleStatusSpecMapC1ERKS0_@Base 0.9.1
 (optional=inline|arch=amd64 i386)_ZN2Tp19SimpleStatusSpecMapC2ERKS0_@Base 0.9.1
 (optional=inline)_ZN2Tp19SimpleStatusSpecMapD1Ev@Base 0.9.1
 (optional=inline)_ZN2Tp19SimpleStatusSpecMapD2Ev@Base 0.9.1
 _ZN2Tp19StreamedMediaStream11FeatureCoreE@Base 0.9.1
 _ZN2Tp19StreamedMediaStream11qt_metacallEN11QMetaObject4CallEiPPv@Base 0.9.1
 _ZN2Tp19StreamedMediaStream11qt_metacastEPKc@Base 0.9.1
 _ZN2Tp19StreamedMediaStream12stopDTMFToneEv@Base 0.9.1
 _ZN2Tp19StreamedMediaStream13startDTMFToneENS_9DTMFEventE@Base 0.9.1
 _ZN2Tp19StreamedMediaStream14requestSendingEb@Base 0.9.1
 _ZN2Tp19StreamedMediaStream16requestDirectionENS_20MediaStreamDirectionE@Base 0.9.1
 _ZN2Tp19StreamedMediaStream16requestDirectionEbb@Base 0.9.1
 _ZN2Tp19StreamedMediaStream16requestReceivingEb@Base 0.9.1
 _ZN2Tp19StreamedMediaStream16staticMetaObjectE@Base 0.9.1
 _ZN2Tp19StreamedMediaStream24localSendingStateChangedENS0_12SendingStateE@Base 0.9.1
 _ZN2Tp19StreamedMediaStream25remoteSendingStateChangedENS0_12SendingStateE@Base 0.9.1
 _ZN2Tp19StreamedMediaStreamD0Ev@Base 0.9.1
 _ZN2Tp19StreamedMediaStreamD1Ev@Base 0.9.1
 _ZN2Tp19StreamedMediaStreamD2Ev@Base 0.9.1
 (optional=inline|arch=!amd64 !i386)_ZN2Tp20ChannelClassSpecListD1Ev@Base 0.9.1
 (optional=inline|arch=!amd64 !i386)_ZN2Tp20ChannelClassSpecListD2Ev@Base 0.9.1
 (optional=inline|arch=amd64 i386)_ZN2Tp20ChannelOriginatorMapC1ERKS0_@Base 0.9.1
 (optional=inline|arch=amd64 i386)_ZN2Tp20ChannelOriginatorMapC2ERKS0_@Base 0.9.1
 (optional=inline|arch=amd64 i386)_ZN2Tp20ChannelOriginatorMapD1Ev@Base 0.9.1
 (optional=inline|arch=amd64 i386)_ZN2Tp20ChannelOriginatorMapD2Ev@Base 0.9.1
 (optional=inline|arch=amd64 i386)_ZN2Tp20ContactAttributesMapC1ERKS0_@Base 0.9.1
 (optional=inline|arch=amd64 i386)_ZN2Tp20ContactAttributesMapC2ERKS0_@Base 0.9.1
 (optional=inline|arch=amd64 i386)_ZN2Tp20ContactAttributesMapD1Ev@Base 0.9.1
 (optional=inline|arch=amd64 i386)_ZN2Tp20ContactAttributesMapD2Ev@Base 0.9.1
 _ZN2Tp20ContactSearchChannel10stopSearchEv@Base 0.9.1
 _ZN2Tp20ContactSearchChannel11FeatureCoreE@Base 0.9.1
 _ZN2Tp20ContactSearchChannel11qt_metacallEN11QMetaObject4CallEiPPv@Base 0.9.1
 _ZN2Tp20ContactSearchChannel11qt_metacastEPKc@Base 0.9.1
 _ZN2Tp20ContactSearchChannel14continueSearchEv@Base 0.9.1
 _ZN2Tp20ContactSearchChannel16staticMetaObjectE@Base 0.9.1
 _ZN2Tp20ContactSearchChannel18searchStateChangedENS_25ChannelContactSearchStateERK7QStringRKNS0_24SearchStateChangeDetailsE@Base 0.9.1
 _ZN2Tp20ContactSearchChannel20searchResultReceivedERK5QHashINS_9SharedPtrINS_7ContactEEENS3_10InfoFieldsEE@Base 0.9.1
 _ZN2Tp20ContactSearchChannel24SearchStateChangeDetailsC1ERKS1_@Base 0.9.1
 _ZN2Tp20ContactSearchChannel24SearchStateChangeDetailsC1Ev@Base 0.9.1
 _ZN2Tp20ContactSearchChannel24SearchStateChangeDetailsC2ERKS1_@Base 0.9.1
 _ZN2Tp20ContactSearchChannel24SearchStateChangeDetailsC2Ev@Base 0.9.1
 _ZN2Tp20ContactSearchChannel24SearchStateChangeDetailsD1Ev@Base 0.9.1
 _ZN2Tp20ContactSearchChannel24SearchStateChangeDetailsD2Ev@Base 0.9.1
 _ZN2Tp20ContactSearchChannel24SearchStateChangeDetailsaSERKS1_@Base 0.9.1
 _ZN2Tp20ContactSearchChannel6createERKNS_9SharedPtrINS_10ConnectionEEERK7QStringRK4QMapIS6_8QVariantE@Base 0.9.1
 _ZN2Tp20ContactSearchChannel6searchERK7QStringS3_@Base 0.9.1
 _ZN2Tp20ContactSearchChannel6searchERKNS_16ContactSearchMapE@Base 0.9.1
 _ZN2Tp20ContactSearchChannelC1ERKNS_9SharedPtrINS_10ConnectionEEERK7QStringRK4QMapIS6_8QVariantERKNS_7FeatureE@Base 0.9.1
 _ZN2Tp20ContactSearchChannelC2ERKNS_9SharedPtrINS_10ConnectionEEERK7QStringRK4QMapIS6_8QVariantERKNS_7FeatureE@Base 0.9.1
 _ZN2Tp20ContactSearchChannelD0Ev@Base 0.9.1
 _ZN2Tp20ContactSearchChannelD1Ev@Base 0.9.1
 _ZN2Tp20ContactSearchChannelD2Ev@Base 0.9.1
 _ZN2Tp20StreamedMediaChannel10acceptCallEv@Base 0.9.1
 _ZN2Tp20StreamedMediaChannel10hangupCallEv@Base 0.9.1
 _ZN2Tp20StreamedMediaChannel11FeatureCoreE@Base 0.9.1
 _ZN2Tp20StreamedMediaChannel11qt_metacallEN11QMetaObject4CallEiPPv@Base 0.9.1
 _ZN2Tp20StreamedMediaChannel11qt_metacastEPKc@Base 0.9.1
 _ZN2Tp20StreamedMediaChannel11requestHoldEb@Base 0.9.1
 _ZN2Tp20StreamedMediaChannel11streamAddedERKNS_9SharedPtrINS_19StreamedMediaStreamEEE@Base 0.9.1
 _ZN2Tp20StreamedMediaChannel11streamErrorERKNS_9SharedPtrINS_19StreamedMediaStreamEEENS_16MediaStreamErrorERK7QString@Base 0.9.1
 _ZN2Tp20StreamedMediaChannel12removeStreamERKNS_9SharedPtrINS_19StreamedMediaStreamEEE@Base 0.9.1
 _ZN2Tp20StreamedMediaChannel13removeStreamsERK5QListINS_9SharedPtrINS_19StreamedMediaStreamEEEE@Base 0.9.1
 _ZN2Tp20StreamedMediaChannel13requestStreamERKNS_9SharedPtrINS_7ContactEEENS_15MediaStreamTypeE@Base 0.9.1
 _ZN2Tp20StreamedMediaChannel13streamRemovedERKNS_9SharedPtrINS_19StreamedMediaStreamEEE@Base 0.9.1
 _ZN2Tp20StreamedMediaChannel14FeatureStreamsE@Base 0.9.1
 _ZN2Tp20StreamedMediaChannel14requestStreamsERKNS_9SharedPtrINS_7ContactEEE5QListINS_15MediaStreamTypeEE@Base 0.9.1
 _ZN2Tp20StreamedMediaChannel16lookupStreamByIdEj@Base 0.9.1
 _ZN2Tp20StreamedMediaChannel16staticMetaObjectE@Base 0.9.1
 _ZN2Tp20StreamedMediaChannel18streamStateChangedERKNS_9SharedPtrINS_19StreamedMediaStreamEEENS_16MediaStreamStateE@Base 0.9.1
 _ZN2Tp20StreamedMediaChannel21FeatureLocalHoldStateE@Base 0.9.1
 _ZN2Tp20StreamedMediaChannel21localHoldStateChangedENS_14LocalHoldStateENS_20LocalHoldStateReasonE@Base 0.9.1
 _ZN2Tp20StreamedMediaChannel22streamDirectionChangedERKNS_9SharedPtrINS_19StreamedMediaStreamEEENS_20MediaStreamDirectionE6QFlagsINS_18MediaStreamPendingEE@Base 0.9.1
 _ZN2Tp20StreamedMediaChannel6createERKNS_9SharedPtrINS_10ConnectionEEERK7QStringRK4QMapIS6_8QVariantE@Base 0.9.1
 _ZN2Tp20StreamedMediaChannel9addStreamERKNS_15MediaStreamInfoE@Base 0.9.1
 _ZN2Tp20StreamedMediaChannelC1ERKNS_9SharedPtrINS_10ConnectionEEERK7QStringRK4QMapIS6_8QVariantERKNS_7FeatureE@Base 0.9.1
 _ZN2Tp20StreamedMediaChannelC2ERKNS_9SharedPtrINS_10ConnectionEEERK7QStringRK4QMapIS6_8QVariantERKNS_7FeatureE@Base 0.9.1
 _ZN2Tp20StreamedMediaChannelD0Ev@Base 0.9.1
 _ZN2Tp20StreamedMediaChannelD1Ev@Base 0.9.1
 _ZN2Tp20StreamedMediaChannelD2Ev@Base 0.9.1
 (optional=inline|arch=amd64 i386)_ZN2Tp20VCardFieldAddressMapC1ERKS0_@Base 0.9.1
 (optional=inline|arch=amd64 i386)_ZN2Tp20VCardFieldAddressMapC2ERKS0_@Base 0.9.1
 (optional=inline|arch=amd64 i386)_ZN2Tp20VCardFieldAddressMapD1Ev@Base 0.9.1
 (optional=inline|arch=amd64 i386)_ZN2Tp20VCardFieldAddressMapD2Ev@Base 0.9.1
 _ZN2Tp21AbstractClientHandler10addRequestERKNS_9SharedPtrINS_14ChannelRequestEEE@Base 0.9.1
 _ZN2Tp21AbstractClientHandler11HandlerInfoC1ERK4QMapI7QString8QVariantE@Base 0.9.1
 _ZN2Tp21AbstractClientHandler11HandlerInfoC1ERKS1_@Base 0.9.1
 _ZN2Tp21AbstractClientHandler11HandlerInfoC2ERK4QMapI7QString8QVariantE@Base 0.9.1
 _ZN2Tp21AbstractClientHandler11HandlerInfoC2ERKS1_@Base 0.9.1
 _ZN2Tp21AbstractClientHandler11HandlerInfoD1Ev@Base 0.9.1
 _ZN2Tp21AbstractClientHandler11HandlerInfoD2Ev@Base 0.9.1
 _ZN2Tp21AbstractClientHandler11HandlerInfoaSERKS1_@Base 0.9.1
 _ZN2Tp21AbstractClientHandler12Capabilities10unsetTokenERK7QString@Base 0.9.1
 _ZN2Tp21AbstractClientHandler12Capabilities8setTokenERK7QString@Base 0.9.1
 _ZN2Tp21AbstractClientHandler12CapabilitiesC1ERK11QStringList@Base 0.9.1
 _ZN2Tp21AbstractClientHandler12CapabilitiesC1ERKS1_@Base 0.9.1
 _ZN2Tp21AbstractClientHandler12CapabilitiesC2ERK11QStringList@Base 0.9.1
 _ZN2Tp21AbstractClientHandler12CapabilitiesC2ERKS1_@Base 0.9.1
 _ZN2Tp21AbstractClientHandler12CapabilitiesD1Ev@Base 0.9.1
 _ZN2Tp21AbstractClientHandler12CapabilitiesD2Ev@Base 0.9.1
 _ZN2Tp21AbstractClientHandler12CapabilitiesaSERKS1_@Base 0.9.1
 _ZN2Tp21AbstractClientHandler13removeRequestERKNS_9SharedPtrINS_14ChannelRequestEEERK7QStringS8_@Base 0.9.1
 _ZN2Tp21AbstractClientHandlerC1ERKNS_20ChannelClassSpecListERKNS0_12CapabilitiesEb@Base 0.9.1
 _ZN2Tp21AbstractClientHandlerC2ERKNS_20ChannelClassSpecListERKNS0_12CapabilitiesEb@Base 0.9.1
 _ZN2Tp21AbstractClientHandlerD0Ev@Base 0.9.1
 _ZN2Tp21AbstractClientHandlerD1Ev@Base 0.9.1
 _ZN2Tp21AbstractClientHandlerD2Ev@Base 0.9.1
 _ZN2Tp21AccountPropertyFilterC1Ev@Base 0.9.1
 _ZN2Tp21AccountPropertyFilterC2Ev@Base 0.9.1
 _ZN2Tp21AccountPropertyFilterD0Ev@Base 0.9.1
 _ZN2Tp21AccountPropertyFilterD1Ev@Base 0.9.1
 _ZN2Tp21AccountPropertyFilterD2Ev@Base 0.9.1
 _ZN2Tp21CaptchaAuthentication11qt_metacallEN11QMetaObject4CallEiPPv@Base 0.9.1
 _ZN2Tp21CaptchaAuthentication11qt_metacastEPKc@Base 0.9.1
 _ZN2Tp21CaptchaAuthentication13statusChangedENS_13CaptchaStatusE@Base 0.9.1
 _ZN2Tp21CaptchaAuthentication15requestCaptchasERK11QStringList6QFlagsINS0_13ChallengeTypeEE@Base 0.9.1
 _ZN2Tp21CaptchaAuthentication16staticMetaObjectE@Base 0.9.1
 _ZN2Tp21CaptchaAuthentication6answerERKNS_14CaptchaAnswersE@Base 0.9.1
 _ZN2Tp21CaptchaAuthentication6answerEjRK7QString@Base 0.9.1
 _ZN2Tp21CaptchaAuthentication6cancelENS_19CaptchaCancelReasonERK7QString@Base 0.9.1
 _ZN2Tp21CaptchaAuthenticationD0Ev@Base 0.9.1
 _ZN2Tp21CaptchaAuthenticationD1Ev@Base 0.9.1
 _ZN2Tp21CaptchaAuthenticationD2Ev@Base 0.9.1
 (optional=inline|arch=amd64 i386)_ZN2Tp21MediaDescriptionOfferC1ERKS0_@Base 0.9.1
 (optional=inline|arch=amd64 i386)_ZN2Tp21MediaDescriptionOfferC2ERKS0_@Base 0.9.1
 (optional=inline|arch=amd64 i386)_ZN2Tp21MediaDescriptionOfferD1Ev@Base 0.9.1
 (optional=inline|arch=amd64 i386)_ZN2Tp21MediaDescriptionOfferD2Ev@Base 0.9.1
 _ZN2Tp21PendingChannelRequest11qt_metacallEN11QMetaObject4CallEiPPv@Base 0.9.1
 _ZN2Tp21PendingChannelRequest11qt_metacastEPKc@Base 0.9.1
 _ZN2Tp21PendingChannelRequest16staticMetaObjectE@Base 0.9.1
 _ZN2Tp21PendingChannelRequest21channelRequestCreatedERKNS_9SharedPtrINS_14ChannelRequestEEE@Base 0.9.1
 _ZN2Tp21PendingChannelRequest6cancelEv@Base 0.9.1
 _ZN2Tp21PendingChannelRequestD0Ev@Base 0.9.1
 _ZN2Tp21PendingChannelRequestD1Ev@Base 0.9.1
 _ZN2Tp21PendingChannelRequestD2Ev@Base 0.9.1
 (optional=inline|arch=amd64 i386)_ZN2Tp21ProtocolPropertiesMapC1ERKS0_@Base 0.9.1
 (optional=inline|arch=amd64 i386)_ZN2Tp21ProtocolPropertiesMapC2ERKS0_@Base 0.9.1
 (optional=inline|arch=amd64 i386)_ZN2Tp21ProtocolPropertiesMapD1Ev@Base 0.9.1
 (optional=inline|arch=amd64 i386)_ZN2Tp21ProtocolPropertiesMapD2Ev@Base 0.9.1
 _ZN2Tp22AbstractClientApproverC1ERKNS_20ChannelClassSpecListE@Base 0.9.1
 _ZN2Tp22AbstractClientApproverC2ERKNS_20ChannelClassSpecListE@Base 0.9.1
 _ZN2Tp22AbstractClientApproverD0Ev@Base 0.9.1
 _ZN2Tp22AbstractClientApproverD1Ev@Base 0.9.1
 _ZN2Tp22AbstractClientApproverD2Ev@Base 0.9.1
 _ZN2Tp22AbstractClientObserver12ObserverInfoC1ERK4QMapI7QString8QVariantE@Base 0.9.1
 _ZN2Tp22AbstractClientObserver12ObserverInfoC1ERKS1_@Base 0.9.1
 _ZN2Tp22AbstractClientObserver12ObserverInfoC2ERK4QMapI7QString8QVariantE@Base 0.9.1
 _ZN2Tp22AbstractClientObserver12ObserverInfoC2ERKS1_@Base 0.9.1
 _ZN2Tp22AbstractClientObserver12ObserverInfoD1Ev@Base 0.9.1
 _ZN2Tp22AbstractClientObserver12ObserverInfoD2Ev@Base 0.9.1
 _ZN2Tp22AbstractClientObserver12ObserverInfoaSERKS1_@Base 0.9.1
 _ZN2Tp22AbstractClientObserverC1ERKNS_20ChannelClassSpecListEb@Base 0.9.1
 _ZN2Tp22AbstractClientObserverC2ERKNS_20ChannelClassSpecListEb@Base 0.9.1
 _ZN2Tp22AbstractClientObserverD0Ev@Base 0.9.1
 _ZN2Tp22AbstractClientObserverD1Ev@Base 0.9.1
 _ZN2Tp22AbstractClientObserverD2Ev@Base 0.9.1
 _ZN2Tp22ConnectionCapabilitiesC1ERK5QListINS_23RequestableChannelClassEE@Base 0.9.1
 _ZN2Tp22ConnectionCapabilitiesC1ERKNS_31RequestableChannelClassSpecListE@Base 0.9.1
 (optional=inline|arch=amd64 i386)_ZN2Tp22ConnectionCapabilitiesC1ERKS0_@Base 0.9.1
 _ZN2Tp22ConnectionCapabilitiesC1Ev@Base 0.9.1
 _ZN2Tp22ConnectionCapabilitiesC2ERK5QListINS_23RequestableChannelClassEE@Base 0.9.1
 _ZN2Tp22ConnectionCapabilitiesC2ERKNS_31RequestableChannelClassSpecListE@Base 0.9.1
 (optional=inline|arch=amd64 i386)_ZN2Tp22ConnectionCapabilitiesC2ERKS0_@Base 0.9.1
 _ZN2Tp22ConnectionCapabilitiesC2Ev@Base 0.9.1
 _ZN2Tp22ConnectionCapabilitiesD0Ev@Base 0.9.1
 _ZN2Tp22ConnectionCapabilitiesD1Ev@Base 0.9.1
 _ZN2Tp22ConnectionCapabilitiesD2Ev@Base 0.9.1
 (optional=inline|arch=amd64 i386)_ZN2Tp22ContactCapabilitiesMapD1Ev@Base 0.9.1
 (optional=inline|arch=amd64 i386)_ZN2Tp22ContactCapabilitiesMapD2Ev@Base 0.9.1
 (optional=inline)_ZN2Tp22ContactSearchResultMapD1Ev@Base 0.9.1
 (optional=inline)_ZN2Tp22ContactSearchResultMapD2Ev@Base 0.9.1
 (optional=inline|arch=amd64 i386)_ZN2Tp22ContactSendingStateMapC1ERKS0_@Base 0.9.1
 (optional=inline|arch=amd64 i386)_ZN2Tp22ContactSendingStateMapC2ERKS0_@Base 0.9.1
 (optional=inline|arch=amd64 i386)_ZN2Tp22ContactSendingStateMapD1Ev@Base 0.9.1
 (optional=inline|arch=amd64 i386)_ZN2Tp22ContactSendingStateMapD2Ev@Base 0.9.1
 (optional=inline)_ZN2Tp22ContactSubscriptionMapD1Ev@Base 0.9.1
 (optional=inline)_ZN2Tp22ContactSubscriptionMapD2Ev@Base 0.9.1
 _ZN2Tp22HandledChannelNotifier11qt_metacallEN11QMetaObject4CallEiPPv@Base 0.9.1
 _ZN2Tp22HandledChannelNotifier11qt_metacastEPKc@Base 0.9.1
 _ZN2Tp22HandledChannelNotifier12handledAgainERK9QDateTimeRKNS_19ChannelRequestHintsE@Base 0.9.1
 _ZN2Tp22HandledChannelNotifier13connectNotifyEPKc@Base 0.9.1
 _ZN2Tp22HandledChannelNotifier16staticMetaObjectE@Base 0.9.1
 _ZN2Tp22HandledChannelNotifierC1ERKNS_9SharedPtrINS_15ClientRegistrarEEERKNS1_INS_23RequestTemporaryHandlerEEE@Base 0.9.1
 _ZN2Tp22HandledChannelNotifierC2ERKNS_9SharedPtrINS_15ClientRegistrarEEERKNS1_INS_23RequestTemporaryHandlerEEE@Base 0.9.1
 _ZN2Tp22HandledChannelNotifierD0Ev@Base 0.9.1
 _ZN2Tp22HandledChannelNotifierD1Ev@Base 0.9.1
 _ZN2Tp22HandledChannelNotifierD2Ev@Base 0.9.1
 _ZN2Tp22OptionalInterfaceCacheC1EP7QObject@Base 0.9.1
 _ZN2Tp22OptionalInterfaceCacheC2EP7QObject@Base 0.9.1
 _ZN2Tp22OptionalInterfaceCacheD1Ev@Base 0.9.1
 _ZN2Tp22OptionalInterfaceCacheD2Ev@Base 0.9.1
 (optional=inline|arch=amd64 i386)_ZN2Tp23MediaSessionHandlerInfoC1ERKS0_@Base 0.9.1
 (optional=inline|arch=amd64 i386)_ZN2Tp23MediaSessionHandlerInfoC2ERKS0_@Base 0.9.1
 (optional=inline)_ZN2Tp23MediaSessionHandlerInfoD1Ev@Base 0.9.1
 (optional=inline)_ZN2Tp23MediaSessionHandlerInfoD2Ev@Base 0.9.1
 (optional=inline|arch=amd64 i386)_ZN2Tp23MediaStreamHandlerCodecC1ERKS0_@Base 0.9.1
 (optional=inline|arch=amd64 i386)_ZN2Tp23MediaStreamHandlerCodecC2ERKS0_@Base 0.9.1
 (optional=inline)_ZN2Tp23MediaStreamHandlerCodecD1Ev@Base 0.9.1
 (optional=inline)_ZN2Tp23MediaStreamHandlerCodecD2Ev@Base 0.9.1
 (optional=inline|arch=amd64 i386)_ZN2Tp23RequestableChannelClassC1ERKS0_@Base 0.9.1
 (optional=inline|arch=amd64 i386)_ZN2Tp23RequestableChannelClassC2ERKS0_@Base 0.9.1
 (optional=inline)_ZN2Tp23RequestableChannelClassD1Ev@Base 0.9.1
 (optional=inline)_ZN2Tp23RequestableChannelClassD2Ev@Base 0.9.1
 (optional=inline|arch=amd64 i386)_ZN2Tp23TLSCertificateRejectionC1ERKS0_@Base 0.9.1
 (optional=inline|arch=amd64 i386)_ZN2Tp23TLSCertificateRejectionC2ERKS0_@Base 0.9.1
 (optional=inline)_ZN2Tp23TLSCertificateRejectionD1Ev@Base 0.9.1
 (optional=inline)_ZN2Tp23TLSCertificateRejectionD2Ev@Base 0.9.1
 _ZN2Tp24ChannelDispatchOperation10handleWithERK7QString@Base 0.9.1
 _ZN2Tp24ChannelDispatchOperation11FeatureCoreE@Base 0.9.1
 _ZN2Tp24ChannelDispatchOperation11channelLostERKNS_9SharedPtrINS_7ChannelEEERK7QStringS8_@Base 0.9.1
 _ZN2Tp24ChannelDispatchOperation11qt_metacallEN11QMetaObject4CallEiPPv@Base 0.9.1
 _ZN2Tp24ChannelDispatchOperation11qt_metacastEPKc@Base 0.9.1
 _ZN2Tp24ChannelDispatchOperation16staticMetaObjectE@Base 0.9.1
 _ZN2Tp24ChannelDispatchOperation5claimERKNS_9SharedPtrINS_21AbstractClientHandlerEEE@Base 0.9.1
 _ZN2Tp24ChannelDispatchOperation5claimEv@Base 0.9.1
 _ZN2Tp24ChannelDispatchOperation6createERK15QDBusConnectionRK7QStringRK4QMapIS4_8QVariantERK5QListINS_9SharedPtrINS_7ChannelEEEERKNSD_IKNS_14AccountFactoryEEERKNSD_IKNS_17ConnectionFactoryEEERKNSD_IKNS_14ChannelFactoryEEERKNSD_IKNS_14ContactFactoryEEE@Base 0.9.1
 _ZN2Tp24ChannelDispatchOperationC1ERK15QDBusConnectionRK7QStringRK4QMapIS4_8QVariantERK5QListINS_9SharedPtrINS_7ChannelEEEERKNSD_IKNS_14AccountFactoryEEERKNSD_IKNS_17ConnectionFactoryEEERKNSD_IKNS_14ChannelFactoryEEERKNSD_IKNS_14ContactFactoryEEE@Base 0.9.1
 _ZN2Tp24ChannelDispatchOperationC2ERK15QDBusConnectionRK7QStringRK4QMapIS4_8QVariantERK5QListINS_9SharedPtrINS_7ChannelEEEERKNSD_IKNS_14AccountFactoryEEERKNSD_IKNS_17ConnectionFactoryEEERKNSD_IKNS_14ChannelFactoryEEERKNSD_IKNS_14ContactFactoryEEE@Base 0.9.1
 _ZN2Tp24ChannelDispatchOperationD0Ev@Base 0.9.1
 _ZN2Tp24ChannelDispatchOperationD1Ev@Base 0.9.1
 _ZN2Tp24ChannelDispatchOperationD2Ev@Base 0.9.1
 _ZN2Tp24PendingContactAttributes11qt_metacallEN11QMetaObject4CallEiPPv@Base 0.9.1
 _ZN2Tp24PendingContactAttributes11qt_metacastEPKc@Base 0.9.1
 _ZN2Tp24PendingContactAttributes16staticMetaObjectE@Base 0.9.1
 _ZN2Tp24PendingContactAttributesD0Ev@Base 0.9.1
 _ZN2Tp24PendingContactAttributesD1Ev@Base 0.9.1
 _ZN2Tp24PendingContactAttributesD2Ev@Base 0.9.1
 _ZN2Tp25ConnectionManagerLowlevel11qt_metacallEN11QMetaObject4CallEiPPv@Base 0.9.1
 _ZN2Tp25ConnectionManagerLowlevel11qt_metacastEPKc@Base 0.9.1
 _ZN2Tp25ConnectionManagerLowlevel16staticMetaObjectE@Base 0.9.1
 _ZN2Tp25ConnectionManagerLowlevel17requestConnectionERK7QStringRK4QMapIS1_8QVariantE@Base 0.9.1
 _ZN2Tp25ConnectionManagerLowlevelD0Ev@Base 0.9.1
 _ZN2Tp25ConnectionManagerLowlevelD1Ev@Base 0.9.1
 _ZN2Tp25ConnectionManagerLowlevelD2Ev@Base 0.9.1
 _ZN2Tp25IncomingStreamTubeChannel11FeatureCoreE@Base 0.9.1
 _ZN2Tp25IncomingStreamTubeChannel11qt_metacallEN11QMetaObject4CallEiPPv@Base 0.9.1
 _ZN2Tp25IncomingStreamTubeChannel11qt_metacastEPKc@Base 0.9.1
 _ZN2Tp25IncomingStreamTubeChannel16staticMetaObjectE@Base 0.9.1
 _ZN2Tp25IncomingStreamTubeChannel21acceptTubeAsTcpSocketERK12QHostAddresst@Base 0.9.1
 _ZN2Tp25IncomingStreamTubeChannel21acceptTubeAsTcpSocketEv@Base 0.9.1
 _ZN2Tp25IncomingStreamTubeChannel22acceptTubeAsUnixSocketEb@Base 0.9.1
 _ZN2Tp25IncomingStreamTubeChannel6createERKNS_9SharedPtrINS_10ConnectionEEERK7QStringRK4QMapIS6_8QVariantE@Base 0.9.1
 _ZN2Tp25IncomingStreamTubeChannelC1ERKNS_9SharedPtrINS_10ConnectionEEERK7QStringRK4QMapIS6_8QVariantERKNS_7FeatureE@Base 0.9.1
 _ZN2Tp25IncomingStreamTubeChannelC2ERKNS_9SharedPtrINS_10ConnectionEEERK7QStringRK4QMapIS6_8QVariantERKNS_7FeatureE@Base 0.9.1
 _ZN2Tp25IncomingStreamTubeChannelD0Ev@Base 0.9.1
 _ZN2Tp25IncomingStreamTubeChannelD1Ev@Base 0.9.1
 _ZN2Tp25IncomingStreamTubeChannelD2Ev@Base 0.9.1
 _ZN2Tp25OutgoingStreamTubeChannel11FeatureCoreE@Base 0.9.1
 _ZN2Tp25OutgoingStreamTubeChannel11qt_metacallEN11QMetaObject4CallEiPPv@Base 0.9.1
 _ZN2Tp25OutgoingStreamTubeChannel11qt_metacastEPKc@Base 0.9.1
 _ZN2Tp25OutgoingStreamTubeChannel14offerTcpSocketEPK10QTcpServerRK4QMapI7QString8QVariantE@Base 0.9.1
 _ZN2Tp25OutgoingStreamTubeChannel14offerTcpSocketERK12QHostAddresstRK4QMapI7QString8QVariantE@Base 0.9.1
 _ZN2Tp25OutgoingStreamTubeChannel15offerUnixSocketEPK12QLocalServerRK4QMapI7QString8QVariantEb@Base 0.9.1
 _ZN2Tp25OutgoingStreamTubeChannel15offerUnixSocketERK7QStringRK4QMapIS1_8QVariantEb@Base 0.9.1
 _ZN2Tp25OutgoingStreamTubeChannel16staticMetaObjectE@Base 0.9.1
 _ZN2Tp25OutgoingStreamTubeChannel6createERKNS_9SharedPtrINS_10ConnectionEEERK7QStringRK4QMapIS6_8QVariantE@Base 0.9.1
 _ZN2Tp25OutgoingStreamTubeChannelC1ERKNS_9SharedPtrINS_10ConnectionEEERK7QStringRK4QMapIS6_8QVariantERKNS_7FeatureE@Base 0.9.1
 _ZN2Tp25OutgoingStreamTubeChannelC2ERKNS_9SharedPtrINS_10ConnectionEEERK7QStringRK4QMapIS6_8QVariantERKNS_7FeatureE@Base 0.9.1
 _ZN2Tp25OutgoingStreamTubeChannelD0Ev@Base 0.9.1
 _ZN2Tp25OutgoingStreamTubeChannelD1Ev@Base 0.9.1
 _ZN2Tp25OutgoingStreamTubeChannelD2Ev@Base 0.9.1
 (optional=inline|arch=amd64 i386)_ZN2Tp25QualifiedPropertyValueMapD1Ev@Base 0.9.1
 (optional=inline|arch=amd64 i386)_ZN2Tp25QualifiedPropertyValueMapD2Ev@Base 0.9.1
 (optional=inline|arch=amd64 i386)_ZN2Tp26AddressingNormalizationMapC1ERKS0_@Base 0.9.1
 (optional=inline|arch=amd64 i386)_ZN2Tp26AddressingNormalizationMapC2ERKS0_@Base 0.9.1
 (optional=inline|arch=amd64 i386)_ZN2Tp26AddressingNormalizationMapD1Ev@Base 0.9.1
 (optional=inline|arch=amd64 i386)_ZN2Tp26AddressingNormalizationMapD2Ev@Base 0.9.1
 _ZN2Tp27IncomingFileTransferChannel10acceptFileEyP9QIODevice@Base 0.9.1
 _ZN2Tp27IncomingFileTransferChannel10uriDefinedERK7QString@Base 0.9.1
 _ZN2Tp27IncomingFileTransferChannel11FeatureCoreE@Base 0.9.1
 _ZN2Tp27IncomingFileTransferChannel11qt_metacallEN11QMetaObject4CallEiPPv@Base 0.9.1
 _ZN2Tp27IncomingFileTransferChannel11qt_metacastEPKc@Base 0.9.1
 _ZN2Tp27IncomingFileTransferChannel16staticMetaObjectE@Base 0.9.1
 _ZN2Tp27IncomingFileTransferChannel6createERKNS_9SharedPtrINS_10ConnectionEEERK7QStringRK4QMapIS6_8QVariantE@Base 0.9.1
 _ZN2Tp27IncomingFileTransferChannel6setUriERK7QString@Base 0.9.1
 _ZN2Tp27IncomingFileTransferChannelC1ERKNS_9SharedPtrINS_10ConnectionEEERK7QStringRK4QMapIS6_8QVariantERKNS_7FeatureE@Base 0.9.1
 _ZN2Tp27IncomingFileTransferChannelC2ERKNS_9SharedPtrINS_10ConnectionEEERK7QStringRK4QMapIS6_8QVariantERKNS_7FeatureE@Base 0.9.1
 _ZN2Tp27IncomingFileTransferChannelD0Ev@Base 0.9.1
 _ZN2Tp27IncomingFileTransferChannelD1Ev@Base 0.9.1
 _ZN2Tp27IncomingFileTransferChannelD2Ev@Base 0.9.1
 (optional=inline|arch=amd64 i386)_ZN2Tp27MediaStreamHandlerCandidateC1ERKS0_@Base 0.9.1
 (optional=inline|arch=amd64 i386)_ZN2Tp27MediaStreamHandlerCandidateC2ERKS0_@Base 0.9.1
 (optional=inline)_ZN2Tp27MediaStreamHandlerCandidateD1Ev@Base 0.9.1
 (optional=inline)_ZN2Tp27MediaStreamHandlerCandidateD2Ev@Base 0.9.1
 (optional=inline|arch=amd64 i386)_ZN2Tp27MediaStreamHandlerTransportC1ERKS0_@Base 0.9.1
 (optional=inline|arch=amd64 i386)_ZN2Tp27MediaStreamHandlerTransportC2ERKS0_@Base 0.9.1
 (optional=inline)_ZN2Tp27MediaStreamHandlerTransportD1Ev@Base 0.9.1
 (optional=inline)_ZN2Tp27MediaStreamHandlerTransportD2Ev@Base 0.9.1
 _ZN2Tp27OutgoingFileTransferChannel11FeatureCoreE@Base 0.9.1
 _ZN2Tp27OutgoingFileTransferChannel11provideFileEP9QIODevice@Base 0.9.1
 _ZN2Tp27OutgoingFileTransferChannel11qt_metacallEN11QMetaObject4CallEiPPv@Base 0.9.1
 _ZN2Tp27OutgoingFileTransferChannel11qt_metacastEPKc@Base 0.9.1
 _ZN2Tp27OutgoingFileTransferChannel16staticMetaObjectE@Base 0.9.1
 _ZN2Tp27OutgoingFileTransferChannel6createERKNS_9SharedPtrINS_10ConnectionEEERK7QStringRK4QMapIS6_8QVariantE@Base 0.9.1
 _ZN2Tp27OutgoingFileTransferChannelC1ERKNS_9SharedPtrINS_10ConnectionEEERK7QStringRK4QMapIS6_8QVariantERKNS_7FeatureE@Base 0.9.1
 _ZN2Tp27OutgoingFileTransferChannelC2ERKNS_9SharedPtrINS_10ConnectionEEERK7QStringRK4QMapIS6_8QVariantERKNS_7FeatureE@Base 0.9.1
 _ZN2Tp27OutgoingFileTransferChannelD0Ev@Base 0.9.1
 _ZN2Tp27OutgoingFileTransferChannelD1Ev@Base 0.9.1
 _ZN2Tp27OutgoingFileTransferChannelD2Ev@Base 0.9.1
 _ZN2Tp27PendingStreamTubeConnection11qt_metacallEN11QMetaObject4CallEiPPv@Base 0.9.1
 _ZN2Tp27PendingStreamTubeConnection11qt_metacastEPKc@Base 0.9.1
 _ZN2Tp27PendingStreamTubeConnection16staticMetaObjectE@Base 0.9.1
 _ZN2Tp27PendingStreamTubeConnectionD0Ev@Base 0.9.1
 _ZN2Tp27PendingStreamTubeConnectionD1Ev@Base 0.9.1
 _ZN2Tp27PendingStreamTubeConnectionD2Ev@Base 0.9.1
 _ZN2Tp27PendingStreamedMediaStreams11qt_metacallEN11QMetaObject4CallEiPPv@Base 0.9.1
 _ZN2Tp27PendingStreamedMediaStreams11qt_metacastEPKc@Base 0.9.1
 _ZN2Tp27PendingStreamedMediaStreams16staticMetaObjectE@Base 0.9.1
 _ZN2Tp27PendingStreamedMediaStreamsD0Ev@Base 0.9.1
 _ZN2Tp27PendingStreamedMediaStreamsD1Ev@Base 0.9.1
 _ZN2Tp27PendingStreamedMediaStreamsD2Ev@Base 0.9.1
 _ZN2Tp27RequestableChannelClassSpec10streamTubeERK7QString@Base 0.9.1
 _ZN2Tp27RequestableChannelClassSpec12fileTransferEv@Base 0.9.1
 _ZN2Tp27RequestableChannelClassSpec12textChatroomEv@Base 0.9.1
 _ZN2Tp27RequestableChannelClassSpec13contactSearchEv@Base 0.9.1
 _ZN2Tp27RequestableChannelClassSpec17streamedMediaCallEv@Base 0.9.1
 _ZN2Tp27RequestableChannelClassSpec18conferenceTextChatEv@Base 0.9.1
 _ZN2Tp27RequestableChannelClassSpec22conferenceTextChatroomEv@Base 0.9.1
 _ZN2Tp27RequestableChannelClassSpec22contactSearchWithLimitEv@Base 0.9.1
 _ZN2Tp27RequestableChannelClassSpec22streamedMediaAudioCallEv@Base 0.9.1
 _ZN2Tp27RequestableChannelClassSpec22streamedMediaVideoCallEv@Base 0.9.1
 _ZN2Tp27RequestableChannelClassSpec25audioCallWithVideoAllowedEv@Base 0.9.1
 _ZN2Tp27RequestableChannelClassSpec25videoCallWithAudioAllowedEv@Base 0.9.1
 _ZN2Tp27RequestableChannelClassSpec27conferenceStreamedMediaCallEv@Base 0.9.1
 _ZN2Tp27RequestableChannelClassSpec30conferenceTextChatWithInviteesEv@Base 0.9.1
 _ZN2Tp27RequestableChannelClassSpec31contactSearchWithSpecificServerEv@Base 0.9.1
 _ZN2Tp27RequestableChannelClassSpec31streamedMediaVideoCallWithAudioEv@Base 0.9.1
 _ZN2Tp27RequestableChannelClassSpec34conferenceTextChatroomWithInviteesEv@Base 0.9.1
 _ZN2Tp27RequestableChannelClassSpec39conferenceStreamedMediaCallWithInviteesEv@Base 0.9.1
 _ZN2Tp27RequestableChannelClassSpec39contactSearchWithSpecificServerAndLimitEv@Base 0.9.1
 _ZN2Tp27RequestableChannelClassSpec8textChatEv@Base 0.9.1
 _ZN2Tp27RequestableChannelClassSpec9audioCallEv@Base 0.9.1
 _ZN2Tp27RequestableChannelClassSpec9videoCallEv@Base 0.9.1
 _ZN2Tp27RequestableChannelClassSpecC1ERKNS_23RequestableChannelClassE@Base 0.9.1
 _ZN2Tp27RequestableChannelClassSpecC1ERKS0_@Base 0.9.1
 _ZN2Tp27RequestableChannelClassSpecC1Ev@Base 0.9.1
 _ZN2Tp27RequestableChannelClassSpecC2ERKNS_23RequestableChannelClassE@Base 0.9.1
 _ZN2Tp27RequestableChannelClassSpecC2ERKS0_@Base 0.9.1
 _ZN2Tp27RequestableChannelClassSpecC2Ev@Base 0.9.1
 _ZN2Tp27RequestableChannelClassSpecD1Ev@Base 0.9.1
 _ZN2Tp27RequestableChannelClassSpecD2Ev@Base 0.9.1
 _ZN2Tp27RequestableChannelClassSpecaSERKS0_@Base 0.9.1
 _ZN2Tp27ServerAuthenticationChannel11FeatureCoreE@Base 0.9.1
 _ZN2Tp27ServerAuthenticationChannel11qt_metacallEN11QMetaObject4CallEiPPv@Base 0.9.1
 _ZN2Tp27ServerAuthenticationChannel11qt_metacastEPKc@Base 0.9.1
 _ZN2Tp27ServerAuthenticationChannel16staticMetaObjectE@Base 0.9.1
 _ZN2Tp27ServerAuthenticationChannel6createERKNS_9SharedPtrINS_10ConnectionEEERK7QStringRK4QMapIS6_8QVariantE@Base 0.9.1
 _ZN2Tp27ServerAuthenticationChannelC1ERKNS_9SharedPtrINS_10ConnectionEEERK7QStringRK4QMapIS6_8QVariantERKNS_7FeatureE@Base 0.9.1
 _ZN2Tp27ServerAuthenticationChannelC2ERKNS_9SharedPtrINS_10ConnectionEEERK7QStringRK4QMapIS6_8QVariantERKNS_7FeatureE@Base 0.9.1
 _ZN2Tp27ServerAuthenticationChannelD0Ev@Base 0.9.1
 _ZN2Tp27ServerAuthenticationChannelD1Ev@Base 0.9.1
 _ZN2Tp27ServerAuthenticationChannelD2Ev@Base 0.9.1
 (optional=inline|arch=amd64 i386)_ZN2Tp28ObjectImmutablePropertiesMapC1ERKS0_@Base 0.9.1
 (optional=inline|arch=amd64 i386)_ZN2Tp28ObjectImmutablePropertiesMapC2ERKS0_@Base 0.9.1
 (optional=inline|arch=amd64 i386)_ZN2Tp28ObjectImmutablePropertiesMapD1Ev@Base 0.9.1
 (optional=inline|arch=amd64 i386)_ZN2Tp28ObjectImmutablePropertiesMapD2Ev@Base 0.9.1
 (optional=inline)_ZN2Tp31RequestableChannelClassSpecListD1Ev@Base 0.9.1
 (optional=inline)_ZN2Tp31RequestableChannelClassSpecListD2Ev@Base 0.9.1
 _ZN2Tp37FileTransferChannelCreationProperties14setContentHashENS_12FileHashTypeERK7QString@Base 0.9.1
 _ZN2Tp37FileTransferChannelCreationProperties14setDescriptionERK7QString@Base 0.9.1
 _ZN2Tp37FileTransferChannelCreationProperties23setLastModificationTimeERK9QDateTime@Base 0.9.1
 _ZN2Tp37FileTransferChannelCreationProperties6setUriERK7QString@Base 0.9.1
 _ZN2Tp37FileTransferChannelCreationPropertiesC1ERK7QStringS3_@Base 0.9.1
 _ZN2Tp37FileTransferChannelCreationPropertiesC1ERK7QStringS3_y@Base 0.9.1
 _ZN2Tp37FileTransferChannelCreationPropertiesC1ERKS0_@Base 0.9.1
 _ZN2Tp37FileTransferChannelCreationPropertiesC1Ev@Base 0.9.1
 _ZN2Tp37FileTransferChannelCreationPropertiesC2ERK7QStringS3_@Base 0.9.1
 _ZN2Tp37FileTransferChannelCreationPropertiesC2ERK7QStringS3_y@Base 0.9.1
 _ZN2Tp37FileTransferChannelCreationPropertiesC2ERKS0_@Base 0.9.1
 _ZN2Tp37FileTransferChannelCreationPropertiesC2Ev@Base 0.9.1
 _ZN2Tp37FileTransferChannelCreationPropertiesD1Ev@Base 0.9.1
 _ZN2Tp37FileTransferChannelCreationPropertiesD2Ev@Base 0.9.1
 _ZN2Tp37FileTransferChannelCreationPropertiesaSERKS0_@Base 0.9.1
 (optional=inline|arch=amd64 i386)_ZN2Tp4MailD1Ev@Base 0.9.1
 (optional=inline|arch=amd64 i386)_ZN2Tp4MailD2Ev@Base 0.9.1
 (optional=inline|arch=amd64 i386)_ZN2Tp5CodecC1ERKS0_@Base 0.9.1
 (optional=inline|arch=amd64 i386)_ZN2Tp5CodecC2ERKS0_@Base 0.9.1
 (optional=inline)_ZN2Tp5CodecD1Ev@Base 0.9.1
 (optional=inline)_ZN2Tp5CodecD2Ev@Base 0.9.1
 _ZN2Tp5Debug19invokeDebugCallbackEv@Base 0.9.1
 (optional=templinst|arch=!amd64 !i386)_ZN2Tp5DebuglsI11QStringListEERS0_T_@Base 0.9.1
 (optional=templinst|arch=!amd64 !i386)_ZN2Tp5DebuglsI4QSetI7QStringEEERS0_T_@Base 0.9.1
 (optional=templinst|arch=!amd64 !i386)_ZN2Tp5DebuglsI7QStringEERS0_T_@Base 0.9.1
 (optional=templinst|arch=amd64 i386)_ZN2Tp5DebuglsINS_10HandleTypeEEERS0_T_@Base 0.9.1
 (optional=templinst|arch=amd64 i386)_ZN2Tp5DebuglsINS_16ConnectionStatusEEERS0_T_@Base 0.9.1
 (optional=templinst|arch=amd64 i386)_ZN2Tp5DebuglsINS_22ConnectionStatusReasonEEERS0_T_@Base 0.9.1
 (optional=templinst)_ZN2Tp5DebuglsINS_7FeatureEEERS0_T_@Base 0.9.1
 (optional=templinst|arch=!ia64 !mips !mipsel)_ZN2Tp5DebuglsINS_8FeaturesEEERS0_T_@Base 0.9.1
 (optional=templinst)_ZN2Tp5DebuglsINS_8UIntListEEERS0_T_@Base 0.9.1
 (optional=templinst|arch=amd64 i386)_ZN2Tp5DebuglsIPKNS_14ContactManagerEEERS0_T_@Base 0.9.1
 (optional=templinst|arch=amd64 i386)_ZN2Tp5DebuglsIPKNS_7ContactEEERS0_T_@Base 0.9.1
 (optional=templinst)_ZN2Tp5DebuglsIPKcEERS0_T_@Base 0.9.1
 (optional=templinst|arch=amd64 i386)_ZN2Tp5DebuglsIPNS_10ConnectionEEERS0_T_@Base 0.9.1
 (optional=templinst|arch=amd64 i386)_ZN2Tp5DebuglsIPNS_7ContactEEERS0_T_@Base 0.9.1
 (optional=templinst|arch=amd64 i386)_ZN2Tp5DebuglsIcEERS0_T_@Base 0.9.1
 (optional=templinst|arch=amd64 i386)_ZN2Tp5DebuglsIiEERS0_T_@Base 0.9.1
 (optional=templinst)_ZN2Tp5DebuglsIjEERS0_T_@Base 0.9.1
 (optional=inline|arch=amd64 i386)_ZN2Tp6AvatarC1ERKS0_@Base 0.9.1
 (optional=inline|arch=amd64 i386)_ZN2Tp6AvatarC2ERKS0_@Base 0.9.1
 (optional=inline)_ZN2Tp6AvatarD1Ev@Base 0.9.1
 (optional=inline)_ZN2Tp6AvatarD2Ev@Base 0.9.1
 (optional=inline|arch=amd64 i386)_ZN2Tp6AvataraSERKS0_@Base 0.9.1
 _ZN2Tp6Client15ClientInterface10invalidateEPNS_9DBusProxyERK7QStringS6_@Base 0.9.1
 _ZN2Tp6Client15ClientInterface11qt_metacallEN11QMetaObject4CallEiPPv@Base 0.9.1
 _ZN2Tp6Client15ClientInterface11qt_metacastEPKc@Base 0.9.1
 _ZN2Tp6Client15ClientInterface16staticMetaObjectE@Base 0.9.1
 _ZN2Tp6Client15ClientInterfaceC1EPNS_9DBusProxyE@Base 0.9.1
 _ZN2Tp6Client15ClientInterfaceC1ERK15QDBusConnectionRK7QStringS7_P7QObject@Base 0.9.1
 _ZN2Tp6Client15ClientInterfaceC1ERK7QStringS4_P7QObject@Base 0.9.1
 _ZN2Tp6Client15ClientInterfaceC2EPNS_9DBusProxyE@Base 0.9.1
 _ZN2Tp6Client15ClientInterfaceC2ERK15QDBusConnectionRK7QStringS7_P7QObject@Base 0.9.1
 _ZN2Tp6Client15ClientInterfaceC2ERK7QStringS4_P7QObject@Base 0.9.1
 _ZN2Tp6Client15ClientInterfaceD0Ev@Base 0.9.1
 _ZN2Tp6Client15ClientInterfaceD1Ev@Base 0.9.1
 _ZN2Tp6Client15ClientInterfaceD2Ev@Base 0.9.1
 _ZN2Tp6Client16AccountInterface10invalidateEPNS_9DBusProxyERK7QStringS6_@Base 0.9.1
 _ZN2Tp6Client16AccountInterface11qt_metacallEN11QMetaObject4CallEiPPv@Base 0.9.1
 _ZN2Tp6Client16AccountInterface11qt_metacastEPKc@Base 0.9.1
 _ZN2Tp6Client16AccountInterface16staticMetaObjectE@Base 0.9.1
 _ZN2Tp6Client16AccountInterface22AccountPropertyChangedERK4QMapI7QString8QVariantE@Base 0.9.1
 _ZN2Tp6Client16AccountInterface7RemovedEv@Base 0.9.1
 _ZN2Tp6Client16AccountInterfaceC1EPNS_9DBusProxyE@Base 0.9.1
 _ZN2Tp6Client16AccountInterfaceC1ERK15QDBusConnectionRK7QStringS7_P7QObject@Base 0.9.1
 _ZN2Tp6Client16AccountInterfaceC1ERK7QStringS4_P7QObject@Base 0.9.1
 _ZN2Tp6Client16AccountInterfaceC2EPNS_9DBusProxyE@Base 0.9.1
 _ZN2Tp6Client16AccountInterfaceC2ERK15QDBusConnectionRK7QStringS7_P7QObject@Base 0.9.1
 _ZN2Tp6Client16AccountInterfaceC2ERK7QStringS4_P7QObject@Base 0.9.1
 _ZN2Tp6Client16AccountInterfaceD0Ev@Base 0.9.1
 _ZN2Tp6Client16AccountInterfaceD1Ev@Base 0.9.1
 _ZN2Tp6Client16AccountInterfaceD2Ev@Base 0.9.1
 _ZN2Tp6Client16ChannelInterface10invalidateEPNS_9DBusProxyERK7QStringS6_@Base 0.9.1
 _ZN2Tp6Client16ChannelInterface11qt_metacallEN11QMetaObject4CallEiPPv@Base 0.9.1
 _ZN2Tp6Client16ChannelInterface11qt_metacastEPKc@Base 0.9.1
 _ZN2Tp6Client16ChannelInterface16staticMetaObjectE@Base 0.9.1
 _ZN2Tp6Client16ChannelInterface6ClosedEv@Base 0.9.1
 _ZN2Tp6Client16ChannelInterfaceC1EPNS_9DBusProxyE@Base 0.9.1
 _ZN2Tp6Client16ChannelInterfaceC1ERK15QDBusConnectionRK7QStringS7_P7QObject@Base 0.9.1
 _ZN2Tp6Client16ChannelInterfaceC1ERK7QStringS4_P7QObject@Base 0.9.1
 _ZN2Tp6Client16ChannelInterfaceC2EPNS_9DBusProxyE@Base 0.9.1
 _ZN2Tp6Client16ChannelInterfaceC2ERK15QDBusConnectionRK7QStringS7_P7QObject@Base 0.9.1
 _ZN2Tp6Client16ChannelInterfaceC2ERK7QStringS4_P7QObject@Base 0.9.1
 _ZN2Tp6Client16ChannelInterfaceD0Ev@Base 0.9.1
 _ZN2Tp6Client16ChannelInterfaceD1Ev@Base 0.9.1
 _ZN2Tp6Client16ChannelInterfaceD2Ev@Base 0.9.1
 _ZN2Tp6Client17ProtocolInterface10invalidateEPNS_9DBusProxyERK7QStringS6_@Base 0.9.1
 _ZN2Tp6Client17ProtocolInterface11qt_metacallEN11QMetaObject4CallEiPPv@Base 0.9.1
 _ZN2Tp6Client17ProtocolInterface11qt_metacastEPKc@Base 0.9.1
 _ZN2Tp6Client17ProtocolInterface16staticMetaObjectE@Base 0.9.1
 _ZN2Tp6Client17ProtocolInterfaceC1EPNS_9DBusProxyE@Base 0.9.1
 _ZN2Tp6Client17ProtocolInterfaceC1ERK15QDBusConnectionRK7QStringS7_P7QObject@Base 0.9.1
 _ZN2Tp6Client17ProtocolInterfaceC1ERK7QStringS4_P7QObject@Base 0.9.1
 _ZN2Tp6Client17ProtocolInterfaceC1ERKNS0_26ConnectionManagerInterfaceE@Base 0.9.1
 _ZN2Tp6Client17ProtocolInterfaceC1ERKNS0_26ConnectionManagerInterfaceEP7QObject@Base 0.9.1
 _ZN2Tp6Client17ProtocolInterfaceC2EPNS_9DBusProxyE@Base 0.9.1
 _ZN2Tp6Client17ProtocolInterfaceC2ERK15QDBusConnectionRK7QStringS7_P7QObject@Base 0.9.1
 _ZN2Tp6Client17ProtocolInterfaceC2ERK7QStringS4_P7QObject@Base 0.9.1
 _ZN2Tp6Client17ProtocolInterfaceC2ERKNS0_26ConnectionManagerInterfaceE@Base 0.9.1
 _ZN2Tp6Client17ProtocolInterfaceC2ERKNS0_26ConnectionManagerInterfaceEP7QObject@Base 0.9.1
 _ZN2Tp6Client17ProtocolInterfaceD0Ev@Base 0.9.1
 _ZN2Tp6Client17ProtocolInterfaceD1Ev@Base 0.9.1
 _ZN2Tp6Client17ProtocolInterfaceD2Ev@Base 0.9.1
 _ZN2Tp6Client19CallStreamInterface10invalidateEPNS_9DBusProxyERK7QStringS6_@Base 0.9.1
 _ZN2Tp6Client19CallStreamInterface11qt_metacallEN11QMetaObject4CallEiPPv@Base 0.9.1
 _ZN2Tp6Client19CallStreamInterface11qt_metacastEPKc@Base 0.9.1
 _ZN2Tp6Client19CallStreamInterface16staticMetaObjectE@Base 0.9.1
 _ZN2Tp6Client19CallStreamInterface20RemoteMembersChangedERKNS_22ContactSendingStateMapERKNS_19HandleIdentifierMapERKNS_8UIntListERKNS_15CallStateReasonE@Base 0.9.1
 _ZN2Tp6Client19CallStreamInterface24LocalSendingStateChangedEjRKNS_15CallStateReasonE@Base 0.9.1
 _ZN2Tp6Client19CallStreamInterfaceC1EPNS_9DBusProxyE@Base 0.9.1
 _ZN2Tp6Client19CallStreamInterfaceC1ERK15QDBusConnectionRK7QStringS7_P7QObject@Base 0.9.1
 _ZN2Tp6Client19CallStreamInterfaceC1ERK7QStringS4_P7QObject@Base 0.9.1
 _ZN2Tp6Client19CallStreamInterfaceC2EPNS_9DBusProxyE@Base 0.9.1
 _ZN2Tp6Client19CallStreamInterfaceC2ERK15QDBusConnectionRK7QStringS7_P7QObject@Base 0.9.1
 _ZN2Tp6Client19CallStreamInterfaceC2ERK7QStringS4_P7QObject@Base 0.9.1
 _ZN2Tp6Client19CallStreamInterfaceD0Ev@Base 0.9.1
 _ZN2Tp6Client19CallStreamInterfaceD1Ev@Base 0.9.1
 _ZN2Tp6Client19CallStreamInterfaceD2Ev@Base 0.9.1
 _ZN2Tp6Client19ConnectionInterface10NewChannelERK15QDBusObjectPathRK7QStringjjb@Base 0.9.1
 _ZN2Tp6Client19ConnectionInterface10invalidateEPNS_9DBusProxyERK7QStringS6_@Base 0.9.1
 _ZN2Tp6Client19ConnectionInterface11qt_metacallEN11QMetaObject4CallEiPPv@Base 0.9.1
 _ZN2Tp6Client19ConnectionInterface11qt_metacastEPKc@Base 0.9.1
 _ZN2Tp6Client19ConnectionInterface13StatusChangedEjj@Base 0.9.1
 _ZN2Tp6Client19ConnectionInterface15ConnectionErrorERK7QStringRK4QMapIS2_8QVariantE@Base 0.9.1
 _ZN2Tp6Client19ConnectionInterface16staticMetaObjectE@Base 0.9.1
 _ZN2Tp6Client19ConnectionInterface17SelfHandleChangedEj@Base 0.9.1
 _ZN2Tp6Client19ConnectionInterfaceC1EPNS_9DBusProxyE@Base 0.9.1
 _ZN2Tp6Client19ConnectionInterfaceC1ERK15QDBusConnectionRK7QStringS7_P7QObject@Base 0.9.1
 _ZN2Tp6Client19ConnectionInterfaceC1ERK7QStringS4_P7QObject@Base 0.9.1
 _ZN2Tp6Client19ConnectionInterfaceC2EPNS_9DBusProxyE@Base 0.9.1
 _ZN2Tp6Client19ConnectionInterfaceC2ERK15QDBusConnectionRK7QStringS7_P7QObject@Base 0.9.1
 _ZN2Tp6Client19ConnectionInterfaceC2ERK7QStringS4_P7QObject@Base 0.9.1
 _ZN2Tp6Client19ConnectionInterfaceD0Ev@Base 0.9.1
 _ZN2Tp6Client19ConnectionInterfaceD1Ev@Base 0.9.1
 _ZN2Tp6Client19ConnectionInterfaceD2Ev@Base 0.9.1
 _ZN2Tp6Client20CallContentInterface10invalidateEPNS_9DBusProxyERK7QStringS6_@Base 0.9.1
 _ZN2Tp6Client20CallContentInterface11qt_metacallEN11QMetaObject4CallEiPPv@Base 0.9.1
 _ZN2Tp6Client20CallContentInterface11qt_metacastEPKc@Base 0.9.1
 _ZN2Tp6Client20CallContentInterface12StreamsAddedERKNS_14ObjectPathListE@Base 0.9.1
 _ZN2Tp6Client20CallContentInterface14StreamsRemovedERKNS_14ObjectPathListERKNS_15CallStateReasonE@Base 0.9.1
 _ZN2Tp6Client20CallContentInterface16staticMetaObjectE@Base 0.9.1
 _ZN2Tp6Client20CallContentInterfaceC1EPNS_9DBusProxyE@Base 0.9.1
 _ZN2Tp6Client20CallContentInterfaceC1ERK15QDBusConnectionRK7QStringS7_P7QObject@Base 0.9.1
 _ZN2Tp6Client20CallContentInterfaceC1ERK7QStringS4_P7QObject@Base 0.9.1
 _ZN2Tp6Client20CallContentInterfaceC2EPNS_9DBusProxyE@Base 0.9.1
 _ZN2Tp6Client20CallContentInterfaceC2ERK15QDBusConnectionRK7QStringS7_P7QObject@Base 0.9.1
 _ZN2Tp6Client20CallContentInterfaceC2ERK7QStringS4_P7QObject@Base 0.9.1
 _ZN2Tp6Client20CallContentInterfaceD0Ev@Base 0.9.1
 _ZN2Tp6Client20CallContentInterfaceD1Ev@Base 0.9.1
 _ZN2Tp6Client20CallContentInterfaceD2Ev@Base 0.9.1
 _ZN2Tp6Client22ClientHandlerInterface10invalidateEPNS_9DBusProxyERK7QStringS6_@Base 0.9.1
 _ZN2Tp6Client22ClientHandlerInterface11qt_metacallEN11QMetaObject4CallEiPPv@Base 0.9.1
 _ZN2Tp6Client22ClientHandlerInterface11qt_metacastEPKc@Base 0.9.1
 _ZN2Tp6Client22ClientHandlerInterface16staticMetaObjectE@Base 0.9.1
 _ZN2Tp6Client22ClientHandlerInterfaceC1EPNS_9DBusProxyE@Base 0.9.1
 _ZN2Tp6Client22ClientHandlerInterfaceC1ERK15QDBusConnectionRK7QStringS7_P7QObject@Base 0.9.1
 _ZN2Tp6Client22ClientHandlerInterfaceC1ERK7QStringS4_P7QObject@Base 0.9.1
 _ZN2Tp6Client22ClientHandlerInterfaceC1ERKNS0_15ClientInterfaceE@Base 0.9.1
 _ZN2Tp6Client22ClientHandlerInterfaceC1ERKNS0_15ClientInterfaceEP7QObject@Base 0.9.1
 _ZN2Tp6Client22ClientHandlerInterfaceC2EPNS_9DBusProxyE@Base 0.9.1
 _ZN2Tp6Client22ClientHandlerInterfaceC2ERK15QDBusConnectionRK7QStringS7_P7QObject@Base 0.9.1
 _ZN2Tp6Client22ClientHandlerInterfaceC2ERK7QStringS4_P7QObject@Base 0.9.1
 _ZN2Tp6Client22ClientHandlerInterfaceC2ERKNS0_15ClientInterfaceE@Base 0.9.1
 _ZN2Tp6Client22ClientHandlerInterfaceC2ERKNS0_15ClientInterfaceEP7QObject@Base 0.9.1
 _ZN2Tp6Client22ClientHandlerInterfaceD0Ev@Base 0.9.1
 _ZN2Tp6Client22ClientHandlerInterfaceD1Ev@Base 0.9.1
 _ZN2Tp6Client22ClientHandlerInterfaceD2Ev@Base 0.9.1
 _ZN2Tp6Client23AccountManagerInterface10invalidateEPNS_9DBusProxyERK7QStringS6_@Base 0.9.1
 _ZN2Tp6Client23AccountManagerInterface11qt_metacallEN11QMetaObject4CallEiPPv@Base 0.9.1
 _ZN2Tp6Client23AccountManagerInterface11qt_metacastEPKc@Base 0.9.1
 _ZN2Tp6Client23AccountManagerInterface14AccountRemovedERK15QDBusObjectPath@Base 0.9.1
 _ZN2Tp6Client23AccountManagerInterface16staticMetaObjectE@Base 0.9.1
 _ZN2Tp6Client23AccountManagerInterface22AccountValidityChangedERK15QDBusObjectPathb@Base 0.9.1
 _ZN2Tp6Client23AccountManagerInterfaceC1EPNS_9DBusProxyE@Base 0.9.1
 _ZN2Tp6Client23AccountManagerInterfaceC1ERK15QDBusConnectionRK7QStringS7_P7QObject@Base 0.9.1
 _ZN2Tp6Client23AccountManagerInterfaceC1ERK7QStringS4_P7QObject@Base 0.9.1
 _ZN2Tp6Client23AccountManagerInterfaceC2EPNS_9DBusProxyE@Base 0.9.1
 _ZN2Tp6Client23AccountManagerInterfaceC2ERK15QDBusConnectionRK7QStringS7_P7QObject@Base 0.9.1
 _ZN2Tp6Client23AccountManagerInterfaceC2ERK7QStringS4_P7QObject@Base 0.9.1
 _ZN2Tp6Client23AccountManagerInterfaceD0Ev@Base 0.9.1
 _ZN2Tp6Client23AccountManagerInterfaceD1Ev@Base 0.9.1
 _ZN2Tp6Client23AccountManagerInterfaceD2Ev@Base 0.9.1
 _ZN2Tp6Client23ChannelRequestInterface10invalidateEPNS_9DBusProxyERK7QStringS6_@Base 0.9.1
 _ZN2Tp6Client23ChannelRequestInterface11qt_metacallEN11QMetaObject4CallEiPPv@Base 0.9.1
 _ZN2Tp6Client23ChannelRequestInterface11qt_metacastEPKc@Base 0.9.1
 _ZN2Tp6Client23ChannelRequestInterface16staticMetaObjectE@Base 0.9.1
 _ZN2Tp6Client23ChannelRequestInterface20SucceededWithChannelERK15QDBusObjectPathRK4QMapI7QString8QVariantES4_SA_@Base 0.9.1
 _ZN2Tp6Client23ChannelRequestInterface6FailedERK7QStringS4_@Base 0.9.1
 _ZN2Tp6Client23ChannelRequestInterface9SucceededEv@Base 0.9.1
 _ZN2Tp6Client23ChannelRequestInterfaceC1EPNS_9DBusProxyE@Base 0.9.1
 _ZN2Tp6Client23ChannelRequestInterfaceC1ERK15QDBusConnectionRK7QStringS7_P7QObject@Base 0.9.1
 _ZN2Tp6Client23ChannelRequestInterfaceC1ERK7QStringS4_P7QObject@Base 0.9.1
 _ZN2Tp6Client23ChannelRequestInterfaceC2EPNS_9DBusProxyE@Base 0.9.1
 _ZN2Tp6Client23ChannelRequestInterfaceC2ERK15QDBusConnectionRK7QStringS7_P7QObject@Base 0.9.1
 _ZN2Tp6Client23ChannelRequestInterfaceC2ERK7QStringS4_P7QObject@Base 0.9.1
 _ZN2Tp6Client23ChannelRequestInterfaceD0Ev@Base 0.9.1
 _ZN2Tp6Client23ChannelRequestInterfaceD1Ev@Base 0.9.1
 _ZN2Tp6Client23ChannelRequestInterfaceD2Ev@Base 0.9.1
 _ZN2Tp6Client23ClientApproverInterface10invalidateEPNS_9DBusProxyERK7QStringS6_@Base 0.9.1
 _ZN2Tp6Client23ClientApproverInterface11qt_metacallEN11QMetaObject4CallEiPPv@Base 0.9.1
 _ZN2Tp6Client23ClientApproverInterface11qt_metacastEPKc@Base 0.9.1
 _ZN2Tp6Client23ClientApproverInterface16staticMetaObjectE@Base 0.9.1
 _ZN2Tp6Client23ClientApproverInterfaceC1EPNS_9DBusProxyE@Base 0.9.1
 _ZN2Tp6Client23ClientApproverInterfaceC1ERK15QDBusConnectionRK7QStringS7_P7QObject@Base 0.9.1
 _ZN2Tp6Client23ClientApproverInterfaceC1ERK7QStringS4_P7QObject@Base 0.9.1
 _ZN2Tp6Client23ClientApproverInterfaceC1ERKNS0_15ClientInterfaceE@Base 0.9.1
 _ZN2Tp6Client23ClientApproverInterfaceC1ERKNS0_15ClientInterfaceEP7QObject@Base 0.9.1
 _ZN2Tp6Client23ClientApproverInterfaceC2EPNS_9DBusProxyE@Base 0.9.1
 _ZN2Tp6Client23ClientApproverInterfaceC2ERK15QDBusConnectionRK7QStringS7_P7QObject@Base 0.9.1
 _ZN2Tp6Client23ClientApproverInterfaceC2ERK7QStringS4_P7QObject@Base 0.9.1
 _ZN2Tp6Client23ClientApproverInterfaceC2ERKNS0_15ClientInterfaceE@Base 0.9.1
 _ZN2Tp6Client23ClientApproverInterfaceC2ERKNS0_15ClientInterfaceEP7QObject@Base 0.9.1
 _ZN2Tp6Client23ClientApproverInterfaceD0Ev@Base 0.9.1
 _ZN2Tp6Client23ClientApproverInterfaceD1Ev@Base 0.9.1
 _ZN2Tp6Client23ClientApproverInterfaceD2Ev@Base 0.9.1
 _ZN2Tp6Client23ClientObserverInterface10invalidateEPNS_9DBusProxyERK7QStringS6_@Base 0.9.1
 _ZN2Tp6Client23ClientObserverInterface11qt_metacallEN11QMetaObject4CallEiPPv@Base 0.9.1
 _ZN2Tp6Client23ClientObserverInterface11qt_metacastEPKc@Base 0.9.1
 _ZN2Tp6Client23ClientObserverInterface16staticMetaObjectE@Base 0.9.1
 _ZN2Tp6Client23ClientObserverInterfaceC1EPNS_9DBusProxyE@Base 0.9.1
 _ZN2Tp6Client23ClientObserverInterfaceC1ERK15QDBusConnectionRK7QStringS7_P7QObject@Base 0.9.1
 _ZN2Tp6Client23ClientObserverInterfaceC1ERK7QStringS4_P7QObject@Base 0.9.1
 _ZN2Tp6Client23ClientObserverInterfaceC1ERKNS0_15ClientInterfaceE@Base 0.9.1
 _ZN2Tp6Client23ClientObserverInterfaceC1ERKNS0_15ClientInterfaceEP7QObject@Base 0.9.1
 _ZN2Tp6Client23ClientObserverInterfaceC2EPNS_9DBusProxyE@Base 0.9.1
 _ZN2Tp6Client23ClientObserverInterfaceC2ERK15QDBusConnectionRK7QStringS7_P7QObject@Base 0.9.1
 _ZN2Tp6Client23ClientObserverInterfaceC2ERK7QStringS4_P7QObject@Base 0.9.1
 _ZN2Tp6Client23ClientObserverInterfaceC2ERKNS0_15ClientInterfaceE@Base 0.9.1
 _ZN2Tp6Client23ClientObserverInterfaceC2ERKNS0_15ClientInterfaceEP7QObject@Base 0.9.1
 _ZN2Tp6Client23ClientObserverInterfaceD0Ev@Base 0.9.1
 _ZN2Tp6Client23ClientObserverInterfaceD1Ev@Base 0.9.1
 _ZN2Tp6Client23ClientObserverInterfaceD2Ev@Base 0.9.1
 _ZN2Tp6Client24ChannelTypeCallInterface10invalidateEPNS_9DBusProxyERK7QStringS6_@Base 0.9.1
 _ZN2Tp6Client24ChannelTypeCallInterface11qt_metacallEN11QMetaObject4CallEiPPv@Base 0.9.1
 _ZN2Tp6Client24ChannelTypeCallInterface11qt_metacastEPKc@Base 0.9.1
 _ZN2Tp6Client24ChannelTypeCallInterface12ContentAddedERK15QDBusObjectPath@Base 0.9.1
 _ZN2Tp6Client24ChannelTypeCallInterface14ContentRemovedERK15QDBusObjectPathRKNS_15CallStateReasonE@Base 0.9.1
 _ZN2Tp6Client24ChannelTypeCallInterface16CallStateChangedEjjRKNS_15CallStateReasonERK4QMapI7QString8QVariantE@Base 0.9.1
 _ZN2Tp6Client24ChannelTypeCallInterface16staticMetaObjectE@Base 0.9.1
 _ZN2Tp6Client24ChannelTypeCallInterface18CallMembersChangedERKNS_13CallMemberMapERKNS_19HandleIdentifierMapERKNS_8UIntListERKNS_15CallStateReasonE@Base 0.9.1
 _ZN2Tp6Client24ChannelTypeCallInterfaceC1EPNS_9DBusProxyE@Base 0.9.1
 _ZN2Tp6Client24ChannelTypeCallInterfaceC1ERK15QDBusConnectionRK7QStringS7_P7QObject@Base 0.9.1
 _ZN2Tp6Client24ChannelTypeCallInterfaceC1ERK7QStringS4_P7QObject@Base 0.9.1
 _ZN2Tp6Client24ChannelTypeCallInterfaceC1ERKNS0_16ChannelInterfaceE@Base 0.9.1
 _ZN2Tp6Client24ChannelTypeCallInterfaceC1ERKNS0_16ChannelInterfaceEP7QObject@Base 0.9.1
 _ZN2Tp6Client24ChannelTypeCallInterfaceC2EPNS_9DBusProxyE@Base 0.9.1
 _ZN2Tp6Client24ChannelTypeCallInterfaceC2ERK15QDBusConnectionRK7QStringS7_P7QObject@Base 0.9.1
 _ZN2Tp6Client24ChannelTypeCallInterfaceC2ERK7QStringS4_P7QObject@Base 0.9.1
 _ZN2Tp6Client24ChannelTypeCallInterfaceC2ERKNS0_16ChannelInterfaceE@Base 0.9.1
 _ZN2Tp6Client24ChannelTypeCallInterfaceC2ERKNS0_16ChannelInterfaceEP7QObject@Base 0.9.1
 _ZN2Tp6Client24ChannelTypeCallInterfaceD0Ev@Base 0.9.1
 _ZN2Tp6Client24ChannelTypeCallInterfaceD1Ev@Base 0.9.1
 _ZN2Tp6Client24ChannelTypeCallInterfaceD2Ev@Base 0.9.1
 _ZN2Tp6Client24ChannelTypeTextInterface10invalidateEPNS_9DBusProxyERK7QStringS6_@Base 0.9.1
 _ZN2Tp6Client24ChannelTypeTextInterface11LostMessageEv@Base 0.9.1
 _ZN2Tp6Client24ChannelTypeTextInterface11qt_metacallEN11QMetaObject4CallEiPPv@Base 0.9.1
 _ZN2Tp6Client24ChannelTypeTextInterface11qt_metacastEPKc@Base 0.9.1
 _ZN2Tp6Client24ChannelTypeTextInterface16staticMetaObjectE@Base 0.9.1
 _ZN2Tp6Client24ChannelTypeTextInterface4SentEjjRK7QString@Base 0.9.1
 _ZN2Tp6Client24ChannelTypeTextInterface8ReceivedEjjjjjRK7QString@Base 0.9.1
 _ZN2Tp6Client24ChannelTypeTextInterface9SendErrorEjjjRK7QString@Base 0.9.1
 _ZN2Tp6Client24ChannelTypeTextInterfaceC1EPNS_9DBusProxyE@Base 0.9.1
 _ZN2Tp6Client24ChannelTypeTextInterfaceC1ERK15QDBusConnectionRK7QStringS7_P7QObject@Base 0.9.1
 _ZN2Tp6Client24ChannelTypeTextInterfaceC1ERK7QStringS4_P7QObject@Base 0.9.1
 _ZN2Tp6Client24ChannelTypeTextInterfaceC1ERKNS0_16ChannelInterfaceE@Base 0.9.1
 _ZN2Tp6Client24ChannelTypeTextInterfaceC1ERKNS0_16ChannelInterfaceEP7QObject@Base 0.9.1
 _ZN2Tp6Client24ChannelTypeTextInterfaceC2EPNS_9DBusProxyE@Base 0.9.1
 _ZN2Tp6Client24ChannelTypeTextInterfaceC2ERK15QDBusConnectionRK7QStringS7_P7QObject@Base 0.9.1
 _ZN2Tp6Client24ChannelTypeTextInterfaceC2ERK7QStringS4_P7QObject@Base 0.9.1
 _ZN2Tp6Client24ChannelTypeTextInterfaceC2ERKNS0_16ChannelInterfaceE@Base 0.9.1
 _ZN2Tp6Client24ChannelTypeTextInterfaceC2ERKNS0_16ChannelInterfaceEP7QObject@Base 0.9.1
 _ZN2Tp6Client24ChannelTypeTextInterfaceD0Ev@Base 0.9.1
 _ZN2Tp6Client24ChannelTypeTextInterfaceD1Ev@Base 0.9.1
 _ZN2Tp6Client24ChannelTypeTextInterfaceD2Ev@Base 0.9.1
 _ZN2Tp6Client25ChannelTypeTubesInterface10TubeClosedEj@Base 0.9.1
 _ZN2Tp6Client25ChannelTypeTubesInterface10invalidateEPNS_9DBusProxyERK7QStringS6_@Base 0.9.1
 _ZN2Tp6Client25ChannelTypeTubesInterface11qt_metacallEN11QMetaObject4CallEiPPv@Base 0.9.1
 _ZN2Tp6Client25ChannelTypeTubesInterface11qt_metacastEPKc@Base 0.9.1
 _ZN2Tp6Client25ChannelTypeTubesInterface16DBusNamesChangedEjRK5QListINS_14DBusTubeMemberEERKNS_8UIntListE@Base 0.9.1
 _ZN2Tp6Client25ChannelTypeTubesInterface16TubeStateChangedEjj@Base 0.9.1
 _ZN2Tp6Client25ChannelTypeTubesInterface16staticMetaObjectE@Base 0.9.1
 _ZN2Tp6Client25ChannelTypeTubesInterface23StreamTubeNewConnectionEjj@Base 0.9.1
 _ZN2Tp6Client25ChannelTypeTubesInterface7NewTubeEjjjRK7QStringRK4QMapIS2_8QVariantEj@Base 0.9.1
 _ZN2Tp6Client25ChannelTypeTubesInterfaceC1EPNS_9DBusProxyE@Base 0.9.1
 _ZN2Tp6Client25ChannelTypeTubesInterfaceC1ERK15QDBusConnectionRK7QStringS7_P7QObject@Base 0.9.1
 _ZN2Tp6Client25ChannelTypeTubesInterfaceC1ERK7QStringS4_P7QObject@Base 0.9.1
 _ZN2Tp6Client25ChannelTypeTubesInterfaceC1ERKNS0_16ChannelInterfaceE@Base 0.9.1
 _ZN2Tp6Client25ChannelTypeTubesInterfaceC1ERKNS0_16ChannelInterfaceEP7QObject@Base 0.9.1
 _ZN2Tp6Client25ChannelTypeTubesInterfaceC2EPNS_9DBusProxyE@Base 0.9.1
 _ZN2Tp6Client25ChannelTypeTubesInterfaceC2ERK15QDBusConnectionRK7QStringS7_P7QObject@Base 0.9.1
 _ZN2Tp6Client25ChannelTypeTubesInterfaceC2ERK7QStringS4_P7QObject@Base 0.9.1
 _ZN2Tp6Client25ChannelTypeTubesInterfaceC2ERKNS0_16ChannelInterfaceE@Base 0.9.1
 _ZN2Tp6Client25ChannelTypeTubesInterfaceC2ERKNS0_16ChannelInterfaceEP7QObject@Base 0.9.1
 _ZN2Tp6Client25ChannelTypeTubesInterfaceD0Ev@Base 0.9.1
 _ZN2Tp6Client25ChannelTypeTubesInterfaceD1Ev@Base 0.9.1
 _ZN2Tp6Client25ChannelTypeTubesInterfaceD2Ev@Base 0.9.1
 _ZN2Tp6Client26ChannelDispatcherInterface10invalidateEPNS_9DBusProxyERK7QStringS6_@Base 0.9.1
 _ZN2Tp6Client26ChannelDispatcherInterface11qt_metacallEN11QMetaObject4CallEiPPv@Base 0.9.1
 _ZN2Tp6Client26ChannelDispatcherInterface11qt_metacastEPKc@Base 0.9.1
 _ZN2Tp6Client26ChannelDispatcherInterface16staticMetaObjectE@Base 0.9.1
 _ZN2Tp6Client26ChannelDispatcherInterfaceC1EPNS_9DBusProxyE@Base 0.9.1
 _ZN2Tp6Client26ChannelDispatcherInterfaceC1ERK15QDBusConnectionRK7QStringS7_P7QObject@Base 0.9.1
 _ZN2Tp6Client26ChannelDispatcherInterfaceC1ERK7QStringS4_P7QObject@Base 0.9.1
 _ZN2Tp6Client26ChannelDispatcherInterfaceC2EPNS_9DBusProxyE@Base 0.9.1
 _ZN2Tp6Client26ChannelDispatcherInterfaceC2ERK15QDBusConnectionRK7QStringS7_P7QObject@Base 0.9.1
 _ZN2Tp6Client26ChannelDispatcherInterfaceC2ERK7QStringS4_P7QObject@Base 0.9.1
 _ZN2Tp6Client26ChannelDispatcherInterfaceD0Ev@Base 0.9.1
 _ZN2Tp6Client26ChannelDispatcherInterfaceD1Ev@Base 0.9.1
 _ZN2Tp6Client26ChannelDispatcherInterfaceD2Ev@Base 0.9.1
 _ZN2Tp6Client26ConnectionManagerInterface10invalidateEPNS_9DBusProxyERK7QStringS6_@Base 0.9.1
 _ZN2Tp6Client26ConnectionManagerInterface11qt_metacallEN11QMetaObject4CallEiPPv@Base 0.9.1
 _ZN2Tp6Client26ConnectionManagerInterface11qt_metacastEPKc@Base 0.9.1
 _ZN2Tp6Client26ConnectionManagerInterface13NewConnectionERK7QStringRK15QDBusObjectPathS4_@Base 0.9.1
 _ZN2Tp6Client26ConnectionManagerInterface16staticMetaObjectE@Base 0.9.1
 _ZN2Tp6Client26ConnectionManagerInterfaceC1EPNS_9DBusProxyE@Base 0.9.1
 _ZN2Tp6Client26ConnectionManagerInterfaceC1ERK15QDBusConnectionRK7QStringS7_P7QObject@Base 0.9.1
 _ZN2Tp6Client26ConnectionManagerInterfaceC1ERK7QStringS4_P7QObject@Base 0.9.1
 _ZN2Tp6Client26ConnectionManagerInterfaceC2EPNS_9DBusProxyE@Base 0.9.1
 _ZN2Tp6Client26ConnectionManagerInterfaceC2ERK15QDBusConnectionRK7QStringS7_P7QObject@Base 0.9.1
 _ZN2Tp6Client26ConnectionManagerInterfaceC2ERK7QStringS4_P7QObject@Base 0.9.1
 _ZN2Tp6Client26ConnectionManagerInterfaceD0Ev@Base 0.9.1
 _ZN2Tp6Client26ConnectionManagerInterfaceD1Ev@Base 0.9.1
 _ZN2Tp6Client26ConnectionManagerInterfaceD2Ev@Base 0.9.1
 _ZN2Tp6Client27CallStreamEndpointInterface10invalidateEPNS_9DBusProxyERK7QStringS6_@Base 0.9.1
 _ZN2Tp6Client27CallStreamEndpointInterface11qt_metacallEN11QMetaObject4CallEiPPv@Base 0.9.1
 _ZN2Tp6Client27CallStreamEndpointInterface11qt_metacastEPKc@Base 0.9.1
 _ZN2Tp6Client27CallStreamEndpointInterface16staticMetaObjectE@Base 0.9.1
 _ZN2Tp6Client27CallStreamEndpointInterface18ControllingChangedEb@Base 0.9.1
 _ZN2Tp6Client27CallStreamEndpointInterface20EndpointStateChangedEjj@Base 0.9.1
 _ZN2Tp6Client27CallStreamEndpointInterface20RemoteCredentialsSetERK7QStringS4_@Base 0.9.1
 _ZN2Tp6Client27CallStreamEndpointInterface21CandidatePairSelectedERKNS_9CandidateES4_@Base 0.9.1
 _ZN2Tp6Client27CallStreamEndpointInterface21RemoteCandidatesAddedERK5QListINS_9CandidateEE@Base 0.9.1
 _ZN2Tp6Client27CallStreamEndpointInterfaceC1EPNS_9DBusProxyE@Base 0.9.1
 _ZN2Tp6Client27CallStreamEndpointInterfaceC1ERK15QDBusConnectionRK7QStringS7_P7QObject@Base 0.9.1
 _ZN2Tp6Client27CallStreamEndpointInterfaceC1ERK7QStringS4_P7QObject@Base 0.9.1
 _ZN2Tp6Client27CallStreamEndpointInterfaceC2EPNS_9DBusProxyE@Base 0.9.1
 _ZN2Tp6Client27CallStreamEndpointInterfaceC2ERK15QDBusConnectionRK7QStringS7_P7QObject@Base 0.9.1
 _ZN2Tp6Client27CallStreamEndpointInterfaceC2ERK7QStringS4_P7QObject@Base 0.9.1
 _ZN2Tp6Client27CallStreamEndpointInterfaceD0Ev@Base 0.9.1
 _ZN2Tp6Client27CallStreamEndpointInterfaceD1Ev@Base 0.9.1
 _ZN2Tp6Client27CallStreamEndpointInterfaceD2Ev@Base 0.9.1
 _ZN2Tp6Client27MediaStreamHandlerInterface10invalidateEPNS_9DBusProxyERK7QStringS6_@Base 0.9.1
 _ZN2Tp6Client27MediaStreamHandlerInterface11qt_metacallEN11QMetaObject4CallEiPPv@Base 0.9.1
 _ZN2Tp6Client27MediaStreamHandlerInterface11qt_metacastEPKc@Base 0.9.1
 _ZN2Tp6Client27MediaStreamHandlerInterface13SetStreamHeldEb@Base 0.9.1
 _ZN2Tp6Client27MediaStreamHandlerInterface15SetRemoteCodecsERK5QListINS_23MediaStreamHandlerCodecEE@Base 0.9.1
 _ZN2Tp6Client27MediaStreamHandlerInterface16SetStreamPlayingEb@Base 0.9.1
 _ZN2Tp6Client27MediaStreamHandlerInterface16SetStreamSendingEb@Base 0.9.1
 _ZN2Tp6Client27MediaStreamHandlerInterface16staticMetaObjectE@Base 0.9.1
 _ZN2Tp6Client27MediaStreamHandlerInterface18AddRemoteCandidateERK7QStringRK5QListINS_27MediaStreamHandlerTransportEE@Base 0.9.1
 _ZN2Tp6Client27MediaStreamHandlerInterface18StopTelephonyEventEv@Base 0.9.1
 _ZN2Tp6Client27MediaStreamHandlerInterface19StartTelephonyEventEh@Base 0.9.1
 _ZN2Tp6Client27MediaStreamHandlerInterface21RemoveRemoteCandidateERK7QString@Base 0.9.1
 _ZN2Tp6Client27MediaStreamHandlerInterface22SetActiveCandidatePairERK7QStringS4_@Base 0.9.1
 _ZN2Tp6Client27MediaStreamHandlerInterface22SetRemoteCandidateListERK5QListINS_27MediaStreamHandlerCandidateEE@Base 0.9.1
 _ZN2Tp6Client27MediaStreamHandlerInterface24StartNamedTelephonyEventEhj@Base 0.9.1
 _ZN2Tp6Client27MediaStreamHandlerInterface24StartSoundTelephonyEventEh@Base 0.9.1
 _ZN2Tp6Client27MediaStreamHandlerInterface25SetRemoteFeedbackMessagesERKNS_22RTCPFeedbackMessageMapE@Base 0.9.1
 _ZN2Tp6Client27MediaStreamHandlerInterface25SetRemoteHeaderExtensionsERK5QListINS_18RTPHeaderExtensionEE@Base 0.9.1
 _ZN2Tp6Client27MediaStreamHandlerInterface5CloseEv@Base 0.9.1
 _ZN2Tp6Client27MediaStreamHandlerInterfaceC1EPNS_9DBusProxyE@Base 0.9.1
 _ZN2Tp6Client27MediaStreamHandlerInterfaceC1ERK15QDBusConnectionRK7QStringS7_P7QObject@Base 0.9.1
 _ZN2Tp6Client27MediaStreamHandlerInterfaceC1ERK7QStringS4_P7QObject@Base 0.9.1
 _ZN2Tp6Client27MediaStreamHandlerInterfaceC2EPNS_9DBusProxyE@Base 0.9.1
 _ZN2Tp6Client27MediaStreamHandlerInterfaceC2ERK15QDBusConnectionRK7QStringS7_P7QObject@Base 0.9.1
 _ZN2Tp6Client27MediaStreamHandlerInterfaceC2ERK7QStringS4_P7QObject@Base 0.9.1
 _ZN2Tp6Client27MediaStreamHandlerInterfaceD0Ev@Base 0.9.1
 _ZN2Tp6Client27MediaStreamHandlerInterfaceD1Ev@Base 0.9.1
 _ZN2Tp6Client27MediaStreamHandlerInterfaceD2Ev@Base 0.9.1
 _ZN2Tp6Client28ChannelInterfaceSMSInterface10invalidateEPNS_9DBusProxyERK7QStringS6_@Base 0.9.1
 _ZN2Tp6Client28ChannelInterfaceSMSInterface11qt_metacallEN11QMetaObject4CallEiPPv@Base 0.9.1
 _ZN2Tp6Client28ChannelInterfaceSMSInterface11qt_metacastEPKc@Base 0.9.1
 _ZN2Tp6Client28ChannelInterfaceSMSInterface16staticMetaObjectE@Base 0.9.1
 _ZN2Tp6Client28ChannelInterfaceSMSInterface17SMSChannelChangedEb@Base 0.9.1
 _ZN2Tp6Client28ChannelInterfaceSMSInterfaceC1EPNS_9DBusProxyE@Base 0.9.1
 _ZN2Tp6Client28ChannelInterfaceSMSInterfaceC1ERK15QDBusConnectionRK7QStringS7_P7QObject@Base 0.9.1
 _ZN2Tp6Client28ChannelInterfaceSMSInterfaceC1ERK7QStringS4_P7QObject@Base 0.9.1
 _ZN2Tp6Client28ChannelInterfaceSMSInterfaceC1ERKNS0_16ChannelInterfaceE@Base 0.9.1
 _ZN2Tp6Client28ChannelInterfaceSMSInterfaceC1ERKNS0_16ChannelInterfaceEP7QObject@Base 0.9.1
 _ZN2Tp6Client28ChannelInterfaceSMSInterfaceC2EPNS_9DBusProxyE@Base 0.9.1
 _ZN2Tp6Client28ChannelInterfaceSMSInterfaceC2ERK15QDBusConnectionRK7QStringS7_P7QObject@Base 0.9.1
 _ZN2Tp6Client28ChannelInterfaceSMSInterfaceC2ERK7QStringS4_P7QObject@Base 0.9.1
 _ZN2Tp6Client28ChannelInterfaceSMSInterfaceC2ERKNS0_16ChannelInterfaceE@Base 0.9.1
 _ZN2Tp6Client28ChannelInterfaceSMSInterfaceC2ERKNS0_16ChannelInterfaceEP7QObject@Base 0.9.1
 _ZN2Tp6Client28ChannelInterfaceSMSInterfaceD0Ev@Base 0.9.1
 _ZN2Tp6Client28ChannelInterfaceSMSInterfaceD1Ev@Base 0.9.1
 _ZN2Tp6Client28ChannelInterfaceSMSInterfaceD2Ev@Base 0.9.1
 _ZN2Tp6Client28ChannelTypeDBusTubeInterface10invalidateEPNS_9DBusProxyERK7QStringS6_@Base 0.9.1
 _ZN2Tp6Client28ChannelTypeDBusTubeInterface11qt_metacallEN11QMetaObject4CallEiPPv@Base 0.9.1
 _ZN2Tp6Client28ChannelTypeDBusTubeInterface11qt_metacastEPKc@Base 0.9.1
 _ZN2Tp6Client28ChannelTypeDBusTubeInterface16DBusNamesChangedERKNS_20DBusTubeParticipantsERKNS_8UIntListE@Base 0.9.1
 _ZN2Tp6Client28ChannelTypeDBusTubeInterface16staticMetaObjectE@Base 0.9.1
 _ZN2Tp6Client28ChannelTypeDBusTubeInterfaceC1EPNS_9DBusProxyE@Base 0.9.1
 _ZN2Tp6Client28ChannelTypeDBusTubeInterfaceC1ERK15QDBusConnectionRK7QStringS7_P7QObject@Base 0.9.1
 _ZN2Tp6Client28ChannelTypeDBusTubeInterfaceC1ERK7QStringS4_P7QObject@Base 0.9.1
 _ZN2Tp6Client28ChannelTypeDBusTubeInterfaceC1ERKNS0_16ChannelInterfaceE@Base 0.9.1
 _ZN2Tp6Client28ChannelTypeDBusTubeInterfaceC1ERKNS0_16ChannelInterfaceEP7QObject@Base 0.9.1
 _ZN2Tp6Client28ChannelTypeDBusTubeInterfaceC2EPNS_9DBusProxyE@Base 0.9.1
 _ZN2Tp6Client28ChannelTypeDBusTubeInterfaceC2ERK15QDBusConnectionRK7QStringS7_P7QObject@Base 0.9.1
 _ZN2Tp6Client28ChannelTypeDBusTubeInterfaceC2ERK7QStringS4_P7QObject@Base 0.9.1
 _ZN2Tp6Client28ChannelTypeDBusTubeInterfaceC2ERKNS0_16ChannelInterfaceE@Base 0.9.1
 _ZN2Tp6Client28ChannelTypeDBusTubeInterfaceC2ERKNS0_16ChannelInterfaceEP7QObject@Base 0.9.1
 _ZN2Tp6Client28ChannelTypeDBusTubeInterfaceD0Ev@Base 0.9.1
 _ZN2Tp6Client28ChannelTypeDBusTubeInterfaceD1Ev@Base 0.9.1
 _ZN2Tp6Client28ChannelTypeDBusTubeInterfaceD2Ev@Base 0.9.1
 _ZN2Tp6Client28ChannelTypeRoomListInterface10invalidateEPNS_9DBusProxyERK7QStringS6_@Base 0.9.1
 _ZN2Tp6Client28ChannelTypeRoomListInterface11qt_metacallEN11QMetaObject4CallEiPPv@Base 0.9.1
 _ZN2Tp6Client28ChannelTypeRoomListInterface11qt_metacastEPKc@Base 0.9.1
 _ZN2Tp6Client28ChannelTypeRoomListInterface12ListingRoomsEb@Base 0.9.1
 _ZN2Tp6Client28ChannelTypeRoomListInterface16staticMetaObjectE@Base 0.9.1
 _ZN2Tp6Client28ChannelTypeRoomListInterface8GotRoomsERK5QListINS_8RoomInfoEE@Base 0.9.1
 _ZN2Tp6Client28ChannelTypeRoomListInterfaceC1EPNS_9DBusProxyE@Base 0.9.1
 _ZN2Tp6Client28ChannelTypeRoomListInterfaceC1ERK15QDBusConnectionRK7QStringS7_P7QObject@Base 0.9.1
 _ZN2Tp6Client28ChannelTypeRoomListInterfaceC1ERK7QStringS4_P7QObject@Base 0.9.1
 _ZN2Tp6Client28ChannelTypeRoomListInterfaceC1ERKNS0_16ChannelInterfaceE@Base 0.9.1
 _ZN2Tp6Client28ChannelTypeRoomListInterfaceC1ERKNS0_16ChannelInterfaceEP7QObject@Base 0.9.1
 _ZN2Tp6Client28ChannelTypeRoomListInterfaceC2EPNS_9DBusProxyE@Base 0.9.1
 _ZN2Tp6Client28ChannelTypeRoomListInterfaceC2ERK15QDBusConnectionRK7QStringS7_P7QObject@Base 0.9.1
 _ZN2Tp6Client28ChannelTypeRoomListInterfaceC2ERK7QStringS4_P7QObject@Base 0.9.1
 _ZN2Tp6Client28ChannelTypeRoomListInterfaceC2ERKNS0_16ChannelInterfaceE@Base 0.9.1
 _ZN2Tp6Client28ChannelTypeRoomListInterfaceC2ERKNS0_16ChannelInterfaceEP7QObject@Base 0.9.1
 _ZN2Tp6Client28ChannelTypeRoomListInterfaceD0Ev@Base 0.9.1
 _ZN2Tp6Client28ChannelTypeRoomListInterfaceD1Ev@Base 0.9.1
 _ZN2Tp6Client28ChannelTypeRoomListInterfaceD2Ev@Base 0.9.1
 _ZN2Tp6Client28MediaSessionHandlerInterface10invalidateEPNS_9DBusProxyERK7QStringS6_@Base 0.9.1
 _ZN2Tp6Client28MediaSessionHandlerInterface11qt_metacallEN11QMetaObject4CallEiPPv@Base 0.9.1
 _ZN2Tp6Client28MediaSessionHandlerInterface11qt_metacastEPKc@Base 0.9.1
 _ZN2Tp6Client28MediaSessionHandlerInterface16NewStreamHandlerERK15QDBusObjectPathjjj@Base 0.9.1
 _ZN2Tp6Client28MediaSessionHandlerInterface16staticMetaObjectE@Base 0.9.1
 _ZN2Tp6Client28MediaSessionHandlerInterfaceC1EPNS_9DBusProxyE@Base 0.9.1
 _ZN2Tp6Client28MediaSessionHandlerInterfaceC1ERK15QDBusConnectionRK7QStringS7_P7QObject@Base 0.9.1
 _ZN2Tp6Client28MediaSessionHandlerInterfaceC1ERK7QStringS4_P7QObject@Base 0.9.1
 _ZN2Tp6Client28MediaSessionHandlerInterfaceC2EPNS_9DBusProxyE@Base 0.9.1
 _ZN2Tp6Client28MediaSessionHandlerInterfaceC2ERK15QDBusConnectionRK7QStringS7_P7QObject@Base 0.9.1
 _ZN2Tp6Client28MediaSessionHandlerInterfaceC2ERK7QStringS4_P7QObject@Base 0.9.1
 _ZN2Tp6Client28MediaSessionHandlerInterfaceD0Ev@Base 0.9.1
 _ZN2Tp6Client28MediaSessionHandlerInterfaceD1Ev@Base 0.9.1
 _ZN2Tp6Client28MediaSessionHandlerInterfaceD2Ev@Base 0.9.1
 _ZN2Tp6Client28PropertiesInterfaceInterface10invalidateEPNS_9DBusProxyERK7QStringS6_@Base 0.9.1
 _ZN2Tp6Client28PropertiesInterfaceInterface11qt_metacallEN11QMetaObject4CallEiPPv@Base 0.9.1
 _ZN2Tp6Client28PropertiesInterfaceInterface11qt_metacastEPKc@Base 0.9.1
 _ZN2Tp6Client28PropertiesInterfaceInterface16staticMetaObjectE@Base 0.9.1
 _ZN2Tp6Client28PropertiesInterfaceInterface17PropertiesChangedERK5QListINS_13PropertyValueEE@Base 0.9.1
 _ZN2Tp6Client28PropertiesInterfaceInterface20PropertyFlagsChangedERK5QListINS_19PropertyFlagsChangeEE@Base 0.9.1
 _ZN2Tp6Client28PropertiesInterfaceInterfaceC1EPNS_9DBusProxyE@Base 0.9.1
 _ZN2Tp6Client28PropertiesInterfaceInterfaceC1ERK15QDBusConnectionRK7QStringS7_P7QObject@Base 0.9.1
 _ZN2Tp6Client28PropertiesInterfaceInterfaceC1ERK7QStringS4_P7QObject@Base 0.9.1
 _ZN2Tp6Client28PropertiesInterfaceInterfaceC1ERKNS_17AbstractInterfaceE@Base 0.9.1
 _ZN2Tp6Client28PropertiesInterfaceInterfaceC1ERKNS_17AbstractInterfaceEP7QObject@Base 0.9.1
 _ZN2Tp6Client28PropertiesInterfaceInterfaceC2EPNS_9DBusProxyE@Base 0.9.1
 _ZN2Tp6Client28PropertiesInterfaceInterfaceC2ERK15QDBusConnectionRK7QStringS7_P7QObject@Base 0.9.1
 _ZN2Tp6Client28PropertiesInterfaceInterfaceC2ERK7QStringS4_P7QObject@Base 0.9.1
 _ZN2Tp6Client28PropertiesInterfaceInterfaceC2ERKNS_17AbstractInterfaceE@Base 0.9.1
 _ZN2Tp6Client28PropertiesInterfaceInterfaceC2ERKNS_17AbstractInterfaceEP7QObject@Base 0.9.1
 _ZN2Tp6Client28PropertiesInterfaceInterfaceD0Ev@Base 0.9.1
 _ZN2Tp6Client28PropertiesInterfaceInterfaceD1Ev@Base 0.9.1
 _ZN2Tp6Client28PropertiesInterfaceInterfaceD2Ev@Base 0.9.1
 _ZN2Tp6Client29ChannelInterfaceDTMFInterface10invalidateEPNS_9DBusProxyERK7QStringS6_@Base 0.9.1
 _ZN2Tp6Client29ChannelInterfaceDTMFInterface11qt_metacallEN11QMetaObject4CallEiPPv@Base 0.9.1
 _ZN2Tp6Client29ChannelInterfaceDTMFInterface11qt_metacastEPKc@Base 0.9.1
 _ZN2Tp6Client29ChannelInterfaceDTMFInterface12SendingTonesERK7QString@Base 0.9.1
 _ZN2Tp6Client29ChannelInterfaceDTMFInterface12StoppedTonesEb@Base 0.9.1
 _ZN2Tp6Client29ChannelInterfaceDTMFInterface13TonesDeferredERK7QString@Base 0.9.1
 _ZN2Tp6Client29ChannelInterfaceDTMFInterface16staticMetaObjectE@Base 0.9.1
 _ZN2Tp6Client29ChannelInterfaceDTMFInterfaceC1EPNS_9DBusProxyE@Base 0.9.1
 _ZN2Tp6Client29ChannelInterfaceDTMFInterfaceC1ERK15QDBusConnectionRK7QStringS7_P7QObject@Base 0.9.1
 _ZN2Tp6Client29ChannelInterfaceDTMFInterfaceC1ERK7QStringS4_P7QObject@Base 0.9.1
 _ZN2Tp6Client29ChannelInterfaceDTMFInterfaceC1ERKNS0_16ChannelInterfaceE@Base 0.9.1
 _ZN2Tp6Client29ChannelInterfaceDTMFInterfaceC1ERKNS0_16ChannelInterfaceEP7QObject@Base 0.9.1
 _ZN2Tp6Client29ChannelInterfaceDTMFInterfaceC2EPNS_9DBusProxyE@Base 0.9.1
 _ZN2Tp6Client29ChannelInterfaceDTMFInterfaceC2ERK15QDBusConnectionRK7QStringS7_P7QObject@Base 0.9.1
 _ZN2Tp6Client29ChannelInterfaceDTMFInterfaceC2ERK7QStringS4_P7QObject@Base 0.9.1
 _ZN2Tp6Client29ChannelInterfaceDTMFInterfaceC2ERKNS0_16ChannelInterfaceE@Base 0.9.1
 _ZN2Tp6Client29ChannelInterfaceDTMFInterfaceC2ERKNS0_16ChannelInterfaceEP7QObject@Base 0.9.1
 _ZN2Tp6Client29ChannelInterfaceDTMFInterfaceD0Ev@Base 0.9.1
 _ZN2Tp6Client29ChannelInterfaceDTMFInterfaceD1Ev@Base 0.9.1
 _ZN2Tp6Client29ChannelInterfaceDTMFInterfaceD2Ev@Base 0.9.1
 _ZN2Tp6Client29ChannelInterfaceHoldInterface10invalidateEPNS_9DBusProxyERK7QStringS6_@Base 0.9.1
 _ZN2Tp6Client29ChannelInterfaceHoldInterface11qt_metacallEN11QMetaObject4CallEiPPv@Base 0.9.1
 _ZN2Tp6Client29ChannelInterfaceHoldInterface11qt_metacastEPKc@Base 0.9.1
 _ZN2Tp6Client29ChannelInterfaceHoldInterface16HoldStateChangedEjj@Base 0.9.1
 _ZN2Tp6Client29ChannelInterfaceHoldInterface16staticMetaObjectE@Base 0.9.1
 _ZN2Tp6Client29ChannelInterfaceHoldInterfaceC1EPNS_9DBusProxyE@Base 0.9.1
 _ZN2Tp6Client29ChannelInterfaceHoldInterfaceC1ERK15QDBusConnectionRK7QStringS7_P7QObject@Base 0.9.1
 _ZN2Tp6Client29ChannelInterfaceHoldInterfaceC1ERK7QStringS4_P7QObject@Base 0.9.1
 _ZN2Tp6Client29ChannelInterfaceHoldInterfaceC1ERKNS0_16ChannelInterfaceE@Base 0.9.1
 _ZN2Tp6Client29ChannelInterfaceHoldInterfaceC1ERKNS0_16ChannelInterfaceEP7QObject@Base 0.9.1
 _ZN2Tp6Client29ChannelInterfaceHoldInterfaceC2EPNS_9DBusProxyE@Base 0.9.1
 _ZN2Tp6Client29ChannelInterfaceHoldInterfaceC2ERK15QDBusConnectionRK7QStringS7_P7QObject@Base 0.9.1
 _ZN2Tp6Client29ChannelInterfaceHoldInterfaceC2ERK7QStringS4_P7QObject@Base 0.9.1
 _ZN2Tp6Client29ChannelInterfaceHoldInterfaceC2ERKNS0_16ChannelInterfaceE@Base 0.9.1
 _ZN2Tp6Client29ChannelInterfaceHoldInterfaceC2ERKNS0_16ChannelInterfaceEP7QObject@Base 0.9.1
 _ZN2Tp6Client29ChannelInterfaceHoldInterfaceD0Ev@Base 0.9.1
 _ZN2Tp6Client29ChannelInterfaceHoldInterfaceD1Ev@Base 0.9.1
 _ZN2Tp6Client29ChannelInterfaceHoldInterfaceD2Ev@Base 0.9.1
 _ZN2Tp6Client29ChannelInterfaceTubeInterface10invalidateEPNS_9DBusProxyERK7QStringS6_@Base 0.9.1
 _ZN2Tp6Client29ChannelInterfaceTubeInterface11qt_metacallEN11QMetaObject4CallEiPPv@Base 0.9.1
 _ZN2Tp6Client29ChannelInterfaceTubeInterface11qt_metacastEPKc@Base 0.9.1
 _ZN2Tp6Client29ChannelInterfaceTubeInterface16staticMetaObjectE@Base 0.9.1
 _ZN2Tp6Client29ChannelInterfaceTubeInterface23TubeChannelStateChangedEj@Base 0.9.1
 _ZN2Tp6Client29ChannelInterfaceTubeInterfaceC1EPNS_9DBusProxyE@Base 0.9.1
 _ZN2Tp6Client29ChannelInterfaceTubeInterfaceC1ERK15QDBusConnectionRK7QStringS7_P7QObject@Base 0.9.1
 _ZN2Tp6Client29ChannelInterfaceTubeInterfaceC1ERK7QStringS4_P7QObject@Base 0.9.1
 _ZN2Tp6Client29ChannelInterfaceTubeInterfaceC1ERKNS0_16ChannelInterfaceE@Base 0.9.1
 _ZN2Tp6Client29ChannelInterfaceTubeInterfaceC1ERKNS0_16ChannelInterfaceEP7QObject@Base 0.9.1
 _ZN2Tp6Client29ChannelInterfaceTubeInterfaceC2EPNS_9DBusProxyE@Base 0.9.1
 _ZN2Tp6Client29ChannelInterfaceTubeInterfaceC2ERK15QDBusConnectionRK7QStringS7_P7QObject@Base 0.9.1
 _ZN2Tp6Client29ChannelInterfaceTubeInterfaceC2ERK7QStringS4_P7QObject@Base 0.9.1
 _ZN2Tp6Client29ChannelInterfaceTubeInterfaceC2ERKNS0_16ChannelInterfaceE@Base 0.9.1
 _ZN2Tp6Client29ChannelInterfaceTubeInterfaceC2ERKNS0_16ChannelInterfaceEP7QObject@Base 0.9.1
 _ZN2Tp6Client29ChannelInterfaceTubeInterfaceD0Ev@Base 0.9.1
 _ZN2Tp6Client29ChannelInterfaceTubeInterfaceD1Ev@Base 0.9.1
 _ZN2Tp6Client29ChannelInterfaceTubeInterfaceD2Ev@Base 0.9.1
 _ZN2Tp6Client30ChannelInterfaceGroupInterface10invalidateEPNS_9DBusProxyERK7QStringS6_@Base 0.9.1
 _ZN2Tp6Client30ChannelInterfaceGroupInterface11qt_metacallEN11QMetaObject4CallEiPPv@Base 0.9.1
 _ZN2Tp6Client30ChannelInterfaceGroupInterface11qt_metacastEPKc@Base 0.9.1
 _ZN2Tp6Client30ChannelInterfaceGroupInterface14MembersChangedERK7QStringRKNS_8UIntListES7_S7_S7_jj@Base 0.9.1
 _ZN2Tp6Client30ChannelInterfaceGroupInterface16staticMetaObjectE@Base 0.9.1
 _ZN2Tp6Client30ChannelInterfaceGroupInterface17GroupFlagsChangedEjj@Base 0.9.1
 _ZN2Tp6Client30ChannelInterfaceGroupInterface17SelfHandleChangedEj@Base 0.9.1
 _ZN2Tp6Client30ChannelInterfaceGroupInterface18SelfContactChangedEjRK7QString@Base 0.9.1
 _ZN2Tp6Client30ChannelInterfaceGroupInterface19HandleOwnersChangedERKNS_14HandleOwnerMapERKNS_8UIntListE@Base 0.9.1
 _ZN2Tp6Client30ChannelInterfaceGroupInterface22MembersChangedDetailedERKNS_8UIntListES4_S4_S4_RK4QMapI7QString8QVariantE@Base 0.9.1
 _ZN2Tp6Client30ChannelInterfaceGroupInterface27HandleOwnersChangedDetailedERKNS_14HandleOwnerMapERKNS_8UIntListERKNS_19HandleIdentifierMapE@Base 0.9.1
 _ZN2Tp6Client30ChannelInterfaceGroupInterfaceC1EPNS_9DBusProxyE@Base 0.9.1
 _ZN2Tp6Client30ChannelInterfaceGroupInterfaceC1ERK15QDBusConnectionRK7QStringS7_P7QObject@Base 0.9.1
 _ZN2Tp6Client30ChannelInterfaceGroupInterfaceC1ERK7QStringS4_P7QObject@Base 0.9.1
 _ZN2Tp6Client30ChannelInterfaceGroupInterfaceC1ERKNS0_16ChannelInterfaceE@Base 0.9.1
 _ZN2Tp6Client30ChannelInterfaceGroupInterfaceC1ERKNS0_16ChannelInterfaceEP7QObject@Base 0.9.1
 _ZN2Tp6Client30ChannelInterfaceGroupInterfaceC2EPNS_9DBusProxyE@Base 0.9.1
 _ZN2Tp6Client30ChannelInterfaceGroupInterfaceC2ERK15QDBusConnectionRK7QStringS7_P7QObject@Base 0.9.1
 _ZN2Tp6Client30ChannelInterfaceGroupInterfaceC2ERK7QStringS4_P7QObject@Base 0.9.1
 _ZN2Tp6Client30ChannelInterfaceGroupInterfaceC2ERKNS0_16ChannelInterfaceE@Base 0.9.1
 _ZN2Tp6Client30ChannelInterfaceGroupInterfaceC2ERKNS0_16ChannelInterfaceEP7QObject@Base 0.9.1
 _ZN2Tp6Client30ChannelInterfaceGroupInterfaceD0Ev@Base 0.9.1
 _ZN2Tp6Client30ChannelInterfaceGroupInterfaceD1Ev@Base 0.9.1
 _ZN2Tp6Client30ChannelInterfaceGroupInterfaceD2Ev@Base 0.9.1
 _ZN2Tp6Client30ChannelTypeStreamTubeInterface10invalidateEPNS_9DBusProxyERK7QStringS6_@Base 0.9.1
 _ZN2Tp6Client30ChannelTypeStreamTubeInterface11qt_metacallEN11QMetaObject4CallEiPPv@Base 0.9.1
 _ZN2Tp6Client30ChannelTypeStreamTubeInterface11qt_metacastEPKc@Base 0.9.1
 _ZN2Tp6Client30ChannelTypeStreamTubeInterface16ConnectionClosedEjRK7QStringS4_@Base 0.9.1
 _ZN2Tp6Client30ChannelTypeStreamTubeInterface16staticMetaObjectE@Base 0.9.1
 _ZN2Tp6Client30ChannelTypeStreamTubeInterface18NewLocalConnectionEj@Base 0.9.1
 _ZN2Tp6Client30ChannelTypeStreamTubeInterface19NewRemoteConnectionEjRK12QDBusVariantj@Base 0.9.1
 _ZN2Tp6Client30ChannelTypeStreamTubeInterfaceC1EPNS_9DBusProxyE@Base 0.9.1
 _ZN2Tp6Client30ChannelTypeStreamTubeInterfaceC1ERK15QDBusConnectionRK7QStringS7_P7QObject@Base 0.9.1
 _ZN2Tp6Client30ChannelTypeStreamTubeInterfaceC1ERK7QStringS4_P7QObject@Base 0.9.1
 _ZN2Tp6Client30ChannelTypeStreamTubeInterfaceC1ERKNS0_16ChannelInterfaceE@Base 0.9.1
 _ZN2Tp6Client30ChannelTypeStreamTubeInterfaceC1ERKNS0_16ChannelInterfaceEP7QObject@Base 0.9.1
 _ZN2Tp6Client30ChannelTypeStreamTubeInterfaceC2EPNS_9DBusProxyE@Base 0.9.1
 _ZN2Tp6Client30ChannelTypeStreamTubeInterfaceC2ERK15QDBusConnectionRK7QStringS7_P7QObject@Base 0.9.1
 _ZN2Tp6Client30ChannelTypeStreamTubeInterfaceC2ERK7QStringS4_P7QObject@Base 0.9.1
 _ZN2Tp6Client30ChannelTypeStreamTubeInterfaceC2ERKNS0_16ChannelInterfaceE@Base 0.9.1
 _ZN2Tp6Client30ChannelTypeStreamTubeInterfaceC2ERKNS0_16ChannelInterfaceEP7QObject@Base 0.9.1
 _ZN2Tp6Client30ChannelTypeStreamTubeInterfaceD0Ev@Base 0.9.1
 _ZN2Tp6Client30ChannelTypeStreamTubeInterfaceD1Ev@Base 0.9.1
 _ZN2Tp6Client30ChannelTypeStreamTubeInterfaceD2Ev@Base 0.9.1
 _ZN2Tp6Client31AccountInterfaceAvatarInterface10invalidateEPNS_9DBusProxyERK7QStringS6_@Base 0.9.1
 _ZN2Tp6Client31AccountInterfaceAvatarInterface11qt_metacallEN11QMetaObject4CallEiPPv@Base 0.9.1
 _ZN2Tp6Client31AccountInterfaceAvatarInterface11qt_metacastEPKc@Base 0.9.1
 _ZN2Tp6Client31AccountInterfaceAvatarInterface13AvatarChangedEv@Base 0.9.1
 _ZN2Tp6Client31AccountInterfaceAvatarInterface16staticMetaObjectE@Base 0.9.1
 _ZN2Tp6Client31AccountInterfaceAvatarInterfaceC1EPNS_9DBusProxyE@Base 0.9.1
 _ZN2Tp6Client31AccountInterfaceAvatarInterfaceC1ERK15QDBusConnectionRK7QStringS7_P7QObject@Base 0.9.1
 _ZN2Tp6Client31AccountInterfaceAvatarInterfaceC1ERK7QStringS4_P7QObject@Base 0.9.1
 _ZN2Tp6Client31AccountInterfaceAvatarInterfaceC1ERKNS0_16AccountInterfaceE@Base 0.9.1
 _ZN2Tp6Client31AccountInterfaceAvatarInterfaceC1ERKNS0_16AccountInterfaceEP7QObject@Base 0.9.1
 _ZN2Tp6Client31AccountInterfaceAvatarInterfaceC2EPNS_9DBusProxyE@Base 0.9.1
 _ZN2Tp6Client31AccountInterfaceAvatarInterfaceC2ERK15QDBusConnectionRK7QStringS7_P7QObject@Base 0.9.1
 _ZN2Tp6Client31AccountInterfaceAvatarInterfaceC2ERK7QStringS4_P7QObject@Base 0.9.1
 _ZN2Tp6Client31AccountInterfaceAvatarInterfaceC2ERKNS0_16AccountInterfaceE@Base 0.9.1
 _ZN2Tp6Client31AccountInterfaceAvatarInterfaceC2ERKNS0_16AccountInterfaceEP7QObject@Base 0.9.1
 _ZN2Tp6Client31AccountInterfaceAvatarInterfaceD0Ev@Base 0.9.1
 _ZN2Tp6Client31AccountInterfaceAvatarInterfaceD1Ev@Base 0.9.1
 _ZN2Tp6Client31AccountInterfaceAvatarInterfaceD2Ev@Base 0.9.1
 _ZN2Tp6Client31ChannelTypeContactListInterface10invalidateEPNS_9DBusProxyERK7QStringS6_@Base 0.9.1
 _ZN2Tp6Client31ChannelTypeContactListInterface11qt_metacallEN11QMetaObject4CallEiPPv@Base 0.9.1
 _ZN2Tp6Client31ChannelTypeContactListInterface11qt_metacastEPKc@Base 0.9.1
 _ZN2Tp6Client31ChannelTypeContactListInterface16staticMetaObjectE@Base 0.9.1
 _ZN2Tp6Client31ChannelTypeContactListInterfaceC1EPNS_9DBusProxyE@Base 0.9.1
 _ZN2Tp6Client31ChannelTypeContactListInterfaceC1ERK15QDBusConnectionRK7QStringS7_P7QObject@Base 0.9.1
 _ZN2Tp6Client31ChannelTypeContactListInterfaceC1ERK7QStringS4_P7QObject@Base 0.9.1
 _ZN2Tp6Client31ChannelTypeContactListInterfaceC1ERKNS0_16ChannelInterfaceE@Base 0.9.1
 _ZN2Tp6Client31ChannelTypeContactListInterfaceC1ERKNS0_16ChannelInterfaceEP7QObject@Base 0.9.1
 _ZN2Tp6Client31ChannelTypeContactListInterfaceC2EPNS_9DBusProxyE@Base 0.9.1
 _ZN2Tp6Client31ChannelTypeContactListInterfaceC2ERK15QDBusConnectionRK7QStringS7_P7QObject@Base 0.9.1
 _ZN2Tp6Client31ChannelTypeContactListInterfaceC2ERK7QStringS4_P7QObject@Base 0.9.1
 _ZN2Tp6Client31ChannelTypeContactListInterfaceC2ERKNS0_16ChannelInterfaceE@Base 0.9.1
 _ZN2Tp6Client31ChannelTypeContactListInterfaceC2ERKNS0_16ChannelInterfaceEP7QObject@Base 0.9.1
 _ZN2Tp6Client31ChannelTypeContactListInterfaceD0Ev@Base 0.9.1
 _ZN2Tp6Client31ChannelTypeContactListInterfaceD1Ev@Base 0.9.1
 _ZN2Tp6Client31ChannelTypeContactListInterfaceD2Ev@Base 0.9.1
 _ZN2Tp6Client32AccountInterfaceStorageInterface10invalidateEPNS_9DBusProxyERK7QStringS6_@Base 0.9.1
 _ZN2Tp6Client32AccountInterfaceStorageInterface11qt_metacallEN11QMetaObject4CallEiPPv@Base 0.9.1
 _ZN2Tp6Client32AccountInterfaceStorageInterface11qt_metacastEPKc@Base 0.9.1
 _ZN2Tp6Client32AccountInterfaceStorageInterface16staticMetaObjectE@Base 0.9.1
 _ZN2Tp6Client32AccountInterfaceStorageInterfaceC1EPNS_9DBusProxyE@Base 0.9.1
 _ZN2Tp6Client32AccountInterfaceStorageInterfaceC1ERK15QDBusConnectionRK7QStringS7_P7QObject@Base 0.9.1
 _ZN2Tp6Client32AccountInterfaceStorageInterfaceC1ERK7QStringS4_P7QObject@Base 0.9.1
 _ZN2Tp6Client32AccountInterfaceStorageInterfaceC1ERKNS0_16AccountInterfaceE@Base 0.9.1
 _ZN2Tp6Client32AccountInterfaceStorageInterfaceC1ERKNS0_16AccountInterfaceEP7QObject@Base 0.9.1
 _ZN2Tp6Client32AccountInterfaceStorageInterfaceC2EPNS_9DBusProxyE@Base 0.9.1
 _ZN2Tp6Client32AccountInterfaceStorageInterfaceC2ERK15QDBusConnectionRK7QStringS7_P7QObject@Base 0.9.1
 _ZN2Tp6Client32AccountInterfaceStorageInterfaceC2ERK7QStringS4_P7QObject@Base 0.9.1
 _ZN2Tp6Client32AccountInterfaceStorageInterfaceC2ERKNS0_16AccountInterfaceE@Base 0.9.1
 _ZN2Tp6Client32AccountInterfaceStorageInterfaceC2ERKNS0_16AccountInterfaceEP7QObject@Base 0.9.1
 _ZN2Tp6Client32AccountInterfaceStorageInterfaceD0Ev@Base 0.9.1
 _ZN2Tp6Client32AccountInterfaceStorageInterfaceD1Ev@Base 0.9.1
 _ZN2Tp6Client32AccountInterfaceStorageInterfaceD2Ev@Base 0.9.1
 _ZN2Tp6Client32ChannelTypeFileTransferInterface10URIDefinedERK7QString@Base 0.9.1
 _ZN2Tp6Client32ChannelTypeFileTransferInterface10invalidateEPNS_9DBusProxyERK7QStringS6_@Base 0.9.1
 _ZN2Tp6Client32ChannelTypeFileTransferInterface11qt_metacallEN11QMetaObject4CallEiPPv@Base 0.9.1
 _ZN2Tp6Client32ChannelTypeFileTransferInterface11qt_metacastEPKc@Base 0.9.1
 _ZN2Tp6Client32ChannelTypeFileTransferInterface16staticMetaObjectE@Base 0.9.1
 _ZN2Tp6Client32ChannelTypeFileTransferInterface20InitialOffsetDefinedEy@Base 0.9.1
 _ZN2Tp6Client32ChannelTypeFileTransferInterface23TransferredBytesChangedEy@Base 0.9.1
 _ZN2Tp6Client32ChannelTypeFileTransferInterface24FileTransferStateChangedEjj@Base 0.9.1
 _ZN2Tp6Client32ChannelTypeFileTransferInterfaceC1EPNS_9DBusProxyE@Base 0.9.1
 _ZN2Tp6Client32ChannelTypeFileTransferInterfaceC1ERK15QDBusConnectionRK7QStringS7_P7QObject@Base 0.9.1
 _ZN2Tp6Client32ChannelTypeFileTransferInterfaceC1ERK7QStringS4_P7QObject@Base 0.9.1
 _ZN2Tp6Client32ChannelTypeFileTransferInterfaceC1ERKNS0_16ChannelInterfaceE@Base 0.9.1
 _ZN2Tp6Client32ChannelTypeFileTransferInterfaceC1ERKNS0_16ChannelInterfaceEP7QObject@Base 0.9.1
 _ZN2Tp6Client32ChannelTypeFileTransferInterfaceC2EPNS_9DBusProxyE@Base 0.9.1
 _ZN2Tp6Client32ChannelTypeFileTransferInterfaceC2ERK15QDBusConnectionRK7QStringS7_P7QObject@Base 0.9.1
 _ZN2Tp6Client32ChannelTypeFileTransferInterfaceC2ERK7QStringS4_P7QObject@Base 0.9.1
 _ZN2Tp6Client32ChannelTypeFileTransferInterfaceC2ERKNS0_16ChannelInterfaceE@Base 0.9.1
 _ZN2Tp6Client32ChannelTypeFileTransferInterfaceC2ERKNS0_16ChannelInterfaceEP7QObject@Base 0.9.1
 _ZN2Tp6Client32ChannelTypeFileTransferInterfaceD0Ev@Base 0.9.1
 _ZN2Tp6Client32ChannelTypeFileTransferInterfaceD1Ev@Base 0.9.1
 _ZN2Tp6Client32ChannelTypeFileTransferInterfaceD2Ev@Base 0.9.1
 _ZN2Tp6Client32ClientInterfaceRequestsInterface10invalidateEPNS_9DBusProxyERK7QStringS6_@Base 0.9.1
 _ZN2Tp6Client32ClientInterfaceRequestsInterface11qt_metacallEN11QMetaObject4CallEiPPv@Base 0.9.1
 _ZN2Tp6Client32ClientInterfaceRequestsInterface11qt_metacastEPKc@Base 0.9.1
 _ZN2Tp6Client32ClientInterfaceRequestsInterface16staticMetaObjectE@Base 0.9.1
 _ZN2Tp6Client32ClientInterfaceRequestsInterfaceC1EPNS_9DBusProxyE@Base 0.9.1
 _ZN2Tp6Client32ClientInterfaceRequestsInterfaceC1ERK15QDBusConnectionRK7QStringS7_P7QObject@Base 0.9.1
 _ZN2Tp6Client32ClientInterfaceRequestsInterfaceC1ERK7QStringS4_P7QObject@Base 0.9.1
 _ZN2Tp6Client32ClientInterfaceRequestsInterfaceC1ERKNS0_15ClientInterfaceE@Base 0.9.1
 _ZN2Tp6Client32ClientInterfaceRequestsInterfaceC1ERKNS0_15ClientInterfaceEP7QObject@Base 0.9.1
 _ZN2Tp6Client32ClientInterfaceRequestsInterfaceC2EPNS_9DBusProxyE@Base 0.9.1
 _ZN2Tp6Client32ClientInterfaceRequestsInterfaceC2ERK15QDBusConnectionRK7QStringS7_P7QObject@Base 0.9.1
 _ZN2Tp6Client32ClientInterfaceRequestsInterfaceC2ERK7QStringS4_P7QObject@Base 0.9.1
 _ZN2Tp6Client32ClientInterfaceRequestsInterfaceC2ERKNS0_15ClientInterfaceE@Base 0.9.1
 _ZN2Tp6Client32ClientInterfaceRequestsInterfaceC2ERKNS0_15ClientInterfaceEP7QObject@Base 0.9.1
 _ZN2Tp6Client32ClientInterfaceRequestsInterfaceD0Ev@Base 0.9.1
 _ZN2Tp6Client32ClientInterfaceRequestsInterfaceD1Ev@Base 0.9.1
 _ZN2Tp6Client32ClientInterfaceRequestsInterfaceD2Ev@Base 0.9.1
 _ZN2Tp6Client33CallContentInterfaceDTMFInterface10invalidateEPNS_9DBusProxyERK7QStringS6_@Base 0.9.1
 _ZN2Tp6Client33CallContentInterfaceDTMFInterface11qt_metacallEN11QMetaObject4CallEiPPv@Base 0.9.1
 _ZN2Tp6Client33CallContentInterfaceDTMFInterface11qt_metacastEPKc@Base 0.9.1
 _ZN2Tp6Client33CallContentInterfaceDTMFInterface12SendingTonesERK7QString@Base 0.9.1
 _ZN2Tp6Client33CallContentInterfaceDTMFInterface12StoppedTonesEb@Base 0.9.1
 _ZN2Tp6Client33CallContentInterfaceDTMFInterface13TonesDeferredERK7QString@Base 0.9.1
 _ZN2Tp6Client33CallContentInterfaceDTMFInterface16staticMetaObjectE@Base 0.9.1
 _ZN2Tp6Client33CallContentInterfaceDTMFInterfaceC1EPNS_9DBusProxyE@Base 0.9.1
 _ZN2Tp6Client33CallContentInterfaceDTMFInterfaceC1ERK15QDBusConnectionRK7QStringS7_P7QObject@Base 0.9.1
 _ZN2Tp6Client33CallContentInterfaceDTMFInterfaceC1ERK7QStringS4_P7QObject@Base 0.9.1
 _ZN2Tp6Client33CallContentInterfaceDTMFInterfaceC1ERKNS0_20CallContentInterfaceE@Base 0.9.1
 _ZN2Tp6Client33CallContentInterfaceDTMFInterfaceC1ERKNS0_20CallContentInterfaceEP7QObject@Base 0.9.1
 _ZN2Tp6Client33CallContentInterfaceDTMFInterfaceC2EPNS_9DBusProxyE@Base 0.9.1
 _ZN2Tp6Client33CallContentInterfaceDTMFInterfaceC2ERK15QDBusConnectionRK7QStringS7_P7QObject@Base 0.9.1
 _ZN2Tp6Client33CallContentInterfaceDTMFInterfaceC2ERK7QStringS4_P7QObject@Base 0.9.1
 _ZN2Tp6Client33CallContentInterfaceDTMFInterfaceC2ERKNS0_20CallContentInterfaceE@Base 0.9.1
 _ZN2Tp6Client33CallContentInterfaceDTMFInterfaceC2ERKNS0_20CallContentInterfaceEP7QObject@Base 0.9.1
 _ZN2Tp6Client33CallContentInterfaceDTMFInterfaceD0Ev@Base 0.9.1
 _ZN2Tp6Client33CallContentInterfaceDTMFInterfaceD1Ev@Base 0.9.1
 _ZN2Tp6Client33CallContentInterfaceDTMFInterfaceD2Ev@Base 0.9.1
 _ZN2Tp6Client33CallStreamInterfaceMediaInterface10invalidateEPNS_9DBusProxyERK7QStringS6_@Base 0.9.1
 _ZN2Tp6Client33CallStreamInterfaceMediaInterface11qt_metacallEN11QMetaObject4CallEiPPv@Base 0.9.1
 _ZN2Tp6Client33CallStreamInterfaceMediaInterface11qt_metacastEPKc@Base 0.9.1
 _ZN2Tp6Client33CallStreamInterfaceMediaInterface16EndpointsChangedERKNS_14ObjectPathListES4_@Base 0.9.1
 _ZN2Tp6Client33CallStreamInterfaceMediaInterface16RelayInfoChangedERK5QListINS_16StringVariantMapEE@Base 0.9.1
 _ZN2Tp6Client33CallStreamInterfaceMediaInterface16staticMetaObjectE@Base 0.9.1
 _ZN2Tp6Client33CallStreamInterfaceMediaInterface18STUNServersChangedERK5QListINS_15SocketAddressIPEE@Base 0.9.1
 _ZN2Tp6Client33CallStreamInterfaceMediaInterface19ICERestartRequestedEv@Base 0.9.1
 _ZN2Tp6Client33CallStreamInterfaceMediaInterface19SendingStateChangedEj@Base 0.9.1
 _ZN2Tp6Client33CallStreamInterfaceMediaInterface19ServerInfoRetrievedEv@Base 0.9.1
 _ZN2Tp6Client33CallStreamInterfaceMediaInterface20LocalCandidatesAddedERK5QListINS_9CandidateEE@Base 0.9.1
 _ZN2Tp6Client33CallStreamInterfaceMediaInterface21ReceivingStateChangedEj@Base 0.9.1
 _ZN2Tp6Client33CallStreamInterfaceMediaInterface23LocalCredentialsChangedERK7QStringS4_@Base 0.9.1
 _ZN2Tp6Client33CallStreamInterfaceMediaInterfaceC1EPNS_9DBusProxyE@Base 0.9.1
 _ZN2Tp6Client33CallStreamInterfaceMediaInterfaceC1ERK15QDBusConnectionRK7QStringS7_P7QObject@Base 0.9.1
 _ZN2Tp6Client33CallStreamInterfaceMediaInterfaceC1ERK7QStringS4_P7QObject@Base 0.9.1
 _ZN2Tp6Client33CallStreamInterfaceMediaInterfaceC1ERKNS0_19CallStreamInterfaceE@Base 0.9.1
 _ZN2Tp6Client33CallStreamInterfaceMediaInterfaceC1ERKNS0_19CallStreamInterfaceEP7QObject@Base 0.9.1
 _ZN2Tp6Client33CallStreamInterfaceMediaInterfaceC2EPNS_9DBusProxyE@Base 0.9.1
 _ZN2Tp6Client33CallStreamInterfaceMediaInterfaceC2ERK15QDBusConnectionRK7QStringS7_P7QObject@Base 0.9.1
 _ZN2Tp6Client33CallStreamInterfaceMediaInterfaceC2ERK7QStringS4_P7QObject@Base 0.9.1
 _ZN2Tp6Client33CallStreamInterfaceMediaInterfaceC2ERKNS0_19CallStreamInterfaceE@Base 0.9.1
 _ZN2Tp6Client33CallStreamInterfaceMediaInterfaceC2ERKNS0_19CallStreamInterfaceEP7QObject@Base 0.9.1
 _ZN2Tp6Client33CallStreamInterfaceMediaInterfaceD0Ev@Base 0.9.1
 _ZN2Tp6Client33CallStreamInterfaceMediaInterfaceD1Ev@Base 0.9.1
 _ZN2Tp6Client33CallStreamInterfaceMediaInterfaceD2Ev@Base 0.9.1
 _ZN2Tp6Client33ChannelDispatchOperationInterface10invalidateEPNS_9DBusProxyERK7QStringS6_@Base 0.9.1
 _ZN2Tp6Client33ChannelDispatchOperationInterface11ChannelLostERK15QDBusObjectPathRK7QStringS7_@Base 0.9.1
 _ZN2Tp6Client33ChannelDispatchOperationInterface11qt_metacallEN11QMetaObject4CallEiPPv@Base 0.9.1
 _ZN2Tp6Client33ChannelDispatchOperationInterface11qt_metacastEPKc@Base 0.9.1
 _ZN2Tp6Client33ChannelDispatchOperationInterface16staticMetaObjectE@Base 0.9.1
 _ZN2Tp6Client33ChannelDispatchOperationInterface8FinishedEv@Base 0.9.1
 _ZN2Tp6Client33ChannelDispatchOperationInterfaceC1EPNS_9DBusProxyE@Base 0.9.1
 _ZN2Tp6Client33ChannelDispatchOperationInterfaceC1ERK15QDBusConnectionRK7QStringS7_P7QObject@Base 0.9.1
 _ZN2Tp6Client33ChannelDispatchOperationInterfaceC1ERK7QStringS4_P7QObject@Base 0.9.1
 _ZN2Tp6Client33ChannelDispatchOperationInterfaceC2EPNS_9DBusProxyE@Base 0.9.1
 _ZN2Tp6Client33ChannelDispatchOperationInterfaceC2ERK15QDBusConnectionRK7QStringS7_P7QObject@Base 0.9.1
 _ZN2Tp6Client33ChannelDispatchOperationInterfaceC2ERK7QStringS4_P7QObject@Base 0.9.1
 _ZN2Tp6Client33ChannelDispatchOperationInterfaceD0Ev@Base 0.9.1
 _ZN2Tp6Client33ChannelDispatchOperationInterfaceD1Ev@Base 0.9.1
 _ZN2Tp6Client33ChannelDispatchOperationInterfaceD2Ev@Base 0.9.1
 _ZN2Tp6Client33ChannelInterfaceMessagesInterface10invalidateEPNS_9DBusProxyERK7QStringS6_@Base 0.9.1
 _ZN2Tp6Client33ChannelInterfaceMessagesInterface11MessageSentERK5QListINS_11MessagePartEEjRK7QString@Base 0.9.1
 _ZN2Tp6Client33ChannelInterfaceMessagesInterface11qt_metacallEN11QMetaObject4CallEiPPv@Base 0.9.1
 _ZN2Tp6Client33ChannelInterfaceMessagesInterface11qt_metacastEPKc@Base 0.9.1
 _ZN2Tp6Client33ChannelInterfaceMessagesInterface15MessageReceivedERK5QListINS_11MessagePartEE@Base 0.9.1
 _ZN2Tp6Client33ChannelInterfaceMessagesInterface16staticMetaObjectE@Base 0.9.1
 _ZN2Tp6Client33ChannelInterfaceMessagesInterface22PendingMessagesRemovedERKNS_8UIntListE@Base 0.9.1
 _ZN2Tp6Client33ChannelInterfaceMessagesInterfaceC1EPNS_9DBusProxyE@Base 0.9.1
 _ZN2Tp6Client33ChannelInterfaceMessagesInterfaceC1ERK15QDBusConnectionRK7QStringS7_P7QObject@Base 0.9.1
 _ZN2Tp6Client33ChannelInterfaceMessagesInterfaceC1ERK7QStringS4_P7QObject@Base 0.9.1
 _ZN2Tp6Client33ChannelInterfaceMessagesInterfaceC1ERKNS0_16ChannelInterfaceE@Base 0.9.1
 _ZN2Tp6Client33ChannelInterfaceMessagesInterfaceC1ERKNS0_16ChannelInterfaceEP7QObject@Base 0.9.1
 _ZN2Tp6Client33ChannelInterfaceMessagesInterfaceC2EPNS_9DBusProxyE@Base 0.9.1
 _ZN2Tp6Client33ChannelInterfaceMessagesInterfaceC2ERK15QDBusConnectionRK7QStringS7_P7QObject@Base 0.9.1
 _ZN2Tp6Client33ChannelInterfaceMessagesInterfaceC2ERK7QStringS4_P7QObject@Base 0.9.1
 _ZN2Tp6Client33ChannelInterfaceMessagesInterfaceC2ERKNS0_16ChannelInterfaceE@Base 0.9.1
 _ZN2Tp6Client33ChannelInterfaceMessagesInterfaceC2ERKNS0_16ChannelInterfaceEP7QObject@Base 0.9.1
 _ZN2Tp6Client33ChannelInterfaceMessagesInterfaceD0Ev@Base 0.9.1
 _ZN2Tp6Client33ChannelInterfaceMessagesInterfaceD1Ev@Base 0.9.1
 _ZN2Tp6Client33ChannelInterfaceMessagesInterfaceD2Ev@Base 0.9.1
 _ZN2Tp6Client33ChannelInterfacePasswordInterface10invalidateEPNS_9DBusProxyERK7QStringS6_@Base 0.9.1
 _ZN2Tp6Client33ChannelInterfacePasswordInterface11qt_metacallEN11QMetaObject4CallEiPPv@Base 0.9.1
 _ZN2Tp6Client33ChannelInterfacePasswordInterface11qt_metacastEPKc@Base 0.9.1
 _ZN2Tp6Client33ChannelInterfacePasswordInterface16staticMetaObjectE@Base 0.9.1
 _ZN2Tp6Client33ChannelInterfacePasswordInterface20PasswordFlagsChangedEjj@Base 0.9.1
 _ZN2Tp6Client33ChannelInterfacePasswordInterfaceC1EPNS_9DBusProxyE@Base 0.9.1
 _ZN2Tp6Client33ChannelInterfacePasswordInterfaceC1ERK15QDBusConnectionRK7QStringS7_P7QObject@Base 0.9.1
 _ZN2Tp6Client33ChannelInterfacePasswordInterfaceC1ERK7QStringS4_P7QObject@Base 0.9.1
 _ZN2Tp6Client33ChannelInterfacePasswordInterfaceC1ERKNS0_16ChannelInterfaceE@Base 0.9.1
 _ZN2Tp6Client33ChannelInterfacePasswordInterfaceC1ERKNS0_16ChannelInterfaceEP7QObject@Base 0.9.1
 _ZN2Tp6Client33ChannelInterfacePasswordInterfaceC2EPNS_9DBusProxyE@Base 0.9.1
 _ZN2Tp6Client33ChannelInterfacePasswordInterfaceC2ERK15QDBusConnectionRK7QStringS7_P7QObject@Base 0.9.1
 _ZN2Tp6Client33ChannelInterfacePasswordInterfaceC2ERK7QStringS4_P7QObject@Base 0.9.1
 _ZN2Tp6Client33ChannelInterfacePasswordInterfaceC2ERKNS0_16ChannelInterfaceE@Base 0.9.1
 _ZN2Tp6Client33ChannelInterfacePasswordInterfaceC2ERKNS0_16ChannelInterfaceEP7QObject@Base 0.9.1
 _ZN2Tp6Client33ChannelInterfacePasswordInterfaceD0Ev@Base 0.9.1
 _ZN2Tp6Client33ChannelInterfacePasswordInterfaceD1Ev@Base 0.9.1
 _ZN2Tp6Client33ChannelInterfacePasswordInterfaceD2Ev@Base 0.9.1
 _ZN2Tp6Client33ChannelTypeContactSearchInterface10invalidateEPNS_9DBusProxyERK7QStringS6_@Base 0.9.1
 _ZN2Tp6Client33ChannelTypeContactSearchInterface11qt_metacallEN11QMetaObject4CallEiPPv@Base 0.9.1
 _ZN2Tp6Client33ChannelTypeContactSearchInterface11qt_metacastEPKc@Base 0.9.1
 _ZN2Tp6Client33ChannelTypeContactSearchInterface16staticMetaObjectE@Base 0.9.1
 _ZN2Tp6Client33ChannelTypeContactSearchInterface18SearchStateChangedEjRK7QStringRK4QMapIS2_8QVariantE@Base 0.9.1
 _ZN2Tp6Client33ChannelTypeContactSearchInterface20SearchResultReceivedERKNS_22ContactSearchResultMapE@Base 0.9.1
 _ZN2Tp6Client33ChannelTypeContactSearchInterfaceC1EPNS_9DBusProxyE@Base 0.9.1
 _ZN2Tp6Client33ChannelTypeContactSearchInterfaceC1ERK15QDBusConnectionRK7QStringS7_P7QObject@Base 0.9.1
 _ZN2Tp6Client33ChannelTypeContactSearchInterfaceC1ERK7QStringS4_P7QObject@Base 0.9.1
 _ZN2Tp6Client33ChannelTypeContactSearchInterfaceC1ERKNS0_16ChannelInterfaceE@Base 0.9.1
 _ZN2Tp6Client33ChannelTypeContactSearchInterfaceC1ERKNS0_16ChannelInterfaceEP7QObject@Base 0.9.1
 _ZN2Tp6Client33ChannelTypeContactSearchInterfaceC2EPNS_9DBusProxyE@Base 0.9.1
 _ZN2Tp6Client33ChannelTypeContactSearchInterfaceC2ERK15QDBusConnectionRK7QStringS7_P7QObject@Base 0.9.1
 _ZN2Tp6Client33ChannelTypeContactSearchInterfaceC2ERK7QStringS4_P7QObject@Base 0.9.1
 _ZN2Tp6Client33ChannelTypeContactSearchInterfaceC2ERKNS0_16ChannelInterfaceE@Base 0.9.1
 _ZN2Tp6Client33ChannelTypeContactSearchInterfaceC2ERKNS0_16ChannelInterfaceEP7QObject@Base 0.9.1
 _ZN2Tp6Client33ChannelTypeContactSearchInterfaceD0Ev@Base 0.9.1
 _ZN2Tp6Client33ChannelTypeContactSearchInterfaceD1Ev@Base 0.9.1
 _ZN2Tp6Client33ChannelTypeContactSearchInterfaceD2Ev@Base 0.9.1
 _ZN2Tp6Client33ChannelTypeStreamedMediaInterface10invalidateEPNS_9DBusProxyERK7QStringS6_@Base 0.9.1
 _ZN2Tp6Client33ChannelTypeStreamedMediaInterface11StreamAddedEjjj@Base 0.9.1
 _ZN2Tp6Client33ChannelTypeStreamedMediaInterface11StreamErrorEjjRK7QString@Base 0.9.1
 _ZN2Tp6Client33ChannelTypeStreamedMediaInterface11qt_metacallEN11QMetaObject4CallEiPPv@Base 0.9.1
 _ZN2Tp6Client33ChannelTypeStreamedMediaInterface11qt_metacastEPKc@Base 0.9.1
 _ZN2Tp6Client33ChannelTypeStreamedMediaInterface13StreamRemovedEj@Base 0.9.1
 _ZN2Tp6Client33ChannelTypeStreamedMediaInterface16staticMetaObjectE@Base 0.9.1
 _ZN2Tp6Client33ChannelTypeStreamedMediaInterface18StreamStateChangedEjj@Base 0.9.1
 _ZN2Tp6Client33ChannelTypeStreamedMediaInterface22StreamDirectionChangedEjjj@Base 0.9.1
 _ZN2Tp6Client33ChannelTypeStreamedMediaInterfaceC1EPNS_9DBusProxyE@Base 0.9.1
 _ZN2Tp6Client33ChannelTypeStreamedMediaInterfaceC1ERK15QDBusConnectionRK7QStringS7_P7QObject@Base 0.9.1
 _ZN2Tp6Client33ChannelTypeStreamedMediaInterfaceC1ERK7QStringS4_P7QObject@Base 0.9.1
 _ZN2Tp6Client33ChannelTypeStreamedMediaInterfaceC1ERKNS0_16ChannelInterfaceE@Base 0.9.1
 _ZN2Tp6Client33ChannelTypeStreamedMediaInterfaceC1ERKNS0_16ChannelInterfaceEP7QObject@Base 0.9.1
 _ZN2Tp6Client33ChannelTypeStreamedMediaInterfaceC2EPNS_9DBusProxyE@Base 0.9.1
 _ZN2Tp6Client33ChannelTypeStreamedMediaInterfaceC2ERK15QDBusConnectionRK7QStringS7_P7QObject@Base 0.9.1
 _ZN2Tp6Client33ChannelTypeStreamedMediaInterfaceC2ERK7QStringS4_P7QObject@Base 0.9.1
 _ZN2Tp6Client33ChannelTypeStreamedMediaInterfaceC2ERKNS0_16ChannelInterfaceE@Base 0.9.1
 _ZN2Tp6Client33ChannelTypeStreamedMediaInterfaceC2ERKNS0_16ChannelInterfaceEP7QObject@Base 0.9.1
 _ZN2Tp6Client33ChannelTypeStreamedMediaInterfaceD0Ev@Base 0.9.1
 _ZN2Tp6Client33ChannelTypeStreamedMediaInterfaceD1Ev@Base 0.9.1
 _ZN2Tp6Client33ChannelTypeStreamedMediaInterfaceD2Ev@Base 0.9.1
 _ZN2Tp6Client33ProtocolInterfaceAvatarsInterface10invalidateEPNS_9DBusProxyERK7QStringS6_@Base 0.9.1
 _ZN2Tp6Client33ProtocolInterfaceAvatarsInterface11qt_metacallEN11QMetaObject4CallEiPPv@Base 0.9.1
 _ZN2Tp6Client33ProtocolInterfaceAvatarsInterface11qt_metacastEPKc@Base 0.9.1
 _ZN2Tp6Client33ProtocolInterfaceAvatarsInterface16staticMetaObjectE@Base 0.9.1
 _ZN2Tp6Client33ProtocolInterfaceAvatarsInterfaceC1EPNS_9DBusProxyE@Base 0.9.1
 _ZN2Tp6Client33ProtocolInterfaceAvatarsInterfaceC1ERK15QDBusConnectionRK7QStringS7_P7QObject@Base 0.9.1
 _ZN2Tp6Client33ProtocolInterfaceAvatarsInterfaceC1ERK7QStringS4_P7QObject@Base 0.9.1
 _ZN2Tp6Client33ProtocolInterfaceAvatarsInterfaceC1ERKNS0_26ConnectionManagerInterfaceE@Base 0.9.1
 _ZN2Tp6Client33ProtocolInterfaceAvatarsInterfaceC1ERKNS0_26ConnectionManagerInterfaceEP7QObject@Base 0.9.1
 _ZN2Tp6Client33ProtocolInterfaceAvatarsInterfaceC2EPNS_9DBusProxyE@Base 0.9.1
 _ZN2Tp6Client33ProtocolInterfaceAvatarsInterfaceC2ERK15QDBusConnectionRK7QStringS7_P7QObject@Base 0.9.1
 _ZN2Tp6Client33ProtocolInterfaceAvatarsInterfaceC2ERK7QStringS4_P7QObject@Base 0.9.1
 _ZN2Tp6Client33ProtocolInterfaceAvatarsInterfaceC2ERKNS0_26ConnectionManagerInterfaceE@Base 0.9.1
 _ZN2Tp6Client33ProtocolInterfaceAvatarsInterfaceC2ERKNS0_26ConnectionManagerInterfaceEP7QObject@Base 0.9.1
 _ZN2Tp6Client33ProtocolInterfaceAvatarsInterfaceD0Ev@Base 0.9.1
 _ZN2Tp6Client33ProtocolInterfaceAvatarsInterfaceD1Ev@Base 0.9.1
 _ZN2Tp6Client33ProtocolInterfaceAvatarsInterfaceD2Ev@Base 0.9.1
 _ZN2Tp6Client34CallContentInterfaceMediaInterface10invalidateEPNS_9DBusProxyERK7QStringS6_@Base 0.9.1
 _ZN2Tp6Client34CallContentInterfaceMediaInterface11qt_metacallEN11QMetaObject4CallEiPPv@Base 0.9.1
 _ZN2Tp6Client34CallContentInterfaceMediaInterface11qt_metacastEPKc@Base 0.9.1
 _ZN2Tp6Client34CallContentInterfaceMediaInterface16staticMetaObjectE@Base 0.9.1
 _ZN2Tp6Client34CallContentInterfaceMediaInterface19DTMFChangeRequestedEhj@Base 0.9.1
 _ZN2Tp6Client34CallContentInterfaceMediaInterface24MediaDescriptionsRemovedERKNS_8UIntListE@Base 0.9.1
 _ZN2Tp6Client34CallContentInterfaceMediaInterface24NewMediaDescriptionOfferERK15QDBusObjectPathRK4QMapI7QString8QVariantE@Base 0.9.1
 _ZN2Tp6Client34CallContentInterfaceMediaInterface25MediaDescriptionOfferDoneEv@Base 0.9.1
 _ZN2Tp6Client34CallContentInterfaceMediaInterface28LocalMediaDescriptionChangedERK4QMapI7QString8QVariantE@Base 0.9.1
 _ZN2Tp6Client34CallContentInterfaceMediaInterface30RemoteMediaDescriptionsChangedERKNS_36ContactMediaDescriptionPropertiesMapE@Base 0.9.1
 _ZN2Tp6Client34CallContentInterfaceMediaInterfaceC1EPNS_9DBusProxyE@Base 0.9.1
 _ZN2Tp6Client34CallContentInterfaceMediaInterfaceC1ERK15QDBusConnectionRK7QStringS7_P7QObject@Base 0.9.1
 _ZN2Tp6Client34CallContentInterfaceMediaInterfaceC1ERK7QStringS4_P7QObject@Base 0.9.1
 _ZN2Tp6Client34CallContentInterfaceMediaInterfaceC1ERKNS0_20CallContentInterfaceE@Base 0.9.1
 _ZN2Tp6Client34CallContentInterfaceMediaInterfaceC1ERKNS0_20CallContentInterfaceEP7QObject@Base 0.9.1
 _ZN2Tp6Client34CallContentInterfaceMediaInterfaceC2EPNS_9DBusProxyE@Base 0.9.1
 _ZN2Tp6Client34CallContentInterfaceMediaInterfaceC2ERK15QDBusConnectionRK7QStringS7_P7QObject@Base 0.9.1
 _ZN2Tp6Client34CallContentInterfaceMediaInterfaceC2ERK7QStringS4_P7QObject@Base 0.9.1
 _ZN2Tp6Client34CallContentInterfaceMediaInterfaceC2ERKNS0_20CallContentInterfaceE@Base 0.9.1
 _ZN2Tp6Client34CallContentInterfaceMediaInterfaceC2ERKNS0_20CallContentInterfaceEP7QObject@Base 0.9.1
 _ZN2Tp6Client34CallContentInterfaceMediaInterfaceD0Ev@Base 0.9.1
 _ZN2Tp6Client34CallContentInterfaceMediaInterfaceD1Ev@Base 0.9.1
 _ZN2Tp6Client34CallContentInterfaceMediaInterfaceD2Ev@Base 0.9.1
 _ZN2Tp6Client34ChannelInterfaceAnonymityInterface10invalidateEPNS_9DBusProxyERK7QStringS6_@Base 0.9.1
 _ZN2Tp6Client34ChannelInterfaceAnonymityInterface11qt_metacallEN11QMetaObject4CallEiPPv@Base 0.9.1
 _ZN2Tp6Client34ChannelInterfaceAnonymityInterface11qt_metacastEPKc@Base 0.9.1
 _ZN2Tp6Client34ChannelInterfaceAnonymityInterface16staticMetaObjectE@Base 0.9.1
 _ZN2Tp6Client34ChannelInterfaceAnonymityInterfaceC1EPNS_9DBusProxyE@Base 0.9.1
 _ZN2Tp6Client34ChannelInterfaceAnonymityInterfaceC1ERK15QDBusConnectionRK7QStringS7_P7QObject@Base 0.9.1
 _ZN2Tp6Client34ChannelInterfaceAnonymityInterfaceC1ERK7QStringS4_P7QObject@Base 0.9.1
 _ZN2Tp6Client34ChannelInterfaceAnonymityInterfaceC1ERKNS0_16ChannelInterfaceE@Base 0.9.1
 _ZN2Tp6Client34ChannelInterfaceAnonymityInterfaceC1ERKNS0_16ChannelInterfaceEP7QObject@Base 0.9.1
 _ZN2Tp6Client34ChannelInterfaceAnonymityInterfaceC2EPNS_9DBusProxyE@Base 0.9.1
 _ZN2Tp6Client34ChannelInterfaceAnonymityInterfaceC2ERK15QDBusConnectionRK7QStringS7_P7QObject@Base 0.9.1
 _ZN2Tp6Client34ChannelInterfaceAnonymityInterfaceC2ERK7QStringS4_P7QObject@Base 0.9.1
 _ZN2Tp6Client34ChannelInterfaceAnonymityInterfaceC2ERKNS0_16ChannelInterfaceE@Base 0.9.1
 _ZN2Tp6Client34ChannelInterfaceAnonymityInterfaceC2ERKNS0_16ChannelInterfaceEP7QObject@Base 0.9.1
 _ZN2Tp6Client34ChannelInterfaceAnonymityInterfaceD0Ev@Base 0.9.1
 _ZN2Tp6Client34ChannelInterfaceAnonymityInterfaceD1Ev@Base 0.9.1
 _ZN2Tp6Client34ChannelInterfaceAnonymityInterfaceD2Ev@Base 0.9.1
 _ZN2Tp6Client34ChannelInterfaceCallStateInterface10invalidateEPNS_9DBusProxyERK7QStringS6_@Base 0.9.1
 _ZN2Tp6Client34ChannelInterfaceCallStateInterface11qt_metacallEN11QMetaObject4CallEiPPv@Base 0.9.1
 _ZN2Tp6Client34ChannelInterfaceCallStateInterface11qt_metacastEPKc@Base 0.9.1
 _ZN2Tp6Client34ChannelInterfaceCallStateInterface16CallStateChangedEjj@Base 0.9.1
 _ZN2Tp6Client34ChannelInterfaceCallStateInterface16staticMetaObjectE@Base 0.9.1
 _ZN2Tp6Client34ChannelInterfaceCallStateInterfaceC1EPNS_9DBusProxyE@Base 0.9.1
 _ZN2Tp6Client34ChannelInterfaceCallStateInterfaceC1ERK15QDBusConnectionRK7QStringS7_P7QObject@Base 0.9.1
 _ZN2Tp6Client34ChannelInterfaceCallStateInterfaceC1ERK7QStringS4_P7QObject@Base 0.9.1
 _ZN2Tp6Client34ChannelInterfaceCallStateInterfaceC1ERKNS0_16ChannelInterfaceE@Base 0.9.1
 _ZN2Tp6Client34ChannelInterfaceCallStateInterfaceC1ERKNS0_16ChannelInterfaceEP7QObject@Base 0.9.1
 _ZN2Tp6Client34ChannelInterfaceCallStateInterfaceC2EPNS_9DBusProxyE@Base 0.9.1
 _ZN2Tp6Client34ChannelInterfaceCallStateInterfaceC2ERK15QDBusConnectionRK7QStringS7_P7QObject@Base 0.9.1
 _ZN2Tp6Client34ChannelInterfaceCallStateInterfaceC2ERK7QStringS4_P7QObject@Base 0.9.1
 _ZN2Tp6Client34ChannelInterfaceCallStateInterfaceC2ERKNS0_16ChannelInterfaceE@Base 0.9.1
 _ZN2Tp6Client34ChannelInterfaceCallStateInterfaceC2ERKNS0_16ChannelInterfaceEP7QObject@Base 0.9.1
 _ZN2Tp6Client34ChannelInterfaceCallStateInterfaceD0Ev@Base 0.9.1
 _ZN2Tp6Client34ChannelInterfaceCallStateInterfaceD1Ev@Base 0.9.1
 _ZN2Tp6Client34ChannelInterfaceCallStateInterfaceD2Ev@Base 0.9.1
 _ZN2Tp6Client34ChannelInterfaceChatStateInterface10invalidateEPNS_9DBusProxyERK7QStringS6_@Base 0.9.1
 _ZN2Tp6Client34ChannelInterfaceChatStateInterface11qt_metacallEN11QMetaObject4CallEiPPv@Base 0.9.1
 _ZN2Tp6Client34ChannelInterfaceChatStateInterface11qt_metacastEPKc@Base 0.9.1
 _ZN2Tp6Client34ChannelInterfaceChatStateInterface16ChatStateChangedEjj@Base 0.9.1
 _ZN2Tp6Client34ChannelInterfaceChatStateInterface16staticMetaObjectE@Base 0.9.1
 _ZN2Tp6Client34ChannelInterfaceChatStateInterfaceC1EPNS_9DBusProxyE@Base 0.9.1
 _ZN2Tp6Client34ChannelInterfaceChatStateInterfaceC1ERK15QDBusConnectionRK7QStringS7_P7QObject@Base 0.9.1
 _ZN2Tp6Client34ChannelInterfaceChatStateInterfaceC1ERK7QStringS4_P7QObject@Base 0.9.1
 _ZN2Tp6Client34ChannelInterfaceChatStateInterfaceC1ERKNS0_16ChannelInterfaceE@Base 0.9.1
 _ZN2Tp6Client34ChannelInterfaceChatStateInterfaceC1ERKNS0_16ChannelInterfaceEP7QObject@Base 0.9.1
 _ZN2Tp6Client34ChannelInterfaceChatStateInterfaceC2EPNS_9DBusProxyE@Base 0.9.1
 _ZN2Tp6Client34ChannelInterfaceChatStateInterfaceC2ERK15QDBusConnectionRK7QStringS7_P7QObject@Base 0.9.1
 _ZN2Tp6Client34ChannelInterfaceChatStateInterfaceC2ERK7QStringS4_P7QObject@Base 0.9.1
 _ZN2Tp6Client34ChannelInterfaceChatStateInterfaceC2ERKNS0_16ChannelInterfaceE@Base 0.9.1
 _ZN2Tp6Client34ChannelInterfaceChatStateInterfaceC2ERKNS0_16ChannelInterfaceEP7QObject@Base 0.9.1
 _ZN2Tp6Client34ChannelInterfaceChatStateInterfaceD0Ev@Base 0.9.1
 _ZN2Tp6Client34ChannelInterfaceChatStateInterfaceD1Ev@Base 0.9.1
 _ZN2Tp6Client34ChannelInterfaceChatStateInterfaceD2Ev@Base 0.9.1
 _ZN2Tp6Client34ChannelInterfaceSecurableInterface10invalidateEPNS_9DBusProxyERK7QStringS6_@Base 0.9.1
 _ZN2Tp6Client34ChannelInterfaceSecurableInterface11qt_metacallEN11QMetaObject4CallEiPPv@Base 0.9.1
 _ZN2Tp6Client34ChannelInterfaceSecurableInterface11qt_metacastEPKc@Base 0.9.1
 _ZN2Tp6Client34ChannelInterfaceSecurableInterface16staticMetaObjectE@Base 0.9.1
 _ZN2Tp6Client34ChannelInterfaceSecurableInterfaceC1EPNS_9DBusProxyE@Base 0.9.1
 _ZN2Tp6Client34ChannelInterfaceSecurableInterfaceC1ERK15QDBusConnectionRK7QStringS7_P7QObject@Base 0.9.1
 _ZN2Tp6Client34ChannelInterfaceSecurableInterfaceC1ERK7QStringS4_P7QObject@Base 0.9.1
 _ZN2Tp6Client34ChannelInterfaceSecurableInterfaceC1ERKNS0_16ChannelInterfaceE@Base 0.9.1
 _ZN2Tp6Client34ChannelInterfaceSecurableInterfaceC1ERKNS0_16ChannelInterfaceEP7QObject@Base 0.9.1
 _ZN2Tp6Client34ChannelInterfaceSecurableInterfaceC2EPNS_9DBusProxyE@Base 0.9.1
 _ZN2Tp6Client34ChannelInterfaceSecurableInterfaceC2ERK15QDBusConnectionRK7QStringS7_P7QObject@Base 0.9.1
 _ZN2Tp6Client34ChannelInterfaceSecurableInterfaceC2ERK7QStringS4_P7QObject@Base 0.9.1
 _ZN2Tp6Client34ChannelInterfaceSecurableInterfaceC2ERKNS0_16ChannelInterfaceE@Base 0.9.1
 _ZN2Tp6Client34ChannelInterfaceSecurableInterfaceC2ERKNS0_16ChannelInterfaceEP7QObject@Base 0.9.1
 _ZN2Tp6Client34ChannelInterfaceSecurableInterfaceD0Ev@Base 0.9.1
 _ZN2Tp6Client34ChannelInterfaceSecurableInterfaceD1Ev@Base 0.9.1
 _ZN2Tp6Client34ChannelInterfaceSecurableInterfaceD2Ev@Base 0.9.1
 _ZN2Tp6Client34ProtocolInterfacePresenceInterface10invalidateEPNS_9DBusProxyERK7QStringS6_@Base 0.9.1
 _ZN2Tp6Client34ProtocolInterfacePresenceInterface11qt_metacallEN11QMetaObject4CallEiPPv@Base 0.9.1
 _ZN2Tp6Client34ProtocolInterfacePresenceInterface11qt_metacastEPKc@Base 0.9.1
 _ZN2Tp6Client34ProtocolInterfacePresenceInterface16staticMetaObjectE@Base 0.9.1
 _ZN2Tp6Client34ProtocolInterfacePresenceInterfaceC1EPNS_9DBusProxyE@Base 0.9.1
 _ZN2Tp6Client34ProtocolInterfacePresenceInterfaceC1ERK15QDBusConnectionRK7QStringS7_P7QObject@Base 0.9.1
 _ZN2Tp6Client34ProtocolInterfacePresenceInterfaceC1ERK7QStringS4_P7QObject@Base 0.9.1
 _ZN2Tp6Client34ProtocolInterfacePresenceInterfaceC1ERKNS0_26ConnectionManagerInterfaceE@Base 0.9.1
 _ZN2Tp6Client34ProtocolInterfacePresenceInterfaceC1ERKNS0_26ConnectionManagerInterfaceEP7QObject@Base 0.9.1
 _ZN2Tp6Client34ProtocolInterfacePresenceInterfaceC2EPNS_9DBusProxyE@Base 0.9.1
 _ZN2Tp6Client34ProtocolInterfacePresenceInterfaceC2ERK15QDBusConnectionRK7QStringS7_P7QObject@Base 0.9.1
 _ZN2Tp6Client34ProtocolInterfacePresenceInterfaceC2ERK7QStringS4_P7QObject@Base 0.9.1
 _ZN2Tp6Client34ProtocolInterfacePresenceInterfaceC2ERKNS0_26ConnectionManagerInterfaceE@Base 0.9.1
 _ZN2Tp6Client34ProtocolInterfacePresenceInterfaceC2ERKNS0_26ConnectionManagerInterfaceEP7QObject@Base 0.9.1
 _ZN2Tp6Client34ProtocolInterfacePresenceInterfaceD0Ev@Base 0.9.1
 _ZN2Tp6Client34ProtocolInterfacePresenceInterfaceD1Ev@Base 0.9.1
 _ZN2Tp6Client34ProtocolInterfacePresenceInterfaceD2Ev@Base 0.9.1
 _ZN2Tp6Client35AccountInterfaceAddressingInterface10invalidateEPNS_9DBusProxyERK7QStringS6_@Base 0.9.1
 _ZN2Tp6Client35AccountInterfaceAddressingInterface11qt_metacallEN11QMetaObject4CallEiPPv@Base 0.9.1
 _ZN2Tp6Client35AccountInterfaceAddressingInterface11qt_metacastEPKc@Base 0.9.1
 _ZN2Tp6Client35AccountInterfaceAddressingInterface16staticMetaObjectE@Base 0.9.1
 _ZN2Tp6Client35AccountInterfaceAddressingInterfaceC1EPNS_9DBusProxyE@Base 0.9.1
 _ZN2Tp6Client35AccountInterfaceAddressingInterfaceC1ERK15QDBusConnectionRK7QStringS7_P7QObject@Base 0.9.1
 _ZN2Tp6Client35AccountInterfaceAddressingInterfaceC1ERK7QStringS4_P7QObject@Base 0.9.1
 _ZN2Tp6Client35AccountInterfaceAddressingInterfaceC1ERKNS0_16AccountInterfaceE@Base 0.9.1
 _ZN2Tp6Client35AccountInterfaceAddressingInterfaceC1ERKNS0_16AccountInterfaceEP7QObject@Base 0.9.1
 _ZN2Tp6Client35AccountInterfaceAddressingInterfaceC2EPNS_9DBusProxyE@Base 0.9.1
 _ZN2Tp6Client35AccountInterfaceAddressingInterfaceC2ERK15QDBusConnectionRK7QStringS7_P7QObject@Base 0.9.1
 _ZN2Tp6Client35AccountInterfaceAddressingInterfaceC2ERK7QStringS4_P7QObject@Base 0.9.1
 _ZN2Tp6Client35AccountInterfaceAddressingInterfaceC2ERKNS0_16AccountInterfaceE@Base 0.9.1
 _ZN2Tp6Client35AccountInterfaceAddressingInterfaceC2ERKNS0_16AccountInterfaceEP7QObject@Base 0.9.1
 _ZN2Tp6Client35AccountInterfaceAddressingInterfaceD0Ev@Base 0.9.1
 _ZN2Tp6Client35AccountInterfaceAddressingInterfaceD1Ev@Base 0.9.1
 _ZN2Tp6Client35AccountInterfaceAddressingInterfaceD2Ev@Base 0.9.1
 _ZN2Tp6Client35ChannelInterfaceConferenceInterface10invalidateEPNS_9DBusProxyERK7QStringS6_@Base 0.9.1
 _ZN2Tp6Client35ChannelInterfaceConferenceInterface11qt_metacallEN11QMetaObject4CallEiPPv@Base 0.9.1
 _ZN2Tp6Client35ChannelInterfaceConferenceInterface11qt_metacastEPKc@Base 0.9.1
 _ZN2Tp6Client35ChannelInterfaceConferenceInterface13ChannelMergedERK15QDBusObjectPathjRK4QMapI7QString8QVariantE@Base 0.9.1
 _ZN2Tp6Client35ChannelInterfaceConferenceInterface14ChannelRemovedERK15QDBusObjectPathRK4QMapI7QString8QVariantE@Base 0.9.1
 _ZN2Tp6Client35ChannelInterfaceConferenceInterface16staticMetaObjectE@Base 0.9.1
 _ZN2Tp6Client35ChannelInterfaceConferenceInterfaceC1EPNS_9DBusProxyE@Base 0.9.1
 _ZN2Tp6Client35ChannelInterfaceConferenceInterfaceC1ERK15QDBusConnectionRK7QStringS7_P7QObject@Base 0.9.1
 _ZN2Tp6Client35ChannelInterfaceConferenceInterfaceC1ERK7QStringS4_P7QObject@Base 0.9.1
 _ZN2Tp6Client35ChannelInterfaceConferenceInterfaceC1ERKNS0_16ChannelInterfaceE@Base 0.9.1
 _ZN2Tp6Client35ChannelInterfaceConferenceInterfaceC1ERKNS0_16ChannelInterfaceEP7QObject@Base 0.9.1
 _ZN2Tp6Client35ChannelInterfaceConferenceInterfaceC2EPNS_9DBusProxyE@Base 0.9.1
 _ZN2Tp6Client35ChannelInterfaceConferenceInterfaceC2ERK15QDBusConnectionRK7QStringS7_P7QObject@Base 0.9.1
 _ZN2Tp6Client35ChannelInterfaceConferenceInterfaceC2ERK7QStringS4_P7QObject@Base 0.9.1
 _ZN2Tp6Client35ChannelInterfaceConferenceInterfaceC2ERKNS0_16ChannelInterfaceE@Base 0.9.1
 _ZN2Tp6Client35ChannelInterfaceConferenceInterfaceC2ERKNS0_16ChannelInterfaceEP7QObject@Base 0.9.1
 _ZN2Tp6Client35ChannelInterfaceConferenceInterfaceD0Ev@Base 0.9.1
 _ZN2Tp6Client35ChannelInterfaceConferenceInterfaceD1Ev@Base 0.9.1
 _ZN2Tp6Client35ChannelInterfaceConferenceInterfaceD2Ev@Base 0.9.1
 _ZN2Tp6Client35ConnectionInterfaceAvatarsInterface10invalidateEPNS_9DBusProxyERK7QStringS6_@Base 0.9.1
 _ZN2Tp6Client35ConnectionInterfaceAvatarsInterface11qt_metacallEN11QMetaObject4CallEiPPv@Base 0.9.1
 _ZN2Tp6Client35ConnectionInterfaceAvatarsInterface11qt_metacastEPKc@Base 0.9.1
 _ZN2Tp6Client35ConnectionInterfaceAvatarsInterface13AvatarUpdatedEjRK7QString@Base 0.9.1
 _ZN2Tp6Client35ConnectionInterfaceAvatarsInterface15AvatarRetrievedEjRK7QStringRK10QByteArrayS4_@Base 0.9.1
 _ZN2Tp6Client35ConnectionInterfaceAvatarsInterface16staticMetaObjectE@Base 0.9.1
 _ZN2Tp6Client35ConnectionInterfaceAvatarsInterfaceC1EPNS_9DBusProxyE@Base 0.9.1
 _ZN2Tp6Client35ConnectionInterfaceAvatarsInterfaceC1ERK15QDBusConnectionRK7QStringS7_P7QObject@Base 0.9.1
 _ZN2Tp6Client35ConnectionInterfaceAvatarsInterfaceC1ERK7QStringS4_P7QObject@Base 0.9.1
 _ZN2Tp6Client35ConnectionInterfaceAvatarsInterfaceC1ERKNS0_19ConnectionInterfaceE@Base 0.9.1
 _ZN2Tp6Client35ConnectionInterfaceAvatarsInterfaceC1ERKNS0_19ConnectionInterfaceEP7QObject@Base 0.9.1
 _ZN2Tp6Client35ConnectionInterfaceAvatarsInterfaceC2EPNS_9DBusProxyE@Base 0.9.1
 _ZN2Tp6Client35ConnectionInterfaceAvatarsInterfaceC2ERK15QDBusConnectionRK7QStringS7_P7QObject@Base 0.9.1
 _ZN2Tp6Client35ConnectionInterfaceAvatarsInterfaceC2ERK7QStringS4_P7QObject@Base 0.9.1
 _ZN2Tp6Client35ConnectionInterfaceAvatarsInterfaceC2ERKNS0_19ConnectionInterfaceE@Base 0.9.1
 _ZN2Tp6Client35ConnectionInterfaceAvatarsInterfaceC2ERKNS0_19ConnectionInterfaceEP7QObject@Base 0.9.1
 _ZN2Tp6Client35ConnectionInterfaceAvatarsInterfaceD0Ev@Base 0.9.1
 _ZN2Tp6Client35ConnectionInterfaceAvatarsInterfaceD1Ev@Base 0.9.1
 _ZN2Tp6Client35ConnectionInterfaceAvatarsInterfaceD2Ev@Base 0.9.1
 _ZN2Tp6Client35ConnectionInterfaceBalanceInterface10invalidateEPNS_9DBusProxyERK7QStringS6_@Base 0.9.1
 _ZN2Tp6Client35ConnectionInterfaceBalanceInterface11qt_metacallEN11QMetaObject4CallEiPPv@Base 0.9.1
 _ZN2Tp6Client35ConnectionInterfaceBalanceInterface11qt_metacastEPKc@Base 0.9.1
 _ZN2Tp6Client35ConnectionInterfaceBalanceInterface14BalanceChangedERKNS_14CurrencyAmountE@Base 0.9.1
 _ZN2Tp6Client35ConnectionInterfaceBalanceInterface16staticMetaObjectE@Base 0.9.1
 _ZN2Tp6Client35ConnectionInterfaceBalanceInterfaceC1EPNS_9DBusProxyE@Base 0.9.1
 _ZN2Tp6Client35ConnectionInterfaceBalanceInterfaceC1ERK15QDBusConnectionRK7QStringS7_P7QObject@Base 0.9.1
 _ZN2Tp6Client35ConnectionInterfaceBalanceInterfaceC1ERK7QStringS4_P7QObject@Base 0.9.1
 _ZN2Tp6Client35ConnectionInterfaceBalanceInterfaceC1ERKNS0_19ConnectionInterfaceE@Base 0.9.1
 _ZN2Tp6Client35ConnectionInterfaceBalanceInterfaceC1ERKNS0_19ConnectionInterfaceEP7QObject@Base 0.9.1
 _ZN2Tp6Client35ConnectionInterfaceBalanceInterfaceC2EPNS_9DBusProxyE@Base 0.9.1
 _ZN2Tp6Client35ConnectionInterfaceBalanceInterfaceC2ERK15QDBusConnectionRK7QStringS7_P7QObject@Base 0.9.1
 _ZN2Tp6Client35ConnectionInterfaceBalanceInterfaceC2ERK7QStringS4_P7QObject@Base 0.9.1
 _ZN2Tp6Client35ConnectionInterfaceBalanceInterfaceC2ERKNS0_19ConnectionInterfaceE@Base 0.9.1
 _ZN2Tp6Client35ConnectionInterfaceBalanceInterfaceC2ERKNS0_19ConnectionInterfaceEP7QObject@Base 0.9.1
 _ZN2Tp6Client35ConnectionInterfaceBalanceInterfaceD0Ev@Base 0.9.1
 _ZN2Tp6Client35ConnectionInterfaceBalanceInterfaceD1Ev@Base 0.9.1
 _ZN2Tp6Client35ConnectionInterfaceBalanceInterfaceD2Ev@Base 0.9.1
 _ZN2Tp6Client36CallContentMediaDescriptionInterface10invalidateEPNS_9DBusProxyERK7QStringS6_@Base 0.9.1
 _ZN2Tp6Client36CallContentMediaDescriptionInterface11qt_metacallEN11QMetaObject4CallEiPPv@Base 0.9.1
 _ZN2Tp6Client36CallContentMediaDescriptionInterface11qt_metacastEPKc@Base 0.9.1
 _ZN2Tp6Client36CallContentMediaDescriptionInterface16staticMetaObjectE@Base 0.9.1
 _ZN2Tp6Client36CallContentMediaDescriptionInterfaceC1EPNS_9DBusProxyE@Base 0.9.1
 _ZN2Tp6Client36CallContentMediaDescriptionInterfaceC1ERK15QDBusConnectionRK7QStringS7_P7QObject@Base 0.9.1
 _ZN2Tp6Client36CallContentMediaDescriptionInterfaceC1ERK7QStringS4_P7QObject@Base 0.9.1
 _ZN2Tp6Client36CallContentMediaDescriptionInterfaceC2EPNS_9DBusProxyE@Base 0.9.1
 _ZN2Tp6Client36CallContentMediaDescriptionInterfaceC2ERK15QDBusConnectionRK7QStringS7_P7QObject@Base 0.9.1
 _ZN2Tp6Client36CallContentMediaDescriptionInterfaceC2ERK7QStringS4_P7QObject@Base 0.9.1
 _ZN2Tp6Client36CallContentMediaDescriptionInterfaceD0Ev@Base 0.9.1
 _ZN2Tp6Client36CallContentMediaDescriptionInterfaceD1Ev@Base 0.9.1
 _ZN2Tp6Client36CallContentMediaDescriptionInterfaceD2Ev@Base 0.9.1
 _ZN2Tp6Client36ChannelInterfaceDestroyableInterface10invalidateEPNS_9DBusProxyERK7QStringS6_@Base 0.9.1
 _ZN2Tp6Client36ChannelInterfaceDestroyableInterface11qt_metacallEN11QMetaObject4CallEiPPv@Base 0.9.1
 _ZN2Tp6Client36ChannelInterfaceDestroyableInterface11qt_metacastEPKc@Base 0.9.1
 _ZN2Tp6Client36ChannelInterfaceDestroyableInterface16staticMetaObjectE@Base 0.9.1
 _ZN2Tp6Client36ChannelInterfaceDestroyableInterfaceC1EPNS_9DBusProxyE@Base 0.9.1
 _ZN2Tp6Client36ChannelInterfaceDestroyableInterfaceC1ERK15QDBusConnectionRK7QStringS7_P7QObject@Base 0.9.1
 _ZN2Tp6Client36ChannelInterfaceDestroyableInterfaceC1ERK7QStringS4_P7QObject@Base 0.9.1
 _ZN2Tp6Client36ChannelInterfaceDestroyableInterfaceC1ERKNS0_16ChannelInterfaceE@Base 0.9.1
 _ZN2Tp6Client36ChannelInterfaceDestroyableInterfaceC1ERKNS0_16ChannelInterfaceEP7QObject@Base 0.9.1
 _ZN2Tp6Client36ChannelInterfaceDestroyableInterfaceC2EPNS_9DBusProxyE@Base 0.9.1
 _ZN2Tp6Client36ChannelInterfaceDestroyableInterfaceC2ERK15QDBusConnectionRK7QStringS7_P7QObject@Base 0.9.1
 _ZN2Tp6Client36ChannelInterfaceDestroyableInterfaceC2ERK7QStringS4_P7QObject@Base 0.9.1
 _ZN2Tp6Client36ChannelInterfaceDestroyableInterfaceC2ERKNS0_16ChannelInterfaceE@Base 0.9.1
 _ZN2Tp6Client36ChannelInterfaceDestroyableInterfaceC2ERKNS0_16ChannelInterfaceEP7QObject@Base 0.9.1
 _ZN2Tp6Client36ChannelInterfaceDestroyableInterfaceD0Ev@Base 0.9.1
 _ZN2Tp6Client36ChannelInterfaceDestroyableInterfaceD1Ev@Base 0.9.1
 _ZN2Tp6Client36ChannelInterfaceDestroyableInterfaceD2Ev@Base 0.9.1
 _ZN2Tp6Client36ConnectionInterfaceAliasingInterface10invalidateEPNS_9DBusProxyERK7QStringS6_@Base 0.9.1
 _ZN2Tp6Client36ConnectionInterfaceAliasingInterface11qt_metacallEN11QMetaObject4CallEiPPv@Base 0.9.1
 _ZN2Tp6Client36ConnectionInterfaceAliasingInterface11qt_metacastEPKc@Base 0.9.1
 _ZN2Tp6Client36ConnectionInterfaceAliasingInterface14AliasesChangedERK5QListINS_9AliasPairEE@Base 0.9.1
 _ZN2Tp6Client36ConnectionInterfaceAliasingInterface16staticMetaObjectE@Base 0.9.1
 _ZN2Tp6Client36ConnectionInterfaceAliasingInterfaceC1EPNS_9DBusProxyE@Base 0.9.1
 _ZN2Tp6Client36ConnectionInterfaceAliasingInterfaceC1ERK15QDBusConnectionRK7QStringS7_P7QObject@Base 0.9.1
 _ZN2Tp6Client36ConnectionInterfaceAliasingInterfaceC1ERK7QStringS4_P7QObject@Base 0.9.1
 _ZN2Tp6Client36ConnectionInterfaceAliasingInterfaceC1ERKNS0_19ConnectionInterfaceE@Base 0.9.1
 _ZN2Tp6Client36ConnectionInterfaceAliasingInterfaceC1ERKNS0_19ConnectionInterfaceEP7QObject@Base 0.9.1
 _ZN2Tp6Client36ConnectionInterfaceAliasingInterfaceC2EPNS_9DBusProxyE@Base 0.9.1
 _ZN2Tp6Client36ConnectionInterfaceAliasingInterfaceC2ERK15QDBusConnectionRK7QStringS7_P7QObject@Base 0.9.1
 _ZN2Tp6Client36ConnectionInterfaceAliasingInterfaceC2ERK7QStringS4_P7QObject@Base 0.9.1
 _ZN2Tp6Client36ConnectionInterfaceAliasingInterfaceC2ERKNS0_19ConnectionInterfaceE@Base 0.9.1
 _ZN2Tp6Client36ConnectionInterfaceAliasingInterfaceC2ERKNS0_19ConnectionInterfaceEP7QObject@Base 0.9.1
 _ZN2Tp6Client36ConnectionInterfaceAliasingInterfaceD0Ev@Base 0.9.1
 _ZN2Tp6Client36ConnectionInterfaceAliasingInterfaceD1Ev@Base 0.9.1
 _ZN2Tp6Client36ConnectionInterfaceAliasingInterfaceD2Ev@Base 0.9.1
 _ZN2Tp6Client36ConnectionInterfaceCellularInterface10invalidateEPNS_9DBusProxyERK7QStringS6_@Base 0.9.1
 _ZN2Tp6Client36ConnectionInterfaceCellularInterface11IMSIChangedERK7QString@Base 0.9.1
 _ZN2Tp6Client36ConnectionInterfaceCellularInterface11qt_metacallEN11QMetaObject4CallEiPPv@Base 0.9.1
 _ZN2Tp6Client36ConnectionInterfaceCellularInterface11qt_metacastEPKc@Base 0.9.1
 _ZN2Tp6Client36ConnectionInterfaceCellularInterface16staticMetaObjectE@Base 0.9.1
 _ZN2Tp6Client36ConnectionInterfaceCellularInterfaceC1EPNS_9DBusProxyE@Base 0.9.1
 _ZN2Tp6Client36ConnectionInterfaceCellularInterfaceC1ERK15QDBusConnectionRK7QStringS7_P7QObject@Base 0.9.1
 _ZN2Tp6Client36ConnectionInterfaceCellularInterfaceC1ERK7QStringS4_P7QObject@Base 0.9.1
 _ZN2Tp6Client36ConnectionInterfaceCellularInterfaceC1ERKNS0_19ConnectionInterfaceE@Base 0.9.1
 _ZN2Tp6Client36ConnectionInterfaceCellularInterfaceC1ERKNS0_19ConnectionInterfaceEP7QObject@Base 0.9.1
 _ZN2Tp6Client36ConnectionInterfaceCellularInterfaceC2EPNS_9DBusProxyE@Base 0.9.1
 _ZN2Tp6Client36ConnectionInterfaceCellularInterfaceC2ERK15QDBusConnectionRK7QStringS7_P7QObject@Base 0.9.1
 _ZN2Tp6Client36ConnectionInterfaceCellularInterfaceC2ERK7QStringS4_P7QObject@Base 0.9.1
 _ZN2Tp6Client36ConnectionInterfaceCellularInterfaceC2ERKNS0_19ConnectionInterfaceE@Base 0.9.1
 _ZN2Tp6Client36ConnectionInterfaceCellularInterfaceC2ERKNS0_19ConnectionInterfaceEP7QObject@Base 0.9.1
 _ZN2Tp6Client36ConnectionInterfaceCellularInterfaceD0Ev@Base 0.9.1
 _ZN2Tp6Client36ConnectionInterfaceCellularInterfaceD1Ev@Base 0.9.1
 _ZN2Tp6Client36ConnectionInterfaceCellularInterfaceD2Ev@Base 0.9.1
 _ZN2Tp6Client36ConnectionInterfaceContactsInterface10invalidateEPNS_9DBusProxyERK7QStringS6_@Base 0.9.1
 _ZN2Tp6Client36ConnectionInterfaceContactsInterface11qt_metacallEN11QMetaObject4CallEiPPv@Base 0.9.1
 _ZN2Tp6Client36ConnectionInterfaceContactsInterface11qt_metacastEPKc@Base 0.9.1
 _ZN2Tp6Client36ConnectionInterfaceContactsInterface16staticMetaObjectE@Base 0.9.1
 _ZN2Tp6Client36ConnectionInterfaceContactsInterfaceC1EPNS_9DBusProxyE@Base 0.9.1
 _ZN2Tp6Client36ConnectionInterfaceContactsInterfaceC1ERK15QDBusConnectionRK7QStringS7_P7QObject@Base 0.9.1
 _ZN2Tp6Client36ConnectionInterfaceContactsInterfaceC1ERK7QStringS4_P7QObject@Base 0.9.1
 _ZN2Tp6Client36ConnectionInterfaceContactsInterfaceC1ERKNS0_19ConnectionInterfaceE@Base 0.9.1
 _ZN2Tp6Client36ConnectionInterfaceContactsInterfaceC1ERKNS0_19ConnectionInterfaceEP7QObject@Base 0.9.1
 _ZN2Tp6Client36ConnectionInterfaceContactsInterfaceC2EPNS_9DBusProxyE@Base 0.9.1
 _ZN2Tp6Client36ConnectionInterfaceContactsInterfaceC2ERK15QDBusConnectionRK7QStringS7_P7QObject@Base 0.9.1
 _ZN2Tp6Client36ConnectionInterfaceContactsInterfaceC2ERK7QStringS4_P7QObject@Base 0.9.1
 _ZN2Tp6Client36ConnectionInterfaceContactsInterfaceC2ERKNS0_19ConnectionInterfaceE@Base 0.9.1
 _ZN2Tp6Client36ConnectionInterfaceContactsInterfaceC2ERKNS0_19ConnectionInterfaceEP7QObject@Base 0.9.1
 _ZN2Tp6Client36ConnectionInterfaceContactsInterfaceD0Ev@Base 0.9.1
 _ZN2Tp6Client36ConnectionInterfaceContactsInterfaceD1Ev@Base 0.9.1
 _ZN2Tp6Client36ConnectionInterfaceContactsInterfaceD2Ev@Base 0.9.1
 _ZN2Tp6Client36ConnectionInterfaceLocationInterface10invalidateEPNS_9DBusProxyERK7QStringS6_@Base 0.9.1
 _ZN2Tp6Client36ConnectionInterfaceLocationInterface11qt_metacallEN11QMetaObject4CallEiPPv@Base 0.9.1
 _ZN2Tp6Client36ConnectionInterfaceLocationInterface11qt_metacastEPKc@Base 0.9.1
 _ZN2Tp6Client36ConnectionInterfaceLocationInterface15LocationUpdatedEjRK4QMapI7QString8QVariantE@Base 0.9.1
 _ZN2Tp6Client36ConnectionInterfaceLocationInterface16staticMetaObjectE@Base 0.9.1
 _ZN2Tp6Client36ConnectionInterfaceLocationInterfaceC1EPNS_9DBusProxyE@Base 0.9.1
 _ZN2Tp6Client36ConnectionInterfaceLocationInterfaceC1ERK15QDBusConnectionRK7QStringS7_P7QObject@Base 0.9.1
 _ZN2Tp6Client36ConnectionInterfaceLocationInterfaceC1ERK7QStringS4_P7QObject@Base 0.9.1
 _ZN2Tp6Client36ConnectionInterfaceLocationInterfaceC1ERKNS0_19ConnectionInterfaceE@Base 0.9.1
 _ZN2Tp6Client36ConnectionInterfaceLocationInterfaceC1ERKNS0_19ConnectionInterfaceEP7QObject@Base 0.9.1
 _ZN2Tp6Client36ConnectionInterfaceLocationInterfaceC2EPNS_9DBusProxyE@Base 0.9.1
 _ZN2Tp6Client36ConnectionInterfaceLocationInterfaceC2ERK15QDBusConnectionRK7QStringS7_P7QObject@Base 0.9.1
 _ZN2Tp6Client36ConnectionInterfaceLocationInterfaceC2ERK7QStringS4_P7QObject@Base 0.9.1
 _ZN2Tp6Client36ConnectionInterfaceLocationInterfaceC2ERKNS0_19ConnectionInterfaceE@Base 0.9.1
 _ZN2Tp6Client36ConnectionInterfaceLocationInterfaceC2ERKNS0_19ConnectionInterfaceEP7QObject@Base 0.9.1
 _ZN2Tp6Client36ConnectionInterfaceLocationInterfaceD0Ev@Base 0.9.1
 _ZN2Tp6Client36ConnectionInterfaceLocationInterfaceD1Ev@Base 0.9.1
 _ZN2Tp6Client36ConnectionInterfaceLocationInterfaceD2Ev@Base 0.9.1
 _ZN2Tp6Client36ConnectionInterfacePresenceInterface10invalidateEPNS_9DBusProxyERK7QStringS6_@Base 0.9.1
 _ZN2Tp6Client36ConnectionInterfacePresenceInterface11qt_metacallEN11QMetaObject4CallEiPPv@Base 0.9.1
 _ZN2Tp6Client36ConnectionInterfacePresenceInterface11qt_metacastEPKc@Base 0.9.1
 _ZN2Tp6Client36ConnectionInterfacePresenceInterface14PresenceUpdateERKNS_16ContactPresencesE@Base 0.9.1
 _ZN2Tp6Client36ConnectionInterfacePresenceInterface16staticMetaObjectE@Base 0.9.1
 _ZN2Tp6Client36ConnectionInterfacePresenceInterfaceC1EPNS_9DBusProxyE@Base 0.9.1
 _ZN2Tp6Client36ConnectionInterfacePresenceInterfaceC1ERK15QDBusConnectionRK7QStringS7_P7QObject@Base 0.9.1
 _ZN2Tp6Client36ConnectionInterfacePresenceInterfaceC1ERK7QStringS4_P7QObject@Base 0.9.1
 _ZN2Tp6Client36ConnectionInterfacePresenceInterfaceC1ERKNS0_19ConnectionInterfaceE@Base 0.9.1
 _ZN2Tp6Client36ConnectionInterfacePresenceInterfaceC1ERKNS0_19ConnectionInterfaceEP7QObject@Base 0.9.1
 _ZN2Tp6Client36ConnectionInterfacePresenceInterfaceC2EPNS_9DBusProxyE@Base 0.9.1
 _ZN2Tp6Client36ConnectionInterfacePresenceInterfaceC2ERK15QDBusConnectionRK7QStringS7_P7QObject@Base 0.9.1
 _ZN2Tp6Client36ConnectionInterfacePresenceInterfaceC2ERK7QStringS4_P7QObject@Base 0.9.1
 _ZN2Tp6Client36ConnectionInterfacePresenceInterfaceC2ERKNS0_19ConnectionInterfaceE@Base 0.9.1
 _ZN2Tp6Client36ConnectionInterfacePresenceInterfaceC2ERKNS0_19ConnectionInterfaceEP7QObject@Base 0.9.1
 _ZN2Tp6Client36ConnectionInterfacePresenceInterfaceD0Ev@Base 0.9.1
 _ZN2Tp6Client36ConnectionInterfacePresenceInterfaceD1Ev@Base 0.9.1
 _ZN2Tp6Client36ConnectionInterfacePresenceInterfaceD2Ev@Base 0.9.1
 _ZN2Tp6Client36ConnectionInterfaceRequestsInterface10invalidateEPNS_9DBusProxyERK7QStringS6_@Base 0.9.1
 _ZN2Tp6Client36ConnectionInterfaceRequestsInterface11NewChannelsERK5QListINS_14ChannelDetailsEE@Base 0.9.1
 _ZN2Tp6Client36ConnectionInterfaceRequestsInterface11qt_metacallEN11QMetaObject4CallEiPPv@Base 0.9.1
 _ZN2Tp6Client36ConnectionInterfaceRequestsInterface11qt_metacastEPKc@Base 0.9.1
 _ZN2Tp6Client36ConnectionInterfaceRequestsInterface13ChannelClosedERK15QDBusObjectPath@Base 0.9.1
 _ZN2Tp6Client36ConnectionInterfaceRequestsInterface16staticMetaObjectE@Base 0.9.1
 _ZN2Tp6Client36ConnectionInterfaceRequestsInterfaceC1EPNS_9DBusProxyE@Base 0.9.1
 _ZN2Tp6Client36ConnectionInterfaceRequestsInterfaceC1ERK15QDBusConnectionRK7QStringS7_P7QObject@Base 0.9.1
 _ZN2Tp6Client36ConnectionInterfaceRequestsInterfaceC1ERK7QStringS4_P7QObject@Base 0.9.1
 _ZN2Tp6Client36ConnectionInterfaceRequestsInterfaceC1ERKNS0_19ConnectionInterfaceE@Base 0.9.1
 _ZN2Tp6Client36ConnectionInterfaceRequestsInterfaceC1ERKNS0_19ConnectionInterfaceEP7QObject@Base 0.9.1
 _ZN2Tp6Client36ConnectionInterfaceRequestsInterfaceC2EPNS_9DBusProxyE@Base 0.9.1
 _ZN2Tp6Client36ConnectionInterfaceRequestsInterfaceC2ERK15QDBusConnectionRK7QStringS7_P7QObject@Base 0.9.1
 _ZN2Tp6Client36ConnectionInterfaceRequestsInterfaceC2ERK7QStringS4_P7QObject@Base 0.9.1
 _ZN2Tp6Client36ConnectionInterfaceRequestsInterfaceC2ERKNS0_19ConnectionInterfaceE@Base 0.9.1
 _ZN2Tp6Client36ConnectionInterfaceRequestsInterfaceC2ERKNS0_19ConnectionInterfaceEP7QObject@Base 0.9.1
 _ZN2Tp6Client36ConnectionInterfaceRequestsInterfaceD0Ev@Base 0.9.1
 _ZN2Tp6Client36ConnectionInterfaceRequestsInterfaceD1Ev@Base 0.9.1
 _ZN2Tp6Client36ConnectionInterfaceRequestsInterfaceD2Ev@Base 0.9.1
 _ZN2Tp6Client36ProtocolInterfaceAddressingInterface10invalidateEPNS_9DBusProxyERK7QStringS6_@Base 0.9.1
 _ZN2Tp6Client36ProtocolInterfaceAddressingInterface11qt_metacallEN11QMetaObject4CallEiPPv@Base 0.9.1
 _ZN2Tp6Client36ProtocolInterfaceAddressingInterface11qt_metacastEPKc@Base 0.9.1
 _ZN2Tp6Client36ProtocolInterfaceAddressingInterface16staticMetaObjectE@Base 0.9.1
 _ZN2Tp6Client36ProtocolInterfaceAddressingInterfaceC1EPNS_9DBusProxyE@Base 0.9.1
 _ZN2Tp6Client36ProtocolInterfaceAddressingInterfaceC1ERK15QDBusConnectionRK7QStringS7_P7QObject@Base 0.9.1
 _ZN2Tp6Client36ProtocolInterfaceAddressingInterfaceC1ERK7QStringS4_P7QObject@Base 0.9.1
 _ZN2Tp6Client36ProtocolInterfaceAddressingInterfaceC1ERKNS0_26ConnectionManagerInterfaceE@Base 0.9.1
 _ZN2Tp6Client36ProtocolInterfaceAddressingInterfaceC1ERKNS0_26ConnectionManagerInterfaceEP7QObject@Base 0.9.1
 _ZN2Tp6Client36ProtocolInterfaceAddressingInterfaceC2EPNS_9DBusProxyE@Base 0.9.1
 _ZN2Tp6Client36ProtocolInterfaceAddressingInterfaceC2ERK15QDBusConnectionRK7QStringS7_P7QObject@Base 0.9.1
 _ZN2Tp6Client36ProtocolInterfaceAddressingInterfaceC2ERK7QStringS4_P7QObject@Base 0.9.1
 _ZN2Tp6Client36ProtocolInterfaceAddressingInterfaceC2ERKNS0_26ConnectionManagerInterfaceE@Base 0.9.1
 _ZN2Tp6Client36ProtocolInterfaceAddressingInterfaceC2ERKNS0_26ConnectionManagerInterfaceEP7QObject@Base 0.9.1
 _ZN2Tp6Client36ProtocolInterfaceAddressingInterfaceD0Ev@Base 0.9.1
 _ZN2Tp6Client36ProtocolInterfaceAddressingInterfaceD1Ev@Base 0.9.1
 _ZN2Tp6Client36ProtocolInterfaceAddressingInterfaceD2Ev@Base 0.9.1
 _ZN2Tp6Client37AuthenticationTLSCertificateInterface10invalidateEPNS_9DBusProxyERK7QStringS6_@Base 0.9.1
 _ZN2Tp6Client37AuthenticationTLSCertificateInterface11qt_metacallEN11QMetaObject4CallEiPPv@Base 0.9.1
 _ZN2Tp6Client37AuthenticationTLSCertificateInterface11qt_metacastEPKc@Base 0.9.1
 _ZN2Tp6Client37AuthenticationTLSCertificateInterface16staticMetaObjectE@Base 0.9.1
 _ZN2Tp6Client37AuthenticationTLSCertificateInterface8AcceptedEv@Base 0.9.1
 _ZN2Tp6Client37AuthenticationTLSCertificateInterface8RejectedERK5QListINS_23TLSCertificateRejectionEE@Base 0.9.1
 _ZN2Tp6Client37AuthenticationTLSCertificateInterfaceC1EPNS_9DBusProxyE@Base 0.9.1
 _ZN2Tp6Client37AuthenticationTLSCertificateInterfaceC1ERK15QDBusConnectionRK7QStringS7_P7QObject@Base 0.9.1
 _ZN2Tp6Client37AuthenticationTLSCertificateInterfaceC1ERK7QStringS4_P7QObject@Base 0.9.1
 _ZN2Tp6Client37AuthenticationTLSCertificateInterfaceC1ERKNS_17AbstractInterfaceE@Base 0.9.1
 _ZN2Tp6Client37AuthenticationTLSCertificateInterfaceC1ERKNS_17AbstractInterfaceEP7QObject@Base 0.9.1
 _ZN2Tp6Client37AuthenticationTLSCertificateInterfaceC2EPNS_9DBusProxyE@Base 0.9.1
 _ZN2Tp6Client37AuthenticationTLSCertificateInterfaceC2ERK15QDBusConnectionRK7QStringS7_P7QObject@Base 0.9.1
 _ZN2Tp6Client37AuthenticationTLSCertificateInterfaceC2ERK7QStringS4_P7QObject@Base 0.9.1
 _ZN2Tp6Client37AuthenticationTLSCertificateInterfaceC2ERKNS_17AbstractInterfaceE@Base 0.9.1
 _ZN2Tp6Client37AuthenticationTLSCertificateInterfaceC2ERKNS_17AbstractInterfaceEP7QObject@Base 0.9.1
 _ZN2Tp6Client37AuthenticationTLSCertificateInterfaceD0Ev@Base 0.9.1
 _ZN2Tp6Client37AuthenticationTLSCertificateInterfaceD1Ev@Base 0.9.1
 _ZN2Tp6Client37AuthenticationTLSCertificateInterfaceD2Ev@Base 0.9.1
 _ZN2Tp6Client37ChannelInterfaceServicePointInterface10invalidateEPNS_9DBusProxyERK7QStringS6_@Base 0.9.1
 _ZN2Tp6Client37ChannelInterfaceServicePointInterface11qt_metacallEN11QMetaObject4CallEiPPv@Base 0.9.1
 _ZN2Tp6Client37ChannelInterfaceServicePointInterface11qt_metacastEPKc@Base 0.9.1
 _ZN2Tp6Client37ChannelInterfaceServicePointInterface16staticMetaObjectE@Base 0.9.1
 _ZN2Tp6Client37ChannelInterfaceServicePointInterface19ServicePointChangedERKNS_12ServicePointE@Base 0.9.1
 _ZN2Tp6Client37ChannelInterfaceServicePointInterfaceC1EPNS_9DBusProxyE@Base 0.9.1
 _ZN2Tp6Client37ChannelInterfaceServicePointInterfaceC1ERK15QDBusConnectionRK7QStringS7_P7QObject@Base 0.9.1
 _ZN2Tp6Client37ChannelInterfaceServicePointInterfaceC1ERK7QStringS4_P7QObject@Base 0.9.1
 _ZN2Tp6Client37ChannelInterfaceServicePointInterfaceC1ERKNS0_16ChannelInterfaceE@Base 0.9.1
 _ZN2Tp6Client37ChannelInterfaceServicePointInterfaceC1ERKNS0_16ChannelInterfaceEP7QObject@Base 0.9.1
 _ZN2Tp6Client37ChannelInterfaceServicePointInterfaceC2EPNS_9DBusProxyE@Base 0.9.1
 _ZN2Tp6Client37ChannelInterfaceServicePointInterfaceC2ERK15QDBusConnectionRK7QStringS7_P7QObject@Base 0.9.1
 _ZN2Tp6Client37ChannelInterfaceServicePointInterfaceC2ERK7QStringS4_P7QObject@Base 0.9.1
 _ZN2Tp6Client37ChannelInterfaceServicePointInterfaceC2ERKNS0_16ChannelInterfaceE@Base 0.9.1
 _ZN2Tp6Client37ChannelInterfaceServicePointInterfaceC2ERKNS0_16ChannelInterfaceEP7QObject@Base 0.9.1
 _ZN2Tp6Client37ChannelInterfaceServicePointInterfaceD0Ev@Base 0.9.1
 _ZN2Tp6Client37ChannelInterfaceServicePointInterfaceD1Ev@Base 0.9.1
 _ZN2Tp6Client37ChannelInterfaceServicePointInterfaceD2Ev@Base 0.9.1
 _ZN2Tp6Client37ConnectionInterfaceAnonymityInterface10invalidateEPNS_9DBusProxyERK7QStringS6_@Base 0.9.1
 _ZN2Tp6Client37ConnectionInterfaceAnonymityInterface11qt_metacallEN11QMetaObject4CallEiPPv@Base 0.9.1
 _ZN2Tp6Client37ConnectionInterfaceAnonymityInterface11qt_metacastEPKc@Base 0.9.1
 _ZN2Tp6Client37ConnectionInterfaceAnonymityInterface16staticMetaObjectE@Base 0.9.1
 _ZN2Tp6Client37ConnectionInterfaceAnonymityInterface21AnonymityModesChangedEj@Base 0.9.1
 _ZN2Tp6Client37ConnectionInterfaceAnonymityInterfaceC1EPNS_9DBusProxyE@Base 0.9.1
 _ZN2Tp6Client37ConnectionInterfaceAnonymityInterfaceC1ERK15QDBusConnectionRK7QStringS7_P7QObject@Base 0.9.1
 _ZN2Tp6Client37ConnectionInterfaceAnonymityInterfaceC1ERK7QStringS4_P7QObject@Base 0.9.1
 _ZN2Tp6Client37ConnectionInterfaceAnonymityInterfaceC1ERKNS0_19ConnectionInterfaceE@Base 0.9.1
 _ZN2Tp6Client37ConnectionInterfaceAnonymityInterfaceC1ERKNS0_19ConnectionInterfaceEP7QObject@Base 0.9.1
 _ZN2Tp6Client37ConnectionInterfaceAnonymityInterfaceC2EPNS_9DBusProxyE@Base 0.9.1
 _ZN2Tp6Client37ConnectionInterfaceAnonymityInterfaceC2ERK15QDBusConnectionRK7QStringS7_P7QObject@Base 0.9.1
 _ZN2Tp6Client37ConnectionInterfaceAnonymityInterfaceC2ERK7QStringS4_P7QObject@Base 0.9.1
 _ZN2Tp6Client37ConnectionInterfaceAnonymityInterfaceC2ERKNS0_19ConnectionInterfaceE@Base 0.9.1
 _ZN2Tp6Client37ConnectionInterfaceAnonymityInterfaceC2ERKNS0_19ConnectionInterfaceEP7QObject@Base 0.9.1
 _ZN2Tp6Client37ConnectionInterfaceAnonymityInterfaceD0Ev@Base 0.9.1
 _ZN2Tp6Client37ConnectionInterfaceAnonymityInterfaceD1Ev@Base 0.9.1
 _ZN2Tp6Client37ConnectionInterfaceAnonymityInterfaceD2Ev@Base 0.9.1
 _ZN2Tp6Client38ConnectionInterfaceAddressingInterface10invalidateEPNS_9DBusProxyERK7QStringS6_@Base 0.9.1
 _ZN2Tp6Client38ConnectionInterfaceAddressingInterface11qt_metacallEN11QMetaObject4CallEiPPv@Base 0.9.1
 _ZN2Tp6Client38ConnectionInterfaceAddressingInterface11qt_metacastEPKc@Base 0.9.1
 _ZN2Tp6Client38ConnectionInterfaceAddressingInterface16staticMetaObjectE@Base 0.9.1
 _ZN2Tp6Client38ConnectionInterfaceAddressingInterfaceC1EPNS_9DBusProxyE@Base 0.9.1
 _ZN2Tp6Client38ConnectionInterfaceAddressingInterfaceC1ERK15QDBusConnectionRK7QStringS7_P7QObject@Base 0.9.1
 _ZN2Tp6Client38ConnectionInterfaceAddressingInterfaceC1ERK7QStringS4_P7QObject@Base 0.9.1
 _ZN2Tp6Client38ConnectionInterfaceAddressingInterfaceC1ERKNS0_19ConnectionInterfaceE@Base 0.9.1
 _ZN2Tp6Client38ConnectionInterfaceAddressingInterfaceC1ERKNS0_19ConnectionInterfaceEP7QObject@Base 0.9.1
 _ZN2Tp6Client38ConnectionInterfaceAddressingInterfaceC2EPNS_9DBusProxyE@Base 0.9.1
 _ZN2Tp6Client38ConnectionInterfaceAddressingInterfaceC2ERK15QDBusConnectionRK7QStringS7_P7QObject@Base 0.9.1
 _ZN2Tp6Client38ConnectionInterfaceAddressingInterfaceC2ERK7QStringS4_P7QObject@Base 0.9.1
 _ZN2Tp6Client38ConnectionInterfaceAddressingInterfaceC2ERKNS0_19ConnectionInterfaceE@Base 0.9.1
 _ZN2Tp6Client38ConnectionInterfaceAddressingInterfaceC2ERKNS0_19ConnectionInterfaceEP7QObject@Base 0.9.1
 _ZN2Tp6Client38ConnectionInterfaceAddressingInterfaceD0Ev@Base 0.9.1
 _ZN2Tp6Client38ConnectionInterfaceAddressingInterfaceD1Ev@Base 0.9.1
 _ZN2Tp6Client38ConnectionInterfaceAddressingInterfaceD2Ev@Base 0.9.1
 _ZN2Tp6Client39ChannelTypeServerTLSConnectionInterface10invalidateEPNS_9DBusProxyERK7QStringS6_@Base 0.9.1
 _ZN2Tp6Client39ChannelTypeServerTLSConnectionInterface11qt_metacallEN11QMetaObject4CallEiPPv@Base 0.9.1
 _ZN2Tp6Client39ChannelTypeServerTLSConnectionInterface11qt_metacastEPKc@Base 0.9.1
 _ZN2Tp6Client39ChannelTypeServerTLSConnectionInterface16staticMetaObjectE@Base 0.9.1
 _ZN2Tp6Client39ChannelTypeServerTLSConnectionInterfaceC1EPNS_9DBusProxyE@Base 0.9.1
 _ZN2Tp6Client39ChannelTypeServerTLSConnectionInterfaceC1ERK15QDBusConnectionRK7QStringS7_P7QObject@Base 0.9.1
 _ZN2Tp6Client39ChannelTypeServerTLSConnectionInterfaceC1ERK7QStringS4_P7QObject@Base 0.9.1
 _ZN2Tp6Client39ChannelTypeServerTLSConnectionInterfaceC1ERKNS0_16ChannelInterfaceE@Base 0.9.1
 _ZN2Tp6Client39ChannelTypeServerTLSConnectionInterfaceC1ERKNS0_16ChannelInterfaceEP7QObject@Base 0.9.1
 _ZN2Tp6Client39ChannelTypeServerTLSConnectionInterfaceC2EPNS_9DBusProxyE@Base 0.9.1
 _ZN2Tp6Client39ChannelTypeServerTLSConnectionInterfaceC2ERK15QDBusConnectionRK7QStringS7_P7QObject@Base 0.9.1
 _ZN2Tp6Client39ChannelTypeServerTLSConnectionInterfaceC2ERK7QStringS4_P7QObject@Base 0.9.1
 _ZN2Tp6Client39ChannelTypeServerTLSConnectionInterfaceC2ERKNS0_16ChannelInterfaceE@Base 0.9.1
 _ZN2Tp6Client39ChannelTypeServerTLSConnectionInterfaceC2ERKNS0_16ChannelInterfaceEP7QObject@Base 0.9.1
 _ZN2Tp6Client39ChannelTypeServerTLSConnectionInterfaceD0Ev@Base 0.9.1
 _ZN2Tp6Client39ChannelTypeServerTLSConnectionInterfaceD1Ev@Base 0.9.1
 _ZN2Tp6Client39ChannelTypeServerTLSConnectionInterfaceD2Ev@Base 0.9.1
 _ZN2Tp6Client39ConnectionInterfaceClientTypesInterface10invalidateEPNS_9DBusProxyERK7QStringS6_@Base 0.9.1
 _ZN2Tp6Client39ConnectionInterfaceClientTypesInterface11qt_metacallEN11QMetaObject4CallEiPPv@Base 0.9.1
 _ZN2Tp6Client39ConnectionInterfaceClientTypesInterface11qt_metacastEPKc@Base 0.9.1
 _ZN2Tp6Client39ConnectionInterfaceClientTypesInterface16staticMetaObjectE@Base 0.9.1
 _ZN2Tp6Client39ConnectionInterfaceClientTypesInterface18ClientTypesUpdatedEjRK11QStringList@Base 0.9.1
 _ZN2Tp6Client39ConnectionInterfaceClientTypesInterfaceC1EPNS_9DBusProxyE@Base 0.9.1
 _ZN2Tp6Client39ConnectionInterfaceClientTypesInterfaceC1ERK15QDBusConnectionRK7QStringS7_P7QObject@Base 0.9.1
 _ZN2Tp6Client39ConnectionInterfaceClientTypesInterfaceC1ERK7QStringS4_P7QObject@Base 0.9.1
 _ZN2Tp6Client39ConnectionInterfaceClientTypesInterfaceC1ERKNS0_19ConnectionInterfaceE@Base 0.9.1
 _ZN2Tp6Client39ConnectionInterfaceClientTypesInterfaceC1ERKNS0_19ConnectionInterfaceEP7QObject@Base 0.9.1
 _ZN2Tp6Client39ConnectionInterfaceClientTypesInterfaceC2EPNS_9DBusProxyE@Base 0.9.1
 _ZN2Tp6Client39ConnectionInterfaceClientTypesInterfaceC2ERK15QDBusConnectionRK7QStringS7_P7QObject@Base 0.9.1
 _ZN2Tp6Client39ConnectionInterfaceClientTypesInterfaceC2ERK7QStringS4_P7QObject@Base 0.9.1
 _ZN2Tp6Client39ConnectionInterfaceClientTypesInterfaceC2ERKNS0_19ConnectionInterfaceE@Base 0.9.1
 _ZN2Tp6Client39ConnectionInterfaceClientTypesInterfaceC2ERKNS0_19ConnectionInterfaceEP7QObject@Base 0.9.1
 _ZN2Tp6Client39ConnectionInterfaceClientTypesInterfaceD0Ev@Base 0.9.1
 _ZN2Tp6Client39ConnectionInterfaceClientTypesInterfaceD1Ev@Base 0.9.1
 _ZN2Tp6Client39ConnectionInterfaceClientTypesInterfaceD2Ev@Base 0.9.1
 _ZN2Tp6Client39ConnectionInterfaceContactInfoInterface10invalidateEPNS_9DBusProxyERK7QStringS6_@Base 0.9.1
 _ZN2Tp6Client39ConnectionInterfaceContactInfoInterface11qt_metacallEN11QMetaObject4CallEiPPv@Base 0.9.1
 _ZN2Tp6Client39ConnectionInterfaceContactInfoInterface11qt_metacastEPKc@Base 0.9.1
 _ZN2Tp6Client39ConnectionInterfaceContactInfoInterface16staticMetaObjectE@Base 0.9.1
 _ZN2Tp6Client39ConnectionInterfaceContactInfoInterface18ContactInfoChangedEjRK5QListINS_16ContactInfoFieldEE@Base 0.9.1
 _ZN2Tp6Client39ConnectionInterfaceContactInfoInterfaceC1EPNS_9DBusProxyE@Base 0.9.1
 _ZN2Tp6Client39ConnectionInterfaceContactInfoInterfaceC1ERK15QDBusConnectionRK7QStringS7_P7QObject@Base 0.9.1
 _ZN2Tp6Client39ConnectionInterfaceContactInfoInterfaceC1ERK7QStringS4_P7QObject@Base 0.9.1
 _ZN2Tp6Client39ConnectionInterfaceContactInfoInterfaceC1ERKNS0_19ConnectionInterfaceE@Base 0.9.1
 _ZN2Tp6Client39ConnectionInterfaceContactInfoInterfaceC1ERKNS0_19ConnectionInterfaceEP7QObject@Base 0.9.1
 _ZN2Tp6Client39ConnectionInterfaceContactInfoInterfaceC2EPNS_9DBusProxyE@Base 0.9.1
 _ZN2Tp6Client39ConnectionInterfaceContactInfoInterfaceC2ERK15QDBusConnectionRK7QStringS7_P7QObject@Base 0.9.1
 _ZN2Tp6Client39ConnectionInterfaceContactInfoInterfaceC2ERK7QStringS4_P7QObject@Base 0.9.1
 _ZN2Tp6Client39ConnectionInterfaceContactInfoInterfaceC2ERKNS0_19ConnectionInterfaceE@Base 0.9.1
 _ZN2Tp6Client39ConnectionInterfaceContactInfoInterfaceC2ERKNS0_19ConnectionInterfaceEP7QObject@Base 0.9.1
 _ZN2Tp6Client39ConnectionInterfaceContactInfoInterfaceD0Ev@Base 0.9.1
 _ZN2Tp6Client39ConnectionInterfaceContactInfoInterfaceD1Ev@Base 0.9.1
 _ZN2Tp6Client39ConnectionInterfaceContactInfoInterfaceD2Ev@Base 0.9.1
 _ZN2Tp6Client39ConnectionInterfaceContactListInterface10invalidateEPNS_9DBusProxyERK7QStringS6_@Base 0.9.1
 _ZN2Tp6Client39ConnectionInterfaceContactListInterface11qt_metacallEN11QMetaObject4CallEiPPv@Base 0.9.1
 _ZN2Tp6Client39ConnectionInterfaceContactListInterface11qt_metacastEPKc@Base 0.9.1
 _ZN2Tp6Client39ConnectionInterfaceContactListInterface15ContactsChangedERKNS_22ContactSubscriptionMapERKNS_8UIntListE@Base 0.9.1
 _ZN2Tp6Client39ConnectionInterfaceContactListInterface16staticMetaObjectE@Base 0.9.1
 _ZN2Tp6Client39ConnectionInterfaceContactListInterface21ContactsChangedWithIDERKNS_22ContactSubscriptionMapERKNS_19HandleIdentifierMapES7_@Base 0.9.1
 _ZN2Tp6Client39ConnectionInterfaceContactListInterface23ContactListStateChangedEj@Base 0.9.1
 _ZN2Tp6Client39ConnectionInterfaceContactListInterfaceC1EPNS_9DBusProxyE@Base 0.9.1
 _ZN2Tp6Client39ConnectionInterfaceContactListInterfaceC1ERK15QDBusConnectionRK7QStringS7_P7QObject@Base 0.9.1
 _ZN2Tp6Client39ConnectionInterfaceContactListInterfaceC1ERK7QStringS4_P7QObject@Base 0.9.1
 _ZN2Tp6Client39ConnectionInterfaceContactListInterfaceC1ERKNS0_19ConnectionInterfaceE@Base 0.9.1
 _ZN2Tp6Client39ConnectionInterfaceContactListInterfaceC1ERKNS0_19ConnectionInterfaceEP7QObject@Base 0.9.1
 _ZN2Tp6Client39ConnectionInterfaceContactListInterfaceC2EPNS_9DBusProxyE@Base 0.9.1
 _ZN2Tp6Client39ConnectionInterfaceContactListInterfaceC2ERK15QDBusConnectionRK7QStringS7_P7QObject@Base 0.9.1
 _ZN2Tp6Client39ConnectionInterfaceContactListInterfaceC2ERK7QStringS4_P7QObject@Base 0.9.1
 _ZN2Tp6Client39ConnectionInterfaceContactListInterfaceC2ERKNS0_19ConnectionInterfaceE@Base 0.9.1
 _ZN2Tp6Client39ConnectionInterfaceContactListInterfaceC2ERKNS0_19ConnectionInterfaceEP7QObject@Base 0.9.1
 _ZN2Tp6Client39ConnectionInterfaceContactListInterfaceD0Ev@Base 0.9.1
 _ZN2Tp6Client39ConnectionInterfaceContactListInterfaceD1Ev@Base 0.9.1
 _ZN2Tp6Client39ConnectionInterfaceContactListInterfaceD2Ev@Base 0.9.1
 _ZN2Tp6Client39ConnectionInterfacePowerSavingInterface10invalidateEPNS_9DBusProxyERK7QStringS6_@Base 0.9.1
 _ZN2Tp6Client39ConnectionInterfacePowerSavingInterface11qt_metacallEN11QMetaObject4CallEiPPv@Base 0.9.1
 _ZN2Tp6Client39ConnectionInterfacePowerSavingInterface11qt_metacastEPKc@Base 0.9.1
 _ZN2Tp6Client39ConnectionInterfacePowerSavingInterface16staticMetaObjectE@Base 0.9.1
 _ZN2Tp6Client39ConnectionInterfacePowerSavingInterface18PowerSavingChangedEb@Base 0.9.1
 _ZN2Tp6Client39ConnectionInterfacePowerSavingInterfaceC1EPNS_9DBusProxyE@Base 0.9.1
 _ZN2Tp6Client39ConnectionInterfacePowerSavingInterfaceC1ERK15QDBusConnectionRK7QStringS7_P7QObject@Base 0.9.1
 _ZN2Tp6Client39ConnectionInterfacePowerSavingInterfaceC1ERK7QStringS4_P7QObject@Base 0.9.1
 _ZN2Tp6Client39ConnectionInterfacePowerSavingInterfaceC1ERKNS0_19ConnectionInterfaceE@Base 0.9.1
 _ZN2Tp6Client39ConnectionInterfacePowerSavingInterfaceC1ERKNS0_19ConnectionInterfaceEP7QObject@Base 0.9.1
 _ZN2Tp6Client39ConnectionInterfacePowerSavingInterfaceC2EPNS_9DBusProxyE@Base 0.9.1
 _ZN2Tp6Client39ConnectionInterfacePowerSavingInterfaceC2ERK15QDBusConnectionRK7QStringS7_P7QObject@Base 0.9.1
 _ZN2Tp6Client39ConnectionInterfacePowerSavingInterfaceC2ERK7QStringS4_P7QObject@Base 0.9.1
 _ZN2Tp6Client39ConnectionInterfacePowerSavingInterfaceC2ERKNS0_19ConnectionInterfaceE@Base 0.9.1
 _ZN2Tp6Client39ConnectionInterfacePowerSavingInterfaceC2ERKNS0_19ConnectionInterfaceEP7QObject@Base 0.9.1
 _ZN2Tp6Client39ConnectionInterfacePowerSavingInterfaceD0Ev@Base 0.9.1
 _ZN2Tp6Client39ConnectionInterfacePowerSavingInterfaceD1Ev@Base 0.9.1
 _ZN2Tp6Client39ConnectionInterfacePowerSavingInterfaceD2Ev@Base 0.9.1
 _ZN2Tp6Client40ChannelInterfaceMediaSignallingInterface10invalidateEPNS_9DBusProxyERK7QStringS6_@Base 0.9.1
 _ZN2Tp6Client40ChannelInterfaceMediaSignallingInterface11qt_metacallEN11QMetaObject4CallEiPPv@Base 0.9.1
 _ZN2Tp6Client40ChannelInterfaceMediaSignallingInterface11qt_metacastEPKc@Base 0.9.1
 _ZN2Tp6Client40ChannelInterfaceMediaSignallingInterface16staticMetaObjectE@Base 0.9.1
 _ZN2Tp6Client40ChannelInterfaceMediaSignallingInterface17NewSessionHandlerERK15QDBusObjectPathRK7QString@Base 0.9.1
 _ZN2Tp6Client40ChannelInterfaceMediaSignallingInterfaceC1EPNS_9DBusProxyE@Base 0.9.1
 _ZN2Tp6Client40ChannelInterfaceMediaSignallingInterfaceC1ERK15QDBusConnectionRK7QStringS7_P7QObject@Base 0.9.1
 _ZN2Tp6Client40ChannelInterfaceMediaSignallingInterfaceC1ERK7QStringS4_P7QObject@Base 0.9.1
 _ZN2Tp6Client40ChannelInterfaceMediaSignallingInterfaceC1ERKNS0_16ChannelInterfaceE@Base 0.9.1
 _ZN2Tp6Client40ChannelInterfaceMediaSignallingInterfaceC1ERKNS0_16ChannelInterfaceEP7QObject@Base 0.9.1
 _ZN2Tp6Client40ChannelInterfaceMediaSignallingInterfaceC2EPNS_9DBusProxyE@Base 0.9.1
 _ZN2Tp6Client40ChannelInterfaceMediaSignallingInterfaceC2ERK15QDBusConnectionRK7QStringS7_P7QObject@Base 0.9.1
 _ZN2Tp6Client40ChannelInterfaceMediaSignallingInterfaceC2ERK7QStringS4_P7QObject@Base 0.9.1
 _ZN2Tp6Client40ChannelInterfaceMediaSignallingInterfaceC2ERKNS0_16ChannelInterfaceE@Base 0.9.1
 _ZN2Tp6Client40ChannelInterfaceMediaSignallingInterfaceC2ERKNS0_16ChannelInterfaceEP7QObject@Base 0.9.1
 _ZN2Tp6Client40ChannelInterfaceMediaSignallingInterfaceD0Ev@Base 0.9.1
 _ZN2Tp6Client40ChannelInterfaceMediaSignallingInterfaceD1Ev@Base 0.9.1
 _ZN2Tp6Client40ChannelInterfaceMediaSignallingInterfaceD2Ev@Base 0.9.1
 _ZN2Tp6Client40ChannelTypeServerAuthenticationInterface10invalidateEPNS_9DBusProxyERK7QStringS6_@Base 0.9.1
 _ZN2Tp6Client40ChannelTypeServerAuthenticationInterface11qt_metacallEN11QMetaObject4CallEiPPv@Base 0.9.1
 _ZN2Tp6Client40ChannelTypeServerAuthenticationInterface11qt_metacastEPKc@Base 0.9.1
 _ZN2Tp6Client40ChannelTypeServerAuthenticationInterface16staticMetaObjectE@Base 0.9.1
 _ZN2Tp6Client40ChannelTypeServerAuthenticationInterfaceC1EPNS_9DBusProxyE@Base 0.9.1
 _ZN2Tp6Client40ChannelTypeServerAuthenticationInterfaceC1ERK15QDBusConnectionRK7QStringS7_P7QObject@Base 0.9.1
 _ZN2Tp6Client40ChannelTypeServerAuthenticationInterfaceC1ERK7QStringS4_P7QObject@Base 0.9.1
 _ZN2Tp6Client40ChannelTypeServerAuthenticationInterfaceC1ERKNS0_16ChannelInterfaceE@Base 0.9.1
 _ZN2Tp6Client40ChannelTypeServerAuthenticationInterfaceC1ERKNS0_16ChannelInterfaceEP7QObject@Base 0.9.1
 _ZN2Tp6Client40ChannelTypeServerAuthenticationInterfaceC2EPNS_9DBusProxyE@Base 0.9.1
 _ZN2Tp6Client40ChannelTypeServerAuthenticationInterfaceC2ERK15QDBusConnectionRK7QStringS7_P7QObject@Base 0.9.1
 _ZN2Tp6Client40ChannelTypeServerAuthenticationInterfaceC2ERK7QStringS4_P7QObject@Base 0.9.1
 _ZN2Tp6Client40ChannelTypeServerAuthenticationInterfaceC2ERKNS0_16ChannelInterfaceE@Base 0.9.1
 _ZN2Tp6Client40ChannelTypeServerAuthenticationInterfaceC2ERKNS0_16ChannelInterfaceEP7QObject@Base 0.9.1
 _ZN2Tp6Client40ChannelTypeServerAuthenticationInterfaceD0Ev@Base 0.9.1
 _ZN2Tp6Client40ChannelTypeServerAuthenticationInterfaceD1Ev@Base 0.9.1
 _ZN2Tp6Client40ChannelTypeServerAuthenticationInterfaceD2Ev@Base 0.9.1
 _ZN2Tp6Client40ConnectionInterfaceCapabilitiesInterface10invalidateEPNS_9DBusProxyERK7QStringS6_@Base 0.9.1
 _ZN2Tp6Client40ConnectionInterfaceCapabilitiesInterface11qt_metacallEN11QMetaObject4CallEiPPv@Base 0.9.1
 _ZN2Tp6Client40ConnectionInterfaceCapabilitiesInterface11qt_metacastEPKc@Base 0.9.1
 _ZN2Tp6Client40ConnectionInterfaceCapabilitiesInterface16staticMetaObjectE@Base 0.9.1
 _ZN2Tp6Client40ConnectionInterfaceCapabilitiesInterface19CapabilitiesChangedERK5QListINS_16CapabilityChangeEE@Base 0.9.1
 _ZN2Tp6Client40ConnectionInterfaceCapabilitiesInterfaceC1EPNS_9DBusProxyE@Base 0.9.1
 _ZN2Tp6Client40ConnectionInterfaceCapabilitiesInterfaceC1ERK15QDBusConnectionRK7QStringS7_P7QObject@Base 0.9.1
 _ZN2Tp6Client40ConnectionInterfaceCapabilitiesInterfaceC1ERK7QStringS4_P7QObject@Base 0.9.1
 _ZN2Tp6Client40ConnectionInterfaceCapabilitiesInterfaceC1ERKNS0_19ConnectionInterfaceE@Base 0.9.1
 _ZN2Tp6Client40ConnectionInterfaceCapabilitiesInterfaceC1ERKNS0_19ConnectionInterfaceEP7QObject@Base 0.9.1
 _ZN2Tp6Client40ConnectionInterfaceCapabilitiesInterfaceC2EPNS_9DBusProxyE@Base 0.9.1
 _ZN2Tp6Client40ConnectionInterfaceCapabilitiesInterfaceC2ERK15QDBusConnectionRK7QStringS7_P7QObject@Base 0.9.1
 _ZN2Tp6Client40ConnectionInterfaceCapabilitiesInterfaceC2ERK7QStringS4_P7QObject@Base 0.9.1
 _ZN2Tp6Client40ConnectionInterfaceCapabilitiesInterfaceC2ERKNS0_19ConnectionInterfaceE@Base 0.9.1
 _ZN2Tp6Client40ConnectionInterfaceCapabilitiesInterfaceC2ERKNS0_19ConnectionInterfaceEP7QObject@Base 0.9.1
 _ZN2Tp6Client40ConnectionInterfaceCapabilitiesInterfaceD0Ev@Base 0.9.1
 _ZN2Tp6Client40ConnectionInterfaceCapabilitiesInterfaceD1Ev@Base 0.9.1
 _ZN2Tp6Client40ConnectionInterfaceCapabilitiesInterfaceD2Ev@Base 0.9.1
 _ZN2Tp6Client40ConnectionInterfaceServicePointInterface10invalidateEPNS_9DBusProxyERK7QStringS6_@Base 0.9.1
 _ZN2Tp6Client40ConnectionInterfaceServicePointInterface11qt_metacallEN11QMetaObject4CallEiPPv@Base 0.9.1
 _ZN2Tp6Client40ConnectionInterfaceServicePointInterface11qt_metacastEPKc@Base 0.9.1
 _ZN2Tp6Client40ConnectionInterfaceServicePointInterface16staticMetaObjectE@Base 0.9.1
 _ZN2Tp6Client40ConnectionInterfaceServicePointInterface20ServicePointsChangedERK5QListINS_16ServicePointInfoEE@Base 0.9.1
 _ZN2Tp6Client40ConnectionInterfaceServicePointInterfaceC1EPNS_9DBusProxyE@Base 0.9.1
 _ZN2Tp6Client40ConnectionInterfaceServicePointInterfaceC1ERK15QDBusConnectionRK7QStringS7_P7QObject@Base 0.9.1
 _ZN2Tp6Client40ConnectionInterfaceServicePointInterfaceC1ERK7QStringS4_P7QObject@Base 0.9.1
 _ZN2Tp6Client40ConnectionInterfaceServicePointInterfaceC1ERKNS0_19ConnectionInterfaceE@Base 0.9.1
 _ZN2Tp6Client40ConnectionInterfaceServicePointInterfaceC1ERKNS0_19ConnectionInterfaceEP7QObject@Base 0.9.1
 _ZN2Tp6Client40ConnectionInterfaceServicePointInterfaceC2EPNS_9DBusProxyE@Base 0.9.1
 _ZN2Tp6Client40ConnectionInterfaceServicePointInterfaceC2ERK15QDBusConnectionRK7QStringS7_P7QObject@Base 0.9.1
 _ZN2Tp6Client40ConnectionInterfaceServicePointInterfaceC2ERK7QStringS4_P7QObject@Base 0.9.1
 _ZN2Tp6Client40ConnectionInterfaceServicePointInterfaceC2ERKNS0_19ConnectionInterfaceE@Base 0.9.1
 _ZN2Tp6Client40ConnectionInterfaceServicePointInterfaceC2ERKNS0_19ConnectionInterfaceEP7QObject@Base 0.9.1
 _ZN2Tp6Client40ConnectionInterfaceServicePointInterfaceD0Ev@Base 0.9.1
 _ZN2Tp6Client40ConnectionInterfaceServicePointInterfaceD1Ev@Base 0.9.1
 _ZN2Tp6Client40ConnectionInterfaceServicePointInterfaceD2Ev@Base 0.9.1
 _ZN2Tp6Client41CallContentInterfaceAudioControlInterface10invalidateEPNS_9DBusProxyERK7QStringS6_@Base 0.9.1
 _ZN2Tp6Client41CallContentInterfaceAudioControlInterface11qt_metacallEN11QMetaObject4CallEiPPv@Base 0.9.1
 _ZN2Tp6Client41CallContentInterfaceAudioControlInterface11qt_metacastEPKc@Base 0.9.1
 _ZN2Tp6Client41CallContentInterfaceAudioControlInterface16staticMetaObjectE@Base 0.9.1
 _ZN2Tp6Client41CallContentInterfaceAudioControlInterfaceC1EPNS_9DBusProxyE@Base 0.9.1
 _ZN2Tp6Client41CallContentInterfaceAudioControlInterfaceC1ERK15QDBusConnectionRK7QStringS7_P7QObject@Base 0.9.1
 _ZN2Tp6Client41CallContentInterfaceAudioControlInterfaceC1ERK7QStringS4_P7QObject@Base 0.9.1
 _ZN2Tp6Client41CallContentInterfaceAudioControlInterfaceC1ERKNS0_20CallContentInterfaceE@Base 0.9.1
 _ZN2Tp6Client41CallContentInterfaceAudioControlInterfaceC1ERKNS0_20CallContentInterfaceEP7QObject@Base 0.9.1
 _ZN2Tp6Client41CallContentInterfaceAudioControlInterfaceC2EPNS_9DBusProxyE@Base 0.9.1
 _ZN2Tp6Client41CallContentInterfaceAudioControlInterfaceC2ERK15QDBusConnectionRK7QStringS7_P7QObject@Base 0.9.1
 _ZN2Tp6Client41CallContentInterfaceAudioControlInterfaceC2ERK7QStringS4_P7QObject@Base 0.9.1
 _ZN2Tp6Client41CallContentInterfaceAudioControlInterfaceC2ERKNS0_20CallContentInterfaceE@Base 0.9.1
 _ZN2Tp6Client41CallContentInterfaceAudioControlInterfaceC2ERKNS0_20CallContentInterfaceEP7QObject@Base 0.9.1
 _ZN2Tp6Client41CallContentInterfaceAudioControlInterfaceD0Ev@Base 0.9.1
 _ZN2Tp6Client41CallContentInterfaceAudioControlInterfaceD1Ev@Base 0.9.1
 _ZN2Tp6Client41CallContentInterfaceAudioControlInterfaceD2Ev@Base 0.9.1
 _ZN2Tp6Client41CallContentInterfaceVideoControlInterface10MTUChangedEj@Base 0.9.1
 _ZN2Tp6Client41CallContentInterfaceVideoControlInterface10invalidateEPNS_9DBusProxyERK7QStringS6_@Base 0.9.1
 _ZN2Tp6Client41CallContentInterfaceVideoControlInterface11qt_metacallEN11QMetaObject4CallEiPPv@Base 0.9.1
 _ZN2Tp6Client41CallContentInterfaceVideoControlInterface11qt_metacastEPKc@Base 0.9.1
 _ZN2Tp6Client41CallContentInterfaceVideoControlInterface14BitrateChangedEj@Base 0.9.1
 _ZN2Tp6Client41CallContentInterfaceVideoControlInterface16FramerateChangedEj@Base 0.9.1
 _ZN2Tp6Client41CallContentInterfaceVideoControlInterface16staticMetaObjectE@Base 0.9.1
 _ZN2Tp6Client41CallContentInterfaceVideoControlInterface17KeyFrameRequestedEv@Base 0.9.1
 _ZN2Tp6Client41CallContentInterfaceVideoControlInterface22VideoResolutionChangedERKNS_15VideoResolutionE@Base 0.9.1
 _ZN2Tp6Client41CallContentInterfaceVideoControlInterfaceC1EPNS_9DBusProxyE@Base 0.9.1
 _ZN2Tp6Client41CallContentInterfaceVideoControlInterfaceC1ERK15QDBusConnectionRK7QStringS7_P7QObject@Base 0.9.1
 _ZN2Tp6Client41CallContentInterfaceVideoControlInterfaceC1ERK7QStringS4_P7QObject@Base 0.9.1
 _ZN2Tp6Client41CallContentInterfaceVideoControlInterfaceC1ERKNS0_20CallContentInterfaceE@Base 0.9.1
 _ZN2Tp6Client41CallContentInterfaceVideoControlInterfaceC1ERKNS0_20CallContentInterfaceEP7QObject@Base 0.9.1
 _ZN2Tp6Client41CallContentInterfaceVideoControlInterfaceC2EPNS_9DBusProxyE@Base 0.9.1
 _ZN2Tp6Client41CallContentInterfaceVideoControlInterfaceC2ERK15QDBusConnectionRK7QStringS7_P7QObject@Base 0.9.1
 _ZN2Tp6Client41CallContentInterfaceVideoControlInterfaceC2ERK7QStringS4_P7QObject@Base 0.9.1
 _ZN2Tp6Client41CallContentInterfaceVideoControlInterfaceC2ERKNS0_20CallContentInterfaceE@Base 0.9.1
 _ZN2Tp6Client41CallContentInterfaceVideoControlInterfaceC2ERKNS0_20CallContentInterfaceEP7QObject@Base 0.9.1
 _ZN2Tp6Client41CallContentInterfaceVideoControlInterfaceD0Ev@Base 0.9.1
 _ZN2Tp6Client41CallContentInterfaceVideoControlInterfaceD1Ev@Base 0.9.1
 _ZN2Tp6Client41CallContentInterfaceVideoControlInterfaceD2Ev@Base 0.9.1
 _ZN2Tp6Client41ConnectionInterfaceContactGroupsInterface10invalidateEPNS_9DBusProxyERK7QStringS6_@Base 0.9.1
 _ZN2Tp6Client41ConnectionInterfaceContactGroupsInterface11qt_metacallEN11QMetaObject4CallEiPPv@Base 0.9.1
 _ZN2Tp6Client41ConnectionInterfaceContactGroupsInterface11qt_metacastEPKc@Base 0.9.1
 _ZN2Tp6Client41ConnectionInterfaceContactGroupsInterface12GroupRenamedERK7QStringS4_@Base 0.9.1
 _ZN2Tp6Client41ConnectionInterfaceContactGroupsInterface13GroupsChangedERKNS_8UIntListERK11QStringListS7_@Base 0.9.1
 _ZN2Tp6Client41ConnectionInterfaceContactGroupsInterface13GroupsCreatedERK11QStringList@Base 0.9.1
 _ZN2Tp6Client41ConnectionInterfaceContactGroupsInterface13GroupsRemovedERK11QStringList@Base 0.9.1
 _ZN2Tp6Client41ConnectionInterfaceContactGroupsInterface16staticMetaObjectE@Base 0.9.1
 _ZN2Tp6Client41ConnectionInterfaceContactGroupsInterfaceC1EPNS_9DBusProxyE@Base 0.9.1
 _ZN2Tp6Client41ConnectionInterfaceContactGroupsInterfaceC1ERK15QDBusConnectionRK7QStringS7_P7QObject@Base 0.9.1
 _ZN2Tp6Client41ConnectionInterfaceContactGroupsInterfaceC1ERK7QStringS4_P7QObject@Base 0.9.1
 _ZN2Tp6Client41ConnectionInterfaceContactGroupsInterfaceC1ERKNS0_19ConnectionInterfaceE@Base 0.9.1
 _ZN2Tp6Client41ConnectionInterfaceContactGroupsInterfaceC1ERKNS0_19ConnectionInterfaceEP7QObject@Base 0.9.1
 _ZN2Tp6Client41ConnectionInterfaceContactGroupsInterfaceC2EPNS_9DBusProxyE@Base 0.9.1
 _ZN2Tp6Client41ConnectionInterfaceContactGroupsInterfaceC2ERK15QDBusConnectionRK7QStringS7_P7QObject@Base 0.9.1
 _ZN2Tp6Client41ConnectionInterfaceContactGroupsInterfaceC2ERK7QStringS4_P7QObject@Base 0.9.1
 _ZN2Tp6Client41ConnectionInterfaceContactGroupsInterfaceC2ERKNS0_19ConnectionInterfaceE@Base 0.9.1
 _ZN2Tp6Client41ConnectionInterfaceContactGroupsInterfaceC2ERKNS0_19ConnectionInterfaceEP7QObject@Base 0.9.1
 _ZN2Tp6Client41ConnectionInterfaceContactGroupsInterfaceD0Ev@Base 0.9.1
 _ZN2Tp6Client41ConnectionInterfaceContactGroupsInterfaceD1Ev@Base 0.9.1
 _ZN2Tp6Client41ConnectionInterfaceContactGroupsInterfaceD2Ev@Base 0.9.1
 _ZN2Tp6Client42ConnectionInterfaceSimplePresenceInterface10invalidateEPNS_9DBusProxyERK7QStringS6_@Base 0.9.1
 _ZN2Tp6Client42ConnectionInterfaceSimplePresenceInterface11qt_metacallEN11QMetaObject4CallEiPPv@Base 0.9.1
 _ZN2Tp6Client42ConnectionInterfaceSimplePresenceInterface11qt_metacastEPKc@Base 0.9.1
 _ZN2Tp6Client42ConnectionInterfaceSimplePresenceInterface16PresencesChangedERKNS_22SimpleContactPresencesE@Base 0.9.1
 _ZN2Tp6Client42ConnectionInterfaceSimplePresenceInterface16staticMetaObjectE@Base 0.9.1
 _ZN2Tp6Client42ConnectionInterfaceSimplePresenceInterfaceC1EPNS_9DBusProxyE@Base 0.9.1
 _ZN2Tp6Client42ConnectionInterfaceSimplePresenceInterfaceC1ERK15QDBusConnectionRK7QStringS7_P7QObject@Base 0.9.1
 _ZN2Tp6Client42ConnectionInterfaceSimplePresenceInterfaceC1ERK7QStringS4_P7QObject@Base 0.9.1
 _ZN2Tp6Client42ConnectionInterfaceSimplePresenceInterfaceC1ERKNS0_19ConnectionInterfaceE@Base 0.9.1
 _ZN2Tp6Client42ConnectionInterfaceSimplePresenceInterfaceC1ERKNS0_19ConnectionInterfaceEP7QObject@Base 0.9.1
 _ZN2Tp6Client42ConnectionInterfaceSimplePresenceInterfaceC2EPNS_9DBusProxyE@Base 0.9.1
 _ZN2Tp6Client42ConnectionInterfaceSimplePresenceInterfaceC2ERK15QDBusConnectionRK7QStringS7_P7QObject@Base 0.9.1
 _ZN2Tp6Client42ConnectionInterfaceSimplePresenceInterfaceC2ERK7QStringS4_P7QObject@Base 0.9.1
 _ZN2Tp6Client42ConnectionInterfaceSimplePresenceInterfaceC2ERKNS0_19ConnectionInterfaceE@Base 0.9.1
 _ZN2Tp6Client42ConnectionInterfaceSimplePresenceInterfaceC2ERKNS0_19ConnectionInterfaceEP7QObject@Base 0.9.1
 _ZN2Tp6Client42ConnectionInterfaceSimplePresenceInterfaceD0Ev@Base 0.9.1
 _ZN2Tp6Client42ConnectionInterfaceSimplePresenceInterfaceD1Ev@Base 0.9.1
 _ZN2Tp6Client42ConnectionInterfaceSimplePresenceInterfaceD2Ev@Base 0.9.1
 _ZN2Tp6Client43ChannelInterfaceSASLAuthenticationInterface10invalidateEPNS_9DBusProxyERK7QStringS6_@Base 0.9.1
 _ZN2Tp6Client43ChannelInterfaceSASLAuthenticationInterface11qt_metacallEN11QMetaObject4CallEiPPv@Base 0.9.1
 _ZN2Tp6Client43ChannelInterfaceSASLAuthenticationInterface11qt_metacastEPKc@Base 0.9.1
 _ZN2Tp6Client43ChannelInterfaceSASLAuthenticationInterface12NewChallengeERK10QByteArray@Base 0.9.1
 _ZN2Tp6Client43ChannelInterfaceSASLAuthenticationInterface16staticMetaObjectE@Base 0.9.1
 _ZN2Tp6Client43ChannelInterfaceSASLAuthenticationInterface17SASLStatusChangedEjRK7QStringRK4QMapIS2_8QVariantE@Base 0.9.1
 _ZN2Tp6Client43ChannelInterfaceSASLAuthenticationInterfaceC1EPNS_9DBusProxyE@Base 0.9.1
 _ZN2Tp6Client43ChannelInterfaceSASLAuthenticationInterfaceC1ERK15QDBusConnectionRK7QStringS7_P7QObject@Base 0.9.1
 _ZN2Tp6Client43ChannelInterfaceSASLAuthenticationInterfaceC1ERK7QStringS4_P7QObject@Base 0.9.1
 _ZN2Tp6Client43ChannelInterfaceSASLAuthenticationInterfaceC1ERKNS0_16ChannelInterfaceE@Base 0.9.1
 _ZN2Tp6Client43ChannelInterfaceSASLAuthenticationInterfaceC1ERKNS0_16ChannelInterfaceEP7QObject@Base 0.9.1
 _ZN2Tp6Client43ChannelInterfaceSASLAuthenticationInterfaceC2EPNS_9DBusProxyE@Base 0.9.1
 _ZN2Tp6Client43ChannelInterfaceSASLAuthenticationInterfaceC2ERK15QDBusConnectionRK7QStringS7_P7QObject@Base 0.9.1
 _ZN2Tp6Client43ChannelInterfaceSASLAuthenticationInterfaceC2ERK7QStringS4_P7QObject@Base 0.9.1
 _ZN2Tp6Client43ChannelInterfaceSASLAuthenticationInterfaceC2ERKNS0_16ChannelInterfaceE@Base 0.9.1
 _ZN2Tp6Client43ChannelInterfaceSASLAuthenticationInterfaceC2ERKNS0_16ChannelInterfaceEP7QObject@Base 0.9.1
 _ZN2Tp6Client43ChannelInterfaceSASLAuthenticationInterfaceD0Ev@Base 0.9.1
 _ZN2Tp6Client43ChannelInterfaceSASLAuthenticationInterfaceD1Ev@Base 0.9.1
 _ZN2Tp6Client43ChannelInterfaceSASLAuthenticationInterfaceD2Ev@Base 0.9.1
 _ZN2Tp6Client43ConnectionInterfaceContactBlockingInterface10invalidateEPNS_9DBusProxyERK7QStringS6_@Base 0.9.1
 _ZN2Tp6Client43ConnectionInterfaceContactBlockingInterface11qt_metacallEN11QMetaObject4CallEiPPv@Base 0.9.1
 _ZN2Tp6Client43ConnectionInterfaceContactBlockingInterface11qt_metacastEPKc@Base 0.9.1
 _ZN2Tp6Client43ConnectionInterfaceContactBlockingInterface16staticMetaObjectE@Base 0.9.1
 _ZN2Tp6Client43ConnectionInterfaceContactBlockingInterface22BlockedContactsChangedERKNS_19HandleIdentifierMapES4_@Base 0.9.1
 _ZN2Tp6Client43ConnectionInterfaceContactBlockingInterfaceC1EPNS_9DBusProxyE@Base 0.9.1
 _ZN2Tp6Client43ConnectionInterfaceContactBlockingInterfaceC1ERK15QDBusConnectionRK7QStringS7_P7QObject@Base 0.9.1
 _ZN2Tp6Client43ConnectionInterfaceContactBlockingInterfaceC1ERK7QStringS4_P7QObject@Base 0.9.1
 _ZN2Tp6Client43ConnectionInterfaceContactBlockingInterfaceC1ERKNS0_19ConnectionInterfaceE@Base 0.9.1
 _ZN2Tp6Client43ConnectionInterfaceContactBlockingInterfaceC1ERKNS0_19ConnectionInterfaceEP7QObject@Base 0.9.1
 _ZN2Tp6Client43ConnectionInterfaceContactBlockingInterfaceC2EPNS_9DBusProxyE@Base 0.9.1
 _ZN2Tp6Client43ConnectionInterfaceContactBlockingInterfaceC2ERK15QDBusConnectionRK7QStringS7_P7QObject@Base 0.9.1
 _ZN2Tp6Client43ConnectionInterfaceContactBlockingInterfaceC2ERK7QStringS4_P7QObject@Base 0.9.1
 _ZN2Tp6Client43ConnectionInterfaceContactBlockingInterfaceC2ERKNS0_19ConnectionInterfaceE@Base 0.9.1
 _ZN2Tp6Client43ConnectionInterfaceContactBlockingInterfaceC2ERKNS0_19ConnectionInterfaceEP7QObject@Base 0.9.1
 _ZN2Tp6Client43ConnectionInterfaceContactBlockingInterfaceD0Ev@Base 0.9.1
 _ZN2Tp6Client43ConnectionInterfaceContactBlockingInterfaceD1Ev@Base 0.9.1
 _ZN2Tp6Client43ConnectionInterfaceContactBlockingInterfaceD2Ev@Base 0.9.1
 _ZN2Tp6Client44ConnectionInterfaceMailNotificationInterface10invalidateEPNS_9DBusProxyERK7QStringS6_@Base 0.9.1
 _ZN2Tp6Client44ConnectionInterfaceMailNotificationInterface11qt_metacallEN11QMetaObject4CallEiPPv@Base 0.9.1
 _ZN2Tp6Client44ConnectionInterfaceMailNotificationInterface11qt_metacastEPKc@Base 0.9.1
 _ZN2Tp6Client44ConnectionInterfaceMailNotificationInterface13MailsReceivedERK5QListINS_4MailEE@Base 0.9.1
 _ZN2Tp6Client44ConnectionInterfaceMailNotificationInterface16staticMetaObjectE@Base 0.9.1
 _ZN2Tp6Client44ConnectionInterfaceMailNotificationInterface18UnreadMailsChangedEjRK5QListINS_4MailEERK11QStringList@Base 0.9.1
 _ZN2Tp6Client44ConnectionInterfaceMailNotificationInterfaceC1EPNS_9DBusProxyE@Base 0.9.1
 _ZN2Tp6Client44ConnectionInterfaceMailNotificationInterfaceC1ERK15QDBusConnectionRK7QStringS7_P7QObject@Base 0.9.1
 _ZN2Tp6Client44ConnectionInterfaceMailNotificationInterfaceC1ERK7QStringS4_P7QObject@Base 0.9.1
 _ZN2Tp6Client44ConnectionInterfaceMailNotificationInterfaceC1ERKNS0_19ConnectionInterfaceE@Base 0.9.1
 _ZN2Tp6Client44ConnectionInterfaceMailNotificationInterfaceC1ERKNS0_19ConnectionInterfaceEP7QObject@Base 0.9.1
 _ZN2Tp6Client44ConnectionInterfaceMailNotificationInterfaceC2EPNS_9DBusProxyE@Base 0.9.1
 _ZN2Tp6Client44ConnectionInterfaceMailNotificationInterfaceC2ERK15QDBusConnectionRK7QStringS7_P7QObject@Base 0.9.1
 _ZN2Tp6Client44ConnectionInterfaceMailNotificationInterfaceC2ERK7QStringS4_P7QObject@Base 0.9.1
 _ZN2Tp6Client44ConnectionInterfaceMailNotificationInterfaceC2ERKNS0_19ConnectionInterfaceE@Base 0.9.1
 _ZN2Tp6Client44ConnectionInterfaceMailNotificationInterfaceC2ERKNS0_19ConnectionInterfaceEP7QObject@Base 0.9.1
 _ZN2Tp6Client44ConnectionInterfaceMailNotificationInterfaceD0Ev@Base 0.9.1
 _ZN2Tp6Client44ConnectionInterfaceMailNotificationInterfaceD1Ev@Base 0.9.1
 _ZN2Tp6Client44ConnectionInterfaceMailNotificationInterfaceD2Ev@Base 0.9.1
 _ZN2Tp6Client45ChannelInterfaceFileTransferMetadataInterface10invalidateEPNS_9DBusProxyERK7QStringS6_@Base 0.9.1
 _ZN2Tp6Client45ChannelInterfaceFileTransferMetadataInterface11qt_metacallEN11QMetaObject4CallEiPPv@Base 0.9.1
 _ZN2Tp6Client45ChannelInterfaceFileTransferMetadataInterface11qt_metacastEPKc@Base 0.9.1
 _ZN2Tp6Client45ChannelInterfaceFileTransferMetadataInterface16staticMetaObjectE@Base 0.9.1
 _ZN2Tp6Client45ChannelInterfaceFileTransferMetadataInterfaceC1EPNS_9DBusProxyE@Base 0.9.1
 _ZN2Tp6Client45ChannelInterfaceFileTransferMetadataInterfaceC1ERK15QDBusConnectionRK7QStringS7_P7QObject@Base 0.9.1
 _ZN2Tp6Client45ChannelInterfaceFileTransferMetadataInterfaceC1ERK7QStringS4_P7QObject@Base 0.9.1
 _ZN2Tp6Client45ChannelInterfaceFileTransferMetadataInterfaceC1ERKNS0_16ChannelInterfaceE@Base 0.9.1
 _ZN2Tp6Client45ChannelInterfaceFileTransferMetadataInterfaceC1ERKNS0_16ChannelInterfaceEP7QObject@Base 0.9.1
 _ZN2Tp6Client45ChannelInterfaceFileTransferMetadataInterfaceC2EPNS_9DBusProxyE@Base 0.9.1
 _ZN2Tp6Client45ChannelInterfaceFileTransferMetadataInterfaceC2ERK15QDBusConnectionRK7QStringS7_P7QObject@Base 0.9.1
 _ZN2Tp6Client45ChannelInterfaceFileTransferMetadataInterfaceC2ERK7QStringS4_P7QObject@Base 0.9.1
 _ZN2Tp6Client45ChannelInterfaceFileTransferMetadataInterfaceC2ERKNS0_16ChannelInterfaceE@Base 0.9.1
 _ZN2Tp6Client45ChannelInterfaceFileTransferMetadataInterfaceC2ERKNS0_16ChannelInterfaceEP7QObject@Base 0.9.1
 _ZN2Tp6Client45ChannelInterfaceFileTransferMetadataInterfaceD0Ev@Base 0.9.1
 _ZN2Tp6Client45ChannelInterfaceFileTransferMetadataInterfaceD1Ev@Base 0.9.1
 _ZN2Tp6Client45ChannelInterfaceFileTransferMetadataInterfaceD2Ev@Base 0.9.1
 _ZN2Tp6Client46ChannelInterfaceCaptchaAuthenticationInterface10invalidateEPNS_9DBusProxyERK7QStringS6_@Base 0.9.1
 _ZN2Tp6Client46ChannelInterfaceCaptchaAuthenticationInterface11qt_metacallEN11QMetaObject4CallEiPPv@Base 0.9.1
 _ZN2Tp6Client46ChannelInterfaceCaptchaAuthenticationInterface11qt_metacastEPKc@Base 0.9.1
 _ZN2Tp6Client46ChannelInterfaceCaptchaAuthenticationInterface16staticMetaObjectE@Base 0.9.1
 _ZN2Tp6Client46ChannelInterfaceCaptchaAuthenticationInterfaceC1EPNS_9DBusProxyE@Base 0.9.1
 _ZN2Tp6Client46ChannelInterfaceCaptchaAuthenticationInterfaceC1ERK15QDBusConnectionRK7QStringS7_P7QObject@Base 0.9.1
 _ZN2Tp6Client46ChannelInterfaceCaptchaAuthenticationInterfaceC1ERK7QStringS4_P7QObject@Base 0.9.1
 _ZN2Tp6Client46ChannelInterfaceCaptchaAuthenticationInterfaceC1ERKNS0_16ChannelInterfaceE@Base 0.9.1
 _ZN2Tp6Client46ChannelInterfaceCaptchaAuthenticationInterfaceC1ERKNS0_16ChannelInterfaceEP7QObject@Base 0.9.1
 _ZN2Tp6Client46ChannelInterfaceCaptchaAuthenticationInterfaceC2EPNS_9DBusProxyE@Base 0.9.1
 _ZN2Tp6Client46ChannelInterfaceCaptchaAuthenticationInterfaceC2ERK15QDBusConnectionRK7QStringS7_P7QObject@Base 0.9.1
 _ZN2Tp6Client46ChannelInterfaceCaptchaAuthenticationInterfaceC2ERK7QStringS4_P7QObject@Base 0.9.1
 _ZN2Tp6Client46ChannelInterfaceCaptchaAuthenticationInterfaceC2ERKNS0_16ChannelInterfaceE@Base 0.9.1
 _ZN2Tp6Client46ChannelInterfaceCaptchaAuthenticationInterfaceC2ERKNS0_16ChannelInterfaceEP7QObject@Base 0.9.1
 _ZN2Tp6Client46ChannelInterfaceCaptchaAuthenticationInterfaceD0Ev@Base 0.9.1
 _ZN2Tp6Client46ChannelInterfaceCaptchaAuthenticationInterfaceD1Ev@Base 0.9.1
 _ZN2Tp6Client46ChannelInterfaceCaptchaAuthenticationInterfaceD2Ev@Base 0.9.1
 _ZN2Tp6Client47ConnectionInterfaceContactCapabilitiesInterface10invalidateEPNS_9DBusProxyERK7QStringS6_@Base 0.9.1
 _ZN2Tp6Client47ConnectionInterfaceContactCapabilitiesInterface11qt_metacallEN11QMetaObject4CallEiPPv@Base 0.9.1
 _ZN2Tp6Client47ConnectionInterfaceContactCapabilitiesInterface11qt_metacastEPKc@Base 0.9.1
 _ZN2Tp6Client47ConnectionInterfaceContactCapabilitiesInterface16staticMetaObjectE@Base 0.9.1
 _ZN2Tp6Client47ConnectionInterfaceContactCapabilitiesInterface26ContactCapabilitiesChangedERKNS_22ContactCapabilitiesMapE@Base 0.9.1
 _ZN2Tp6Client47ConnectionInterfaceContactCapabilitiesInterfaceC1EPNS_9DBusProxyE@Base 0.9.1
 _ZN2Tp6Client47ConnectionInterfaceContactCapabilitiesInterfaceC1ERK15QDBusConnectionRK7QStringS7_P7QObject@Base 0.9.1
 _ZN2Tp6Client47ConnectionInterfaceContactCapabilitiesInterfaceC1ERK7QStringS4_P7QObject@Base 0.9.1
 _ZN2Tp6Client47ConnectionInterfaceContactCapabilitiesInterfaceC1ERKNS0_19ConnectionInterfaceE@Base 0.9.1
 _ZN2Tp6Client47ConnectionInterfaceContactCapabilitiesInterfaceC1ERKNS0_19ConnectionInterfaceEP7QObject@Base 0.9.1
 _ZN2Tp6Client47ConnectionInterfaceContactCapabilitiesInterfaceC2EPNS_9DBusProxyE@Base 0.9.1
 _ZN2Tp6Client47ConnectionInterfaceContactCapabilitiesInterfaceC2ERK15QDBusConnectionRK7QStringS7_P7QObject@Base 0.9.1
 _ZN2Tp6Client47ConnectionInterfaceContactCapabilitiesInterfaceC2ERK7QStringS4_P7QObject@Base 0.9.1
 _ZN2Tp6Client47ConnectionInterfaceContactCapabilitiesInterfaceC2ERKNS0_19ConnectionInterfaceE@Base 0.9.1
 _ZN2Tp6Client47ConnectionInterfaceContactCapabilitiesInterfaceC2ERKNS0_19ConnectionInterfaceEP7QObject@Base 0.9.1
 _ZN2Tp6Client47ConnectionInterfaceContactCapabilitiesInterfaceD0Ev@Base 0.9.1
 _ZN2Tp6Client47ConnectionInterfaceContactCapabilitiesInterfaceD1Ev@Base 0.9.1
 _ZN2Tp6Client47ConnectionInterfaceContactCapabilitiesInterfaceD2Ev@Base 0.9.1
 _ZN2Tp6Client4DBus13PeerInterface10invalidateEPNS_9DBusProxyERK7QStringS7_@Base 0.9.1
 _ZN2Tp6Client4DBus13PeerInterface11qt_metacallEN11QMetaObject4CallEiPPv@Base 0.9.1
 _ZN2Tp6Client4DBus13PeerInterface11qt_metacastEPKc@Base 0.9.1
 _ZN2Tp6Client4DBus13PeerInterface16staticMetaObjectE@Base 0.9.1
 _ZN2Tp6Client4DBus13PeerInterfaceC1EPNS_9DBusProxyE@Base 0.9.1
 _ZN2Tp6Client4DBus13PeerInterfaceC1ERK15QDBusConnectionRK7QStringS8_P7QObject@Base 0.9.1
 _ZN2Tp6Client4DBus13PeerInterfaceC1ERK7QStringS5_P7QObject@Base 0.9.1
 _ZN2Tp6Client4DBus13PeerInterfaceC1ERKNS_17AbstractInterfaceE@Base 0.9.1
 _ZN2Tp6Client4DBus13PeerInterfaceC1ERKNS_17AbstractInterfaceEP7QObject@Base 0.9.1
 _ZN2Tp6Client4DBus13PeerInterfaceC2EPNS_9DBusProxyE@Base 0.9.1
 _ZN2Tp6Client4DBus13PeerInterfaceC2ERK15QDBusConnectionRK7QStringS8_P7QObject@Base 0.9.1
 _ZN2Tp6Client4DBus13PeerInterfaceC2ERK7QStringS5_P7QObject@Base 0.9.1
 _ZN2Tp6Client4DBus13PeerInterfaceC2ERKNS_17AbstractInterfaceE@Base 0.9.1
 _ZN2Tp6Client4DBus13PeerInterfaceC2ERKNS_17AbstractInterfaceEP7QObject@Base 0.9.1
 _ZN2Tp6Client4DBus13PeerInterfaceD0Ev@Base 0.9.1
 _ZN2Tp6Client4DBus13PeerInterfaceD1Ev@Base 0.9.1
 _ZN2Tp6Client4DBus13PeerInterfaceD2Ev@Base 0.9.1
 _ZN2Tp6Client4DBus19DBusDaemonInterface10invalidateEPNS_9DBusProxyERK7QStringS7_@Base 0.9.1
 _ZN2Tp6Client4DBus19DBusDaemonInterface11qt_metacallEN11QMetaObject4CallEiPPv@Base 0.9.1
 _ZN2Tp6Client4DBus19DBusDaemonInterface11qt_metacastEPKc@Base 0.9.1
 _ZN2Tp6Client4DBus19DBusDaemonInterface12NameAcquiredERK7QString@Base 0.9.1
 _ZN2Tp6Client4DBus19DBusDaemonInterface16NameOwnerChangedERK7QStringS5_S5_@Base 0.9.1
 _ZN2Tp6Client4DBus19DBusDaemonInterface16staticMetaObjectE@Base 0.9.1
 _ZN2Tp6Client4DBus19DBusDaemonInterface8NameLostERK7QString@Base 0.9.1
 _ZN2Tp6Client4DBus19DBusDaemonInterfaceC1EPNS_9DBusProxyE@Base 0.9.1
 _ZN2Tp6Client4DBus19DBusDaemonInterfaceC1ERK15QDBusConnectionRK7QStringS8_P7QObject@Base 0.9.1
 _ZN2Tp6Client4DBus19DBusDaemonInterfaceC1ERK7QStringS5_P7QObject@Base 0.9.1
 _ZN2Tp6Client4DBus19DBusDaemonInterfaceC1ERKNS_17AbstractInterfaceE@Base 0.9.1
 _ZN2Tp6Client4DBus19DBusDaemonInterfaceC1ERKNS_17AbstractInterfaceEP7QObject@Base 0.9.1
 _ZN2Tp6Client4DBus19DBusDaemonInterfaceC2EPNS_9DBusProxyE@Base 0.9.1
 _ZN2Tp6Client4DBus19DBusDaemonInterfaceC2ERK15QDBusConnectionRK7QStringS8_P7QObject@Base 0.9.1
 _ZN2Tp6Client4DBus19DBusDaemonInterfaceC2ERK7QStringS5_P7QObject@Base 0.9.1
 _ZN2Tp6Client4DBus19DBusDaemonInterfaceC2ERKNS_17AbstractInterfaceE@Base 0.9.1
 _ZN2Tp6Client4DBus19DBusDaemonInterfaceC2ERKNS_17AbstractInterfaceEP7QObject@Base 0.9.1
 _ZN2Tp6Client4DBus19DBusDaemonInterfaceD0Ev@Base 0.9.1
 _ZN2Tp6Client4DBus19DBusDaemonInterfaceD1Ev@Base 0.9.1
 _ZN2Tp6Client4DBus19DBusDaemonInterfaceD2Ev@Base 0.9.1
 _ZN2Tp6Client4DBus19PropertiesInterface10invalidateEPNS_9DBusProxyERK7QStringS7_@Base 0.9.1
 _ZN2Tp6Client4DBus19PropertiesInterface11qt_metacallEN11QMetaObject4CallEiPPv@Base 0.9.1
 _ZN2Tp6Client4DBus19PropertiesInterface11qt_metacastEPKc@Base 0.9.1
 _ZN2Tp6Client4DBus19PropertiesInterface16staticMetaObjectE@Base 0.9.1
 _ZN2Tp6Client4DBus19PropertiesInterfaceC1EPNS_9DBusProxyE@Base 0.9.1
 _ZN2Tp6Client4DBus19PropertiesInterfaceC1ERK15QDBusConnectionRK7QStringS8_P7QObject@Base 0.9.1
 _ZN2Tp6Client4DBus19PropertiesInterfaceC1ERK7QStringS5_P7QObject@Base 0.9.1
 _ZN2Tp6Client4DBus19PropertiesInterfaceC1ERKNS_17AbstractInterfaceE@Base 0.9.1
 _ZN2Tp6Client4DBus19PropertiesInterfaceC1ERKNS_17AbstractInterfaceEP7QObject@Base 0.9.1
 _ZN2Tp6Client4DBus19PropertiesInterfaceC2EPNS_9DBusProxyE@Base 0.9.1
 _ZN2Tp6Client4DBus19PropertiesInterfaceC2ERK15QDBusConnectionRK7QStringS8_P7QObject@Base 0.9.1
 _ZN2Tp6Client4DBus19PropertiesInterfaceC2ERK7QStringS5_P7QObject@Base 0.9.1
 _ZN2Tp6Client4DBus19PropertiesInterfaceC2ERKNS_17AbstractInterfaceE@Base 0.9.1
 _ZN2Tp6Client4DBus19PropertiesInterfaceC2ERKNS_17AbstractInterfaceEP7QObject@Base 0.9.1
 _ZN2Tp6Client4DBus19PropertiesInterfaceD0Ev@Base 0.9.1
 _ZN2Tp6Client4DBus19PropertiesInterfaceD1Ev@Base 0.9.1
 _ZN2Tp6Client4DBus19PropertiesInterfaceD2Ev@Base 0.9.1
 _ZN2Tp6Client4DBus23IntrospectableInterface10invalidateEPNS_9DBusProxyERK7QStringS7_@Base 0.9.1
 _ZN2Tp6Client4DBus23IntrospectableInterface11qt_metacallEN11QMetaObject4CallEiPPv@Base 0.9.1
 _ZN2Tp6Client4DBus23IntrospectableInterface11qt_metacastEPKc@Base 0.9.1
 _ZN2Tp6Client4DBus23IntrospectableInterface16staticMetaObjectE@Base 0.9.1
 _ZN2Tp6Client4DBus23IntrospectableInterfaceC1EPNS_9DBusProxyE@Base 0.9.1
 _ZN2Tp6Client4DBus23IntrospectableInterfaceC1ERK15QDBusConnectionRK7QStringS8_P7QObject@Base 0.9.1
 _ZN2Tp6Client4DBus23IntrospectableInterfaceC1ERK7QStringS5_P7QObject@Base 0.9.1
 _ZN2Tp6Client4DBus23IntrospectableInterfaceC1ERKNS_17AbstractInterfaceE@Base 0.9.1
 _ZN2Tp6Client4DBus23IntrospectableInterfaceC1ERKNS_17AbstractInterfaceEP7QObject@Base 0.9.1
 _ZN2Tp6Client4DBus23IntrospectableInterfaceC2EPNS_9DBusProxyE@Base 0.9.1
 _ZN2Tp6Client4DBus23IntrospectableInterfaceC2ERK15QDBusConnectionRK7QStringS8_P7QObject@Base 0.9.1
 _ZN2Tp6Client4DBus23IntrospectableInterfaceC2ERK7QStringS5_P7QObject@Base 0.9.1
 _ZN2Tp6Client4DBus23IntrospectableInterfaceC2ERKNS_17AbstractInterfaceE@Base 0.9.1
 _ZN2Tp6Client4DBus23IntrospectableInterfaceC2ERKNS_17AbstractInterfaceEP7QObject@Base 0.9.1
 _ZN2Tp6Client4DBus23IntrospectableInterfaceD0Ev@Base 0.9.1
 _ZN2Tp6Client4DBus23IntrospectableInterfaceD1Ev@Base 0.9.1
 _ZN2Tp6Client4DBus23IntrospectableInterfaceD2Ev@Base 0.9.1
 _ZN2Tp6Client57CallContentMediaDescriptionInterfaceRTCPFeedbackInterface10invalidateEPNS_9DBusProxyERK7QStringS6_@Base 0.9.1
 _ZN2Tp6Client57CallContentMediaDescriptionInterfaceRTCPFeedbackInterface11qt_metacallEN11QMetaObject4CallEiPPv@Base 0.9.1
 _ZN2Tp6Client57CallContentMediaDescriptionInterfaceRTCPFeedbackInterface11qt_metacastEPKc@Base 0.9.1
 _ZN2Tp6Client57CallContentMediaDescriptionInterfaceRTCPFeedbackInterface16staticMetaObjectE@Base 0.9.1
 _ZN2Tp6Client57CallContentMediaDescriptionInterfaceRTCPFeedbackInterfaceC1EPNS_9DBusProxyE@Base 0.9.1
 _ZN2Tp6Client57CallContentMediaDescriptionInterfaceRTCPFeedbackInterfaceC1ERK15QDBusConnectionRK7QStringS7_P7QObject@Base 0.9.1
 _ZN2Tp6Client57CallContentMediaDescriptionInterfaceRTCPFeedbackInterfaceC1ERK7QStringS4_P7QObject@Base 0.9.1
 _ZN2Tp6Client57CallContentMediaDescriptionInterfaceRTCPFeedbackInterfaceC1ERKNS0_36CallContentMediaDescriptionInterfaceE@Base 0.9.1
 _ZN2Tp6Client57CallContentMediaDescriptionInterfaceRTCPFeedbackInterfaceC1ERKNS0_36CallContentMediaDescriptionInterfaceEP7QObject@Base 0.9.1
 _ZN2Tp6Client57CallContentMediaDescriptionInterfaceRTCPFeedbackInterfaceC2EPNS_9DBusProxyE@Base 0.9.1
 _ZN2Tp6Client57CallContentMediaDescriptionInterfaceRTCPFeedbackInterfaceC2ERK15QDBusConnectionRK7QStringS7_P7QObject@Base 0.9.1
 _ZN2Tp6Client57CallContentMediaDescriptionInterfaceRTCPFeedbackInterfaceC2ERK7QStringS4_P7QObject@Base 0.9.1
 _ZN2Tp6Client57CallContentMediaDescriptionInterfaceRTCPFeedbackInterfaceC2ERKNS0_36CallContentMediaDescriptionInterfaceE@Base 0.9.1
 _ZN2Tp6Client57CallContentMediaDescriptionInterfaceRTCPFeedbackInterfaceC2ERKNS0_36CallContentMediaDescriptionInterfaceEP7QObject@Base 0.9.1
 _ZN2Tp6Client57CallContentMediaDescriptionInterfaceRTCPFeedbackInterfaceD0Ev@Base 0.9.1
 _ZN2Tp6Client57CallContentMediaDescriptionInterfaceRTCPFeedbackInterfaceD1Ev@Base 0.9.1
 _ZN2Tp6Client57CallContentMediaDescriptionInterfaceRTCPFeedbackInterfaceD2Ev@Base 0.9.1
 _ZN2Tp6Client64CallContentMediaDescriptionInterfaceRTCPExtendedReportsInterface10invalidateEPNS_9DBusProxyERK7QStringS6_@Base 0.9.1
 _ZN2Tp6Client64CallContentMediaDescriptionInterfaceRTCPExtendedReportsInterface11qt_metacallEN11QMetaObject4CallEiPPv@Base 0.9.1
 _ZN2Tp6Client64CallContentMediaDescriptionInterfaceRTCPExtendedReportsInterface11qt_metacastEPKc@Base 0.9.1
 _ZN2Tp6Client64CallContentMediaDescriptionInterfaceRTCPExtendedReportsInterface16staticMetaObjectE@Base 0.9.1
 _ZN2Tp6Client64CallContentMediaDescriptionInterfaceRTCPExtendedReportsInterfaceC1EPNS_9DBusProxyE@Base 0.9.1
 _ZN2Tp6Client64CallContentMediaDescriptionInterfaceRTCPExtendedReportsInterfaceC1ERK15QDBusConnectionRK7QStringS7_P7QObject@Base 0.9.1
 _ZN2Tp6Client64CallContentMediaDescriptionInterfaceRTCPExtendedReportsInterfaceC1ERK7QStringS4_P7QObject@Base 0.9.1
 _ZN2Tp6Client64CallContentMediaDescriptionInterfaceRTCPExtendedReportsInterfaceC1ERKNS0_36CallContentMediaDescriptionInterfaceE@Base 0.9.1
 _ZN2Tp6Client64CallContentMediaDescriptionInterfaceRTCPExtendedReportsInterfaceC1ERKNS0_36CallContentMediaDescriptionInterfaceEP7QObject@Base 0.9.1
 _ZN2Tp6Client64CallContentMediaDescriptionInterfaceRTCPExtendedReportsInterfaceC2EPNS_9DBusProxyE@Base 0.9.1
 _ZN2Tp6Client64CallContentMediaDescriptionInterfaceRTCPExtendedReportsInterfaceC2ERK15QDBusConnectionRK7QStringS7_P7QObject@Base 0.9.1
 _ZN2Tp6Client64CallContentMediaDescriptionInterfaceRTCPExtendedReportsInterfaceC2ERK7QStringS4_P7QObject@Base 0.9.1
 _ZN2Tp6Client64CallContentMediaDescriptionInterfaceRTCPExtendedReportsInterfaceC2ERKNS0_36CallContentMediaDescriptionInterfaceE@Base 0.9.1
 _ZN2Tp6Client64CallContentMediaDescriptionInterfaceRTCPExtendedReportsInterfaceC2ERKNS0_36CallContentMediaDescriptionInterfaceEP7QObject@Base 0.9.1
 _ZN2Tp6Client64CallContentMediaDescriptionInterfaceRTCPExtendedReportsInterfaceD0Ev@Base 0.9.1
 _ZN2Tp6Client64CallContentMediaDescriptionInterfaceRTCPExtendedReportsInterfaceD1Ev@Base 0.9.1
 _ZN2Tp6Client64CallContentMediaDescriptionInterfaceRTCPExtendedReportsInterfaceD2Ev@Base 0.9.1
 _ZN2Tp6Client64CallContentMediaDescriptionInterfaceRTPHeaderExtensionsInterface10invalidateEPNS_9DBusProxyERK7QStringS6_@Base 0.9.1
 _ZN2Tp6Client64CallContentMediaDescriptionInterfaceRTPHeaderExtensionsInterface11qt_metacallEN11QMetaObject4CallEiPPv@Base 0.9.1
 _ZN2Tp6Client64CallContentMediaDescriptionInterfaceRTPHeaderExtensionsInterface11qt_metacastEPKc@Base 0.9.1
 _ZN2Tp6Client64CallContentMediaDescriptionInterfaceRTPHeaderExtensionsInterface16staticMetaObjectE@Base 0.9.1
 _ZN2Tp6Client64CallContentMediaDescriptionInterfaceRTPHeaderExtensionsInterfaceC1EPNS_9DBusProxyE@Base 0.9.1
 _ZN2Tp6Client64CallContentMediaDescriptionInterfaceRTPHeaderExtensionsInterfaceC1ERK15QDBusConnectionRK7QStringS7_P7QObject@Base 0.9.1
 _ZN2Tp6Client64CallContentMediaDescriptionInterfaceRTPHeaderExtensionsInterfaceC1ERK7QStringS4_P7QObject@Base 0.9.1
 _ZN2Tp6Client64CallContentMediaDescriptionInterfaceRTPHeaderExtensionsInterfaceC1ERKNS0_36CallContentMediaDescriptionInterfaceE@Base 0.9.1
 _ZN2Tp6Client64CallContentMediaDescriptionInterfaceRTPHeaderExtensionsInterfaceC1ERKNS0_36CallContentMediaDescriptionInterfaceEP7QObject@Base 0.9.1
 _ZN2Tp6Client64CallContentMediaDescriptionInterfaceRTPHeaderExtensionsInterfaceC2EPNS_9DBusProxyE@Base 0.9.1
 _ZN2Tp6Client64CallContentMediaDescriptionInterfaceRTPHeaderExtensionsInterfaceC2ERK15QDBusConnectionRK7QStringS7_P7QObject@Base 0.9.1
 _ZN2Tp6Client64CallContentMediaDescriptionInterfaceRTPHeaderExtensionsInterfaceC2ERK7QStringS4_P7QObject@Base 0.9.1
 _ZN2Tp6Client64CallContentMediaDescriptionInterfaceRTPHeaderExtensionsInterfaceC2ERKNS0_36CallContentMediaDescriptionInterfaceE@Base 0.9.1
 _ZN2Tp6Client64CallContentMediaDescriptionInterfaceRTPHeaderExtensionsInterfaceC2ERKNS0_36CallContentMediaDescriptionInterfaceEP7QObject@Base 0.9.1
 _ZN2Tp6Client64CallContentMediaDescriptionInterfaceRTPHeaderExtensionsInterfaceD0Ev@Base 0.9.1
 _ZN2Tp6Client64CallContentMediaDescriptionInterfaceRTPHeaderExtensionsInterfaceD1Ev@Base 0.9.1
 _ZN2Tp6Client64CallContentMediaDescriptionInterfaceRTPHeaderExtensionsInterfaceD2Ev@Base 0.9.1
 _ZN2Tp6Object11qt_metacallEN11QMetaObject4CallEiPPv@Base 0.9.1
 _ZN2Tp6Object11qt_metacastEPKc@Base 0.9.1
 _ZN2Tp6Object15propertyChangedERK7QString@Base 0.9.1
 _ZN2Tp6Object16staticMetaObjectE@Base 0.9.1
 _ZN2Tp6Object6notifyEPKc@Base 0.9.1
 _ZN2Tp6ObjectC1Ev@Base 0.9.1
 _ZN2Tp6ObjectC2Ev@Base 0.9.1
 _ZN2Tp6ObjectD0Ev@Base 0.9.1
 _ZN2Tp6ObjectD1Ev@Base 0.9.1
 _ZN2Tp6ObjectD2Ev@Base 0.9.1
 _ZN2Tp7Account10setEnabledEb@Base 0.9.1
 _ZN2Tp7Account11FeatureCoreE@Base 0.9.1
 _ZN2Tp7Account11firstOnlineEv@Base 0.9.1
 _ZN2Tp7Account11qt_metacallEN11QMetaObject4CallEiPPv@Base 0.9.1
 _ZN2Tp7Account11qt_metacastEPKc@Base 0.9.1
 _ZN2Tp7Account11setIconNameERK7QString@Base 0.9.1
 _ZN2Tp7Account11setNicknameERK7QString@Base 0.9.1
 _ZN2Tp7Account12stateChangedEb@Base 0.9.1
 _ZN2Tp7Account13FeatureAvatarE@Base 0.9.1
 _ZN2Tp7Account13avatarChangedERKNS_6AvatarE@Base 0.9.1
 _ZN2Tp7Account13createChannelERK4QMapI7QString8QVariantERK9QDateTimeRKS2_RKNS_19ChannelRequestHintsE@Base 0.9.1
 _ZN2Tp7Account13ensureChannelERK4QMapI7QString8QVariantERK9QDateTimeRKS2_RKNS_19ChannelRequestHintsE@Base 0.9.1
 _ZN2Tp7Account14FeatureProfileE@Base 0.9.1
 _ZN2Tp7Account14ensureTextChatERK7QStringRK9QDateTimeS3_RKNS_19ChannelRequestHintsE@Base 0.9.1
 _ZN2Tp7Account14ensureTextChatERKNS_9SharedPtrINS_7ContactEEERK9QDateTimeRK7QStringRKNS_19ChannelRequestHintsE@Base 0.9.1
 _ZN2Tp7Account14profileChangedERKNS_9SharedPtrINS_7ProfileEEE@Base 0.9.1
 _ZN2Tp7Account14setDisplayNameERK7QString@Base 0.9.1
 _ZN2Tp7Account14setServiceNameERK7QString@Base 0.9.1
 _ZN2Tp7Account15ensureAudioCallERK7QStringS3_RK9QDateTimeS3_RKNS_19ChannelRequestHintsE@Base 0.9.1
 _ZN2Tp7Account15ensureAudioCallERKNS_9SharedPtrINS_7ContactEEERK7QStringRK9QDateTimeS8_RKNS_19ChannelRequestHintsE@Base 0.9.1
 _ZN2Tp7Account15ensureVideoCallERK7QStringS3_RK9QDateTimeS3_RKNS_19ChannelRequestHintsE@Base 0.9.1
 _ZN2Tp7Account15ensureVideoCallERKNS_9SharedPtrINS_7ContactEEERK7QStringRK9QDateTimeS8_RKNS_19ChannelRequestHintsE@Base 0.9.1
 _ZN2Tp7Account15iconNameChangedERK7QString@Base 0.9.1
 _ZN2Tp7Account15nicknameChangedERK7QString@Base 0.9.1
 _ZN2Tp7Account15validityChangedEb@Base 0.9.1
 _ZN2Tp7Account16changingPresenceEb@Base 0.9.1
 _ZN2Tp7Account16createStreamTubeERK7QStringS3_RK9QDateTimeS3_RKNS_19ChannelRequestHintsE@Base 0.9.1
 _ZN2Tp7Account16createStreamTubeERKNS_9SharedPtrINS_7ContactEEERK7QStringRK9QDateTimeS8_RKNS_19ChannelRequestHintsE@Base 0.9.1
 _ZN2Tp7Account16staticMetaObjectE@Base 0.9.1
 _ZN2Tp7Account16updateParametersERK4QMapI7QString8QVariantERK11QStringList@Base 0.9.1
 _ZN2Tp7Account17connectionChangedERKNS_9SharedPtrINS_10ConnectionEEE@Base 0.9.1
 _ZN2Tp7Account17onlinenessChangedEb@Base 0.9.1
 _ZN2Tp7Account17parametersChangedERK4QMapI7QString8QVariantE@Base 0.9.1
 _ZN2Tp7Account18createFileTransferERK7QStringRKNS_37FileTransferChannelCreationPropertiesERK9QDateTimeS3_RKNS_19ChannelRequestHintsE@Base 0.9.1
 _ZN2Tp7Account18createFileTransferERKNS_9SharedPtrINS_7ContactEEERKNS_37FileTransferChannelCreationPropertiesERK9QDateTimeRK7QStringRKNS_19ChannelRequestHintsE@Base 0.9.1
 _ZN2Tp7Account18displayNameChangedERK7QString@Base 0.9.1
 _ZN2Tp7Account18ensureTextChatroomERK7QStringRK9QDateTimeS3_RKNS_19ChannelRequestHintsE@Base 0.9.1
 _ZN2Tp7Account18serviceNameChangedERK7QString@Base 0.9.1
 _ZN2Tp7Account19FeatureCapabilitiesE@Base 0.9.1
 _ZN2Tp7Account19FeatureProtocolInfoE@Base 0.9.1
 _ZN2Tp7Account19capabilitiesChangedERKNS_22ConnectionCapabilitiesE@Base 0.9.1
 _ZN2Tp7Account19createContactSearchERK7QStringjRK9QDateTimeS3_RKNS_19ChannelRequestHintsE@Base 0.9.1
 _ZN2Tp7Account20ensureAudioVideoCallERK7QStringS3_S3_RK9QDateTimeS3_RKNS_19ChannelRequestHintsE@Base 0.9.1
 _ZN2Tp7Account20ensureAudioVideoCallERKNS_9SharedPtrINS_7ContactEEERK7QStringS8_RK9QDateTimeS8_RKNS_19ChannelRequestHintsE@Base 0.9.1
 _ZN2Tp7Account20setAutomaticPresenceERKNS_8PresenceE@Base 0.9.1
 _ZN2Tp7Account20setRequestedPresenceERKNS_8PresenceE@Base 0.9.1
 _ZN2Tp7Account21normalizedNameChangedERK7QString@Base 0.9.1
 _ZN2Tp7Account22createAndHandleChannelERK4QMapI7QString8QVariantERK9QDateTime@Base 0.9.1
 _ZN2Tp7Account22currentPresenceChangedERKNS_8PresenceE@Base 0.9.1
 _ZN2Tp7Account22ensureAndHandleChannelERK4QMapI7QString8QVariantERK9QDateTime@Base 0.9.1
 _ZN2Tp7Account23connectionStatusChangedENS_16ConnectionStatusE@Base 0.9.1
 _ZN2Tp7Account23ensureAndHandleTextChatERK7QStringRK9QDateTime@Base 0.9.1
 _ZN2Tp7Account23ensureAndHandleTextChatERKNS_9SharedPtrINS_7ContactEEERK9QDateTime@Base 0.9.1
 _ZN2Tp7Account23ensureStreamedMediaCallERK7QStringRK9QDateTimeS3_RKNS_19ChannelRequestHintsE@Base 0.9.1
 _ZN2Tp7Account23ensureStreamedMediaCallERKNS_9SharedPtrINS_7ContactEEERK9QDateTimeRK7QStringRKNS_19ChannelRequestHintsE@Base 0.9.1
 _ZN2Tp7Account24automaticPresenceChangedERKNS_8PresenceE@Base 0.9.1
 _ZN2Tp7Account24createConferenceTextChatERK5QListINS_9SharedPtrINS_7ChannelEEEERK11QStringListRK9QDateTimeRK7QStringRKNS_19ChannelRequestHintsE@Base 0.9.1
 _ZN2Tp7Account24createConferenceTextChatERK5QListINS_9SharedPtrINS_7ChannelEEEERKS1_INS2_INS_7ContactEEEERK9QDateTimeRK7QStringRKNS_19ChannelRequestHintsE@Base 0.9.1
 _ZN2Tp7Account24ensureAndHandleAudioCallERK7QStringS3_RK9QDateTime@Base 0.9.1
 _ZN2Tp7Account24ensureAndHandleAudioCallERKNS_9SharedPtrINS_7ContactEEERK7QStringRK9QDateTime@Base 0.9.1
 _ZN2Tp7Account24ensureAndHandleVideoCallERK7QStringS3_RK9QDateTime@Base 0.9.1
 _ZN2Tp7Account24ensureAndHandleVideoCallERKNS_9SharedPtrINS_7ContactEEERK7QStringRK9QDateTime@Base 0.9.1
 _ZN2Tp7Account24requestedPresenceChangedERKNS_8PresenceE@Base 0.9.1
 _ZN2Tp7Account24setConnectsAutomaticallyEb@Base 0.9.1
 _ZN2Tp7Account25createAndHandleStreamTubeERK7QStringS3_RK9QDateTime@Base 0.9.1
 _ZN2Tp7Account25createAndHandleStreamTubeERKNS_9SharedPtrINS_7ContactEEERK7QStringRK9QDateTime@Base 0.9.1
 _ZN2Tp7Account27createAndHandleFileTransferERK7QStringRKNS_37FileTransferChannelCreationPropertiesERK9QDateTime@Base 0.9.1
 _ZN2Tp7Account27createAndHandleFileTransferERKNS_9SharedPtrINS_7ContactEEERKNS_37FileTransferChannelCreationPropertiesERK9QDateTime@Base 0.9.1
 _ZN2Tp7Account27ensureAndHandleTextChatroomERK7QStringRK9QDateTime@Base 0.9.1
 _ZN2Tp7Account28createAndHandleContactSearchERK7QStringjRK9QDateTime@Base 0.9.1
 _ZN2Tp7Account28createConferenceTextChatroomERK7QStringRK5QListINS_9SharedPtrINS_7ChannelEEEERK11QStringListRK9QDateTimeS3_RKNS_19ChannelRequestHintsE@Base 0.9.1
 _ZN2Tp7Account28createConferenceTextChatroomERK7QStringRK5QListINS_9SharedPtrINS_7ChannelEEEERKS4_INS5_INS_7ContactEEEERK9QDateTimeS3_RKNS_19ChannelRequestHintsE@Base 0.9.1
 _ZN2Tp7Account28ensureStreamedMediaAudioCallERK7QStringRK9QDateTimeS3_RKNS_19ChannelRequestHintsE@Base 0.9.1
 _ZN2Tp7Account28ensureStreamedMediaAudioCallERKNS_9SharedPtrINS_7ContactEEERK9QDateTimeRK7QStringRKNS_19ChannelRequestHintsE@Base 0.9.1
 _ZN2Tp7Account28ensureStreamedMediaVideoCallERK7QStringbRK9QDateTimeS3_RKNS_19ChannelRequestHintsE@Base 0.9.1
 _ZN2Tp7Account28ensureStreamedMediaVideoCallERKNS_9SharedPtrINS_7ContactEEEbRK9QDateTimeRK7QStringRKNS_19ChannelRequestHintsE@Base 0.9.1
 _ZN2Tp7Account29ensureAndHandleAudioVideoCallERK7QStringS3_S3_RK9QDateTime@Base 0.9.1
 _ZN2Tp7Account29ensureAndHandleAudioVideoCallERKNS_9SharedPtrINS_7ContactEEERK7QStringS8_RK9QDateTime@Base 0.9.1
 _ZN2Tp7Account32ensureAndHandleStreamedMediaCallERK7QStringRK9QDateTime@Base 0.9.1
 _ZN2Tp7Account32ensureAndHandleStreamedMediaCallERKNS_9SharedPtrINS_7ContactEEERK9QDateTime@Base 0.9.1
 _ZN2Tp7Account33createAndHandleConferenceTextChatERK5QListINS_9SharedPtrINS_7ChannelEEEERK11QStringListRK9QDateTime@Base 0.9.1
 _ZN2Tp7Account33createAndHandleConferenceTextChatERK5QListINS_9SharedPtrINS_7ChannelEEEERKS1_INS2_INS_7ContactEEEERK9QDateTime@Base 0.9.1
 _ZN2Tp7Account33createConferenceStreamedMediaCallERK5QListINS_9SharedPtrINS_7ChannelEEEERK11QStringListRK9QDateTimeRK7QStringRKNS_19ChannelRequestHintsE@Base 0.9.1
 _ZN2Tp7Account33createConferenceStreamedMediaCallERK5QListINS_9SharedPtrINS_7ChannelEEEERKS1_INS2_INS_7ContactEEEERK9QDateTimeRK7QStringRKNS_19ChannelRequestHintsE@Base 0.9.1
 _ZN2Tp7Account36connectsAutomaticallyPropertyChangedEb@Base 0.9.1
 _ZN2Tp7Account37createAndHandleConferenceTextChatroomERK7QStringRK5QListINS_9SharedPtrINS_7ChannelEEEERK11QStringListRK9QDateTime@Base 0.9.1
 _ZN2Tp7Account37createAndHandleConferenceTextChatroomERK7QStringRK5QListINS_9SharedPtrINS_7ChannelEEEERKS4_INS5_INS_7ContactEEEERK9QDateTime@Base 0.9.1
 _ZN2Tp7Account37ensureAndHandleStreamedMediaAudioCallERK7QStringRK9QDateTime@Base 0.9.1
 _ZN2Tp7Account37ensureAndHandleStreamedMediaAudioCallERKNS_9SharedPtrINS_7ContactEEERK9QDateTime@Base 0.9.1
 _ZN2Tp7Account37ensureAndHandleStreamedMediaVideoCallERK7QStringbRK9QDateTime@Base 0.9.1
 _ZN2Tp7Account37ensureAndHandleStreamedMediaVideoCallERKNS_9SharedPtrINS_7ContactEEEbRK9QDateTime@Base 0.9.1
 _ZN2Tp7Account42createAndHandleConferenceStreamedMediaCallERK5QListINS_9SharedPtrINS_7ChannelEEEERK11QStringListRK9QDateTime@Base 0.9.1
 _ZN2Tp7Account42createAndHandleConferenceStreamedMediaCallERK5QListINS_9SharedPtrINS_7ChannelEEEERKS1_INS2_INS_7ContactEEEERK9QDateTime@Base 0.9.1
 _ZN2Tp7Account6createERK15QDBusConnectionRK7QStringS6_RKNS_9SharedPtrIKNS_17ConnectionFactoryEEERKNS7_IKNS_14ChannelFactoryEEERKNS7_IKNS_14ContactFactoryEEE@Base 0.9.1
 _ZN2Tp7Account6createERK7QStringS3_RKNS_9SharedPtrIKNS_17ConnectionFactoryEEERKNS4_IKNS_14ChannelFactoryEEERKNS4_IKNS_14ContactFactoryEEE@Base 0.9.1
 _ZN2Tp7Account6removeEv@Base 0.9.1
 _ZN2Tp7Account7removedEv@Base 0.9.1
 _ZN2Tp7Account9reconnectEv@Base 0.9.1
 _ZN2Tp7Account9setAvatarERKNS_6AvatarE@Base 0.9.1
 _ZN2Tp7AccountC1ERK15QDBusConnectionRK7QStringS6_RKNS_9SharedPtrIKNS_17ConnectionFactoryEEERKNS7_IKNS_14ChannelFactoryEEERKNS7_IKNS_14ContactFactoryEEERKNS_7FeatureE@Base 0.9.1
 _ZN2Tp7AccountC2ERK15QDBusConnectionRK7QStringS6_RKNS_9SharedPtrIKNS_17ConnectionFactoryEEERKNS7_IKNS_14ChannelFactoryEEERKNS7_IKNS_14ContactFactoryEEERKNS_7FeatureE@Base 0.9.1
 _ZN2Tp7AccountD0Ev@Base 0.9.1
 _ZN2Tp7AccountD1Ev@Base 0.9.1
 _ZN2Tp7AccountD2Ev@Base 0.9.1
 _ZN2Tp7CaptchaC1ERK7QStringS3_RK10QByteArrayNS_21CaptchaAuthentication13ChallengeTypeEj@Base 0.9.1
 _ZN2Tp7CaptchaC1ERKS0_@Base 0.9.1
 _ZN2Tp7CaptchaC1Ev@Base 0.9.1
 _ZN2Tp7CaptchaC2ERK7QStringS3_RK10QByteArrayNS_21CaptchaAuthentication13ChallengeTypeEj@Base 0.9.1
 _ZN2Tp7CaptchaC2ERKS0_@Base 0.9.1
 _ZN2Tp7CaptchaC2Ev@Base 0.9.1
 _ZN2Tp7CaptchaD1Ev@Base 0.9.1
 _ZN2Tp7CaptchaD2Ev@Base 0.9.1
 _ZN2Tp7CaptchaaSERKS0_@Base 0.9.1
 _ZN2Tp7Channel11FeatureCoreE@Base 0.9.1
 _ZN2Tp7Channel11qt_metacallEN11QMetaObject4CallEiPPv@Base 0.9.1
 _ZN2Tp7Channel11qt_metacastEPKc@Base 0.9.1
 _ZN2Tp7Channel12requestCloseEv@Base 0.9.1
 _ZN2Tp7Channel12requestLeaveERK7QStringNS_24ChannelGroupChangeReasonE@Base 0.9.1
 _ZN2Tp7Channel16groupAddContactsERK5QListINS_9SharedPtrINS_7ContactEEEERK7QString@Base 0.9.1
 _ZN2Tp7Channel16staticMetaObjectE@Base 0.9.1
 _ZN2Tp7Channel17groupFlagsChangedE6QFlagsINS_16ChannelGroupFlagEES3_S3_@Base 0.9.1
 _ZN2Tp7Channel18groupAddSelfHandleEv@Base 0.9.1
 _ZN2Tp7Channel19groupMembersChangedERK4QSetINS_9SharedPtrINS_7ContactEEEES7_S7_S7_RKNS0_24GroupMemberChangeDetailsE@Base 0.9.1
 _ZN2Tp7Channel19groupRemoveContactsERK5QListINS_9SharedPtrINS_7ContactEEEERK7QStringNS_24ChannelGroupChangeReasonE@Base 0.9.1
 _ZN2Tp7Channel22conferenceMergeChannelERKNS_9SharedPtrIS0_EE@Base 0.9.1
 _ZN2Tp7Channel22conferenceSplitChannelEv@Base 0.9.1
 _ZN2Tp7Channel23conferenceChannelMergedERKNS_9SharedPtrIS0_EE@Base 0.9.1
 _ZN2Tp7Channel23groupSelfContactChangedEv@Base 0.9.1
 _ZN2Tp7Channel24GroupMemberChangeDetailsC1ERKS1_@Base 0.9.1
 _ZN2Tp7Channel24GroupMemberChangeDetailsC1Ev@Base 0.9.1
 _ZN2Tp7Channel24GroupMemberChangeDetailsC2ERKS1_@Base 0.9.1
 _ZN2Tp7Channel24GroupMemberChangeDetailsC2Ev@Base 0.9.1
 _ZN2Tp7Channel24GroupMemberChangeDetailsD1Ev@Base 0.9.1
 _ZN2Tp7Channel24GroupMemberChangeDetailsD2Ev@Base 0.9.1
 _ZN2Tp7Channel24GroupMemberChangeDetailsaSERKS1_@Base 0.9.1
 _ZN2Tp7Channel24conferenceChannelRemovedERKNS_9SharedPtrIS0_EERKNS0_24GroupMemberChangeDetailsE@Base 0.9.1
 _ZN2Tp7Channel24groupHandleOwnersChangedERKNS_14HandleOwnerMapERKNS_8UIntListES6_@Base 0.9.1
 _ZN2Tp7Channel26groupCanAddContactsChangedEb@Base 0.9.1
 _ZN2Tp7Channel29groupCanRemoveContactsChangedEb@Base 0.9.1
 _ZN2Tp7Channel30groupCanRescindContactsChangedEb@Base 0.9.1
 _ZN2Tp7Channel39FeatureConferenceInitialInviteeContactsE@Base 0.9.1
 _ZN2Tp7Channel6createERKNS_9SharedPtrINS_10ConnectionEEERK7QStringRK4QMapIS6_8QVariantE@Base 0.9.1
 _ZN2Tp7ChannelC1ERKNS_9SharedPtrINS_10ConnectionEEERK7QStringRK4QMapIS6_8QVariantERKNS_7FeatureE@Base 0.9.1
 _ZN2Tp7ChannelC2ERKNS_9SharedPtrINS_10ConnectionEEERK7QStringRK4QMapIS6_8QVariantERKNS_7FeatureE@Base 0.9.1
 _ZN2Tp7ChannelD0Ev@Base 0.9.1
 _ZN2Tp7ChannelD1Ev@Base 0.9.1
 _ZN2Tp7ChannelD2Ev@Base 0.9.1
 _ZN2Tp7Contact10InfoFieldsC1ERK5QListINS_16ContactInfoFieldEE@Base 0.9.1
 _ZN2Tp7Contact10InfoFieldsC1ERKS1_@Base 0.9.1
 _ZN2Tp7Contact10InfoFieldsC1Ev@Base 0.9.1
 _ZN2Tp7Contact10InfoFieldsC2ERK5QListINS_16ContactInfoFieldEE@Base 0.9.1
 _ZN2Tp7Contact10InfoFieldsC2ERKS1_@Base 0.9.1
 _ZN2Tp7Contact10InfoFieldsC2Ev@Base 0.9.1
 _ZN2Tp7Contact10InfoFieldsD1Ev@Base 0.9.1
 _ZN2Tp7Contact10InfoFieldsD2Ev@Base 0.9.1
 _ZN2Tp7Contact10InfoFieldsaSERKS1_@Base 0.9.1
 _ZN2Tp7Contact10addToGroupERK7QString@Base 0.9.1
 _ZN2Tp7Contact11FeatureInfoE@Base 0.9.1
 _ZN2Tp7Contact11qt_metacallEN11QMetaObject4CallEiPPv@Base 0.9.1
 _ZN2Tp7Contact11qt_metacastEPKc@Base 0.9.1
 _ZN2Tp7Contact11refreshInfoEv@Base 0.9.1
 _ZN2Tp7Contact11requestInfoEv@Base 0.9.1
 _ZN2Tp7Contact12FeatureAliasE@Base 0.9.1
 _ZN2Tp7Contact12addedToGroupERK7QString@Base 0.9.1
 _ZN2Tp7Contact12aliasChangedERK7QString@Base 0.9.1
 _ZN2Tp7Contact15FeatureLocationE@Base 0.9.1
 _ZN2Tp7Contact15locationUpdatedERKNS_12LocationInfoE@Base 0.9.1
 _ZN2Tp7Contact15presenceChangedERKNS_8PresenceE@Base 0.9.1
 _ZN2Tp7Contact15removeFromGroupERK7QString@Base 0.9.1
 _ZN2Tp7Contact16FeatureAddressesE@Base 0.9.1
 _ZN2Tp7Contact16removedFromGroupERK7QString@Base 0.9.1
 _ZN2Tp7Contact16staticMetaObjectE@Base 0.9.1
 _ZN2Tp7Contact17FeatureAvatarDataE@Base 0.9.1
 _ZN2Tp7Contact17avatarDataChangedERKNS_10AvatarDataE@Base 0.9.1
 _ZN2Tp7Contact17infoFieldsChangedERKNS0_10InfoFieldsE@Base 0.9.1
 _ZN2Tp7Contact17requestAvatarDataEv@Base 0.9.1
 _ZN2Tp7Contact18FeatureAvatarTokenE@Base 0.9.1
 _ZN2Tp7Contact18avatarTokenChangedERK7QString@Base 0.9.1
 _ZN2Tp7Contact18blockStatusChangedEb@Base 0.9.1
 _ZN2Tp7Contact19FeatureCapabilitiesE@Base 0.9.1
 _ZN2Tp7Contact19FeatureRosterGroupsE@Base 0.9.1
 _ZN2Tp7Contact19blockAndReportAbuseEv@Base 0.9.1
 _ZN2Tp7Contact19capabilitiesChangedERKNS_19ContactCapabilitiesE@Base 0.9.1
 _ZN2Tp7Contact19publishStateChangedENS0_13PresenceStateERK7QString@Base 0.9.1
 _ZN2Tp7Contact21FeatureSimplePresenceE@Base 0.9.1
 _ZN2Tp7Contact24subscriptionStateChangedENS0_13PresenceStateE@Base 0.9.1
 _ZN2Tp7Contact25removePresencePublicationERK7QString@Base 0.9.1
 _ZN2Tp7Contact26removePresenceSubscriptionERK7QString@Base 0.9.1
 _ZN2Tp7Contact27requestPresenceSubscriptionERK7QString@Base 0.9.1
 _ZN2Tp7Contact28authorizePresencePublicationERK7QString@Base 0.9.1
 _ZN2Tp7Contact5blockEv@Base 0.9.1
 _ZN2Tp7Contact7augmentERKNS_8FeaturesERK4QMapI7QString8QVariantE@Base 0.9.1
 _ZN2Tp7Contact7unblockEv@Base 0.9.1
 _ZN2Tp7ContactC1EPNS_14ContactManagerERKNS_17ReferencedHandlesERKNS_8FeaturesERK4QMapI7QString8QVariantE@Base 0.9.1
 _ZN2Tp7ContactC2EPNS_14ContactManagerERKNS_17ReferencedHandlesERKNS_8FeaturesERK4QMapI7QString8QVariantE@Base 0.9.1
 _ZN2Tp7ContactD0Ev@Base 0.9.1
 _ZN2Tp7ContactD1Ev@Base 0.9.1
 _ZN2Tp7ContactD2Ev@Base 0.9.1
 _ZN2Tp7FeatureC1ERK7QStringjb@Base 0.9.1
 _ZN2Tp7FeatureC1ERKS0_@Base 0.9.1
 _ZN2Tp7FeatureC1Ev@Base 0.9.1
 _ZN2Tp7FeatureC2ERK7QStringjb@Base 0.9.1
 _ZN2Tp7FeatureC2ERKS0_@Base 0.9.1
 _ZN2Tp7FeatureC2Ev@Base 0.9.1
 _ZN2Tp7FeatureD1Ev@Base 0.9.1
 _ZN2Tp7FeatureD2Ev@Base 0.9.1
 _ZN2Tp7FeatureaSERKS0_@Base 0.9.1
 (optional=inline|arch=amd64 i386)_ZN2Tp7MailURLC1ERKS0_@Base 0.9.1
 (optional=inline|arch=amd64 i386)_ZN2Tp7MailURLC2ERKS0_@Base 0.9.1
 _ZN2Tp7MessageC1ENS_22ChannelTextMessageTypeERK7QString@Base 0.9.1
 _ZN2Tp7MessageC1ERKS0_@Base 0.9.1
 _ZN2Tp7MessageC2ENS_22ChannelTextMessageTypeERK7QString@Base 0.9.1
 _ZN2Tp7MessageC2ERKS0_@Base 0.9.1
 _ZN2Tp7MessageD1Ev@Base 0.9.1
 _ZN2Tp7MessageD2Ev@Base 0.9.1
 _ZN2Tp7MessageaSERKS0_@Base 0.9.1
 _ZN2Tp7Profile17createForFileNameERK7QString@Base 0.9.1
 _ZN2Tp7Profile20createForServiceNameERK7QString@Base 0.9.1
 _ZN2Tp7Profile8PresenceC1ERK7QStringS4_S4_S4_b@Base 0.9.1
 _ZN2Tp7Profile8PresenceC1ERKS1_@Base 0.9.1
 _ZN2Tp7Profile8PresenceC1Ev@Base 0.9.1
 _ZN2Tp7Profile8PresenceC2ERK7QStringS4_S4_S4_b@Base 0.9.1
 _ZN2Tp7Profile8PresenceC2ERKS1_@Base 0.9.1
 _ZN2Tp7Profile8PresenceC2Ev@Base 0.9.1
 _ZN2Tp7Profile8PresenceD1Ev@Base 0.9.1
 _ZN2Tp7Profile8PresenceD2Ev@Base 0.9.1
 _ZN2Tp7Profile8PresenceaSERKS1_@Base 0.9.1
 _ZN2Tp7Profile9ParameterC1ERK7QStringRK14QDBusSignatureRK8QVariantS4_b@Base 0.9.1
 _ZN2Tp7Profile9ParameterC1ERKS1_@Base 0.9.1
 _ZN2Tp7Profile9ParameterC1Ev@Base 0.9.1
 _ZN2Tp7Profile9ParameterC2ERK7QStringRK14QDBusSignatureRK8QVariantS4_b@Base 0.9.1
 _ZN2Tp7Profile9ParameterC2ERKS1_@Base 0.9.1
 _ZN2Tp7Profile9ParameterC2Ev@Base 0.9.1
 _ZN2Tp7Profile9ParameterD1Ev@Base 0.9.1
 _ZN2Tp7Profile9ParameterD2Ev@Base 0.9.1
 _ZN2Tp7Profile9ParameteraSERKS1_@Base 0.9.1
 _ZN2Tp7ProfileD0Ev@Base 0.9.1
 _ZN2Tp7ProfileD1Ev@Base 0.9.1
 _ZN2Tp7ProfileD2Ev@Base 0.9.1
 (optional=inline|arch=amd64 armhf)_ZN2Tp8FeaturesC1ERKS0_@Base 0.9.1
 (optional=inline|arch=amd64 armhf)_ZN2Tp8FeaturesC2ERKS0_@Base 0.9.1
 (optional=inline)_ZN2Tp8FeaturesD1Ev@Base 0.9.1
 (optional=inline)_ZN2Tp8FeaturesD2Ev@Base 0.9.1
 _ZN2Tp8Presence16setStatusMessageERK7QString@Base 0.9.1
 _ZN2Tp8Presence2xaERK7QString@Base 0.9.1
 _ZN2Tp8Presence3brbERK7QString@Base 0.9.1
 _ZN2Tp8Presence4awayERK7QString@Base 0.9.1
 _ZN2Tp8Presence4busyERK7QString@Base 0.9.1
 _ZN2Tp8Presence6hiddenERK7QString@Base 0.9.1
 _ZN2Tp8Presence7offlineERK7QString@Base 0.9.1
 _ZN2Tp8Presence9availableERK7QString@Base 0.9.1
 _ZN2Tp8Presence9setStatusENS_22ConnectionPresenceTypeERK7QStringS4_@Base 0.9.1
 _ZN2Tp8Presence9setStatusERKNS_14SimplePresenceE@Base 0.9.1
 _ZN2Tp8PresenceC1ENS_22ConnectionPresenceTypeERK7QStringS4_@Base 0.9.1
 _ZN2Tp8PresenceC1ERKNS_14SimplePresenceE@Base 0.9.1
 _ZN2Tp8PresenceC1ERKS0_@Base 0.9.1
 _ZN2Tp8PresenceC1Ev@Base 0.9.1
 _ZN2Tp8PresenceC2ENS_22ConnectionPresenceTypeERK7QStringS4_@Base 0.9.1
 _ZN2Tp8PresenceC2ERKNS_14SimplePresenceE@Base 0.9.1
 _ZN2Tp8PresenceC2ERKS0_@Base 0.9.1
 _ZN2Tp8PresenceC2Ev@Base 0.9.1
 _ZN2Tp8PresenceD1Ev@Base 0.9.1
 _ZN2Tp8PresenceD2Ev@Base 0.9.1
 _ZN2Tp8PresenceaSERKS0_@Base 0.9.1
 (optional=inline|arch=amd64 i386)_ZN2Tp8RoomInfoC1ERKS0_@Base 0.9.1
 (optional=inline|arch=amd64 i386)_ZN2Tp8RoomInfoC2ERKS0_@Base 0.9.1
 (optional=inline)_ZN2Tp8RoomInfoD1Ev@Base 0.9.1
 (optional=inline)_ZN2Tp8RoomInfoD2Ev@Base 0.9.1
 (optional=inline|arch=amd64 i386)_ZN2Tp8TubeInfoC1ERKS0_@Base 0.9.1
 (optional=inline|arch=amd64 i386)_ZN2Tp8TubeInfoC2ERKS0_@Base 0.9.1
 (optional=inline)_ZN2Tp8TubeInfoD1Ev@Base 0.9.1
 (optional=inline)_ZN2Tp8TubeInfoD2Ev@Base 0.9.1
 (optional=inline|arch=amd64 i386)_ZN2Tp8UIntListC1ERKS0_@Base 0.9.1
 (optional=inline|arch=amd64 i386)_ZN2Tp8UIntListC2ERKS0_@Base 0.9.1
 (optional=inline)_ZN2Tp8UIntListD1Ev@Base 0.9.1
 (optional=inline)_ZN2Tp8UIntListD2Ev@Base 0.9.1
 (optional=inline|arch=amd64 i386)_ZN2Tp9AliasPairD1Ev@Base 0.9.1
 (optional=inline|arch=amd64 i386)_ZN2Tp9AliasPairD2Ev@Base 0.9.1
 (optional=inline|arch=amd64 i386)_ZN2Tp9CandidateC1ERKS0_@Base 0.9.1
 (optional=inline|arch=amd64 i386)_ZN2Tp9CandidateC2ERKS0_@Base 0.9.1
 (optional=inline)_ZN2Tp9CandidateD1Ev@Base 0.9.1
 (optional=inline)_ZN2Tp9CandidateD2Ev@Base 0.9.1
 _ZN2Tp9DBusProxy10invalidateERK10QDBusError@Base 0.9.1
 _ZN2Tp9DBusProxy10invalidateERK7QStringS3_@Base 0.9.1
 _ZN2Tp9DBusProxy10setBusNameERK7QString@Base 0.9.1
 _ZN2Tp9DBusProxy11invalidatedEPS0_RK7QStringS4_@Base 0.9.1
 _ZN2Tp9DBusProxy11qt_metacallEN11QMetaObject4CallEiPPv@Base 0.9.1
 _ZN2Tp9DBusProxy11qt_metacastEPKc@Base 0.9.1
 _ZN2Tp9DBusProxy16staticMetaObjectE@Base 0.9.1
 _ZN2Tp9DBusProxyC1ERK15QDBusConnectionRK7QStringS6_RKNS_7FeatureE@Base 0.9.1
 _ZN2Tp9DBusProxyC2ERK15QDBusConnectionRK7QStringS6_RKNS_7FeatureE@Base 0.9.1
 _ZN2Tp9DBusProxyD0Ev@Base 0.9.1
 _ZN2Tp9DBusProxyD1Ev@Base 0.9.1
 _ZN2Tp9DBusProxyD2Ev@Base 0.9.1
 (optional=inline|arch=amd64 i386)_ZN2Tp9FieldSpecC1ERKS0_@Base 0.9.1
 (optional=inline|arch=amd64 i386)_ZN2Tp9FieldSpecC2ERKS0_@Base 0.9.1
 (optional=inline)_ZN2Tp9FieldSpecD1Ev@Base 0.9.1
 (optional=inline)_ZN2Tp9FieldSpecD2Ev@Base 0.9.1
 (optional=inline|arch=amd64 i386)_ZN2Tp9ParamSpecC1ERKS0_@Base 0.9.1
 (optional=inline|arch=amd64 i386)_ZN2Tp9ParamSpecC2ERKS0_@Base 0.9.1
 (optional=inline)_ZN2Tp9ParamSpecD1Ev@Base 0.9.1
 (optional=inline)_ZN2Tp9ParamSpecD2Ev@Base 0.9.1
 _ZN2TpeqERKNS_10StatusSpecES2_@Base 0.9.1
 _ZN2TpeqERKNS_11CaptchaInfoES2_@Base 0.9.1
 _ZN2TpeqERKNS_11ChannelInfoES2_@Base 0.9.1
 _ZN2TpeqERKNS_11MailAddressES2_@Base 0.9.1
 _ZN2TpeqERKNS_12HTTPPostDataES2_@Base 0.9.1
 _ZN2TpeqERKNS_12PropertySpecES2_@Base 0.9.1
 _ZN2TpeqERKNS_12ServicePointES2_@Base 0.9.1
 _ZN2TpeqERKNS_13AccessControlES2_@Base 0.9.1
 _ZN2TpeqERKNS_13CandidatePairES2_@Base 0.9.1
 _ZN2TpeqERKNS_13PropertyValueES2_@Base 0.9.1
 _ZN2TpeqERKNS_14CapabilityPairES2_@Base 0.9.1
 _ZN2TpeqERKNS_14ChannelDetailsES2_@Base 0.9.1
 _ZN2TpeqERKNS_14CurrencyAmountES2_@Base 0.9.1
 _ZN2TpeqERKNS_14DBusTubeMemberES2_@Base 0.9.1
 _ZN2TpeqERKNS_14SimplePresenceES2_@Base 0.9.1
 _ZN2TpeqERKNS_15CallStateReasonES2_@Base 0.9.1
 _ZN2TpeqERKNS_15MediaStreamInfoES2_@Base 0.9.1
 _ZN2TpeqERKNS_15SUSocketAddressES2_@Base 0.9.1
 _ZN2TpeqERKNS_15SocketAddressIPES2_@Base 0.9.1
 _ZN2TpeqERKNS_15VideoResolutionES2_@Base 0.9.1
 _ZN2TpeqERKNS_16CapabilityChangeES2_@Base 0.9.1
 _ZN2TpeqERKNS_16ContactInfoFieldES2_@Base 0.9.1
 _ZN2TpeqERKNS_16LocalPendingInfoES2_@Base 0.9.1
 _ZN2TpeqERKNS_16ServicePointInfoES2_@Base 0.9.1
 _ZN2TpeqERKNS_16SimpleStatusSpecES2_@Base 0.9.1
 _ZN2TpeqERKNS_17ContactCapabilityES2_@Base 0.9.1
 _ZN2TpeqERKNS_17NotDelegatedErrorES2_@Base 0.9.1
 _ZN2TpeqERKNS_17SocketAddressIPv4ES2_@Base 0.9.1
 _ZN2TpeqERKNS_17SocketAddressIPv6ES2_@Base 0.9.1
 _ZN2TpeqERKNS_17SocketNetmaskIPv4ES2_@Base 0.9.1
 _ZN2TpeqERKNS_17SocketNetmaskIPv6ES2_@Base 0.9.1
 _ZN2TpeqERKNS_17StreamCredentialsES2_@Base 0.9.1
 _ZN2TpeqERKNS_18PendingTextMessageES2_@Base 0.9.1
 _ZN2TpeqERKNS_18RTPHeaderExtensionES2_@Base 0.9.1
 _ZN2TpeqERKNS_19HandlerCapabilitiesES2_@Base 0.9.1
 _ZN2TpeqERKNS_19PropertyFlagsChangeES2_@Base 0.9.1
 _ZN2TpeqERKNS_19RTCPFeedbackMessageES2_@Base 0.9.1
 _ZN2TpeqERKNS_20ContactSubscriptionsES2_@Base 0.9.1
 _ZN2TpeqERKNS_21MediaDescriptionOfferES2_@Base 0.9.1
 _ZN2TpeqERKNS_23LastActivityAndStatusesES2_@Base 0.9.1
 _ZN2TpeqERKNS_23MediaSessionHandlerInfoES2_@Base 0.9.1
 _ZN2TpeqERKNS_23MediaStreamHandlerCodecES2_@Base 0.9.1
 _ZN2TpeqERKNS_23RequestableChannelClassES2_@Base 0.9.1
 _ZN2TpeqERKNS_23TLSCertificateRejectionES2_@Base 0.9.1
 _ZN2TpeqERKNS_25RichPresenceAccessControlES2_@Base 0.9.1
 _ZN2TpeqERKNS_27MediaStreamHandlerCandidateES2_@Base 0.9.1
 _ZN2TpeqERKNS_27MediaStreamHandlerTransportES2_@Base 0.9.1
 _ZN2TpeqERKNS_29RTCPFeedbackMessagePropertiesES2_@Base 0.9.1
 _ZN2TpeqERKNS_5CodecES2_@Base 0.9.1
 _ZN2TpeqERKNS_6AvatarES2_@Base 0.9.1
 _ZN2TpeqERKNS_7MailURLES2_@Base 0.9.1
 _ZN2TpeqERKNS_8RoomInfoES2_@Base 0.9.1
 _ZN2TpeqERKNS_8TubeInfoES2_@Base 0.9.1
 _ZN2TpeqERKNS_9AliasPairES2_@Base 0.9.1
 _ZN2TpeqERKNS_9CandidateES2_@Base 0.9.1
 _ZN2TpeqERKNS_9FieldSpecES2_@Base 0.9.1
 _ZN2TpeqERKNS_9ParamSpecES2_@Base 0.9.1
 _ZN2TplsER13QDBusArgumentRKNS_10StatusSpecE@Base 0.9.1
 _ZN2TplsER13QDBusArgumentRKNS_11CaptchaInfoE@Base 0.9.1
 _ZN2TplsER13QDBusArgumentRKNS_11ChannelInfoE@Base 0.9.1
 _ZN2TplsER13QDBusArgumentRKNS_11MailAddressE@Base 0.9.1
 _ZN2TplsER13QDBusArgumentRKNS_12HTTPPostDataE@Base 0.9.1
 _ZN2TplsER13QDBusArgumentRKNS_12PropertySpecE@Base 0.9.1
 _ZN2TplsER13QDBusArgumentRKNS_12ServicePointE@Base 0.9.1
 _ZN2TplsER13QDBusArgumentRKNS_13AccessControlE@Base 0.9.1
 _ZN2TplsER13QDBusArgumentRKNS_13CandidatePairE@Base 0.9.1
 _ZN2TplsER13QDBusArgumentRKNS_13PropertyValueE@Base 0.9.1
 _ZN2TplsER13QDBusArgumentRKNS_14CapabilityPairE@Base 0.9.1
 _ZN2TplsER13QDBusArgumentRKNS_14ChannelDetailsE@Base 0.9.1
 _ZN2TplsER13QDBusArgumentRKNS_14CurrencyAmountE@Base 0.9.1
 _ZN2TplsER13QDBusArgumentRKNS_14DBusTubeMemberE@Base 0.9.1
 _ZN2TplsER13QDBusArgumentRKNS_14SimplePresenceE@Base 0.9.1
 _ZN2TplsER13QDBusArgumentRKNS_15CallStateReasonE@Base 0.9.1
 _ZN2TplsER13QDBusArgumentRKNS_15MediaStreamInfoE@Base 0.9.1
 _ZN2TplsER13QDBusArgumentRKNS_15SUSocketAddressE@Base 0.9.1
 _ZN2TplsER13QDBusArgumentRKNS_15SocketAddressIPE@Base 0.9.1
 _ZN2TplsER13QDBusArgumentRKNS_15VideoResolutionE@Base 0.9.1
 _ZN2TplsER13QDBusArgumentRKNS_16CapabilityChangeE@Base 0.9.1
 _ZN2TplsER13QDBusArgumentRKNS_16ContactInfoFieldE@Base 0.9.1
 _ZN2TplsER13QDBusArgumentRKNS_16LocalPendingInfoE@Base 0.9.1
 _ZN2TplsER13QDBusArgumentRKNS_16ServicePointInfoE@Base 0.9.1
 _ZN2TplsER13QDBusArgumentRKNS_16SimpleStatusSpecE@Base 0.9.1
 _ZN2TplsER13QDBusArgumentRKNS_17ContactCapabilityE@Base 0.9.1
 _ZN2TplsER13QDBusArgumentRKNS_17NotDelegatedErrorE@Base 0.9.1
 _ZN2TplsER13QDBusArgumentRKNS_17SocketAddressIPv4E@Base 0.9.1
 _ZN2TplsER13QDBusArgumentRKNS_17SocketAddressIPv6E@Base 0.9.1
 _ZN2TplsER13QDBusArgumentRKNS_17SocketNetmaskIPv4E@Base 0.9.1
 _ZN2TplsER13QDBusArgumentRKNS_17SocketNetmaskIPv6E@Base 0.9.1
 _ZN2TplsER13QDBusArgumentRKNS_17StreamCredentialsE@Base 0.9.1
 _ZN2TplsER13QDBusArgumentRKNS_18PendingTextMessageE@Base 0.9.1
 _ZN2TplsER13QDBusArgumentRKNS_18RTPHeaderExtensionE@Base 0.9.1
 _ZN2TplsER13QDBusArgumentRKNS_19HandlerCapabilitiesE@Base 0.9.1
 _ZN2TplsER13QDBusArgumentRKNS_19PropertyFlagsChangeE@Base 0.9.1
 _ZN2TplsER13QDBusArgumentRKNS_19RTCPFeedbackMessageE@Base 0.9.1
 _ZN2TplsER13QDBusArgumentRKNS_20ContactSubscriptionsE@Base 0.9.1
 _ZN2TplsER13QDBusArgumentRKNS_21MediaDescriptionOfferE@Base 0.9.1
 _ZN2TplsER13QDBusArgumentRKNS_23LastActivityAndStatusesE@Base 0.9.1
 _ZN2TplsER13QDBusArgumentRKNS_23MediaSessionHandlerInfoE@Base 0.9.1
 _ZN2TplsER13QDBusArgumentRKNS_23MediaStreamHandlerCodecE@Base 0.9.1
 _ZN2TplsER13QDBusArgumentRKNS_23RequestableChannelClassE@Base 0.9.1
 _ZN2TplsER13QDBusArgumentRKNS_23TLSCertificateRejectionE@Base 0.9.1
 _ZN2TplsER13QDBusArgumentRKNS_25RichPresenceAccessControlE@Base 0.9.1
 _ZN2TplsER13QDBusArgumentRKNS_27MediaStreamHandlerCandidateE@Base 0.9.1
 _ZN2TplsER13QDBusArgumentRKNS_27MediaStreamHandlerTransportE@Base 0.9.1
 _ZN2TplsER13QDBusArgumentRKNS_29RTCPFeedbackMessagePropertiesE@Base 0.9.1
 _ZN2TplsER13QDBusArgumentRKNS_5CodecE@Base 0.9.1
 _ZN2TplsER13QDBusArgumentRKNS_6AvatarE@Base 0.9.1
 _ZN2TplsER13QDBusArgumentRKNS_7MailURLE@Base 0.9.1
 _ZN2TplsER13QDBusArgumentRKNS_8RoomInfoE@Base 0.9.1
 _ZN2TplsER13QDBusArgumentRKNS_8TubeInfoE@Base 0.9.1
 _ZN2TplsER13QDBusArgumentRKNS_9AliasPairE@Base 0.9.1
 _ZN2TplsER13QDBusArgumentRKNS_9CandidateE@Base 0.9.1
 _ZN2TplsER13QDBusArgumentRKNS_9FieldSpecE@Base 0.9.1
 _ZN2TplsER13QDBusArgumentRKNS_9ParamSpecE@Base 0.9.1
 _ZN2TprsERK13QDBusArgumentRNS_10StatusSpecE@Base 0.9.1
 _ZN2TprsERK13QDBusArgumentRNS_11CaptchaInfoE@Base 0.9.1
 _ZN2TprsERK13QDBusArgumentRNS_11ChannelInfoE@Base 0.9.1
 _ZN2TprsERK13QDBusArgumentRNS_11MailAddressE@Base 0.9.1
 _ZN2TprsERK13QDBusArgumentRNS_12HTTPPostDataE@Base 0.9.1
 _ZN2TprsERK13QDBusArgumentRNS_12PropertySpecE@Base 0.9.1
 _ZN2TprsERK13QDBusArgumentRNS_12ServicePointE@Base 0.9.1
 _ZN2TprsERK13QDBusArgumentRNS_13AccessControlE@Base 0.9.1
 _ZN2TprsERK13QDBusArgumentRNS_13CandidatePairE@Base 0.9.1
 _ZN2TprsERK13QDBusArgumentRNS_13PropertyValueE@Base 0.9.1
 _ZN2TprsERK13QDBusArgumentRNS_14CapabilityPairE@Base 0.9.1
 _ZN2TprsERK13QDBusArgumentRNS_14ChannelDetailsE@Base 0.9.1
 _ZN2TprsERK13QDBusArgumentRNS_14CurrencyAmountE@Base 0.9.1
 _ZN2TprsERK13QDBusArgumentRNS_14DBusTubeMemberE@Base 0.9.1
 _ZN2TprsERK13QDBusArgumentRNS_14SimplePresenceE@Base 0.9.1
 _ZN2TprsERK13QDBusArgumentRNS_15CallStateReasonE@Base 0.9.1
 _ZN2TprsERK13QDBusArgumentRNS_15MediaStreamInfoE@Base 0.9.1
 _ZN2TprsERK13QDBusArgumentRNS_15SUSocketAddressE@Base 0.9.1
 _ZN2TprsERK13QDBusArgumentRNS_15SocketAddressIPE@Base 0.9.1
 _ZN2TprsERK13QDBusArgumentRNS_15VideoResolutionE@Base 0.9.1
 _ZN2TprsERK13QDBusArgumentRNS_16CapabilityChangeE@Base 0.9.1
 _ZN2TprsERK13QDBusArgumentRNS_16ContactInfoFieldE@Base 0.9.1
 _ZN2TprsERK13QDBusArgumentRNS_16LocalPendingInfoE@Base 0.9.1
 _ZN2TprsERK13QDBusArgumentRNS_16ServicePointInfoE@Base 0.9.1
 _ZN2TprsERK13QDBusArgumentRNS_16SimpleStatusSpecE@Base 0.9.1
 _ZN2TprsERK13QDBusArgumentRNS_17ContactCapabilityE@Base 0.9.1
 _ZN2TprsERK13QDBusArgumentRNS_17NotDelegatedErrorE@Base 0.9.1
 _ZN2TprsERK13QDBusArgumentRNS_17SocketAddressIPv4E@Base 0.9.1
 _ZN2TprsERK13QDBusArgumentRNS_17SocketAddressIPv6E@Base 0.9.1
 _ZN2TprsERK13QDBusArgumentRNS_17SocketNetmaskIPv4E@Base 0.9.1
 _ZN2TprsERK13QDBusArgumentRNS_17SocketNetmaskIPv6E@Base 0.9.1
 _ZN2TprsERK13QDBusArgumentRNS_17StreamCredentialsE@Base 0.9.1
 _ZN2TprsERK13QDBusArgumentRNS_18PendingTextMessageE@Base 0.9.1
 _ZN2TprsERK13QDBusArgumentRNS_18RTPHeaderExtensionE@Base 0.9.1
 _ZN2TprsERK13QDBusArgumentRNS_19HandlerCapabilitiesE@Base 0.9.1
 _ZN2TprsERK13QDBusArgumentRNS_19PropertyFlagsChangeE@Base 0.9.1
 _ZN2TprsERK13QDBusArgumentRNS_19RTCPFeedbackMessageE@Base 0.9.1
 _ZN2TprsERK13QDBusArgumentRNS_20ContactSubscriptionsE@Base 0.9.1
 _ZN2TprsERK13QDBusArgumentRNS_21MediaDescriptionOfferE@Base 0.9.1
 _ZN2TprsERK13QDBusArgumentRNS_23LastActivityAndStatusesE@Base 0.9.1
 _ZN2TprsERK13QDBusArgumentRNS_23MediaSessionHandlerInfoE@Base 0.9.1
 _ZN2TprsERK13QDBusArgumentRNS_23MediaStreamHandlerCodecE@Base 0.9.1
 _ZN2TprsERK13QDBusArgumentRNS_23RequestableChannelClassE@Base 0.9.1
 _ZN2TprsERK13QDBusArgumentRNS_23TLSCertificateRejectionE@Base 0.9.1
 _ZN2TprsERK13QDBusArgumentRNS_25RichPresenceAccessControlE@Base 0.9.1
 _ZN2TprsERK13QDBusArgumentRNS_27MediaStreamHandlerCandidateE@Base 0.9.1
 _ZN2TprsERK13QDBusArgumentRNS_27MediaStreamHandlerTransportE@Base 0.9.1
 _ZN2TprsERK13QDBusArgumentRNS_29RTCPFeedbackMessagePropertiesE@Base 0.9.1
 _ZN2TprsERK13QDBusArgumentRNS_5CodecE@Base 0.9.1
 _ZN2TprsERK13QDBusArgumentRNS_6AvatarE@Base 0.9.1
 _ZN2TprsERK13QDBusArgumentRNS_7MailURLE@Base 0.9.1
 _ZN2TprsERK13QDBusArgumentRNS_8RoomInfoE@Base 0.9.1
 _ZN2TprsERK13QDBusArgumentRNS_8TubeInfoE@Base 0.9.1
 _ZN2TprsERK13QDBusArgumentRNS_9AliasPairE@Base 0.9.1
 _ZN2TprsERK13QDBusArgumentRNS_9CandidateE@Base 0.9.1
 _ZN2TprsERK13QDBusArgumentRNS_9FieldSpecE@Base 0.9.1
 _ZN2TprsERK13QDBusArgumentRNS_9ParamSpecE@Base 0.9.1
 _ZNK2Tp10AccountSet10metaObjectEv@Base 0.9.1
 _ZNK2Tp10AccountSet14accountManagerEv@Base 0.9.1
 _ZNK2Tp10AccountSet6filterEv@Base 0.9.1
 _ZNK2Tp10AccountSet8accountsEv@Base 0.9.1
 _ZNK2Tp10AvatarSpec12maximumBytesEv@Base 0.9.1
 _ZNK2Tp10AvatarSpec12maximumWidthEv@Base 0.9.1
 _ZNK2Tp10AvatarSpec12minimumWidthEv@Base 0.9.1
 _ZNK2Tp10AvatarSpec13maximumHeightEv@Base 0.9.1
 _ZNK2Tp10AvatarSpec13minimumHeightEv@Base 0.9.1
 _ZNK2Tp10AvatarSpec16recommendedWidthEv@Base 0.9.1
 _ZNK2Tp10AvatarSpec17recommendedHeightEv@Base 0.9.1
 _ZNK2Tp10AvatarSpec18supportedMimeTypesEv@Base 0.9.1
 _ZNK2Tp10CallStream10metaObjectEv@Base 0.9.1
 _ZNK2Tp10CallStream13remoteMembersEv@Base 0.9.1
 _ZNK2Tp10CallStream17localSendingStateEv@Base 0.9.1
 _ZNK2Tp10CallStream18remoteSendingStateERKNS_9SharedPtrINS_7ContactEEE@Base 0.9.1
 _ZNK2Tp10CallStream19canRequestReceivingEv@Base 0.9.1
 _ZNK2Tp10CallStream7contentEv@Base 0.9.1
 _ZNK2Tp10Connection10metaObjectEv@Base 0.9.1
 _ZNK2Tp10Connection10selfHandleEv@Base 0.9.1
 _ZNK2Tp10Connection11selfContactEv@Base 0.9.1
 _ZNK2Tp10Connection12ErrorDetails10allDetailsEv@Base 0.9.1
 _ZNK2Tp10Connection12capabilitiesEv@Base 0.9.1
 _ZNK2Tp10Connection12errorDetailsEv@Base 0.9.1
 _ZNK2Tp10Connection12protocolNameEv@Base 0.9.1
 _ZNK2Tp10Connection12statusReasonEv@Base 0.9.1
 _ZNK2Tp10Connection13baseInterfaceEv@Base 0.9.1
 _ZNK2Tp10Connection14accountBalanceEv@Base 0.9.1
 _ZNK2Tp10Connection14channelFactoryEv@Base 0.9.1
 _ZNK2Tp10Connection14contactFactoryEv@Base 0.9.1
 _ZNK2Tp10Connection14contactManagerEv@Base 0.9.1
 _ZNK2Tp10Connection6cmNameEv@Base 0.9.1
 _ZNK2Tp10Connection6statusEv@Base 0.9.1
 _ZNK2Tp10Connection8lowlevelEv@Base 0.9.1
 _ZNK2Tp11CallChannel10metaObjectEv@Base 0.9.1
 _ZNK2Tp11CallChannel13contentByNameERK7QString@Base 0.9.1
 _ZNK2Tp11CallChannel13remoteMembersEv@Base 0.9.1
 _ZNK2Tp11CallChannel14localHoldStateEv@Base 0.9.1
 _ZNK2Tp11CallChannel15callStateReasonEv@Base 0.9.1
 _ZNK2Tp11CallChannel15contentsForTypeENS_15MediaStreamTypeE@Base 0.9.1
 _ZNK2Tp11CallChannel15hasInitialAudioEv@Base 0.9.1
 _ZNK2Tp11CallChannel15hasInitialVideoEv@Base 0.9.1
 _ZNK2Tp11CallChannel16callStateDetailsEv@Base 0.9.1
 _ZNK2Tp11CallChannel16initialAudioNameEv@Base 0.9.1
 _ZNK2Tp11CallChannel16initialVideoNameEv@Base 0.9.1
 _ZNK2Tp11CallChannel17remoteMemberFlagsERKNS_9SharedPtrINS_7ContactEEE@Base 0.9.1
 _ZNK2Tp11CallChannel18hasMutableContentsEv@Base 0.9.1
 _ZNK2Tp11CallChannel20initialTransportTypeEv@Base 0.9.1
 _ZNK2Tp11CallChannel20localHoldStateReasonEv@Base 0.9.1
 _ZNK2Tp11CallChannel24handlerStreamingRequiredEv@Base 0.9.1
 _ZNK2Tp11CallChannel8contentsEv@Base 0.9.1
 _ZNK2Tp11CallChannel9callFlagsEv@Base 0.9.1
 _ZNK2Tp11CallChannel9callStateEv@Base 0.9.1
 _ZNK2Tp11CallContent10metaObjectEv@Base 0.9.1
 _ZNK2Tp11CallContent11dispositionEv@Base 0.9.1
 _ZNK2Tp11CallContent12supportsDTMFEv@Base 0.9.1
 _ZNK2Tp11CallContent4nameEv@Base 0.9.1
 _ZNK2Tp11CallContent4typeEv@Base 0.9.1
 _ZNK2Tp11CallContent7channelEv@Base 0.9.1
 _ZNK2Tp11CallContent7streamsEv@Base 0.9.1
 _ZNK2Tp11PendingVoid10metaObjectEv@Base 0.9.1
 _ZNK2Tp11ReadyObject14actualFeaturesEv@Base 0.9.1
 _ZNK2Tp11ReadyObject15missingFeaturesEv@Base 0.9.1
 _ZNK2Tp11ReadyObject15readinessHelperEv@Base 0.9.1
 _ZNK2Tp11ReadyObject17requestedFeaturesEv@Base 0.9.1
 _ZNK2Tp11ReadyObject7isReadyERKNS_8FeaturesE@Base 0.9.1
 _ZNK2Tp11TextChannel10metaObjectEv@Base 0.9.1
 _ZNK2Tp11TextChannel12messageQueueEv@Base 0.9.1
 _ZNK2Tp11TextChannel17canInviteContactsEv@Base 0.9.1
 _ZNK2Tp11TextChannel18messagePartSupportEv@Base 0.9.1
 _ZNK2Tp11TextChannel19supportsMessageTypeENS_22ChannelTextMessageTypeE@Base 0.9.1
 _ZNK2Tp11TextChannel20hasMessagesInterfaceEv@Base 0.9.1
 _ZNK2Tp11TextChannel21hasChatStateInterfaceEv@Base 0.9.1
 _ZNK2Tp11TextChannel21supportedContentTypesEv@Base 0.9.1
 _ZNK2Tp11TextChannel21supportedMessageTypesEv@Base 0.9.1
 _ZNK2Tp11TextChannel24deliveryReportingSupportEv@Base 0.9.1
 _ZNK2Tp11TextChannel9chatStateERKNS_9SharedPtrINS_7ContactEEE@Base 0.9.1
 _ZNK2Tp11TubeChannel10metaObjectEv@Base 0.9.1
 _ZNK2Tp11TubeChannel10parametersEv@Base 0.9.1
 _ZNK2Tp11TubeChannel5stateEv@Base 0.9.1
 _ZNK2Tp12LocationInfo10allDetailsEv@Base 0.9.1
 _ZNK2Tp12LocationInfo10postalCodeEv@Base 0.9.1
 _ZNK2Tp12LocationInfo11countryCodeEv@Base 0.9.1
 _ZNK2Tp12LocationInfo11descriptionEv@Base 0.9.1
 _ZNK2Tp12LocationInfo3uriEv@Base 0.9.1
 _ZNK2Tp12LocationInfo4areaEv@Base 0.9.1
 _ZNK2Tp12LocationInfo4roomEv@Base 0.9.1
 _ZNK2Tp12LocationInfo4textEv@Base 0.9.1
 _ZNK2Tp12LocationInfo5floorEv@Base 0.9.1
 _ZNK2Tp12LocationInfo5speedEv@Base 0.9.1
 _ZNK2Tp12LocationInfo6regionEv@Base 0.9.1
 _ZNK2Tp12LocationInfo6streetEv@Base 0.9.1
 _ZNK2Tp12LocationInfo7bearingEv@Base 0.9.1
 _ZNK2Tp12LocationInfo7countryEv@Base 0.9.1
 _ZNK2Tp12LocationInfo8accuracyEv@Base 0.9.1
 _ZNK2Tp12LocationInfo8altitudeEv@Base 0.9.1
 _ZNK2Tp12LocationInfo8buildingEv@Base 0.9.1
 _ZNK2Tp12LocationInfo8languageEv@Base 0.9.1
 _ZNK2Tp12LocationInfo8latitudeEv@Base 0.9.1
 _ZNK2Tp12LocationInfo8localityEv@Base 0.9.1
 _ZNK2Tp12LocationInfo9longitudeEv@Base 0.9.1
 _ZNK2Tp12LocationInfo9timestampEv@Base 0.9.1
 _ZNK2Tp12PendingReady10metaObjectEv@Base 0.9.1
 _ZNK2Tp12PendingReady17requestedFeaturesEv@Base 0.9.1
 _ZNK2Tp12PendingReady5proxyEv@Base 0.9.1
 _ZNK2Tp12PresenceSpec12maySetOnSelfEv@Base 0.9.1
 _ZNK2Tp12PresenceSpec20canHaveStatusMessageEv@Base 0.9.1
 _ZNK2Tp12PresenceSpec8bareSpecEv@Base 0.9.1
 _ZNK2Tp12PresenceSpec8presenceERK7QString@Base 0.9.1
 _ZNK2Tp12PresenceSpeceqERKS0_@Base 0.9.1
 _ZNK2Tp12PresenceSpecltERKS0_@Base 0.9.1
 _ZNK2Tp12PresenceSpecneERKS0_@Base 0.9.1
 _ZNK2Tp12ProtocolInfo10parametersEv@Base 0.9.1
 _ZNK2Tp12ProtocolInfo10vcardFieldEv@Base 0.9.1
 _ZNK2Tp12ProtocolInfo11canRegisterEv@Base 0.9.1
 _ZNK2Tp12ProtocolInfo11englishNameEv@Base 0.9.1
 _ZNK2Tp12ProtocolInfo12capabilitiesEv@Base 0.9.1
 _ZNK2Tp12ProtocolInfo12hasParameterERK7QString@Base 0.9.1
 _ZNK2Tp12ProtocolInfo18avatarRequirementsEv@Base 0.9.1
 _ZNK2Tp12ProtocolInfo21addressableUriSchemesEv@Base 0.9.1
 _ZNK2Tp12ProtocolInfo22addressableVCardFieldsEv@Base 0.9.1
 _ZNK2Tp12ProtocolInfo23allowedPresenceStatusesEv@Base 0.9.1
 _ZNK2Tp12ProtocolInfo4nameEv@Base 0.9.1
 _ZNK2Tp12ProtocolInfo6cmNameEv@Base 0.9.1
 _ZNK2Tp12ProtocolInfo8iconNameEv@Base 0.9.1
 _ZNK2Tp13PendingString10metaObjectEv@Base 0.9.1
 _ZNK2Tp13PendingString6resultEv@Base 0.9.1
 _ZNK2Tp14AbstractClient12isRegisteredEv@Base 0.9.1
 _ZNK2Tp14AccountFactory10metaObjectEv@Base 0.9.1
 _ZNK2Tp14AccountFactory16finalBusNameFromERK7QString@Base 0.9.1
 _ZNK2Tp14AccountFactory5proxyERK7QStringS3_RKNS_9SharedPtrIKNS_17ConnectionFactoryEEERKNS4_IKNS_14ChannelFactoryEEERKNS4_IKNS_14ContactFactoryEEE@Base 0.9.1
 _ZNK2Tp14AccountFactory9constructERK7QStringS3_RKNS_9SharedPtrIKNS_17ConnectionFactoryEEERKNS4_IKNS_14ChannelFactoryEEERKNS4_IKNS_14ContactFactoryEEE@Base 0.9.1
 _ZNK2Tp14AccountManager10metaObjectEv@Base 0.9.1
 _ZNK2Tp14AccountManager11allAccountsEv@Base 0.9.1
 _ZNK2Tp14AccountManager13baseInterfaceEv@Base 0.9.1
 _ZNK2Tp14AccountManager13validAccountsEv@Base 0.9.1
 _ZNK2Tp14AccountManager14accountFactoryEv@Base 0.9.1
 _ZNK2Tp14AccountManager14accountForPathERK7QString@Base 0.9.1
 _ZNK2Tp14AccountManager14channelFactoryEv@Base 0.9.1
 _ZNK2Tp14AccountManager14contactFactoryEv@Base 0.9.1
 _ZNK2Tp14AccountManager14filterAccountsERK4QMapI7QString8QVariantE@Base 0.9.1
 _ZNK2Tp14AccountManager14filterAccountsERKNS_9SharedPtrIKNS_6FilterINS_7AccountEEEEE@Base 0.9.1
 _ZNK2Tp14AccountManager14onlineAccountsEv@Base 0.9.1
 _ZNK2Tp14AccountManager15enabledAccountsEv@Base 0.9.1
 _ZNK2Tp14AccountManager15invalidAccountsEv@Base 0.9.1
 _ZNK2Tp14AccountManager15offlineAccountsEv@Base 0.9.1
 _ZNK2Tp14AccountManager16accountsForPathsERK11QStringList@Base 0.9.1
 _ZNK2Tp14AccountManager16disabledAccountsEv@Base 0.9.1
 _ZNK2Tp14AccountManager16textChatAccountsEv@Base 0.9.1
 _ZNK2Tp14AccountManager17connectionFactoryEv@Base 0.9.1
 _ZNK2Tp14AccountManager18accountsByProtocolERK7QString@Base 0.9.1
 _ZNK2Tp14AccountManager20fileTransferAccountsEv@Base 0.9.1
 _ZNK2Tp14AccountManager20textChatroomAccountsEv@Base 0.9.1
 _ZNK2Tp14AccountManager25streamedMediaCallAccountsEv@Base 0.9.1
 _ZNK2Tp14AccountManager26supportedAccountPropertiesEv@Base 0.9.1
 _ZNK2Tp14AccountManager30streamedMediaAudioCallAccountsEv@Base 0.9.1
 _ZNK2Tp14AccountManager30streamedMediaVideoCallAccountsEv@Base 0.9.1
 _ZNK2Tp14AccountManager39streamedMediaVideoCallWithAudioAccountsEv@Base 0.9.1
 _ZNK2Tp14ChannelFactory10metaObjectEv@Base 0.9.1
 _ZNK2Tp14ChannelFactory11featuresForERKNS_16ChannelClassSpecE@Base 0.9.1
 _ZNK2Tp14ChannelFactory11featuresForERKNS_9SharedPtrINS_9DBusProxyEEE@Base 0.9.1
 (optional=templinst)_ZNK2Tp14ChannelFactory12SubclassCtorINS_11CallChannelEE9constructERKNS_9SharedPtrINS_10ConnectionEEERK7QStringRK4QMapIS9_8QVariantE@Base 0.9.1
 (optional=templinst)_ZNK2Tp14ChannelFactory12SubclassCtorINS_11TextChannelEE9constructERKNS_9SharedPtrINS_10ConnectionEEERK7QStringRK4QMapIS9_8QVariantE@Base 0.9.1
 (optional=templinst)_ZNK2Tp14ChannelFactory12SubclassCtorINS_15RoomListChannelEE9constructERKNS_9SharedPtrINS_10ConnectionEEERK7QStringRK4QMapIS9_8QVariantE@Base 0.9.1
 (optional=templinst)_ZNK2Tp14ChannelFactory12SubclassCtorINS_20ContactSearchChannelEE9constructERKNS_9SharedPtrINS_10ConnectionEEERK7QStringRK4QMapIS9_8QVariantE@Base 0.9.1
 (optional=templinst)_ZNK2Tp14ChannelFactory12SubclassCtorINS_20StreamedMediaChannelEE9constructERKNS_9SharedPtrINS_10ConnectionEEERK7QStringRK4QMapIS9_8QVariantE@Base 0.9.1
 (optional=templinst)_ZNK2Tp14ChannelFactory12SubclassCtorINS_25IncomingStreamTubeChannelEE9constructERKNS_9SharedPtrINS_10ConnectionEEERK7QStringRK4QMapIS9_8QVariantE@Base 0.9.1
 (optional=templinst)_ZNK2Tp14ChannelFactory12SubclassCtorINS_25OutgoingStreamTubeChannelEE9constructERKNS_9SharedPtrINS_10ConnectionEEERK7QStringRK4QMapIS9_8QVariantE@Base 0.9.1
 (optional=templinst)_ZNK2Tp14ChannelFactory12SubclassCtorINS_27IncomingFileTransferChannelEE9constructERKNS_9SharedPtrINS_10ConnectionEEERK7QStringRK4QMapIS9_8QVariantE@Base 0.9.1
 (optional=templinst)_ZNK2Tp14ChannelFactory12SubclassCtorINS_27OutgoingFileTransferChannelEE9constructERKNS_9SharedPtrINS_10ConnectionEEERK7QStringRK4QMapIS9_8QVariantE@Base 0.9.1
 (optional=templinst)_ZNK2Tp14ChannelFactory12SubclassCtorINS_27ServerAuthenticationChannelEE9constructERKNS_9SharedPtrINS_10ConnectionEEERK7QStringRK4QMapIS9_8QVariantE@Base 0.9.1
 (optional=templinst)_ZNK2Tp14ChannelFactory12SubclassCtorINS_7ChannelEE9constructERKNS_9SharedPtrINS_10ConnectionEEERK7QStringRK4QMapIS9_8QVariantE@Base 0.9.1
 _ZNK2Tp14ChannelFactory14commonFeaturesEv@Base 0.9.1
 _ZNK2Tp14ChannelFactory14constructorForERKNS_16ChannelClassSpecE@Base 0.9.1
 _ZNK2Tp14ChannelFactory16featuresForCallsERK4QMapI7QString8QVariantE@Base 0.9.1
 _ZNK2Tp14ChannelFactory16finalBusNameFromERK7QString@Base 0.9.1
 _ZNK2Tp14ChannelFactory19fallbackConstructorEv@Base 0.9.1
 _ZNK2Tp14ChannelFactory20featuresForRoomListsERK4QMapI7QString8QVariantE@Base 0.9.1
 _ZNK2Tp14ChannelFactory20featuresForTextChatsERK4QMapI7QString8QVariantE@Base 0.9.1
 _ZNK2Tp14ChannelFactory23constructorForRoomListsERK4QMapI7QString8QVariantE@Base 0.9.1
 _ZNK2Tp14ChannelFactory23constructorForTextChatsERK4QMapI7QString8QVariantE@Base 0.9.1
 _ZNK2Tp14ChannelFactory24featuresForTextChatroomsERK4QMapI7QString8QVariantE@Base 0.9.1
 _ZNK2Tp14ChannelFactory26featuresForContactSearchesERK4QMapI7QString8QVariantE@Base 0.9.1
 _ZNK2Tp14ChannelFactory27constructorForTextChatroomsERK4QMapI7QString8QVariantE@Base 0.9.1
 _ZNK2Tp14ChannelFactory29constructorForContactSearchesERK4QMapI7QString8QVariantE@Base 0.9.1
 _ZNK2Tp14ChannelFactory29featuresForStreamedMediaCallsERK4QMapI7QString8QVariantE@Base 0.9.1
 _ZNK2Tp14ChannelFactory30featuresForIncomingStreamTubesERK4QMapI7QString8QVariantE@Base 0.9.1
 _ZNK2Tp14ChannelFactory30featuresForOutgoingStreamTubesERK4QMapI7QString8QVariantE@Base 0.9.1
 _ZNK2Tp14ChannelFactory31featuresForServerAuthenticationERK4QMapI7QString8QVariantE@Base 0.9.1
 _ZNK2Tp14ChannelFactory32constructorForStreamedMediaCallsERK4QMapI7QString8QVariantE@Base 0.9.1
 _ZNK2Tp14ChannelFactory32featuresForIncomingFileTransfersERK4QMapI7QString8QVariantE@Base 0.9.1
 _ZNK2Tp14ChannelFactory32featuresForOutgoingFileTransfersERK4QMapI7QString8QVariantE@Base 0.9.1
 _ZNK2Tp14ChannelFactory33constructorForIncomingStreamTubesERK4QMapI7QString8QVariantE@Base 0.9.1
 _ZNK2Tp14ChannelFactory33constructorForOutgoingStreamTubesERK4QMapI7QString8QVariantE@Base 0.9.1
 _ZNK2Tp14ChannelFactory34constructorForServerAuthenticationERK4QMapI7QString8QVariantE@Base 0.9.1
 _ZNK2Tp14ChannelFactory34featuresForIncomingRoomStreamTubesERK4QMapI7QString8QVariantE@Base 0.9.1
 _ZNK2Tp14ChannelFactory34featuresForOutgoingRoomStreamTubesERK4QMapI7QString8QVariantE@Base 0.9.1
 _ZNK2Tp14ChannelFactory35constructorForIncomingFileTransfersERK4QMapI7QString8QVariantE@Base 0.9.1
 _ZNK2Tp14ChannelFactory35constructorForOutgoingFileTransfersERK4QMapI7QString8QVariantE@Base 0.9.1
 _ZNK2Tp14ChannelFactory37constructorForIncomingRoomStreamTubesERK4QMapI7QString8QVariantE@Base 0.9.1
 _ZNK2Tp14ChannelFactory37constructorForOutgoingRoomStreamTubesERK4QMapI7QString8QVariantE@Base 0.9.1
 _ZNK2Tp14ChannelFactory5proxyERKNS_9SharedPtrINS_10ConnectionEEERK7QStringRK4QMapIS6_8QVariantE@Base 0.9.1
 _ZNK2Tp14ChannelRequest10metaObjectEv@Base 0.9.1
 _ZNK2Tp14ChannelRequest13baseInterfaceEv@Base 0.9.1
 _ZNK2Tp14ChannelRequest14userActionTimeEv@Base 0.9.1
 _ZNK2Tp14ChannelRequest16preferredHandlerEv@Base 0.9.1
 _ZNK2Tp14ChannelRequest19immutablePropertiesEv@Base 0.9.1
 _ZNK2Tp14ChannelRequest5hintsEv@Base 0.9.1
 _ZNK2Tp14ChannelRequest7accountEv@Base 0.9.1
 _ZNK2Tp14ChannelRequest7channelEv@Base 0.9.1
 _ZNK2Tp14ChannelRequest8requestsEv@Base 0.9.1
 _ZNK2Tp14ContactFactory7prepareERKNS_9SharedPtrINS_7ContactEEE@Base 0.9.1
 _ZNK2Tp14ContactFactory8featuresEv@Base 0.9.1
 _ZNK2Tp14ContactFactory9constructEPNS_14ContactManagerERKNS_17ReferencedHandlesERKNS_8FeaturesERK4QMapI7QString8QVariantE@Base 0.9.1
 _ZNK2Tp14ContactManager10connectionEv@Base 0.9.1
 _ZNK2Tp14ContactManager10metaObjectEv@Base 0.9.1
 _ZNK2Tp14ContactManager13groupContactsERK7QString@Base 0.9.1
 _ZNK2Tp14ContactManager14allKnownGroupsEv@Base 0.9.1
 _ZNK2Tp14ContactManager14canReportAbuseEv@Base 0.9.1
 _ZNK2Tp14ContactManager16allKnownContactsEv@Base 0.9.1
 _ZNK2Tp14ContactManager16canBlockContactsEv@Base 0.9.1
 _ZNK2Tp14ContactManager17supportedFeaturesEv@Base 0.9.1
 _ZNK2Tp14ContactManager28canRemovePresencePublicationEv@Base 0.9.1
 _ZNK2Tp14ContactManager28publicationRemovalHasMessageEv@Base 0.9.1
 _ZNK2Tp14ContactManager29canRemovePresenceSubscriptionEv@Base 0.9.1
 _ZNK2Tp14ContactManager29subscriptionRemovalHasMessageEv@Base 0.9.1
 _ZNK2Tp14ContactManager29subscriptionRequestHasMessageEv@Base 0.9.1
 _ZNK2Tp14ContactManager30canRequestPresenceSubscriptionEv@Base 0.9.1
 _ZNK2Tp14ContactManager30publicationRejectionHasMessageEv@Base 0.9.1
 _ZNK2Tp14ContactManager31canAuthorizePresencePublicationEv@Base 0.9.1
 _ZNK2Tp14ContactManager32subscriptionRescindingHasMessageEv@Base 0.9.1
 _ZNK2Tp14ContactManager34publicationAuthorizationHasMessageEv@Base 0.9.1
 _ZNK2Tp14ContactManager37canRescindPresenceSubscriptionRequestEv@Base 0.9.1
 _ZNK2Tp14ContactManager5stateEv@Base 0.9.1
 _ZNK2Tp14PendingAccount10metaObjectEv@Base 0.9.1
 _ZNK2Tp14PendingAccount7accountEv@Base 0.9.1
 _ZNK2Tp14PendingAccount7managerEv@Base 0.9.1
 _ZNK2Tp14PendingChannel10connectionEv@Base 0.9.1
 _ZNK2Tp14PendingChannel10metaObjectEv@Base 0.9.1
 _ZNK2Tp14PendingChannel11channelTypeEv@Base 0.9.1
 _ZNK2Tp14PendingChannel12targetHandleEv@Base 0.9.1
 _ZNK2Tp14PendingChannel16targetHandleTypeEv@Base 0.9.1
 _ZNK2Tp14PendingChannel19immutablePropertiesEv@Base 0.9.1
 _ZNK2Tp14PendingChannel22handledChannelNotifierEv@Base 0.9.1
 _ZNK2Tp14PendingChannel5yoursEv@Base 0.9.1
 _ZNK2Tp14PendingChannel7channelEv@Base 0.9.1
 _ZNK2Tp14PendingFailure10metaObjectEv@Base 0.9.1
 _ZNK2Tp14PendingHandles10connectionEv@Base 0.9.1
 _ZNK2Tp14PendingHandles10handleTypeEv@Base 0.9.1
 _ZNK2Tp14PendingHandles10metaObjectEv@Base 0.9.1
 _ZNK2Tp14PendingHandles10validNamesEv@Base 0.9.1
 _ZNK2Tp14PendingHandles11isReferenceEv@Base 0.9.1
 _ZNK2Tp14PendingHandles12invalidNamesEv@Base 0.9.1
 _ZNK2Tp14PendingHandles14invalidHandlesEv@Base 0.9.1
 _ZNK2Tp14PendingHandles14namesRequestedEv@Base 0.9.1
 _ZNK2Tp14PendingHandles18handlesToReferenceEv@Base 0.9.1
 _ZNK2Tp14PendingHandles7handlesEv@Base 0.9.1
 _ZNK2Tp14PendingHandles9isRequestEv@Base 0.9.1
 _ZNK2Tp14PendingSuccess10metaObjectEv@Base 0.9.1
 _ZNK2Tp14PendingVariant10metaObjectEv@Base 0.9.1
 _ZNK2Tp14PendingVariant6resultEv@Base 0.9.1
 _ZNK2Tp14ProfileManager10metaObjectEv@Base 0.9.1
 _ZNK2Tp14ProfileManager13profilesForCMERK7QString@Base 0.9.1
 _ZNK2Tp14ProfileManager17profileForServiceERK7QString@Base 0.9.1
 _ZNK2Tp14ProfileManager19profilesForProtocolERK7QString@Base 0.9.1
 _ZNK2Tp14ProfileManager8profilesEv@Base 0.9.1
 _ZNK2Tp14SimpleObserver10metaObjectEv@Base 0.9.1
 _ZNK2Tp14SimpleObserver13channelFilterEv@Base 0.9.1
 _ZNK2Tp14SimpleObserver17contactIdentifierEv@Base 0.9.1
 _ZNK2Tp14SimpleObserver20extraChannelFeaturesEv@Base 0.9.1
 _ZNK2Tp14SimpleObserver7accountEv@Base 0.9.1
 _ZNK2Tp14SimpleObserver8channelsEv@Base 0.9.1
 _ZNK2Tp15ClientRegistrar10metaObjectEv@Base 0.9.1
 _ZNK2Tp15ClientRegistrar14accountFactoryEv@Base 0.9.1
 _ZNK2Tp15ClientRegistrar14channelFactoryEv@Base 0.9.1
 _ZNK2Tp15ClientRegistrar14contactFactoryEv@Base 0.9.1
 _ZNK2Tp15ClientRegistrar14dbusConnectionEv@Base 0.9.1
 _ZNK2Tp15ClientRegistrar17connectionFactoryEv@Base 0.9.1
 _ZNK2Tp15ClientRegistrar17registeredClientsEv@Base 0.9.1
 _ZNK2Tp15PendingCaptchas10metaObjectEv@Base 0.9.1
 _ZNK2Tp15PendingCaptchas11captchaListEv@Base 0.9.1
 _ZNK2Tp15PendingCaptchas24requiresMultipleCaptchasEv@Base 0.9.1
 _ZNK2Tp15PendingCaptchas7captchaEv@Base 0.9.1
 _ZNK2Tp15PendingContacts10metaObjectEv@Base 0.9.1
 _ZNK2Tp15PendingContacts10vcardFieldEv@Base 0.9.1
 _ZNK2Tp15PendingContacts11identifiersEv@Base 0.9.1
 _ZNK2Tp15PendingContacts11invalidUrisEv@Base 0.9.1
 _ZNK2Tp15PendingContacts12isForHandlesEv@Base 0.9.1
 _ZNK2Tp15PendingContacts14invalidHandlesEv@Base 0.9.1
 _ZNK2Tp15PendingContacts14vcardAddressesEv@Base 0.9.1
 _ZNK2Tp15PendingContacts16isForIdentifiersEv@Base 0.9.1
 _ZNK2Tp15PendingContacts16validIdentifiersEv@Base 0.9.1
 _ZNK2Tp15PendingContacts17contactsToUpgradeEv@Base 0.9.1
 _ZNK2Tp15PendingContacts18invalidIdentifiersEv@Base 0.9.1
 _ZNK2Tp15PendingContacts19isForVCardAddressesEv@Base 0.9.1
 _ZNK2Tp15PendingContacts19validVCardAddressesEv@Base 0.9.1
 _ZNK2Tp15PendingContacts21invalidVCardAddressesEv@Base 0.9.1
 _ZNK2Tp15PendingContacts4urisEv@Base 0.9.1
 _ZNK2Tp15PendingContacts7handlesEv@Base 0.9.1
 _ZNK2Tp15PendingContacts7managerEv@Base 0.9.1
 _ZNK2Tp15PendingContacts8contactsEv@Base 0.9.1
 _ZNK2Tp15PendingContacts8featuresEv@Base 0.9.1
 _ZNK2Tp15PendingContacts9isForUrisEv@Base 0.9.1
 _ZNK2Tp15PendingContacts9isUpgradeEv@Base 0.9.1
 _ZNK2Tp15PendingContacts9validUrisEv@Base 0.9.1
 _ZNK2Tp15ReadinessHelper10interfacesEv@Base 0.9.1
 _ZNK2Tp15ReadinessHelper10metaObjectEv@Base 0.9.1
 _ZNK2Tp15ReadinessHelper13currentStatusEv@Base 0.9.1
 _ZNK2Tp15ReadinessHelper14actualFeaturesEv@Base 0.9.1
 _ZNK2Tp15ReadinessHelper15missingFeaturesEv@Base 0.9.1
 _ZNK2Tp15ReadinessHelper17requestedFeaturesEv@Base 0.9.1
 _ZNK2Tp15ReadinessHelper7isReadyERKNS_7FeatureEP7QStringS5_@Base 0.9.1
 _ZNK2Tp15ReadinessHelper7isReadyERKNS_8FeaturesEP7QStringS5_@Base 0.9.1
 _ZNK2Tp15ReceivedMessage12isScrollbackEv@Base 0.9.1
 _ZNK2Tp15ReceivedMessage13isFromChannelERKNS_9SharedPtrINS_11TextChannelEEE@Base 0.9.1
 _ZNK2Tp15ReceivedMessage14senderNicknameEv@Base 0.9.1
 _ZNK2Tp15ReceivedMessage15DeliveryDetails12debugMessageEv@Base 0.9.1
 _ZNK2Tp15ReceivedMessage15DeliveryDetails13echoedMessageEv@Base 0.9.1
 _ZNK2Tp15ReceivedMessage15DeliveryDetails13originalTokenEv@Base 0.9.1
 _ZNK2Tp15ReceivedMessage15DeliveryDetails15hasDebugMessageEv@Base 0.9.1
 _ZNK2Tp15ReceivedMessage15DeliveryDetails16hasEchoedMessageEv@Base 0.9.1
 _ZNK2Tp15ReceivedMessage15DeliveryDetails16hasOriginalTokenEv@Base 0.9.1
 _ZNK2Tp15ReceivedMessage15DeliveryDetails5errorEv@Base 0.9.1
 _ZNK2Tp15ReceivedMessage15DeliveryDetails6statusEv@Base 0.9.1
 _ZNK2Tp15ReceivedMessage15DeliveryDetails7isErrorEv@Base 0.9.1
 _ZNK2Tp15ReceivedMessage15DeliveryDetails9dbusErrorEv@Base 0.9.1
 _ZNK2Tp15ReceivedMessage15deliveryDetailsEv@Base 0.9.1
 _ZNK2Tp15ReceivedMessage15supersededTokenEv@Base 0.9.1
 _ZNK2Tp15ReceivedMessage16isDeliveryReportEv@Base 0.9.1
 _ZNK2Tp15ReceivedMessage6senderEv@Base 0.9.1
 _ZNK2Tp15ReceivedMessage8receivedEv@Base 0.9.1
 _ZNK2Tp15ReceivedMessage9isRescuedEv@Base 0.9.1
 _ZNK2Tp15RoomListChannel10metaObjectEv@Base 0.9.1
 _ZNK2Tp16CapabilitiesBase10audioCallsEv@Base 0.9.1
 _ZNK2Tp16CapabilitiesBase10videoCallsEv@Base 0.9.1
 _ZNK2Tp16CapabilitiesBase13allClassSpecsEv@Base 0.9.1
 _ZNK2Tp16CapabilitiesBase13fileTransfersEv@Base 0.9.1
 _ZNK2Tp16CapabilitiesBase14upgradingCallsEv@Base 0.9.1
 _ZNK2Tp16CapabilitiesBase18streamedMediaCallsEv@Base 0.9.1
 _ZNK2Tp16CapabilitiesBase19isSpecificToContactEv@Base 0.9.1
 _ZNK2Tp16CapabilitiesBase19videoCallsWithAudioEv@Base 0.9.1
 _ZNK2Tp16CapabilitiesBase23streamedMediaAudioCallsEv@Base 0.9.1
 _ZNK2Tp16CapabilitiesBase23streamedMediaVideoCallsEv@Base 0.9.1
 _ZNK2Tp16CapabilitiesBase27upgradingStreamedMediaCallsEv@Base 0.9.1
 _ZNK2Tp16CapabilitiesBase32streamedMediaVideoCallsWithAudioEv@Base 0.9.1
 _ZNK2Tp16CapabilitiesBase9textChatsEv@Base 0.9.1
 _ZNK2Tp16ChannelClassSpec10isSubsetOfERKS0_@Base 0.9.1
 _ZNK2Tp16ChannelClassSpec11hasPropertyERK7QString@Base 0.9.1
 _ZNK2Tp16ChannelClassSpec13allPropertiesEv@Base 0.9.1
 _ZNK2Tp16ChannelClassSpec7isValidEv@Base 0.9.1
 _ZNK2Tp16ChannelClassSpec7matchesERK4QMapI7QString8QVariantE@Base 0.9.1
 _ZNK2Tp16ChannelClassSpec8propertyERK7QString@Base 0.9.1
 _ZNK2Tp16ChannelClassSpec9bareClassEv@Base 0.9.1
 _ZNK2Tp16ContactMessenger10metaObjectEv@Base 0.9.1
 _ZNK2Tp16ContactMessenger17contactIdentifierEv@Base 0.9.1
 _ZNK2Tp16ContactMessenger7accountEv@Base 0.9.1
 _ZNK2Tp16ContactMessenger9textChatsEv@Base 0.9.1
 _ZNK2Tp16DBusProxyFactory10metaObjectEv@Base 0.9.1
 _ZNK2Tp16DBusProxyFactory11cachedProxyERK7QStringS3_@Base 0.9.1
 _ZNK2Tp16DBusProxyFactory12nowHaveProxyERKNS_9SharedPtrINS_9DBusProxyEEE@Base 0.9.1
 _ZNK2Tp16DBusProxyFactory12readyPrepareERKNS_9SharedPtrINS_9DBusProxyEEE@Base 0.9.1
 _ZNK2Tp16DBusProxyFactory14dbusConnectionEv@Base 0.9.1
 _ZNK2Tp16DBusProxyFactory14initialPrepareERKNS_9SharedPtrINS_9DBusProxyEEE@Base 0.9.1
 _ZNK2Tp16PendingComposite10metaObjectEv@Base 0.9.1
 _ZNK2Tp16PendingOperation10isFinishedEv@Base 0.9.1
 _ZNK2Tp16PendingOperation10metaObjectEv@Base 0.9.1
 _ZNK2Tp16PendingOperation12errorMessageEv@Base 0.9.1
 _ZNK2Tp16PendingOperation6objectEv@Base 0.9.1
 _ZNK2Tp16PendingOperation7isErrorEv@Base 0.9.1
 _ZNK2Tp16PendingOperation7isValidEv@Base 0.9.1
 _ZNK2Tp16PendingOperation9errorNameEv@Base 0.9.1
 _ZNK2Tp16StreamTubeClient10clientNameEv@Base 0.9.1
 _ZNK2Tp16StreamTubeClient10metaObjectEv@Base 0.9.1
 _ZNK2Tp16StreamTubeClient11connectionsEv@Base 0.9.1
 _ZNK2Tp16StreamTubeClient12acceptsAsTcpEv@Base 0.9.1
 _ZNK2Tp16StreamTubeClient12isRegisteredEv@Base 0.9.1
 _ZNK2Tp16StreamTubeClient12tcpGeneratorEv@Base 0.9.1
 _ZNK2Tp16StreamTubeClient13acceptsAsUnixEv@Base 0.9.1
 _ZNK2Tp16StreamTubeClient19monitorsConnectionsEv@Base 0.9.1
 _ZNK2Tp16StreamTubeClient5tubesEv@Base 0.9.1
 _ZNK2Tp16StreamTubeClient9registrarEv@Base 0.9.1
 _ZNK2Tp16StreamTubeServer10clientNameEv@Base 0.9.1
 _ZNK2Tp16StreamTubeServer10metaObjectEv@Base 0.9.1
 _ZNK2Tp16StreamTubeServer12isRegisteredEv@Base 0.9.1
 _ZNK2Tp16StreamTubeServer14tcpConnectionsEv@Base 0.9.1
 _ZNK2Tp16StreamTubeServer18exportedParametersEv@Base 0.9.1
 _ZNK2Tp16StreamTubeServer19monitorsConnectionsEv@Base 0.9.1
 _ZNK2Tp16StreamTubeServer24exportedTcpSocketAddressEv@Base 0.9.1
 _ZNK2Tp16StreamTubeServer5tubesEv@Base 0.9.1
 _ZNK2Tp16StreamTubeServer9registrarEv@Base 0.9.1
 _ZNK2Tp17AbstractInterface10metaObjectEv@Base 0.9.1
 _ZNK2Tp17AbstractInterface18invalidationReasonEv@Base 0.9.1
 _ZNK2Tp17AbstractInterface19invalidationMessageEv@Base 0.9.1
 _ZNK2Tp17AbstractInterface22isMonitoringPropertiesEv@Base 0.9.1
 _ZNK2Tp17AbstractInterface23internalRequestPropertyERK7QString@Base 0.9.1
 _ZNK2Tp17AbstractInterface28internalRequestAllPropertiesEv@Base 0.9.1
 _ZNK2Tp17AbstractInterface7isValidEv@Base 0.9.1
 _ZNK2Tp17ConnectionFactory16finalBusNameFromERK7QString@Base 0.9.1
 _ZNK2Tp17ConnectionFactory5proxyERK7QStringS3_RKNS_9SharedPtrIKNS_14ChannelFactoryEEERKNS4_IKNS_14ContactFactoryEEE@Base 0.9.1
 _ZNK2Tp17ConnectionFactory9constructERK7QStringS3_RKNS_9SharedPtrIKNS_14ChannelFactoryEEERKNS4_IKNS_14ContactFactoryEEE@Base 0.9.1
 _ZNK2Tp17ConnectionManager10metaObjectEv@Base 0.9.1
 _ZNK2Tp17ConnectionManager11hasProtocolERK7QString@Base 0.9.1
 _ZNK2Tp17ConnectionManager13baseInterfaceEv@Base 0.9.1
 _ZNK2Tp17ConnectionManager14channelFactoryEv@Base 0.9.1
 _ZNK2Tp17ConnectionManager14contactFactoryEv@Base 0.9.1
 _ZNK2Tp17ConnectionManager17connectionFactoryEv@Base 0.9.1
 _ZNK2Tp17ConnectionManager18supportedProtocolsEv@Base 0.9.1
 _ZNK2Tp17ConnectionManager4nameEv@Base 0.9.1
 _ZNK2Tp17ConnectionManager8lowlevelEv@Base 0.9.1
 _ZNK2Tp17ConnectionManager8protocolERK7QString@Base 0.9.1
 _ZNK2Tp17ConnectionManager9protocolsEv@Base 0.9.1
 _ZNK2Tp17PendingConnection10connectionEv@Base 0.9.1
 _ZNK2Tp17PendingConnection10metaObjectEv@Base 0.9.1
 _ZNK2Tp17PendingConnection7managerEv@Base 0.9.1
 _ZNK2Tp17PendingStringList10metaObjectEv@Base 0.9.1
 _ZNK2Tp17PendingStringList6resultEv@Base 0.9.1
 _ZNK2Tp17PendingVariantMap10metaObjectEv@Base 0.9.1
 _ZNK2Tp17PendingVariantMap6resultEv@Base 0.9.1
 _ZNK2Tp17ProtocolParameter10isRequiredEv@Base 0.9.1
 _ZNK2Tp17ProtocolParameter12defaultValueEv@Base 0.9.1
 _ZNK2Tp17ProtocolParameter13dbusSignatureEv@Base 0.9.1
 _ZNK2Tp17ProtocolParameter25isRequiredForRegistrationEv@Base 0.9.1
 _ZNK2Tp17ProtocolParameter4nameEv@Base 0.9.1
 _ZNK2Tp17ProtocolParameter4typeEv@Base 0.9.1
 _ZNK2Tp17ProtocolParameter8isSecretEv@Base 0.9.1
 _ZNK2Tp17ProtocolParametereqERK7QString@Base 0.9.1
 _ZNK2Tp17ProtocolParametereqERKS0_@Base 0.9.1
 _ZNK2Tp17ProtocolParameterltERKS0_@Base 0.9.1
 _ZNK2Tp17ReferencedHandles10connectionEv@Base 0.9.1
 _ZNK2Tp17ReferencedHandles10handleTypeEv@Base 0.9.1
 _ZNK2Tp17ReferencedHandles11lastIndexOfEji@Base 0.9.1
 _ZNK2Tp17ReferencedHandles2atEi@Base 0.9.1
 _ZNK2Tp17ReferencedHandles3endEv@Base 0.9.1
 _ZNK2Tp17ReferencedHandles3midEii@Base 0.9.1
 _ZNK2Tp17ReferencedHandles4sizeEv@Base 0.9.1
 _ZNK2Tp17ReferencedHandles5beginEv@Base 0.9.1
 _ZNK2Tp17ReferencedHandles5countEj@Base 0.9.1
 _ZNK2Tp17ReferencedHandles5valueEij@Base 0.9.1
 _ZNK2Tp17ReferencedHandles6toListEv@Base 0.9.1
 _ZNK2Tp17ReferencedHandles7indexOfEji@Base 0.9.1
 _ZNK2Tp17ReferencedHandles7isEmptyEv@Base 0.9.1
 _ZNK2Tp17ReferencedHandles8containsEj@Base 0.9.1
 _ZNK2Tp17ReferencedHandleseqERKNS_8UIntListE@Base 0.9.1
 _ZNK2Tp17ReferencedHandleseqERKS0_@Base 0.9.1
 _ZNK2Tp17ReferencedHandlesplERKS0_@Base 0.9.1
 _ZNK2Tp17StatefulDBusProxy10metaObjectEv@Base 0.9.1
 _ZNK2Tp17StreamTubeChannel10metaObjectEv@Base 0.9.1
 _ZNK2Tp17StreamTubeChannel11addressTypeEv@Base 0.9.1
 _ZNK2Tp17StreamTubeChannel11connectionsEv@Base 0.9.1
 _ZNK2Tp17StreamTubeChannel12localAddressEv@Base 0.9.1
 _ZNK2Tp17StreamTubeChannel13accessControlEv@Base 0.9.1
 _ZNK2Tp17StreamTubeChannel21isDroppingConnectionsEv@Base 0.9.1
 _ZNK2Tp17StreamTubeChannel30supportsIPv4SocketsOnLocalhostEv@Base 0.9.1
 _ZNK2Tp17StreamTubeChannel30supportsIPv6SocketsOnLocalhostEv@Base 0.9.1
 _ZNK2Tp17StreamTubeChannel30supportsUnixSocketsOnLocalhostEv@Base 0.9.1
 _ZNK2Tp17StreamTubeChannel34supportsUnixSocketsWithCredentialsEv@Base 0.9.1
 _ZNK2Tp17StreamTubeChannel38supportsAbstractUnixSocketsOnLocalhostEv@Base 0.9.1
 _ZNK2Tp17StreamTubeChannel39supportsIPv4SocketsWithSpecifiedAddressEv@Base 0.9.1
 _ZNK2Tp17StreamTubeChannel39supportsIPv6SocketsWithSpecifiedAddressEv@Base 0.9.1
 _ZNK2Tp17StreamTubeChannel42supportsAbstractUnixSocketsWithCredentialsEv@Base 0.9.1
 _ZNK2Tp17StreamTubeChannel7serviceEv@Base 0.9.1
 _ZNK2Tp17StreamTubeChannel9ipAddressEv@Base 0.9.1
 _ZNK2Tp18ConnectionLowlevel10connectionEv@Base 0.9.1
 _ZNK2Tp18ConnectionLowlevel10metaObjectEv@Base 0.9.1
 _ZNK2Tp18ConnectionLowlevel23allowedPresenceStatusesEv@Base 0.9.1
 _ZNK2Tp18ConnectionLowlevel26contactAttributeInterfacesEv@Base 0.9.1
 _ZNK2Tp18ConnectionLowlevel30maxPresenceStatusMessageLengthEv@Base 0.9.1
 _ZNK2Tp18ConnectionLowlevel7isValidEv@Base 0.9.1
 _ZNK2Tp18MessageContentPart8barePartEv@Base 0.9.1
 _ZNK2Tp18MessageContentParteqERKS0_@Base 0.9.1
 _ZNK2Tp18PendingCallContent10metaObjectEv@Base 0.9.1
 _ZNK2Tp18PendingCallContent7contentEv@Base 0.9.1
 _ZNK2Tp18PendingContactInfo10infoFieldsEv@Base 0.9.1
 _ZNK2Tp18PendingContactInfo10metaObjectEv@Base 0.9.1
 _ZNK2Tp18PendingContactInfo7contactEv@Base 0.9.1
 _ZNK2Tp18PendingSendMessage10metaObjectEv@Base 0.9.1
 _ZNK2Tp18PendingSendMessage16sentMessageTokenEv@Base 0.9.1
 _ZNK2Tp18PendingSendMessage7channelEv@Base 0.9.1
 _ZNK2Tp18PendingSendMessage7messageEv@Base 0.9.1
 _ZNK2Tp18PendingSendMessage9messengerEv@Base 0.9.1
 _ZNK2Tp18SimpleCallObserver10metaObjectEv@Base 0.9.1
 _ZNK2Tp18SimpleCallObserver17contactIdentifierEv@Base 0.9.1
 _ZNK2Tp18SimpleCallObserver18streamedMediaCallsEv@Base 0.9.1
 _ZNK2Tp18SimpleCallObserver7accountEv@Base 0.9.1
 _ZNK2Tp18SimpleCallObserver9directionEv@Base 0.9.1
 _ZNK2Tp18SimpleTextObserver10metaObjectEv@Base 0.9.1
 _ZNK2Tp18SimpleTextObserver17contactIdentifierEv@Base 0.9.1
 _ZNK2Tp18SimpleTextObserver7accountEv@Base 0.9.1
 _ZNK2Tp18SimpleTextObserver9textChatsEv@Base 0.9.1
 _ZNK2Tp18StatelessDBusProxy10metaObjectEv@Base 0.9.1
 _ZNK2Tp19ChannelRequestHints4hintERK7QStringS3_@Base 0.9.1
 _ZNK2Tp19ChannelRequestHints7hasHintERK7QStringS3_@Base 0.9.1
 _ZNK2Tp19ChannelRequestHints7isValidEv@Base 0.9.1
 _ZNK2Tp19ChannelRequestHints8allHintsEv@Base 0.9.1
 _ZNK2Tp19ContactCapabilities11streamTubesERK7QString@Base 0.9.1
 _ZNK2Tp19ContactCapabilities18streamTubeServicesEv@Base 0.9.1
 _ZNK2Tp19FileTransferChannel10isFinishedEv@Base 0.9.1
 _ZNK2Tp19FileTransferChannel10metaObjectEv@Base 0.9.1
 _ZNK2Tp19FileTransferChannel11contentHashEv@Base 0.9.1
 _ZNK2Tp19FileTransferChannel11contentTypeEv@Base 0.9.1
 _ZNK2Tp19FileTransferChannel11descriptionEv@Base 0.9.1
 _ZNK2Tp19FileTransferChannel11isConnectedEv@Base 0.9.1
 _ZNK2Tp19FileTransferChannel11stateReasonEv@Base 0.9.1
 _ZNK2Tp19FileTransferChannel13initialOffsetEv@Base 0.9.1
 _ZNK2Tp19FileTransferChannel15contentHashTypeEv@Base 0.9.1
 _ZNK2Tp19FileTransferChannel16transferredBytesEv@Base 0.9.1
 _ZNK2Tp19FileTransferChannel20availableSocketTypesEv@Base 0.9.1
 _ZNK2Tp19FileTransferChannel20lastModificationTimeEv@Base 0.9.1
 _ZNK2Tp19FileTransferChannel3uriEv@Base 0.9.1
 _ZNK2Tp19FileTransferChannel4sizeEv@Base 0.9.1
 _ZNK2Tp19FileTransferChannel5stateEv@Base 0.9.1
 _ZNK2Tp19FileTransferChannel8fileNameEv@Base 0.9.1
 _ZNK2Tp19FixedFeatureFactory10metaObjectEv@Base 0.9.1
 _ZNK2Tp19FixedFeatureFactory11featuresForERKNS_9SharedPtrINS_9DBusProxyEEE@Base 0.9.1
 _ZNK2Tp19FixedFeatureFactory8featuresEv@Base 0.9.1
 _ZNK2Tp19StreamedMediaStream10metaObjectEv@Base 0.9.1
 _ZNK2Tp19StreamedMediaStream11pendingSendEv@Base 0.9.1
 _ZNK2Tp19StreamedMediaStream17localSendingStateEv@Base 0.9.1
 _ZNK2Tp19StreamedMediaStream18remoteSendingStateEv@Base 0.9.1
 _ZNK2Tp19StreamedMediaStream21localSendingRequestedEv@Base 0.9.1
 _ZNK2Tp19StreamedMediaStream22remoteSendingRequestedEv@Base 0.9.1
 _ZNK2Tp19StreamedMediaStream2idEv@Base 0.9.1
 _ZNK2Tp19StreamedMediaStream4typeEv@Base 0.9.1
 _ZNK2Tp19StreamedMediaStream5stateEv@Base 0.9.1
 _ZNK2Tp19StreamedMediaStream7channelEv@Base 0.9.1
 _ZNK2Tp19StreamedMediaStream7contactEv@Base 0.9.1
 _ZNK2Tp19StreamedMediaStream7sendingEv@Base 0.9.1
 _ZNK2Tp19StreamedMediaStream9directionEv@Base 0.9.1
 _ZNK2Tp19StreamedMediaStream9receivingEv@Base 0.9.1
 _ZNK2Tp20ContactSearchChannel10metaObjectEv@Base 0.9.1
 _ZNK2Tp20ContactSearchChannel11searchStateEv@Base 0.9.1
 _ZNK2Tp20ContactSearchChannel19availableSearchKeysEv@Base 0.9.1
 _ZNK2Tp20ContactSearchChannel24SearchStateChangeDetails10allDetailsEv@Base 0.9.1
 _ZNK2Tp20ContactSearchChannel5limitEv@Base 0.9.1
 _ZNK2Tp20ContactSearchChannel6serverEv@Base 0.9.1
 _ZNK2Tp20StreamedMediaChannel10metaObjectEv@Base 0.9.1
 _ZNK2Tp20StreamedMediaChannel14localHoldStateEv@Base 0.9.1
 _ZNK2Tp20StreamedMediaChannel14streamsForTypeENS_15MediaStreamTypeE@Base 0.9.1
 _ZNK2Tp20StreamedMediaChannel19awaitingLocalAnswerEv@Base 0.9.1
 _ZNK2Tp20StreamedMediaChannel20awaitingRemoteAnswerEv@Base 0.9.1
 _ZNK2Tp20StreamedMediaChannel20localHoldStateReasonEv@Base 0.9.1
 _ZNK2Tp20StreamedMediaChannel24handlerStreamingRequiredEv@Base 0.9.1
 _ZNK2Tp20StreamedMediaChannel7streamsEv@Base 0.9.1
 _ZNK2Tp21AbstractClientHandler11HandlerInfo7allInfoEv@Base 0.9.1
 _ZNK2Tp21AbstractClientHandler12Capabilities8hasTokenERK7QString@Base 0.9.1
 _ZNK2Tp21AbstractClientHandler12Capabilities9allTokensEv@Base 0.9.1
 _ZNK2Tp21AbstractClientHandler13handlerFilterEv@Base 0.9.1
 _ZNK2Tp21AbstractClientHandler19handlerCapabilitiesEv@Base 0.9.1
 _ZNK2Tp21AbstractClientHandler24wantsRequestNotificationEv@Base 0.9.1
 _ZNK2Tp21AccountPropertyFilter7isValidEv@Base 0.9.1
 _ZNK2Tp21CaptchaAuthentication10metaObjectEv@Base 0.9.1
 _ZNK2Tp21CaptchaAuthentication12errorDetailsEv@Base 0.9.1
 _ZNK2Tp21CaptchaAuthentication5errorEv@Base 0.9.1
 _ZNK2Tp21CaptchaAuthentication6statusEv@Base 0.9.1
 _ZNK2Tp21CaptchaAuthentication7channelEv@Base 0.9.1
 _ZNK2Tp21CaptchaAuthentication8canRetryEv@Base 0.9.1
 _ZNK2Tp21PendingChannelRequest10metaObjectEv@Base 0.9.1
 _ZNK2Tp21PendingChannelRequest14channelRequestEv@Base 0.9.1
 _ZNK2Tp21PendingChannelRequest7accountEv@Base 0.9.1
 _ZNK2Tp22AbstractClientApprover14approverFilterEv@Base 0.9.1
 _ZNK2Tp22AbstractClientObserver12ObserverInfo7allInfoEv@Base 0.9.1
 _ZNK2Tp22AbstractClientObserver13shouldRecoverEv@Base 0.9.1
 _ZNK2Tp22AbstractClientObserver14observerFilterEv@Base 0.9.1
 _ZNK2Tp22ConnectionCapabilities11streamTubesEv@Base 0.9.1
 _ZNK2Tp22ConnectionCapabilities13textChatroomsEv@Base 0.9.1
 _ZNK2Tp22ConnectionCapabilities15contactSearchesEv@Base 0.9.1
 _ZNK2Tp22ConnectionCapabilities19conferenceTextChatsEv@Base 0.9.1
 _ZNK2Tp22ConnectionCapabilities23conferenceTextChatroomsEv@Base 0.9.1
 _ZNK2Tp22ConnectionCapabilities24contactSearchesWithLimitEv@Base 0.9.1
 _ZNK2Tp22ConnectionCapabilities28conferenceStreamedMediaCallsEv@Base 0.9.1
 _ZNK2Tp22ConnectionCapabilities31conferenceTextChatsWithInviteesEv@Base 0.9.1
 _ZNK2Tp22ConnectionCapabilities33contactSearchesWithSpecificServerEv@Base 0.9.1
 _ZNK2Tp22ConnectionCapabilities35conferenceTextChatroomsWithInviteesEv@Base 0.9.1
 _ZNK2Tp22ConnectionCapabilities40conferenceStreamedMediaCallsWithInviteesEv@Base 0.9.1
 _ZNK2Tp22HandledChannelNotifier10metaObjectEv@Base 0.9.1
 _ZNK2Tp22HandledChannelNotifier7channelEv@Base 0.9.1
 _ZNK2Tp22OptionalInterfaceCache5cacheEPNS_17AbstractInterfaceE@Base 0.9.1
 _ZNK2Tp22OptionalInterfaceCache5proxyEv@Base 0.9.1
 _ZNK2Tp22OptionalInterfaceCache9getCachedERK7QString@Base 0.9.1
 _ZNK2Tp24ChannelDispatchOperation10connectionEv@Base 0.9.1
 _ZNK2Tp24ChannelDispatchOperation10metaObjectEv@Base 0.9.1
 _ZNK2Tp24ChannelDispatchOperation13baseInterfaceEv@Base 0.9.1
 _ZNK2Tp24ChannelDispatchOperation16possibleHandlersEv@Base 0.9.1
 _ZNK2Tp24ChannelDispatchOperation7accountEv@Base 0.9.1
 _ZNK2Tp24ChannelDispatchOperation8channelsEv@Base 0.9.1
 _ZNK2Tp24PendingContactAttributes10attributesEv@Base 0.9.1
 _ZNK2Tp24PendingContactAttributes10connectionEv@Base 0.9.1
 _ZNK2Tp24PendingContactAttributes10metaObjectEv@Base 0.9.1
 _ZNK2Tp24PendingContactAttributes12validHandlesEv@Base 0.9.1
 _ZNK2Tp24PendingContactAttributes14invalidHandlesEv@Base 0.9.1
 _ZNK2Tp24PendingContactAttributes15shouldReferenceEv@Base 0.9.1
 _ZNK2Tp24PendingContactAttributes17contactsRequestedEv@Base 0.9.1
 _ZNK2Tp24PendingContactAttributes19interfacesRequestedEv@Base 0.9.1
 _ZNK2Tp25ConnectionManagerLowlevel10metaObjectEv@Base 0.9.1
 _ZNK2Tp25ConnectionManagerLowlevel17connectionManagerEv@Base 0.9.1
 _ZNK2Tp25ConnectionManagerLowlevel7isValidEv@Base 0.9.1
 _ZNK2Tp25IncomingStreamTubeChannel10metaObjectEv@Base 0.9.1
 _ZNK2Tp25OutgoingStreamTubeChannel10metaObjectEv@Base 0.9.1
 _ZNK2Tp25OutgoingStreamTubeChannel22contactsForConnectionsEv@Base 0.9.1
 _ZNK2Tp25OutgoingStreamTubeChannel25connectionsForCredentialsEv@Base 0.9.1
 _ZNK2Tp25OutgoingStreamTubeChannel29connectionsForSourceAddressesEv@Base 0.9.1
 _ZNK2Tp27IncomingFileTransferChannel10metaObjectEv@Base 0.9.1
 _ZNK2Tp27OutgoingFileTransferChannel10metaObjectEv@Base 0.9.1
 _ZNK2Tp27PendingStreamTubeConnection10metaObjectEv@Base 0.9.1
 _ZNK2Tp27PendingStreamTubeConnection11addressTypeEv@Base 0.9.1
 _ZNK2Tp27PendingStreamTubeConnection12localAddressEv@Base 0.9.1
 _ZNK2Tp27PendingStreamTubeConnection14credentialByteEv@Base 0.9.1
 _ZNK2Tp27PendingStreamTubeConnection19requiresCredentialsEv@Base 0.9.1
 _ZNK2Tp27PendingStreamTubeConnection9ipAddressEv@Base 0.9.1
 _ZNK2Tp27PendingStreamedMediaStreams10metaObjectEv@Base 0.9.1
 _ZNK2Tp27PendingStreamedMediaStreams7channelEv@Base 0.9.1
 _ZNK2Tp27PendingStreamedMediaStreams7streamsEv@Base 0.9.1
 _ZNK2Tp27RequestableChannelClassSpec11channelTypeEv@Base 0.9.1
 _ZNK2Tp27RequestableChannelClassSpec13fixedPropertyERK7QString@Base 0.9.1
 _ZNK2Tp27RequestableChannelClassSpec14allowsPropertyERK7QString@Base 0.9.1
 _ZNK2Tp27RequestableChannelClassSpec15fixedPropertiesEv@Base 0.9.1
 _ZNK2Tp27RequestableChannelClassSpec16hasFixedPropertyERK7QString@Base 0.9.1
 _ZNK2Tp27RequestableChannelClassSpec16targetHandleTypeEv@Base 0.9.1
 _ZNK2Tp27RequestableChannelClassSpec17allowedPropertiesEv@Base 0.9.1
 _ZNK2Tp27RequestableChannelClassSpec19hasTargetHandleTypeEv@Base 0.9.1
 _ZNK2Tp27RequestableChannelClassSpec8supportsERKS0_@Base 0.9.1
 _ZNK2Tp27RequestableChannelClassSpec9bareClassEv@Base 0.9.1
 _ZNK2Tp27RequestableChannelClassSpeceqERKS0_@Base 0.9.1
 _ZNK2Tp27ServerAuthenticationChannel10metaObjectEv@Base 0.9.1
 _ZNK2Tp27ServerAuthenticationChannel19hasCaptchaInterfaceEv@Base 0.9.1
 _ZNK2Tp27ServerAuthenticationChannel21captchaAuthenticationEv@Base 0.9.1
 _ZNK2Tp37FileTransferChannelCreationProperties11contentHashEv@Base 0.9.1
 _ZNK2Tp37FileTransferChannelCreationProperties11contentTypeEv@Base 0.9.1
 _ZNK2Tp37FileTransferChannelCreationProperties11descriptionEv@Base 0.9.1
 _ZNK2Tp37FileTransferChannelCreationProperties14hasContentHashEv@Base 0.9.1
 _ZNK2Tp37FileTransferChannelCreationProperties14hasDescriptionEv@Base 0.9.1
 _ZNK2Tp37FileTransferChannelCreationProperties15contentHashTypeEv@Base 0.9.1
 _ZNK2Tp37FileTransferChannelCreationProperties17suggestedFileNameEv@Base 0.9.1
 _ZNK2Tp37FileTransferChannelCreationProperties20lastModificationTimeEv@Base 0.9.1
 _ZNK2Tp37FileTransferChannelCreationProperties23hasLastModificationTimeEv@Base 0.9.1
 _ZNK2Tp37FileTransferChannelCreationProperties3uriEv@Base 0.9.1
 _ZNK2Tp37FileTransferChannelCreationProperties4sizeEv@Base 0.9.1
 _ZNK2Tp37FileTransferChannelCreationProperties6hasUriEv@Base 0.9.1
 _ZNK2Tp37FileTransferChannelCreationPropertieseqERKS0_@Base 0.9.1
 _ZNK2Tp6Client15ClientInterface10metaObjectEv@Base 0.9.1
 _ZNK2Tp6Client16AccountInterface10metaObjectEv@Base 0.9.1
 _ZNK2Tp6Client16ChannelInterface10metaObjectEv@Base 0.9.1
 _ZNK2Tp6Client17ProtocolInterface10metaObjectEv@Base 0.9.1
 _ZNK2Tp6Client19CallStreamInterface10metaObjectEv@Base 0.9.1
 _ZNK2Tp6Client19ConnectionInterface10metaObjectEv@Base 0.9.1
 _ZNK2Tp6Client20CallContentInterface10metaObjectEv@Base 0.9.1
 _ZNK2Tp6Client22ClientHandlerInterface10metaObjectEv@Base 0.9.1
 _ZNK2Tp6Client23AccountManagerInterface10metaObjectEv@Base 0.9.1
 _ZNK2Tp6Client23ChannelRequestInterface10metaObjectEv@Base 0.9.1
 _ZNK2Tp6Client23ClientApproverInterface10metaObjectEv@Base 0.9.1
 _ZNK2Tp6Client23ClientObserverInterface10metaObjectEv@Base 0.9.1
 _ZNK2Tp6Client24ChannelTypeCallInterface10metaObjectEv@Base 0.9.1
 _ZNK2Tp6Client24ChannelTypeTextInterface10metaObjectEv@Base 0.9.1
 _ZNK2Tp6Client25ChannelTypeTubesInterface10metaObjectEv@Base 0.9.1
 _ZNK2Tp6Client26ChannelDispatcherInterface10metaObjectEv@Base 0.9.1
 _ZNK2Tp6Client26ConnectionManagerInterface10metaObjectEv@Base 0.9.1
 _ZNK2Tp6Client27CallStreamEndpointInterface10metaObjectEv@Base 0.9.1
 _ZNK2Tp6Client27MediaStreamHandlerInterface10metaObjectEv@Base 0.9.1
 _ZNK2Tp6Client28ChannelInterfaceSMSInterface10metaObjectEv@Base 0.9.1
 _ZNK2Tp6Client28ChannelTypeDBusTubeInterface10metaObjectEv@Base 0.9.1
 _ZNK2Tp6Client28ChannelTypeRoomListInterface10metaObjectEv@Base 0.9.1
 _ZNK2Tp6Client28MediaSessionHandlerInterface10metaObjectEv@Base 0.9.1
 _ZNK2Tp6Client28PropertiesInterfaceInterface10metaObjectEv@Base 0.9.1
 _ZNK2Tp6Client29ChannelInterfaceDTMFInterface10metaObjectEv@Base 0.9.1
 _ZNK2Tp6Client29ChannelInterfaceHoldInterface10metaObjectEv@Base 0.9.1
 _ZNK2Tp6Client29ChannelInterfaceTubeInterface10metaObjectEv@Base 0.9.1
 _ZNK2Tp6Client30ChannelInterfaceGroupInterface10metaObjectEv@Base 0.9.1
 _ZNK2Tp6Client30ChannelTypeStreamTubeInterface10metaObjectEv@Base 0.9.1
 _ZNK2Tp6Client31AccountInterfaceAvatarInterface10metaObjectEv@Base 0.9.1
 _ZNK2Tp6Client31ChannelTypeContactListInterface10metaObjectEv@Base 0.9.1
 _ZNK2Tp6Client32AccountInterfaceStorageInterface10metaObjectEv@Base 0.9.1
 _ZNK2Tp6Client32ChannelTypeFileTransferInterface10metaObjectEv@Base 0.9.1
 _ZNK2Tp6Client32ClientInterfaceRequestsInterface10metaObjectEv@Base 0.9.1
 _ZNK2Tp6Client33CallContentInterfaceDTMFInterface10metaObjectEv@Base 0.9.1
 _ZNK2Tp6Client33CallStreamInterfaceMediaInterface10metaObjectEv@Base 0.9.1
 _ZNK2Tp6Client33ChannelDispatchOperationInterface10metaObjectEv@Base 0.9.1
 _ZNK2Tp6Client33ChannelInterfaceMessagesInterface10metaObjectEv@Base 0.9.1
 _ZNK2Tp6Client33ChannelInterfacePasswordInterface10metaObjectEv@Base 0.9.1
 _ZNK2Tp6Client33ChannelTypeContactSearchInterface10metaObjectEv@Base 0.9.1
 _ZNK2Tp6Client33ChannelTypeStreamedMediaInterface10metaObjectEv@Base 0.9.1
 _ZNK2Tp6Client33ProtocolInterfaceAvatarsInterface10metaObjectEv@Base 0.9.1
 _ZNK2Tp6Client34CallContentInterfaceMediaInterface10metaObjectEv@Base 0.9.1
 _ZNK2Tp6Client34ChannelInterfaceAnonymityInterface10metaObjectEv@Base 0.9.1
 _ZNK2Tp6Client34ChannelInterfaceCallStateInterface10metaObjectEv@Base 0.9.1
 _ZNK2Tp6Client34ChannelInterfaceChatStateInterface10metaObjectEv@Base 0.9.1
 _ZNK2Tp6Client34ChannelInterfaceSecurableInterface10metaObjectEv@Base 0.9.1
 _ZNK2Tp6Client34ProtocolInterfacePresenceInterface10metaObjectEv@Base 0.9.1
 _ZNK2Tp6Client35AccountInterfaceAddressingInterface10metaObjectEv@Base 0.9.1
 _ZNK2Tp6Client35ChannelInterfaceConferenceInterface10metaObjectEv@Base 0.9.1
 _ZNK2Tp6Client35ConnectionInterfaceAvatarsInterface10metaObjectEv@Base 0.9.1
 _ZNK2Tp6Client35ConnectionInterfaceBalanceInterface10metaObjectEv@Base 0.9.1
 _ZNK2Tp6Client36CallContentMediaDescriptionInterface10metaObjectEv@Base 0.9.1
 _ZNK2Tp6Client36ChannelInterfaceDestroyableInterface10metaObjectEv@Base 0.9.1
 _ZNK2Tp6Client36ConnectionInterfaceAliasingInterface10metaObjectEv@Base 0.9.1
 _ZNK2Tp6Client36ConnectionInterfaceCellularInterface10metaObjectEv@Base 0.9.1
 _ZNK2Tp6Client36ConnectionInterfaceContactsInterface10metaObjectEv@Base 0.9.1
 _ZNK2Tp6Client36ConnectionInterfaceLocationInterface10metaObjectEv@Base 0.9.1
 _ZNK2Tp6Client36ConnectionInterfacePresenceInterface10metaObjectEv@Base 0.9.1
 _ZNK2Tp6Client36ConnectionInterfaceRequestsInterface10metaObjectEv@Base 0.9.1
 _ZNK2Tp6Client36ProtocolInterfaceAddressingInterface10metaObjectEv@Base 0.9.1
 _ZNK2Tp6Client37AuthenticationTLSCertificateInterface10metaObjectEv@Base 0.9.1
 _ZNK2Tp6Client37ChannelInterfaceServicePointInterface10metaObjectEv@Base 0.9.1
 _ZNK2Tp6Client37ConnectionInterfaceAnonymityInterface10metaObjectEv@Base 0.9.1
 _ZNK2Tp6Client38ConnectionInterfaceAddressingInterface10metaObjectEv@Base 0.9.1
 _ZNK2Tp6Client39ChannelTypeServerTLSConnectionInterface10metaObjectEv@Base 0.9.1
 _ZNK2Tp6Client39ConnectionInterfaceClientTypesInterface10metaObjectEv@Base 0.9.1
 _ZNK2Tp6Client39ConnectionInterfaceContactInfoInterface10metaObjectEv@Base 0.9.1
 _ZNK2Tp6Client39ConnectionInterfaceContactListInterface10metaObjectEv@Base 0.9.1
 _ZNK2Tp6Client39ConnectionInterfacePowerSavingInterface10metaObjectEv@Base 0.9.1
 _ZNK2Tp6Client40ChannelInterfaceMediaSignallingInterface10metaObjectEv@Base 0.9.1
 _ZNK2Tp6Client40ChannelTypeServerAuthenticationInterface10metaObjectEv@Base 0.9.1
 _ZNK2Tp6Client40ConnectionInterfaceCapabilitiesInterface10metaObjectEv@Base 0.9.1
 _ZNK2Tp6Client40ConnectionInterfaceServicePointInterface10metaObjectEv@Base 0.9.1
 _ZNK2Tp6Client41CallContentInterfaceAudioControlInterface10metaObjectEv@Base 0.9.1
 _ZNK2Tp6Client41CallContentInterfaceVideoControlInterface10metaObjectEv@Base 0.9.1
 _ZNK2Tp6Client41ConnectionInterfaceContactGroupsInterface10metaObjectEv@Base 0.9.1
 _ZNK2Tp6Client42ConnectionInterfaceSimplePresenceInterface10metaObjectEv@Base 0.9.1
 _ZNK2Tp6Client43ChannelInterfaceSASLAuthenticationInterface10metaObjectEv@Base 0.9.1
 _ZNK2Tp6Client43ConnectionInterfaceContactBlockingInterface10metaObjectEv@Base 0.9.1
 _ZNK2Tp6Client44ConnectionInterfaceMailNotificationInterface10metaObjectEv@Base 0.9.1
 _ZNK2Tp6Client45ChannelInterfaceFileTransferMetadataInterface10metaObjectEv@Base 0.9.1
 _ZNK2Tp6Client46ChannelInterfaceCaptchaAuthenticationInterface10metaObjectEv@Base 0.9.1
 _ZNK2Tp6Client47ConnectionInterfaceContactCapabilitiesInterface10metaObjectEv@Base 0.9.1
 _ZNK2Tp6Client4DBus13PeerInterface10metaObjectEv@Base 0.9.1
 _ZNK2Tp6Client4DBus19DBusDaemonInterface10metaObjectEv@Base 0.9.1
 _ZNK2Tp6Client4DBus19PropertiesInterface10metaObjectEv@Base 0.9.1
 _ZNK2Tp6Client4DBus23IntrospectableInterface10metaObjectEv@Base 0.9.1
 _ZNK2Tp6Client57CallContentMediaDescriptionInterfaceRTCPFeedbackInterface10metaObjectEv@Base 0.9.1
 _ZNK2Tp6Client64CallContentMediaDescriptionInterfaceRTCPExtendedReportsInterface10metaObjectEv@Base 0.9.1
 _ZNK2Tp6Client64CallContentMediaDescriptionInterfaceRTPHeaderExtensionsInterface10metaObjectEv@Base 0.9.1
 _ZNK2Tp6Object10metaObjectEv@Base 0.9.1
 _ZNK2Tp7Account10connectionEv@Base 0.9.1
 _ZNK2Tp7Account10metaObjectEv@Base 0.9.1
 _ZNK2Tp7Account10parametersEv@Base 0.9.1
 _ZNK2Tp7Account11displayNameEv@Base 0.9.1
 _ZNK2Tp7Account11serviceNameEv@Base 0.9.1
 _ZNK2Tp7Account12capabilitiesEv@Base 0.9.1
 _ZNK2Tp7Account12protocolInfoEv@Base 0.9.1
 _ZNK2Tp7Account12protocolNameEv@Base 0.9.1
 _ZNK2Tp7Account13baseInterfaceEv@Base 0.9.1
 _ZNK2Tp7Account13hasBeenOnlineEv@Base 0.9.1
 _ZNK2Tp7Account14channelFactoryEv@Base 0.9.1
 _ZNK2Tp7Account14contactFactoryEv@Base 0.9.1
 _ZNK2Tp7Account14isValidAccountEv@Base 0.9.1
 _ZNK2Tp7Account14normalizedNameEv@Base 0.9.1
 _ZNK2Tp7Account15connectionErrorEv@Base 0.9.1
 _ZNK2Tp7Account15currentPresenceEv@Base 0.9.1
 _ZNK2Tp7Account16connectionStatusEv@Base 0.9.1
 _ZNK2Tp7Account16uniqueIdentifierEv@Base 0.9.1
 _ZNK2Tp7Account17automaticPresenceEv@Base 0.9.1
 _ZNK2Tp7Account17connectionFactoryEv@Base 0.9.1
 _ZNK2Tp7Account17requestedPresenceEv@Base 0.9.1
 _ZNK2Tp7Account18avatarRequirementsEv@Base 0.9.1
 _ZNK2Tp7Account18isChangingPresenceEv@Base 0.9.1
 _ZNK2Tp7Account19dispatcherInterfaceEv@Base 0.9.1
 _ZNK2Tp7Account20supportsRequestHintsEv@Base 0.9.1
 _ZNK2Tp7Account21connectsAutomaticallyEv@Base 0.9.1
 _ZNK2Tp7Account22connectionErrorDetailsEv@Base 0.9.1
 _ZNK2Tp7Account22connectionStatusReasonEv@Base 0.9.1
 _ZNK2Tp7Account23allowedPresenceStatusesEb@Base 0.9.1
 _ZNK2Tp7Account26requestsSucceedWithChannelEv@Base 0.9.1
 _ZNK2Tp7Account30maxPresenceStatusMessageLengthEv@Base 0.9.1
 _ZNK2Tp7Account6avatarEv@Base 0.9.1
 _ZNK2Tp7Account6cmNameEv@Base 0.9.1
 _ZNK2Tp7Account7profileEv@Base 0.9.1
 _ZNK2Tp7Account8iconNameEv@Base 0.9.1
 _ZNK2Tp7Account8isOnlineEv@Base 0.9.1
 _ZNK2Tp7Account8nicknameEv@Base 0.9.1
 _ZNK2Tp7Account9isEnabledEv@Base 0.9.1
 _ZNK2Tp7Captcha2idEv@Base 0.9.1
 _ZNK2Tp7Captcha4dataEv@Base 0.9.1
 _ZNK2Tp7Captcha4typeEv@Base 0.9.1
 _ZNK2Tp7Captcha5labelEv@Base 0.9.1
 _ZNK2Tp7Captcha8mimeTypeEv@Base 0.9.1
 _ZNK2Tp7Channel10connectionEv@Base 0.9.1
 _ZNK2Tp7Channel10groupFlagsEv@Base 0.9.1
 _ZNK2Tp7Channel10metaObjectEv@Base 0.9.1
 _ZNK2Tp7Channel11channelTypeEv@Base 0.9.1
 _ZNK2Tp7Channel11isRequestedEv@Base 0.9.1
 _ZNK2Tp7Channel12isConferenceEv@Base 0.9.1
 _ZNK2Tp7Channel12targetHandleEv@Base 0.9.1
 _ZNK2Tp7Channel13baseInterfaceEv@Base 0.9.1
 _ZNK2Tp7Channel13groupContactsEb@Base 0.9.1
 _ZNK2Tp7Channel13targetContactEv@Base 0.9.1
 _ZNK2Tp7Channel16groupSelfContactEv@Base 0.9.1
 _ZNK2Tp7Channel16initiatorContactEv@Base 0.9.1
 _ZNK2Tp7Channel16targetHandleTypeEv@Base 0.9.1
 _ZNK2Tp7Channel17groupHandleOwnersEv@Base 0.9.1
 _ZNK2Tp7Channel18conferenceChannelsEv@Base 0.9.1
 _ZNK2Tp7Channel19groupCanAddContactsEv@Base 0.9.1
 _ZNK2Tp7Channel19immutablePropertiesEv@Base 0.9.1
 _ZNK2Tp7Channel22groupCanRemoveContactsEv@Base 0.9.1
 _ZNK2Tp7Channel23groupCanRescindContactsEv@Base 0.9.1
 _ZNK2Tp7Channel24GroupMemberChangeDetails10allDetailsEv@Base 0.9.1
 _ZNK2Tp7Channel24GroupMemberChangeDetails5actorEv@Base 0.9.1
 _ZNK2Tp7Channel24GroupMemberChangeDetails8hasActorEv@Base 0.9.1
 _ZNK2Tp7Channel25conferenceInitialChannelsEv@Base 0.9.1
 _ZNK2Tp7Channel25groupCanDepartWithMessageEv@Base 0.9.1
 _ZNK2Tp7Channel25groupIsSelfContactTrackedEv@Base 0.9.1
 _ZNK2Tp7Channel25groupLocalPendingContactsEb@Base 0.9.1
 _ZNK2Tp7Channel25supportsConferenceMergingEv@Base 0.9.1
 _ZNK2Tp7Channel26conferenceOriginalChannelsEv@Base 0.9.1
 _ZNK2Tp7Channel26groupRemotePendingContactsEb@Base 0.9.1
 _ZNK2Tp7Channel26groupSelfContactRemoveInfoEv@Base 0.9.1
 _ZNK2Tp7Channel27supportsConferenceSplittingEv@Base 0.9.1
 _ZNK2Tp7Channel29groupAreHandleOwnersAvailableEv@Base 0.9.1
 _ZNK2Tp7Channel29groupSelfHandleIsLocalPendingEv@Base 0.9.1
 _ZNK2Tp7Channel30groupCanAddContactsWithMessageEv@Base 0.9.1
 _ZNK2Tp7Channel32conferenceInitialInviteeContactsEv@Base 0.9.1
 _ZNK2Tp7Channel33groupCanAcceptContactsWithMessageEv@Base 0.9.1
 _ZNK2Tp7Channel33groupCanRejectContactsWithMessageEv@Base 0.9.1
 _ZNK2Tp7Channel33groupCanRemoveContactsWithMessageEv@Base 0.9.1
 _ZNK2Tp7Channel34groupCanRescindContactsWithMessageEv@Base 0.9.1
 _ZNK2Tp7Channel34groupLocalPendingContactChangeInfoERKNS_9SharedPtrINS_7ContactEEE@Base 0.9.1
 _ZNK2Tp7Channel8targetIdEv@Base 0.9.1
 _ZNK2Tp7Contact10InfoFields6fieldsERK7QString@Base 0.9.1
 _ZNK2Tp7Contact10InfoFields9allFieldsEv@Base 0.9.1
 _ZNK2Tp7Contact10avatarDataEv@Base 0.9.1
 _ZNK2Tp7Contact10infoFieldsEv@Base 0.9.1
 _ZNK2Tp7Contact10metaObjectEv@Base 0.9.1
 _ZNK2Tp7Contact11avatarTokenEv@Base 0.9.1
 _ZNK2Tp7Contact12capabilitiesEv@Base 0.9.1
 _ZNK2Tp7Contact12publishStateEv@Base 0.9.1
 _ZNK2Tp7Contact14actualFeaturesEv@Base 0.9.1
 _ZNK2Tp7Contact14vcardAddressesEv@Base 0.9.1
 _ZNK2Tp7Contact17requestedFeaturesEv@Base 0.9.1
 _ZNK2Tp7Contact17subscriptionStateEv@Base 0.9.1
 _ZNK2Tp7Contact18isAvatarTokenKnownEv@Base 0.9.1
 _ZNK2Tp7Contact18isContactInfoKnownEv@Base 0.9.1
 _ZNK2Tp7Contact18isPublishCancelledEv@Base 0.9.1
 _ZNK2Tp7Contact19isPublishStateKnownEv@Base 0.9.1
 _ZNK2Tp7Contact19publishStateMessageEv@Base 0.9.1
 _ZNK2Tp7Contact22isSubscriptionRejectedEv@Base 0.9.1
 _ZNK2Tp7Contact24isSubscriptionStateKnownEv@Base 0.9.1
 _ZNK2Tp7Contact2idEv@Base 0.9.1
 _ZNK2Tp7Contact4urisEv@Base 0.9.1
 _ZNK2Tp7Contact5aliasEv@Base 0.9.1
 _ZNK2Tp7Contact6groupsEv@Base 0.9.1
 _ZNK2Tp7Contact6handleEv@Base 0.9.1
 _ZNK2Tp7Contact7managerEv@Base 0.9.1
 _ZNK2Tp7Contact8locationEv@Base 0.9.1
 _ZNK2Tp7Contact8presenceEv@Base 0.9.1
 _ZNK2Tp7Contact9isBlockedEv@Base 0.9.1
 _ZNK2Tp7Feature10isCriticalEv@Base 0.9.1
 _ZNK2Tp7Message11isTruncatedEv@Base 0.9.1
 _ZNK2Tp7Message11messageTypeEv@Base 0.9.1
 _ZNK2Tp7Message12messageTokenEv@Base 0.9.1
 _ZNK2Tp7Message13dbusInterfaceEv@Base 0.9.1
 _ZNK2Tp7Message17hasNonTextContentEv@Base 0.9.1
 _ZNK2Tp7Message25isSpecificToDBusInterfaceEv@Base 0.9.1
 _ZNK2Tp7Message4partEj@Base 0.9.1
 _ZNK2Tp7Message4sentEv@Base 0.9.1
 _ZNK2Tp7Message4sizeEv@Base 0.9.1
 _ZNK2Tp7Message4textEv@Base 0.9.1
 _ZNK2Tp7Message5partsEv@Base 0.9.1
 _ZNK2Tp7Message6headerEv@Base 0.9.1
 _ZNK2Tp7MessageeqERKS0_@Base 0.9.1
 _ZNK2Tp7Profile10parametersEv@Base 0.9.1
 _ZNK2Tp7Profile11hasPresenceERK7QString@Base 0.9.1
 _ZNK2Tp7Profile11serviceNameEv@Base 0.9.1
 _ZNK2Tp7Profile12hasParameterERK7QString@Base 0.9.1
 _ZNK2Tp7Profile12protocolNameEv@Base 0.9.1
 _ZNK2Tp7Profile19allowOtherPresencesEv@Base 0.9.1
 _ZNK2Tp7Profile28unsupportedChannelClassSpecsEv@Base 0.9.1
 _ZNK2Tp7Profile4nameEv@Base 0.9.1
 _ZNK2Tp7Profile4typeEv@Base 0.9.1
 _ZNK2Tp7Profile6cmNameEv@Base 0.9.1
 _ZNK2Tp7Profile6isFakeEv@Base 0.9.1
 _ZNK2Tp7Profile7isValidEv@Base 0.9.1
 _ZNK2Tp7Profile8Presence10isDisabledEv@Base 0.9.1
 _ZNK2Tp7Profile8Presence20canHaveStatusMessageEv@Base 0.9.1
 _ZNK2Tp7Profile8Presence2idEv@Base 0.9.1
 _ZNK2Tp7Profile8Presence5labelEv@Base 0.9.1
 _ZNK2Tp7Profile8Presence8iconNameEv@Base 0.9.1
 _ZNK2Tp7Profile8iconNameEv@Base 0.9.1
 _ZNK2Tp7Profile8presenceERK7QString@Base 0.9.1
 _ZNK2Tp7Profile8providerEv@Base 0.9.1
 _ZNK2Tp7Profile9Parameter11isMandatoryEv@Base 0.9.1
 _ZNK2Tp7Profile9Parameter13dbusSignatureEv@Base 0.9.1
 _ZNK2Tp7Profile9Parameter4nameEv@Base 0.9.1
 _ZNK2Tp7Profile9Parameter4typeEv@Base 0.9.1
 _ZNK2Tp7Profile9Parameter5labelEv@Base 0.9.1
 _ZNK2Tp7Profile9Parameter5valueEv@Base 0.9.1
 _ZNK2Tp7Profile9parameterERK7QString@Base 0.9.1
 _ZNK2Tp7Profile9presencesEv@Base 0.9.1
 _ZNK2Tp8Presence12barePresenceEv@Base 0.9.1
 _ZNK2Tp8Presence13statusMessageEv@Base 0.9.1
 _ZNK2Tp8Presence4typeEv@Base 0.9.1
 _ZNK2Tp8Presence6statusEv@Base 0.9.1
 _ZNK2Tp8PresenceeqERKS0_@Base 0.9.1
 _ZNK2Tp8PresenceneERKS0_@Base 0.9.1
 _ZNK2Tp9DBusProxy10metaObjectEv@Base 0.9.1
 _ZNK2Tp9DBusProxy10objectPathEv@Base 0.9.1
 _ZNK2Tp9DBusProxy14dbusConnectionEv@Base 0.9.1
 _ZNK2Tp9DBusProxy18invalidationReasonEv@Base 0.9.1
 _ZNK2Tp9DBusProxy19invalidationMessageEv@Base 0.9.1
 _ZNK2Tp9DBusProxy7busNameEv@Base 0.9.1
 _ZNK2Tp9DBusProxy7isValidEv@Base 0.9.1
 _ZTIN2Tp10AccountSetE@Base 0.9.1
 _ZTIN2Tp10CallStreamE@Base 0.9.1
 _ZTIN2Tp10ConnectionE@Base 0.9.1
 _ZTIN2Tp10RefCountedE@Base 0.9.1
 _ZTIN2Tp11CallChannelE@Base 0.9.1
 _ZTIN2Tp11CallContentE@Base 0.9.1
 _ZTIN2Tp11PendingVoidE@Base 0.9.1
 _ZTIN2Tp11ReadyObjectE@Base 0.9.1
 _ZTIN2Tp11TextChannelE@Base 0.9.1
 _ZTIN2Tp11TubeChannelE@Base 0.9.1
 _ZTIN2Tp12LocationInfoE@Base 0.9.1
 _ZTIN2Tp12PendingReadyE@Base 0.9.1
 _ZTIN2Tp13PendingStringE@Base 0.9.1
 _ZTIN2Tp14AbstractClientE@Base 0.9.1
 _ZTIN2Tp14AccountFactoryE@Base 0.9.1
 _ZTIN2Tp14AccountManagerE@Base 0.9.1
 _ZTIN2Tp14ChannelFactory11ConstructorE@Base 0.9.1
 _ZTIN2Tp14ChannelFactory12SubclassCtorINS_11CallChannelEEE@Base 0.9.1
 _ZTIN2Tp14ChannelFactory12SubclassCtorINS_11TextChannelEEE@Base 0.9.1
 _ZTIN2Tp14ChannelFactory12SubclassCtorINS_15RoomListChannelEEE@Base 0.9.1
 _ZTIN2Tp14ChannelFactory12SubclassCtorINS_20ContactSearchChannelEEE@Base 0.9.1
 _ZTIN2Tp14ChannelFactory12SubclassCtorINS_20StreamedMediaChannelEEE@Base 0.9.1
 _ZTIN2Tp14ChannelFactory12SubclassCtorINS_25IncomingStreamTubeChannelEEE@Base 0.9.1
 _ZTIN2Tp14ChannelFactory12SubclassCtorINS_25OutgoingStreamTubeChannelEEE@Base 0.9.1
 _ZTIN2Tp14ChannelFactory12SubclassCtorINS_27IncomingFileTransferChannelEEE@Base 0.9.1
 _ZTIN2Tp14ChannelFactory12SubclassCtorINS_27OutgoingFileTransferChannelEEE@Base 0.9.1
 _ZTIN2Tp14ChannelFactory12SubclassCtorINS_27ServerAuthenticationChannelEEE@Base 0.9.1
 _ZTIN2Tp14ChannelFactory12SubclassCtorINS_7ChannelEEE@Base 0.9.1
 _ZTIN2Tp14ChannelFactoryE@Base 0.9.1
 _ZTIN2Tp14ChannelRequestE@Base 0.9.1
 _ZTIN2Tp14ContactFactoryE@Base 0.9.1
 _ZTIN2Tp14ContactManagerE@Base 0.9.1
 _ZTIN2Tp14PendingAccountE@Base 0.9.1
 _ZTIN2Tp14PendingChannelE@Base 0.9.1
 _ZTIN2Tp14PendingFailureE@Base 0.9.1
 _ZTIN2Tp14PendingHandlesE@Base 0.9.1
 _ZTIN2Tp14PendingSuccessE@Base 0.9.1
 _ZTIN2Tp14PendingVariantE@Base 0.9.1
 _ZTIN2Tp14ProfileManagerE@Base 0.9.1
 _ZTIN2Tp14SimpleObserverE@Base 0.9.1
 _ZTIN2Tp15ClientRegistrarE@Base 0.9.1
 _ZTIN2Tp15PendingCaptchasE@Base 0.9.1
 _ZTIN2Tp15PendingContactsE@Base 0.9.1
 _ZTIN2Tp15ReadinessHelperE@Base 0.9.1
 _ZTIN2Tp15RoomListChannelE@Base 0.9.1
 _ZTIN2Tp16CapabilitiesBaseE@Base 0.9.1
 _ZTIN2Tp16ContactMessengerE@Base 0.9.1
 _ZTIN2Tp16DBusProxyFactoryE@Base 0.9.1
 _ZTIN2Tp16PendingCompositeE@Base 0.9.1
 _ZTIN2Tp16PendingOperationE@Base 0.9.1
 _ZTIN2Tp16StreamTubeClientE@Base 0.9.1
 _ZTIN2Tp16StreamTubeServer19ParametersGeneratorE@Base 0.9.1
 _ZTIN2Tp16StreamTubeServerE@Base 0.9.1
 _ZTIN2Tp17AbstractInterfaceE@Base 0.9.1
 _ZTIN2Tp17ConnectionFactoryE@Base 0.9.1
 _ZTIN2Tp17ConnectionManagerE@Base 0.9.1
 _ZTIN2Tp17PendingConnectionE@Base 0.9.1
 _ZTIN2Tp17PendingStringListE@Base 0.9.1
 _ZTIN2Tp17PendingVariantMapE@Base 0.9.1
 _ZTIN2Tp17StatefulDBusProxyE@Base 0.9.1
 _ZTIN2Tp17StreamTubeChannelE@Base 0.9.1
 _ZTIN2Tp18ConnectionLowlevelE@Base 0.9.1
 _ZTIN2Tp18PendingCallContentE@Base 0.9.1
 _ZTIN2Tp18PendingContactInfoE@Base 0.9.1
 _ZTIN2Tp18PendingSendMessageE@Base 0.9.1
 _ZTIN2Tp18SimpleCallObserverE@Base 0.9.1
 _ZTIN2Tp18SimpleTextObserverE@Base 0.9.1
 _ZTIN2Tp18StatelessDBusProxyE@Base 0.9.1
 _ZTIN2Tp19ContactCapabilitiesE@Base 0.9.1
 _ZTIN2Tp19FileTransferChannelE@Base 0.9.1
 _ZTIN2Tp19FixedFeatureFactoryE@Base 0.9.1
 _ZTIN2Tp19StreamedMediaStreamE@Base 0.9.1
 _ZTIN2Tp20ContactSearchChannelE@Base 0.9.1
 _ZTIN2Tp20StreamedMediaChannelE@Base 0.9.1
 _ZTIN2Tp21AbstractClientHandlerE@Base 0.9.1
 _ZTIN2Tp21AccountPropertyFilterE@Base 0.9.1
 _ZTIN2Tp21CaptchaAuthenticationE@Base 0.9.1
 _ZTIN2Tp21PendingChannelRequestE@Base 0.9.1
 _ZTIN2Tp22AbstractClientApproverE@Base 0.9.1
 _ZTIN2Tp22AbstractClientObserverE@Base 0.9.1
 _ZTIN2Tp22ConnectionCapabilitiesE@Base 0.9.1
 _ZTIN2Tp22HandledChannelNotifierE@Base 0.9.1
 _ZTIN2Tp22OptionalInterfaceCacheE@Base 0.9.1
 _ZTIN2Tp24ChannelDispatchOperationE@Base 0.9.1
 _ZTIN2Tp24PendingContactAttributesE@Base 0.9.1
 _ZTIN2Tp25ConnectionManagerLowlevelE@Base 0.9.1
 _ZTIN2Tp25IncomingStreamTubeChannelE@Base 0.9.1
 _ZTIN2Tp25OutgoingStreamTubeChannelE@Base 0.9.1
 _ZTIN2Tp27IncomingFileTransferChannelE@Base 0.9.1
 _ZTIN2Tp27OutgoingFileTransferChannelE@Base 0.9.1
 _ZTIN2Tp27PendingStreamTubeConnectionE@Base 0.9.1
 _ZTIN2Tp27PendingStreamedMediaStreamsE@Base 0.9.1
 _ZTIN2Tp27ServerAuthenticationChannelE@Base 0.9.1
 _ZTIN2Tp6Client15ClientInterfaceE@Base 0.9.1
 _ZTIN2Tp6Client16AccountInterfaceE@Base 0.9.1
 _ZTIN2Tp6Client16ChannelInterfaceE@Base 0.9.1
 _ZTIN2Tp6Client17ProtocolInterfaceE@Base 0.9.1
 _ZTIN2Tp6Client19CallStreamInterfaceE@Base 0.9.1
 _ZTIN2Tp6Client19ConnectionInterfaceE@Base 0.9.1
 _ZTIN2Tp6Client20CallContentInterfaceE@Base 0.9.1
 _ZTIN2Tp6Client22ClientHandlerInterfaceE@Base 0.9.1
 _ZTIN2Tp6Client23AccountManagerInterfaceE@Base 0.9.1
 _ZTIN2Tp6Client23ChannelRequestInterfaceE@Base 0.9.1
 _ZTIN2Tp6Client23ClientApproverInterfaceE@Base 0.9.1
 _ZTIN2Tp6Client23ClientObserverInterfaceE@Base 0.9.1
 _ZTIN2Tp6Client24ChannelTypeCallInterfaceE@Base 0.9.1
 _ZTIN2Tp6Client24ChannelTypeTextInterfaceE@Base 0.9.1
 _ZTIN2Tp6Client25ChannelTypeTubesInterfaceE@Base 0.9.1
 _ZTIN2Tp6Client26ChannelDispatcherInterfaceE@Base 0.9.1
 _ZTIN2Tp6Client26ConnectionManagerInterfaceE@Base 0.9.1
 _ZTIN2Tp6Client27CallStreamEndpointInterfaceE@Base 0.9.1
 _ZTIN2Tp6Client27MediaStreamHandlerInterfaceE@Base 0.9.1
 _ZTIN2Tp6Client28ChannelInterfaceSMSInterfaceE@Base 0.9.1
 _ZTIN2Tp6Client28ChannelTypeDBusTubeInterfaceE@Base 0.9.1
 _ZTIN2Tp6Client28ChannelTypeRoomListInterfaceE@Base 0.9.1
 _ZTIN2Tp6Client28MediaSessionHandlerInterfaceE@Base 0.9.1
 _ZTIN2Tp6Client28PropertiesInterfaceInterfaceE@Base 0.9.1
 _ZTIN2Tp6Client29ChannelInterfaceDTMFInterfaceE@Base 0.9.1
 _ZTIN2Tp6Client29ChannelInterfaceHoldInterfaceE@Base 0.9.1
 _ZTIN2Tp6Client29ChannelInterfaceTubeInterfaceE@Base 0.9.1
 _ZTIN2Tp6Client30ChannelInterfaceGroupInterfaceE@Base 0.9.1
 _ZTIN2Tp6Client30ChannelTypeStreamTubeInterfaceE@Base 0.9.1
 _ZTIN2Tp6Client31AccountInterfaceAvatarInterfaceE@Base 0.9.1
 _ZTIN2Tp6Client31ChannelTypeContactListInterfaceE@Base 0.9.1
 _ZTIN2Tp6Client32AccountInterfaceStorageInterfaceE@Base 0.9.1
 _ZTIN2Tp6Client32ChannelTypeFileTransferInterfaceE@Base 0.9.1
 _ZTIN2Tp6Client32ClientInterfaceRequestsInterfaceE@Base 0.9.1
 _ZTIN2Tp6Client33CallContentInterfaceDTMFInterfaceE@Base 0.9.1
 _ZTIN2Tp6Client33CallStreamInterfaceMediaInterfaceE@Base 0.9.1
 _ZTIN2Tp6Client33ChannelDispatchOperationInterfaceE@Base 0.9.1
 _ZTIN2Tp6Client33ChannelInterfaceMessagesInterfaceE@Base 0.9.1
 _ZTIN2Tp6Client33ChannelInterfacePasswordInterfaceE@Base 0.9.1
 _ZTIN2Tp6Client33ChannelTypeContactSearchInterfaceE@Base 0.9.1
 _ZTIN2Tp6Client33ChannelTypeStreamedMediaInterfaceE@Base 0.9.1
 _ZTIN2Tp6Client33ProtocolInterfaceAvatarsInterfaceE@Base 0.9.1
 _ZTIN2Tp6Client34CallContentInterfaceMediaInterfaceE@Base 0.9.1
 _ZTIN2Tp6Client34ChannelInterfaceAnonymityInterfaceE@Base 0.9.1
 _ZTIN2Tp6Client34ChannelInterfaceCallStateInterfaceE@Base 0.9.1
 _ZTIN2Tp6Client34ChannelInterfaceChatStateInterfaceE@Base 0.9.1
 _ZTIN2Tp6Client34ChannelInterfaceSecurableInterfaceE@Base 0.9.1
 _ZTIN2Tp6Client34ProtocolInterfacePresenceInterfaceE@Base 0.9.1
 _ZTIN2Tp6Client35AccountInterfaceAddressingInterfaceE@Base 0.9.1
 _ZTIN2Tp6Client35ChannelInterfaceConferenceInterfaceE@Base 0.9.1
 _ZTIN2Tp6Client35ConnectionInterfaceAvatarsInterfaceE@Base 0.9.1
 _ZTIN2Tp6Client35ConnectionInterfaceBalanceInterfaceE@Base 0.9.1
 _ZTIN2Tp6Client36CallContentMediaDescriptionInterfaceE@Base 0.9.1
 _ZTIN2Tp6Client36ChannelInterfaceDestroyableInterfaceE@Base 0.9.1
 _ZTIN2Tp6Client36ConnectionInterfaceAliasingInterfaceE@Base 0.9.1
 _ZTIN2Tp6Client36ConnectionInterfaceCellularInterfaceE@Base 0.9.1
 _ZTIN2Tp6Client36ConnectionInterfaceContactsInterfaceE@Base 0.9.1
 _ZTIN2Tp6Client36ConnectionInterfaceLocationInterfaceE@Base 0.9.1
 _ZTIN2Tp6Client36ConnectionInterfacePresenceInterfaceE@Base 0.9.1
 _ZTIN2Tp6Client36ConnectionInterfaceRequestsInterfaceE@Base 0.9.1
 _ZTIN2Tp6Client36ProtocolInterfaceAddressingInterfaceE@Base 0.9.1
 _ZTIN2Tp6Client37AuthenticationTLSCertificateInterfaceE@Base 0.9.1
 _ZTIN2Tp6Client37ChannelInterfaceServicePointInterfaceE@Base 0.9.1
 _ZTIN2Tp6Client37ConnectionInterfaceAnonymityInterfaceE@Base 0.9.1
 _ZTIN2Tp6Client38ConnectionInterfaceAddressingInterfaceE@Base 0.9.1
 _ZTIN2Tp6Client39ChannelTypeServerTLSConnectionInterfaceE@Base 0.9.1
 _ZTIN2Tp6Client39ConnectionInterfaceClientTypesInterfaceE@Base 0.9.1
 _ZTIN2Tp6Client39ConnectionInterfaceContactInfoInterfaceE@Base 0.9.1
 _ZTIN2Tp6Client39ConnectionInterfaceContactListInterfaceE@Base 0.9.1
 _ZTIN2Tp6Client39ConnectionInterfacePowerSavingInterfaceE@Base 0.9.1
 _ZTIN2Tp6Client40ChannelInterfaceMediaSignallingInterfaceE@Base 0.9.1
 _ZTIN2Tp6Client40ChannelTypeServerAuthenticationInterfaceE@Base 0.9.1
 _ZTIN2Tp6Client40ConnectionInterfaceCapabilitiesInterfaceE@Base 0.9.1
 _ZTIN2Tp6Client40ConnectionInterfaceServicePointInterfaceE@Base 0.9.1
 _ZTIN2Tp6Client41CallContentInterfaceAudioControlInterfaceE@Base 0.9.1
 _ZTIN2Tp6Client41CallContentInterfaceVideoControlInterfaceE@Base 0.9.1
 _ZTIN2Tp6Client41ConnectionInterfaceContactGroupsInterfaceE@Base 0.9.1
 _ZTIN2Tp6Client42ConnectionInterfaceSimplePresenceInterfaceE@Base 0.9.1
 _ZTIN2Tp6Client43ChannelInterfaceSASLAuthenticationInterfaceE@Base 0.9.1
 _ZTIN2Tp6Client43ConnectionInterfaceContactBlockingInterfaceE@Base 0.9.1
 _ZTIN2Tp6Client44ConnectionInterfaceMailNotificationInterfaceE@Base 0.9.1
 _ZTIN2Tp6Client45ChannelInterfaceFileTransferMetadataInterfaceE@Base 0.9.1
 _ZTIN2Tp6Client46ChannelInterfaceCaptchaAuthenticationInterfaceE@Base 0.9.1
 _ZTIN2Tp6Client47ConnectionInterfaceContactCapabilitiesInterfaceE@Base 0.9.1
 _ZTIN2Tp6Client4DBus13PeerInterfaceE@Base 0.9.1
 _ZTIN2Tp6Client4DBus19DBusDaemonInterfaceE@Base 0.9.1
 _ZTIN2Tp6Client4DBus19PropertiesInterfaceE@Base 0.9.1
 _ZTIN2Tp6Client4DBus23IntrospectableInterfaceE@Base 0.9.1
 _ZTIN2Tp6Client57CallContentMediaDescriptionInterfaceRTCPFeedbackInterfaceE@Base 0.9.1
 _ZTIN2Tp6Client64CallContentMediaDescriptionInterfaceRTCPExtendedReportsInterfaceE@Base 0.9.1
 _ZTIN2Tp6Client64CallContentMediaDescriptionInterfaceRTPHeaderExtensionsInterfaceE@Base 0.9.1
 _ZTIN2Tp6ObjectE@Base 0.9.1
 _ZTIN2Tp7AccountE@Base 0.9.1
 _ZTIN2Tp7ChannelE@Base 0.9.1
 _ZTIN2Tp7ContactE@Base 0.9.1
 _ZTIN2Tp7ProfileE@Base 0.9.1
 _ZTIN2Tp9DBusProxyE@Base 0.9.1
 _ZTSN2Tp10AccountSetE@Base 0.9.1
 _ZTSN2Tp10CallStreamE@Base 0.9.1
 _ZTSN2Tp10ConnectionE@Base 0.9.1
 _ZTSN2Tp10RefCountedE@Base 0.9.1
 _ZTSN2Tp11CallChannelE@Base 0.9.1
 _ZTSN2Tp11CallContentE@Base 0.9.1
 _ZTSN2Tp11PendingVoidE@Base 0.9.1
 _ZTSN2Tp11ReadyObjectE@Base 0.9.1
 _ZTSN2Tp11TextChannelE@Base 0.9.1
 _ZTSN2Tp11TubeChannelE@Base 0.9.1
 _ZTSN2Tp12LocationInfoE@Base 0.9.1
 _ZTSN2Tp12PendingReadyE@Base 0.9.1
 _ZTSN2Tp13PendingStringE@Base 0.9.1
 _ZTSN2Tp14AbstractClientE@Base 0.9.1
 _ZTSN2Tp14AccountFactoryE@Base 0.9.1
 _ZTSN2Tp14AccountManagerE@Base 0.9.1
 _ZTSN2Tp14ChannelFactory11ConstructorE@Base 0.9.1
 _ZTSN2Tp14ChannelFactory12SubclassCtorINS_11CallChannelEEE@Base 0.9.1
 _ZTSN2Tp14ChannelFactory12SubclassCtorINS_11TextChannelEEE@Base 0.9.1
 _ZTSN2Tp14ChannelFactory12SubclassCtorINS_15RoomListChannelEEE@Base 0.9.1
 _ZTSN2Tp14ChannelFactory12SubclassCtorINS_20ContactSearchChannelEEE@Base 0.9.1
 _ZTSN2Tp14ChannelFactory12SubclassCtorINS_20StreamedMediaChannelEEE@Base 0.9.1
 _ZTSN2Tp14ChannelFactory12SubclassCtorINS_25IncomingStreamTubeChannelEEE@Base 0.9.1
 _ZTSN2Tp14ChannelFactory12SubclassCtorINS_25OutgoingStreamTubeChannelEEE@Base 0.9.1
 _ZTSN2Tp14ChannelFactory12SubclassCtorINS_27IncomingFileTransferChannelEEE@Base 0.9.1
 _ZTSN2Tp14ChannelFactory12SubclassCtorINS_27OutgoingFileTransferChannelEEE@Base 0.9.1
 _ZTSN2Tp14ChannelFactory12SubclassCtorINS_27ServerAuthenticationChannelEEE@Base 0.9.1
 _ZTSN2Tp14ChannelFactory12SubclassCtorINS_7ChannelEEE@Base 0.9.1
 _ZTSN2Tp14ChannelFactoryE@Base 0.9.1
 _ZTSN2Tp14ChannelRequestE@Base 0.9.1
 _ZTSN2Tp14ContactFactoryE@Base 0.9.1
 _ZTSN2Tp14ContactManagerE@Base 0.9.1
 _ZTSN2Tp14PendingAccountE@Base 0.9.1
 _ZTSN2Tp14PendingChannelE@Base 0.9.1
 _ZTSN2Tp14PendingFailureE@Base 0.9.1
 _ZTSN2Tp14PendingHandlesE@Base 0.9.1
 _ZTSN2Tp14PendingSuccessE@Base 0.9.1
 _ZTSN2Tp14PendingVariantE@Base 0.9.1
 _ZTSN2Tp14ProfileManagerE@Base 0.9.1
 _ZTSN2Tp14SimpleObserverE@Base 0.9.1
 _ZTSN2Tp15ClientRegistrarE@Base 0.9.1
 _ZTSN2Tp15PendingCaptchasE@Base 0.9.1
 _ZTSN2Tp15PendingContactsE@Base 0.9.1
 _ZTSN2Tp15ReadinessHelperE@Base 0.9.1
 _ZTSN2Tp15RoomListChannelE@Base 0.9.1
 _ZTSN2Tp16CapabilitiesBaseE@Base 0.9.1
 _ZTSN2Tp16ContactMessengerE@Base 0.9.1
 _ZTSN2Tp16DBusProxyFactoryE@Base 0.9.1
 _ZTSN2Tp16PendingCompositeE@Base 0.9.1
 _ZTSN2Tp16PendingOperationE@Base 0.9.1
 _ZTSN2Tp16StreamTubeClientE@Base 0.9.1
 _ZTSN2Tp16StreamTubeServer19ParametersGeneratorE@Base 0.9.1
 _ZTSN2Tp16StreamTubeServerE@Base 0.9.1
 _ZTSN2Tp17AbstractInterfaceE@Base 0.9.1
 _ZTSN2Tp17ConnectionFactoryE@Base 0.9.1
 _ZTSN2Tp17ConnectionManagerE@Base 0.9.1
 _ZTSN2Tp17PendingConnectionE@Base 0.9.1
 _ZTSN2Tp17PendingStringListE@Base 0.9.1
 _ZTSN2Tp17PendingVariantMapE@Base 0.9.1
 _ZTSN2Tp17StatefulDBusProxyE@Base 0.9.1
 _ZTSN2Tp17StreamTubeChannelE@Base 0.9.1
 _ZTSN2Tp18ConnectionLowlevelE@Base 0.9.1
 _ZTSN2Tp18PendingCallContentE@Base 0.9.1
 _ZTSN2Tp18PendingContactInfoE@Base 0.9.1
 _ZTSN2Tp18PendingSendMessageE@Base 0.9.1
 _ZTSN2Tp18SimpleCallObserverE@Base 0.9.1
 _ZTSN2Tp18SimpleTextObserverE@Base 0.9.1
 _ZTSN2Tp18StatelessDBusProxyE@Base 0.9.1
 _ZTSN2Tp19ContactCapabilitiesE@Base 0.9.1
 _ZTSN2Tp19FileTransferChannelE@Base 0.9.1
 _ZTSN2Tp19FixedFeatureFactoryE@Base 0.9.1
 _ZTSN2Tp19StreamedMediaStreamE@Base 0.9.1
 _ZTSN2Tp20ContactSearchChannelE@Base 0.9.1
 _ZTSN2Tp20StreamedMediaChannelE@Base 0.9.1
 _ZTSN2Tp21AbstractClientHandlerE@Base 0.9.1
 _ZTSN2Tp21AccountPropertyFilterE@Base 0.9.1
 _ZTSN2Tp21CaptchaAuthenticationE@Base 0.9.1
 _ZTSN2Tp21PendingChannelRequestE@Base 0.9.1
 _ZTSN2Tp22AbstractClientApproverE@Base 0.9.1
 _ZTSN2Tp22AbstractClientObserverE@Base 0.9.1
 _ZTSN2Tp22ConnectionCapabilitiesE@Base 0.9.1
 _ZTSN2Tp22HandledChannelNotifierE@Base 0.9.1
 _ZTSN2Tp22OptionalInterfaceCacheE@Base 0.9.1
 _ZTSN2Tp24ChannelDispatchOperationE@Base 0.9.1
 _ZTSN2Tp24PendingContactAttributesE@Base 0.9.1
 _ZTSN2Tp25ConnectionManagerLowlevelE@Base 0.9.1
 _ZTSN2Tp25IncomingStreamTubeChannelE@Base 0.9.1
 _ZTSN2Tp25OutgoingStreamTubeChannelE@Base 0.9.1
 _ZTSN2Tp27IncomingFileTransferChannelE@Base 0.9.1
 _ZTSN2Tp27OutgoingFileTransferChannelE@Base 0.9.1
 _ZTSN2Tp27PendingStreamTubeConnectionE@Base 0.9.1
 _ZTSN2Tp27PendingStreamedMediaStreamsE@Base 0.9.1
 _ZTSN2Tp27ServerAuthenticationChannelE@Base 0.9.1
 _ZTSN2Tp6Client15ClientInterfaceE@Base 0.9.1
 _ZTSN2Tp6Client16AccountInterfaceE@Base 0.9.1
 _ZTSN2Tp6Client16ChannelInterfaceE@Base 0.9.1
 _ZTSN2Tp6Client17ProtocolInterfaceE@Base 0.9.1
 _ZTSN2Tp6Client19CallStreamInterfaceE@Base 0.9.1
 _ZTSN2Tp6Client19ConnectionInterfaceE@Base 0.9.1
 _ZTSN2Tp6Client20CallContentInterfaceE@Base 0.9.1
 _ZTSN2Tp6Client22ClientHandlerInterfaceE@Base 0.9.1
 _ZTSN2Tp6Client23AccountManagerInterfaceE@Base 0.9.1
 _ZTSN2Tp6Client23ChannelRequestInterfaceE@Base 0.9.1
 _ZTSN2Tp6Client23ClientApproverInterfaceE@Base 0.9.1
 _ZTSN2Tp6Client23ClientObserverInterfaceE@Base 0.9.1
 _ZTSN2Tp6Client24ChannelTypeCallInterfaceE@Base 0.9.1
 _ZTSN2Tp6Client24ChannelTypeTextInterfaceE@Base 0.9.1
 _ZTSN2Tp6Client25ChannelTypeTubesInterfaceE@Base 0.9.1
 _ZTSN2Tp6Client26ChannelDispatcherInterfaceE@Base 0.9.1
 _ZTSN2Tp6Client26ConnectionManagerInterfaceE@Base 0.9.1
 _ZTSN2Tp6Client27CallStreamEndpointInterfaceE@Base 0.9.1
 _ZTSN2Tp6Client27MediaStreamHandlerInterfaceE@Base 0.9.1
 _ZTSN2Tp6Client28ChannelInterfaceSMSInterfaceE@Base 0.9.1
 _ZTSN2Tp6Client28ChannelTypeDBusTubeInterfaceE@Base 0.9.1
 _ZTSN2Tp6Client28ChannelTypeRoomListInterfaceE@Base 0.9.1
 _ZTSN2Tp6Client28MediaSessionHandlerInterfaceE@Base 0.9.1
 _ZTSN2Tp6Client28PropertiesInterfaceInterfaceE@Base 0.9.1
 _ZTSN2Tp6Client29ChannelInterfaceDTMFInterfaceE@Base 0.9.1
 _ZTSN2Tp6Client29ChannelInterfaceHoldInterfaceE@Base 0.9.1
 _ZTSN2Tp6Client29ChannelInterfaceTubeInterfaceE@Base 0.9.1
 _ZTSN2Tp6Client30ChannelInterfaceGroupInterfaceE@Base 0.9.1
 _ZTSN2Tp6Client30ChannelTypeStreamTubeInterfaceE@Base 0.9.1
 _ZTSN2Tp6Client31AccountInterfaceAvatarInterfaceE@Base 0.9.1
 _ZTSN2Tp6Client31ChannelTypeContactListInterfaceE@Base 0.9.1
 _ZTSN2Tp6Client32AccountInterfaceStorageInterfaceE@Base 0.9.1
 _ZTSN2Tp6Client32ChannelTypeFileTransferInterfaceE@Base 0.9.1
 _ZTSN2Tp6Client32ClientInterfaceRequestsInterfaceE@Base 0.9.1
 _ZTSN2Tp6Client33CallContentInterfaceDTMFInterfaceE@Base 0.9.1
 _ZTSN2Tp6Client33CallStreamInterfaceMediaInterfaceE@Base 0.9.1
 _ZTSN2Tp6Client33ChannelDispatchOperationInterfaceE@Base 0.9.1
 _ZTSN2Tp6Client33ChannelInterfaceMessagesInterfaceE@Base 0.9.1
 _ZTSN2Tp6Client33ChannelInterfacePasswordInterfaceE@Base 0.9.1
 _ZTSN2Tp6Client33ChannelTypeContactSearchInterfaceE@Base 0.9.1
 _ZTSN2Tp6Client33ChannelTypeStreamedMediaInterfaceE@Base 0.9.1
 _ZTSN2Tp6Client33ProtocolInterfaceAvatarsInterfaceE@Base 0.9.1
 _ZTSN2Tp6Client34CallContentInterfaceMediaInterfaceE@Base 0.9.1
 _ZTSN2Tp6Client34ChannelInterfaceAnonymityInterfaceE@Base 0.9.1
 _ZTSN2Tp6Client34ChannelInterfaceCallStateInterfaceE@Base 0.9.1
 _ZTSN2Tp6Client34ChannelInterfaceChatStateInterfaceE@Base 0.9.1
 _ZTSN2Tp6Client34ChannelInterfaceSecurableInterfaceE@Base 0.9.1
 _ZTSN2Tp6Client34ProtocolInterfacePresenceInterfaceE@Base 0.9.1
 _ZTSN2Tp6Client35AccountInterfaceAddressingInterfaceE@Base 0.9.1
 _ZTSN2Tp6Client35ChannelInterfaceConferenceInterfaceE@Base 0.9.1
 _ZTSN2Tp6Client35ConnectionInterfaceAvatarsInterfaceE@Base 0.9.1
 _ZTSN2Tp6Client35ConnectionInterfaceBalanceInterfaceE@Base 0.9.1
 _ZTSN2Tp6Client36CallContentMediaDescriptionInterfaceE@Base 0.9.1
 _ZTSN2Tp6Client36ChannelInterfaceDestroyableInterfaceE@Base 0.9.1
 _ZTSN2Tp6Client36ConnectionInterfaceAliasingInterfaceE@Base 0.9.1
 _ZTSN2Tp6Client36ConnectionInterfaceCellularInterfaceE@Base 0.9.1
 _ZTSN2Tp6Client36ConnectionInterfaceContactsInterfaceE@Base 0.9.1
 _ZTSN2Tp6Client36ConnectionInterfaceLocationInterfaceE@Base 0.9.1
 _ZTSN2Tp6Client36ConnectionInterfacePresenceInterfaceE@Base 0.9.1
 _ZTSN2Tp6Client36ConnectionInterfaceRequestsInterfaceE@Base 0.9.1
 _ZTSN2Tp6Client36ProtocolInterfaceAddressingInterfaceE@Base 0.9.1
 _ZTSN2Tp6Client37AuthenticationTLSCertificateInterfaceE@Base 0.9.1
 _ZTSN2Tp6Client37ChannelInterfaceServicePointInterfaceE@Base 0.9.1
 _ZTSN2Tp6Client37ConnectionInterfaceAnonymityInterfaceE@Base 0.9.1
 _ZTSN2Tp6Client38ConnectionInterfaceAddressingInterfaceE@Base 0.9.1
 _ZTSN2Tp6Client39ChannelTypeServerTLSConnectionInterfaceE@Base 0.9.1
 _ZTSN2Tp6Client39ConnectionInterfaceClientTypesInterfaceE@Base 0.9.1
 _ZTSN2Tp6Client39ConnectionInterfaceContactInfoInterfaceE@Base 0.9.1
 _ZTSN2Tp6Client39ConnectionInterfaceContactListInterfaceE@Base 0.9.1
 _ZTSN2Tp6Client39ConnectionInterfacePowerSavingInterfaceE@Base 0.9.1
 _ZTSN2Tp6Client40ChannelInterfaceMediaSignallingInterfaceE@Base 0.9.1
 _ZTSN2Tp6Client40ChannelTypeServerAuthenticationInterfaceE@Base 0.9.1
 _ZTSN2Tp6Client40ConnectionInterfaceCapabilitiesInterfaceE@Base 0.9.1
 _ZTSN2Tp6Client40ConnectionInterfaceServicePointInterfaceE@Base 0.9.1
 _ZTSN2Tp6Client41CallContentInterfaceAudioControlInterfaceE@Base 0.9.1
 _ZTSN2Tp6Client41CallContentInterfaceVideoControlInterfaceE@Base 0.9.1
 _ZTSN2Tp6Client41ConnectionInterfaceContactGroupsInterfaceE@Base 0.9.1
 _ZTSN2Tp6Client42ConnectionInterfaceSimplePresenceInterfaceE@Base 0.9.1
 _ZTSN2Tp6Client43ChannelInterfaceSASLAuthenticationInterfaceE@Base 0.9.1
 _ZTSN2Tp6Client43ConnectionInterfaceContactBlockingInterfaceE@Base 0.9.1
 _ZTSN2Tp6Client44ConnectionInterfaceMailNotificationInterfaceE@Base 0.9.1
 _ZTSN2Tp6Client45ChannelInterfaceFileTransferMetadataInterfaceE@Base 0.9.1
 _ZTSN2Tp6Client46ChannelInterfaceCaptchaAuthenticationInterfaceE@Base 0.9.1
 _ZTSN2Tp6Client47ConnectionInterfaceContactCapabilitiesInterfaceE@Base 0.9.1
 _ZTSN2Tp6Client4DBus13PeerInterfaceE@Base 0.9.1
 _ZTSN2Tp6Client4DBus19DBusDaemonInterfaceE@Base 0.9.1
 _ZTSN2Tp6Client4DBus19PropertiesInterfaceE@Base 0.9.1
 _ZTSN2Tp6Client4DBus23IntrospectableInterfaceE@Base 0.9.1
 _ZTSN2Tp6Client57CallContentMediaDescriptionInterfaceRTCPFeedbackInterfaceE@Base 0.9.1
 _ZTSN2Tp6Client64CallContentMediaDescriptionInterfaceRTCPExtendedReportsInterfaceE@Base 0.9.1
 _ZTSN2Tp6Client64CallContentMediaDescriptionInterfaceRTPHeaderExtensionsInterfaceE@Base 0.9.1
 _ZTSN2Tp6ObjectE@Base 0.9.1
 _ZTSN2Tp7AccountE@Base 0.9.1
 _ZTSN2Tp7ChannelE@Base 0.9.1
 _ZTSN2Tp7ContactE@Base 0.9.1
 _ZTSN2Tp7ProfileE@Base 0.9.1
 _ZTSN2Tp9DBusProxyE@Base 0.9.1
 _ZTTN2Tp21AbstractClientHandlerE@Base 0.9.1
 _ZTTN2Tp22AbstractClientApproverE@Base 0.9.1
 _ZTTN2Tp22AbstractClientObserverE@Base 0.9.1
 _ZTVN2Tp10AccountSetE@Base 0.9.1
 _ZTVN2Tp10CallStreamE@Base 0.9.1
 _ZTVN2Tp10ConnectionE@Base 0.9.1
 _ZTVN2Tp10RefCountedE@Base 0.9.1
 _ZTVN2Tp11CallChannelE@Base 0.9.1
 _ZTVN2Tp11CallContentE@Base 0.9.1
 _ZTVN2Tp11PendingVoidE@Base 0.9.1
 _ZTVN2Tp11ReadyObjectE@Base 0.9.1
 _ZTVN2Tp11TextChannelE@Base 0.9.1
 _ZTVN2Tp11TubeChannelE@Base 0.9.1
 _ZTVN2Tp12LocationInfoE@Base 0.9.1
 _ZTVN2Tp12PendingReadyE@Base 0.9.1
 _ZTVN2Tp13PendingStringE@Base 0.9.1
 _ZTVN2Tp14AbstractClientE@Base 0.9.1
 _ZTVN2Tp14AccountFactoryE@Base 0.9.1
 _ZTVN2Tp14AccountManagerE@Base 0.9.1
 _ZTVN2Tp14ChannelFactory11ConstructorE@Base 0.9.1
 _ZTVN2Tp14ChannelFactory12SubclassCtorINS_11CallChannelEEE@Base 0.9.1
 _ZTVN2Tp14ChannelFactory12SubclassCtorINS_11TextChannelEEE@Base 0.9.1
 _ZTVN2Tp14ChannelFactory12SubclassCtorINS_15RoomListChannelEEE@Base 0.9.1
 _ZTVN2Tp14ChannelFactory12SubclassCtorINS_20ContactSearchChannelEEE@Base 0.9.1
 _ZTVN2Tp14ChannelFactory12SubclassCtorINS_20StreamedMediaChannelEEE@Base 0.9.1
 _ZTVN2Tp14ChannelFactory12SubclassCtorINS_25IncomingStreamTubeChannelEEE@Base 0.9.1
 _ZTVN2Tp14ChannelFactory12SubclassCtorINS_25OutgoingStreamTubeChannelEEE@Base 0.9.1
 _ZTVN2Tp14ChannelFactory12SubclassCtorINS_27IncomingFileTransferChannelEEE@Base 0.9.1
 _ZTVN2Tp14ChannelFactory12SubclassCtorINS_27OutgoingFileTransferChannelEEE@Base 0.9.1
 _ZTVN2Tp14ChannelFactory12SubclassCtorINS_27ServerAuthenticationChannelEEE@Base 0.9.1
 _ZTVN2Tp14ChannelFactory12SubclassCtorINS_7ChannelEEE@Base 0.9.1
 _ZTVN2Tp14ChannelFactoryE@Base 0.9.1
 _ZTVN2Tp14ChannelRequestE@Base 0.9.1
 _ZTVN2Tp14ContactFactoryE@Base 0.9.1
 _ZTVN2Tp14ContactManagerE@Base 0.9.1
 _ZTVN2Tp14PendingAccountE@Base 0.9.1
 _ZTVN2Tp14PendingChannelE@Base 0.9.1
 _ZTVN2Tp14PendingFailureE@Base 0.9.1
 _ZTVN2Tp14PendingHandlesE@Base 0.9.1
 _ZTVN2Tp14PendingSuccessE@Base 0.9.1
 _ZTVN2Tp14PendingVariantE@Base 0.9.1
 _ZTVN2Tp14ProfileManagerE@Base 0.9.1
 _ZTVN2Tp14SimpleObserverE@Base 0.9.1
 _ZTVN2Tp15ClientRegistrarE@Base 0.9.1
 _ZTVN2Tp15PendingCaptchasE@Base 0.9.1
 _ZTVN2Tp15PendingContactsE@Base 0.9.1
 _ZTVN2Tp15ReadinessHelperE@Base 0.9.1
 _ZTVN2Tp15RoomListChannelE@Base 0.9.1
 _ZTVN2Tp16CapabilitiesBaseE@Base 0.9.1
 _ZTVN2Tp16ContactMessengerE@Base 0.9.1
 _ZTVN2Tp16DBusProxyFactoryE@Base 0.9.1
 _ZTVN2Tp16PendingCompositeE@Base 0.9.1
 _ZTVN2Tp16PendingOperationE@Base 0.9.1
 _ZTVN2Tp16StreamTubeClientE@Base 0.9.1
 _ZTVN2Tp16StreamTubeServer19ParametersGeneratorE@Base 0.9.1
 _ZTVN2Tp16StreamTubeServerE@Base 0.9.1
 _ZTVN2Tp17AbstractInterfaceE@Base 0.9.1
 _ZTVN2Tp17ConnectionFactoryE@Base 0.9.1
 _ZTVN2Tp17ConnectionManagerE@Base 0.9.1
 _ZTVN2Tp17PendingConnectionE@Base 0.9.1
 _ZTVN2Tp17PendingStringListE@Base 0.9.1
 _ZTVN2Tp17PendingVariantMapE@Base 0.9.1
 _ZTVN2Tp17StatefulDBusProxyE@Base 0.9.1
 _ZTVN2Tp17StreamTubeChannelE@Base 0.9.1
 _ZTVN2Tp18ConnectionLowlevelE@Base 0.9.1
 _ZTVN2Tp18PendingCallContentE@Base 0.9.1
 _ZTVN2Tp18PendingContactInfoE@Base 0.9.1
 _ZTVN2Tp18PendingSendMessageE@Base 0.9.1
 _ZTVN2Tp18SimpleCallObserverE@Base 0.9.1
 _ZTVN2Tp18SimpleTextObserverE@Base 0.9.1
 _ZTVN2Tp18StatelessDBusProxyE@Base 0.9.1
 _ZTVN2Tp19ContactCapabilitiesE@Base 0.9.1
 _ZTVN2Tp19FileTransferChannelE@Base 0.9.1
 _ZTVN2Tp19FixedFeatureFactoryE@Base 0.9.1
 _ZTVN2Tp19StreamedMediaStreamE@Base 0.9.1
 _ZTVN2Tp20ContactSearchChannelE@Base 0.9.1
 _ZTVN2Tp20StreamedMediaChannelE@Base 0.9.1
 _ZTVN2Tp21AbstractClientHandlerE@Base 0.9.1
 _ZTVN2Tp21AccountPropertyFilterE@Base 0.9.1
 _ZTVN2Tp21CaptchaAuthenticationE@Base 0.9.1
 _ZTVN2Tp21PendingChannelRequestE@Base 0.9.1
 _ZTVN2Tp22AbstractClientApproverE@Base 0.9.1
 _ZTVN2Tp22AbstractClientObserverE@Base 0.9.1
 _ZTVN2Tp22ConnectionCapabilitiesE@Base 0.9.1
 _ZTVN2Tp22HandledChannelNotifierE@Base 0.9.1
 _ZTVN2Tp24ChannelDispatchOperationE@Base 0.9.1
 _ZTVN2Tp24PendingContactAttributesE@Base 0.9.1
 _ZTVN2Tp25ConnectionManagerLowlevelE@Base 0.9.1
 _ZTVN2Tp25IncomingStreamTubeChannelE@Base 0.9.1
 _ZTVN2Tp25OutgoingStreamTubeChannelE@Base 0.9.1
 _ZTVN2Tp27IncomingFileTransferChannelE@Base 0.9.1
 _ZTVN2Tp27OutgoingFileTransferChannelE@Base 0.9.1
 _ZTVN2Tp27PendingStreamTubeConnectionE@Base 0.9.1
 _ZTVN2Tp27PendingStreamedMediaStreamsE@Base 0.9.1
 _ZTVN2Tp27ServerAuthenticationChannelE@Base 0.9.1
 _ZTVN2Tp6Client15ClientInterfaceE@Base 0.9.1
 _ZTVN2Tp6Client16AccountInterfaceE@Base 0.9.1
 _ZTVN2Tp6Client16ChannelInterfaceE@Base 0.9.1
 _ZTVN2Tp6Client17ProtocolInterfaceE@Base 0.9.1
 _ZTVN2Tp6Client19CallStreamInterfaceE@Base 0.9.1
 _ZTVN2Tp6Client19ConnectionInterfaceE@Base 0.9.1
 _ZTVN2Tp6Client20CallContentInterfaceE@Base 0.9.1
 _ZTVN2Tp6Client22ClientHandlerInterfaceE@Base 0.9.1
 _ZTVN2Tp6Client23AccountManagerInterfaceE@Base 0.9.1
 _ZTVN2Tp6Client23ChannelRequestInterfaceE@Base 0.9.1
 _ZTVN2Tp6Client23ClientApproverInterfaceE@Base 0.9.1
 _ZTVN2Tp6Client23ClientObserverInterfaceE@Base 0.9.1
 _ZTVN2Tp6Client24ChannelTypeCallInterfaceE@Base 0.9.1
 _ZTVN2Tp6Client24ChannelTypeTextInterfaceE@Base 0.9.1
 _ZTVN2Tp6Client25ChannelTypeTubesInterfaceE@Base 0.9.1
 _ZTVN2Tp6Client26ChannelDispatcherInterfaceE@Base 0.9.1
 _ZTVN2Tp6Client26ConnectionManagerInterfaceE@Base 0.9.1
 _ZTVN2Tp6Client27CallStreamEndpointInterfaceE@Base 0.9.1
 _ZTVN2Tp6Client27MediaStreamHandlerInterfaceE@Base 0.9.1
 _ZTVN2Tp6Client28ChannelInterfaceSMSInterfaceE@Base 0.9.1
 _ZTVN2Tp6Client28ChannelTypeDBusTubeInterfaceE@Base 0.9.1
 _ZTVN2Tp6Client28ChannelTypeRoomListInterfaceE@Base 0.9.1
 _ZTVN2Tp6Client28MediaSessionHandlerInterfaceE@Base 0.9.1
 _ZTVN2Tp6Client28PropertiesInterfaceInterfaceE@Base 0.9.1
 _ZTVN2Tp6Client29ChannelInterfaceDTMFInterfaceE@Base 0.9.1
 _ZTVN2Tp6Client29ChannelInterfaceHoldInterfaceE@Base 0.9.1
 _ZTVN2Tp6Client29ChannelInterfaceTubeInterfaceE@Base 0.9.1
 _ZTVN2Tp6Client30ChannelInterfaceGroupInterfaceE@Base 0.9.1
 _ZTVN2Tp6Client30ChannelTypeStreamTubeInterfaceE@Base 0.9.1
 _ZTVN2Tp6Client31AccountInterfaceAvatarInterfaceE@Base 0.9.1
 _ZTVN2Tp6Client31ChannelTypeContactListInterfaceE@Base 0.9.1
 _ZTVN2Tp6Client32AccountInterfaceStorageInterfaceE@Base 0.9.1
 _ZTVN2Tp6Client32ChannelTypeFileTransferInterfaceE@Base 0.9.1
 _ZTVN2Tp6Client32ClientInterfaceRequestsInterfaceE@Base 0.9.1
 _ZTVN2Tp6Client33CallContentInterfaceDTMFInterfaceE@Base 0.9.1
 _ZTVN2Tp6Client33CallStreamInterfaceMediaInterfaceE@Base 0.9.1
 _ZTVN2Tp6Client33ChannelDispatchOperationInterfaceE@Base 0.9.1
 _ZTVN2Tp6Client33ChannelInterfaceMessagesInterfaceE@Base 0.9.1
 _ZTVN2Tp6Client33ChannelInterfacePasswordInterfaceE@Base 0.9.1
 _ZTVN2Tp6Client33ChannelTypeContactSearchInterfaceE@Base 0.9.1
 _ZTVN2Tp6Client33ChannelTypeStreamedMediaInterfaceE@Base 0.9.1
 _ZTVN2Tp6Client33ProtocolInterfaceAvatarsInterfaceE@Base 0.9.1
 _ZTVN2Tp6Client34CallContentInterfaceMediaInterfaceE@Base 0.9.1
 _ZTVN2Tp6Client34ChannelInterfaceAnonymityInterfaceE@Base 0.9.1
 _ZTVN2Tp6Client34ChannelInterfaceCallStateInterfaceE@Base 0.9.1
 _ZTVN2Tp6Client34ChannelInterfaceChatStateInterfaceE@Base 0.9.1
 _ZTVN2Tp6Client34ChannelInterfaceSecurableInterfaceE@Base 0.9.1
 _ZTVN2Tp6Client34ProtocolInterfacePresenceInterfaceE@Base 0.9.1
 _ZTVN2Tp6Client35AccountInterfaceAddressingInterfaceE@Base 0.9.1
 _ZTVN2Tp6Client35ChannelInterfaceConferenceInterfaceE@Base 0.9.1
 _ZTVN2Tp6Client35ConnectionInterfaceAvatarsInterfaceE@Base 0.9.1
 _ZTVN2Tp6Client35ConnectionInterfaceBalanceInterfaceE@Base 0.9.1
 _ZTVN2Tp6Client36CallContentMediaDescriptionInterfaceE@Base 0.9.1
 _ZTVN2Tp6Client36ChannelInterfaceDestroyableInterfaceE@Base 0.9.1
 _ZTVN2Tp6Client36ConnectionInterfaceAliasingInterfaceE@Base 0.9.1
 _ZTVN2Tp6Client36ConnectionInterfaceCellularInterfaceE@Base 0.9.1
 _ZTVN2Tp6Client36ConnectionInterfaceContactsInterfaceE@Base 0.9.1
 _ZTVN2Tp6Client36ConnectionInterfaceLocationInterfaceE@Base 0.9.1
 _ZTVN2Tp6Client36ConnectionInterfacePresenceInterfaceE@Base 0.9.1
 _ZTVN2Tp6Client36ConnectionInterfaceRequestsInterfaceE@Base 0.9.1
 _ZTVN2Tp6Client36ProtocolInterfaceAddressingInterfaceE@Base 0.9.1
 _ZTVN2Tp6Client37AuthenticationTLSCertificateInterfaceE@Base 0.9.1
 _ZTVN2Tp6Client37ChannelInterfaceServicePointInterfaceE@Base 0.9.1
 _ZTVN2Tp6Client37ConnectionInterfaceAnonymityInterfaceE@Base 0.9.1
 _ZTVN2Tp6Client38ConnectionInterfaceAddressingInterfaceE@Base 0.9.1
 _ZTVN2Tp6Client39ChannelTypeServerTLSConnectionInterfaceE@Base 0.9.1
 _ZTVN2Tp6Client39ConnectionInterfaceClientTypesInterfaceE@Base 0.9.1
 _ZTVN2Tp6Client39ConnectionInterfaceContactInfoInterfaceE@Base 0.9.1
 _ZTVN2Tp6Client39ConnectionInterfaceContactListInterfaceE@Base 0.9.1
 _ZTVN2Tp6Client39ConnectionInterfacePowerSavingInterfaceE@Base 0.9.1
 _ZTVN2Tp6Client40ChannelInterfaceMediaSignallingInterfaceE@Base 0.9.1
 _ZTVN2Tp6Client40ChannelTypeServerAuthenticationInterfaceE@Base 0.9.1
 _ZTVN2Tp6Client40ConnectionInterfaceCapabilitiesInterfaceE@Base 0.9.1
 _ZTVN2Tp6Client40ConnectionInterfaceServicePointInterfaceE@Base 0.9.1
 _ZTVN2Tp6Client41CallContentInterfaceAudioControlInterfaceE@Base 0.9.1
 _ZTVN2Tp6Client41CallContentInterfaceVideoControlInterfaceE@Base 0.9.1
 _ZTVN2Tp6Client41ConnectionInterfaceContactGroupsInterfaceE@Base 0.9.1
 _ZTVN2Tp6Client42ConnectionInterfaceSimplePresenceInterfaceE@Base 0.9.1
 _ZTVN2Tp6Client43ChannelInterfaceSASLAuthenticationInterfaceE@Base 0.9.1
 _ZTVN2Tp6Client43ConnectionInterfaceContactBlockingInterfaceE@Base 0.9.1
 _ZTVN2Tp6Client44ConnectionInterfaceMailNotificationInterfaceE@Base 0.9.1
 _ZTVN2Tp6Client45ChannelInterfaceFileTransferMetadataInterfaceE@Base 0.9.1
 _ZTVN2Tp6Client46ChannelInterfaceCaptchaAuthenticationInterfaceE@Base 0.9.1
 _ZTVN2Tp6Client47ConnectionInterfaceContactCapabilitiesInterfaceE@Base 0.9.1
 _ZTVN2Tp6Client4DBus13PeerInterfaceE@Base 0.9.1
 _ZTVN2Tp6Client4DBus19DBusDaemonInterfaceE@Base 0.9.1
 _ZTVN2Tp6Client4DBus19PropertiesInterfaceE@Base 0.9.1
 _ZTVN2Tp6Client4DBus23IntrospectableInterfaceE@Base 0.9.1
 _ZTVN2Tp6Client57CallContentMediaDescriptionInterfaceRTCPFeedbackInterfaceE@Base 0.9.1
 _ZTVN2Tp6Client64CallContentMediaDescriptionInterfaceRTCPExtendedReportsInterfaceE@Base 0.9.1
 _ZTVN2Tp6Client64CallContentMediaDescriptionInterfaceRTPHeaderExtensionsInterfaceE@Base 0.9.1
 _ZTVN2Tp6ObjectE@Base 0.9.1
 _ZTVN2Tp7AccountE@Base 0.9.1
 _ZTVN2Tp7ChannelE@Base 0.9.1
 _ZTVN2Tp7ContactE@Base 0.9.1
 _ZTVN2Tp7ProfileE@Base 0.9.1
 _ZTVN2Tp9DBusProxyE@Base 0.9.1
 (c++)"non-virtual thunk to Tp::Account::~Account()@Base" 0.9.1
 (c++)"non-virtual thunk to Tp::AccountFactory::~AccountFactory()@Base" 0.9.1
 (c++)"non-virtual thunk to Tp::AccountManager::~AccountManager()@Base" 0.9.1
 (c++)"non-virtual thunk to Tp::AccountSet::~AccountSet()@Base" 0.9.1
 (c++)"non-virtual thunk to Tp::CallChannel::~CallChannel()@Base" 0.9.1
 (c++)"non-virtual thunk to Tp::CallContent::~CallContent()@Base" 0.9.1
 (c++)"non-virtual thunk to Tp::CallStream::~CallStream()@Base" 0.9.1
 (c++)"non-virtual thunk to Tp::CaptchaAuthentication::~CaptchaAuthentication()@Base" 0.9.1
 (c++)"non-virtual thunk to Tp::Channel::~Channel()@Base" 0.9.1
 (c++)"non-virtual thunk to Tp::ChannelDispatchOperation::~ChannelDispatchOperation()@Base" 0.9.1
 (c++)"non-virtual thunk to Tp::ChannelFactory::~ChannelFactory()@Base" 0.9.1
 (c++)"non-virtual thunk to Tp::ChannelRequest::~ChannelRequest()@Base" 0.9.1
 (c++)"non-virtual thunk to Tp::ClientRegistrar::~ClientRegistrar()@Base" 0.9.1
 (c++)"non-virtual thunk to Tp::Connection::~Connection()@Base" 0.9.1
 (c++)"non-virtual thunk to Tp::ConnectionFactory::~ConnectionFactory()@Base" 0.9.1
 (c++)"non-virtual thunk to Tp::ConnectionLowlevel::~ConnectionLowlevel()@Base" 0.9.1
 (c++)"non-virtual thunk to Tp::ConnectionManager::~ConnectionManager()@Base" 0.9.1
 (c++)"non-virtual thunk to Tp::ConnectionManagerLowlevel::~ConnectionManagerLowlevel()@Base" 0.9.1
 (c++)"non-virtual thunk to Tp::Contact::~Contact()@Base" 0.9.1
 (c++)"non-virtual thunk to Tp::ContactManager::~ContactManager()@Base" 0.9.1
 (c++)"non-virtual thunk to Tp::ContactMessenger::~ContactMessenger()@Base" 0.9.1
 (c++)"non-virtual thunk to Tp::ContactSearchChannel::~ContactSearchChannel()@Base" 0.9.1
 (c++)"non-virtual thunk to Tp::DBusProxy::~DBusProxy()@Base" 0.9.1
 (c++)"non-virtual thunk to Tp::DBusProxyFactory::~DBusProxyFactory()@Base" 0.9.1
 (c++)"non-virtual thunk to Tp::FileTransferChannel::~FileTransferChannel()@Base" 0.9.1
 (c++)"non-virtual thunk to Tp::FixedFeatureFactory::~FixedFeatureFactory()@Base" 0.9.1
 (c++)"non-virtual thunk to Tp::IncomingFileTransferChannel::~IncomingFileTransferChannel()@Base" 0.9.1
 (c++)"non-virtual thunk to Tp::IncomingStreamTubeChannel::~IncomingStreamTubeChannel()@Base" 0.9.1
 (c++)"non-virtual thunk to Tp::Object::~Object()@Base" 0.9.1
 (c++)"non-virtual thunk to Tp::OutgoingFileTransferChannel::~OutgoingFileTransferChannel()@Base" 0.9.1
 (c++)"non-virtual thunk to Tp::OutgoingStreamTubeChannel::~OutgoingStreamTubeChannel()@Base" 0.9.1
 (c++)"non-virtual thunk to Tp::ProfileManager::~ProfileManager()@Base" 0.9.1
 (c++)"non-virtual thunk to Tp::RoomListChannel::~RoomListChannel()@Base" 0.9.1
 (c++)"non-virtual thunk to Tp::ServerAuthenticationChannel::~ServerAuthenticationChannel()@Base" 0.9.1
 (c++)"non-virtual thunk to Tp::SimpleCallObserver::~SimpleCallObserver()@Base" 0.9.1
 (c++)"non-virtual thunk to Tp::SimpleObserver::~SimpleObserver()@Base" 0.9.1
 (c++)"non-virtual thunk to Tp::SimpleTextObserver::~SimpleTextObserver()@Base" 0.9.1
 (c++)"non-virtual thunk to Tp::StatefulDBusProxy::~StatefulDBusProxy()@Base" 0.9.1
 (c++)"non-virtual thunk to Tp::StatelessDBusProxy::~StatelessDBusProxy()@Base" 0.9.1
 (c++)"non-virtual thunk to Tp::StreamTubeChannel::~StreamTubeChannel()@Base" 0.9.1
 (c++)"non-virtual thunk to Tp::StreamTubeClient::~StreamTubeClient()@Base" 0.9.1
 (c++)"non-virtual thunk to Tp::StreamTubeServer::~StreamTubeServer()@Base" 0.9.1
 (c++)"non-virtual thunk to Tp::StreamedMediaChannel::~StreamedMediaChannel()@Base" 0.9.1
 (c++)"non-virtual thunk to Tp::StreamedMediaStream::~StreamedMediaStream()@Base" 0.9.1
 (c++)"non-virtual thunk to Tp::TextChannel::~TextChannel()@Base" 0.9.1
 (c++)"non-virtual thunk to Tp::TubeChannel::~TubeChannel()@Base" 0.9.1
 (c++)"virtual thunk to Tp::AbstractClientApprover::~AbstractClientApprover()@Base" 0.9.1
 (c++)"virtual thunk to Tp::AbstractClientHandler::~AbstractClientHandler()@Base" 0.9.1
 (c++)"virtual thunk to Tp::AbstractClientObserver::~AbstractClientObserver()@Base" 0.9.1
