# SymbolsHelper-Confirmed: 4:4.8.4 amd64 armel armhf hurd-i386 i386 ia64 kfreebsd-amd64 kfreebsd-i386 mips mipsel powerpc s390 s390x sparc
libokularcore.so.1 libokularcore1 #MINVER#
 (arch=kfreebsd-amd64 kfreebsd-i386)_ZN14KBookmarkGroupD1Ev@Base 4:4.8.4
 (arch=kfreebsd-amd64 kfreebsd-i386)_ZN14KBookmarkGroupD2Ev@Base 4:4.8.4
 (optional=external|arch=amd64 hurd-i386 i386 kfreebsd-amd64 kfreebsd-i386)_ZN19KCoreConfigSkeleton8ItemEnum7Choice2D1Ev@Base 4:4.6.5
 (optional=external|arch=amd64 hurd-i386 i386 kfreebsd-amd64 kfreebsd-i386)_ZN19KCoreConfigSkeleton8ItemEnum7Choice2D2Ev@Base 4:4.6.5
 _ZN6Okular10Annotation11setContentsERK7QString@Base 4:4.4.5
 _ZN6Okular10Annotation11setNativeIdERK8QVariant@Base 4:4.4.5
 _ZN6Okular10Annotation13setUniqueNameERK7QString@Base 4:4.4.5
 _ZN6Okular10Annotation15setCreationDateERK9QDateTime@Base 4:4.4.5
 _ZN6Okular10Annotation19setModificationDateERK9QDateTime@Base 4:4.4.5
 _ZN6Okular10Annotation20setBoundingRectangleERKNS_14NormalizedRectE@Base 4:4.4.5
 _ZN6Okular10Annotation22setDisposeDataFunctionEPFvPKS0_E@Base 4:4.4.5
 _ZN6Okular10Annotation5Style10setOpacityEd@Base 4:4.4.5
 _ZN6Okular10Annotation5Style11setXCornersEd@Base 4:4.4.5
 _ZN6Okular10Annotation5Style11setYCornersEd@Base 4:4.4.5
 _ZN6Okular10Annotation5Style12setLineStyleENS0_9LineStyleE@Base 4:4.4.5
 _ZN6Okular10Annotation5Style13setLineEffectENS0_10LineEffectE@Base 4:4.4.5
 _ZN6Okular10Annotation5Style18setEffectIntensityEd@Base 4:4.4.5
 (arch=kfreebsd-amd64 kfreebsd-i386)_ZN6Okular10Annotation5Style7PrivateaSERKS2_@Base 4:4.8.4
 _ZN6Okular10Annotation5Style8setColorERK6QColor@Base 4:4.4.5
 _ZN6Okular10Annotation5Style8setMarksEi@Base 4:4.4.5
 _ZN6Okular10Annotation5Style8setWidthEd@Base 4:4.4.5
 _ZN6Okular10Annotation5Style9setSpacesEi@Base 4:4.4.5
 _ZN6Okular10Annotation5StyleC1ERKS1_@Base 4:4.4.5
 _ZN6Okular10Annotation5StyleC1Ev@Base 4:4.4.5
 _ZN6Okular10Annotation5StyleC2ERKS1_@Base 4:4.4.5
 _ZN6Okular10Annotation5StyleC2Ev@Base 4:4.4.5
 _ZN6Okular10Annotation5StyleD1Ev@Base 4:4.4.5
 _ZN6Okular10Annotation5StyleD2Ev@Base 4:4.4.5
 _ZN6Okular10Annotation5StyleaSERKS1_@Base 4:4.4.5
 _ZN6Okular10Annotation5styleEv@Base 4:4.4.5
 _ZN6Okular10Annotation6Window10setSummaryERK7QString@Base 4:4.4.5
 _ZN6Okular10Annotation6Window10setTopLeftERKNS_15NormalizedPointE@Base 4:4.4.5
 (arch=hurd-i386 i386 kfreebsd-amd64 kfreebsd-i386)_ZN6Okular10Annotation6Window7PrivateD1Ev@Base 4:4.8.4
 (arch=hurd-i386 i386 kfreebsd-amd64 kfreebsd-i386)_ZN6Okular10Annotation6Window7PrivateD2Ev@Base 4:4.8.4
 (arch=kfreebsd-amd64 kfreebsd-i386)_ZN6Okular10Annotation6Window7PrivateaSERKS2_@Base 4:4.8.4
 _ZN6Okular10Annotation6Window7setTextERK7QString@Base 4:4.4.5
 _ZN6Okular10Annotation6Window8setFlagsEi@Base 4:4.4.5
 _ZN6Okular10Annotation6Window8setTitleERK7QString@Base 4:4.4.5
 _ZN6Okular10Annotation6Window8setWidthEi@Base 4:4.4.5
 _ZN6Okular10Annotation6Window9setHeightEi@Base 4:4.4.5
 _ZN6Okular10Annotation6WindowC1ERKS1_@Base 4:4.4.5
 _ZN6Okular10Annotation6WindowC1Ev@Base 4:4.4.5
 _ZN6Okular10Annotation6WindowC2ERKS1_@Base 4:4.4.5
 _ZN6Okular10Annotation6WindowC2Ev@Base 4:4.4.5
 _ZN6Okular10Annotation6WindowD1Ev@Base 4:4.4.5
 _ZN6Okular10Annotation6WindowD2Ev@Base 4:4.4.5
 _ZN6Okular10Annotation6WindowaSERKS1_@Base 4:4.4.5
 _ZN6Okular10Annotation6windowEv@Base 4:4.4.5
 _ZN6Okular10Annotation8Revision13setAnnotationEPS0_@Base 4:4.4.5
 _ZN6Okular10Annotation8Revision7setTypeENS0_12RevisionTypeE@Base 4:4.4.5
 _ZN6Okular10Annotation8Revision8setScopeENS0_13RevisionScopeE@Base 4:4.4.5
 _ZN6Okular10Annotation8RevisionC1ERKS1_@Base 4:4.4.5
 _ZN6Okular10Annotation8RevisionC1Ev@Base 4:4.4.5
 _ZN6Okular10Annotation8RevisionC2ERKS1_@Base 4:4.4.5
 _ZN6Okular10Annotation8RevisionC2Ev@Base 4:4.4.5
 _ZN6Okular10Annotation8RevisionD1Ev@Base 4:4.4.5
 _ZN6Okular10Annotation8RevisionD2Ev@Base 4:4.4.5
 _ZN6Okular10Annotation8RevisionaSERKS1_@Base 4:4.4.5
 _ZN6Okular10Annotation8setFlagsEi@Base 4:4.4.5
 _ZN6Okular10Annotation9revisionsEv@Base 4:4.4.5
 _ZN6Okular10Annotation9setAuthorERK7QString@Base 4:4.4.5
 _ZN6Okular10Annotation9translateERKNS_15NormalizedPointE@Base 4:4.4.5
 _ZN6Okular10AnnotationC1ERNS_17AnnotationPrivateE@Base 4:4.4.5
 _ZN6Okular10AnnotationC1ERNS_17AnnotationPrivateERK8QDomNode@Base 4:4.4.5
 _ZN6Okular10AnnotationC2ERNS_17AnnotationPrivateE@Base 4:4.4.5
 _ZN6Okular10AnnotationC2ERNS_17AnnotationPrivateERK8QDomNode@Base 4:4.4.5
 _ZN6Okular10AnnotationD0Ev@Base 4:4.4.5
 _ZN6Okular10AnnotationD1Ev@Base 4:4.4.5
 _ZN6Okular10AnnotationD2Ev@Base 4:4.4.5
 _ZN6Okular10GotoActionC1ERK7QStringRKNS_16DocumentViewportE@Base 4:4.4.5
 _ZN6Okular10GotoActionC1ERK7QStringS3_@Base 4:4.4.5
 _ZN6Okular10GotoActionC2ERK7QStringRKNS_16DocumentViewportE@Base 4:4.4.5
 _ZN6Okular10GotoActionC2ERK7QStringS3_@Base 4:4.4.5
 _ZN6Okular10GotoActionD0Ev@Base 4:4.4.5
 _ZN6Okular10GotoActionD1Ev@Base 4:4.4.5
 _ZN6Okular10GotoActionD2Ev@Base 4:4.4.5
 _ZN6Okular10ObjectRect9transformERK7QMatrix@Base 4:4.4.5
 _ZN6Okular10ObjectRectC1ERK9QPolygonFNS0_10ObjectTypeEPv@Base 4:4.4.5
 _ZN6Okular10ObjectRectC1ERKNS_14NormalizedRectEbNS0_10ObjectTypeEPv@Base 4:4.4.5
 _ZN6Okular10ObjectRectC1EddddbNS0_10ObjectTypeEPv@Base 4:4.4.5
 _ZN6Okular10ObjectRectC2ERK9QPolygonFNS0_10ObjectTypeEPv@Base 4:4.4.5
 _ZN6Okular10ObjectRectC2ERKNS_14NormalizedRectEbNS0_10ObjectTypeEPv@Base 4:4.4.5
 _ZN6Okular10ObjectRectC2EddddbNS0_10ObjectTypeEPv@Base 4:4.4.5
 _ZN6Okular10ObjectRectD0Ev@Base 4:4.4.5
 _ZN6Okular10ObjectRectD1Ev@Base 4:4.4.5
 _ZN6Okular10ObjectRectD2Ev@Base 4:4.4.5
 _ZN6Okular10TextEntityC1ERK7QStringPNS_14NormalizedRectE@Base 4:4.4.5
 _ZN6Okular10TextEntityC2ERK7QStringPNS_14NormalizedRectE@Base 4:4.4.5
 _ZN6Okular10TextEntityD1Ev@Base 4:4.4.5
 _ZN6Okular10TextEntityD2Ev@Base 4:4.4.5
 _ZN6Okular11AudioPlayer11qt_metacallEN11QMetaObject4CallEiPPv@Base 4:4.4.5
 _ZN6Okular11AudioPlayer11qt_metacastEPKc@Base 4:4.4.5
 _ZN6Okular11AudioPlayer13stopPlaybacksEv@Base 4:4.4.5
 _ZN6Okular11AudioPlayer16staticMetaObjectE@Base 4:4.4.5
 _ZN6Okular11AudioPlayer8instanceEv@Base 4:4.4.5
 _ZN6Okular11AudioPlayer9playSoundEPKNS_5SoundEPKNS_11SoundActionE@Base 4:4.4.5
 _ZN6Okular11AudioPlayerC1Ev@Base 4:4.4.5
 _ZN6Okular11AudioPlayerC2Ev@Base 4:4.4.5
 _ZN6Okular11AudioPlayerD0Ev@Base 4:4.4.5
 _ZN6Okular11AudioPlayerD1Ev@Base 4:4.4.5
 _ZN6Okular11AudioPlayerD2Ev@Base 4:4.4.5
 _ZN6Okular11FilePrinter10deleteFileER8QPrinterNS0_16FileDeletePolicyERK7QString@Base 4:4.4.5
 _ZN6Okular11FilePrinter10printErrorEi@Base 4:4.6.1
 _ZN6Okular11FilePrinter10printFilesER8QPrinterRK11QStringListNS0_16FileDeletePolicyE@Base 4:4.4.5
 _ZN6Okular11FilePrinter11cupsOptionsER8QPrinter@Base 4:4.4.5
 _ZN6Okular11FilePrinter11cupsOptionsER8QPrinterNS1_11OrientationE@Base 4:4.8.4
 _ZN6Okular11FilePrinter11destinationER8QPrinterRK7QString@Base 4:4.4.5
 _ZN6Okular11FilePrinter11optionMediaER8QPrinter@Base 4:4.4.5
 _ZN6Okular11FilePrinter11psPaperSizeER8QPrinter@Base 4:4.4.5
 _ZN6Okular11FilePrinter12doPrintFilesER8QPrinter11QStringListNS0_16FileDeletePolicyENS0_16PageSelectPolicyERK7QString@Base 4:4.4.5
 _ZN6Okular11FilePrinter12doPrintFilesER8QPrinter11QStringListNS0_16FileDeletePolicyENS0_16PageSelectPolicyERK7QStringNS1_11OrientationE@Base 4:4.8.4
 _ZN6Okular11FilePrinter13cupsAvailableEv@Base 4:4.4.5
 _ZN6Okular11FilePrinter13mediaPageSizeER8QPrinter@Base 4:4.4.5
 _ZN6Okular11FilePrinter14printArgumentsER8QPrinterNS0_16FileDeletePolicyENS0_16PageSelectPolicyEbRK7QStringS7_@Base 4:4.4.5
 _ZN6Okular11FilePrinter14printArgumentsER8QPrinterNS0_16FileDeletePolicyENS0_16PageSelectPolicyEbRK7QStringS7_NS1_11OrientationE@Base 4:4.8.4
 _ZN6Okular11FilePrinter15optionPageOrderER8QPrinter@Base 4:4.4.5
 _ZN6Okular11FilePrinter15pdf2psAvailableEv@Base 4:4.4.5
 _ZN6Okular11FilePrinter15ps2pdfAvailableEv@Base 4:4.4.5
 _ZN6Okular11FilePrinter16detectCupsConfigEv@Base 4:4.4.5
 _ZN6Okular11FilePrinter16mediaPaperSourceER8QPrinter@Base 4:4.4.5
 _ZN6Okular11FilePrinter17detectCupsServiceEv@Base 4:4.4.5
 _ZN6Okular11FilePrinter17optionOrientationER8QPrinter@Base 4:4.4.5
 _ZN6Okular11FilePrinter17optionOrientationER8QPrinterNS1_11OrientationE@Base 4:4.8.4
 _ZN6Okular11FilePrinter17optionPageMarginsER8QPrinter@Base 4:4.4.5
 _ZN6Okular11FilePrinter19optionCollateCopiesER8QPrinter@Base 4:4.4.5
 _ZN6Okular11FilePrinter19pageListToPageRangeERK5QListIiE@Base 4:4.4.5
 _ZN6Okular11FilePrinter20optionCupsPropertiesER8QPrinter@Base 4:4.4.5
 _ZN6Okular11FilePrinter25optionDoubleSidedPrintingER8QPrinter@Base 4:4.4.5
 _ZN6Okular11FilePrinter5pagesER8QPrinterNS0_16PageSelectPolicyERK7QStringbS6_@Base 4:4.4.5
 _ZN6Okular11FilePrinter6copiesER8QPrinterRK7QString@Base 4:4.4.5
 _ZN6Okular11FilePrinter7jobnameER8QPrinterRK7QString@Base 4:4.4.5
 _ZN6Okular11FilePrinter8pageListER8QPrinteriRK5QListIiE@Base 4:4.4.5
 _ZN6Okular11FilePrinter8pageListER8QPrinteriiRK5QListIiE@Base 4:4.6.1
 _ZN6Okular11FilePrinter9pageRangeER8QPrinteriRK5QListIiE@Base 4:4.4.5
 _ZN6Okular11FilePrinter9printFileER8QPrinter7QStringNS0_16FileDeletePolicyENS0_16PageSelectPolicyERKS3_@Base 4:4.4.5
 _ZN6Okular11FilePrinter9printFileER8QPrinter7QStringNS1_11OrientationENS0_16FileDeletePolicyENS0_16PageSelectPolicyERKS3_@Base 4:4.8.4
 _ZN6Okular11SoundActionC1EdbbbPNS_5SoundE@Base 4:4.4.5
 _ZN6Okular11SoundActionC2EdbbbPNS_5SoundE@Base 4:4.4.5
 _ZN6Okular11SoundActionD0Ev@Base 4:4.4.5
 _ZN6Okular11SoundActionD1Ev@Base 4:4.4.5
 _ZN6Okular11SoundActionD2Ev@Base 4:4.4.5
 _ZN6Okular12BrowseActionC1ERK7QString@Base 4:4.4.5
 _ZN6Okular12BrowseActionC2ERK7QString@Base 4:4.4.5
 _ZN6Okular12BrowseActionD0Ev@Base 4:4.4.5
 _ZN6Okular12BrowseActionD1Ev@Base 4:4.4.5
 _ZN6Okular12BrowseActionD2Ev@Base 4:4.4.5
 _ZN6Okular12DocumentInfo11getKeyTitleENS0_3KeyE@Base 4:4.4.5
 _ZN6Okular12DocumentInfo12getKeyStringENS0_3KeyE@Base 4:4.4.5
 _ZN6Okular12DocumentInfo3setENS0_3KeyERK7QString@Base 4:4.4.5
 _ZN6Okular12DocumentInfo3setERK7QStringS3_S3_@Base 4:4.4.5
 _ZN6Okular12DocumentInfoC1Ev@Base 4:4.4.5
 _ZN6Okular12DocumentInfoC2Ev@Base 4:4.4.5
 _ZN6Okular12EmbeddedFileC1Ev@Base 4:4.4.5
 _ZN6Okular12EmbeddedFileC2Ev@Base 4:4.4.5
 _ZN6Okular12EmbeddedFileD0Ev@Base 4:4.4.5
 _ZN6Okular12EmbeddedFileD1Ev@Base 4:4.4.5
 _ZN6Okular12EmbeddedFileD2Ev@Base 4:4.4.5
 _ZN6Okular12ExportFormat14standardFormatENS0_20StandardExportFormatE@Base 4:4.4.5
 _ZN6Okular12ExportFormatC1ERK5KIconRK7QStringRK10KSharedPtrI9KMimeTypeE@Base 4:4.4.5
 _ZN6Okular12ExportFormatC1ERK7QStringRK10KSharedPtrI9KMimeTypeE@Base 4:4.4.5
 _ZN6Okular12ExportFormatC1ERKS0_@Base 4:4.4.5
 _ZN6Okular12ExportFormatC1Ev@Base 4:4.4.5
 _ZN6Okular12ExportFormatC2ERK5KIconRK7QStringRK10KSharedPtrI9KMimeTypeE@Base 4:4.4.5
 _ZN6Okular12ExportFormatC2ERK7QStringRK10KSharedPtrI9KMimeTypeE@Base 4:4.4.5
 _ZN6Okular12ExportFormatC2ERKS0_@Base 4:4.4.5
 _ZN6Okular12ExportFormatC2Ev@Base 4:4.4.5
 _ZN6Okular12ExportFormatD1Ev@Base 4:4.4.5
 _ZN6Okular12ExportFormatD2Ev@Base 4:4.4.5
 _ZN6Okular12ExportFormataSERKS0_@Base 4:4.4.5
 _ZN6Okular12ScriptActionC1ENS_10ScriptTypeERK7QString@Base 4:4.4.5
 _ZN6Okular12ScriptActionC2ENS_10ScriptTypeERK7QString@Base 4:4.4.5
 _ZN6Okular12ScriptActionD0Ev@Base 4:4.4.5
 _ZN6Okular12ScriptActionD1Ev@Base 4:4.4.5
 _ZN6Okular12ScriptActionD2Ev@Base 4:4.4.5
 _ZN6Okular13ExecuteActionC1ERK7QStringS3_@Base 4:4.4.5
 _ZN6Okular13ExecuteActionC2ERK7QStringS3_@Base 4:4.4.5
 _ZN6Okular13ExecuteActionD0Ev@Base 4:4.4.5
 _ZN6Okular13ExecuteActionD1Ev@Base 4:4.4.5
 _ZN6Okular13ExecuteActionD2Ev@Base 4:4.4.5
 _ZN6Okular13FormFieldText7setTextERK7QString@Base 4:4.4.5
 _ZN6Okular13FormFieldTextC1Ev@Base 4:4.4.5
 _ZN6Okular13FormFieldTextC2Ev@Base 4:4.4.5
 _ZN6Okular13FormFieldTextD0Ev@Base 4:4.4.5
 _ZN6Okular13FormFieldTextD1Ev@Base 4:4.4.5
 _ZN6Okular13FormFieldTextD2Ev@Base 4:4.4.5
 _ZN6Okular13InkAnnotation11setInkPathsERK5QListI11QLinkedListINS_15NormalizedPointEEE@Base 4:4.4.5
 _ZN6Okular13InkAnnotationC1ERK8QDomNode@Base 4:4.4.5
 _ZN6Okular13InkAnnotationC1Ev@Base 4:4.4.5
 _ZN6Okular13InkAnnotationC2ERK8QDomNode@Base 4:4.4.5
 _ZN6Okular13InkAnnotationC2Ev@Base 4:4.4.5
 _ZN6Okular13InkAnnotationD0Ev@Base 4:4.4.5
 _ZN6Okular13InkAnnotationD1Ev@Base 4:4.4.5
 _ZN6Okular13InkAnnotationD2Ev@Base 4:4.4.5
 _ZN6Okular13PixmapRequestC1Eiiiiib@Base 4:4.4.5
 _ZN6Okular13PixmapRequestC2Eiiiiib@Base 4:4.4.5
 _ZN6Okular13PixmapRequestD1Ev@Base 4:4.4.5
 _ZN6Okular13PixmapRequestD2Ev@Base 4:4.4.5
 _ZN6Okular13TextSelection3endERKNS_15NormalizedPointE@Base 4:4.4.5
 _ZN6Okular13TextSelection3itBEi@Base 4:4.4.5
 _ZN6Okular13TextSelection3itEEi@Base 4:4.4.5
 _ZN6Okular13TextSelectionC1ERKNS_15NormalizedPointES3_@Base 4:4.4.5
 _ZN6Okular13TextSelectionC2ERKNS_15NormalizedPointES3_@Base 4:4.4.5
 _ZN6Okular13TextSelectionD1Ev@Base 4:4.4.5
 _ZN6Okular13TextSelectionD2Ev@Base 4:4.4.5
 _ZN6Okular14DocumentActionC1ENS0_18DocumentActionTypeE@Base 4:4.4.5
 _ZN6Okular14DocumentActionC2ENS0_18DocumentActionTypeE@Base 4:4.4.5
 _ZN6Okular14DocumentActionD0Ev@Base 4:4.4.5
 _ZN6Okular14DocumentActionD1Ev@Base 4:4.4.5
 _ZN6Okular14DocumentActionD2Ev@Base 4:4.4.5
 _ZN6Okular14GeomAnnotation18setGeometricalTypeENS0_8GeomTypeE@Base 4:4.4.5
 _ZN6Okular14GeomAnnotation24setGeometricalInnerColorERK6QColor@Base 4:4.4.5
 _ZN6Okular14GeomAnnotation24setGeometricalPointWidthEi@Base 4:4.4.5
 _ZN6Okular14GeomAnnotationC1ERK8QDomNode@Base 4:4.4.5
 _ZN6Okular14GeomAnnotationC1Ev@Base 4:4.4.5
 _ZN6Okular14GeomAnnotationC2ERK8QDomNode@Base 4:4.4.5
 _ZN6Okular14GeomAnnotationC2Ev@Base 4:4.4.5
 _ZN6Okular14GeomAnnotationD0Ev@Base 4:4.4.5
 _ZN6Okular14GeomAnnotationD1Ev@Base 4:4.4.5
 _ZN6Okular14GeomAnnotationD2Ev@Base 4:4.4.5
 _ZN6Okular14LineAnnotation13setLineClosedEb@Base 4:4.4.5
 _ZN6Okular14LineAnnotation13setLineIntentENS0_10LineIntentE@Base 4:4.4.5
 _ZN6Okular14LineAnnotation13setLinePointsERK11QLinkedListINS_15NormalizedPointEE@Base 4:4.4.5
 _ZN6Okular14LineAnnotation14setShowCaptionEb@Base 4:4.4.5
 _ZN6Okular14LineAnnotation15setLineEndStyleENS0_9TermStyleE@Base 4:4.4.5
 _ZN6Okular14LineAnnotation17setLineInnerColorERK6QColor@Base 4:4.4.5
 _ZN6Okular14LineAnnotation17setLineStartStyleENS0_9TermStyleE@Base 4:4.4.5
 _ZN6Okular14LineAnnotation26setLineLeadingForwardPointEd@Base 4:4.4.5
 _ZN6Okular14LineAnnotation27setLineLeadingBackwardPointEd@Base 4:4.4.5
 _ZN6Okular14LineAnnotationC1ERK8QDomNode@Base 4:4.4.5
 _ZN6Okular14LineAnnotationC1Ev@Base 4:4.4.5
 _ZN6Okular14LineAnnotationC2ERK8QDomNode@Base 4:4.4.5
 _ZN6Okular14LineAnnotationC2Ev@Base 4:4.4.5
 _ZN6Okular14LineAnnotationD0Ev@Base 4:4.4.5
 _ZN6Okular14LineAnnotationD1Ev@Base 4:4.4.5
 _ZN6Okular14LineAnnotationD2Ev@Base 4:4.4.5
 _ZN6Okular14NormalizedRect10fromQRectFERK6QRectF@Base 4:4.4.5
 _ZN6Okular14NormalizedRect9transformERK7QMatrix@Base 4:4.4.5
 _ZN6Okular14NormalizedRectC1ERK5QRectdd@Base 4:4.4.5
 _ZN6Okular14NormalizedRectC1ERKS0_@Base 4:4.4.5
 _ZN6Okular14NormalizedRectC1Edddd@Base 4:4.4.5
 _ZN6Okular14NormalizedRectC1Ev@Base 4:4.4.5
 _ZN6Okular14NormalizedRectC2ERK5QRectdd@Base 4:4.4.5
 _ZN6Okular14NormalizedRectC2ERKS0_@Base 4:4.4.5
 _ZN6Okular14NormalizedRectC2Edddd@Base 4:4.4.5
 _ZN6Okular14NormalizedRectC2Ev@Base 4:4.4.5
 _ZN6Okular14NormalizedRectaSERKS0_@Base 4:4.4.5
 _ZN6Okular14NormalizedRectoRERKS0_@Base 4:4.4.5
 _ZN6Okular14PageTransition11setDurationEi@Base 4:4.4.5
 _ZN6Okular14PageTransition12setAlignmentENS0_9AlignmentE@Base 4:4.4.5
 _ZN6Okular14PageTransition12setDirectionENS0_9DirectionE@Base 4:4.4.5
 _ZN6Okular14PageTransition16setIsRectangularEb@Base 4:4.4.5
 _ZN6Okular14PageTransition7setTypeENS0_4TypeE@Base 4:4.4.5
 _ZN6Okular14PageTransition8setAngleEi@Base 4:4.4.5
 _ZN6Okular14PageTransition8setScaleEd@Base 4:4.4.5
 _ZN6Okular14PageTransitionC1ENS0_4TypeE@Base 4:4.4.5
 _ZN6Okular14PageTransitionC1ERKS0_@Base 4:4.4.5
 _ZN6Okular14PageTransitionC2ENS0_4TypeE@Base 4:4.4.5
 _ZN6Okular14PageTransitionC2ERKS0_@Base 4:4.4.5
 _ZN6Okular14PageTransitionD1Ev@Base 4:4.4.5
 _ZN6Okular14PageTransitionD2Ev@Base 4:4.4.5
 _ZN6Okular14PageTransitionaSERKS0_@Base 4:4.4.5
 _ZN6Okular14TextAnnotation11setTextFontERK5QFont@Base 4:4.4.5
 _ZN6Okular14TextAnnotation11setTextIconERK7QString@Base 4:4.4.5
 _ZN6Okular14TextAnnotation11setTextTypeENS0_8TextTypeE@Base 4:4.4.5
 _ZN6Okular14TextAnnotation14setInplaceTextERK7QString@Base 4:4.4.5
 _ZN6Okular14TextAnnotation16setInplaceIntentENS0_13InplaceIntentE@Base 4:4.4.5
 _ZN6Okular14TextAnnotation17setInplaceCalloutERKNS_15NormalizedPointEi@Base 4:4.4.5
 _ZN6Okular14TextAnnotation19setInplaceAlignmentEi@Base 4:4.4.5
 _ZN6Okular14TextAnnotationC1ERK8QDomNode@Base 4:4.4.5
 _ZN6Okular14TextAnnotationC1Ev@Base 4:4.4.5
 _ZN6Okular14TextAnnotationC2ERK8QDomNode@Base 4:4.4.5
 _ZN6Okular14TextAnnotationC2Ev@Base 4:4.4.5
 _ZN6Okular14TextAnnotationD0Ev@Base 4:4.4.5
 _ZN6Okular14TextAnnotationD1Ev@Base 4:4.4.5
 _ZN6Okular14TextAnnotationD2Ev@Base 4:4.4.5
 _ZN6Okular15AnnotationUtils15storeAnnotationEPKNS_10AnnotationER11QDomElementR12QDomDocument@Base 4:4.4.5
 _ZN6Okular15AnnotationUtils16createAnnotationERK11QDomElement@Base 4:4.4.5
 _ZN6Okular15AnnotationUtils16findChildElementERK8QDomNodeRK7QString@Base 4:4.4.5
 _ZN6Okular15AnnotationUtils18annotationGeometryEPKNS_10AnnotationEdd@Base 4:4.4.5
 _ZN6Okular15BookmarkManager11addBookmarkERK4KUrlRKNS_16DocumentViewportERK7QString@Base 4:4.4.5
 _ZN6Okular15BookmarkManager11addBookmarkEi@Base 4:4.4.5
 _ZN6Okular15BookmarkManager11qt_metacallEN11QMetaObject4CallEiPPv@Base 4:4.4.5
 _ZN6Okular15BookmarkManager11qt_metacastEPKc@Base 4:4.4.5
 _ZN6Okular15BookmarkManager14removeBookmarkERK4KUrlRK9KBookmark@Base 4:4.4.5
 _ZN6Okular15BookmarkManager14removeBookmarkEi@Base 4:4.4.5
 _ZN6Okular15BookmarkManager14renameBookmarkEP9KBookmarkRK7QString@Base 4:4.8.4
 _ZN6Okular15BookmarkManager15removeBookmarksERK4KUrlRKN9KBookmark4ListE@Base 4:4.6.1
 _ZN6Okular15BookmarkManager15setPageBookmarkEi@Base 4:4.4.5
 _ZN6Okular15BookmarkManager16bookmarksChangedERK4KUrl@Base 4:4.4.5
 _ZN6Okular15BookmarkManager16staticMetaObjectE@Base 4:4.4.5
 _ZN6Okular15BookmarkManager18removePageBookmarkEi@Base 4:4.4.5
 _ZN6Okular15BookmarkManager5savedEv@Base 4:4.4.5
 _ZN6Okular15BookmarkManager6setUrlERK4KUrl@Base 4:4.4.5
 _ZN6Okular15BookmarkManager7Private10_o_changedERK7QStringS4_@Base 4:4.4.5
 _ZN6Okular15BookmarkManager7Private12bookmarkFindERK4KUrlbP14KBookmarkGroup@Base 4:4.4.5
 _ZN6Okular15BookmarkManager7Private12openBookmarkERK9KBookmark6QFlagsIN2Qt11MouseButtonEES5_INS6_16KeyboardModifierEE@Base 4:4.4.5
 _ZN6Okular15BookmarkManager7openUrlERK4KUrl@Base 4:4.4.5
 _ZN6Okular15BookmarkManagerC1EPNS_15DocumentPrivateE@Base 4:4.4.5
 _ZN6Okular15BookmarkManagerC2EPNS_15DocumentPrivateE@Base 4:4.4.5
 _ZN6Okular15BookmarkManagerD0Ev@Base 4:4.4.5
 _ZN6Okular15BookmarkManagerD1Ev@Base 4:4.4.5
 _ZN6Okular15BookmarkManagerD2Ev@Base 4:4.4.5
 _ZN6Okular15CaretAnnotation14setCaretSymbolENS0_11CaretSymbolE@Base 4:4.4.5
 _ZN6Okular15CaretAnnotationC1ERK8QDomNode@Base 4:4.4.5
 _ZN6Okular15CaretAnnotationC1Ev@Base 4:4.4.5
 _ZN6Okular15CaretAnnotationC2ERK8QDomNode@Base 4:4.4.5
 _ZN6Okular15CaretAnnotationC2Ev@Base 4:4.4.5
 _ZN6Okular15CaretAnnotationD0Ev@Base 4:4.4.5
 _ZN6Okular15CaretAnnotationD1Ev@Base 4:4.4.5
 _ZN6Okular15CaretAnnotationD2Ev@Base 4:4.4.5
 _ZN6Okular15FormFieldButton8setStateEb@Base 4:4.4.5
 _ZN6Okular15FormFieldButtonC1Ev@Base 4:4.4.5
 _ZN6Okular15FormFieldButtonC2Ev@Base 4:4.4.5
 _ZN6Okular15FormFieldButtonD0Ev@Base 4:4.4.5
 _ZN6Okular15FormFieldButtonD1Ev@Base 4:4.4.5
 _ZN6Okular15FormFieldButtonD2Ev@Base 4:4.4.5
 _ZN6Okular15FormFieldChoice17setCurrentChoicesERK5QListIiE@Base 4:4.4.5
 _ZN6Okular15FormFieldChoiceC1Ev@Base 4:4.4.5
 _ZN6Okular15FormFieldChoiceC2Ev@Base 4:4.4.5
 _ZN6Okular15FormFieldChoiceD0Ev@Base 4:4.4.5
 _ZN6Okular15FormFieldChoiceD1Ev@Base 4:4.4.5
 _ZN6Okular15FormFieldChoiceD2Ev@Base 4:4.4.5
 _ZN6Okular15MovieAnnotation8setMovieEPNS_5MovieE@Base 4:4.4.5
 _ZN6Okular15MovieAnnotationC1ERK8QDomNode@Base 4:4.4.5
 _ZN6Okular15MovieAnnotationC1Ev@Base 4:4.4.5
 _ZN6Okular15MovieAnnotationC2ERK8QDomNode@Base 4:4.4.5
 _ZN6Okular15MovieAnnotationC2Ev@Base 4:4.4.5
 _ZN6Okular15MovieAnnotationD0Ev@Base 4:4.4.5
 _ZN6Okular15MovieAnnotationD1Ev@Base 4:4.4.5
 _ZN6Okular15MovieAnnotationD2Ev@Base 4:4.4.5
 _ZN6Okular15NormalizedPoint9transformERK7QMatrix@Base 4:4.4.5
 _ZN6Okular15NormalizedPointC1Edd@Base 4:4.4.5
 _ZN6Okular15NormalizedPointC1Eiiii@Base 4:4.4.5
 _ZN6Okular15NormalizedPointC1Ev@Base 4:4.4.5
 _ZN6Okular15NormalizedPointC2Edd@Base 4:4.4.5
 _ZN6Okular15NormalizedPointC2Eiiii@Base 4:4.4.5
 _ZN6Okular15NormalizedPointC2Ev@Base 4:4.4.5
 _ZN6Okular15NormalizedPointaSERKS0_@Base 4:4.4.5
 _ZN6Okular15RegularAreaRectC1ERKS0_@Base 4:4.4.5
 _ZN6Okular15RegularAreaRectC1Ev@Base 4:4.4.5
 _ZN6Okular15RegularAreaRectC2ERKS0_@Base 4:4.4.5
 _ZN6Okular15RegularAreaRectC2Ev@Base 4:4.4.5
 _ZN6Okular15RegularAreaRectD1Ev@Base 4:4.4.5
 _ZN6Okular15RegularAreaRectD2Ev@Base 4:4.4.5
 _ZN6Okular15RegularAreaRectaSERKS0_@Base 4:4.4.5
 _ZN6Okular15SoundAnnotation16setSoundIconNameERK7QString@Base 4:4.4.5
 _ZN6Okular15SoundAnnotation8setSoundEPNS_5SoundE@Base 4:4.4.5
 _ZN6Okular15SoundAnnotationC1ERK8QDomNode@Base 4:4.4.5
 _ZN6Okular15SoundAnnotationC1Ev@Base 4:4.4.5
 _ZN6Okular15SoundAnnotationC2ERK8QDomNode@Base 4:4.4.5
 _ZN6Okular15SoundAnnotationC2Ev@Base 4:4.4.5
 _ZN6Okular15SoundAnnotationD0Ev@Base 4:4.4.5
 _ZN6Okular15SoundAnnotationD1Ev@Base 4:4.4.5
 _ZN6Okular15SoundAnnotationD2Ev@Base 4:4.4.5
 _ZN6Okular15SourceReferenceC1ERK7QStringii@Base 4:4.4.5
 _ZN6Okular15SourceReferenceC2ERK7QStringii@Base 4:4.4.5
 _ZN6Okular15SourceReferenceD1Ev@Base 4:4.4.5
 _ZN6Okular15SourceReferenceD2Ev@Base 4:4.4.5
 _ZN6Okular15StampAnnotation16setStampIconNameERK7QString@Base 4:4.4.5
 _ZN6Okular15StampAnnotationC1ERK8QDomNode@Base 4:4.4.5
 _ZN6Okular15StampAnnotationC1Ev@Base 4:4.4.5
 _ZN6Okular15StampAnnotationC2ERK8QDomNode@Base 4:4.4.5
 _ZN6Okular15StampAnnotationC2Ev@Base 4:4.4.5
 _ZN6Okular15StampAnnotationD0Ev@Base 4:4.4.5
 _ZN6Okular15StampAnnotationD1Ev@Base 4:4.4.5
 _ZN6Okular15StampAnnotationD2Ev@Base 4:4.4.5
 _ZN6Okular15VisiblePageRectC1EiRKNS_14NormalizedRectE@Base 4:4.4.5
 _ZN6Okular15VisiblePageRectC2EiRKNS_14NormalizedRectE@Base 4:4.4.5
 _ZN6Okular16DocumentObserver10notifyZoomEi@Base 4:4.4.5
 _ZN6Okular16DocumentObserver11notifySetupERK7QVectorIPNS_4PageEEi@Base 4:4.4.5
 _ZN6Okular16DocumentObserver17notifyPageChangedEii@Base 4:4.4.5
 _ZN6Okular16DocumentObserver21notifyContentsClearedEi@Base 4:4.4.5
 _ZN6Okular16DocumentObserver21notifyViewportChangedEb@Base 4:4.4.5
 _ZN6Okular16DocumentObserver25notifyVisibleRectsChangedEv@Base 4:4.4.5
 _ZN6Okular16DocumentObserverC1Ev@Base 4:4.4.5
 _ZN6Okular16DocumentObserverC2Ev@Base 4:4.4.5
 _ZN6Okular16DocumentObserverD0Ev@Base 4:4.4.5
 _ZN6Okular16DocumentObserverD1Ev@Base 4:4.4.5
 _ZN6Okular16DocumentObserverD2Ev@Base 4:4.4.5
 _ZN6Okular16DocumentSynopsisC1ERK12QDomDocument@Base 4:4.4.5
 _ZN6Okular16DocumentSynopsisC1Ev@Base 4:4.4.5
 _ZN6Okular16DocumentSynopsisC2ERK12QDomDocument@Base 4:4.4.5
 _ZN6Okular16DocumentSynopsisC2Ev@Base 4:4.4.5
 _ZN6Okular16DocumentViewportC1ERK7QString@Base 4:4.4.5
 _ZN6Okular16DocumentViewportC1Ei@Base 4:4.4.5
 _ZN6Okular16DocumentViewportC2ERK7QString@Base 4:4.4.5
 _ZN6Okular16DocumentViewportC2Ei@Base 4:4.4.5
 _ZN6Okular19HighlightAnnotation14highlightQuadsEv@Base 4:4.4.5
 _ZN6Okular19HighlightAnnotation16setHighlightTypeENS0_13HighlightTypeE@Base 4:4.4.5
 _ZN6Okular19HighlightAnnotation4Quad10setFeatherEd@Base 4:4.4.5
 _ZN6Okular19HighlightAnnotation4Quad11setCapStartEb@Base 4:4.4.5
 (arch=hurd-i386 i386 kfreebsd-amd64 kfreebsd-i386)_ZN6Okular19HighlightAnnotation4Quad7PrivateaSERKS2_@Base 4:4.8.4
 _ZN6Okular19HighlightAnnotation4Quad8setPointERKNS_15NormalizedPointEi@Base 4:4.4.5
 _ZN6Okular19HighlightAnnotation4Quad9setCapEndEb@Base 4:4.4.5
 _ZN6Okular19HighlightAnnotation4Quad9transformERK7QMatrix@Base 4:4.4.5
 _ZN6Okular19HighlightAnnotation4QuadC1ERKS1_@Base 4:4.4.5
 _ZN6Okular19HighlightAnnotation4QuadC1Ev@Base 4:4.4.5
 _ZN6Okular19HighlightAnnotation4QuadC2ERKS1_@Base 4:4.4.5
 _ZN6Okular19HighlightAnnotation4QuadC2Ev@Base 4:4.4.5
 _ZN6Okular19HighlightAnnotation4QuadD1Ev@Base 4:4.4.5
 _ZN6Okular19HighlightAnnotation4QuadD2Ev@Base 4:4.4.5
 _ZN6Okular19HighlightAnnotation4QuadaSERKS1_@Base 4:4.4.5
 _ZN6Okular19HighlightAnnotationC1ERK8QDomNode@Base 4:4.4.5
 _ZN6Okular19HighlightAnnotationC1Ev@Base 4:4.4.5
 _ZN6Okular19HighlightAnnotationC2ERK8QDomNode@Base 4:4.4.5
 _ZN6Okular19HighlightAnnotationC2Ev@Base 4:4.4.5
 _ZN6Okular19HighlightAnnotationD0Ev@Base 4:4.4.5
 _ZN6Okular19HighlightAnnotationD1Ev@Base 4:4.4.5
 _ZN6Okular19HighlightAnnotationD2Ev@Base 4:4.4.5
 _ZN6Okular19SourceRefObjectRectC1ERKNS_15NormalizedPointEPv@Base 4:4.4.5
 _ZN6Okular19SourceRefObjectRectC2ERKNS_15NormalizedPointEPv@Base 4:4.4.5
 (optional=gccinternal)_ZN6Okular19SourceRefObjectRectD0Ev@Base 4:4.6.5
 (optional=gccinternal)_ZN6Okular19SourceRefObjectRectD1Ev@Base 4:4.6.5
 (optional=gccinternal)_ZN6Okular19SourceRefObjectRectD2Ev@Base 4:4.6.5
 _ZN6Okular20AnnotationObjectRect9transformERK7QMatrix@Base 4:4.4.5
 _ZN6Okular20AnnotationObjectRectC1EPNS_10AnnotationE@Base 4:4.4.5
 _ZN6Okular20AnnotationObjectRectC2EPNS_10AnnotationE@Base 4:4.4.5
 _ZN6Okular20AnnotationObjectRectD0Ev@Base 4:4.4.5
 _ZN6Okular20AnnotationObjectRectD1Ev@Base 4:4.4.5
 _ZN6Okular20AnnotationObjectRectD2Ev@Base 4:4.4.5
 _ZN6Okular21TextDocumentConverter11addMetaDataENS_12DocumentInfo3KeyERK7QString@Base 4:4.4.5
 _ZN6Okular21TextDocumentConverter11addMetaDataERK7QStringS3_S3_@Base 4:4.4.5
 _ZN6Okular21TextDocumentConverter11qt_metacallEN11QMetaObject4CallEiPPv@Base 4:4.4.5
 _ZN6Okular21TextDocumentConverter11qt_metacastEPKc@Base 4:4.4.5
 _ZN6Okular21TextDocumentConverter13addAnnotationEPNS_10AnnotationEii@Base 4:4.4.5
 _ZN6Okular21TextDocumentConverter16staticMetaObjectE@Base 4:4.4.5
 _ZN6Okular21TextDocumentConverter17calculateViewportEP13QTextDocumentRK10QTextBlock@Base 4:4.4.5
 _ZN6Okular21TextDocumentConverter5errorERK7QStringi@Base 4:4.4.5
 _ZN6Okular21TextDocumentConverter6noticeERK7QStringi@Base 4:4.4.5
 _ZN6Okular21TextDocumentConverter7warningERK7QStringi@Base 4:4.4.5
 _ZN6Okular21TextDocumentConverter8addTitleEiRK7QStringRK10QTextBlock@Base 4:4.4.5
 _ZN6Okular21TextDocumentConverter9addActionEPNS_6ActionEii@Base 4:4.4.5
 _ZN6Okular21TextDocumentConverterC1Ev@Base 4:4.4.5
 _ZN6Okular21TextDocumentConverterC2Ev@Base 4:4.4.5
 _ZN6Okular21TextDocumentConverterD0Ev@Base 4:4.4.5
 _ZN6Okular21TextDocumentConverterD1Ev@Base 4:4.4.5
 _ZN6Okular21TextDocumentConverterD2Ev@Base 4:4.4.5
 _ZN6Okular21TextDocumentGenerator11qt_metacallEN11QMetaObject4CallEiPPv@Base 4:4.4.5
 _ZN6Okular21TextDocumentGenerator11qt_metacastEPKc@Base 4:4.4.5
 _ZN6Okular21TextDocumentGenerator12loadDocumentERK7QStringR7QVectorIPNS_4PageEE@Base 4:4.4.5
 _ZN6Okular21TextDocumentGenerator14generatePixmapEPNS_13PixmapRequestE@Base 4:4.4.5
 _ZN6Okular21TextDocumentGenerator15doCloseDocumentEv@Base 4:4.4.5
 _ZN6Okular21TextDocumentGenerator16staticMetaObjectE@Base 4:4.4.5
 _ZN6Okular21TextDocumentGenerator20generateDocumentInfoEv@Base 4:4.4.5
 _ZN6Okular21TextDocumentGenerator24generateDocumentSynopsisEv@Base 4:4.4.5
 _ZN6Okular21TextDocumentGenerator5printER8QPrinter@Base 4:4.4.5
 _ZN6Okular21TextDocumentGenerator8exportToERK7QStringRKNS_12ExportFormatE@Base 4:4.4.5
 _ZN6Okular21TextDocumentGenerator8textPageEPNS_4PageE@Base 4:4.4.5
 _ZN6Okular21TextDocumentGeneratorC1EPNS_21TextDocumentConverterEP7QObjectRK5QListI8QVariantE@Base 4:4.4.5
 _ZN6Okular21TextDocumentGeneratorC2EPNS_21TextDocumentConverterEP7QObjectRK5QListI8QVariantE@Base 4:4.4.5
 _ZN6Okular21TextDocumentGeneratorD0Ev@Base 4:4.4.5
 _ZN6Okular21TextDocumentGeneratorD1Ev@Base 4:4.4.5
 _ZN6Okular21TextDocumentGeneratorD2Ev@Base 4:4.4.5
 _ZN6Okular24FileAttachmentAnnotation15setEmbeddedFileEPNS_12EmbeddedFileE@Base 4:4.4.5
 _ZN6Okular24FileAttachmentAnnotation15setFileIconNameERK7QString@Base 4:4.4.5
 _ZN6Okular24FileAttachmentAnnotationC1ERK8QDomNode@Base 4:4.4.5
 _ZN6Okular24FileAttachmentAnnotationC1Ev@Base 4:4.4.5
 _ZN6Okular24FileAttachmentAnnotationC2ERK8QDomNode@Base 4:4.4.5
 _ZN6Okular24FileAttachmentAnnotationC2Ev@Base 4:4.4.5
 _ZN6Okular24FileAttachmentAnnotationD0Ev@Base 4:4.4.5
 _ZN6Okular24FileAttachmentAnnotationD1Ev@Base 4:4.4.5
 _ZN6Okular24FileAttachmentAnnotationD2Ev@Base 4:4.4.5
 _ZN6Okular4Page11deleteRectsEv@Base 4:4.4.5
 _ZN6Okular4Page11setDurationEd@Base 4:4.4.5
 _ZN6Okular4Page11setTextPageEPNS_8TextPageE@Base 4:4.4.5
 _ZN6Okular4Page12deletePixmapEi@Base 4:4.4.5
 _ZN6Okular4Page13addAnnotationEPNS_10AnnotationE@Base 4:4.4.5
 _ZN6Okular4Page13deletePixmapsEv@Base 4:4.4.5
 _ZN6Okular4Page13setFormFieldsERK11QLinkedListIPNS_9FormFieldEE@Base 4:4.4.5
 _ZN6Okular4Page13setPageActionENS0_10PageActionEPNS_6ActionE@Base 4:4.4.5
 _ZN6Okular4Page13setTransitionEPNS_14PageTransitionE@Base 4:4.4.5
 _ZN6Okular4Page14setBoundingBoxERKNS_14NormalizedRectE@Base 4:4.4.5
 _ZN6Okular4Page14setObjectRectsERK11QLinkedListIPNS_10ObjectRectEE@Base 4:4.4.5
 _ZN6Okular4Page16removeAnnotationEPNS_10AnnotationE@Base 4:4.4.5
 _ZN6Okular4Page17deleteAnnotationsEv@Base 4:4.4.5
 _ZN6Okular4Page19setSourceReferencesERK11QLinkedListIPNS_19SourceRefObjectRectEE@Base 4:4.4.5
 _ZN6Okular4Page22deleteSourceReferencesEv@Base 4:4.4.5
 _ZN6Okular4Page8setLabelERK7QString@Base 4:4.4.5
 _ZN6Okular4Page9setPixmapEiP7QPixmap@Base 4:4.4.5
 _ZN6Okular4PageC1EjddNS_8RotationE@Base 4:4.4.5
 _ZN6Okular4PageC2EjddNS_8RotationE@Base 4:4.4.5
 _ZN6Okular4PageD1Ev@Base 4:4.4.5
 _ZN6Okular4PageD2Ev@Base 4:4.4.5
 _ZN6Okular4View13setCapabilityENS0_14ViewCapabilityERK8QVariant@Base 4:4.4.5
 _ZN6Okular4ViewC1ERK7QString@Base 4:4.4.5
 _ZN6Okular4ViewC2ERK7QString@Base 4:4.4.5
 _ZN6Okular4ViewD0Ev@Base 4:4.4.5
 _ZN6Okular4ViewD1Ev@Base 4:4.4.5
 _ZN6Okular4ViewD2Ev@Base 4:4.4.5
 _ZN6Okular5Movie11setPlayModeENS0_8PlayModeE@Base 4:4.4.5
 _ZN6Okular5Movie11setRotationENS_8RotationE@Base 4:4.4.5
 _ZN6Okular5Movie15setShowControlsEb@Base 4:4.4.5
 _ZN6Okular5Movie7setSizeERK5QSize@Base 4:4.4.5
 _ZN6Okular5MovieC1ERK7QString@Base 4:4.4.5
 _ZN6Okular5MovieC2ERK7QString@Base 4:4.4.5
 _ZN6Okular5MovieD1Ev@Base 4:4.4.5
 _ZN6Okular5MovieD2Ev@Base 4:4.4.5
 _ZN6Okular5Sound11setChannelsEi@Base 4:4.4.5
 _ZN6Okular5Sound15setSamplingRateEd@Base 4:4.4.5
 _ZN6Okular5Sound16setBitsPerSampleEi@Base 4:4.4.5
 _ZN6Okular5Sound16setSoundEncodingENS0_13SoundEncodingE@Base 4:4.4.5
 _ZN6Okular5SoundC1ERK10QByteArray@Base 4:4.4.5
 _ZN6Okular5SoundC1ERK7QString@Base 4:4.4.5
 _ZN6Okular5SoundC2ERK10QByteArray@Base 4:4.4.5
 _ZN6Okular5SoundC2ERK7QString@Base 4:4.4.5
 _ZN6Okular5SoundD1Ev@Base 4:4.4.5
 _ZN6Okular5SoundD2Ev@Base 4:4.4.5
 _ZN6Okular5Utils10rotateRectERK5QRectiii@Base 4:4.4.5
 _ZN6Okular5Utils16imageBoundingBoxEPK6QImage@Base 4:4.4.5
 _ZN6Okular5Utils4dpiXEv@Base 4:4.4.5
 _ZN6Okular5Utils4dpiYEv@Base 4:4.4.5
 _ZN6Okular5Utils8realDpiXEv@Base 4:4.4.5
 _ZN6Okular5Utils8realDpiYEv@Base 4:4.4.5
 _ZN6Okular6ActionC1ERNS_13ActionPrivateE@Base 4:4.4.5
 _ZN6Okular6ActionC2ERNS_13ActionPrivateE@Base 4:4.4.5
 _ZN6Okular6ActionD0Ev@Base 4:4.4.5
 _ZN6Okular6ActionD1Ev@Base 4:4.4.5
 _ZN6Okular6ActionD2Ev@Base 4:4.4.5
 _ZN6Okular8Document10searchTextEiRK7QStringbN2Qt15CaseSensitivityENS0_10SearchTypeEbRK6QColorb@Base 4:4.4.5
 _ZN6Okular8Document11addObserverEPNS_16DocumentObserverE@Base 4:4.4.5
 _ZN6Okular8Document11qt_metacallEN11QMetaObject4CallEiPPv@Base 4:4.4.5
 _ZN6Okular8Document11qt_metacastEPKc@Base 4:4.4.5
 _ZN6Okular8Document11resetSearchEi@Base 4:4.4.5
 _ZN6Okular8Document11saveChangesERK7QString@Base 4:4.4.5
 _ZN6Okular8Document11saveChangesERK7QStringPS1_@Base 4:4.4.5
 _ZN6Okular8Document11setPageSizeERKNS_8PageSizeE@Base 4:4.4.5
 _ZN6Okular8Document11setRotationEi@Base 4:4.4.5
 _ZN6Okular8Document11setViewportERKNS_16DocumentViewportEib@Base 4:4.4.5
 _ZN6Okular8Document12cancelSearchEv@Base 4:4.4.5
 _ZN6Okular8Document12linkGoToPageEv@Base 4:4.4.5
 _ZN6Okular8Document12openDocumentERK7QStringRK4KUrlRK10KSharedPtrI9KMimeTypeE@Base 4:4.4.5
 _ZN6Okular8Document12registerViewEPNS_4ViewE@Base 4:4.4.5
 _ZN6Okular8Document13closeDocumentEv@Base 4:4.4.5
 _ZN6Okular8Document13processActionEPKNS_6ActionE@Base 4:4.4.5
 _ZN6Okular8Document13reparseConfigEv@Base 4:4.4.5
 _ZN6Okular8Document14continueSearchEi@Base 4:4.4.5
 _ZN6Okular8Document14continueSearchEiNS0_10SearchTypeE@Base 4:4.4.5
 _ZN6Okular8Document14removeObserverEPNS_16DocumentObserverE@Base 4:4.4.5
 _ZN6Okular8Document14requestPixmapsERK11QLinkedListIPNS_13PixmapRequestEE6QFlagsINS0_17PixmapRequestFlagEE@Base 4:4.4.5
 _ZN6Okular8Document14requestPixmapsERK11QLinkedListIPNS_13PixmapRequestEE@Base 4:4.4.5
 _ZN6Okular8Document14searchFinishedEiNS0_12SearchStatusE@Base 4:4.4.5
 _ZN6Okular8Document14unregisterViewEPNS_4ViewE@Base 4:4.4.5
 _ZN6Okular8Document15requestTextPageEj@Base 4:4.4.5
 _ZN6Okular8Document15setNextViewportEv@Base 4:4.4.5
 _ZN6Okular8Document15setPrevViewportEv@Base 4:4.4.5
 _ZN6Okular8Document15setViewportPageEiib@Base 4:4.4.5
 _ZN6Okular8Document15stopFontReadingEv@Base 4:4.4.5
 _ZN6Okular8Document16fillConfigDialogEP13KConfigDialog@Base 4:4.4.5
 _ZN6Okular8Document16fontReadingEndedEv@Base 4:4.4.5
 _ZN6Okular8Document16linkPresentationEv@Base 4:4.4.5
 _ZN6Okular8Document16startFontReadingEv@Base 4:4.4.5
 _ZN6Okular8Document16staticMetaObjectE@Base 4:4.4.5
 _ZN6Okular8Document17addPageAnnotationEiPNS_10AnnotationE@Base 4:4.4.5
 _ZN6Okular8Document19fontReadingProgressEi@Base 4:4.4.5
 _ZN6Okular8Document19linkEndPresentationEv@Base 4:4.4.5
 _ZN6Okular8Document19openDocumentArchiveERK7QStringRK4KUrl@Base 4:4.4.5
 _ZN6Okular8Document19saveDocumentArchiveERK7QString@Base 4:4.4.5
 _ZN6Okular8Document19setVisiblePageRectsERK7QVectorIPNS_15VisiblePageRectEEi@Base 4:4.4.5
 _ZN6Okular8Document20modifyPageAnnotationEiPNS_10AnnotationE@Base 4:4.4.5
 _ZN6Okular8Document20removePageAnnotationEiPNS_10AnnotationE@Base 4:4.4.5
 _ZN6Okular8Document20setPageTextSelectionEiPNS_15RegularAreaRectERK6QColor@Base 4:4.4.5
 _ZN6Okular8Document21removePageAnnotationsEiRK5QListIPNS_10AnnotationEE@Base 4:4.4.5
 _ZN6Okular8Document22dynamicSourceReferenceEidd@Base 4:4.4.5
 _ZN6Okular8Document22processSourceReferenceEPKNS_15SourceReferenceE@Base 4:4.4.5
 _ZN6Okular8Document23setNextDocumentViewportERKNS_16DocumentViewportE@Base 4:4.4.5
 _ZN6Okular8Document24sourceReferenceActivatedERK7QStringiiPb@Base 4:4.8.4
 _ZN6Okular8Document26setNextDocumentDestinationERK7QString@Base 4:4.4.5
 _ZN6Okular8Document4quitEv@Base 4:4.4.5
 _ZN6Okular8Document5closeEv@Base 4:4.4.5
 _ZN6Okular8Document5errorERK7QStringi@Base 4:4.4.5
 _ZN6Okular8Document5printER8QPrinter@Base 4:4.4.5
 _ZN6Okular8Document6noticeERK7QStringi@Base 4:4.4.5
 _ZN6Okular8Document7gotFontERKNS_8FontInfoE@Base 4:4.4.5
 _ZN6Okular8Document7openUrlERK4KUrl@Base 4:4.4.5
 _ZN6Okular8Document7setZoomEii@Base 4:4.4.5
 _ZN6Okular8Document7warningERK7QStringi@Base 4:4.4.5
 _ZN6Okular8Document8linkFindEv@Base 4:4.4.5
 _ZN6Okular8Document9guiClientEv@Base 4:4.4.5
 _ZN6Okular8DocumentC1EP7QWidget@Base 4:4.4.5
 _ZN6Okular8DocumentC2EP7QWidget@Base 4:4.4.5
 _ZN6Okular8DocumentD0Ev@Base 4:4.4.5
 _ZN6Okular8DocumentD1Ev@Base 4:4.4.5
 _ZN6Okular8DocumentD2Ev@Base 4:4.4.5
 _ZN6Okular8FontInfo11setNativeIdERK8QVariant@Base 4:4.4.5
 _ZN6Okular8FontInfo12setEmbedTypeENS0_9EmbedTypeE@Base 4:4.4.5
 _ZN6Okular8FontInfo17setCanBeExtractedEb@Base 4:4.4.5
 _ZN6Okular8FontInfo7setFileERK7QString@Base 4:4.4.5
 _ZN6Okular8FontInfo7setNameERK7QString@Base 4:4.4.5
 _ZN6Okular8FontInfo7setTypeENS0_8FontTypeE@Base 4:4.4.5
 _ZN6Okular8FontInfoC1ERKS0_@Base 4:4.4.5
 _ZN6Okular8FontInfoC1Ev@Base 4:4.4.5
 _ZN6Okular8FontInfoC2ERKS0_@Base 4:4.4.5
 _ZN6Okular8FontInfoC2Ev@Base 4:4.4.5
 _ZN6Okular8FontInfoD1Ev@Base 4:4.4.5
 _ZN6Okular8FontInfoD2Ev@Base 4:4.4.5
 _ZN6Okular8FontInfoaSERKS0_@Base 4:4.4.5
 _ZN6Okular8PageSizeC1ERKS0_@Base 4:4.4.5
 _ZN6Okular8PageSizeC1EddRK7QString@Base 4:4.4.5
 _ZN6Okular8PageSizeC1Ev@Base 4:4.4.5
 _ZN6Okular8PageSizeC2ERKS0_@Base 4:4.4.5
 _ZN6Okular8PageSizeC2EddRK7QString@Base 4:4.4.5
 _ZN6Okular8PageSizeC2Ev@Base 4:4.4.5
 _ZN6Okular8PageSizeD1Ev@Base 4:4.4.5
 _ZN6Okular8PageSizeD2Ev@Base 4:4.4.5
 _ZN6Okular8PageSizeaSERKS0_@Base 4:4.4.5
 _ZN6Okular8Settings10bWContrastEv@Base 4:4.4.5
 _ZN6Okular8Settings10paperColorEv@Base 4:4.4.5
 _ZN6Okular8Settings10renderModeEv@Base 4:4.4.5
 _ZN6Okular8Settings10setObeyDRMEb@Base 4:4.4.5
 _ZN6Okular8Settings10setShowOSDEb@Base 4:4.4.5
 _ZN6Okular8Settings10slidesLoopEv@Base 4:4.4.5
 _ZN6Okular8Settings10zoomFactorEv@Base 4:4.4.5
 _ZN6Okular8Settings11bWThresholdEv@Base 4:4.4.5
 _ZN6Okular8Settings11groupByPageEv@Base 4:4.4.5
 _ZN6Okular8Settings11memoryLevelEv@Base 4:4.4.5
 _ZN6Okular8Settings11setUseKTTSDEb@Base 4:4.4.5
 _ZN6Okular8Settings11setViewModeEi@Base 4:4.6.1
 _ZN6Okular8Settings11setZoomModeEj@Base 4:4.4.5
 _ZN6Okular8Settings11textHintingEv@Base 4:4.4.5
 _ZN6Okular8Settings11trimMarginsEv@Base 4:4.4.5
 _ZN6Okular8Settings11viewColumnsEv@Base 4:4.4.5
 _ZN6Okular8Settings12changeColorsEv@Base 4:4.4.5
 _ZN6Okular8Settings12setWatchFileEb@Base 4:4.4.5
 _ZN6Okular8Settings12slidesCursorEv@Base 4:4.4.5
 _ZN6Okular8Settings12slidesScreenEv@Base 4:4.4.5
 _ZN6Okular8Settings13groupByAuthorEv@Base 4:4.4.5
 _ZN6Okular8Settings13scrollOverlapEv@Base 4:4.8.4
 _ZN6Okular8Settings13setBWContrastEj@Base 4:4.4.5
 _ZN6Okular8Settings13setPaperColorERK6QColor@Base 4:4.4.5
 _ZN6Okular8Settings13setRenderModeEi@Base 4:4.4.5
 _ZN6Okular8Settings13setSlidesLoopEb@Base 4:4.4.5
 _ZN6Okular8Settings13setZoomFactorEd@Base 4:4.4.5
 _ZN6Okular8Settings13showBottomBarEv@Base 4:4.6.1
 _ZN6Okular8Settings13showLeftPanelEv@Base 4:4.4.5
 _ZN6Okular8Settings13slidesAdvanceEv@Base 4:4.4.5
 _ZN6Okular8Settings13splitterSizesEv@Base 4:4.4.5
 _ZN6Okular8Settings13textAntialiasEv@Base 4:4.4.5
 _ZN6Okular8Settings13tocPageColumnEv@Base 4:4.4.5
 _ZN6Okular8Settings14externalEditorEv@Base 4:4.4.5
 _ZN6Okular8Settings14highlightLinksEv@Base 4:4.4.5
 _ZN6Okular8Settings14identityAuthorEv@Base 4:4.4.5
 _ZN6Okular8Settings14setBWThresholdEj@Base 4:4.4.5
 _ZN6Okular8Settings14setGroupByPageEb@Base 4:4.4.5
 _ZN6Okular8Settings14setMemoryLevelEi@Base 4:4.4.5
 _ZN6Okular8Settings14setTextHintingEi@Base 4:4.4.5
 _ZN6Okular8Settings14setTrimMarginsEb@Base 4:4.4.5
 _ZN6Okular8Settings14setViewColumnsEj@Base 4:4.4.5
 _ZN6Okular8Settings14showScrollBarsEv@Base 4:4.4.5
 _ZN6Okular8Settings14viewContinuousEv@Base 4:4.4.5
 _ZN6Okular8Settings15currentPageOnlyEv@Base 4:4.4.5
 _ZN6Okular8Settings15enableThreadingEv@Base 4:4.4.5
 _ZN6Okular8Settings15filterBookmarksEv@Base 4:4.4.5
 _ZN6Okular8Settings15highlightImagesEv@Base 4:4.4.5
 _ZN6Okular8Settings15setChangeColorsEb@Base 4:4.4.5
 _ZN6Okular8Settings15setSlidesCursorEi@Base 4:4.4.5
 _ZN6Okular8Settings15setSlidesScreenEi@Base 4:4.4.5
 _ZN6Okular8Settings15sidebarIconSizeEv@Base 4:4.4.5
 _ZN6Okular8Settings15sidebarShowTextEv@Base 4:4.4.5
 _ZN6Okular8Settings16chooseGeneratorsEv@Base 4:4.4.5
 _ZN6Okular8Settings16setGroupByAuthorEb@Base 4:4.4.5
 _ZN6Okular8Settings16setScrollOverlapEj@Base 4:4.8.4
 _ZN6Okular8Settings16setShowBottomBarEb@Base 4:4.6.1
 _ZN6Okular8Settings16setShowLeftPanelEb@Base 4:4.4.5
 _ZN6Okular8Settings16setSlidesAdvanceEb@Base 4:4.4.5
 _ZN6Okular8Settings16setSplitterSizesERK5QListIiE@Base 4:4.4.5
 _ZN6Okular8Settings16setTextAntialiasEi@Base 4:4.4.5
 _ZN6Okular8Settings16setTocPageColumnEb@Base 4:4.4.5
 _ZN6Okular8Settings16slidesTransitionEv@Base 4:4.4.5
 _ZN6Okular8Settings17enableCompositingEv@Base 4:4.4.5
 _ZN6Okular8Settings17graphicsAntialiasEv@Base 4:4.4.5
 _ZN6Okular8Settings17recolorBackgroundEv@Base 4:4.4.5
 _ZN6Okular8Settings17recolorForegroundEv@Base 4:4.4.5
 _ZN6Okular8Settings17setExternalEditorEi@Base 4:4.4.5
 _ZN6Okular8Settings17setHighlightLinksEb@Base 4:4.4.5
 _ZN6Okular8Settings17setIdentityAuthorERK7QString@Base 4:4.4.5
 _ZN6Okular8Settings17setShowScrollBarsEb@Base 4:4.4.5
 _ZN6Okular8Settings17setViewContinuousEb@Base 4:4.4.5
 _ZN6Okular8Settings17slidesAdvanceTimeEv@Base 4:4.4.5
 _ZN6Okular8Settings17slidesPencilColorEv@Base 4:4.4.5
 _ZN6Okular8Settings17slidesShowSummaryEv@Base 4:4.4.5
 _ZN6Okular8Settings18setCurrentPageOnlyEb@Base 4:4.4.5
 _ZN6Okular8Settings18setEnableThreadingEb@Base 4:4.4.5
 _ZN6Okular8Settings18setFilterBookmarksEb@Base 4:4.4.5
 _ZN6Okular8Settings18setHighlightImagesEb@Base 4:4.4.5
 _ZN6Okular8Settings18setSidebarIconSizeEj@Base 4:4.4.5
 _ZN6Okular8Settings18setSidebarShowTextEb@Base 4:4.4.5
 _ZN6Okular8Settings18slidesShowProgressEv@Base 4:4.4.5
 _ZN6Okular8Settings19debugDrawBoundariesEv@Base 4:4.4.5
 _ZN6Okular8Settings19searchCaseSensitiveEv@Base 4:4.4.5
 _ZN6Okular8Settings19setChooseGeneratorsEb@Base 4:4.4.5
 _ZN6Okular8Settings19setSlidesTransitionEi@Base 4:4.4.5
 _ZN6Okular8Settings20displayDocumentTitleEv@Base 4:4.4.5
 _ZN6Okular8Settings20editToolBarPlacementEv@Base 4:4.4.5
 _ZN6Okular8Settings20setEnableCompositingEb@Base 4:4.4.5
 _ZN6Okular8Settings20setGraphicsAntialiasEi@Base 4:4.4.5
 _ZN6Okular8Settings20setRecolorBackgroundERK6QColor@Base 4:4.4.5
 _ZN6Okular8Settings20setRecolorForegroundERK6QColor@Base 4:4.4.5
 _ZN6Okular8Settings20setSlidesAdvanceTimeEj@Base 4:4.4.5
 _ZN6Okular8Settings20setSlidesPencilColorERK6QColor@Base 4:4.4.5
 _ZN6Okular8Settings20setSlidesShowSummaryEb@Base 4:4.4.5
 _ZN6Okular8Settings21externalEditorCommandEv@Base 4:4.4.5
 _ZN6Okular8Settings21searchFromCurrentPageEv@Base 4:4.4.5
 _ZN6Okular8Settings21setSlidesShowProgressEb@Base 4:4.4.5
 _ZN6Okular8Settings21slidesBackgroundColorEv@Base 4:4.4.5
 _ZN6Okular8Settings22setDebugDrawBoundariesEb@Base 4:4.4.5
 _ZN6Okular8Settings22setSearchCaseSensitiveEb@Base 4:4.4.5
 _ZN6Okular8Settings22syncThumbnailsViewportEv@Base 4:4.4.5
 _ZN6Okular8Settings23debugDrawAnnotationRectEv@Base 4:4.4.5
 _ZN6Okular8Settings23setDisplayDocumentTitleEb@Base 4:4.4.5
 _ZN6Okular8Settings23setEditToolBarPlacementEi@Base 4:4.4.5
 _ZN6Okular8Settings24setExternalEditorCommandERK7QString@Base 4:4.4.5
 _ZN6Okular8Settings24setSearchFromCurrentPageEb@Base 4:4.4.5
 _ZN6Okular8Settings24setSlidesBackgroundColorERK6QColor@Base 4:4.4.5
 _ZN6Okular8Settings24slidesTransitionsEnabledEv@Base 4:4.4.5
 _ZN6Okular8Settings25setSyncThumbnailsViewportEb@Base 4:4.4.5
 _ZN6Okular8Settings26reviewsSearchCaseSensitiveEv@Base 4:4.4.5
 _ZN6Okular8Settings26setDebugDrawAnnotationRectEb@Base 4:4.4.5
 _ZN6Okular8Settings27contentsSearchCaseSensitiveEv@Base 4:4.4.5
 _ZN6Okular8Settings27setSlidesTransitionsEnabledEb@Base 4:4.4.5
 _ZN6Okular8Settings29setReviewsSearchCaseSensitiveEb@Base 4:4.4.5
 _ZN6Okular8Settings30reviewsSearchRegularExpressionEv@Base 4:4.4.5
 _ZN6Okular8Settings30setContentsSearchCaseSensitiveEb@Base 4:4.4.5
 _ZN6Okular8Settings30showSourceLocationsGraphicallyEv@Base 4:4.8.4
 _ZN6Okular8Settings31contentsSearchRegularExpressionEv@Base 4:4.4.5
 _ZN6Okular8Settings33setReviewsSearchRegularExpressionEb@Base 4:4.4.5
 _ZN6Okular8Settings33setShowSourceLocationsGraphicallyEb@Base 4:4.8.4
 _ZN6Okular8Settings34setContentsSearchRegularExpressionEb@Base 4:4.4.5
 _ZN6Okular8Settings4selfEv@Base 4:4.4.5
 _ZN6Okular8Settings7obeyDRMEv@Base 4:4.4.5
 _ZN6Okular8Settings7showOSDEv@Base 4:4.4.5
 _ZN6Okular8Settings8instanceERK7QString@Base 4:4.8.4
 _ZN6Okular8Settings8useKTTSDEv@Base 4:4.4.5
 _ZN6Okular8Settings8viewModeEv@Base 4:4.4.5
 _ZN6Okular8Settings8zoomModeEv@Base 4:4.4.5
 _ZN6Okular8Settings9watchFileEv@Base 4:4.4.5
 _ZN6Okular8SettingsC1ERK7QString@Base 4:4.8.4
 _ZN6Okular8SettingsC2ERK7QString@Base 4:4.8.4
 _ZN6Okular8SettingsD0Ev@Base 4:4.4.5
 _ZN6Okular8SettingsD1Ev@Base 4:4.4.5
 _ZN6Okular8SettingsD2Ev@Base 4:4.4.5
 _ZN6Okular8TextPage6appendERK7QStringPNS_14NormalizedRectE@Base 4:4.4.5
 _ZN6Okular8TextPage8findTextEiRK7QStringNS_15SearchDirectionEN2Qt15CaseSensitivityEPKNS_15RegularAreaRectE@Base 4:4.4.5
 _ZN6Okular8TextPageC1ERK5QListIPNS_10TextEntityEE@Base 4:4.4.5
 _ZN6Okular8TextPageC1Ev@Base 4:4.4.5
 _ZN6Okular8TextPageC2ERK5QListIPNS_10TextEntityEE@Base 4:4.4.5
 _ZN6Okular8TextPageC2Ev@Base 4:4.4.5
 _ZN6Okular8TextPageD1Ev@Base 4:4.4.5
 _ZN6Okular8TextPageD2Ev@Base 4:4.4.5
 _ZN6Okular9FormField19setActivationActionEPNS_6ActionE@Base 4:4.4.5
 _ZN6Okular9FormFieldC1ERNS_16FormFieldPrivateE@Base 4:4.4.5
 _ZN6Okular9FormFieldC2ERNS_16FormFieldPrivateE@Base 4:4.4.5
 _ZN6Okular9FormFieldD0Ev@Base 4:4.4.5
 _ZN6Okular9FormFieldD1Ev@Base 4:4.4.5
 _ZN6Okular9FormFieldD2Ev@Base 4:4.4.5
 _ZN6Okular9Generator10setFeatureENS0_16GeneratorFeatureEb@Base 4:4.4.5
 _ZN6Okular9Generator11qt_metacallEN11QMetaObject4CallEiPPv@Base 4:4.4.5
 _ZN6Okular9Generator11qt_metacastEPKc@Base 4:4.4.5
 _ZN6Okular9Generator12fontsForPageEi@Base 4:4.4.5
 _ZN6Okular9Generator13closeDocumentEv@Base 4:4.4.5
 _ZN6Okular9Generator14generatePixmapEPNS_13PixmapRequestE@Base 4:4.4.5
 _ZN6Okular9Generator15pageSizeChangedERKNS_8PageSizeES3_@Base 4:4.4.5
 _ZN6Okular9Generator15requestFontDataERKNS_8FontInfoEP10QByteArray@Base 4:4.4.5
 _ZN6Okular9Generator15rotationChangedENS_8RotationES1_@Base 4:4.4.5
 _ZN6Okular9Generator16generateTextPageEPNS_4PageE@Base 4:4.4.5
 _ZN6Okular9Generator16staticMetaObjectE@Base 4:4.4.5
 _ZN6Okular9Generator20generateDocumentInfoEv@Base 4:4.4.5
 _ZN6Okular9Generator20loadDocumentFromDataERK10QByteArrayR7QVectorIPNS_4PageEE@Base 4:4.4.5
 _ZN6Okular9Generator21updatePageBoundingBoxEiRKNS_14NormalizedRectE@Base 4:4.4.5
 _ZN6Okular9Generator22dynamicSourceReferenceEidd@Base 4:4.4.5
 _ZN6Okular9Generator23signalPixmapRequestDoneEPNS_13PixmapRequestE@Base 4:4.4.5
 _ZN6Okular9Generator24generateDocumentSynopsisEv@Base 4:4.4.5
 _ZN6Okular9Generator24signalTextGenerationDoneEPNS_4PageEPNS_8TextPageE@Base 4:4.4.5
 _ZN6Okular9Generator5errorERK7QStringi@Base 4:4.4.5
 _ZN6Okular9Generator5imageEPNS_13PixmapRequestE@Base 4:4.4.5
 _ZN6Okular9Generator5printER8QPrinter@Base 4:4.4.5
 _ZN6Okular9Generator6noticeERK7QStringi@Base 4:4.4.5
 _ZN6Okular9Generator7warningERK7QStringi@Base 4:4.4.5
 _ZN6Okular9Generator8exportToERK7QStringRKNS_12ExportFormatE@Base 4:4.4.5
 _ZN6Okular9Generator8textPageEPNS_4PageE@Base 4:4.4.5
 _ZN6Okular9GeneratorC1EP7QObjectRK5QListI8QVariantE@Base 4:4.4.5
 _ZN6Okular9GeneratorC1ERNS_16GeneratorPrivateEP7QObjectRK5QListI8QVariantE@Base 4:4.4.5
 _ZN6Okular9GeneratorC2EP7QObjectRK5QListI8QVariantE@Base 4:4.4.5
 _ZN6Okular9GeneratorC2ERNS_16GeneratorPrivateEP7QObjectRK5QListI8QVariantE@Base 4:4.4.5
 _ZN6Okular9GeneratorD0Ev@Base 4:4.4.5
 _ZN6Okular9GeneratorD1Ev@Base 4:4.4.5
 _ZN6Okular9GeneratorD2Ev@Base 4:4.4.5
 (arch=kfreebsd-amd64 kfreebsd-i386)_ZN9KBookmarkD1Ev@Base 4:4.8.4
 (arch=kfreebsd-amd64 kfreebsd-i386)_ZN9KBookmarkD2Ev@Base 4:4.8.4
 (arch=kfreebsd-amd64 kfreebsd-i386)_ZN9KJSStringD1Ev@Base 4:4.8.4
 (arch=kfreebsd-amd64 kfreebsd-i386)_ZN9KJSStringD2Ev@Base 4:4.8.4
 _ZNK6Okular10Annotation10canBeMovedEv@Base 4:4.4.5
 _ZNK6Okular10Annotation10uniqueNameEv@Base 4:4.4.5
 _ZNK6Okular10Annotation12creationDateEv@Base 4:4.4.5
 _ZNK6Okular10Annotation16modificationDateEv@Base 4:4.4.5
 _ZNK6Okular10Annotation17boundingRectangleEv@Base 4:4.4.5
 _ZNK6Okular10Annotation23openDialogAfterCreationEv@Base 4:4.7.2
 _ZNK6Okular10Annotation28transformedBoundingRectangleEv@Base 4:4.4.5
 _ZNK6Okular10Annotation5Style10lineEffectEv@Base 4:4.4.5
 _ZNK6Okular10Annotation5Style15effectIntensityEv@Base 4:4.4.5
 _ZNK6Okular10Annotation5Style5colorEv@Base 4:4.4.5
 _ZNK6Okular10Annotation5Style5marksEv@Base 4:4.4.5
 _ZNK6Okular10Annotation5Style5widthEv@Base 4:4.4.5
 _ZNK6Okular10Annotation5Style6spacesEv@Base 4:4.4.5
 _ZNK6Okular10Annotation5Style7opacityEv@Base 4:4.4.5
 _ZNK6Okular10Annotation5Style8xCornersEv@Base 4:4.4.5
 _ZNK6Okular10Annotation5Style8yCornersEv@Base 4:4.4.5
 _ZNK6Okular10Annotation5Style9lineStyleEv@Base 4:4.4.5
 _ZNK6Okular10Annotation5flagsEv@Base 4:4.4.5
 _ZNK6Okular10Annotation5storeER8QDomNodeR12QDomDocument@Base 4:4.4.5
 _ZNK6Okular10Annotation5styleEv@Base 4:4.4.5
 _ZNK6Okular10Annotation6Window4textEv@Base 4:4.4.5
 _ZNK6Okular10Annotation6Window5flagsEv@Base 4:4.4.5
 _ZNK6Okular10Annotation6Window5titleEv@Base 4:4.4.5
 _ZNK6Okular10Annotation6Window5widthEv@Base 4:4.4.5
 _ZNK6Okular10Annotation6Window6heightEv@Base 4:4.4.5
 _ZNK6Okular10Annotation6Window7summaryEv@Base 4:4.4.5
 _ZNK6Okular10Annotation6Window7topLeftEv@Base 4:4.4.5
 _ZNK6Okular10Annotation6authorEv@Base 4:4.4.5
 _ZNK6Okular10Annotation6windowEv@Base 4:4.4.5
 _ZNK6Okular10Annotation8Revision10annotationEv@Base 4:4.4.5
 _ZNK6Okular10Annotation8Revision4typeEv@Base 4:4.4.5
 _ZNK6Okular10Annotation8Revision5scopeEv@Base 4:4.4.5
 _ZNK6Okular10Annotation8contentsEv@Base 4:4.4.5
 _ZNK6Okular10Annotation8nativeIdEv@Base 4:4.4.5
 _ZNK6Okular10Annotation9revisionsEv@Base 4:4.4.5
 _ZNK6Okular10GotoAction10actionTypeEv@Base 4:4.4.5
 _ZNK6Okular10GotoAction10isExternalEv@Base 4:4.4.5
 _ZNK6Okular10GotoAction12destViewportEv@Base 4:4.4.5
 _ZNK6Okular10GotoAction15destinationNameEv@Base 4:4.4.5
 _ZNK6Okular10GotoAction8fileNameEv@Base 4:4.4.5
 _ZNK6Okular10GotoAction9actionTipEv@Base 4:4.4.5
 _ZNK6Okular10ObjectRect10objectTypeEv@Base 4:4.4.5
 _ZNK6Okular10ObjectRect11distanceSqrEdddd@Base 4:4.4.5
 _ZNK6Okular10ObjectRect12boundingRectEdd@Base 4:4.4.5
 _ZNK6Okular10ObjectRect6objectEv@Base 4:4.4.5
 _ZNK6Okular10ObjectRect6regionEv@Base 4:4.4.5
 _ZNK6Okular10ObjectRect8containsEdddd@Base 4:4.4.5
 _ZNK6Okular10TextEntity15transformedAreaERK7QMatrix@Base 4:4.4.5
 _ZNK6Okular10TextEntity4areaEv@Base 4:4.4.5
 _ZNK6Okular10TextEntity4textEv@Base 4:4.4.5
 _ZNK6Okular11AudioPlayer10metaObjectEv@Base 4:4.4.5
 _ZNK6Okular11SoundAction10actionTypeEv@Base 4:4.4.5
 _ZNK6Okular11SoundAction11synchronousEv@Base 4:4.4.5
 _ZNK6Okular11SoundAction3mixEv@Base 4:4.4.5
 _ZNK6Okular11SoundAction5soundEv@Base 4:4.4.5
 _ZNK6Okular11SoundAction6repeatEv@Base 4:4.4.5
 _ZNK6Okular11SoundAction6volumeEv@Base 4:4.4.5
 _ZNK6Okular11SoundAction9actionTipEv@Base 4:4.4.5
 _ZNK6Okular12BrowseAction10actionTypeEv@Base 4:4.4.5
 _ZNK6Okular12BrowseAction3urlEv@Base 4:4.4.5
 _ZNK6Okular12BrowseAction9actionTipEv@Base 4:4.4.5
 _ZNK6Okular12DocumentInfo3getERK7QString@Base 4:4.4.5
 _ZNK6Okular12ExportFormat11descriptionEv@Base 4:4.4.5
 _ZNK6Okular12ExportFormat4iconEv@Base 4:4.4.5
 _ZNK6Okular12ExportFormat6isNullEv@Base 4:4.4.5
 _ZNK6Okular12ExportFormat8mimeTypeEv@Base 4:4.4.5
 _ZNK6Okular12ExportFormateqERKS0_@Base 4:4.4.5
 _ZNK6Okular12ExportFormatneERKS0_@Base 4:4.4.5
 _ZNK6Okular12ScriptAction10actionTypeEv@Base 4:4.4.5
 _ZNK6Okular12ScriptAction10scriptTypeEv@Base 4:4.4.5
 _ZNK6Okular12ScriptAction6scriptEv@Base 4:4.4.5
 _ZNK6Okular12ScriptAction9actionTipEv@Base 4:4.4.5
 _ZNK6Okular13ExecuteAction10actionTypeEv@Base 4:4.4.5
 _ZNK6Okular13ExecuteAction10parametersEv@Base 4:4.4.5
 _ZNK6Okular13ExecuteAction8fileNameEv@Base 4:4.4.5
 _ZNK6Okular13ExecuteAction9actionTipEv@Base 4:4.4.5
 _ZNK6Okular13FormFieldText10isPasswordEv@Base 4:4.4.5
 _ZNK6Okular13FormFieldText10isRichTextEv@Base 4:4.4.5
 _ZNK6Okular13FormFieldText13maximumLengthEv@Base 4:4.4.5
 _ZNK6Okular13FormFieldText13textAlignmentEv@Base 4:4.4.5
 _ZNK6Okular13FormFieldText17canBeSpellCheckedEv@Base 4:4.4.5
 _ZNK6Okular13InkAnnotation19transformedInkPathsEv@Base 4:4.4.5
 _ZNK6Okular13InkAnnotation5storeER8QDomNodeR12QDomDocument@Base 4:4.4.5
 _ZNK6Okular13InkAnnotation7subTypeEv@Base 4:4.4.5
 _ZNK6Okular13InkAnnotation8inkPathsEv@Base 4:4.4.5
 _ZNK6Okular13PixmapRequest10pageNumberEv@Base 4:4.4.5
 _ZNK6Okular13PixmapRequest12asynchronousEv@Base 4:4.4.5
 _ZNK6Okular13PixmapRequest2idEv@Base 4:4.4.5
 _ZNK6Okular13PixmapRequest4pageEv@Base 4:4.4.5
 _ZNK6Okular13PixmapRequest5widthEv@Base 4:4.4.5
 _ZNK6Okular13PixmapRequest6heightEv@Base 4:4.4.5
 _ZNK6Okular13PixmapRequest8priorityEv@Base 4:4.4.5
 _ZNK6Okular13TextSelection3endEv@Base 4:4.4.5
 _ZNK6Okular13TextSelection3itBEv@Base 4:4.4.5
 _ZNK6Okular13TextSelection3itEEv@Base 4:4.4.5
 _ZNK6Okular13TextSelection5startEv@Base 4:4.4.5
 _ZNK6Okular13TextSelection9directionEv@Base 4:4.4.5
 _ZNK6Okular14DocumentAction10actionTypeEv@Base 4:4.4.5
 _ZNK6Okular14DocumentAction18documentActionTypeEv@Base 4:4.4.5
 _ZNK6Okular14DocumentAction9actionTipEv@Base 4:4.4.5
 _ZNK6Okular14GeomAnnotation15geometricalTypeEv@Base 4:4.4.5
 _ZNK6Okular14GeomAnnotation21geometricalInnerColorEv@Base 4:4.4.5
 _ZNK6Okular14GeomAnnotation21geometricalPointWidthEv@Base 4:4.4.5
 _ZNK6Okular14GeomAnnotation5storeER8QDomNodeR12QDomDocument@Base 4:4.4.5
 _ZNK6Okular14GeomAnnotation7subTypeEv@Base 4:4.4.5
 _ZNK6Okular14LineAnnotation10lineClosedEv@Base 4:4.4.5
 _ZNK6Okular14LineAnnotation10lineIntentEv@Base 4:4.4.5
 _ZNK6Okular14LineAnnotation10linePointsEv@Base 4:4.4.5
 _ZNK6Okular14LineAnnotation11showCaptionEv@Base 4:4.4.5
 _ZNK6Okular14LineAnnotation12lineEndStyleEv@Base 4:4.4.5
 _ZNK6Okular14LineAnnotation14lineInnerColorEv@Base 4:4.4.5
 _ZNK6Okular14LineAnnotation14lineStartStyleEv@Base 4:4.4.5
 _ZNK6Okular14LineAnnotation21transformedLinePointsEv@Base 4:4.4.5
 _ZNK6Okular14LineAnnotation23lineLeadingForwardPointEv@Base 4:4.4.5
 _ZNK6Okular14LineAnnotation24lineLeadingBackwardPointEv@Base 4:4.4.5
 _ZNK6Okular14LineAnnotation5storeER8QDomNodeR12QDomDocument@Base 4:4.4.5
 _ZNK6Okular14LineAnnotation7subTypeEv@Base 4:4.4.5
 _ZNK6Okular14NormalizedRect10intersectsEPKS0_@Base 4:4.4.5
 _ZNK6Okular14NormalizedRect10intersectsERKS0_@Base 4:4.4.5
 _ZNK6Okular14NormalizedRect10intersectsEdddd@Base 4:4.4.5
 _ZNK6Okular14NormalizedRect15roundedGeometryEii@Base 4:4.8.4
 _ZNK6Okular14NormalizedRect6centerEv@Base 4:4.4.5
 _ZNK6Okular14NormalizedRect6isNullEv@Base 4:4.4.5
 _ZNK6Okular14NormalizedRect8containsEdd@Base 4:4.4.5
 _ZNK6Okular14NormalizedRect8geometryEii@Base 4:4.4.5
 _ZNK6Okular14NormalizedRectanERKS0_@Base 4:4.4.5
 _ZNK6Okular14NormalizedRecteqERKS0_@Base 4:4.4.5
 _ZNK6Okular14NormalizedRectorERKS0_@Base 4:4.4.5
 _ZNK6Okular14PageTransition13isRectangularEv@Base 4:4.4.5
 _ZNK6Okular14PageTransition4typeEv@Base 4:4.4.5
 _ZNK6Okular14PageTransition5angleEv@Base 4:4.4.5
 _ZNK6Okular14PageTransition5scaleEv@Base 4:4.4.5
 _ZNK6Okular14PageTransition8durationEv@Base 4:4.4.5
 _ZNK6Okular14PageTransition9alignmentEv@Base 4:4.4.5
 _ZNK6Okular14PageTransition9directionEv@Base 4:4.4.5
 _ZNK6Okular14TextAnnotation11inplaceTextEv@Base 4:4.4.5
 _ZNK6Okular14TextAnnotation13inplaceIntentEv@Base 4:4.4.5
 _ZNK6Okular14TextAnnotation14inplaceCalloutEi@Base 4:4.4.5
 _ZNK6Okular14TextAnnotation16inplaceAlignmentEv@Base 4:4.4.5
 _ZNK6Okular14TextAnnotation25transformedInplaceCalloutEi@Base 4:4.4.5
 _ZNK6Okular14TextAnnotation5storeER8QDomNodeR12QDomDocument@Base 4:4.4.5
 _ZNK6Okular14TextAnnotation7subTypeEv@Base 4:4.4.5
 _ZNK6Okular14TextAnnotation8textFontEv@Base 4:4.4.5
 _ZNK6Okular14TextAnnotation8textIconEv@Base 4:4.4.5
 _ZNK6Okular14TextAnnotation8textTypeEv@Base 4:4.4.5
 _ZNK6Okular15BookmarkManager10metaObjectEv@Base 4:4.4.5
 _ZNK6Okular15BookmarkManager12isBookmarkedEi@Base 4:4.4.5
 _ZNK6Okular15BookmarkManager13actionsForUrlERK4KUrl@Base 4:4.4.5
 _ZNK6Okular15BookmarkManager4saveEv@Base 4:4.4.5
 _ZNK6Okular15BookmarkManager5filesEv@Base 4:4.4.5
 _ZNK6Okular15BookmarkManager7Private10currentUrlEv@Base 4:4.4.5
 _ZNK6Okular15BookmarkManager7Private12currentTitleEv@Base 4:4.4.5
 _ZNK6Okular15BookmarkManager7Private12enableOptionEN14KBookmarkOwner14BookmarkOptionE@Base 4:4.4.5
 _ZNK6Okular15BookmarkManager8bookmarkEi@Base 4:4.8.4
 _ZNK6Okular15BookmarkManager9bookmarksERK4KUrl@Base 4:4.4.5
 _ZNK6Okular15BookmarkManager9bookmarksEv@Base 4:4.8.4
 _ZNK6Okular15CaretAnnotation11caretSymbolEv@Base 4:4.4.5
 _ZNK6Okular15CaretAnnotation5storeER8QDomNodeR12QDomDocument@Base 4:4.4.5
 _ZNK6Okular15CaretAnnotation7subTypeEv@Base 4:4.4.5
 _ZNK6Okular15FormFieldChoice10isEditableEv@Base 4:4.4.5
 _ZNK6Okular15FormFieldChoice11multiSelectEv@Base 4:4.4.5
 _ZNK6Okular15FormFieldChoice13textAlignmentEv@Base 4:4.4.5
 _ZNK6Okular15FormFieldChoice17canBeSpellCheckedEv@Base 4:4.4.5
 _ZNK6Okular15MovieAnnotation5movieEv@Base 4:4.4.5
 _ZNK6Okular15MovieAnnotation5storeER8QDomNodeR12QDomDocument@Base 4:4.4.5
 _ZNK6Okular15MovieAnnotation7subTypeEv@Base 4:4.4.5
 _ZNK6Okular15SoundAnnotation13soundIconNameEv@Base 4:4.4.5
 _ZNK6Okular15SoundAnnotation5soundEv@Base 4:4.4.5
 _ZNK6Okular15SoundAnnotation5storeER8QDomNodeR12QDomDocument@Base 4:4.4.5
 _ZNK6Okular15SoundAnnotation7subTypeEv@Base 4:4.4.5
 _ZNK6Okular15SourceReference3rowEv@Base 4:4.4.5
 _ZNK6Okular15SourceReference6columnEv@Base 4:4.4.5
 _ZNK6Okular15SourceReference8fileNameEv@Base 4:4.4.5
 _ZNK6Okular15StampAnnotation13stampIconNameEv@Base 4:4.4.5
 _ZNK6Okular15StampAnnotation5storeER8QDomNodeR12QDomDocument@Base 4:4.4.5
 _ZNK6Okular15StampAnnotation7subTypeEv@Base 4:4.4.5
 _ZNK6Okular16DocumentObserver15canUnloadPixmapEi@Base 4:4.4.5
 _ZNK6Okular16DocumentViewport7isValidEv@Base 4:4.4.5
 _ZNK6Okular16DocumentViewport8toStringEv@Base 4:4.4.5
 _ZNK6Okular16DocumentViewporteqERKS0_@Base 4:4.4.5
 _ZNK6Okular19HighlightAnnotation13highlightTypeEv@Base 4:4.4.5
 _ZNK6Okular19HighlightAnnotation4Quad16transformedPointEi@Base 4:4.4.5
 _ZNK6Okular19HighlightAnnotation4Quad5pointEi@Base 4:4.4.5
 _ZNK6Okular19HighlightAnnotation4Quad6capEndEv@Base 4:4.4.5
 _ZNK6Okular19HighlightAnnotation4Quad7featherEv@Base 4:4.4.5
 _ZNK6Okular19HighlightAnnotation4Quad8capStartEv@Base 4:4.4.5
 _ZNK6Okular19HighlightAnnotation5storeER8QDomNodeR12QDomDocument@Base 4:4.4.5
 _ZNK6Okular19HighlightAnnotation7subTypeEv@Base 4:4.4.5
 _ZNK6Okular19SourceRefObjectRect12boundingRectEdd@Base 4:4.4.5
 _ZNK6Okular19SourceRefObjectRect8containsEdddd@Base 4:4.4.5
 _ZNK6Okular20AnnotationObjectRect10annotationEv@Base 4:4.4.5
 _ZNK6Okular20AnnotationObjectRect12boundingRectEdd@Base 4:4.4.5
 _ZNK6Okular20AnnotationObjectRect8containsEdddd@Base 4:4.4.5
 _ZNK6Okular21TextDocumentConverter10metaObjectEv@Base 4:4.4.5
 _ZNK6Okular21TextDocumentConverter9generatorEv@Base 4:4.4.5
 _ZNK6Okular21TextDocumentGenerator10metaObjectEv@Base 4:4.4.5
 _ZNK6Okular21TextDocumentGenerator13exportFormatsEv@Base 4:4.4.5
 _ZNK6Okular21TextDocumentGenerator17canGeneratePixmapEv@Base 4:4.4.5
 _ZNK6Okular24FileAttachmentAnnotation12embeddedFileEv@Base 4:4.4.5
 _ZNK6Okular24FileAttachmentAnnotation12fileIconNameEv@Base 4:4.4.5
 _ZNK6Okular24FileAttachmentAnnotation5storeER8QDomNodeR12QDomDocument@Base 4:4.4.5
 _ZNK6Okular24FileAttachmentAnnotation7subTypeEv@Base 4:4.4.5
 _ZNK6Okular4Page10formFieldsEv@Base 4:4.4.5
 _ZNK6Okular4Page10objectRectENS_10ObjectRect10ObjectTypeEdddd@Base 4:4.4.5
 _ZNK6Okular4Page10pageActionENS0_10PageActionE@Base 4:4.4.5
 _ZNK6Okular4Page10transitionEv@Base 4:4.4.5
 _ZNK6Okular4Page11annotationsEv@Base 4:4.4.5
 _ZNK6Okular4Page11boundingBoxEv@Base 4:4.4.5
 _ZNK6Okular4Page11hasTextPageEv@Base 4:4.4.5
 _ZNK6Okular4Page11orientationEv@Base 4:4.4.5
 _ZNK6Okular4Page13hasHighlightsEi@Base 4:4.4.5
 _ZNK6Okular4Page13hasObjectRectEdddd@Base 4:4.4.5
 _ZNK6Okular4Page13hasTransitionEv@Base 4:4.4.5
 _ZNK6Okular4Page13textSelectionEv@Base 4:4.4.5
 _ZNK6Okular4Page14hasAnnotationsEv@Base 4:4.4.5
 _ZNK6Okular4Page16_o_nearestPixmapEiii@Base 4:4.4.5
 _ZNK6Okular4Page16totalOrientationEv@Base 4:4.4.5
 _ZNK6Okular4Page17nearestObjectRectENS_10ObjectRect10ObjectTypeEddddPd@Base 4:4.4.5
 _ZNK6Okular4Page18isBoundingBoxKnownEv@Base 4:4.4.5
 _ZNK6Okular4Page18textSelectionColorEv@Base 4:4.4.5
 _ZNK6Okular4Page4textEPKNS_15RegularAreaRectE@Base 4:4.4.5
 _ZNK6Okular4Page4textEPKNS_15RegularAreaRectENS_8TextPage26TextAreaInclusionBehaviourE@Base 4:4.4.5
 _ZNK6Okular4Page5labelEv@Base 4:4.4.5
 _ZNK6Okular4Page5ratioEv@Base 4:4.4.5
 _ZNK6Okular4Page5widthEv@Base 4:4.4.5
 _ZNK6Okular4Page5wordsEPKNS_15RegularAreaRectENS_8TextPage26TextAreaInclusionBehaviourE@Base 4:4.8.4
 _ZNK6Okular4Page6heightEv@Base 4:4.4.5
 _ZNK6Okular4Page6numberEv@Base 4:4.4.5
 _ZNK6Okular4Page8durationEv@Base 4:4.4.5
 _ZNK6Okular4Page8findTextEiRK7QStringNS_15SearchDirectionEN2Qt15CaseSensitivityEPKNS_15RegularAreaRectE@Base 4:4.4.5
 _ZNK6Okular4Page8rotationEv@Base 4:4.4.5
 _ZNK6Okular4Page8textAreaEPNS_13TextSelectionE@Base 4:4.4.5
 _ZNK6Okular4Page9hasPixmapEiii@Base 4:4.4.5
 _ZNK6Okular4View10capabilityENS0_14ViewCapabilityE@Base 4:4.4.5
 _ZNK6Okular4View12viewDocumentEv@Base 4:4.4.5
 _ZNK6Okular4View15capabilityFlagsENS0_14ViewCapabilityE@Base 4:4.4.5
 _ZNK6Okular4View18supportsCapabilityENS0_14ViewCapabilityE@Base 4:4.4.5
 _ZNK6Okular4View4nameEv@Base 4:4.4.5
 _ZNK6Okular5Movie12showControlsEv@Base 4:4.4.5
 _ZNK6Okular5Movie3urlEv@Base 4:4.4.5
 _ZNK6Okular5Movie4sizeEv@Base 4:4.4.5
 _ZNK6Okular5Movie8playModeEv@Base 4:4.4.5
 _ZNK6Okular5Movie8rotationEv@Base 4:4.4.5
 _ZNK6Okular5Sound12samplingRateEv@Base 4:4.4.5
 _ZNK6Okular5Sound13bitsPerSampleEv@Base 4:4.4.5
 _ZNK6Okular5Sound13soundEncodingEv@Base 4:4.4.5
 _ZNK6Okular5Sound3urlEv@Base 4:4.4.5
 _ZNK6Okular5Sound4dataEv@Base 4:4.4.5
 _ZNK6Okular5Sound8channelsEv@Base 4:4.4.5
 _ZNK6Okular5Sound9soundTypeEv@Base 4:4.4.5
 _ZNK6Okular6Action9actionTipEv@Base 4:4.4.5
 _ZNK6Okular8Document10metaObjectEv@Base 4:4.4.5
 _ZNK6Okular8Document10printErrorEv@Base 4:4.6.1
 _ZNK6Okular8Document11currentPageEv@Base 4:4.4.5
 _ZNK6Okular8Document11orientationEv@Base 4:4.8.4
 _ZNK6Okular8Document12allPagesSizeEv@Base 4:4.4.5
 _ZNK6Okular8Document12documentInfoEv@Base 4:4.4.5
 _ZNK6Okular8Document12exportToTextERK7QString@Base 4:4.4.5
 _ZNK6Okular8Document12historyAtEndEv@Base 4:4.4.5
 _ZNK6Okular8Document13componentDataEv@Base 4:4.4.5
 _ZNK6Okular8Document13embeddedFilesEv@Base 4:4.4.5
 _ZNK6Okular8Document13exportFormatsEv@Base 4:4.4.5
 _ZNK6Okular8Document14canSaveChangesEv@Base 4:4.4.5
 _ZNK6Okular8Document14historyAtBeginEv@Base 4:4.4.5
 _ZNK6Okular8Document14pageSizeStringEi@Base 4:4.4.5
 _ZNK6Okular8Document15bookmarkManagerEv@Base 4:4.4.5
 _ZNK6Okular8Document15canExportToTextEv@Base 4:4.4.5
 _ZNK6Okular8Document15currentDocumentEv@Base 4:4.4.5
 _ZNK6Okular8Document15printingSupportEv@Base 4:4.4.5
 _ZNK6Okular8Document16documentSynopsisEv@Base 4:4.4.5
 _ZNK6Okular8Document16visiblePageRectsEv@Base 4:4.4.5
 _ZNK6Okular8Document17supportsPageSizesEv@Base 4:4.4.5
 _ZNK6Okular8Document17supportsSearchingEv@Base 4:4.4.5
 _ZNK6Okular8Document18bookmarkedPageListEv@Base 4:4.4.5
 _ZNK6Okular8Document18supportedMimeTypesEv@Base 4:4.4.5
 _ZNK6Okular8Document19bookmarkedPageRangeEv@Base 4:4.4.5
 _ZNK6Okular8Document19canConfigurePrinterEv@Base 4:4.4.5
 _ZNK6Okular8Document19supportsPrintToFileEv@Base 4:4.4.5
 _ZNK6Okular8Document22configurableGeneratorsEv@Base 4:4.4.5
 _ZNK6Okular8Document24printConfigurationWidgetEv@Base 4:4.4.5
 _ZNK6Okular8Document25canProvideFontInformationEv@Base 4:4.4.5
 _ZNK6Okular8Document4pageEi@Base 4:4.4.5
 _ZNK6Okular8Document5pagesEv@Base 4:4.4.5
 _ZNK6Okular8Document6widgetEv@Base 4:4.4.5
 _ZNK6Okular8Document8exportToERK7QStringRKNS_12ExportFormatE@Base 4:4.4.5
 _ZNK6Okular8Document8fontDataERKNS_8FontInfoE@Base 4:4.4.5
 _ZNK6Okular8Document8isOpenedEv@Base 4:4.4.5
 _ZNK6Okular8Document8metaDataERK7QStringRK8QVariant@Base 4:4.4.5
 _ZNK6Okular8Document8rotationEv@Base 4:4.4.5
 _ZNK6Okular8Document8viewportEv@Base 4:4.4.5
 _ZNK6Okular8Document9isAllowedENS_10PermissionE@Base 4:4.4.5
 _ZNK6Okular8Document9pageSizesEv@Base 4:4.4.5
 _ZNK6Okular8FontInfo14canBeExtractedEv@Base 4:4.4.5
 _ZNK6Okular8FontInfo4fileEv@Base 4:4.4.5
 _ZNK6Okular8FontInfo4nameEv@Base 4:4.4.5
 _ZNK6Okular8FontInfo4typeEv@Base 4:4.4.5
 _ZNK6Okular8FontInfo8nativeIdEv@Base 4:4.4.5
 _ZNK6Okular8FontInfo9embedTypeEv@Base 4:4.4.5
 _ZNK6Okular8FontInfoeqERKS0_@Base 4:4.4.5
 _ZNK6Okular8FontInfoneERKS0_@Base 4:4.4.5
 _ZNK6Okular8PageSize4nameEv@Base 4:4.4.5
 _ZNK6Okular8PageSize5widthEv@Base 4:4.4.5
 _ZNK6Okular8PageSize6heightEv@Base 4:4.4.5
 _ZNK6Okular8PageSize6isNullEv@Base 4:4.4.5
 _ZNK6Okular8PageSizeeqERKS0_@Base 4:4.4.5
 _ZNK6Okular8PageSizeneERKS0_@Base 4:4.4.5
 _ZNK6Okular8TextPage4textEPKNS_15RegularAreaRectE@Base 4:4.4.5
 _ZNK6Okular8TextPage4textEPKNS_15RegularAreaRectENS0_26TextAreaInclusionBehaviourE@Base 4:4.4.5
 _ZNK6Okular8TextPage5wordsEPKNS_15RegularAreaRectENS0_26TextAreaInclusionBehaviourE@Base 4:4.8.4
 _ZNK6Okular8TextPage8textAreaEPNS_13TextSelectionE@Base 4:4.4.5
 _ZNK6Okular9FormField10isReadOnlyEv@Base 4:4.4.5
 _ZNK6Okular9FormField16activationActionEv@Base 4:4.4.5
 _ZNK6Okular9FormField4typeEv@Base 4:4.4.5
 _ZNK6Okular9FormField9isVisibleEv@Base 4:4.4.5
 _ZNK6Okular9Generator10hasFeatureENS0_16GeneratorFeatureE@Base 4:4.4.5
 _ZNK6Okular9Generator10metaObjectEv@Base 4:4.4.5
 _ZNK6Okular9Generator10printErrorEv@Base 4:4.6.1
 _ZNK6Okular9Generator13embeddedFilesEv@Base 4:4.4.5
 _ZNK6Okular9Generator13exportFormatsEv@Base 4:4.4.5
 _ZNK6Okular9Generator15pagesSizeMetricEv@Base 4:4.4.5
 _ZNK6Okular9Generator16documentMetaDataERK7QStringRK8QVariant@Base 4:4.4.5
 _ZNK6Okular9Generator17canGeneratePixmapEv@Base 4:4.4.5
 _ZNK6Okular9Generator19canGenerateTextPageEv@Base 4:4.4.5
 _ZNK6Okular9Generator8documentEv@Base 4:4.4.5
 _ZNK6Okular9Generator8metaDataERK7QStringRK8QVariant@Base 4:4.4.5
 _ZNK6Okular9Generator9isAllowedENS_10PermissionE@Base 4:4.4.5
 _ZNK6Okular9Generator9pageSizesEv@Base 4:4.4.5
 _ZNK6Okular9Generator9userMutexEv@Base 4:4.4.5
 _ZTIN6Okular10AnnotationE@Base 4:4.4.5
 _ZTIN6Okular10GotoActionE@Base 4:4.4.5
 _ZTIN6Okular10ObjectRectE@Base 4:4.4.5
 _ZTIN6Okular11AudioPlayerE@Base 4:4.4.5
 _ZTIN6Okular11SoundActionE@Base 4:4.4.5
 _ZTIN6Okular12BrowseActionE@Base 4:4.4.5
 _ZTIN6Okular12EmbeddedFileE@Base 4:4.4.5
 _ZTIN6Okular12ScriptActionE@Base 4:4.4.5
 _ZTIN6Okular13ExecuteActionE@Base 4:4.4.5
 _ZTIN6Okular13FormFieldTextE@Base 4:4.4.5
 _ZTIN6Okular13InkAnnotationE@Base 4:4.4.5
 _ZTIN6Okular14DocumentActionE@Base 4:4.4.5
 _ZTIN6Okular14GeomAnnotationE@Base 4:4.4.5
 _ZTIN6Okular14LineAnnotationE@Base 4:4.4.5
 _ZTIN6Okular14TextAnnotationE@Base 4:4.4.5
 _ZTIN6Okular15BookmarkManager7PrivateE@Base 4:4.4.5
 _ZTIN6Okular15BookmarkManagerE@Base 4:4.4.5
 _ZTIN6Okular15CaretAnnotationE@Base 4:4.4.5
 _ZTIN6Okular15FormFieldButtonE@Base 4:4.4.5
 _ZTIN6Okular15FormFieldChoiceE@Base 4:4.4.5
 _ZTIN6Okular15MovieAnnotationE@Base 4:4.4.5
 _ZTIN6Okular15SoundAnnotationE@Base 4:4.4.5
 _ZTIN6Okular15StampAnnotationE@Base 4:4.4.5
 _ZTIN6Okular16DocumentObserverE@Base 4:4.4.5
 _ZTIN6Okular19HighlightAnnotationE@Base 4:4.4.5
 _ZTIN6Okular19SourceRefObjectRectE@Base 4:4.4.5
 _ZTIN6Okular20AnnotationObjectRectE@Base 4:4.4.5
 _ZTIN6Okular21TextDocumentConverterE@Base 4:4.4.5
 _ZTIN6Okular21TextDocumentGeneratorE@Base 4:4.4.5
 _ZTIN6Okular24FileAttachmentAnnotationE@Base 4:4.4.5
 _ZTIN6Okular4ViewE@Base 4:4.4.5
 _ZTIN6Okular6ActionE@Base 4:4.4.5
 _ZTIN6Okular8DocumentE@Base 4:4.4.5
 _ZTIN6Okular8SettingsE@Base 4:4.4.5
 _ZTIN6Okular9FormFieldE@Base 4:4.4.5
 _ZTIN6Okular9GeneratorE@Base 4:4.4.5
 _ZTSN6Okular10AnnotationE@Base 4:4.4.5
 _ZTSN6Okular10GotoActionE@Base 4:4.4.5
 _ZTSN6Okular10ObjectRectE@Base 4:4.4.5
 _ZTSN6Okular11AudioPlayerE@Base 4:4.4.5
 _ZTSN6Okular11SoundActionE@Base 4:4.4.5
 _ZTSN6Okular12BrowseActionE@Base 4:4.4.5
 _ZTSN6Okular12EmbeddedFileE@Base 4:4.4.5
 _ZTSN6Okular12ScriptActionE@Base 4:4.4.5
 _ZTSN6Okular13ExecuteActionE@Base 4:4.4.5
 _ZTSN6Okular13FormFieldTextE@Base 4:4.4.5
 _ZTSN6Okular13InkAnnotationE@Base 4:4.4.5
 _ZTSN6Okular14DocumentActionE@Base 4:4.4.5
 _ZTSN6Okular14GeomAnnotationE@Base 4:4.4.5
 _ZTSN6Okular14LineAnnotationE@Base 4:4.4.5
 _ZTSN6Okular14TextAnnotationE@Base 4:4.4.5
 _ZTSN6Okular15BookmarkManager7PrivateE@Base 4:4.4.5
 _ZTSN6Okular15BookmarkManagerE@Base 4:4.4.5
 _ZTSN6Okular15CaretAnnotationE@Base 4:4.4.5
 _ZTSN6Okular15FormFieldButtonE@Base 4:4.4.5
 _ZTSN6Okular15FormFieldChoiceE@Base 4:4.4.5
 _ZTSN6Okular15MovieAnnotationE@Base 4:4.4.5
 _ZTSN6Okular15SoundAnnotationE@Base 4:4.4.5
 _ZTSN6Okular15StampAnnotationE@Base 4:4.4.5
 _ZTSN6Okular16DocumentObserverE@Base 4:4.4.5
 _ZTSN6Okular19HighlightAnnotationE@Base 4:4.4.5
 _ZTSN6Okular19SourceRefObjectRectE@Base 4:4.4.5
 _ZTSN6Okular20AnnotationObjectRectE@Base 4:4.4.5
 _ZTSN6Okular21TextDocumentConverterE@Base 4:4.4.5
 _ZTSN6Okular21TextDocumentGeneratorE@Base 4:4.4.5
 _ZTSN6Okular24FileAttachmentAnnotationE@Base 4:4.4.5
 _ZTSN6Okular4ViewE@Base 4:4.4.5
 _ZTSN6Okular6ActionE@Base 4:4.4.5
 _ZTSN6Okular8DocumentE@Base 4:4.4.5
 _ZTSN6Okular8SettingsE@Base 4:4.4.5
 _ZTSN6Okular9FormFieldE@Base 4:4.4.5
 _ZTSN6Okular9GeneratorE@Base 4:4.4.5
 _ZTVN6Okular10AnnotationE@Base 4:4.4.5
 _ZTVN6Okular10GotoActionE@Base 4:4.4.5
 _ZTVN6Okular10ObjectRectE@Base 4:4.4.5
 _ZTVN6Okular11AudioPlayerE@Base 4:4.4.5
 _ZTVN6Okular11SoundActionE@Base 4:4.4.5
 _ZTVN6Okular12BrowseActionE@Base 4:4.4.5
 _ZTVN6Okular12EmbeddedFileE@Base 4:4.4.5
 _ZTVN6Okular12ScriptActionE@Base 4:4.4.5
 _ZTVN6Okular13ExecuteActionE@Base 4:4.4.5
 _ZTVN6Okular13FormFieldTextE@Base 4:4.4.5
 _ZTVN6Okular13InkAnnotationE@Base 4:4.4.5
 _ZTVN6Okular14DocumentActionE@Base 4:4.4.5
 _ZTVN6Okular14GeomAnnotationE@Base 4:4.4.5
 _ZTVN6Okular14LineAnnotationE@Base 4:4.4.5
 _ZTVN6Okular14TextAnnotationE@Base 4:4.4.5
 _ZTVN6Okular15BookmarkManager7PrivateE@Base 4:4.4.5
 _ZTVN6Okular15BookmarkManagerE@Base 4:4.4.5
 _ZTVN6Okular15CaretAnnotationE@Base 4:4.4.5
 _ZTVN6Okular15FormFieldButtonE@Base 4:4.4.5
 _ZTVN6Okular15FormFieldChoiceE@Base 4:4.4.5
 _ZTVN6Okular15MovieAnnotationE@Base 4:4.4.5
 _ZTVN6Okular15SoundAnnotationE@Base 4:4.4.5
 _ZTVN6Okular15StampAnnotationE@Base 4:4.4.5
 _ZTVN6Okular16DocumentObserverE@Base 4:4.4.5
 _ZTVN6Okular19HighlightAnnotationE@Base 4:4.4.5
 _ZTVN6Okular19SourceRefObjectRectE@Base 4:4.4.5
 _ZTVN6Okular20AnnotationObjectRectE@Base 4:4.4.5
 _ZTVN6Okular21TextDocumentConverterE@Base 4:4.4.5
 _ZTVN6Okular21TextDocumentGeneratorE@Base 4:4.4.5
 _ZTVN6Okular24FileAttachmentAnnotationE@Base 4:4.4.5
 _ZTVN6Okular4ViewE@Base 4:4.4.5
 _ZTVN6Okular6ActionE@Base 4:4.4.5
 _ZTVN6Okular8DocumentE@Base 4:4.4.5
 _ZTVN6Okular8SettingsE@Base 4:4.4.5
 _ZTVN6Okular9FormFieldE@Base 4:4.4.5
 _ZTVN6Okular9GeneratorE@Base 4:4.4.5
 _Zls6QDebugRKN6Okular13PixmapRequestE@Base 4:4.4.5
 _Zls6QDebugRKN6Okular14NormalizedRectE@Base 4:4.4.5
 _Zls6QDebugRKN6Okular15NormalizedPointE@Base 4:4.4.5
